	.text
	.file	"C:/Users/user/workspace/lib_spi/src/spi_async.xc"
                                        # Start of file scope inline assembly
	.inline_definition delay_seconds
	.inline_definition delay_milliseconds
	.inline_definition delay_microseconds
	.weak spi_master_async.1.maxargsize.group
	.globl spi_master_async.1.maxargsize.group
	.add_to_set spi_master_async.1.maxargsize.group, 1
	.weak spi_master_async.1.maxargsize
	.globl spi_master_async.1.maxargsize
	.max_reduce spi_master_async.1.maxargsize, spi_master_async.1.maxargsize.group, 0
	.weak spi_master_async.6.maxargsize.group
	.globl spi_master_async.6.maxargsize.group
	.add_to_set spi_master_async.6.maxargsize.group, 1
	.weak spi_master_async.6.maxargsize
	.globl spi_master_async.6.maxargsize
	.max_reduce spi_master_async.6.maxargsize, spi_master_async.6.maxargsize.group, 0
	.set spi_master_async.select.0.enable.savedstate,202
	.globl spi_master_async.select.0.enable.savedstate
	.set spi_master_async.select.0.enable.cases.maxtimers,0 $M spi_master_async.select.0.case.0.maxtimers
	.globl spi_master_async.select.0.enable.cases.maxtimers
	.set spi_master_async.select.0.enable.cases.maxcores,0 $M spi_master_async.select.0.case.0.maxcores
	.globl spi_master_async.select.0.enable.cases.maxcores
	.set spi_master_async.select.0.enable.cases.maxchanends,0 $M spi_master_async.select.0.case.0.maxchanends
	.globl spi_master_async.select.0.enable.cases.maxchanends
	.set spi_master_async.select.0.enable.cases,0
	.globl spi_master_async.select.0.enable.cases
	.set spi_master_async.select.0.enable.cases.nstackwords, 0 $M (spi_master_async.select.0.case.0.nstackwords)
	.globl spi_master_async.select.0.enable.cases.nstackwords
	.set spi_master_async.dynalloc_maxchanends, 0
	.globl spi_master_async.dynalloc_maxchanends
	.set spi_master_async.dynalloc_maxcores, 0
	.globl spi_master_async.dynalloc_maxcores
	.set spi_master_async.dynalloc_maxtimers, 0
	.globl spi_master_async.dynalloc_maxtimers
	.set spi_master_async.init.0.savedstate,202
	.globl spi_master_async.init.0.savedstate
	.set spi_master_async.select.yield.enable.savedstate,202
	.globl spi_master_async.select.yield.enable.savedstate
	.set spi_master_async.select.yield.enable.cases.maxtimers,0 $M spi_master_async.select.yield.case.1.maxtimers $M spi_master_async.select.yield.case.0.maxtimers
	.globl spi_master_async.select.yield.enable.cases.maxtimers
	.set spi_master_async.select.yield.enable.cases.maxcores,0 $M spi_master_async.select.yield.case.1.maxcores $M spi_master_async.select.yield.case.0.maxcores
	.globl spi_master_async.select.yield.enable.cases.maxcores
	.set spi_master_async.select.yield.enable.cases.maxchanends,0 $M spi_master_async.select.yield.case.1.maxchanends $M spi_master_async.select.yield.case.0.maxchanends
	.globl spi_master_async.select.yield.enable.cases.maxchanends
	.set spi_master_async.select.yield.enable.cases,0
	.globl spi_master_async.select.yield.enable.cases
	.set spi_master_async.select.yield.enable.cases.nstackwords, 0 $M (spi_master_async.select.yield.case.0.nstackwords) $M (spi_master_async.select.yield.case.1.nstackwords)
	.globl spi_master_async.select.yield.enable.cases.nstackwords
	.set spi_master_async.select.enable.savedstate,202
	.globl spi_master_async.select.enable.savedstate
	.set spi_master_async.select.enable.cases.maxtimers,0 $M spi_master_async.select.case.1.maxtimers $M spi_master_async.select.case.0.maxtimers
	.globl spi_master_async.select.enable.cases.maxtimers
	.set spi_master_async.select.enable.cases.maxcores,0 $M spi_master_async.select.case.1.maxcores $M spi_master_async.select.case.0.maxcores
	.globl spi_master_async.select.enable.cases.maxcores
	.set spi_master_async.select.enable.cases.maxchanends,0 $M spi_master_async.select.case.1.maxchanends $M spi_master_async.select.case.0.maxchanends
	.globl spi_master_async.select.enable.cases.maxchanends
	.set spi_master_async.select.enable.cases,0
	.globl spi_master_async.select.enable.cases
	.set spi_master_async.select.enable.cases.nstackwords, 0 $M (spi_master_async.select.case.0.nstackwords) $M (spi_master_async.select.case.1.nstackwords)
	.globl spi_master_async.select.enable.cases.nstackwords
	.weak _i.spi_slave_callback_if.master_ends_transaction.maxchanends.group
	.max_reduce _i.spi_slave_callback_if.master_ends_transaction.max.maxchanends, _i.spi_slave_callback_if.master_ends_transaction.maxchanends.group, 0
	.weak _i.spi_slave_callback_if.master_ends_transaction.maxcores.group
	.max_reduce _i.spi_slave_callback_if.master_ends_transaction.max.maxcores, _i.spi_slave_callback_if.master_ends_transaction.maxcores.group, 0
	.weak _i.spi_slave_callback_if.master_ends_transaction.maxtimers.group
	.max_reduce _i.spi_slave_callback_if.master_ends_transaction.max.maxtimers, _i.spi_slave_callback_if.master_ends_transaction.maxtimers.group, 0
	.weak _i.spi_slave_callback_if.master_ends_transaction.nstackwords.group
	.globl _i.spi_slave_callback_if.master_ends_transaction.nstackwords.group
	.weak _i.spi_slave_callback_if.master_ends_transaction.fns.group
	.globl _i.spi_slave_callback_if.master_ends_transaction.fns.group
	.max_reduce _i.spi_slave_callback_if.master_ends_transaction.max.nstackwords, _i.spi_slave_callback_if.master_ends_transaction.nstackwords.group, 0
	.max_reduce _i.spi_slave_callback_if.master_ends_transaction.fns, _i.spi_slave_callback_if.master_ends_transaction.fns.group, 0
	.weak _i.spi_slave_callback_if.master_requires_data.maxchanends.group
	.max_reduce _i.spi_slave_callback_if.master_requires_data.max.maxchanends, _i.spi_slave_callback_if.master_requires_data.maxchanends.group, 0
	.weak _i.spi_slave_callback_if.master_requires_data.maxcores.group
	.max_reduce _i.spi_slave_callback_if.master_requires_data.max.maxcores, _i.spi_slave_callback_if.master_requires_data.maxcores.group, 0
	.weak _i.spi_slave_callback_if.master_requires_data.maxtimers.group
	.max_reduce _i.spi_slave_callback_if.master_requires_data.max.maxtimers, _i.spi_slave_callback_if.master_requires_data.maxtimers.group, 0
	.weak _i.spi_slave_callback_if.master_requires_data.nstackwords.group
	.globl _i.spi_slave_callback_if.master_requires_data.nstackwords.group
	.weak _i.spi_slave_callback_if.master_requires_data.fns.group
	.globl _i.spi_slave_callback_if.master_requires_data.fns.group
	.max_reduce _i.spi_slave_callback_if.master_requires_data.max.nstackwords, _i.spi_slave_callback_if.master_requires_data.nstackwords.group, 0
	.max_reduce _i.spi_slave_callback_if.master_requires_data.fns, _i.spi_slave_callback_if.master_requires_data.fns.group, 0
	.weak _i.spi_slave_callback_if.master_supplied_data.maxchanends.group
	.max_reduce _i.spi_slave_callback_if.master_supplied_data.max.maxchanends, _i.spi_slave_callback_if.master_supplied_data.maxchanends.group, 0
	.weak _i.spi_slave_callback_if.master_supplied_data.maxcores.group
	.max_reduce _i.spi_slave_callback_if.master_supplied_data.max.maxcores, _i.spi_slave_callback_if.master_supplied_data.maxcores.group, 0
	.weak _i.spi_slave_callback_if.master_supplied_data.maxtimers.group
	.max_reduce _i.spi_slave_callback_if.master_supplied_data.max.maxtimers, _i.spi_slave_callback_if.master_supplied_data.maxtimers.group, 0
	.weak _i.spi_slave_callback_if.master_supplied_data.nstackwords.group
	.globl _i.spi_slave_callback_if.master_supplied_data.nstackwords.group
	.weak _i.spi_slave_callback_if.master_supplied_data.fns.group
	.globl _i.spi_slave_callback_if.master_supplied_data.fns.group
	.max_reduce _i.spi_slave_callback_if.master_supplied_data.max.nstackwords, _i.spi_slave_callback_if.master_supplied_data.nstackwords.group, 0
	.max_reduce _i.spi_slave_callback_if.master_supplied_data.fns, _i.spi_slave_callback_if.master_supplied_data.fns.group, 0
	.weak _i.spi_slave_callback_if.__interface_init.maxchanends.group
	.max_reduce _i.spi_slave_callback_if.__interface_init.max.maxchanends, _i.spi_slave_callback_if.__interface_init.maxchanends.group, 0
	.weak _i.spi_slave_callback_if.__interface_init.maxcores.group
	.max_reduce _i.spi_slave_callback_if.__interface_init.max.maxcores, _i.spi_slave_callback_if.__interface_init.maxcores.group, 0
	.weak _i.spi_slave_callback_if.__interface_init.maxtimers.group
	.max_reduce _i.spi_slave_callback_if.__interface_init.max.maxtimers, _i.spi_slave_callback_if.__interface_init.maxtimers.group, 0
	.weak _i.spi_slave_callback_if.__interface_init.nstackwords.group
	.globl _i.spi_slave_callback_if.__interface_init.nstackwords.group
	.weak _i.spi_slave_callback_if.__interface_init.fns.group
	.globl _i.spi_slave_callback_if.__interface_init.fns.group
	.max_reduce _i.spi_slave_callback_if.__interface_init.max.nstackwords, _i.spi_slave_callback_if.__interface_init.nstackwords.group, 0
	.max_reduce _i.spi_slave_callback_if.__interface_init.fns, _i.spi_slave_callback_if.__interface_init.fns.group, 0
	.weak _i.spi_slave_callback_if._client_call_y.maxchanends.group
	.add_to_set _i.spi_slave_callback_if._client_call_y.maxchanends.group, (__interface_client_call_y_other.maxchanends + __interface_client_call_y_extra.maxchanends), __interface_client_call_y_other
	.max_reduce _i.spi_slave_callback_if._client_call_y.max.maxchanends, _i.spi_slave_callback_if._client_call_y.maxchanends.group, 0
	.weak _i.spi_slave_callback_if._client_call_y.maxcores.group
	.add_to_set _i.spi_slave_callback_if._client_call_y.maxcores.group, (__interface_client_call_y_other.maxcores + __interface_client_call_y_extra.maxcores), __interface_client_call_y_other
	.max_reduce _i.spi_slave_callback_if._client_call_y.max.maxcores, _i.spi_slave_callback_if._client_call_y.maxcores.group, 0
	.weak _i.spi_slave_callback_if._client_call_y.maxtimers.group
	.add_to_set _i.spi_slave_callback_if._client_call_y.maxtimers.group, (__interface_client_call_y_other.maxtimers + __interface_client_call_y_extra.maxtimers), __interface_client_call_y_other
	.max_reduce _i.spi_slave_callback_if._client_call_y.max.maxtimers, _i.spi_slave_callback_if._client_call_y.maxtimers.group, 0
	.weak _i.spi_slave_callback_if._client_call_y.nstackwords.group
	.globl _i.spi_slave_callback_if._client_call_y.nstackwords.group
	.weak _i.spi_slave_callback_if._client_call_y.fns.group
	.globl _i.spi_slave_callback_if._client_call_y.fns.group
	.add_to_set _i.spi_slave_callback_if._client_call_y.nstackwords.group, (__interface_client_call_y_other.nstackwords + __interface_client_call_y_extra.nstackwords), __interface_client_call_y_other
	.add_to_set _i.spi_slave_callback_if._client_call_y.fns.group, __interface_client_call_y_other, __interface_client_call_y_other
	.max_reduce _i.spi_slave_callback_if._client_call_y.max.nstackwords, _i.spi_slave_callback_if._client_call_y.nstackwords.group, 0
	.max_reduce _i.spi_slave_callback_if._client_call_y.fns, _i.spi_slave_callback_if._client_call_y.fns.group, 0
	.weak _i.spi_master_async_if.begin_transaction.maxchanends.group
	.max_reduce _i.spi_master_async_if.begin_transaction.max.maxchanends, _i.spi_master_async_if.begin_transaction.maxchanends.group, 0
	.weak _i.spi_master_async_if.begin_transaction.maxcores.group
	.max_reduce _i.spi_master_async_if.begin_transaction.max.maxcores, _i.spi_master_async_if.begin_transaction.maxcores.group, 0
	.weak _i.spi_master_async_if.begin_transaction.maxtimers.group
	.max_reduce _i.spi_master_async_if.begin_transaction.max.maxtimers, _i.spi_master_async_if.begin_transaction.maxtimers.group, 0
	.weak _i.spi_master_async_if.begin_transaction.nstackwords.group
	.globl _i.spi_master_async_if.begin_transaction.nstackwords.group
	.weak _i.spi_master_async_if.begin_transaction.fns.group
	.globl _i.spi_master_async_if.begin_transaction.fns.group
	.max_reduce _i.spi_master_async_if.begin_transaction.max.nstackwords, _i.spi_master_async_if.begin_transaction.nstackwords.group, 0
	.max_reduce _i.spi_master_async_if.begin_transaction.fns, _i.spi_master_async_if.begin_transaction.fns.group, 0
	.weak _i.spi_master_async_if.end_transaction.maxchanends.group
	.max_reduce _i.spi_master_async_if.end_transaction.max.maxchanends, _i.spi_master_async_if.end_transaction.maxchanends.group, 0
	.weak _i.spi_master_async_if.end_transaction.maxcores.group
	.max_reduce _i.spi_master_async_if.end_transaction.max.maxcores, _i.spi_master_async_if.end_transaction.maxcores.group, 0
	.weak _i.spi_master_async_if.end_transaction.maxtimers.group
	.max_reduce _i.spi_master_async_if.end_transaction.max.maxtimers, _i.spi_master_async_if.end_transaction.maxtimers.group, 0
	.weak _i.spi_master_async_if.end_transaction.nstackwords.group
	.globl _i.spi_master_async_if.end_transaction.nstackwords.group
	.weak _i.spi_master_async_if.end_transaction.fns.group
	.globl _i.spi_master_async_if.end_transaction.fns.group
	.max_reduce _i.spi_master_async_if.end_transaction.max.nstackwords, _i.spi_master_async_if.end_transaction.nstackwords.group, 0
	.max_reduce _i.spi_master_async_if.end_transaction.fns, _i.spi_master_async_if.end_transaction.fns.group, 0
	.weak _i.spi_master_async_if.init_transfer_array_8.maxchanends.group
	.max_reduce _i.spi_master_async_if.init_transfer_array_8.max.maxchanends, _i.spi_master_async_if.init_transfer_array_8.maxchanends.group, 0
	.weak _i.spi_master_async_if.init_transfer_array_8.maxcores.group
	.max_reduce _i.spi_master_async_if.init_transfer_array_8.max.maxcores, _i.spi_master_async_if.init_transfer_array_8.maxcores.group, 0
	.weak _i.spi_master_async_if.init_transfer_array_8.maxtimers.group
	.max_reduce _i.spi_master_async_if.init_transfer_array_8.max.maxtimers, _i.spi_master_async_if.init_transfer_array_8.maxtimers.group, 0
	.weak _i.spi_master_async_if.init_transfer_array_8.nstackwords.group
	.globl _i.spi_master_async_if.init_transfer_array_8.nstackwords.group
	.weak _i.spi_master_async_if.init_transfer_array_8.fns.group
	.globl _i.spi_master_async_if.init_transfer_array_8.fns.group
	.max_reduce _i.spi_master_async_if.init_transfer_array_8.max.nstackwords, _i.spi_master_async_if.init_transfer_array_8.nstackwords.group, 0
	.max_reduce _i.spi_master_async_if.init_transfer_array_8.fns, _i.spi_master_async_if.init_transfer_array_8.fns.group, 0
	.weak _i.spi_master_async_if.init_transfer_array_32.maxchanends.group
	.max_reduce _i.spi_master_async_if.init_transfer_array_32.max.maxchanends, _i.spi_master_async_if.init_transfer_array_32.maxchanends.group, 0
	.weak _i.spi_master_async_if.init_transfer_array_32.maxcores.group
	.max_reduce _i.spi_master_async_if.init_transfer_array_32.max.maxcores, _i.spi_master_async_if.init_transfer_array_32.maxcores.group, 0
	.weak _i.spi_master_async_if.init_transfer_array_32.maxtimers.group
	.max_reduce _i.spi_master_async_if.init_transfer_array_32.max.maxtimers, _i.spi_master_async_if.init_transfer_array_32.maxtimers.group, 0
	.weak _i.spi_master_async_if.init_transfer_array_32.nstackwords.group
	.globl _i.spi_master_async_if.init_transfer_array_32.nstackwords.group
	.weak _i.spi_master_async_if.init_transfer_array_32.fns.group
	.globl _i.spi_master_async_if.init_transfer_array_32.fns.group
	.max_reduce _i.spi_master_async_if.init_transfer_array_32.max.nstackwords, _i.spi_master_async_if.init_transfer_array_32.nstackwords.group, 0
	.max_reduce _i.spi_master_async_if.init_transfer_array_32.fns, _i.spi_master_async_if.init_transfer_array_32.fns.group, 0
	.weak _i.spi_master_async_if.retrieve_transfer_buffers_8.maxchanends.group
	.max_reduce _i.spi_master_async_if.retrieve_transfer_buffers_8.max.maxchanends, _i.spi_master_async_if.retrieve_transfer_buffers_8.maxchanends.group, 0
	.weak _i.spi_master_async_if.retrieve_transfer_buffers_8.maxcores.group
	.max_reduce _i.spi_master_async_if.retrieve_transfer_buffers_8.max.maxcores, _i.spi_master_async_if.retrieve_transfer_buffers_8.maxcores.group, 0
	.weak _i.spi_master_async_if.retrieve_transfer_buffers_8.maxtimers.group
	.max_reduce _i.spi_master_async_if.retrieve_transfer_buffers_8.max.maxtimers, _i.spi_master_async_if.retrieve_transfer_buffers_8.maxtimers.group, 0
	.weak _i.spi_master_async_if.retrieve_transfer_buffers_8.nstackwords.group
	.globl _i.spi_master_async_if.retrieve_transfer_buffers_8.nstackwords.group
	.weak _i.spi_master_async_if.retrieve_transfer_buffers_8.fns.group
	.globl _i.spi_master_async_if.retrieve_transfer_buffers_8.fns.group
	.max_reduce _i.spi_master_async_if.retrieve_transfer_buffers_8.max.nstackwords, _i.spi_master_async_if.retrieve_transfer_buffers_8.nstackwords.group, 0
	.max_reduce _i.spi_master_async_if.retrieve_transfer_buffers_8.fns, _i.spi_master_async_if.retrieve_transfer_buffers_8.fns.group, 0
	.weak _i.spi_master_async_if.retrieve_transfer_buffers_32.maxchanends.group
	.max_reduce _i.spi_master_async_if.retrieve_transfer_buffers_32.max.maxchanends, _i.spi_master_async_if.retrieve_transfer_buffers_32.maxchanends.group, 0
	.weak _i.spi_master_async_if.retrieve_transfer_buffers_32.maxcores.group
	.max_reduce _i.spi_master_async_if.retrieve_transfer_buffers_32.max.maxcores, _i.spi_master_async_if.retrieve_transfer_buffers_32.maxcores.group, 0
	.weak _i.spi_master_async_if.retrieve_transfer_buffers_32.maxtimers.group
	.max_reduce _i.spi_master_async_if.retrieve_transfer_buffers_32.max.maxtimers, _i.spi_master_async_if.retrieve_transfer_buffers_32.maxtimers.group, 0
	.weak _i.spi_master_async_if.retrieve_transfer_buffers_32.nstackwords.group
	.globl _i.spi_master_async_if.retrieve_transfer_buffers_32.nstackwords.group
	.weak _i.spi_master_async_if.retrieve_transfer_buffers_32.fns.group
	.globl _i.spi_master_async_if.retrieve_transfer_buffers_32.fns.group
	.max_reduce _i.spi_master_async_if.retrieve_transfer_buffers_32.max.nstackwords, _i.spi_master_async_if.retrieve_transfer_buffers_32.nstackwords.group, 0
	.max_reduce _i.spi_master_async_if.retrieve_transfer_buffers_32.fns, _i.spi_master_async_if.retrieve_transfer_buffers_32.fns.group, 0
	.weak _i.spi_master_async_if.__interface_init.maxchanends.group
	.max_reduce _i.spi_master_async_if.__interface_init.max.maxchanends, _i.spi_master_async_if.__interface_init.maxchanends.group, 0
	.weak _i.spi_master_async_if.__interface_init.maxcores.group
	.max_reduce _i.spi_master_async_if.__interface_init.max.maxcores, _i.spi_master_async_if.__interface_init.maxcores.group, 0
	.weak _i.spi_master_async_if.__interface_init.maxtimers.group
	.max_reduce _i.spi_master_async_if.__interface_init.max.maxtimers, _i.spi_master_async_if.__interface_init.maxtimers.group, 0
	.weak _i.spi_master_async_if.__interface_init.nstackwords.group
	.globl _i.spi_master_async_if.__interface_init.nstackwords.group
	.weak _i.spi_master_async_if.__interface_init.fns.group
	.globl _i.spi_master_async_if.__interface_init.fns.group
	.max_reduce _i.spi_master_async_if.__interface_init.max.nstackwords, _i.spi_master_async_if.__interface_init.nstackwords.group, 0
	.max_reduce _i.spi_master_async_if.__interface_init.fns, _i.spi_master_async_if.__interface_init.fns.group, 0
	.weak _i.spi_master_async_if._client_call_y.maxchanends.group
	.add_to_set _i.spi_master_async_if._client_call_y.maxchanends.group, (__interface_client_call_y_other.maxchanends + __interface_client_call_y_extra.maxchanends), __interface_client_call_y_other
	.max_reduce _i.spi_master_async_if._client_call_y.max.maxchanends, _i.spi_master_async_if._client_call_y.maxchanends.group, 0
	.weak _i.spi_master_async_if._client_call_y.maxcores.group
	.add_to_set _i.spi_master_async_if._client_call_y.maxcores.group, (__interface_client_call_y_other.maxcores + __interface_client_call_y_extra.maxcores), __interface_client_call_y_other
	.max_reduce _i.spi_master_async_if._client_call_y.max.maxcores, _i.spi_master_async_if._client_call_y.maxcores.group, 0
	.weak _i.spi_master_async_if._client_call_y.maxtimers.group
	.add_to_set _i.spi_master_async_if._client_call_y.maxtimers.group, (__interface_client_call_y_other.maxtimers + __interface_client_call_y_extra.maxtimers), __interface_client_call_y_other
	.max_reduce _i.spi_master_async_if._client_call_y.max.maxtimers, _i.spi_master_async_if._client_call_y.maxtimers.group, 0
	.weak _i.spi_master_async_if._client_call_y.nstackwords.group
	.globl _i.spi_master_async_if._client_call_y.nstackwords.group
	.weak _i.spi_master_async_if._client_call_y.fns.group
	.globl _i.spi_master_async_if._client_call_y.fns.group
	.add_to_set _i.spi_master_async_if._client_call_y.nstackwords.group, (__interface_client_call_y_other.nstackwords + __interface_client_call_y_extra.nstackwords), __interface_client_call_y_other
	.add_to_set _i.spi_master_async_if._client_call_y.fns.group, __interface_client_call_y_other, __interface_client_call_y_other
	.max_reduce _i.spi_master_async_if._client_call_y.max.nstackwords, _i.spi_master_async_if._client_call_y.nstackwords.group, 0
	.max_reduce _i.spi_master_async_if._client_call_y.fns, _i.spi_master_async_if._client_call_y.fns.group, 0
	.weak _i.spi_master_if.begin_transaction.maxchanends.group
	.max_reduce _i.spi_master_if.begin_transaction.max.maxchanends, _i.spi_master_if.begin_transaction.maxchanends.group, 0
	.weak _i.spi_master_if.begin_transaction.maxcores.group
	.max_reduce _i.spi_master_if.begin_transaction.max.maxcores, _i.spi_master_if.begin_transaction.maxcores.group, 0
	.weak _i.spi_master_if.begin_transaction.maxtimers.group
	.max_reduce _i.spi_master_if.begin_transaction.max.maxtimers, _i.spi_master_if.begin_transaction.maxtimers.group, 0
	.weak _i.spi_master_if.begin_transaction.nstackwords.group
	.globl _i.spi_master_if.begin_transaction.nstackwords.group
	.weak _i.spi_master_if.begin_transaction.fns.group
	.globl _i.spi_master_if.begin_transaction.fns.group
	.max_reduce _i.spi_master_if.begin_transaction.max.nstackwords, _i.spi_master_if.begin_transaction.nstackwords.group, 0
	.max_reduce _i.spi_master_if.begin_transaction.fns, _i.spi_master_if.begin_transaction.fns.group, 0
	.weak _i.spi_master_if.end_transaction.maxchanends.group
	.max_reduce _i.spi_master_if.end_transaction.max.maxchanends, _i.spi_master_if.end_transaction.maxchanends.group, 0
	.weak _i.spi_master_if.end_transaction.maxcores.group
	.max_reduce _i.spi_master_if.end_transaction.max.maxcores, _i.spi_master_if.end_transaction.maxcores.group, 0
	.weak _i.spi_master_if.end_transaction.maxtimers.group
	.max_reduce _i.spi_master_if.end_transaction.max.maxtimers, _i.spi_master_if.end_transaction.maxtimers.group, 0
	.weak _i.spi_master_if.end_transaction.nstackwords.group
	.globl _i.spi_master_if.end_transaction.nstackwords.group
	.weak _i.spi_master_if.end_transaction.fns.group
	.globl _i.spi_master_if.end_transaction.fns.group
	.max_reduce _i.spi_master_if.end_transaction.max.nstackwords, _i.spi_master_if.end_transaction.nstackwords.group, 0
	.max_reduce _i.spi_master_if.end_transaction.fns, _i.spi_master_if.end_transaction.fns.group, 0
	.weak _i.spi_master_if.transfer8.maxchanends.group
	.max_reduce _i.spi_master_if.transfer8.max.maxchanends, _i.spi_master_if.transfer8.maxchanends.group, 0
	.weak _i.spi_master_if.transfer8.maxcores.group
	.max_reduce _i.spi_master_if.transfer8.max.maxcores, _i.spi_master_if.transfer8.maxcores.group, 0
	.weak _i.spi_master_if.transfer8.maxtimers.group
	.max_reduce _i.spi_master_if.transfer8.max.maxtimers, _i.spi_master_if.transfer8.maxtimers.group, 0
	.weak _i.spi_master_if.transfer8.nstackwords.group
	.globl _i.spi_master_if.transfer8.nstackwords.group
	.weak _i.spi_master_if.transfer8.fns.group
	.globl _i.spi_master_if.transfer8.fns.group
	.max_reduce _i.spi_master_if.transfer8.max.nstackwords, _i.spi_master_if.transfer8.nstackwords.group, 0
	.max_reduce _i.spi_master_if.transfer8.fns, _i.spi_master_if.transfer8.fns.group, 0
	.weak _i.spi_master_if.transfer32.maxchanends.group
	.max_reduce _i.spi_master_if.transfer32.max.maxchanends, _i.spi_master_if.transfer32.maxchanends.group, 0
	.weak _i.spi_master_if.transfer32.maxcores.group
	.max_reduce _i.spi_master_if.transfer32.max.maxcores, _i.spi_master_if.transfer32.maxcores.group, 0
	.weak _i.spi_master_if.transfer32.maxtimers.group
	.max_reduce _i.spi_master_if.transfer32.max.maxtimers, _i.spi_master_if.transfer32.maxtimers.group, 0
	.weak _i.spi_master_if.transfer32.nstackwords.group
	.globl _i.spi_master_if.transfer32.nstackwords.group
	.weak _i.spi_master_if.transfer32.fns.group
	.globl _i.spi_master_if.transfer32.fns.group
	.max_reduce _i.spi_master_if.transfer32.max.nstackwords, _i.spi_master_if.transfer32.nstackwords.group, 0
	.max_reduce _i.spi_master_if.transfer32.fns, _i.spi_master_if.transfer32.fns.group, 0
	.weak _i.spi_master_if.__interface_init.maxchanends.group
	.max_reduce _i.spi_master_if.__interface_init.max.maxchanends, _i.spi_master_if.__interface_init.maxchanends.group, 0
	.weak _i.spi_master_if.__interface_init.maxcores.group
	.max_reduce _i.spi_master_if.__interface_init.max.maxcores, _i.spi_master_if.__interface_init.maxcores.group, 0
	.weak _i.spi_master_if.__interface_init.maxtimers.group
	.max_reduce _i.spi_master_if.__interface_init.max.maxtimers, _i.spi_master_if.__interface_init.maxtimers.group, 0
	.weak _i.spi_master_if.__interface_init.nstackwords.group
	.globl _i.spi_master_if.__interface_init.nstackwords.group
	.weak _i.spi_master_if.__interface_init.fns.group
	.globl _i.spi_master_if.__interface_init.fns.group
	.max_reduce _i.spi_master_if.__interface_init.max.nstackwords, _i.spi_master_if.__interface_init.nstackwords.group, 0
	.max_reduce _i.spi_master_if.__interface_init.fns, _i.spi_master_if.__interface_init.fns.group, 0
	.weak _i.spi_master_if._client_call_y.maxchanends.group
	.add_to_set _i.spi_master_if._client_call_y.maxchanends.group, (__interface_client_call_y_other.maxchanends + __interface_client_call_y_extra.maxchanends), __interface_client_call_y_other
	.max_reduce _i.spi_master_if._client_call_y.max.maxchanends, _i.spi_master_if._client_call_y.maxchanends.group, 0
	.weak _i.spi_master_if._client_call_y.maxcores.group
	.add_to_set _i.spi_master_if._client_call_y.maxcores.group, (__interface_client_call_y_other.maxcores + __interface_client_call_y_extra.maxcores), __interface_client_call_y_other
	.max_reduce _i.spi_master_if._client_call_y.max.maxcores, _i.spi_master_if._client_call_y.maxcores.group, 0
	.weak _i.spi_master_if._client_call_y.maxtimers.group
	.add_to_set _i.spi_master_if._client_call_y.maxtimers.group, (__interface_client_call_y_other.maxtimers + __interface_client_call_y_extra.maxtimers), __interface_client_call_y_other
	.max_reduce _i.spi_master_if._client_call_y.max.maxtimers, _i.spi_master_if._client_call_y.maxtimers.group, 0
	.weak _i.spi_master_if._client_call_y.nstackwords.group
	.globl _i.spi_master_if._client_call_y.nstackwords.group
	.weak _i.spi_master_if._client_call_y.fns.group
	.globl _i.spi_master_if._client_call_y.fns.group
	.add_to_set _i.spi_master_if._client_call_y.nstackwords.group, (__interface_client_call_y_other.nstackwords + __interface_client_call_y_extra.nstackwords), __interface_client_call_y_other
	.add_to_set _i.spi_master_if._client_call_y.fns.group, __interface_client_call_y_other, __interface_client_call_y_other
	.max_reduce _i.spi_master_if._client_call_y.max.nstackwords, _i.spi_master_if._client_call_y.nstackwords.group, 0
	.max_reduce _i.spi_master_if._client_call_y.fns, _i.spi_master_if._client_call_y.fns.group, 0
	.set usage.anon.0,0
	.set usage.anon.1,0
	.set usage.anon.2,0
	.set usage.anon.3,0
	.set usage.anon.4,0
	.set usage.anon.5,0
	.set usage.anon.6,0
	.set usage.anon.7,0
	.call spi_master_async,usage.anon.7
	.call spi_master_async,usage.anon.6
	.call spi_master_async,usage.anon.5
	.call spi_master_async,usage.anon.4
	.call spi_master_async,usage.anon.3
	.call spi_master_async,delay_ticks
	.call spi_master_async,configure_out_port
	.call spi_master_async,configure_in_port
	.call spi_master_async,configure_clock_src
	.call spi_master_async,configure_clock_ref
	.call usage.anon.7,usage.anon.4
	.call usage.anon.6,usage.anon.3
	.call usage.anon.5,configure_clock_ref
	.call usage.anon.2,delay_ticks_longlong
	.call usage.anon.1,delay_ticks_longlong
	.call usage.anon.0,delay_ticks_longlong
	.set usage.anon.3.locnoside, 0
	.set usage.anon.4.locnoside, 0
	.set usage.anon.5.locnoside, 0
	.set usage.anon.6.locnoside, 0
	.set usage.anon.7.locnoside, 0
	.set spi_master_async.locnoside, 0
	.set spi_master_async.locnointerfaceaccess, 0
	.assert 1,usage.anon.7.actnonotificationselect,"C:/Users/user/workspace/lib_spi/src/spi_async.xc:349:25: error: call to function `first_transfer_array_32\' which selects on a notification in a combinable function select case\n                        first_transfer_array_32(sclk, mosi, miso, active_mode, cb1, buffer_tx[0]);\n                        ^~~~~~~~~~~~~~~~~~~~~~~~~~~~~~~~~~~~~~~~~~~~~~~~~~~~~~~~~~~~~~~~~~~~~~~~~"
	.assert 1,usage.anon.6.actnonotificationselect,"C:/Users/user/workspace/lib_spi/src/spi_async.xc:316:25: error: call to function `init_init_transfer_array_8\' which selects on a notification in a combinable function select case\n                        init_init_transfer_array_8(sclk, mosi, miso, active_mode, cb1, ((uint8_t*movable)buffer_tx)[0]);\n                        ^~~~~~~~~~~~~~~~~~~~~~~~~~~~~~~~~~~~~~~~~~~~~~~~~~~~~~~~~~~~~~~~~~~~~~~~~~~~~~~~~~~~~~~~~~~~~~~"
	.assert 1,usage.anon.5.actnonotificationselect,"C:/Users/user/workspace/lib_spi/src/spi_async.xc:270:21: error: call to function `setup_new_transaction\' which selects on a notification in a combinable function select case\n                    setup_new_transaction(sclk, p_ss, cb0, mode, new_device_index,\n                    ^~~~~~~~~~~~~~~~~~~~~~~~~~~~~~~~~~~~~~~~~~~~~~~~~~~~~~~~~~~~~~"
	.assert 1,usage.anon.4.actnonotificationselect,"C:/Users/user/workspace/lib_spi/src/spi_async.xc:373:25: error: call to function `transfer32_async\' which selects on a notification in a combinable function select case\n                        transfer32_async(sclk, mosi, miso, buffer_tx[current_index]);\n                        ^~~~~~~~~~~~~~~~~~~~~~~~~~~~~~~~~~~~~~~~~~~~~~~~~~~~~~~~~~~~"
	.assert 1,usage.anon.3.actnonotificationselect,"C:/Users/user/workspace/lib_spi/src/spi_async.xc:363:25: error: call to function `transfer8_async\' which selects on a notification in a combinable function select case\n                        transfer8_async(sclk, mosi, miso,\n                        ^~~~~~~~~~~~~~~~~~~~~~~~~~~~~~~~~"
	.assert 1,delay_ticks.actnonotificationselect,"C:/Users/user/workspace/lib_spi/src/spi_async.xc:254:20: error: call to function `delay_ticks\' which selects on a notification in a combinable function select case\n                   delay_ticks(ss_deassert_time&0xffff0000);\n                   ^~~~~~~~~~~~~~~~~~~~~~~~~~~~~~~~~~~~~~~~"

                                        # End of file scope inline assembly
	.text
	.globl	_i.spi_master_async_if.spi_master_async._c0.retrieve_transfer_buffers_32
	.align	4
	.type	_i.spi_master_async_if.spi_master_async._c0.retrieve_transfer_buffers_32,@function
	.cc_top _i.spi_master_async_if.spi_master_async._c0.retrieve_transfer_buffers_32.function,_i.spi_master_async_if.spi_master_async._c0.retrieve_transfer_buffers_32
_i.spi_master_async_if.spi_master_async._c0.retrieve_transfer_buffers_32: # @_i.spi_master_async_if.spi_master_async._c0.retrieve_transfer_buffers_32
.Lfunc_begin0:
	.loc	1 385 0                 # C:/Users/user/workspace/lib_spi/src/spi_async.xc:385:0
	.cfi_startproc
	.issue_mode dual
# BB#0:                                 # %allocas
	{
		nop
		dualentsp 0
	}
	{
		extsp 6
		nop
	}
.Ltmp0:
	.cfi_def_cfa_offset 24
	std r5, r4, sp[0]               # 4-byte Folded Spill
.Ltmp1:
	.cfi_offset 4, -24
.Ltmp2:
	.cfi_offset 5, -20
	std r7, r6, sp[1]               # 4-byte Folded Spill
.Ltmp3:
	.cfi_offset 6, -16
.Ltmp4:
	.cfi_offset 7, -12
	std r9, r8, sp[2]               # 4-byte Folded Spill
.Ltmp5:
	.cfi_offset 8, -8
.Ltmp6:
	.cfi_offset 9, -4
	#DEBUG_VALUE: _i.spi_master_async_if.spi_master_async._c0.retrieve_transfer_buffers_32:p <- R0
	#DEBUG_VALUE: _i.spi_master_async_if.spi_master_async._c0.retrieve_transfer_buffers_32:clientNotifyFlag <- R1
	#DEBUG_VALUE: _i.spi_master_async_if.spi_master_async._c0.retrieve_transfer_buffers_32:inbuf <- R2
	#DEBUG_VALUE: _i.spi_master_async_if.spi_master_async._c0.retrieve_transfer_buffers_32:outbuf <- R3
	{
		nop
		ldw r11, r0[0]
	}
	{
		nop
		ldw r4, r0[1]
	}
.Ltmp7:
.LBB0_1:                                # %allocas
                                        # =>This Inner Loop Header: Depth=1
	{
		nop
		ldw r0, r11[0]
	}
	bf r0, .LBB0_1
# BB#2:                                 # %ifdone
.Ltmp8:
	#DEBUG_VALUE: _i.spi_master_async_if.spi_master_async._c0.retrieve_transfer_buffers_32:clientNotifyFlag <- R1
	#DEBUG_VALUE: _i.spi_master_async_if.spi_master_async._c0.retrieve_transfer_buffers_32:inbuf <- R2
	#DEBUG_VALUE: _i.spi_master_async_if.spi_master_async._c0.retrieve_transfer_buffers_32:outbuf <- R3
	{
		ldc r0, 0
		nop
	}
	{
		nop
		stw r0, r11[0]
	}
	{
		nop
		ldw r5, r11[2]
	}
	{
		nop
		ldw r4, r5[r4]
	}
	{
		nop
		ldw r5, r4[4]
	}
	{
		eq r1, r5, r1
		nop
	}
.Ltmp9:
	bt r1, .LBB0_4
.Ltmp10:
# BB#3:                                 # %refillchan
	#DEBUG_VALUE: _i.spi_master_async_if.spi_master_async._c0.retrieve_transfer_buffers_32:inbuf <- R2
	#DEBUG_VALUE: _i.spi_master_async_if.spi_master_async._c0.retrieve_transfer_buffers_32:outbuf <- R3
	{
		nop
		ldw r1, r4[2]
	}
	{
		nop
		ldw r5, r4[3]
	}
	#APP
	getd r6, res[r1]
	#NO_APP
	{
		setd res[r1], r5
		nop
	}
	{
		outct res[r1], 1
		nop
	}
	{
		setd res[r1], r6
		nop
	}
.Ltmp11:
.LBB0_4:                                # %afternotifycheck
	#DEBUG_VALUE: _i.spi_master_async_if.spi_master_async._c0.retrieve_transfer_buffers_32:inbuf <- R2
	#DEBUG_VALUE: _i.spi_master_async_if.spi_master_async._c0.retrieve_transfer_buffers_32:outbuf <- R3
	{
		mkmsk r1, 1
		nop
	}
	{
		nop
		stw r1, r4[4]
	}
	ldc r4, 592
	.loc	1 387 0 prologue_end    # C:/Users/user/workspace/lib_spi/src/spi_async.xc:387:0
.Ltmp12:
	{
		add r4, r11, r4
		nop
	}
	{
		nop
		ldw r5, r4[0]
	}
	ldc r6, 596
	.loc	1 387 0                 # C:/Users/user/workspace/lib_spi/src/spi_async.xc:387:0
	{
		add r6, r11, r6
		nop
	}
	{
		nop
		ldw r7, r6[0]
	}
	ldc r8, 600
	.loc	1 387 0                 # C:/Users/user/workspace/lib_spi/src/spi_async.xc:387:0
	{
		add r8, r11, r8
		nop
	}
	{
		nop
		ldw r9, r8[0]
	}
	{
		nop
		stw r0, r4[0]
	}
	{
		nop
		stw r0, r6[0]
	}
	{
		nop
		stw r0, r8[0]
	}
	{
		nop
		stw r5, r2[0]
	}
	{
		nop
		stw r7, r2[1]
	}
	{
		nop
		stw r9, r2[2]
	}
	ldc r2, 572
.Ltmp13:
	.loc	1 388 0                 # C:/Users/user/workspace/lib_spi/src/spi_async.xc:388:0
	{
		add r2, r11, r2
		nop
	}
	{
		nop
		ldw r4, r2[0]
	}
	ldc r5, 576
	.loc	1 388 0                 # C:/Users/user/workspace/lib_spi/src/spi_async.xc:388:0
	{
		add r5, r11, r5
		nop
	}
	{
		nop
		ldw r6, r5[0]
	}
	ldc r7, 580
	.loc	1 388 0                 # C:/Users/user/workspace/lib_spi/src/spi_async.xc:388:0
	{
		add r7, r11, r7
		nop
	}
	{
		nop
		ldw r8, r7[0]
	}
	{
		nop
		stw r0, r2[0]
	}
	{
		nop
		stw r0, r5[0]
	}
	{
		nop
		stw r0, r7[0]
	}
	{
		nop
		stw r4, r3[0]
	}
	{
		nop
		stw r6, r3[1]
	}
	{
		nop
		stw r8, r3[2]
	}
	{
		nop
		stw r1, r11[0]
	}
	ldd r9, r8, sp[2]               # 4-byte Folded Reload
	ldd r7, r6, sp[1]               # 4-byte Folded Reload
	ldd r5, r4, sp[0]               # 4-byte Folded Reload
	{
		ldaw sp, sp[6]
		nop
	}
	{
		nop
		retsp 0
	}
	# RETURN_REG_HOLDER
.Ltmp14:
	.cc_bottom _i.spi_master_async_if.spi_master_async._c0.retrieve_transfer_buffers_32.function
	.set	_i.spi_master_async_if.spi_master_async._c0.retrieve_transfer_buffers_32.nstackwords,6
	.globl	_i.spi_master_async_if.spi_master_async._c0.retrieve_transfer_buffers_32.nstackwords
	.set	_i.spi_master_async_if.spi_master_async._c0.retrieve_transfer_buffers_32.maxcores,1
	.globl	_i.spi_master_async_if.spi_master_async._c0.retrieve_transfer_buffers_32.maxcores
	.set	_i.spi_master_async_if.spi_master_async._c0.retrieve_transfer_buffers_32.maxtimers,0
	.globl	_i.spi_master_async_if.spi_master_async._c0.retrieve_transfer_buffers_32.maxtimers
	.set	_i.spi_master_async_if.spi_master_async._c0.retrieve_transfer_buffers_32.maxchanends,0
	.globl	_i.spi_master_async_if.spi_master_async._c0.retrieve_transfer_buffers_32.maxchanends
.Ltmp15:
	.size	_i.spi_master_async_if.spi_master_async._c0.retrieve_transfer_buffers_32, .Ltmp15-_i.spi_master_async_if.spi_master_async._c0.retrieve_transfer_buffers_32
.Lfunc_end0:
	.cfi_endproc

	.globl	_i.spi_master_async_if.spi_master_async._c0.retrieve_transfer_buffers_8
	.align	4
	.type	_i.spi_master_async_if.spi_master_async._c0.retrieve_transfer_buffers_8,@function
	.cc_top _i.spi_master_async_if.spi_master_async._c0.retrieve_transfer_buffers_8.function,_i.spi_master_async_if.spi_master_async._c0.retrieve_transfer_buffers_8
_i.spi_master_async_if.spi_master_async._c0.retrieve_transfer_buffers_8: # @_i.spi_master_async_if.spi_master_async._c0.retrieve_transfer_buffers_8
.Lfunc_begin1:
	.loc	1 378 0                 # C:/Users/user/workspace/lib_spi/src/spi_async.xc:378:0
	.cfi_startproc
	.issue_mode dual
# BB#0:                                 # %allocas
	{
		nop
		dualentsp 0
	}
	{
		extsp 6
		nop
	}
.Ltmp16:
	.cfi_def_cfa_offset 24
	std r5, r4, sp[0]               # 4-byte Folded Spill
.Ltmp17:
	.cfi_offset 4, -24
.Ltmp18:
	.cfi_offset 5, -20
	std r7, r6, sp[1]               # 4-byte Folded Spill
.Ltmp19:
	.cfi_offset 6, -16
.Ltmp20:
	.cfi_offset 7, -12
	std r9, r8, sp[2]               # 4-byte Folded Spill
.Ltmp21:
	.cfi_offset 8, -8
.Ltmp22:
	.cfi_offset 9, -4
	#DEBUG_VALUE: _i.spi_master_async_if.spi_master_async._c0.retrieve_transfer_buffers_8:p <- R0
	#DEBUG_VALUE: _i.spi_master_async_if.spi_master_async._c0.retrieve_transfer_buffers_8:clientNotifyFlag <- R1
	#DEBUG_VALUE: _i.spi_master_async_if.spi_master_async._c0.retrieve_transfer_buffers_8:inbuf <- R2
	#DEBUG_VALUE: _i.spi_master_async_if.spi_master_async._c0.retrieve_transfer_buffers_8:outbuf <- R3
	{
		nop
		ldw r11, r0[0]
	}
	{
		nop
		ldw r4, r0[1]
	}
.Ltmp23:
.LBB1_1:                                # %allocas
                                        # =>This Inner Loop Header: Depth=1
	{
		nop
		ldw r0, r11[0]
	}
	bf r0, .LBB1_1
# BB#2:                                 # %ifdone
.Ltmp24:
	#DEBUG_VALUE: _i.spi_master_async_if.spi_master_async._c0.retrieve_transfer_buffers_8:clientNotifyFlag <- R1
	#DEBUG_VALUE: _i.spi_master_async_if.spi_master_async._c0.retrieve_transfer_buffers_8:inbuf <- R2
	#DEBUG_VALUE: _i.spi_master_async_if.spi_master_async._c0.retrieve_transfer_buffers_8:outbuf <- R3
	{
		ldc r0, 0
		nop
	}
	{
		nop
		stw r0, r11[0]
	}
	{
		nop
		ldw r5, r11[2]
	}
	{
		nop
		ldw r4, r5[r4]
	}
	{
		nop
		ldw r5, r4[4]
	}
	{
		eq r1, r5, r1
		nop
	}
.Ltmp25:
	bt r1, .LBB1_4
.Ltmp26:
# BB#3:                                 # %refillchan
	#DEBUG_VALUE: _i.spi_master_async_if.spi_master_async._c0.retrieve_transfer_buffers_8:inbuf <- R2
	#DEBUG_VALUE: _i.spi_master_async_if.spi_master_async._c0.retrieve_transfer_buffers_8:outbuf <- R3
	{
		nop
		ldw r1, r4[2]
	}
	{
		nop
		ldw r5, r4[3]
	}
	#APP
	getd r6, res[r1]
	#NO_APP
	{
		setd res[r1], r5
		nop
	}
	{
		outct res[r1], 1
		nop
	}
	{
		setd res[r1], r6
		nop
	}
.Ltmp27:
.LBB1_4:                                # %afternotifycheck
	#DEBUG_VALUE: _i.spi_master_async_if.spi_master_async._c0.retrieve_transfer_buffers_8:inbuf <- R2
	#DEBUG_VALUE: _i.spi_master_async_if.spi_master_async._c0.retrieve_transfer_buffers_8:outbuf <- R3
	{
		mkmsk r1, 1
		nop
	}
	{
		nop
		stw r1, r4[4]
	}
	ldc r4, 592
	.loc	1 380 0 prologue_end    # C:/Users/user/workspace/lib_spi/src/spi_async.xc:380:0
.Ltmp28:
	{
		add r4, r11, r4
		nop
	}
	{
		nop
		ldw r5, r4[0]
	}
	ldc r6, 596
	.loc	1 380 0                 # C:/Users/user/workspace/lib_spi/src/spi_async.xc:380:0
	{
		add r6, r11, r6
		nop
	}
	{
		nop
		ldw r7, r6[0]
	}
	ldc r8, 600
	.loc	1 380 0                 # C:/Users/user/workspace/lib_spi/src/spi_async.xc:380:0
	{
		add r8, r11, r8
		nop
	}
	{
		nop
		ldw r9, r8[0]
	}
	{
		nop
		stw r0, r4[0]
	}
	{
		nop
		stw r0, r6[0]
	}
	{
		nop
		stw r0, r8[0]
	}
	{
		nop
		stw r5, r2[0]
	}
	{
		nop
		stw r7, r2[1]
	}
	{
		nop
		stw r9, r2[2]
	}
	ldc r2, 572
.Ltmp29:
	.loc	1 381 0                 # C:/Users/user/workspace/lib_spi/src/spi_async.xc:381:0
	{
		add r2, r11, r2
		nop
	}
	{
		nop
		ldw r4, r2[0]
	}
	ldc r5, 576
	.loc	1 381 0                 # C:/Users/user/workspace/lib_spi/src/spi_async.xc:381:0
	{
		add r5, r11, r5
		nop
	}
	{
		nop
		ldw r6, r5[0]
	}
	ldc r7, 580
	.loc	1 381 0                 # C:/Users/user/workspace/lib_spi/src/spi_async.xc:381:0
	{
		add r7, r11, r7
		nop
	}
	{
		nop
		ldw r8, r7[0]
	}
	{
		nop
		stw r0, r2[0]
	}
	{
		nop
		stw r0, r5[0]
	}
	{
		nop
		stw r0, r7[0]
	}
	{
		nop
		stw r4, r3[0]
	}
	{
		nop
		stw r6, r3[1]
	}
	{
		nop
		stw r8, r3[2]
	}
	{
		nop
		stw r1, r11[0]
	}
	ldd r9, r8, sp[2]               # 4-byte Folded Reload
	ldd r7, r6, sp[1]               # 4-byte Folded Reload
	ldd r5, r4, sp[0]               # 4-byte Folded Reload
	{
		ldaw sp, sp[6]
		nop
	}
	{
		nop
		retsp 0
	}
	# RETURN_REG_HOLDER
.Ltmp30:
	.cc_bottom _i.spi_master_async_if.spi_master_async._c0.retrieve_transfer_buffers_8.function
	.set	_i.spi_master_async_if.spi_master_async._c0.retrieve_transfer_buffers_8.nstackwords,6
	.globl	_i.spi_master_async_if.spi_master_async._c0.retrieve_transfer_buffers_8.nstackwords
	.set	_i.spi_master_async_if.spi_master_async._c0.retrieve_transfer_buffers_8.maxcores,1
	.globl	_i.spi_master_async_if.spi_master_async._c0.retrieve_transfer_buffers_8.maxcores
	.set	_i.spi_master_async_if.spi_master_async._c0.retrieve_transfer_buffers_8.maxtimers,0
	.globl	_i.spi_master_async_if.spi_master_async._c0.retrieve_transfer_buffers_8.maxtimers
	.set	_i.spi_master_async_if.spi_master_async._c0.retrieve_transfer_buffers_8.maxchanends,0
	.globl	_i.spi_master_async_if.spi_master_async._c0.retrieve_transfer_buffers_8.maxchanends
.Ltmp31:
	.size	_i.spi_master_async_if.spi_master_async._c0.retrieve_transfer_buffers_8, .Ltmp31-_i.spi_master_async_if.spi_master_async._c0.retrieve_transfer_buffers_8
.Lfunc_end1:
	.cfi_endproc

	.globl	_i.spi_master_async_if.spi_master_async._c0.init_transfer_array_32
	.align	4
	.type	_i.spi_master_async_if.spi_master_async._c0.init_transfer_array_32,@function
	.cc_top _i.spi_master_async_if.spi_master_async._c0.init_transfer_array_32.function,_i.spi_master_async_if.spi_master_async._c0.init_transfer_array_32
_i.spi_master_async_if.spi_master_async._c0.init_transfer_array_32: # @_i.spi_master_async_if.spi_master_async._c0.init_transfer_array_32
.Lfunc_begin2:
	.loc	1 322 0                 # C:/Users/user/workspace/lib_spi/src/spi_async.xc:322:0
	.cfi_startproc
	.issue_mode dual
# BB#0:                                 # %allocas
	{
		nop
		dualentsp 12
	}
.Ltmp32:
	.cfi_def_cfa_offset 48
.Ltmp33:
	.cfi_offset 15, 0
	std r5, r4, sp[2]               # 4-byte Folded Spill
.Ltmp34:
	.cfi_offset 4, -32
.Ltmp35:
	.cfi_offset 5, -28
	std r7, r6, sp[3]               # 4-byte Folded Spill
.Ltmp36:
	.cfi_offset 6, -24
.Ltmp37:
	.cfi_offset 7, -20
	std r9, r8, sp[4]               # 4-byte Folded Spill
.Ltmp38:
	.cfi_offset 8, -16
.Ltmp39:
	.cfi_offset 9, -12
	{
		nop
		stw r10, sp[10]
	}
.Ltmp40:
	.cfi_offset 10, -8
	#DEBUG_VALUE: _i.spi_master_async_if.spi_master_async._c0.init_transfer_array_32:p <- R0
	#DEBUG_VALUE: _i.spi_master_async_if.spi_master_async._c0.init_transfer_array_32:nwords <- R3
	ldd r5, r11, sp[7]
	{
		nop
		ldw r4, r0[0]
	}
	{
		nop
		ldw r6, r0[1]
	}
.Ltmp41:
.LBB2_1:                                # %allocas
                                        # =>This Inner Loop Header: Depth=1
	{
		nop
		ldw r0, r4[0]
	}
	bf r0, .LBB2_1
# BB#2:                                 # %ifdone
.Ltmp42:
	#DEBUG_VALUE: _i.spi_master_async_if.spi_master_async._c0.init_transfer_array_32:nwords <- R3
	{
		nop
		ldw r7, sp[16]
	}
	{
		ldc r8, 0
		ldw r9, sp[13]
	}
	{
		nop
		stw r8, r4[0]
	}
	ldc r0, 628
	.loc	1 326 17 prologue_end   # C:/Users/user/workspace/lib_spi/src/spi_async.xc:326:17
.Ltmp43:
	{
		add r0, r4, r0
		nop
	}
	{
		nop
		ldw r0, r0[0]
	}
	.loc	1 326 17                # C:/Users/user/workspace/lib_spi/src/spi_async.xc:326:17
	{
		eq r0, r6, r0
		nop
	}
	.loc	1 326 17                # C:/Users/user/workspace/lib_spi/src/spi_async.xc:326:17
	bf r0, .LBB2_3
.Ltmp44:
# BB#8:                                 # %iffalse23
.Lxtalabel0:
	#DEBUG_VALUE: _i.spi_master_async_if.spi_master_async._c0.init_transfer_array_32:nwords <- R3
	ldc r0, 612
	.loc	1 341 0                 # C:/Users/user/workspace/lib_spi/src/spi_async.xc:341:0
	{
		add r0, r4, r0
		shl r3, r3, 2
	}
.Ltmp45:
	{
		nop
		stw r3, r0[0]
	}
	ldc r0, 572
	.loc	1 342 0                 # C:/Users/user/workspace/lib_spi/src/spi_async.xc:342:0
	{
		add r0, r4, r0
		nop
	}
	{
		nop
		stw r2, r0[0]
	}
	ldc r0, 576
	.loc	1 342 0                 # C:/Users/user/workspace/lib_spi/src/spi_async.xc:342:0
	{
		add r0, r4, r0
		nop
	}
	{
		nop
		stw r5, r0[0]
	}
	ldc r0, 580
	.loc	1 342 0                 # C:/Users/user/workspace/lib_spi/src/spi_async.xc:342:0
	{
		add r0, r4, r0
		nop
	}
	{
		nop
		stw r7, r0[0]
	}
	ldc r0, 592
	.loc	1 343 0                 # C:/Users/user/workspace/lib_spi/src/spi_async.xc:343:0
	{
		add r0, r4, r0
		nop
	}
	{
		nop
		stw r1, r0[0]
	}
	ldc r0, 596
	.loc	1 343 0                 # C:/Users/user/workspace/lib_spi/src/spi_async.xc:343:0
	{
		add r0, r4, r0
		nop
	}
	{
		nop
		stw r9, r0[0]
	}
	ldc r0, 600
	.loc	1 343 0                 # C:/Users/user/workspace/lib_spi/src/spi_async.xc:343:0
	{
		add r0, r4, r0
		nop
	}
	{
		nop
		stw r11, r0[0]
	}
	.loc	1 345 21                # C:/Users/user/workspace/lib_spi/src/spi_async.xc:345:21
	bf r3, .LBB2_9
# BB#11:                                # %iffalse98
.Lxtalabel1:
	ldc r0, 620
	.loc	1 348 0                 # C:/Users/user/workspace/lib_spi/src/spi_async.xc:348:0
	{
		add r0, r4, r0
		ldc r1, 32
	}
	.loc	1 348 0                 # C:/Users/user/workspace/lib_spi/src/spi_async.xc:348:0
	{
		sub r0, r2, r5
		stw r1, r0[0]
	}
	{
		mkmsk r1, 2
		nop
	}
	.loc	1 349 0                 # C:/Users/user/workspace/lib_spi/src/spi_async.xc:349:0
	{
		lsu r1, r7, r1
		nop
	}
	.loc	1 349 0                 # C:/Users/user/workspace/lib_spi/src/spi_async.xc:349:0
	bt r1, .LBB2_12
# BB#13:                                # %iffalse98
.Lxtalabel2:
	.loc	1 349 0                 # C:/Users/user/workspace/lib_spi/src/spi_async.xc:349:0
	{
		sub r1, r7, 3
		nop
	}
	bu .LBB2_14
.LBB2_3:                                # %iftrue18
.Lxtalabel3:
.Ltmp46:
	#DEBUG_VALUE: _i.spi_master_async_if.spi_master_async._c0.init_transfer_array_32:nwords <- R3
	#DEBUG_VALUE: j <- 0
	{
		nop
		stw r11, sp[3]
	}
	{
		nop
		ldw r9, r4[4]
	}
.Ltrap_info0:
	{
		ecallf r9
		nop
	}
	#DEBUG_VALUE: _i.spi_master_async_if.spi_master_async._c0.init_transfer_array_32:nwords <- R3
	#DEBUG_VALUE: j <- 0
	{
		ldc r0, 52
		nop
	}
	{
		add r10, r4, r0
		mkmsk r0, 3
	}
	{
		ldc r7, 48
		nop
	}
	bu .LBB2_4
.Ltmp47:
.LBB2_5:                                # %LoopIncrement
                                        #   in Loop: Header=BB2_4 Depth=1
.Lxtalabel4:
	#DEBUG_VALUE: _i.spi_master_async_if.spi_master_async._c0.init_transfer_array_32:nwords <- R3
	#DEBUG_VALUE: j <- 0
	#DEBUG_VALUE: j <- R8
	.loc	1 329 0                 # C:/Users/user/workspace/lib_spi/src/spi_async.xc:329:0
	{
		add r8, r8, 1
		add r10, r10, r7
	}
.Ltmp48:
	.loc	1 329 0                 # C:/Users/user/workspace/lib_spi/src/spi_async.xc:329:0
	{
		lsu r11, r8, r9
		nop
	}
.Lxta.loop_labels0:
	# LOOPMARKER 0
.Ltrap_info1:
	{
		ecallf r11
		nop
	}
.Ltmp49:
.LBB2_4:                                # %LoopBody31
                                        # =>This Inner Loop Header: Depth=1
.Lxtalabel5:
	#DEBUG_VALUE: _i.spi_master_async_if.spi_master_async._c0.init_transfer_array_32:nwords <- R3
	#DEBUG_VALUE: j <- 0
	.loc	1 330 25                # C:/Users/user/workspace/lib_spi/src/spi_async.xc:330:25
	{
		lsu r11, r0, r8
		nop
	}
.Ltrap_info2:
	{
		ecallt r11
		nop
	}
	#DEBUG_VALUE: _i.spi_master_async_if.spi_master_async._c0.init_transfer_array_32:nwords <- R3
	#DEBUG_VALUE: j <- 0
	{
		nop
		ldw r11, r10[0]
	}
	.loc	1 330 25                # C:/Users/user/workspace/lib_spi/src/spi_async.xc:330:25
	{
		eq r11, r11, r6
		nop
	}
	.loc	1 330 25                # C:/Users/user/workspace/lib_spi/src/spi_async.xc:330:25
	bf r11, .LBB2_5
.Ltmp50:
# BB#6:                                 # %afterboundcheck52
.Lxtalabel6:
	#DEBUG_VALUE: _i.spi_master_async_if.spi_master_async._c0.init_transfer_array_32:nwords <- R3
	.loc	1 335 0                 # C:/Users/user/workspace/lib_spi/src/spi_async.xc:335:0
	mul r0, r8, r7
	{
		add r0, r4, r0
		nop
	}
	ldc r11, 68
	{
		add r11, r0, r11
		shl r3, r3, 2
	}
.Ltmp51:
	{
		nop
		stw r3, r11[0]
	}
	ldc r3, 76
	.loc	1 336 0                 # C:/Users/user/workspace/lib_spi/src/spi_async.xc:336:0
	{
		add r3, r0, r3
		nop
	}
	{
		nop
		stw r2, r3[0]
	}
	ldc r2, 80
	.loc	1 336 0                 # C:/Users/user/workspace/lib_spi/src/spi_async.xc:336:0
	{
		add r2, r0, r2
		nop
	}
	{
		nop
		stw r5, r2[0]
	}
	ldc r2, 84
	.loc	1 336 0                 # C:/Users/user/workspace/lib_spi/src/spi_async.xc:336:0
	{
		add r2, r0, r2
		ldw r3, sp[16]
	}
	{
		nop
		stw r3, r2[0]
	}
	ldc r2, 88
	.loc	1 337 0                 # C:/Users/user/workspace/lib_spi/src/spi_async.xc:337:0
	{
		add r2, r0, r2
		nop
	}
	{
		nop
		stw r1, r2[0]
	}
	ldc r1, 92
	.loc	1 337 0                 # C:/Users/user/workspace/lib_spi/src/spi_async.xc:337:0
	{
		add r1, r0, r1
		ldw r2, sp[13]
	}
	{
		nop
		stw r2, r1[0]
	}
	ldc r1, 96
	.loc	1 337 0                 # C:/Users/user/workspace/lib_spi/src/spi_async.xc:337:0
	{
		add r1, r0, r1
		ldw r2, sp[3]
	}
	{
		nop
		stw r2, r1[0]
	}
	ldc r1, 72
	.loc	1 338 0                 # C:/Users/user/workspace/lib_spi/src/spi_async.xc:338:0
	{
		add r0, r0, r1
		ldc r1, 32
	}
	{
		nop
		stw r1, r0[0]
	}
	bu .LBB2_7
.Ltmp52:
.LBB2_9:                                # %iftrue91
.Lxtalabel7:
	{
		nop
		ldw r0, r4[3]
	}
	.loc	1 346 0                 # C:/Users/user/workspace/lib_spi/src/spi_async.xc:346:0
	{
		lsu r0, r6, r0
		nop
	}
.Ltrap_info3:
	{
		ecallf r0
		nop
	}
	{
		nop
		ldw r0, r4[2]
	}
	{
		nop
		ldw r0, r0[r6]
	}
	{
		nop
		ldw r1, r0[4]
	}
	bf r1, .LBB2_7
# BB#10:                                # %sendNotify
	{
		nop
		ldw r1, r0[2]
	}
	{
		nop
		ldw r2, r0[3]
	}
	.loc	1 346 0                 # C:/Users/user/workspace/lib_spi/src/spi_async.xc:346:0
	#APP
	getd r3, res[r1]
	#NO_APP
	.loc	1 346 0                 # C:/Users/user/workspace/lib_spi/src/spi_async.xc:346:0
	{
		setd res[r1], r2
		nop
	}
	.loc	1 346 0                 # C:/Users/user/workspace/lib_spi/src/spi_async.xc:346:0
	{
		outct res[r1], 1
		nop
	}
	.loc	1 346 0                 # C:/Users/user/workspace/lib_spi/src/spi_async.xc:346:0
	{
		setd res[r1], r3
		ldc r1, 0
	}
	{
		nop
		stw r1, r0[4]
	}
	bu .LBB2_7
.LBB2_12:
	{
		ldc r1, 0
		nop
	}
.LBB2_14:                               # %iffalse98
.Lxtalabel8:
	.loc	1 349 0                 # C:/Users/user/workspace/lib_spi/src/spi_async.xc:349:0
	{
		lsu r0, r0, r1
		nop
	}
.Ltrap_info4:
	{
		ecallf r0
		nop
	}
	{
		ldc r0, 48
		nop
	}
	.loc	1 349 0                 # C:/Users/user/workspace/lib_spi/src/spi_async.xc:349:0
	{
		add r0, r4, r0
		nop
	}
	{
		nop
		ldw r5, r0[0]
	}
	ldc r0, 632
	.loc	1 349 0                 # C:/Users/user/workspace/lib_spi/src/spi_async.xc:349:0
	{
		add r0, r4, r0
		nop
	}
	{
		nop
		ldw r3, r0[0]
	}
	{
		nop
		ldw r11, r4[7]
	}
	{
		nop
		ldw r1, r4[6]
	}
	{
		nop
		ldw r0, r4[5]
	}
	{
		nop
		ldw r2, r2[0]
	}
	{
		nop
		stw r5, sp[1]
	}
	.loc	1 349 0                 # C:/Users/user/workspace/lib_spi/src/spi_async.xc:349:0
	{
		mov r2, r11
		stw r2, sp[2]
	}
.Lxta.call_labels0:
	bl first_transfer_array_32
.Ltmp53:
.LBB2_7:                                # %ifdone19
.Lxtalabel9:
	{
		mkmsk r0, 1
		nop
	}
	{
		nop
		stw r0, r4[0]
	}
	{
		nop
		ldw r10, sp[10]
	}
	ldd r9, r8, sp[4]               # 4-byte Folded Reload
	ldd r7, r6, sp[3]               # 4-byte Folded Reload
	ldd r5, r4, sp[2]               # 4-byte Folded Reload
	{
		nop
		retsp 12
	}
	# RETURN_REG_HOLDER
	.cc_bottom _i.spi_master_async_if.spi_master_async._c0.init_transfer_array_32.function
	.set	_i.spi_master_async_if.spi_master_async._c0.init_transfer_array_32.nstackwords,(first_transfer_array_32.nstackwords + 12)
	.globl	_i.spi_master_async_if.spi_master_async._c0.init_transfer_array_32.nstackwords
	.set	_i.spi_master_async_if.spi_master_async._c0.init_transfer_array_32.maxcores,first_transfer_array_32.maxcores $M 1
	.globl	_i.spi_master_async_if.spi_master_async._c0.init_transfer_array_32.maxcores
	.set	_i.spi_master_async_if.spi_master_async._c0.init_transfer_array_32.maxtimers,first_transfer_array_32.maxtimers $M 0
	.globl	_i.spi_master_async_if.spi_master_async._c0.init_transfer_array_32.maxtimers
	.set	_i.spi_master_async_if.spi_master_async._c0.init_transfer_array_32.maxchanends,first_transfer_array_32.maxchanends $M 0
	.globl	_i.spi_master_async_if.spi_master_async._c0.init_transfer_array_32.maxchanends
.Ltmp54:
	.size	_i.spi_master_async_if.spi_master_async._c0.init_transfer_array_32, .Ltmp54-_i.spi_master_async_if.spi_master_async._c0.init_transfer_array_32
.Lfunc_end2:
	.cfi_endproc

	.globl	_i.spi_master_async_if.spi_master_async._c0.init_transfer_array_8
	.align	4
	.type	_i.spi_master_async_if.spi_master_async._c0.init_transfer_array_8,@function
	.cc_top _i.spi_master_async_if.spi_master_async._c0.init_transfer_array_8.function,_i.spi_master_async_if.spi_master_async._c0.init_transfer_array_8
_i.spi_master_async_if.spi_master_async._c0.init_transfer_array_8: # @_i.spi_master_async_if.spi_master_async._c0.init_transfer_array_8
.Lfunc_begin3:
	.loc	1 293 0                 # C:/Users/user/workspace/lib_spi/src/spi_async.xc:293:0
	.cfi_startproc
	.issue_mode dual
# BB#0:                                 # %allocas
	{
		nop
		dualentsp 12
	}
.Ltmp55:
	.cfi_def_cfa_offset 48
.Ltmp56:
	.cfi_offset 15, 0
	std r5, r4, sp[2]               # 4-byte Folded Spill
.Ltmp57:
	.cfi_offset 4, -32
.Ltmp58:
	.cfi_offset 5, -28
	std r7, r6, sp[3]               # 4-byte Folded Spill
.Ltmp59:
	.cfi_offset 6, -24
.Ltmp60:
	.cfi_offset 7, -20
	std r9, r8, sp[4]               # 4-byte Folded Spill
.Ltmp61:
	.cfi_offset 8, -16
.Ltmp62:
	.cfi_offset 9, -12
	{
		nop
		stw r10, sp[10]
	}
.Ltmp63:
	.cfi_offset 10, -8
	#DEBUG_VALUE: _i.spi_master_async_if.spi_master_async._c0.init_transfer_array_8:p <- R0
	#DEBUG_VALUE: _i.spi_master_async_if.spi_master_async._c0.init_transfer_array_8:nbytes <- R3
	ldd r5, r11, sp[7]
	{
		nop
		ldw r4, r0[0]
	}
	{
		nop
		ldw r6, r0[1]
	}
.Ltmp64:
.LBB3_1:                                # %allocas
                                        # =>This Inner Loop Header: Depth=1
	{
		nop
		ldw r0, r4[0]
	}
	bf r0, .LBB3_1
# BB#2:                                 # %ifdone
.Ltmp65:
	#DEBUG_VALUE: _i.spi_master_async_if.spi_master_async._c0.init_transfer_array_8:nbytes <- R3
	{
		nop
		ldw r7, sp[16]
	}
	{
		ldc r8, 0
		ldw r9, sp[13]
	}
	{
		nop
		stw r8, r4[0]
	}
	ldc r0, 628
	.loc	1 296 17 prologue_end   # C:/Users/user/workspace/lib_spi/src/spi_async.xc:296:17
.Ltmp66:
	{
		add r0, r4, r0
		nop
	}
	{
		nop
		ldw r0, r0[0]
	}
	.loc	1 296 17                # C:/Users/user/workspace/lib_spi/src/spi_async.xc:296:17
	{
		eq r0, r6, r0
		nop
	}
	.loc	1 296 17                # C:/Users/user/workspace/lib_spi/src/spi_async.xc:296:17
	bf r0, .LBB3_3
.Ltmp67:
# BB#8:                                 # %iffalse23
.Lxtalabel10:
	#DEBUG_VALUE: _i.spi_master_async_if.spi_master_async._c0.init_transfer_array_8:nbytes <- R3
	ldc r0, 612
	.loc	1 309 0                 # C:/Users/user/workspace/lib_spi/src/spi_async.xc:309:0
	{
		add r0, r4, r0
		nop
	}
	{
		nop
		stw r3, r0[0]
	}
	ldc r0, 572
	.loc	1 310 0                 # C:/Users/user/workspace/lib_spi/src/spi_async.xc:310:0
	{
		add r0, r4, r0
		nop
	}
	{
		nop
		stw r2, r0[0]
	}
	ldc r0, 576
	.loc	1 310 0                 # C:/Users/user/workspace/lib_spi/src/spi_async.xc:310:0
	{
		add r0, r4, r0
		nop
	}
	{
		nop
		stw r5, r0[0]
	}
	ldc r0, 580
	.loc	1 310 0                 # C:/Users/user/workspace/lib_spi/src/spi_async.xc:310:0
	{
		add r0, r4, r0
		nop
	}
	{
		nop
		stw r7, r0[0]
	}
	ldc r0, 592
	.loc	1 311 0                 # C:/Users/user/workspace/lib_spi/src/spi_async.xc:311:0
	{
		add r0, r4, r0
		nop
	}
	{
		nop
		stw r1, r0[0]
	}
	ldc r0, 596
	.loc	1 311 0                 # C:/Users/user/workspace/lib_spi/src/spi_async.xc:311:0
	{
		add r0, r4, r0
		nop
	}
	{
		nop
		stw r9, r0[0]
	}
	ldc r0, 600
	.loc	1 311 0                 # C:/Users/user/workspace/lib_spi/src/spi_async.xc:311:0
	{
		add r0, r4, r0
		nop
	}
	{
		nop
		stw r11, r0[0]
	}
	.loc	1 312 21                # C:/Users/user/workspace/lib_spi/src/spi_async.xc:312:21
	bf r3, .LBB3_9
.Ltmp68:
# BB#11:                                # %iffalse97
.Lxtalabel11:
	ldc r0, 620
	.loc	1 315 0                 # C:/Users/user/workspace/lib_spi/src/spi_async.xc:315:0
	{
		add r0, r4, r0
		ldc r1, 8
	}
	.loc	1 315 0                 # C:/Users/user/workspace/lib_spi/src/spi_async.xc:315:0
	{
		sub r0, r2, r5
		stw r1, r0[0]
	}
	.loc	1 316 0                 # C:/Users/user/workspace/lib_spi/src/spi_async.xc:316:0
	{
		lsu r0, r0, r7
		nop
	}
.Ltrap_info5:
	{
		ecallf r0
		nop
	}
	{
		ldc r0, 48
		nop
	}
	.loc	1 316 0                 # C:/Users/user/workspace/lib_spi/src/spi_async.xc:316:0
	{
		add r0, r4, r0
		nop
	}
	{
		nop
		ldw r5, r0[0]
	}
	ldc r0, 632
	.loc	1 316 0                 # C:/Users/user/workspace/lib_spi/src/spi_async.xc:316:0
	{
		add r0, r4, r0
		nop
	}
	{
		nop
		ldw r3, r0[0]
	}
	{
		nop
		ldw r11, r4[7]
	}
	{
		nop
		ldw r1, r4[6]
	}
	.loc	1 316 0                 # C:/Users/user/workspace/lib_spi/src/spi_async.xc:316:0
	{
		ldc r6, 0
		ldw r0, r4[5]
	}
	{
		nop
		ld8u r2, r2[r6]
	}
	{
		nop
		stw r2, sp[2]
	}
	.loc	1 316 0                 # C:/Users/user/workspace/lib_spi/src/spi_async.xc:316:0
	{
		mov r2, r11
		stw r5, sp[1]
	}
.Lxta.call_labels1:
	bl init_init_transfer_array_8
	bu .LBB3_7
.LBB3_3:                                # %iftrue18
.Lxtalabel12:
.Ltmp69:
	#DEBUG_VALUE: _i.spi_master_async_if.spi_master_async._c0.init_transfer_array_8:nbytes <- R3
	#DEBUG_VALUE: j <- 0
	{
		nop
		stw r11, sp[3]
	}
	{
		nop
		ldw r9, r4[4]
	}
.Ltrap_info6:
	{
		ecallf r9
		nop
	}
	#DEBUG_VALUE: _i.spi_master_async_if.spi_master_async._c0.init_transfer_array_8:nbytes <- R3
	#DEBUG_VALUE: j <- 0
	{
		ldc r0, 52
		nop
	}
	{
		add r10, r4, r0
		mkmsk r0, 3
	}
	{
		ldc r7, 48
		nop
	}
	bu .LBB3_4
.Ltmp70:
.LBB3_5:                                # %LoopIncrement
                                        #   in Loop: Header=BB3_4 Depth=1
.Lxtalabel13:
	#DEBUG_VALUE: _i.spi_master_async_if.spi_master_async._c0.init_transfer_array_8:nbytes <- R3
	#DEBUG_VALUE: j <- 0
	#DEBUG_VALUE: j <- R8
	.loc	1 298 0                 # C:/Users/user/workspace/lib_spi/src/spi_async.xc:298:0
	{
		add r8, r8, 1
		add r10, r10, r7
	}
.Ltmp71:
	.loc	1 298 0                 # C:/Users/user/workspace/lib_spi/src/spi_async.xc:298:0
	{
		lsu r11, r8, r9
		nop
	}
.Lxta.loop_labels1:
	# LOOPMARKER 0
.Ltrap_info7:
	{
		ecallf r11
		nop
	}
.Ltmp72:
.LBB3_4:                                # %LoopBody31
                                        # =>This Inner Loop Header: Depth=1
.Lxtalabel14:
	#DEBUG_VALUE: _i.spi_master_async_if.spi_master_async._c0.init_transfer_array_8:nbytes <- R3
	#DEBUG_VALUE: j <- 0
	.loc	1 299 25                # C:/Users/user/workspace/lib_spi/src/spi_async.xc:299:25
	{
		lsu r11, r0, r8
		nop
	}
.Ltrap_info8:
	{
		ecallt r11
		nop
	}
	#DEBUG_VALUE: _i.spi_master_async_if.spi_master_async._c0.init_transfer_array_8:nbytes <- R3
	#DEBUG_VALUE: j <- 0
	{
		nop
		ldw r11, r10[0]
	}
	.loc	1 299 25                # C:/Users/user/workspace/lib_spi/src/spi_async.xc:299:25
	{
		eq r11, r11, r6
		nop
	}
	.loc	1 299 25                # C:/Users/user/workspace/lib_spi/src/spi_async.xc:299:25
	bf r11, .LBB3_5
.Ltmp73:
# BB#6:                                 # %afterboundcheck52
.Lxtalabel15:
	#DEBUG_VALUE: _i.spi_master_async_if.spi_master_async._c0.init_transfer_array_8:nbytes <- R3
	.loc	1 304 0                 # C:/Users/user/workspace/lib_spi/src/spi_async.xc:304:0
	mul r0, r8, r7
	{
		add r0, r4, r0
		nop
	}
	ldc r11, 68
	{
		add r11, r0, r11
		nop
	}
	{
		nop
		stw r3, r11[0]
	}
	ldc r3, 76
.Ltmp74:
	.loc	1 305 0                 # C:/Users/user/workspace/lib_spi/src/spi_async.xc:305:0
	{
		add r3, r0, r3
		nop
	}
	{
		nop
		stw r2, r3[0]
	}
	ldc r2, 80
	.loc	1 305 0                 # C:/Users/user/workspace/lib_spi/src/spi_async.xc:305:0
	{
		add r2, r0, r2
		nop
	}
	{
		nop
		stw r5, r2[0]
	}
	ldc r2, 84
	.loc	1 305 0                 # C:/Users/user/workspace/lib_spi/src/spi_async.xc:305:0
	{
		add r2, r0, r2
		ldw r3, sp[16]
	}
	{
		nop
		stw r3, r2[0]
	}
	ldc r2, 88
	.loc	1 306 0                 # C:/Users/user/workspace/lib_spi/src/spi_async.xc:306:0
	{
		add r2, r0, r2
		nop
	}
	{
		nop
		stw r1, r2[0]
	}
	ldc r1, 92
	.loc	1 306 0                 # C:/Users/user/workspace/lib_spi/src/spi_async.xc:306:0
	{
		add r1, r0, r1
		ldw r2, sp[13]
	}
	{
		nop
		stw r2, r1[0]
	}
	ldc r1, 96
	.loc	1 306 0                 # C:/Users/user/workspace/lib_spi/src/spi_async.xc:306:0
	{
		add r1, r0, r1
		ldw r2, sp[3]
	}
	{
		nop
		stw r2, r1[0]
	}
	ldc r1, 72
	.loc	1 307 0                 # C:/Users/user/workspace/lib_spi/src/spi_async.xc:307:0
	{
		add r0, r0, r1
		ldc r1, 8
	}
	{
		nop
		stw r1, r0[0]
	}
	bu .LBB3_7
.Ltmp75:
.LBB3_9:                                # %iftrue90
.Lxtalabel16:
	{
		nop
		ldw r0, r4[3]
	}
	.loc	1 313 0                 # C:/Users/user/workspace/lib_spi/src/spi_async.xc:313:0
	{
		lsu r0, r6, r0
		nop
	}
.Ltrap_info9:
	{
		ecallf r0
		nop
	}
	{
		nop
		ldw r0, r4[2]
	}
	{
		nop
		ldw r0, r0[r6]
	}
	{
		nop
		ldw r1, r0[4]
	}
	bf r1, .LBB3_7
# BB#10:                                # %sendNotify
	{
		nop
		ldw r1, r0[2]
	}
	{
		nop
		ldw r2, r0[3]
	}
	.loc	1 313 0                 # C:/Users/user/workspace/lib_spi/src/spi_async.xc:313:0
	#APP
	getd r3, res[r1]
	#NO_APP
	.loc	1 313 0                 # C:/Users/user/workspace/lib_spi/src/spi_async.xc:313:0
	{
		setd res[r1], r2
		nop
	}
	.loc	1 313 0                 # C:/Users/user/workspace/lib_spi/src/spi_async.xc:313:0
	{
		outct res[r1], 1
		nop
	}
	.loc	1 313 0                 # C:/Users/user/workspace/lib_spi/src/spi_async.xc:313:0
	{
		setd res[r1], r3
		ldc r1, 0
	}
	{
		nop
		stw r1, r0[4]
	}
.Ltmp76:
.LBB3_7:                                # %ifdone19
.Lxtalabel17:
	{
		mkmsk r0, 1
		nop
	}
	{
		nop
		stw r0, r4[0]
	}
	{
		nop
		ldw r10, sp[10]
	}
	ldd r9, r8, sp[4]               # 4-byte Folded Reload
	ldd r7, r6, sp[3]               # 4-byte Folded Reload
	ldd r5, r4, sp[2]               # 4-byte Folded Reload
	{
		nop
		retsp 12
	}
	# RETURN_REG_HOLDER
	.cc_bottom _i.spi_master_async_if.spi_master_async._c0.init_transfer_array_8.function
	.set	_i.spi_master_async_if.spi_master_async._c0.init_transfer_array_8.nstackwords,(init_init_transfer_array_8.nstackwords + 12)
	.globl	_i.spi_master_async_if.spi_master_async._c0.init_transfer_array_8.nstackwords
	.set	_i.spi_master_async_if.spi_master_async._c0.init_transfer_array_8.maxcores,init_init_transfer_array_8.maxcores $M 1
	.globl	_i.spi_master_async_if.spi_master_async._c0.init_transfer_array_8.maxcores
	.set	_i.spi_master_async_if.spi_master_async._c0.init_transfer_array_8.maxtimers,init_init_transfer_array_8.maxtimers $M 0
	.globl	_i.spi_master_async_if.spi_master_async._c0.init_transfer_array_8.maxtimers
	.set	_i.spi_master_async_if.spi_master_async._c0.init_transfer_array_8.maxchanends,init_init_transfer_array_8.maxchanends $M 0
	.globl	_i.spi_master_async_if.spi_master_async._c0.init_transfer_array_8.maxchanends
.Ltmp77:
	.size	_i.spi_master_async_if.spi_master_async._c0.init_transfer_array_8, .Ltmp77-_i.spi_master_async_if.spi_master_async._c0.init_transfer_array_8
.Lfunc_end3:
	.cfi_endproc

	.section	.cp.rodata.cst4,"aMc",@progbits,4
	.cc_top .LCPI4_0.data,.LCPI4_0
	.align	4
	.type	.LCPI4_0,@object
	.size	.LCPI4_0, 4
.LCPI4_0:
	.long	4294901760              # 0xffff0000
	.cc_bottom .LCPI4_0.data
	.text
	.globl	_i.spi_master_async_if.spi_master_async._c0.end_transaction
	.align	4
	.type	_i.spi_master_async_if.spi_master_async._c0.end_transaction,@function
	.cc_top _i.spi_master_async_if.spi_master_async._c0.end_transaction.function,_i.spi_master_async_if.spi_master_async._c0.end_transaction
_i.spi_master_async_if.spi_master_async._c0.end_transaction: # @_i.spi_master_async_if.spi_master_async._c0.end_transaction
.Lfunc_begin4:
	.loc	1 227 0                 # C:/Users/user/workspace/lib_spi/src/spi_async.xc:227:0
	.cfi_startproc
	.issue_mode dual
# BB#0:                                 # %allocas
	{
		nop
		dualentsp 16
	}
.Ltmp78:
	.cfi_def_cfa_offset 64
.Ltmp79:
	.cfi_offset 15, 0
	std r5, r4, sp[4]               # 4-byte Folded Spill
.Ltmp80:
	.cfi_offset 4, -32
.Ltmp81:
	.cfi_offset 5, -28
	std r7, r6, sp[5]               # 4-byte Folded Spill
.Ltmp82:
	.cfi_offset 6, -24
.Ltmp83:
	.cfi_offset 7, -20
	std r9, r8, sp[6]               # 4-byte Folded Spill
.Ltmp84:
	.cfi_offset 8, -16
.Ltmp85:
	.cfi_offset 9, -12
.Ltmp86:
	.cfi_offset 10, -8
	#DEBUG_VALUE: _i.spi_master_async_if.spi_master_async._c0.end_transaction:p <- R0
	#DEBUG_VALUE: _i.spi_master_async_if.spi_master_async._c0.end_transaction:ss_deassert_time <- R1
.Ltmp87:
	#DEBUG_VALUE: _i.spi_master_async_if.spi_master_async._c0.end_transaction:ss_deassert_time <- R4
	{
		mov r4, r1
		stw r10, sp[14]
	}
.Ltmp88:
	{
		nop
		ldw r5, r0[0]
	}
.Ltmp89:
.LBB4_1:                                # %allocas
                                        # =>This Inner Loop Header: Depth=1
	{
		nop
		ldw r0, r5[0]
	}
	bf r0, .LBB4_1
# BB#2:                                 # %ifdone
.Ltmp90:
	#DEBUG_VALUE: _i.spi_master_async_if.spi_master_async._c0.end_transaction:ss_deassert_time <- R4
	{
		ldc r2, 0
		nop
	}
	{
		nop
		stw r2, r5[0]
	}
	ldc r0, 632
	.loc	1 234 0 prologue_end    # C:/Users/user/workspace/lib_spi/src/spi_async.xc:234:0
.Ltmp91:
	{
		add r8, r5, r0
		nop
	}
	.loc	1 234 0                 # C:/Users/user/workspace/lib_spi/src/spi_async.xc:234:0
	{
		mkmsk r1, 2
		ldw r0, r8[0]
	}
	.loc	1 234 0                 # C:/Users/user/workspace/lib_spi/src/spi_async.xc:234:0
	{
		lsu r1, r1, r0
		nop
	}
	bf r1, .LBB4_3
.Ltmp92:
# BB#4:                                 # %ifdone.switchdone_crit_edge
	#DEBUG_VALUE: _i.spi_master_async_if.spi_master_async._c0.end_transaction:ss_deassert_time <- R4
	{
		nop
		ldw r0, r5[5]
	}
	bu .LBB4_5
.Ltmp93:
.LBB4_3:                                # %ifdone
	#DEBUG_VALUE: _i.spi_master_async_if.spi_master_async._c0.end_transaction:ss_deassert_time <- R4

	.xtabranch .Ljumptable0+4,.Ljumptable0+8,.Ljumptable0+12,.Ljumptable0+16
.Ljumptable0:
		
	{
		nop
		bru r0
	}
	.jmptable32 .LBB4_12,.LBB4_11,.LBB4_11,.LBB4_12
.Ltmp94:
.LBB4_12:                               # %switchcase
.Lxtalabel18:
	#DEBUG_VALUE: _i.spi_master_async_if.spi_master_async._c0.end_transaction:ss_deassert_time <- R4
	.loc	1 236 0                 # C:/Users/user/workspace/lib_spi/src/spi_async.xc:236:0
	{
		mkmsk r1, 1
		ldw r0, r5[5]
	}
	.loc	1 236 0                 # C:/Users/user/workspace/lib_spi/src/spi_async.xc:236:0
.Lxta.endpoint_labels0:
	outpw res[r0], r1, 1
	bu .LBB4_5
.Ltmp95:
.LBB4_11:                               # %switchcase21
.Lxtalabel19:
	#DEBUG_VALUE: _i.spi_master_async_if.spi_master_async._c0.end_transaction:ss_deassert_time <- R4
	{
		nop
		ldw r0, r5[5]
	}
	.loc	1 242 0                 # C:/Users/user/workspace/lib_spi/src/spi_async.xc:242:0
.Lxta.endpoint_labels1:
	outpw res[r0], r2, 1
.Ltmp96:
.LBB4_5:                                # %switchdone
.Lxtalabel20:
	#DEBUG_VALUE: _i.spi_master_async_if.spi_master_async._c0.end_transaction:ss_deassert_time <- R4
	.loc	1 248 0                 # C:/Users/user/workspace/lib_spi/src/spi_async.xc:248:0
	{
		syncr res[r0]
		ldw r3, r5[9]
	}
	ldc r0, 624
	.loc	1 250 48                # C:/Users/user/workspace/lib_spi/src/spi_async.xc:250:48
.Ltmp97:
	{
		add r9, r5, r0
		nop
	}
	{
		nop
		ldw r0, r9[0]
	}
	.loc	1 250 48                # C:/Users/user/workspace/lib_spi/src/spi_async.xc:250:48
	{
		lsu r1, r0, r3
		nop
	}
.Ltrap_info10:
	{
		ecallf r1
		nop
	}
	#DEBUG_VALUE: _i.spi_master_async_if.spi_master_async._c0.end_transaction:ss_deassert_time <- R4
	{
		nop
		ldw r1, r5[8]
	}
	.loc	1 250 48                # C:/Users/user/workspace/lib_spi/src/spi_async.xc:250:48
	{
		mkmsk r6, 1
		ldw r1, r1[r0]
	}
	.loc	1 250 48                # C:/Users/user/workspace/lib_spi/src/spi_async.xc:250:48
.Lxta.endpoint_labels2:
	{
		out res[r1], r6
		nop
	}
	.loc	1 250 48                # C:/Users/user/workspace/lib_spi/src/spi_async.xc:250:48
	{
		syncr res[r1]
		nop
	}
.Ltmp98:
	#DEBUG_VALUE: time <- R7
	.loc	1 250 48                # C:/Users/user/workspace/lib_spi/src/spi_async.xc:250:48
	{
		getts r7, res[r1]
		shr r1, r4, 16
	}
.Ltmp99:
	bf r1, .LBB4_7
.Ltmp100:
# BB#6:                                 # %iftrue38
.Lxtalabel21:
	#DEBUG_VALUE: _i.spi_master_async_if.spi_master_async._c0.end_transaction:ss_deassert_time <- R4
	#DEBUG_VALUE: time <- R7
	ldw r0, cp[.LCPI4_0]
	.loc	1 254 0                 # C:/Users/user/workspace/lib_spi/src/spi_async.xc:254:0
	{
		and r0, r4, r0
		nop
	}
	.loc	1 254 0                 # C:/Users/user/workspace/lib_spi/src/spi_async.xc:254:0
.Lxta.call_labels2:
	bl delay_ticks
	{
		nop
		ldw r3, r5[9]
	}
	{
		nop
		ldw r0, r9[0]
	}
.Ltmp101:
.LBB4_7:                                # %ifdone39
.Lxtalabel22:
	#DEBUG_VALUE: _i.spi_master_async_if.spi_master_async._c0.end_transaction:ss_deassert_time <- R4
	#DEBUG_VALUE: time <- R7
	.loc	1 256 48                # C:/Users/user/workspace/lib_spi/src/spi_async.xc:256:48
	{
		lsu r1, r0, r3
		nop
	}
.Ltrap_info11:
	{
		ecallf r1
		nop
	}
	#DEBUG_VALUE: _i.spi_master_async_if.spi_master_async._c0.end_transaction:ss_deassert_time <- R4
	#DEBUG_VALUE: time <- R7
.Ltmp102:
	#DEBUG_VALUE: time <- R2
	.loc	1 256 48                # C:/Users/user/workspace/lib_spi/src/spi_async.xc:256:48
	{
		add r2, r7, r4
		ldw r1, r5[8]
	}
.Ltmp103:
	{
		nop
		ldw r0, r1[r0]
	}
	.loc	1 256 48                # C:/Users/user/workspace/lib_spi/src/spi_async.xc:256:48
	{
		setpt res[r0], r2
		nop
	}
	.loc	1 256 48                # C:/Users/user/workspace/lib_spi/src/spi_async.xc:256:48
.Lxta.endpoint_labels3:
	{
		out res[r0], r6
		nop
	}
	ldc r0, 568
	.loc	1 258 17                # C:/Users/user/workspace/lib_spi/src/spi_async.xc:258:17
	{
		add r0, r5, r0
		nop
	}
	{
		nop
		ldw r2, r0[0]
	}
	.loc	1 258 17                # C:/Users/user/workspace/lib_spi/src/spi_async.xc:258:17
	bf r2, .LBB4_13
.Ltmp104:
# BB#8:                                 # %iftrue56
.Lxtalabel23:
	{
		nop
		stw r9, sp[6]
	}
	{
		nop
		stw r8, sp[7]
	}
	ldc r11, 564
	.loc	1 260 0                 # C:/Users/user/workspace/lib_spi/src/spi_async.xc:260:0
.Ltmp105:
	{
		add r11, r5, r11
		nop
	}
	{
		nop
		ldw r7, r11[0]
	}
	{
		nop
		ldw r4, r5[4]
	}
	.loc	1 260 0                 # C:/Users/user/workspace/lib_spi/src/spi_async.xc:260:0
	remu r4, r7, r4
.Ltmp106:
	#DEBUG_VALUE: index <- R4
	{
		ldc r9, 8
		nop
	}
	.loc	1 261 0                 # C:/Users/user/workspace/lib_spi/src/spi_async.xc:261:0
.Ltmp107:
	{
		lsu r9, r4, r9
		nop
	}
.Ltrap_info12:
	{
		ecallf r9
		nop
	}
	#DEBUG_VALUE: index <- R4
	{
		ldc r6, 48
		nop
	}
	.loc	1 261 0                 # C:/Users/user/workspace/lib_spi/src/spi_async.xc:261:0
	mul r4, r4, r6
.Ltmp108:
	{
		add r10, r5, r4
		ldc r4, 52
	}
	{
		add r6, r10, r4
		ldc r4, 56
	}
	{
		add r4, r10, r4
		nop
	}
.Ltmp109:
	#DEBUG_VALUE: new_device_index <- R9
	.loc	1 261 0                 # C:/Users/user/workspace/lib_spi/src/spi_async.xc:261:0
	{
		ldc r4, 60
		ldw r9, r4[0]
	}
.Ltmp110:
	.loc	1 262 0                 # C:/Users/user/workspace/lib_spi/src/spi_async.xc:262:0
	{
		add r4, r10, r4
		nop
	}
	{
		nop
		ldw r4, r4[0]
	}
.Ltmp111:
	#DEBUG_VALUE: speed_in_khz <- [SP+20]
	{
		nop
		stw r4, sp[5]
	}
	ldc r4, 64
	.loc	1 263 0                 # C:/Users/user/workspace/lib_spi/src/spi_async.xc:263:0
.Ltmp112:
	{
		add r4, r10, r4
		nop
	}
	{
		nop
		ldw r4, r4[0]
	}
.Ltmp113:
	#DEBUG_VALUE: mode <- R4
	ldc r8, 628
	.loc	1 265 0                 # C:/Users/user/workspace/lib_spi/src/spi_async.xc:265:0
	{
		add r8, r5, r8
		ldw r6, r6[0]
	}
	.loc	1 265 0                 # C:/Users/user/workspace/lib_spi/src/spi_async.xc:265:0
	{
		sub r2, r2, 1
		stw r6, r8[0]
	}
	.loc	1 267 0                 # C:/Users/user/workspace/lib_spi/src/spi_async.xc:267:0
	{
		add r0, r7, 1
		stw r2, r0[0]
	}
	{
		nop
		stw r0, r11[0]
	}
	{
		nop
		ldw r0, r5[5]
	}
	{
		nop
		ldw r2, r5[11]
	}
	{
		nop
		ldw r6, sp[6]
	}
	{
		nop
		ldw r11, sp[5]
	}
	.loc	1 270 0                 # C:/Users/user/workspace/lib_spi/src/spi_async.xc:270:0
	std r6, r11, sp[1]
	{
		nop
		stw r9, sp[1]
	}
	{
		mov r3, r4
		stw r3, sp[4]
	}
.Lxta.call_labels3:
	bl setup_new_transaction
	{
		nop
		stw r9, r6[0]
	}
	{
		nop
		ldw r0, sp[7]
	}
	{
		nop
		stw r4, r0[0]
	}
	ldc r0, 612
	.loc	1 275 0                 # C:/Users/user/workspace/lib_spi/src/spi_async.xc:275:0
	{
		add r0, r5, r0
		nop
	}
	ldc r1, 68
	.loc	1 275 0                 # C:/Users/user/workspace/lib_spi/src/spi_async.xc:275:0
	{
		add r1, r10, r1
		nop
	}
	{
		nop
		ldw r1, r1[0]
	}
	.loc	1 275 0                 # C:/Users/user/workspace/lib_spi/src/spi_async.xc:275:0
	{
		mkmsk r0, 32
		stw r1, r0[0]
	}
	.loc	1 277 21                # C:/Users/user/workspace/lib_spi/src/spi_async.xc:277:21
	{
		eq r0, r1, r0
		nop
	}
	bt r0, .LBB4_15
.Ltmp114:
# BB#9:                                 # %afterboundcheck133
.Lxtalabel24:
	ldc r0, 76
	.loc	1 278 0                 # C:/Users/user/workspace/lib_spi/src/spi_async.xc:278:0
	{
		add r0, r10, r0
		nop
	}
	{
		nop
		ldw r1, r0[0]
	}
	ldc r2, 80
	.loc	1 278 0                 # C:/Users/user/workspace/lib_spi/src/spi_async.xc:278:0
	{
		add r2, r10, r2
		nop
	}
	{
		nop
		ldw r3, r2[0]
	}
	ldc r11, 84
	.loc	1 278 0                 # C:/Users/user/workspace/lib_spi/src/spi_async.xc:278:0
	{
		add r4, r10, r11
		nop
	}
	.loc	1 278 0                 # C:/Users/user/workspace/lib_spi/src/spi_async.xc:278:0
	{
		ldc r6, 0
		ldw r11, r4[0]
	}
	{
		mov r9, r6
		nop
	}
	{
		nop
		stw r9, r0[0]
	}
	{
		nop
		stw r9, r2[0]
	}
	{
		nop
		stw r9, r4[0]
	}
	ldc r0, 572
	.loc	1 278 0                 # C:/Users/user/workspace/lib_spi/src/spi_async.xc:278:0
	{
		add r4, r5, r0
		nop
	}
	{
		nop
		stw r1, r4[0]
	}
	ldc r0, 576
	.loc	1 278 0                 # C:/Users/user/workspace/lib_spi/src/spi_async.xc:278:0
	{
		add r8, r5, r0
		nop
	}
	{
		nop
		stw r3, r8[0]
	}
	ldc r0, 580
	.loc	1 278 0                 # C:/Users/user/workspace/lib_spi/src/spi_async.xc:278:0
	{
		add r0, r5, r0
		nop
	}
	{
		nop
		stw r11, r0[0]
	}
	ldc r0, 88
	.loc	1 279 0                 # C:/Users/user/workspace/lib_spi/src/spi_async.xc:279:0
	{
		add r0, r10, r0
		nop
	}
	{
		nop
		ldw r1, r0[0]
	}
	ldc r2, 92
	.loc	1 279 0                 # C:/Users/user/workspace/lib_spi/src/spi_async.xc:279:0
	{
		add r2, r10, r2
		nop
	}
	{
		nop
		ldw r3, r2[0]
	}
	ldc r6, 96
	.loc	1 279 0                 # C:/Users/user/workspace/lib_spi/src/spi_async.xc:279:0
	{
		add r6, r10, r6
		nop
	}
	{
		nop
		ldw r7, r6[0]
	}
	{
		nop
		stw r9, r0[0]
	}
	{
		nop
		stw r9, r2[0]
	}
	{
		nop
		stw r9, r6[0]
	}
	ldc r0, 592
	.loc	1 279 0                 # C:/Users/user/workspace/lib_spi/src/spi_async.xc:279:0
	{
		add r0, r5, r0
		nop
	}
	{
		nop
		stw r1, r0[0]
	}
	ldc r0, 596
	.loc	1 279 0                 # C:/Users/user/workspace/lib_spi/src/spi_async.xc:279:0
	{
		add r0, r5, r0
		nop
	}
	{
		nop
		stw r3, r0[0]
	}
	ldc r0, 600
	.loc	1 279 0                 # C:/Users/user/workspace/lib_spi/src/spi_async.xc:279:0
	{
		add r0, r5, r0
		nop
	}
	{
		nop
		stw r7, r0[0]
	}
	ldc r0, 620
	.loc	1 280 0                 # C:/Users/user/workspace/lib_spi/src/spi_async.xc:280:0
	{
		add r0, r5, r0
		nop
	}
	ldc r1, 72
	.loc	1 280 0                 # C:/Users/user/workspace/lib_spi/src/spi_async.xc:280:0
	{
		add r1, r10, r1
		nop
	}
	{
		nop
		ldw r6, r1[0]
	}
	{
		nop
		stw r6, r0[0]
	}
	{
		nop
		ldw r0, r5[5]
	}
	{
		nop
		ldw r1, r5[6]
	}
	{
		nop
		ldw r2, r5[7]
	}
	{
		nop
		ldw r3, sp[7]
	}
	.loc	1 282 0                 # C:/Users/user/workspace/lib_spi/src/spi_async.xc:282:0
	{
		ldc r7, 48
		ldw r3, r3[0]
	}
	.loc	1 282 0                 # C:/Users/user/workspace/lib_spi/src/spi_async.xc:282:0
	{
		add r7, r5, r7
		nop
	}
	{
		nop
		ldw r9, r7[0]
	}
	{
		nop
		ldw r4, r4[0]
	}
	{
		nop
		ldw r7, r8[0]
	}
	.loc	1 282 0                 # C:/Users/user/workspace/lib_spi/src/spi_async.xc:282:0
	{
		sub r7, r4, r7
		eq r6, r6, 8
	}
	bf r6, .LBB4_16
# BB#10:                                # %iftrue156
.Lxtalabel25:
	.loc	1 282 0                 # C:/Users/user/workspace/lib_spi/src/spi_async.xc:282:0
	{
		lsu r11, r7, r11
		nop
	}
.Ltrap_info13:
	{
		ecallf r11
		nop
	}
	.loc	1 282 0                 # C:/Users/user/workspace/lib_spi/src/spi_async.xc:282:0
	{
		ldc r11, 0
		nop
	}
	{
		nop
		ld8u r11, r4[r11]
	}
	{
		nop
		stw r11, sp[2]
	}
	{
		nop
		stw r9, sp[1]
	}
.Lxta.call_labels4:
	bl init_init_transfer_array_8
	ldc r0, 616
	bu .LBB4_14
.LBB4_13:                               # %iffalse62
.Lxtalabel26:
	ldc r0, 636
	bu .LBB4_14
.LBB4_16:                               # %iffalse163
.Lxtalabel27:
	{
		mkmsk r6, 2
		nop
	}
	.loc	1 284 0                 # C:/Users/user/workspace/lib_spi/src/spi_async.xc:284:0
	{
		lsu r6, r11, r6
		ldc r8, 0
	}
	bt r6, .LBB4_18
# BB#17:                                # %iffalse163
.Lxtalabel28:
	.loc	1 284 0                 # C:/Users/user/workspace/lib_spi/src/spi_async.xc:284:0
	{
		sub r8, r11, 3
		nop
	}
.LBB4_18:                               # %iffalse163
.Lxtalabel29:
	.loc	1 284 0                 # C:/Users/user/workspace/lib_spi/src/spi_async.xc:284:0
	{
		lsu r11, r7, r8
		nop
	}
.Ltrap_info14:
	{
		ecallf r11
		nop
	}
	{
		nop
		ldw r11, r4[0]
	}
	{
		nop
		stw r11, sp[2]
	}
	{
		nop
		stw r9, sp[1]
	}
	.loc	1 284 0                 # C:/Users/user/workspace/lib_spi/src/spi_async.xc:284:0
.Lxta.call_labels5:
	bl first_transfer_array_32
	ldc r0, 616
.Ltmp115:
.LBB4_14:                               # %ifdone57
.Lxtalabel30:
	.loc	1 289 0                 # C:/Users/user/workspace/lib_spi/src/spi_async.xc:289:0
	{
		add r0, r5, r0
		ldc r1, 0
	}
	{
		nop
		stw r1, r0[0]
	}
.Ltmp116:
.LBB4_15:                               # %ifdone57
.Lxtalabel31:
	{
		mkmsk r0, 1
		nop
	}
	{
		nop
		stw r0, r5[0]
	}
	{
		nop
		ldw r10, sp[14]
	}
	ldd r9, r8, sp[6]               # 4-byte Folded Reload
	ldd r7, r6, sp[5]               # 4-byte Folded Reload
	ldd r5, r4, sp[4]               # 4-byte Folded Reload
	{
		nop
		retsp 16
	}
	# RETURN_REG_HOLDER
	.cc_bottom _i.spi_master_async_if.spi_master_async._c0.end_transaction.function
	.set	_i.spi_master_async_if.spi_master_async._c0.end_transaction.nstackwords,((delay_ticks.nstackwords $M setup_new_transaction.nstackwords $M init_init_transfer_array_8.nstackwords $M first_transfer_array_32.nstackwords) + 16)
	.globl	_i.spi_master_async_if.spi_master_async._c0.end_transaction.nstackwords
	.set	_i.spi_master_async_if.spi_master_async._c0.end_transaction.maxcores,delay_ticks.maxcores $M first_transfer_array_32.maxcores $M init_init_transfer_array_8.maxcores $M setup_new_transaction.maxcores $M 1
	.globl	_i.spi_master_async_if.spi_master_async._c0.end_transaction.maxcores
	.set	_i.spi_master_async_if.spi_master_async._c0.end_transaction.maxtimers,delay_ticks.maxtimers $M first_transfer_array_32.maxtimers $M init_init_transfer_array_8.maxtimers $M setup_new_transaction.maxtimers $M 0
	.globl	_i.spi_master_async_if.spi_master_async._c0.end_transaction.maxtimers
	.set	_i.spi_master_async_if.spi_master_async._c0.end_transaction.maxchanends,delay_ticks.maxchanends $M first_transfer_array_32.maxchanends $M init_init_transfer_array_8.maxchanends $M setup_new_transaction.maxchanends $M 0
	.globl	_i.spi_master_async_if.spi_master_async._c0.end_transaction.maxchanends
.Ltmp117:
	.size	_i.spi_master_async_if.spi_master_async._c0.end_transaction, .Ltmp117-_i.spi_master_async_if.spi_master_async._c0.end_transaction
.Lfunc_end4:
	.cfi_endproc

	.globl	_i.spi_master_async_if.spi_master_async._c0.begin_transaction
	.align	4
	.type	_i.spi_master_async_if.spi_master_async._c0.begin_transaction,@function
	.cc_top _i.spi_master_async_if.spi_master_async._c0.begin_transaction.function,_i.spi_master_async_if.spi_master_async._c0.begin_transaction
_i.spi_master_async_if.spi_master_async._c0.begin_transaction: # @_i.spi_master_async_if.spi_master_async._c0.begin_transaction
.Lfunc_begin5:
	.loc	1 200 0                 # C:/Users/user/workspace/lib_spi/src/spi_async.xc:200:0
	.cfi_startproc
	.issue_mode dual
# BB#0:                                 # %allocas
	{
		nop
		dualentsp 12
	}
.Ltmp118:
	.cfi_def_cfa_offset 48
.Ltmp119:
	.cfi_offset 15, 0
	std r5, r4, sp[3]               # 4-byte Folded Spill
.Ltmp120:
	.cfi_offset 4, -24
.Ltmp121:
	.cfi_offset 5, -20
	std r7, r6, sp[4]               # 4-byte Folded Spill
.Ltmp122:
	.cfi_offset 6, -16
.Ltmp123:
	.cfi_offset 7, -12
	std r9, r8, sp[5]               # 4-byte Folded Spill
.Ltmp124:
	.cfi_offset 8, -8
.Ltmp125:
	.cfi_offset 9, -4
	#DEBUG_VALUE: _i.spi_master_async_if.spi_master_async._c0.begin_transaction:p <- R0
	#DEBUG_VALUE: _i.spi_master_async_if.spi_master_async._c0.begin_transaction:device_index <- R1
	#DEBUG_VALUE: _i.spi_master_async_if.spi_master_async._c0.begin_transaction:speed_in_khz <- R2
	#DEBUG_VALUE: _i.spi_master_async_if.spi_master_async._c0.begin_transaction:mode <- R3
.Ltmp126:
	#DEBUG_VALUE: _i.spi_master_async_if.spi_master_async._c0.begin_transaction:mode <- R4
	{
		mov r4, r3
		ldw r5, r0[0]
	}
.Ltmp127:
	{
		nop
		ldw r0, r0[1]
	}
.Ltmp128:
.LBB5_1:                                # %allocas
                                        # =>This Inner Loop Header: Depth=1
	{
		nop
		ldw r3, r5[0]
	}
	bf r3, .LBB5_1
# BB#2:                                 # %ifdone
.Ltmp129:
	#DEBUG_VALUE: _i.spi_master_async_if.spi_master_async._c0.begin_transaction:device_index <- R1
	#DEBUG_VALUE: _i.spi_master_async_if.spi_master_async._c0.begin_transaction:speed_in_khz <- R2
	#DEBUG_VALUE: _i.spi_master_async_if.spi_master_async._c0.begin_transaction:mode <- R4
	{
		ldc r6, 0
		nop
	}
	{
		nop
		stw r6, r5[0]
	}
	ldc r3, 636
	.loc	1 204 17 prologue_end   # C:/Users/user/workspace/lib_spi/src/spi_async.xc:204:17
.Ltmp130:
	{
		add r7, r5, r3
		nop
	}
	{
		nop
		ldw r3, r7[0]
	}
	.loc	1 204 17                # C:/Users/user/workspace/lib_spi/src/spi_async.xc:204:17
	bf r3, .LBB5_4
.Ltmp131:
# BB#3:                                 # %iftrue18
.Lxtalabel32:
	#DEBUG_VALUE: _i.spi_master_async_if.spi_master_async._c0.begin_transaction:device_index <- R1
	#DEBUG_VALUE: _i.spi_master_async_if.spi_master_async._c0.begin_transaction:speed_in_khz <- R2
	#DEBUG_VALUE: _i.spi_master_async_if.spi_master_async._c0.begin_transaction:mode <- R4
	ldc r3, 564
	.loc	1 206 0                 # C:/Users/user/workspace/lib_spi/src/spi_async.xc:206:0
.Ltmp132:
	{
		add r3, r5, r3
		nop
	}
	{
		nop
		ldw r11, r3[0]
	}
	ldc r3, 568
	.loc	1 206 0                 # C:/Users/user/workspace/lib_spi/src/spi_async.xc:206:0
	{
		add r3, r5, r3
		nop
	}
	{
		nop
		ldw r6, r3[0]
	}
	.loc	1 206 0                 # C:/Users/user/workspace/lib_spi/src/spi_async.xc:206:0
	{
		add r11, r6, r11
		ldw r6, r5[4]
	}
	.loc	1 206 0                 # C:/Users/user/workspace/lib_spi/src/spi_async.xc:206:0
	remu r11, r11, r6
.Ltmp133:
	#DEBUG_VALUE: index <- R11
	{
		ldc r6, 8
		nop
	}
	.loc	1 207 0                 # C:/Users/user/workspace/lib_spi/src/spi_async.xc:207:0
	{
		lsu r6, r11, r6
		nop
	}
.Ltrap_info15:
	{
		ecallf r6
		nop
	}
	#DEBUG_VALUE: _i.spi_master_async_if.spi_master_async._c0.begin_transaction:device_index <- R1
	#DEBUG_VALUE: _i.spi_master_async_if.spi_master_async._c0.begin_transaction:speed_in_khz <- R2
	#DEBUG_VALUE: _i.spi_master_async_if.spi_master_async._c0.begin_transaction:mode <- R4
	#DEBUG_VALUE: index <- R11
	{
		ldc r6, 48
		nop
	}
	.loc	1 207 0                 # C:/Users/user/workspace/lib_spi/src/spi_async.xc:207:0
	mul r11, r11, r6
.Ltmp134:
	{
		add r11, r5, r11
		ldc r6, 52
	}
	{
		add r6, r11, r6
		ldc r7, 56
	}
	{
		add r7, r11, r7
		nop
	}
	.loc	1 207 0                 # C:/Users/user/workspace/lib_spi/src/spi_async.xc:207:0
	{
		ldc r1, 60
		stw r1, r7[0]
	}
.Ltmp135:
	.loc	1 208 0                 # C:/Users/user/workspace/lib_spi/src/spi_async.xc:208:0
	{
		add r1, r11, r1
		nop
	}
	{
		nop
		stw r2, r1[0]
	}
	ldc r1, 64
	.loc	1 209 0                 # C:/Users/user/workspace/lib_spi/src/spi_async.xc:209:0
	{
		add r1, r11, r1
		nop
	}
	{
		nop
		stw r4, r1[0]
	}
	{
		nop
		stw r0, r6[0]
	}
	ldc r0, 68
	.loc	1 211 0                 # C:/Users/user/workspace/lib_spi/src/spi_async.xc:211:0
	{
		add r0, r11, r0
		mkmsk r1, 32
	}
	{
		nop
		stw r1, r0[0]
	}
	{
		nop
		ldw r0, r3[0]
	}
	.loc	1 212 0                 # C:/Users/user/workspace/lib_spi/src/spi_async.xc:212:0
	{
		add r0, r0, 1
		nop
	}
	{
		nop
		stw r0, r3[0]
	}
	bu .LBB5_5
.Ltmp136:
.LBB5_4:                                # %ifdone19
.Lxtalabel33:
	#DEBUG_VALUE: _i.spi_master_async_if.spi_master_async._c0.begin_transaction:device_index <- R1
	#DEBUG_VALUE: _i.spi_master_async_if.spi_master_async._c0.begin_transaction:speed_in_khz <- R2
	#DEBUG_VALUE: _i.spi_master_async_if.spi_master_async._c0.begin_transaction:mode <- R4
	ldc r3, 628
	.loc	1 216 0                 # C:/Users/user/workspace/lib_spi/src/spi_async.xc:216:0
	{
		add r3, r5, r3
		nop
	}
	{
		nop
		stw r0, r3[0]
	}
	ldc r0, 624
	.loc	1 217 0                 # C:/Users/user/workspace/lib_spi/src/spi_async.xc:217:0
	{
		add r8, r5, r0
		nop
	}
	{
		nop
		stw r1, r8[0]
	}
	{
		nop
		ldw r0, r5[5]
	}
	{
		nop
		ldw r9, r5[9]
	}
	{
		nop
		ldw r3, r5[8]
	}
	{
		nop
		ldw r11, r5[11]
	}
	.loc	1 218 0                 # C:/Users/user/workspace/lib_spi/src/spi_async.xc:218:0
	std r8, r2, sp[1]
	{
		nop
		stw r9, sp[4]
	}
	{
		mov r1, r3
		stw r1, sp[1]
	}
.Ltmp137:
	{
		mov r2, r11
		mov r3, r4
	}
.Ltmp138:
.Lxta.call_labels6:
	bl setup_new_transaction
	ldc r0, 632
	.loc	1 220 0                 # C:/Users/user/workspace/lib_spi/src/spi_async.xc:220:0
	{
		add r0, r5, r0
		nop
	}
	{
		nop
		stw r4, r0[0]
	}
	ldc r0, 616
	.loc	1 222 0                 # C:/Users/user/workspace/lib_spi/src/spi_async.xc:222:0
	{
		add r0, r5, r0
		nop
	}
	.loc	1 222 0                 # C:/Users/user/workspace/lib_spi/src/spi_async.xc:222:0
	{
		mkmsk r0, 1
		stw r6, r0[0]
	}
	{
		nop
		stw r0, r7[0]
	}
.Ltmp139:
.LBB5_5:                                # %return
	{
		mkmsk r0, 1
		nop
	}
	{
		nop
		stw r0, r5[0]
	}
	ldd r9, r8, sp[5]               # 4-byte Folded Reload
	ldd r7, r6, sp[4]               # 4-byte Folded Reload
	ldd r5, r4, sp[3]               # 4-byte Folded Reload
	{
		nop
		retsp 12
	}
	# RETURN_REG_HOLDER
	.cc_bottom _i.spi_master_async_if.spi_master_async._c0.begin_transaction.function
	.set	_i.spi_master_async_if.spi_master_async._c0.begin_transaction.nstackwords,(setup_new_transaction.nstackwords + 12)
	.globl	_i.spi_master_async_if.spi_master_async._c0.begin_transaction.nstackwords
	.set	_i.spi_master_async_if.spi_master_async._c0.begin_transaction.maxcores,setup_new_transaction.maxcores $M 1
	.globl	_i.spi_master_async_if.spi_master_async._c0.begin_transaction.maxcores
	.set	_i.spi_master_async_if.spi_master_async._c0.begin_transaction.maxtimers,setup_new_transaction.maxtimers $M 0
	.globl	_i.spi_master_async_if.spi_master_async._c0.begin_transaction.maxtimers
	.set	_i.spi_master_async_if.spi_master_async._c0.begin_transaction.maxchanends,setup_new_transaction.maxchanends $M 0
	.globl	_i.spi_master_async_if.spi_master_async._c0.begin_transaction.maxchanends
.Ltmp140:
	.size	_i.spi_master_async_if.spi_master_async._c0.begin_transaction, .Ltmp140-_i.spi_master_async_if.spi_master_async._c0.begin_transaction
.Lfunc_end5:
	.cfi_endproc

	.weak	_i.spi_master_if._chan.transfer32
	.align	4
	.type	_i.spi_master_if._chan.transfer32,@function
	.cc_top _i.spi_master_if._chan.transfer32.function,_i.spi_master_if._chan.transfer32
_i.spi_master_if._chan.transfer32:      # @_i.spi_master_if._chan.transfer32
	.cfi_startproc
	.issue_mode dual
# BB#0:                                 # %allocas
	{
		nop
		dualentsp 4
	}
.Ltmp141:
	.cfi_def_cfa_offset 16
.Ltmp142:
	.cfi_offset 15, 0
	std r5, r4, sp[1]               # 4-byte Folded Spill
.Ltmp143:
	.cfi_offset 4, -8
.Ltmp144:
	.cfi_offset 5, -4
	#DEBUG_VALUE: _i.spi_master_if._chan.transfer32:dest <- R0
	#DEBUG_VALUE: _i.spi_master_if._chan.transfer32:param1 <- R1
	#DEBUG_VALUE: _i.spi_master_if._chan.transfer32:param1 <- R4
	{
		getr r5, 2
		mov r4, r1
	}
	{
		setd res[r5], r0
		add r0, r5, 3
	}
	{
		out res[r5], r0
		nop
	}
	{
		outct res[r5], 2
		ldc r1, 0
	}
	{
		mov r0, r5
		nop
	}
	bl __interface_wait_and_yield
	{
		chkct res[r5], 1
		nop
	}
	{
		out res[r5], r4
		nop
	}
	{
		outct res[r5], 2
		nop
	}
	{
		in r0, res[r5]
		nop
	}
	{
		in r0, res[r5]
		nop
	}
	{
		chkct res[r5], 1
		nop
	}
	{
		freer res[r5]
		nop
	}
	ldd r5, r4, sp[1]               # 4-byte Folded Reload
	{
		nop
		retsp 4
	}
	# RETURN_REG_HOLDER
	.cc_bottom _i.spi_master_if._chan.transfer32.function
	.set	_i.spi_master_if._chan.transfer32.nstackwords,((_i.spi_master_if._client_call_y.max.nstackwords $M ($D __interface_wait_and_yield.nstackwords ? __interface_wait_and_yield.nstackwords $: _i.spi_master_if._client_call_y.max.nstackwords)) + 4)
	.globl	_i.spi_master_if._chan.transfer32.nstackwords
	.weak	_i.spi_master_if._chan.transfer32.nstackwords
	.set	_i.spi_master_if._chan.transfer32.maxcores,($D __interface_wait_and_yield.maxcores ? __interface_wait_and_yield.maxcores $: _i.spi_master_if._client_call_y.max.maxcores) $M 1
	.globl	_i.spi_master_if._chan.transfer32.maxcores
	.weak	_i.spi_master_if._chan.transfer32.maxcores
	.set	_i.spi_master_if._chan.transfer32.maxtimers,($D __interface_wait_and_yield.maxtimers ? __interface_wait_and_yield.maxtimers $: _i.spi_master_if._client_call_y.max.maxtimers) $M 0
	.globl	_i.spi_master_if._chan.transfer32.maxtimers
	.weak	_i.spi_master_if._chan.transfer32.maxtimers
	.set	_i.spi_master_if._chan.transfer32.maxchanends,(1 + ($D __interface_wait_and_yield.maxchanends ? __interface_wait_and_yield.maxchanends $: _i.spi_master_if._client_call_y.max.maxchanends)) $M 1
	.globl	_i.spi_master_if._chan.transfer32.maxchanends
	.weak	_i.spi_master_if._chan.transfer32.maxchanends
.Ltmp145:
	.size	_i.spi_master_if._chan.transfer32, .Ltmp145-_i.spi_master_if._chan.transfer32
	.cfi_endproc

	.weak	_i.spi_master_if._chan.transfer8
	.align	4
	.type	_i.spi_master_if._chan.transfer8,@function
	.cc_top _i.spi_master_if._chan.transfer8.function,_i.spi_master_if._chan.transfer8
_i.spi_master_if._chan.transfer8:       # @_i.spi_master_if._chan.transfer8
	.cfi_startproc
	.issue_mode dual
# BB#0:                                 # %allocas
	{
		nop
		dualentsp 4
	}
.Ltmp146:
	.cfi_def_cfa_offset 16
.Ltmp147:
	.cfi_offset 15, 0
	std r5, r4, sp[1]               # 4-byte Folded Spill
.Ltmp148:
	.cfi_offset 4, -8
.Ltmp149:
	.cfi_offset 5, -4
	#DEBUG_VALUE: _i.spi_master_if._chan.transfer8:dest <- R0
	#DEBUG_VALUE: _i.spi_master_if._chan.transfer8:param1 <- R1
	#DEBUG_VALUE: _i.spi_master_if._chan.transfer8:param1 <- R4
	{
		getr r5, 2
		mov r4, r1
	}
	{
		setd res[r5], r0
		add r0, r5, 2
	}
	{
		out res[r5], r0
		nop
	}
	{
		outct res[r5], 2
		ldc r1, 0
	}
	{
		mov r0, r5
		nop
	}
	bl __interface_wait_and_yield
	{
		chkct res[r5], 1
		nop
	}
	{
		outt res[r5], r4
		nop
	}
	{
		outct res[r5], 2
		nop
	}
	{
		in r0, res[r5]
		nop
	}
	{
		int r0, res[r5]
		nop
	}
	{
		chkct res[r5], 1
		nop
	}
	{
		freer res[r5]
		nop
	}
	ldd r5, r4, sp[1]               # 4-byte Folded Reload
	{
		nop
		retsp 4
	}
	# RETURN_REG_HOLDER
	.cc_bottom _i.spi_master_if._chan.transfer8.function
	.set	_i.spi_master_if._chan.transfer8.nstackwords,((_i.spi_master_if._client_call_y.max.nstackwords $M ($D __interface_wait_and_yield.nstackwords ? __interface_wait_and_yield.nstackwords $: _i.spi_master_if._client_call_y.max.nstackwords)) + 4)
	.globl	_i.spi_master_if._chan.transfer8.nstackwords
	.weak	_i.spi_master_if._chan.transfer8.nstackwords
	.set	_i.spi_master_if._chan.transfer8.maxcores,($D __interface_wait_and_yield.maxcores ? __interface_wait_and_yield.maxcores $: _i.spi_master_if._client_call_y.max.maxcores) $M 1
	.globl	_i.spi_master_if._chan.transfer8.maxcores
	.weak	_i.spi_master_if._chan.transfer8.maxcores
	.set	_i.spi_master_if._chan.transfer8.maxtimers,($D __interface_wait_and_yield.maxtimers ? __interface_wait_and_yield.maxtimers $: _i.spi_master_if._client_call_y.max.maxtimers) $M 0
	.globl	_i.spi_master_if._chan.transfer8.maxtimers
	.weak	_i.spi_master_if._chan.transfer8.maxtimers
	.set	_i.spi_master_if._chan.transfer8.maxchanends,(1 + ($D __interface_wait_and_yield.maxchanends ? __interface_wait_and_yield.maxchanends $: _i.spi_master_if._client_call_y.max.maxchanends)) $M 1
	.globl	_i.spi_master_if._chan.transfer8.maxchanends
	.weak	_i.spi_master_if._chan.transfer8.maxchanends
.Ltmp150:
	.size	_i.spi_master_if._chan.transfer8, .Ltmp150-_i.spi_master_if._chan.transfer8
	.cfi_endproc

	.weak	_i.spi_master_if._chan.end_transaction
	.align	4
	.type	_i.spi_master_if._chan.end_transaction,@function
	.cc_top _i.spi_master_if._chan.end_transaction.function,_i.spi_master_if._chan.end_transaction
_i.spi_master_if._chan.end_transaction: # @_i.spi_master_if._chan.end_transaction
	.cfi_startproc
	.issue_mode dual
# BB#0:                                 # %allocas
	{
		nop
		dualentsp 4
	}
.Ltmp151:
	.cfi_def_cfa_offset 16
.Ltmp152:
	.cfi_offset 15, 0
	std r5, r4, sp[1]               # 4-byte Folded Spill
.Ltmp153:
	.cfi_offset 4, -8
.Ltmp154:
	.cfi_offset 5, -4
	#DEBUG_VALUE: _i.spi_master_if._chan.end_transaction:dest <- R0
	#DEBUG_VALUE: _i.spi_master_if._chan.end_transaction:param1 <- R1
	#DEBUG_VALUE: _i.spi_master_if._chan.end_transaction:param1 <- R4
	{
		getr r5, 2
		mov r4, r1
	}
	{
		setd res[r5], r0
		add r0, r5, 1
	}
	{
		out res[r5], r0
		nop
	}
	{
		outct res[r5], 2
		ldc r1, 0
	}
	{
		mov r0, r5
		nop
	}
	bl __interface_wait_and_yield
	{
		chkct res[r5], 1
		nop
	}
	{
		out res[r5], r4
		nop
	}
	{
		outct res[r5], 2
		nop
	}
	{
		in r0, res[r5]
		nop
	}
	{
		chkct res[r5], 1
		nop
	}
	{
		freer res[r5]
		nop
	}
	ldd r5, r4, sp[1]               # 4-byte Folded Reload
	{
		nop
		retsp 4
	}
	# RETURN_REG_HOLDER
	.cc_bottom _i.spi_master_if._chan.end_transaction.function
	.set	_i.spi_master_if._chan.end_transaction.nstackwords,((_i.spi_master_if._client_call_y.max.nstackwords $M ($D __interface_wait_and_yield.nstackwords ? __interface_wait_and_yield.nstackwords $: _i.spi_master_if._client_call_y.max.nstackwords)) + 4)
	.globl	_i.spi_master_if._chan.end_transaction.nstackwords
	.weak	_i.spi_master_if._chan.end_transaction.nstackwords
	.set	_i.spi_master_if._chan.end_transaction.maxcores,($D __interface_wait_and_yield.maxcores ? __interface_wait_and_yield.maxcores $: _i.spi_master_if._client_call_y.max.maxcores) $M 1
	.globl	_i.spi_master_if._chan.end_transaction.maxcores
	.weak	_i.spi_master_if._chan.end_transaction.maxcores
	.set	_i.spi_master_if._chan.end_transaction.maxtimers,($D __interface_wait_and_yield.maxtimers ? __interface_wait_and_yield.maxtimers $: _i.spi_master_if._client_call_y.max.maxtimers) $M 0
	.globl	_i.spi_master_if._chan.end_transaction.maxtimers
	.weak	_i.spi_master_if._chan.end_transaction.maxtimers
	.set	_i.spi_master_if._chan.end_transaction.maxchanends,(1 + ($D __interface_wait_and_yield.maxchanends ? __interface_wait_and_yield.maxchanends $: _i.spi_master_if._client_call_y.max.maxchanends)) $M 1
	.globl	_i.spi_master_if._chan.end_transaction.maxchanends
	.weak	_i.spi_master_if._chan.end_transaction.maxchanends
.Ltmp155:
	.size	_i.spi_master_if._chan.end_transaction, .Ltmp155-_i.spi_master_if._chan.end_transaction
	.cfi_endproc

	.weak	_i.spi_master_if._chan.begin_transaction
	.align	4
	.type	_i.spi_master_if._chan.begin_transaction,@function
	.cc_top _i.spi_master_if._chan.begin_transaction.function,_i.spi_master_if._chan.begin_transaction
_i.spi_master_if._chan.begin_transaction: # @_i.spi_master_if._chan.begin_transaction
	.cfi_startproc
	.issue_mode dual
# BB#0:                                 # %allocas
	{
		nop
		dualentsp 6
	}
.Ltmp156:
	.cfi_def_cfa_offset 24
.Ltmp157:
	.cfi_offset 15, 0
	std r5, r4, sp[1]               # 4-byte Folded Spill
.Ltmp158:
	.cfi_offset 4, -16
.Ltmp159:
	.cfi_offset 5, -12
	std r7, r6, sp[2]               # 4-byte Folded Spill
.Ltmp160:
	.cfi_offset 6, -8
.Ltmp161:
	.cfi_offset 7, -4
	#DEBUG_VALUE: _i.spi_master_if._chan.begin_transaction:dest <- R0
	#DEBUG_VALUE: _i.spi_master_if._chan.begin_transaction:param1 <- R1
	#DEBUG_VALUE: _i.spi_master_if._chan.begin_transaction:param2 <- R2
	#DEBUG_VALUE: _i.spi_master_if._chan.begin_transaction:param3 <- R3
	#DEBUG_VALUE: _i.spi_master_if._chan.begin_transaction:param3 <- R4
	#DEBUG_VALUE: _i.spi_master_if._chan.begin_transaction:param2 <- R5
	{
		mov r4, r3
		mov r5, r2
	}
	#DEBUG_VALUE: _i.spi_master_if._chan.begin_transaction:param1 <- R6
	{
		getr r7, 2
		mov r6, r1
	}
	{
		setd res[r7], r0
		nop
	}
	{
		out res[r7], r7
		nop
	}
	{
		outct res[r7], 2
		ldc r1, 0
	}
	{
		mov r0, r7
		nop
	}
	bl __interface_wait_and_yield
	{
		chkct res[r7], 1
		nop
	}
	{
		out res[r7], r6
		nop
	}
	{
		out res[r7], r5
		nop
	}
	{
		out res[r7], r4
		nop
	}
	{
		outct res[r7], 2
		nop
	}
	{
		in r0, res[r7]
		nop
	}
	{
		chkct res[r7], 1
		nop
	}
	{
		freer res[r7]
		nop
	}
	ldd r7, r6, sp[2]               # 4-byte Folded Reload
	ldd r5, r4, sp[1]               # 4-byte Folded Reload
	{
		nop
		retsp 6
	}
	# RETURN_REG_HOLDER
	.cc_bottom _i.spi_master_if._chan.begin_transaction.function
	.set	_i.spi_master_if._chan.begin_transaction.nstackwords,((_i.spi_master_if._client_call_y.max.nstackwords $M ($D __interface_wait_and_yield.nstackwords ? __interface_wait_and_yield.nstackwords $: _i.spi_master_if._client_call_y.max.nstackwords)) + 6)
	.globl	_i.spi_master_if._chan.begin_transaction.nstackwords
	.weak	_i.spi_master_if._chan.begin_transaction.nstackwords
	.set	_i.spi_master_if._chan.begin_transaction.maxcores,($D __interface_wait_and_yield.maxcores ? __interface_wait_and_yield.maxcores $: _i.spi_master_if._client_call_y.max.maxcores) $M 1
	.globl	_i.spi_master_if._chan.begin_transaction.maxcores
	.weak	_i.spi_master_if._chan.begin_transaction.maxcores
	.set	_i.spi_master_if._chan.begin_transaction.maxtimers,($D __interface_wait_and_yield.maxtimers ? __interface_wait_and_yield.maxtimers $: _i.spi_master_if._client_call_y.max.maxtimers) $M 0
	.globl	_i.spi_master_if._chan.begin_transaction.maxtimers
	.weak	_i.spi_master_if._chan.begin_transaction.maxtimers
	.set	_i.spi_master_if._chan.begin_transaction.maxchanends,(1 + ($D __interface_wait_and_yield.maxchanends ? __interface_wait_and_yield.maxchanends $: _i.spi_master_if._client_call_y.max.maxchanends)) $M 1
	.globl	_i.spi_master_if._chan.begin_transaction.maxchanends
	.weak	_i.spi_master_if._chan.begin_transaction.maxchanends
.Ltmp162:
	.size	_i.spi_master_if._chan.begin_transaction, .Ltmp162-_i.spi_master_if._chan.begin_transaction
	.cfi_endproc

	.weak	_i.spi_master_if._chan_yield.transfer32
	.align	4
	.type	_i.spi_master_if._chan_yield.transfer32,@function
	.cc_top _i.spi_master_if._chan_yield.transfer32.function,_i.spi_master_if._chan_yield.transfer32
_i.spi_master_if._chan_yield.transfer32: # @_i.spi_master_if._chan_yield.transfer32
	.cfi_startproc
	.issue_mode dual
# BB#0:                                 # %allocas
	{
		nop
		dualentsp 6
	}
.Ltmp163:
	.cfi_def_cfa_offset 24
.Ltmp164:
	.cfi_offset 15, 0
	std r5, r4, sp[1]               # 4-byte Folded Spill
.Ltmp165:
	.cfi_offset 4, -16
.Ltmp166:
	.cfi_offset 5, -12
.Ltmp167:
	.cfi_offset 6, -8
	#DEBUG_VALUE: _i.spi_master_if._chan_yield.transfer32:s <- R0
	#DEBUG_VALUE: _i.spi_master_if._chan_yield.transfer32:param1 <- R1
	#DEBUG_VALUE: _i.spi_master_if._chan_yield.transfer32:param1 <- R4
	{
		mov r4, r1
		stw r6, sp[4]
	}
	{
		getr r5, 2
		ldw r1, r0[0]
	}
	{
		setd res[r5], r1
		add r1, r5, 3
	}
	{
		out res[r5], r1
		nop
	}
	{
		outct res[r5], 2
		ldw r6, r0[1]
	}
	{
		mov r0, r5
		mov r1, r6
	}
	bl __interface_wait_and_yield
	{
		chkct res[r5], 1
		nop
	}
	{
		out res[r5], r4
		nop
	}
	{
		outct res[r5], 2
		ldc r1, 0
	}
	{
		mov r0, r5
		mov r2, r6
	}
	bl __interface_client_call_y
	{
		in r0, res[r5]
		nop
	}
	{
		chkct res[r5], 1
		nop
	}
	{
		freer res[r5]
		ldw r6, sp[4]
	}
	ldd r5, r4, sp[1]               # 4-byte Folded Reload
	{
		nop
		retsp 6
	}
	# RETURN_REG_HOLDER
	.cc_bottom _i.spi_master_if._chan_yield.transfer32.function
	.set	_i.spi_master_if._chan_yield.transfer32.nstackwords,((($D __interface_wait_and_yield.nstackwords ? __interface_wait_and_yield.nstackwords $: _i.spi_master_if._client_call_y.max.nstackwords) $M _i.spi_master_if._client_call_y.max.nstackwords $M ($D __interface_client_call_y.nstackwords ? __interface_client_call_y.nstackwords $: _i.spi_master_if._client_call_y.max.nstackwords)) + 6)
	.globl	_i.spi_master_if._chan_yield.transfer32.nstackwords
	.weak	_i.spi_master_if._chan_yield.transfer32.nstackwords
	.set	_i.spi_master_if._chan_yield.transfer32.maxcores,($D __interface_client_call_y.maxcores ? __interface_client_call_y.maxcores $: _i.spi_master_if._client_call_y.max.maxcores) $M ($D __interface_wait_and_yield.maxcores ? __interface_wait_and_yield.maxcores $: _i.spi_master_if._client_call_y.max.maxcores) $M 1
	.globl	_i.spi_master_if._chan_yield.transfer32.maxcores
	.weak	_i.spi_master_if._chan_yield.transfer32.maxcores
	.set	_i.spi_master_if._chan_yield.transfer32.maxtimers,($D __interface_client_call_y.maxtimers ? __interface_client_call_y.maxtimers $: _i.spi_master_if._client_call_y.max.maxtimers) $M ($D __interface_wait_and_yield.maxtimers ? __interface_wait_and_yield.maxtimers $: _i.spi_master_if._client_call_y.max.maxtimers) $M 0
	.globl	_i.spi_master_if._chan_yield.transfer32.maxtimers
	.weak	_i.spi_master_if._chan_yield.transfer32.maxtimers
	.set	_i.spi_master_if._chan_yield.transfer32.maxchanends,(1 + ($D __interface_client_call_y.maxchanends ? __interface_client_call_y.maxchanends $: _i.spi_master_if._client_call_y.max.maxchanends)) $M (1 + ($D __interface_wait_and_yield.maxchanends ? __interface_wait_and_yield.maxchanends $: _i.spi_master_if._client_call_y.max.maxchanends)) $M 1
	.globl	_i.spi_master_if._chan_yield.transfer32.maxchanends
	.weak	_i.spi_master_if._chan_yield.transfer32.maxchanends
.Ltmp168:
	.size	_i.spi_master_if._chan_yield.transfer32, .Ltmp168-_i.spi_master_if._chan_yield.transfer32
	.cfi_endproc

	.weak	_i.spi_master_if._chan_yield.transfer8
	.align	4
	.type	_i.spi_master_if._chan_yield.transfer8,@function
	.cc_top _i.spi_master_if._chan_yield.transfer8.function,_i.spi_master_if._chan_yield.transfer8
_i.spi_master_if._chan_yield.transfer8: # @_i.spi_master_if._chan_yield.transfer8
	.cfi_startproc
	.issue_mode dual
# BB#0:                                 # %allocas
	{
		nop
		dualentsp 6
	}
.Ltmp169:
	.cfi_def_cfa_offset 24
.Ltmp170:
	.cfi_offset 15, 0
	std r5, r4, sp[1]               # 4-byte Folded Spill
.Ltmp171:
	.cfi_offset 4, -16
.Ltmp172:
	.cfi_offset 5, -12
.Ltmp173:
	.cfi_offset 6, -8
	#DEBUG_VALUE: _i.spi_master_if._chan_yield.transfer8:s <- R0
	#DEBUG_VALUE: _i.spi_master_if._chan_yield.transfer8:param1 <- R1
	#DEBUG_VALUE: _i.spi_master_if._chan_yield.transfer8:param1 <- R4
	{
		mov r4, r1
		stw r6, sp[4]
	}
	{
		getr r5, 2
		ldw r1, r0[0]
	}
	{
		setd res[r5], r1
		add r1, r5, 2
	}
	{
		out res[r5], r1
		nop
	}
	{
		outct res[r5], 2
		ldw r6, r0[1]
	}
	{
		mov r0, r5
		mov r1, r6
	}
	bl __interface_wait_and_yield
	{
		chkct res[r5], 1
		nop
	}
	{
		outt res[r5], r4
		nop
	}
	{
		outct res[r5], 2
		ldc r1, 0
	}
	{
		mov r0, r5
		mov r2, r6
	}
	bl __interface_client_call_y
	{
		int r0, res[r5]
		nop
	}
	{
		chkct res[r5], 1
		nop
	}
	{
		freer res[r5]
		ldw r6, sp[4]
	}
	ldd r5, r4, sp[1]               # 4-byte Folded Reload
	{
		nop
		retsp 6
	}
	# RETURN_REG_HOLDER
	.cc_bottom _i.spi_master_if._chan_yield.transfer8.function
	.set	_i.spi_master_if._chan_yield.transfer8.nstackwords,((($D __interface_wait_and_yield.nstackwords ? __interface_wait_and_yield.nstackwords $: _i.spi_master_if._client_call_y.max.nstackwords) $M _i.spi_master_if._client_call_y.max.nstackwords $M ($D __interface_client_call_y.nstackwords ? __interface_client_call_y.nstackwords $: _i.spi_master_if._client_call_y.max.nstackwords)) + 6)
	.globl	_i.spi_master_if._chan_yield.transfer8.nstackwords
	.weak	_i.spi_master_if._chan_yield.transfer8.nstackwords
	.set	_i.spi_master_if._chan_yield.transfer8.maxcores,($D __interface_client_call_y.maxcores ? __interface_client_call_y.maxcores $: _i.spi_master_if._client_call_y.max.maxcores) $M ($D __interface_wait_and_yield.maxcores ? __interface_wait_and_yield.maxcores $: _i.spi_master_if._client_call_y.max.maxcores) $M 1
	.globl	_i.spi_master_if._chan_yield.transfer8.maxcores
	.weak	_i.spi_master_if._chan_yield.transfer8.maxcores
	.set	_i.spi_master_if._chan_yield.transfer8.maxtimers,($D __interface_client_call_y.maxtimers ? __interface_client_call_y.maxtimers $: _i.spi_master_if._client_call_y.max.maxtimers) $M ($D __interface_wait_and_yield.maxtimers ? __interface_wait_and_yield.maxtimers $: _i.spi_master_if._client_call_y.max.maxtimers) $M 0
	.globl	_i.spi_master_if._chan_yield.transfer8.maxtimers
	.weak	_i.spi_master_if._chan_yield.transfer8.maxtimers
	.set	_i.spi_master_if._chan_yield.transfer8.maxchanends,(1 + ($D __interface_client_call_y.maxchanends ? __interface_client_call_y.maxchanends $: _i.spi_master_if._client_call_y.max.maxchanends)) $M (1 + ($D __interface_wait_and_yield.maxchanends ? __interface_wait_and_yield.maxchanends $: _i.spi_master_if._client_call_y.max.maxchanends)) $M 1
	.globl	_i.spi_master_if._chan_yield.transfer8.maxchanends
	.weak	_i.spi_master_if._chan_yield.transfer8.maxchanends
.Ltmp174:
	.size	_i.spi_master_if._chan_yield.transfer8, .Ltmp174-_i.spi_master_if._chan_yield.transfer8
	.cfi_endproc

	.weak	_i.spi_master_if._chan_yield.end_transaction
	.align	4
	.type	_i.spi_master_if._chan_yield.end_transaction,@function
	.cc_top _i.spi_master_if._chan_yield.end_transaction.function,_i.spi_master_if._chan_yield.end_transaction
_i.spi_master_if._chan_yield.end_transaction: # @_i.spi_master_if._chan_yield.end_transaction
	.cfi_startproc
	.issue_mode dual
# BB#0:                                 # %allocas
	{
		nop
		dualentsp 6
	}
.Ltmp175:
	.cfi_def_cfa_offset 24
.Ltmp176:
	.cfi_offset 15, 0
	std r5, r4, sp[1]               # 4-byte Folded Spill
.Ltmp177:
	.cfi_offset 4, -16
.Ltmp178:
	.cfi_offset 5, -12
.Ltmp179:
	.cfi_offset 6, -8
	#DEBUG_VALUE: _i.spi_master_if._chan_yield.end_transaction:s <- R0
	#DEBUG_VALUE: _i.spi_master_if._chan_yield.end_transaction:param1 <- R1
	#DEBUG_VALUE: _i.spi_master_if._chan_yield.end_transaction:param1 <- R4
	{
		mov r4, r1
		stw r6, sp[4]
	}
	{
		getr r5, 2
		ldw r1, r0[0]
	}
	{
		setd res[r5], r1
		add r1, r5, 1
	}
	{
		out res[r5], r1
		nop
	}
	{
		outct res[r5], 2
		ldw r6, r0[1]
	}
	{
		mov r0, r5
		mov r1, r6
	}
	bl __interface_wait_and_yield
	{
		chkct res[r5], 1
		nop
	}
	{
		out res[r5], r4
		nop
	}
	{
		outct res[r5], 2
		ldc r1, 0
	}
	{
		mov r0, r5
		mov r2, r6
	}
	bl __interface_client_call_y
	{
		chkct res[r5], 1
		nop
	}
	{
		freer res[r5]
		ldw r6, sp[4]
	}
	ldd r5, r4, sp[1]               # 4-byte Folded Reload
	{
		nop
		retsp 6
	}
	# RETURN_REG_HOLDER
	.cc_bottom _i.spi_master_if._chan_yield.end_transaction.function
	.set	_i.spi_master_if._chan_yield.end_transaction.nstackwords,((($D __interface_wait_and_yield.nstackwords ? __interface_wait_and_yield.nstackwords $: _i.spi_master_if._client_call_y.max.nstackwords) $M _i.spi_master_if._client_call_y.max.nstackwords $M ($D __interface_client_call_y.nstackwords ? __interface_client_call_y.nstackwords $: _i.spi_master_if._client_call_y.max.nstackwords)) + 6)
	.globl	_i.spi_master_if._chan_yield.end_transaction.nstackwords
	.weak	_i.spi_master_if._chan_yield.end_transaction.nstackwords
	.set	_i.spi_master_if._chan_yield.end_transaction.maxcores,($D __interface_client_call_y.maxcores ? __interface_client_call_y.maxcores $: _i.spi_master_if._client_call_y.max.maxcores) $M ($D __interface_wait_and_yield.maxcores ? __interface_wait_and_yield.maxcores $: _i.spi_master_if._client_call_y.max.maxcores) $M 1
	.globl	_i.spi_master_if._chan_yield.end_transaction.maxcores
	.weak	_i.spi_master_if._chan_yield.end_transaction.maxcores
	.set	_i.spi_master_if._chan_yield.end_transaction.maxtimers,($D __interface_client_call_y.maxtimers ? __interface_client_call_y.maxtimers $: _i.spi_master_if._client_call_y.max.maxtimers) $M ($D __interface_wait_and_yield.maxtimers ? __interface_wait_and_yield.maxtimers $: _i.spi_master_if._client_call_y.max.maxtimers) $M 0
	.globl	_i.spi_master_if._chan_yield.end_transaction.maxtimers
	.weak	_i.spi_master_if._chan_yield.end_transaction.maxtimers
	.set	_i.spi_master_if._chan_yield.end_transaction.maxchanends,(1 + ($D __interface_client_call_y.maxchanends ? __interface_client_call_y.maxchanends $: _i.spi_master_if._client_call_y.max.maxchanends)) $M (1 + ($D __interface_wait_and_yield.maxchanends ? __interface_wait_and_yield.maxchanends $: _i.spi_master_if._client_call_y.max.maxchanends)) $M 1
	.globl	_i.spi_master_if._chan_yield.end_transaction.maxchanends
	.weak	_i.spi_master_if._chan_yield.end_transaction.maxchanends
.Ltmp180:
	.size	_i.spi_master_if._chan_yield.end_transaction, .Ltmp180-_i.spi_master_if._chan_yield.end_transaction
	.cfi_endproc

	.weak	_i.spi_master_if._chan_yield.begin_transaction
	.align	4
	.type	_i.spi_master_if._chan_yield.begin_transaction,@function
	.cc_top _i.spi_master_if._chan_yield.begin_transaction.function,_i.spi_master_if._chan_yield.begin_transaction
_i.spi_master_if._chan_yield.begin_transaction: # @_i.spi_master_if._chan_yield.begin_transaction
	.cfi_startproc
	.issue_mode dual
# BB#0:                                 # %allocas
	{
		nop
		dualentsp 8
	}
.Ltmp181:
	.cfi_def_cfa_offset 32
.Ltmp182:
	.cfi_offset 15, 0
	std r5, r4, sp[1]               # 4-byte Folded Spill
.Ltmp183:
	.cfi_offset 4, -24
.Ltmp184:
	.cfi_offset 5, -20
	std r7, r6, sp[2]               # 4-byte Folded Spill
.Ltmp185:
	.cfi_offset 6, -16
.Ltmp186:
	.cfi_offset 7, -12
.Ltmp187:
	.cfi_offset 8, -8
	#DEBUG_VALUE: _i.spi_master_if._chan_yield.begin_transaction:s <- R0
	#DEBUG_VALUE: _i.spi_master_if._chan_yield.begin_transaction:param1 <- R1
	#DEBUG_VALUE: _i.spi_master_if._chan_yield.begin_transaction:param2 <- R2
	#DEBUG_VALUE: _i.spi_master_if._chan_yield.begin_transaction:param3 <- R3
	#DEBUG_VALUE: _i.spi_master_if._chan_yield.begin_transaction:param3 <- R4
	{
		mov r4, r3
		stw r8, sp[6]
	}
	#DEBUG_VALUE: _i.spi_master_if._chan_yield.begin_transaction:param2 <- R5
	#DEBUG_VALUE: _i.spi_master_if._chan_yield.begin_transaction:param1 <- R6
	{
		mov r5, r2
		mov r6, r1
	}
	{
		getr r7, 2
		ldw r1, r0[0]
	}
	{
		setd res[r7], r1
		nop
	}
	{
		out res[r7], r7
		nop
	}
	{
		outct res[r7], 2
		ldw r8, r0[1]
	}
	{
		mov r0, r7
		mov r1, r8
	}
	bl __interface_wait_and_yield
	{
		chkct res[r7], 1
		nop
	}
	{
		out res[r7], r6
		nop
	}
	{
		out res[r7], r5
		nop
	}
	{
		out res[r7], r4
		nop
	}
	{
		outct res[r7], 2
		ldc r1, 0
	}
	{
		mov r0, r7
		mov r2, r8
	}
	bl __interface_client_call_y
	{
		chkct res[r7], 1
		nop
	}
	{
		freer res[r7]
		ldw r8, sp[6]
	}
	ldd r7, r6, sp[2]               # 4-byte Folded Reload
	ldd r5, r4, sp[1]               # 4-byte Folded Reload
	{
		nop
		retsp 8
	}
	# RETURN_REG_HOLDER
	.cc_bottom _i.spi_master_if._chan_yield.begin_transaction.function
	.set	_i.spi_master_if._chan_yield.begin_transaction.nstackwords,((($D __interface_wait_and_yield.nstackwords ? __interface_wait_and_yield.nstackwords $: _i.spi_master_if._client_call_y.max.nstackwords) $M _i.spi_master_if._client_call_y.max.nstackwords $M ($D __interface_client_call_y.nstackwords ? __interface_client_call_y.nstackwords $: _i.spi_master_if._client_call_y.max.nstackwords)) + 8)
	.globl	_i.spi_master_if._chan_yield.begin_transaction.nstackwords
	.weak	_i.spi_master_if._chan_yield.begin_transaction.nstackwords
	.set	_i.spi_master_if._chan_yield.begin_transaction.maxcores,($D __interface_client_call_y.maxcores ? __interface_client_call_y.maxcores $: _i.spi_master_if._client_call_y.max.maxcores) $M ($D __interface_wait_and_yield.maxcores ? __interface_wait_and_yield.maxcores $: _i.spi_master_if._client_call_y.max.maxcores) $M 1
	.globl	_i.spi_master_if._chan_yield.begin_transaction.maxcores
	.weak	_i.spi_master_if._chan_yield.begin_transaction.maxcores
	.set	_i.spi_master_if._chan_yield.begin_transaction.maxtimers,($D __interface_client_call_y.maxtimers ? __interface_client_call_y.maxtimers $: _i.spi_master_if._client_call_y.max.maxtimers) $M ($D __interface_wait_and_yield.maxtimers ? __interface_wait_and_yield.maxtimers $: _i.spi_master_if._client_call_y.max.maxtimers) $M 0
	.globl	_i.spi_master_if._chan_yield.begin_transaction.maxtimers
	.weak	_i.spi_master_if._chan_yield.begin_transaction.maxtimers
	.set	_i.spi_master_if._chan_yield.begin_transaction.maxchanends,(1 + ($D __interface_client_call_y.maxchanends ? __interface_client_call_y.maxchanends $: _i.spi_master_if._client_call_y.max.maxchanends)) $M (1 + ($D __interface_wait_and_yield.maxchanends ? __interface_wait_and_yield.maxchanends $: _i.spi_master_if._client_call_y.max.maxchanends)) $M 1
	.globl	_i.spi_master_if._chan_yield.begin_transaction.maxchanends
	.weak	_i.spi_master_if._chan_yield.begin_transaction.maxchanends
.Ltmp188:
	.size	_i.spi_master_if._chan_yield.begin_transaction, .Ltmp188-_i.spi_master_if._chan_yield.begin_transaction
	.cfi_endproc

	.weak	_i.spi_master_async_if._chan.retrieve_transfer_buffers_32
	.align	4
	.type	_i.spi_master_async_if._chan.retrieve_transfer_buffers_32,@function
	.cc_top _i.spi_master_async_if._chan.retrieve_transfer_buffers_32.function,_i.spi_master_async_if._chan.retrieve_transfer_buffers_32
_i.spi_master_async_if._chan.retrieve_transfer_buffers_32: # @_i.spi_master_async_if._chan.retrieve_transfer_buffers_32
	.cfi_startproc
	.issue_mode dual
# BB#0:                                 # %allocas
	#DEBUG_VALUE: _i.spi_master_async_if._chan.retrieve_transfer_buffers_32:dest <- R0
	#DEBUG_VALUE: _i.spi_master_async_if._chan.retrieve_transfer_buffers_32:clientNotifyFlag <- R1
	#DEBUG_VALUE: _i.spi_master_async_if._chan.retrieve_transfer_buffers_32:param2 <- R2
	#DEBUG_VALUE: _i.spi_master_async_if._chan.retrieve_transfer_buffers_32:param3 <- R3
	{
		getr r11, 2
		dualentsp 0
	}
	{
		setd res[r11], r0
		add r0, r11, 5
	}
	{
		out res[r11], r0
		nop
	}
	{
		outct res[r11], 2
		nop
	}
	{
		chkct res[r11], 1
		nop
	}
	{
		out res[r11], r1
		nop
	}
	#APP
	#NO_APP
	{
		out res[r11], r2
		nop
	}
	#APP
	#NO_APP
	{
		out res[r11], r3
		nop
	}
	{
		outct res[r11], 2
		nop
	}
	{
		in r0, res[r11]
		nop
	}
	{
		chkct res[r11], 1
		nop
	}
	{
		freer res[r11]
		retsp 0
	}
	# RETURN_REG_HOLDER
	.cc_bottom _i.spi_master_async_if._chan.retrieve_transfer_buffers_32.function
	.set	_i.spi_master_async_if._chan.retrieve_transfer_buffers_32.nstackwords,0
	.globl	_i.spi_master_async_if._chan.retrieve_transfer_buffers_32.nstackwords
	.weak	_i.spi_master_async_if._chan.retrieve_transfer_buffers_32.nstackwords
	.set	_i.spi_master_async_if._chan.retrieve_transfer_buffers_32.maxcores,1
	.globl	_i.spi_master_async_if._chan.retrieve_transfer_buffers_32.maxcores
	.weak	_i.spi_master_async_if._chan.retrieve_transfer_buffers_32.maxcores
	.set	_i.spi_master_async_if._chan.retrieve_transfer_buffers_32.maxtimers,0
	.globl	_i.spi_master_async_if._chan.retrieve_transfer_buffers_32.maxtimers
	.weak	_i.spi_master_async_if._chan.retrieve_transfer_buffers_32.maxtimers
	.set	_i.spi_master_async_if._chan.retrieve_transfer_buffers_32.maxchanends,1
	.globl	_i.spi_master_async_if._chan.retrieve_transfer_buffers_32.maxchanends
	.weak	_i.spi_master_async_if._chan.retrieve_transfer_buffers_32.maxchanends
.Ltmp189:
	.size	_i.spi_master_async_if._chan.retrieve_transfer_buffers_32, .Ltmp189-_i.spi_master_async_if._chan.retrieve_transfer_buffers_32
	.cfi_endproc

	.weak	_i.spi_master_async_if._chan.retrieve_transfer_buffers_8
	.align	4
	.type	_i.spi_master_async_if._chan.retrieve_transfer_buffers_8,@function
	.cc_top _i.spi_master_async_if._chan.retrieve_transfer_buffers_8.function,_i.spi_master_async_if._chan.retrieve_transfer_buffers_8
_i.spi_master_async_if._chan.retrieve_transfer_buffers_8: # @_i.spi_master_async_if._chan.retrieve_transfer_buffers_8
	.cfi_startproc
	.issue_mode dual
# BB#0:                                 # %allocas
	#DEBUG_VALUE: _i.spi_master_async_if._chan.retrieve_transfer_buffers_8:dest <- R0
	#DEBUG_VALUE: _i.spi_master_async_if._chan.retrieve_transfer_buffers_8:clientNotifyFlag <- R1
	#DEBUG_VALUE: _i.spi_master_async_if._chan.retrieve_transfer_buffers_8:param2 <- R2
	#DEBUG_VALUE: _i.spi_master_async_if._chan.retrieve_transfer_buffers_8:param3 <- R3
	{
		getr r11, 2
		dualentsp 0
	}
	{
		setd res[r11], r0
		add r0, r11, 4
	}
	{
		out res[r11], r0
		nop
	}
	{
		outct res[r11], 2
		nop
	}
	{
		chkct res[r11], 1
		nop
	}
	{
		out res[r11], r1
		nop
	}
	#APP
	#NO_APP
	{
		out res[r11], r2
		nop
	}
	#APP
	#NO_APP
	{
		out res[r11], r3
		nop
	}
	{
		outct res[r11], 2
		nop
	}
	{
		in r0, res[r11]
		nop
	}
	{
		chkct res[r11], 1
		nop
	}
	{
		freer res[r11]
		retsp 0
	}
	# RETURN_REG_HOLDER
	.cc_bottom _i.spi_master_async_if._chan.retrieve_transfer_buffers_8.function
	.set	_i.spi_master_async_if._chan.retrieve_transfer_buffers_8.nstackwords,0
	.globl	_i.spi_master_async_if._chan.retrieve_transfer_buffers_8.nstackwords
	.weak	_i.spi_master_async_if._chan.retrieve_transfer_buffers_8.nstackwords
	.set	_i.spi_master_async_if._chan.retrieve_transfer_buffers_8.maxcores,1
	.globl	_i.spi_master_async_if._chan.retrieve_transfer_buffers_8.maxcores
	.weak	_i.spi_master_async_if._chan.retrieve_transfer_buffers_8.maxcores
	.set	_i.spi_master_async_if._chan.retrieve_transfer_buffers_8.maxtimers,0
	.globl	_i.spi_master_async_if._chan.retrieve_transfer_buffers_8.maxtimers
	.weak	_i.spi_master_async_if._chan.retrieve_transfer_buffers_8.maxtimers
	.set	_i.spi_master_async_if._chan.retrieve_transfer_buffers_8.maxchanends,1
	.globl	_i.spi_master_async_if._chan.retrieve_transfer_buffers_8.maxchanends
	.weak	_i.spi_master_async_if._chan.retrieve_transfer_buffers_8.maxchanends
.Ltmp190:
	.size	_i.spi_master_async_if._chan.retrieve_transfer_buffers_8, .Ltmp190-_i.spi_master_async_if._chan.retrieve_transfer_buffers_8
	.cfi_endproc

	.weak	_i.spi_master_async_if._chan.init_transfer_array_32
	.align	4
	.type	_i.spi_master_async_if._chan.init_transfer_array_32,@function
	.cc_top _i.spi_master_async_if._chan.init_transfer_array_32.function,_i.spi_master_async_if._chan.init_transfer_array_32
_i.spi_master_async_if._chan.init_transfer_array_32: # @_i.spi_master_async_if._chan.init_transfer_array_32
	.cfi_startproc
	.issue_mode dual
# BB#0:                                 # %allocas
	{
		nop
		dualentsp 0
	}
	{
		extsp 4
		nop
	}
.Ltmp191:
	.cfi_def_cfa_offset 16
	std r5, r4, sp[0]               # 4-byte Folded Spill
.Ltmp192:
	.cfi_offset 4, -16
.Ltmp193:
	.cfi_offset 5, -12
	std r7, r6, sp[1]               # 4-byte Folded Spill
.Ltmp194:
	.cfi_offset 6, -8
.Ltmp195:
	.cfi_offset 7, -4
	#DEBUG_VALUE: _i.spi_master_async_if._chan.init_transfer_array_32:dest <- R0
	#DEBUG_VALUE: _i.spi_master_async_if._chan.init_transfer_array_32:param3 <- R3
	{
		nop
		ldw r11, sp[8]
	}
	ldd r5, r4, sp[3]
	{
		getr r7, 2
		ldw r6, sp[5]
	}
	{
		setd res[r7], r0
		add r0, r7, 3
	}
	{
		out res[r7], r0
		nop
	}
	{
		outct res[r7], 2
		nop
	}
	{
		chkct res[r7], 1
		nop
	}
	#APP
	#NO_APP
	{
		out res[r7], r1
		nop
	}
	{
		out res[r7], r6
		nop
	}
	{
		out res[r7], r4
		nop
	}
	#APP
	#NO_APP
	{
		out res[r7], r2
		nop
	}
	{
		out res[r7], r5
		nop
	}
	{
		out res[r7], r11
		nop
	}
	{
		out res[r7], r3
		nop
	}
	{
		outct res[r7], 2
		nop
	}
	{
		in r0, res[r7]
		nop
	}
	{
		chkct res[r7], 1
		nop
	}
	{
		freer res[r7]
		nop
	}
	ldd r7, r6, sp[1]               # 4-byte Folded Reload
	ldd r5, r4, sp[0]               # 4-byte Folded Reload
	{
		ldaw sp, sp[4]
		nop
	}
	{
		nop
		retsp 0
	}
	# RETURN_REG_HOLDER
	.cc_bottom _i.spi_master_async_if._chan.init_transfer_array_32.function
	.set	_i.spi_master_async_if._chan.init_transfer_array_32.nstackwords,4
	.globl	_i.spi_master_async_if._chan.init_transfer_array_32.nstackwords
	.weak	_i.spi_master_async_if._chan.init_transfer_array_32.nstackwords
	.set	_i.spi_master_async_if._chan.init_transfer_array_32.maxcores,1
	.globl	_i.spi_master_async_if._chan.init_transfer_array_32.maxcores
	.weak	_i.spi_master_async_if._chan.init_transfer_array_32.maxcores
	.set	_i.spi_master_async_if._chan.init_transfer_array_32.maxtimers,0
	.globl	_i.spi_master_async_if._chan.init_transfer_array_32.maxtimers
	.weak	_i.spi_master_async_if._chan.init_transfer_array_32.maxtimers
	.set	_i.spi_master_async_if._chan.init_transfer_array_32.maxchanends,1
	.globl	_i.spi_master_async_if._chan.init_transfer_array_32.maxchanends
	.weak	_i.spi_master_async_if._chan.init_transfer_array_32.maxchanends
.Ltmp196:
	.size	_i.spi_master_async_if._chan.init_transfer_array_32, .Ltmp196-_i.spi_master_async_if._chan.init_transfer_array_32
	.cfi_endproc

	.weak	_i.spi_master_async_if._chan.init_transfer_array_8
	.align	4
	.type	_i.spi_master_async_if._chan.init_transfer_array_8,@function
	.cc_top _i.spi_master_async_if._chan.init_transfer_array_8.function,_i.spi_master_async_if._chan.init_transfer_array_8
_i.spi_master_async_if._chan.init_transfer_array_8: # @_i.spi_master_async_if._chan.init_transfer_array_8
	.cfi_startproc
	.issue_mode dual
# BB#0:                                 # %allocas
	{
		nop
		dualentsp 0
	}
	{
		extsp 4
		nop
	}
.Ltmp197:
	.cfi_def_cfa_offset 16
	std r5, r4, sp[0]               # 4-byte Folded Spill
.Ltmp198:
	.cfi_offset 4, -16
.Ltmp199:
	.cfi_offset 5, -12
	std r7, r6, sp[1]               # 4-byte Folded Spill
.Ltmp200:
	.cfi_offset 6, -8
.Ltmp201:
	.cfi_offset 7, -4
	#DEBUG_VALUE: _i.spi_master_async_if._chan.init_transfer_array_8:dest <- R0
	#DEBUG_VALUE: _i.spi_master_async_if._chan.init_transfer_array_8:param3 <- R3
	{
		nop
		ldw r11, sp[8]
	}
	ldd r5, r4, sp[3]
	{
		getr r7, 2
		ldw r6, sp[5]
	}
	{
		setd res[r7], r0
		add r0, r7, 2
	}
	{
		out res[r7], r0
		nop
	}
	{
		outct res[r7], 2
		nop
	}
	{
		chkct res[r7], 1
		nop
	}
	#APP
	#NO_APP
	{
		out res[r7], r1
		nop
	}
	{
		out res[r7], r6
		nop
	}
	{
		out res[r7], r4
		nop
	}
	#APP
	#NO_APP
	{
		out res[r7], r2
		nop
	}
	{
		out res[r7], r5
		nop
	}
	{
		out res[r7], r11
		nop
	}
	{
		out res[r7], r3
		nop
	}
	{
		outct res[r7], 2
		nop
	}
	{
		in r0, res[r7]
		nop
	}
	{
		chkct res[r7], 1
		nop
	}
	{
		freer res[r7]
		nop
	}
	ldd r7, r6, sp[1]               # 4-byte Folded Reload
	ldd r5, r4, sp[0]               # 4-byte Folded Reload
	{
		ldaw sp, sp[4]
		nop
	}
	{
		nop
		retsp 0
	}
	# RETURN_REG_HOLDER
	.cc_bottom _i.spi_master_async_if._chan.init_transfer_array_8.function
	.set	_i.spi_master_async_if._chan.init_transfer_array_8.nstackwords,4
	.globl	_i.spi_master_async_if._chan.init_transfer_array_8.nstackwords
	.weak	_i.spi_master_async_if._chan.init_transfer_array_8.nstackwords
	.set	_i.spi_master_async_if._chan.init_transfer_array_8.maxcores,1
	.globl	_i.spi_master_async_if._chan.init_transfer_array_8.maxcores
	.weak	_i.spi_master_async_if._chan.init_transfer_array_8.maxcores
	.set	_i.spi_master_async_if._chan.init_transfer_array_8.maxtimers,0
	.globl	_i.spi_master_async_if._chan.init_transfer_array_8.maxtimers
	.weak	_i.spi_master_async_if._chan.init_transfer_array_8.maxtimers
	.set	_i.spi_master_async_if._chan.init_transfer_array_8.maxchanends,1
	.globl	_i.spi_master_async_if._chan.init_transfer_array_8.maxchanends
	.weak	_i.spi_master_async_if._chan.init_transfer_array_8.maxchanends
.Ltmp202:
	.size	_i.spi_master_async_if._chan.init_transfer_array_8, .Ltmp202-_i.spi_master_async_if._chan.init_transfer_array_8
	.cfi_endproc

	.weak	_i.spi_master_async_if._chan.end_transaction
	.align	4
	.type	_i.spi_master_async_if._chan.end_transaction,@function
	.cc_top _i.spi_master_async_if._chan.end_transaction.function,_i.spi_master_async_if._chan.end_transaction
_i.spi_master_async_if._chan.end_transaction: # @_i.spi_master_async_if._chan.end_transaction
	.cfi_startproc
	.issue_mode dual
# BB#0:                                 # %allocas
	#DEBUG_VALUE: _i.spi_master_async_if._chan.end_transaction:dest <- R0
	#DEBUG_VALUE: _i.spi_master_async_if._chan.end_transaction:param1 <- R1
	{
		getr r2, 2
		dualentsp 0
	}
	{
		setd res[r2], r0
		add r0, r2, 1
	}
	{
		out res[r2], r0
		nop
	}
	{
		outct res[r2], 2
		nop
	}
	{
		chkct res[r2], 1
		nop
	}
	{
		out res[r2], r1
		nop
	}
	{
		outct res[r2], 2
		nop
	}
	{
		in r0, res[r2]
		nop
	}
	{
		chkct res[r2], 1
		nop
	}
	{
		freer res[r2]
		retsp 0
	}
	# RETURN_REG_HOLDER
	.cc_bottom _i.spi_master_async_if._chan.end_transaction.function
	.set	_i.spi_master_async_if._chan.end_transaction.nstackwords,0
	.globl	_i.spi_master_async_if._chan.end_transaction.nstackwords
	.weak	_i.spi_master_async_if._chan.end_transaction.nstackwords
	.set	_i.spi_master_async_if._chan.end_transaction.maxcores,1
	.globl	_i.spi_master_async_if._chan.end_transaction.maxcores
	.weak	_i.spi_master_async_if._chan.end_transaction.maxcores
	.set	_i.spi_master_async_if._chan.end_transaction.maxtimers,0
	.globl	_i.spi_master_async_if._chan.end_transaction.maxtimers
	.weak	_i.spi_master_async_if._chan.end_transaction.maxtimers
	.set	_i.spi_master_async_if._chan.end_transaction.maxchanends,1
	.globl	_i.spi_master_async_if._chan.end_transaction.maxchanends
	.weak	_i.spi_master_async_if._chan.end_transaction.maxchanends
.Ltmp203:
	.size	_i.spi_master_async_if._chan.end_transaction, .Ltmp203-_i.spi_master_async_if._chan.end_transaction
	.cfi_endproc

	.weak	_i.spi_master_async_if._chan.begin_transaction
	.align	4
	.type	_i.spi_master_async_if._chan.begin_transaction,@function
	.cc_top _i.spi_master_async_if._chan.begin_transaction.function,_i.spi_master_async_if._chan.begin_transaction
_i.spi_master_async_if._chan.begin_transaction: # @_i.spi_master_async_if._chan.begin_transaction
	.cfi_startproc
	.issue_mode dual
# BB#0:                                 # %allocas
	#DEBUG_VALUE: _i.spi_master_async_if._chan.begin_transaction:dest <- R0
	#DEBUG_VALUE: _i.spi_master_async_if._chan.begin_transaction:param1 <- R1
	#DEBUG_VALUE: _i.spi_master_async_if._chan.begin_transaction:param2 <- R2
	#DEBUG_VALUE: _i.spi_master_async_if._chan.begin_transaction:param3 <- R3
	{
		getr r11, 2
		dualentsp 0
	}
	{
		setd res[r11], r0
		nop
	}
	{
		out res[r11], r11
		nop
	}
	{
		outct res[r11], 2
		nop
	}
	{
		chkct res[r11], 1
		nop
	}
	{
		out res[r11], r1
		nop
	}
	{
		out res[r11], r2
		nop
	}
	{
		out res[r11], r3
		nop
	}
	{
		outct res[r11], 2
		nop
	}
	{
		in r0, res[r11]
		nop
	}
	{
		chkct res[r11], 1
		nop
	}
	{
		freer res[r11]
		retsp 0
	}
	# RETURN_REG_HOLDER
	.cc_bottom _i.spi_master_async_if._chan.begin_transaction.function
	.set	_i.spi_master_async_if._chan.begin_transaction.nstackwords,0
	.globl	_i.spi_master_async_if._chan.begin_transaction.nstackwords
	.weak	_i.spi_master_async_if._chan.begin_transaction.nstackwords
	.set	_i.spi_master_async_if._chan.begin_transaction.maxcores,1
	.globl	_i.spi_master_async_if._chan.begin_transaction.maxcores
	.weak	_i.spi_master_async_if._chan.begin_transaction.maxcores
	.set	_i.spi_master_async_if._chan.begin_transaction.maxtimers,0
	.globl	_i.spi_master_async_if._chan.begin_transaction.maxtimers
	.weak	_i.spi_master_async_if._chan.begin_transaction.maxtimers
	.set	_i.spi_master_async_if._chan.begin_transaction.maxchanends,1
	.globl	_i.spi_master_async_if._chan.begin_transaction.maxchanends
	.weak	_i.spi_master_async_if._chan.begin_transaction.maxchanends
.Ltmp204:
	.size	_i.spi_master_async_if._chan.begin_transaction, .Ltmp204-_i.spi_master_async_if._chan.begin_transaction
	.cfi_endproc

	.weak	_i.spi_master_async_if._chan_yield.retrieve_transfer_buffers_32
	.align	4
	.type	_i.spi_master_async_if._chan_yield.retrieve_transfer_buffers_32,@function
	.cc_top _i.spi_master_async_if._chan_yield.retrieve_transfer_buffers_32.function,_i.spi_master_async_if._chan_yield.retrieve_transfer_buffers_32
_i.spi_master_async_if._chan_yield.retrieve_transfer_buffers_32: # @_i.spi_master_async_if._chan_yield.retrieve_transfer_buffers_32
	.cfi_startproc
	.issue_mode dual
# BB#0:                                 # %allocas
	{
		nop
		dualentsp 4
	}
.Ltmp205:
	.cfi_def_cfa_offset 16
.Ltmp206:
	.cfi_offset 15, 0
	{
		nop
		stw r4, sp[2]
	}
.Ltmp207:
	.cfi_offset 4, -8
	#DEBUG_VALUE: _i.spi_master_async_if._chan_yield.retrieve_transfer_buffers_32:s <- R0
	#DEBUG_VALUE: _i.spi_master_async_if._chan_yield.retrieve_transfer_buffers_32:clientNotifyFlag <- R1
	#DEBUG_VALUE: _i.spi_master_async_if._chan_yield.retrieve_transfer_buffers_32:param2 <- R2
	#DEBUG_VALUE: _i.spi_master_async_if._chan_yield.retrieve_transfer_buffers_32:param3 <- R3
	{
		getr r4, 2
		ldw r11, r0[0]
	}
	{
		setd res[r4], r11
		add r11, r4, 5
	}
	{
		out res[r4], r11
		nop
	}
	{
		outct res[r4], 2
		nop
	}
	{
		chkct res[r4], 1
		nop
	}
	{
		out res[r4], r1
		nop
	}
	#APP
	#NO_APP
	{
		out res[r4], r2
		nop
	}
	#APP
	#NO_APP
	{
		out res[r4], r3
		nop
	}
	{
		outct res[r4], 2
		ldw r2, r0[1]
	}
	{
		ldc r1, 0
		mov r0, r4
	}
	bl __interface_client_call_y
	{
		chkct res[r4], 1
		nop
	}
	{
		freer res[r4]
		ldw r4, sp[2]
	}
	{
		nop
		retsp 4
	}
	# RETURN_REG_HOLDER
	.cc_bottom _i.spi_master_async_if._chan_yield.retrieve_transfer_buffers_32.function
	.set	_i.spi_master_async_if._chan_yield.retrieve_transfer_buffers_32.nstackwords,((_i.spi_master_async_if._client_call_y.max.nstackwords $M ($D __interface_client_call_y.nstackwords ? __interface_client_call_y.nstackwords $: _i.spi_master_async_if._client_call_y.max.nstackwords)) + 4)
	.globl	_i.spi_master_async_if._chan_yield.retrieve_transfer_buffers_32.nstackwords
	.weak	_i.spi_master_async_if._chan_yield.retrieve_transfer_buffers_32.nstackwords
	.set	_i.spi_master_async_if._chan_yield.retrieve_transfer_buffers_32.maxcores,($D __interface_client_call_y.maxcores ? __interface_client_call_y.maxcores $: _i.spi_master_async_if._client_call_y.max.maxcores) $M 1
	.globl	_i.spi_master_async_if._chan_yield.retrieve_transfer_buffers_32.maxcores
	.weak	_i.spi_master_async_if._chan_yield.retrieve_transfer_buffers_32.maxcores
	.set	_i.spi_master_async_if._chan_yield.retrieve_transfer_buffers_32.maxtimers,($D __interface_client_call_y.maxtimers ? __interface_client_call_y.maxtimers $: _i.spi_master_async_if._client_call_y.max.maxtimers) $M 0
	.globl	_i.spi_master_async_if._chan_yield.retrieve_transfer_buffers_32.maxtimers
	.weak	_i.spi_master_async_if._chan_yield.retrieve_transfer_buffers_32.maxtimers
	.set	_i.spi_master_async_if._chan_yield.retrieve_transfer_buffers_32.maxchanends,(1 + ($D __interface_client_call_y.maxchanends ? __interface_client_call_y.maxchanends $: _i.spi_master_async_if._client_call_y.max.maxchanends)) $M 1
	.globl	_i.spi_master_async_if._chan_yield.retrieve_transfer_buffers_32.maxchanends
	.weak	_i.spi_master_async_if._chan_yield.retrieve_transfer_buffers_32.maxchanends
.Ltmp208:
	.size	_i.spi_master_async_if._chan_yield.retrieve_transfer_buffers_32, .Ltmp208-_i.spi_master_async_if._chan_yield.retrieve_transfer_buffers_32
	.cfi_endproc

	.weak	_i.spi_master_async_if._chan_yield.retrieve_transfer_buffers_8
	.align	4
	.type	_i.spi_master_async_if._chan_yield.retrieve_transfer_buffers_8,@function
	.cc_top _i.spi_master_async_if._chan_yield.retrieve_transfer_buffers_8.function,_i.spi_master_async_if._chan_yield.retrieve_transfer_buffers_8
_i.spi_master_async_if._chan_yield.retrieve_transfer_buffers_8: # @_i.spi_master_async_if._chan_yield.retrieve_transfer_buffers_8
	.cfi_startproc
	.issue_mode dual
# BB#0:                                 # %allocas
	{
		nop
		dualentsp 4
	}
.Ltmp209:
	.cfi_def_cfa_offset 16
.Ltmp210:
	.cfi_offset 15, 0
	{
		nop
		stw r4, sp[2]
	}
.Ltmp211:
	.cfi_offset 4, -8
	#DEBUG_VALUE: _i.spi_master_async_if._chan_yield.retrieve_transfer_buffers_8:s <- R0
	#DEBUG_VALUE: _i.spi_master_async_if._chan_yield.retrieve_transfer_buffers_8:clientNotifyFlag <- R1
	#DEBUG_VALUE: _i.spi_master_async_if._chan_yield.retrieve_transfer_buffers_8:param2 <- R2
	#DEBUG_VALUE: _i.spi_master_async_if._chan_yield.retrieve_transfer_buffers_8:param3 <- R3
	{
		getr r4, 2
		ldw r11, r0[0]
	}
	{
		setd res[r4], r11
		add r11, r4, 4
	}
	{
		out res[r4], r11
		nop
	}
	{
		outct res[r4], 2
		nop
	}
	{
		chkct res[r4], 1
		nop
	}
	{
		out res[r4], r1
		nop
	}
	#APP
	#NO_APP
	{
		out res[r4], r2
		nop
	}
	#APP
	#NO_APP
	{
		out res[r4], r3
		nop
	}
	{
		outct res[r4], 2
		ldw r2, r0[1]
	}
	{
		ldc r1, 0
		mov r0, r4
	}
	bl __interface_client_call_y
	{
		chkct res[r4], 1
		nop
	}
	{
		freer res[r4]
		ldw r4, sp[2]
	}
	{
		nop
		retsp 4
	}
	# RETURN_REG_HOLDER
	.cc_bottom _i.spi_master_async_if._chan_yield.retrieve_transfer_buffers_8.function
	.set	_i.spi_master_async_if._chan_yield.retrieve_transfer_buffers_8.nstackwords,((_i.spi_master_async_if._client_call_y.max.nstackwords $M ($D __interface_client_call_y.nstackwords ? __interface_client_call_y.nstackwords $: _i.spi_master_async_if._client_call_y.max.nstackwords)) + 4)
	.globl	_i.spi_master_async_if._chan_yield.retrieve_transfer_buffers_8.nstackwords
	.weak	_i.spi_master_async_if._chan_yield.retrieve_transfer_buffers_8.nstackwords
	.set	_i.spi_master_async_if._chan_yield.retrieve_transfer_buffers_8.maxcores,($D __interface_client_call_y.maxcores ? __interface_client_call_y.maxcores $: _i.spi_master_async_if._client_call_y.max.maxcores) $M 1
	.globl	_i.spi_master_async_if._chan_yield.retrieve_transfer_buffers_8.maxcores
	.weak	_i.spi_master_async_if._chan_yield.retrieve_transfer_buffers_8.maxcores
	.set	_i.spi_master_async_if._chan_yield.retrieve_transfer_buffers_8.maxtimers,($D __interface_client_call_y.maxtimers ? __interface_client_call_y.maxtimers $: _i.spi_master_async_if._client_call_y.max.maxtimers) $M 0
	.globl	_i.spi_master_async_if._chan_yield.retrieve_transfer_buffers_8.maxtimers
	.weak	_i.spi_master_async_if._chan_yield.retrieve_transfer_buffers_8.maxtimers
	.set	_i.spi_master_async_if._chan_yield.retrieve_transfer_buffers_8.maxchanends,(1 + ($D __interface_client_call_y.maxchanends ? __interface_client_call_y.maxchanends $: _i.spi_master_async_if._client_call_y.max.maxchanends)) $M 1
	.globl	_i.spi_master_async_if._chan_yield.retrieve_transfer_buffers_8.maxchanends
	.weak	_i.spi_master_async_if._chan_yield.retrieve_transfer_buffers_8.maxchanends
.Ltmp212:
	.size	_i.spi_master_async_if._chan_yield.retrieve_transfer_buffers_8, .Ltmp212-_i.spi_master_async_if._chan_yield.retrieve_transfer_buffers_8
	.cfi_endproc

	.weak	_i.spi_master_async_if._chan_yield.init_transfer_array_32
	.align	4
	.type	_i.spi_master_async_if._chan_yield.init_transfer_array_32,@function
	.cc_top _i.spi_master_async_if._chan_yield.init_transfer_array_32.function,_i.spi_master_async_if._chan_yield.init_transfer_array_32
_i.spi_master_async_if._chan_yield.init_transfer_array_32: # @_i.spi_master_async_if._chan_yield.init_transfer_array_32
	.cfi_startproc
	.issue_mode dual
# BB#0:                                 # %allocas
	{
		nop
		dualentsp 8
	}
.Ltmp213:
	.cfi_def_cfa_offset 32
.Ltmp214:
	.cfi_offset 15, 0
	std r5, r4, sp[1]               # 4-byte Folded Spill
.Ltmp215:
	.cfi_offset 4, -24
.Ltmp216:
	.cfi_offset 5, -20
	std r7, r6, sp[2]               # 4-byte Folded Spill
.Ltmp217:
	.cfi_offset 6, -16
.Ltmp218:
	.cfi_offset 7, -12
	{
		nop
		stw r8, sp[6]
	}
.Ltmp219:
	.cfi_offset 8, -8
	#DEBUG_VALUE: _i.spi_master_async_if._chan_yield.init_transfer_array_32:s <- R0
	#DEBUG_VALUE: _i.spi_master_async_if._chan_yield.init_transfer_array_32:param3 <- R3
	{
		nop
		ldw r11, sp[12]
	}
	ldd r6, r5, sp[5]
	{
		nop
		ldw r7, sp[9]
	}
	{
		getr r4, 2
		ldw r8, r0[0]
	}
	{
		setd res[r4], r8
		add r8, r4, 3
	}
	{
		out res[r4], r8
		nop
	}
	{
		outct res[r4], 2
		nop
	}
	{
		chkct res[r4], 1
		nop
	}
	#APP
	#NO_APP
	{
		out res[r4], r1
		nop
	}
	{
		out res[r4], r7
		nop
	}
	{
		out res[r4], r5
		nop
	}
	#APP
	#NO_APP
	{
		out res[r4], r2
		nop
	}
	{
		out res[r4], r6
		nop
	}
	{
		out res[r4], r11
		nop
	}
	{
		out res[r4], r3
		nop
	}
	{
		outct res[r4], 2
		ldw r2, r0[1]
	}
	{
		ldc r1, 0
		mov r0, r4
	}
	bl __interface_client_call_y
	{
		chkct res[r4], 1
		nop
	}
	{
		freer res[r4]
		ldw r8, sp[6]
	}
	ldd r7, r6, sp[2]               # 4-byte Folded Reload
	ldd r5, r4, sp[1]               # 4-byte Folded Reload
	{
		nop
		retsp 8
	}
	# RETURN_REG_HOLDER
	.cc_bottom _i.spi_master_async_if._chan_yield.init_transfer_array_32.function
	.set	_i.spi_master_async_if._chan_yield.init_transfer_array_32.nstackwords,((_i.spi_master_async_if._client_call_y.max.nstackwords $M ($D __interface_client_call_y.nstackwords ? __interface_client_call_y.nstackwords $: _i.spi_master_async_if._client_call_y.max.nstackwords)) + 8)
	.globl	_i.spi_master_async_if._chan_yield.init_transfer_array_32.nstackwords
	.weak	_i.spi_master_async_if._chan_yield.init_transfer_array_32.nstackwords
	.set	_i.spi_master_async_if._chan_yield.init_transfer_array_32.maxcores,($D __interface_client_call_y.maxcores ? __interface_client_call_y.maxcores $: _i.spi_master_async_if._client_call_y.max.maxcores) $M 1
	.globl	_i.spi_master_async_if._chan_yield.init_transfer_array_32.maxcores
	.weak	_i.spi_master_async_if._chan_yield.init_transfer_array_32.maxcores
	.set	_i.spi_master_async_if._chan_yield.init_transfer_array_32.maxtimers,($D __interface_client_call_y.maxtimers ? __interface_client_call_y.maxtimers $: _i.spi_master_async_if._client_call_y.max.maxtimers) $M 0
	.globl	_i.spi_master_async_if._chan_yield.init_transfer_array_32.maxtimers
	.weak	_i.spi_master_async_if._chan_yield.init_transfer_array_32.maxtimers
	.set	_i.spi_master_async_if._chan_yield.init_transfer_array_32.maxchanends,(1 + ($D __interface_client_call_y.maxchanends ? __interface_client_call_y.maxchanends $: _i.spi_master_async_if._client_call_y.max.maxchanends)) $M 1
	.globl	_i.spi_master_async_if._chan_yield.init_transfer_array_32.maxchanends
	.weak	_i.spi_master_async_if._chan_yield.init_transfer_array_32.maxchanends
.Ltmp220:
	.size	_i.spi_master_async_if._chan_yield.init_transfer_array_32, .Ltmp220-_i.spi_master_async_if._chan_yield.init_transfer_array_32
	.cfi_endproc

	.weak	_i.spi_master_async_if._chan_yield.init_transfer_array_8
	.align	4
	.type	_i.spi_master_async_if._chan_yield.init_transfer_array_8,@function
	.cc_top _i.spi_master_async_if._chan_yield.init_transfer_array_8.function,_i.spi_master_async_if._chan_yield.init_transfer_array_8
_i.spi_master_async_if._chan_yield.init_transfer_array_8: # @_i.spi_master_async_if._chan_yield.init_transfer_array_8
	.cfi_startproc
	.issue_mode dual
# BB#0:                                 # %allocas
	{
		nop
		dualentsp 8
	}
.Ltmp221:
	.cfi_def_cfa_offset 32
.Ltmp222:
	.cfi_offset 15, 0
	std r5, r4, sp[1]               # 4-byte Folded Spill
.Ltmp223:
	.cfi_offset 4, -24
.Ltmp224:
	.cfi_offset 5, -20
	std r7, r6, sp[2]               # 4-byte Folded Spill
.Ltmp225:
	.cfi_offset 6, -16
.Ltmp226:
	.cfi_offset 7, -12
	{
		nop
		stw r8, sp[6]
	}
.Ltmp227:
	.cfi_offset 8, -8
	#DEBUG_VALUE: _i.spi_master_async_if._chan_yield.init_transfer_array_8:s <- R0
	#DEBUG_VALUE: _i.spi_master_async_if._chan_yield.init_transfer_array_8:param3 <- R3
	{
		nop
		ldw r11, sp[12]
	}
	ldd r6, r5, sp[5]
	{
		nop
		ldw r7, sp[9]
	}
	{
		getr r4, 2
		ldw r8, r0[0]
	}
	{
		setd res[r4], r8
		add r8, r4, 2
	}
	{
		out res[r4], r8
		nop
	}
	{
		outct res[r4], 2
		nop
	}
	{
		chkct res[r4], 1
		nop
	}
	#APP
	#NO_APP
	{
		out res[r4], r1
		nop
	}
	{
		out res[r4], r7
		nop
	}
	{
		out res[r4], r5
		nop
	}
	#APP
	#NO_APP
	{
		out res[r4], r2
		nop
	}
	{
		out res[r4], r6
		nop
	}
	{
		out res[r4], r11
		nop
	}
	{
		out res[r4], r3
		nop
	}
	{
		outct res[r4], 2
		ldw r2, r0[1]
	}
	{
		ldc r1, 0
		mov r0, r4
	}
	bl __interface_client_call_y
	{
		chkct res[r4], 1
		nop
	}
	{
		freer res[r4]
		ldw r8, sp[6]
	}
	ldd r7, r6, sp[2]               # 4-byte Folded Reload
	ldd r5, r4, sp[1]               # 4-byte Folded Reload
	{
		nop
		retsp 8
	}
	# RETURN_REG_HOLDER
	.cc_bottom _i.spi_master_async_if._chan_yield.init_transfer_array_8.function
	.set	_i.spi_master_async_if._chan_yield.init_transfer_array_8.nstackwords,((_i.spi_master_async_if._client_call_y.max.nstackwords $M ($D __interface_client_call_y.nstackwords ? __interface_client_call_y.nstackwords $: _i.spi_master_async_if._client_call_y.max.nstackwords)) + 8)
	.globl	_i.spi_master_async_if._chan_yield.init_transfer_array_8.nstackwords
	.weak	_i.spi_master_async_if._chan_yield.init_transfer_array_8.nstackwords
	.set	_i.spi_master_async_if._chan_yield.init_transfer_array_8.maxcores,($D __interface_client_call_y.maxcores ? __interface_client_call_y.maxcores $: _i.spi_master_async_if._client_call_y.max.maxcores) $M 1
	.globl	_i.spi_master_async_if._chan_yield.init_transfer_array_8.maxcores
	.weak	_i.spi_master_async_if._chan_yield.init_transfer_array_8.maxcores
	.set	_i.spi_master_async_if._chan_yield.init_transfer_array_8.maxtimers,($D __interface_client_call_y.maxtimers ? __interface_client_call_y.maxtimers $: _i.spi_master_async_if._client_call_y.max.maxtimers) $M 0
	.globl	_i.spi_master_async_if._chan_yield.init_transfer_array_8.maxtimers
	.weak	_i.spi_master_async_if._chan_yield.init_transfer_array_8.maxtimers
	.set	_i.spi_master_async_if._chan_yield.init_transfer_array_8.maxchanends,(1 + ($D __interface_client_call_y.maxchanends ? __interface_client_call_y.maxchanends $: _i.spi_master_async_if._client_call_y.max.maxchanends)) $M 1
	.globl	_i.spi_master_async_if._chan_yield.init_transfer_array_8.maxchanends
	.weak	_i.spi_master_async_if._chan_yield.init_transfer_array_8.maxchanends
.Ltmp228:
	.size	_i.spi_master_async_if._chan_yield.init_transfer_array_8, .Ltmp228-_i.spi_master_async_if._chan_yield.init_transfer_array_8
	.cfi_endproc

	.weak	_i.spi_master_async_if._chan_yield.end_transaction
	.align	4
	.type	_i.spi_master_async_if._chan_yield.end_transaction,@function
	.cc_top _i.spi_master_async_if._chan_yield.end_transaction.function,_i.spi_master_async_if._chan_yield.end_transaction
_i.spi_master_async_if._chan_yield.end_transaction: # @_i.spi_master_async_if._chan_yield.end_transaction
	.cfi_startproc
	.issue_mode dual
# BB#0:                                 # %allocas
	{
		nop
		dualentsp 4
	}
.Ltmp229:
	.cfi_def_cfa_offset 16
.Ltmp230:
	.cfi_offset 15, 0
	{
		nop
		stw r4, sp[2]
	}
.Ltmp231:
	.cfi_offset 4, -8
	#DEBUG_VALUE: _i.spi_master_async_if._chan_yield.end_transaction:s <- R0
	#DEBUG_VALUE: _i.spi_master_async_if._chan_yield.end_transaction:param1 <- R1
	{
		getr r4, 2
		ldw r2, r0[0]
	}
	{
		setd res[r4], r2
		add r2, r4, 1
	}
	{
		out res[r4], r2
		nop
	}
	{
		outct res[r4], 2
		nop
	}
	{
		chkct res[r4], 1
		nop
	}
	{
		out res[r4], r1
		nop
	}
	{
		outct res[r4], 2
		ldw r2, r0[1]
	}
	{
		ldc r1, 0
		mov r0, r4
	}
	bl __interface_client_call_y
	{
		chkct res[r4], 1
		nop
	}
	{
		freer res[r4]
		ldw r4, sp[2]
	}
	{
		nop
		retsp 4
	}
	# RETURN_REG_HOLDER
	.cc_bottom _i.spi_master_async_if._chan_yield.end_transaction.function
	.set	_i.spi_master_async_if._chan_yield.end_transaction.nstackwords,((_i.spi_master_async_if._client_call_y.max.nstackwords $M ($D __interface_client_call_y.nstackwords ? __interface_client_call_y.nstackwords $: _i.spi_master_async_if._client_call_y.max.nstackwords)) + 4)
	.globl	_i.spi_master_async_if._chan_yield.end_transaction.nstackwords
	.weak	_i.spi_master_async_if._chan_yield.end_transaction.nstackwords
	.set	_i.spi_master_async_if._chan_yield.end_transaction.maxcores,($D __interface_client_call_y.maxcores ? __interface_client_call_y.maxcores $: _i.spi_master_async_if._client_call_y.max.maxcores) $M 1
	.globl	_i.spi_master_async_if._chan_yield.end_transaction.maxcores
	.weak	_i.spi_master_async_if._chan_yield.end_transaction.maxcores
	.set	_i.spi_master_async_if._chan_yield.end_transaction.maxtimers,($D __interface_client_call_y.maxtimers ? __interface_client_call_y.maxtimers $: _i.spi_master_async_if._client_call_y.max.maxtimers) $M 0
	.globl	_i.spi_master_async_if._chan_yield.end_transaction.maxtimers
	.weak	_i.spi_master_async_if._chan_yield.end_transaction.maxtimers
	.set	_i.spi_master_async_if._chan_yield.end_transaction.maxchanends,(1 + ($D __interface_client_call_y.maxchanends ? __interface_client_call_y.maxchanends $: _i.spi_master_async_if._client_call_y.max.maxchanends)) $M 1
	.globl	_i.spi_master_async_if._chan_yield.end_transaction.maxchanends
	.weak	_i.spi_master_async_if._chan_yield.end_transaction.maxchanends
.Ltmp232:
	.size	_i.spi_master_async_if._chan_yield.end_transaction, .Ltmp232-_i.spi_master_async_if._chan_yield.end_transaction
	.cfi_endproc

	.weak	_i.spi_master_async_if._chan_yield.begin_transaction
	.align	4
	.type	_i.spi_master_async_if._chan_yield.begin_transaction,@function
	.cc_top _i.spi_master_async_if._chan_yield.begin_transaction.function,_i.spi_master_async_if._chan_yield.begin_transaction
_i.spi_master_async_if._chan_yield.begin_transaction: # @_i.spi_master_async_if._chan_yield.begin_transaction
	.cfi_startproc
	.issue_mode dual
# BB#0:                                 # %allocas
	{
		nop
		dualentsp 4
	}
.Ltmp233:
	.cfi_def_cfa_offset 16
.Ltmp234:
	.cfi_offset 15, 0
	{
		nop
		stw r4, sp[2]
	}
.Ltmp235:
	.cfi_offset 4, -8
	#DEBUG_VALUE: _i.spi_master_async_if._chan_yield.begin_transaction:s <- R0
	#DEBUG_VALUE: _i.spi_master_async_if._chan_yield.begin_transaction:param1 <- R1
	#DEBUG_VALUE: _i.spi_master_async_if._chan_yield.begin_transaction:param2 <- R2
	#DEBUG_VALUE: _i.spi_master_async_if._chan_yield.begin_transaction:param3 <- R3
	{
		getr r4, 2
		ldw r11, r0[0]
	}
	{
		setd res[r4], r11
		nop
	}
	{
		out res[r4], r4
		nop
	}
	{
		outct res[r4], 2
		nop
	}
	{
		chkct res[r4], 1
		nop
	}
	{
		out res[r4], r1
		nop
	}
	{
		out res[r4], r2
		nop
	}
	{
		out res[r4], r3
		nop
	}
	{
		outct res[r4], 2
		ldw r2, r0[1]
	}
	{
		ldc r1, 0
		mov r0, r4
	}
	bl __interface_client_call_y
	{
		chkct res[r4], 1
		nop
	}
	{
		freer res[r4]
		ldw r4, sp[2]
	}
	{
		nop
		retsp 4
	}
	# RETURN_REG_HOLDER
	.cc_bottom _i.spi_master_async_if._chan_yield.begin_transaction.function
	.set	_i.spi_master_async_if._chan_yield.begin_transaction.nstackwords,((_i.spi_master_async_if._client_call_y.max.nstackwords $M ($D __interface_client_call_y.nstackwords ? __interface_client_call_y.nstackwords $: _i.spi_master_async_if._client_call_y.max.nstackwords)) + 4)
	.globl	_i.spi_master_async_if._chan_yield.begin_transaction.nstackwords
	.weak	_i.spi_master_async_if._chan_yield.begin_transaction.nstackwords
	.set	_i.spi_master_async_if._chan_yield.begin_transaction.maxcores,($D __interface_client_call_y.maxcores ? __interface_client_call_y.maxcores $: _i.spi_master_async_if._client_call_y.max.maxcores) $M 1
	.globl	_i.spi_master_async_if._chan_yield.begin_transaction.maxcores
	.weak	_i.spi_master_async_if._chan_yield.begin_transaction.maxcores
	.set	_i.spi_master_async_if._chan_yield.begin_transaction.maxtimers,($D __interface_client_call_y.maxtimers ? __interface_client_call_y.maxtimers $: _i.spi_master_async_if._client_call_y.max.maxtimers) $M 0
	.globl	_i.spi_master_async_if._chan_yield.begin_transaction.maxtimers
	.weak	_i.spi_master_async_if._chan_yield.begin_transaction.maxtimers
	.set	_i.spi_master_async_if._chan_yield.begin_transaction.maxchanends,(1 + ($D __interface_client_call_y.maxchanends ? __interface_client_call_y.maxchanends $: _i.spi_master_async_if._client_call_y.max.maxchanends)) $M 1
	.globl	_i.spi_master_async_if._chan_yield.begin_transaction.maxchanends
	.weak	_i.spi_master_async_if._chan_yield.begin_transaction.maxchanends
.Ltmp236:
	.size	_i.spi_master_async_if._chan_yield.begin_transaction, .Ltmp236-_i.spi_master_async_if._chan_yield.begin_transaction
	.cfi_endproc

	.weak	_i.spi_slave_callback_if._chan.master_supplied_data
	.align	4
	.type	_i.spi_slave_callback_if._chan.master_supplied_data,@function
	.cc_top _i.spi_slave_callback_if._chan.master_supplied_data.function,_i.spi_slave_callback_if._chan.master_supplied_data
_i.spi_slave_callback_if._chan.master_supplied_data: # @_i.spi_slave_callback_if._chan.master_supplied_data
	.cfi_startproc
	.issue_mode dual
# BB#0:                                 # %allocas
	#DEBUG_VALUE: _i.spi_slave_callback_if._chan.master_supplied_data:dest <- R0
	#DEBUG_VALUE: _i.spi_slave_callback_if._chan.master_supplied_data:param1 <- R1
	#DEBUG_VALUE: _i.spi_slave_callback_if._chan.master_supplied_data:param2 <- R2
	{
		getr r3, 2
		dualentsp 0
	}
	{
		setd res[r3], r0
		add r0, r3, 2
	}
	{
		out res[r3], r0
		nop
	}
	{
		outct res[r3], 2
		nop
	}
	{
		chkct res[r3], 1
		nop
	}
	{
		out res[r3], r1
		nop
	}
	{
		out res[r3], r2
		nop
	}
	{
		outct res[r3], 2
		nop
	}
	{
		in r0, res[r3]
		nop
	}
	{
		chkct res[r3], 1
		nop
	}
	{
		freer res[r3]
		retsp 0
	}
	# RETURN_REG_HOLDER
	.cc_bottom _i.spi_slave_callback_if._chan.master_supplied_data.function
	.set	_i.spi_slave_callback_if._chan.master_supplied_data.nstackwords,0
	.globl	_i.spi_slave_callback_if._chan.master_supplied_data.nstackwords
	.weak	_i.spi_slave_callback_if._chan.master_supplied_data.nstackwords
	.set	_i.spi_slave_callback_if._chan.master_supplied_data.maxcores,1
	.globl	_i.spi_slave_callback_if._chan.master_supplied_data.maxcores
	.weak	_i.spi_slave_callback_if._chan.master_supplied_data.maxcores
	.set	_i.spi_slave_callback_if._chan.master_supplied_data.maxtimers,0
	.globl	_i.spi_slave_callback_if._chan.master_supplied_data.maxtimers
	.weak	_i.spi_slave_callback_if._chan.master_supplied_data.maxtimers
	.set	_i.spi_slave_callback_if._chan.master_supplied_data.maxchanends,1
	.globl	_i.spi_slave_callback_if._chan.master_supplied_data.maxchanends
	.weak	_i.spi_slave_callback_if._chan.master_supplied_data.maxchanends
.Ltmp237:
	.size	_i.spi_slave_callback_if._chan.master_supplied_data, .Ltmp237-_i.spi_slave_callback_if._chan.master_supplied_data
	.cfi_endproc

	.weak	_i.spi_slave_callback_if._chan.master_requires_data
	.align	4
	.type	_i.spi_slave_callback_if._chan.master_requires_data,@function
	.cc_top _i.spi_slave_callback_if._chan.master_requires_data.function,_i.spi_slave_callback_if._chan.master_requires_data
_i.spi_slave_callback_if._chan.master_requires_data: # @_i.spi_slave_callback_if._chan.master_requires_data
	.cfi_startproc
	.issue_mode dual
# BB#0:                                 # %allocas
	#DEBUG_VALUE: _i.spi_slave_callback_if._chan.master_requires_data:dest <- R0
	{
		getr r1, 2
		dualentsp 0
	}
	{
		setd res[r1], r0
		add r0, r1, 1
	}
	{
		out res[r1], r0
		nop
	}
	{
		outct res[r1], 2
		nop
	}
	{
		in r0, res[r1]
		nop
	}
	{
		in r0, res[r1]
		nop
	}
	{
		chkct res[r1], 1
		nop
	}
	{
		freer res[r1]
		retsp 0
	}
	# RETURN_REG_HOLDER
	.cc_bottom _i.spi_slave_callback_if._chan.master_requires_data.function
	.set	_i.spi_slave_callback_if._chan.master_requires_data.nstackwords,0
	.globl	_i.spi_slave_callback_if._chan.master_requires_data.nstackwords
	.weak	_i.spi_slave_callback_if._chan.master_requires_data.nstackwords
	.set	_i.spi_slave_callback_if._chan.master_requires_data.maxcores,1
	.globl	_i.spi_slave_callback_if._chan.master_requires_data.maxcores
	.weak	_i.spi_slave_callback_if._chan.master_requires_data.maxcores
	.set	_i.spi_slave_callback_if._chan.master_requires_data.maxtimers,0
	.globl	_i.spi_slave_callback_if._chan.master_requires_data.maxtimers
	.weak	_i.spi_slave_callback_if._chan.master_requires_data.maxtimers
	.set	_i.spi_slave_callback_if._chan.master_requires_data.maxchanends,1
	.globl	_i.spi_slave_callback_if._chan.master_requires_data.maxchanends
	.weak	_i.spi_slave_callback_if._chan.master_requires_data.maxchanends
.Ltmp238:
	.size	_i.spi_slave_callback_if._chan.master_requires_data, .Ltmp238-_i.spi_slave_callback_if._chan.master_requires_data
	.cfi_endproc

	.weak	_i.spi_slave_callback_if._chan.master_ends_transaction
	.align	4
	.type	_i.spi_slave_callback_if._chan.master_ends_transaction,@function
	.cc_top _i.spi_slave_callback_if._chan.master_ends_transaction.function,_i.spi_slave_callback_if._chan.master_ends_transaction
_i.spi_slave_callback_if._chan.master_ends_transaction: # @_i.spi_slave_callback_if._chan.master_ends_transaction
	.cfi_startproc
	.issue_mode dual
# BB#0:                                 # %allocas
	#DEBUG_VALUE: _i.spi_slave_callback_if._chan.master_ends_transaction:dest <- R0
	{
		getr r1, 2
		dualentsp 0
	}
	{
		setd res[r1], r0
		nop
	}
	{
		out res[r1], r1
		nop
	}
	{
		outct res[r1], 2
		nop
	}
	{
		in r0, res[r1]
		nop
	}
	{
		chkct res[r1], 1
		nop
	}
	{
		freer res[r1]
		retsp 0
	}
	# RETURN_REG_HOLDER
	.cc_bottom _i.spi_slave_callback_if._chan.master_ends_transaction.function
	.set	_i.spi_slave_callback_if._chan.master_ends_transaction.nstackwords,0
	.globl	_i.spi_slave_callback_if._chan.master_ends_transaction.nstackwords
	.weak	_i.spi_slave_callback_if._chan.master_ends_transaction.nstackwords
	.set	_i.spi_slave_callback_if._chan.master_ends_transaction.maxcores,1
	.globl	_i.spi_slave_callback_if._chan.master_ends_transaction.maxcores
	.weak	_i.spi_slave_callback_if._chan.master_ends_transaction.maxcores
	.set	_i.spi_slave_callback_if._chan.master_ends_transaction.maxtimers,0
	.globl	_i.spi_slave_callback_if._chan.master_ends_transaction.maxtimers
	.weak	_i.spi_slave_callback_if._chan.master_ends_transaction.maxtimers
	.set	_i.spi_slave_callback_if._chan.master_ends_transaction.maxchanends,1
	.globl	_i.spi_slave_callback_if._chan.master_ends_transaction.maxchanends
	.weak	_i.spi_slave_callback_if._chan.master_ends_transaction.maxchanends
.Ltmp239:
	.size	_i.spi_slave_callback_if._chan.master_ends_transaction, .Ltmp239-_i.spi_slave_callback_if._chan.master_ends_transaction
	.cfi_endproc

	.weak	_i.spi_slave_callback_if._chan_yield.master_supplied_data
	.align	4
	.type	_i.spi_slave_callback_if._chan_yield.master_supplied_data,@function
	.cc_top _i.spi_slave_callback_if._chan_yield.master_supplied_data.function,_i.spi_slave_callback_if._chan_yield.master_supplied_data
_i.spi_slave_callback_if._chan_yield.master_supplied_data: # @_i.spi_slave_callback_if._chan_yield.master_supplied_data
	.cfi_startproc
	.issue_mode dual
# BB#0:                                 # %allocas
	{
		nop
		dualentsp 4
	}
.Ltmp240:
	.cfi_def_cfa_offset 16
.Ltmp241:
	.cfi_offset 15, 0
	{
		nop
		stw r4, sp[2]
	}
.Ltmp242:
	.cfi_offset 4, -8
	#DEBUG_VALUE: _i.spi_slave_callback_if._chan_yield.master_supplied_data:s <- R0
	#DEBUG_VALUE: _i.spi_slave_callback_if._chan_yield.master_supplied_data:param1 <- R1
	#DEBUG_VALUE: _i.spi_slave_callback_if._chan_yield.master_supplied_data:param2 <- R2
	{
		getr r4, 2
		ldw r3, r0[0]
	}
	{
		setd res[r4], r3
		add r3, r4, 2
	}
	{
		out res[r4], r3
		nop
	}
	{
		outct res[r4], 2
		nop
	}
	{
		chkct res[r4], 1
		nop
	}
	{
		out res[r4], r1
		nop
	}
	{
		out res[r4], r2
		nop
	}
	{
		outct res[r4], 2
		ldw r2, r0[1]
	}
	{
		ldc r1, 0
		mov r0, r4
	}
	bl __interface_client_call_y
	{
		chkct res[r4], 1
		nop
	}
	{
		freer res[r4]
		ldw r4, sp[2]
	}
	{
		nop
		retsp 4
	}
	# RETURN_REG_HOLDER
	.cc_bottom _i.spi_slave_callback_if._chan_yield.master_supplied_data.function
	.set	_i.spi_slave_callback_if._chan_yield.master_supplied_data.nstackwords,((_i.spi_slave_callback_if._client_call_y.max.nstackwords $M ($D __interface_client_call_y.nstackwords ? __interface_client_call_y.nstackwords $: _i.spi_slave_callback_if._client_call_y.max.nstackwords)) + 4)
	.globl	_i.spi_slave_callback_if._chan_yield.master_supplied_data.nstackwords
	.weak	_i.spi_slave_callback_if._chan_yield.master_supplied_data.nstackwords
	.set	_i.spi_slave_callback_if._chan_yield.master_supplied_data.maxcores,($D __interface_client_call_y.maxcores ? __interface_client_call_y.maxcores $: _i.spi_slave_callback_if._client_call_y.max.maxcores) $M 1
	.globl	_i.spi_slave_callback_if._chan_yield.master_supplied_data.maxcores
	.weak	_i.spi_slave_callback_if._chan_yield.master_supplied_data.maxcores
	.set	_i.spi_slave_callback_if._chan_yield.master_supplied_data.maxtimers,($D __interface_client_call_y.maxtimers ? __interface_client_call_y.maxtimers $: _i.spi_slave_callback_if._client_call_y.max.maxtimers) $M 0
	.globl	_i.spi_slave_callback_if._chan_yield.master_supplied_data.maxtimers
	.weak	_i.spi_slave_callback_if._chan_yield.master_supplied_data.maxtimers
	.set	_i.spi_slave_callback_if._chan_yield.master_supplied_data.maxchanends,(1 + ($D __interface_client_call_y.maxchanends ? __interface_client_call_y.maxchanends $: _i.spi_slave_callback_if._client_call_y.max.maxchanends)) $M 1
	.globl	_i.spi_slave_callback_if._chan_yield.master_supplied_data.maxchanends
	.weak	_i.spi_slave_callback_if._chan_yield.master_supplied_data.maxchanends
.Ltmp243:
	.size	_i.spi_slave_callback_if._chan_yield.master_supplied_data, .Ltmp243-_i.spi_slave_callback_if._chan_yield.master_supplied_data
	.cfi_endproc

	.weak	_i.spi_slave_callback_if._chan_yield.master_requires_data
	.align	4
	.type	_i.spi_slave_callback_if._chan_yield.master_requires_data,@function
	.cc_top _i.spi_slave_callback_if._chan_yield.master_requires_data.function,_i.spi_slave_callback_if._chan_yield.master_requires_data
_i.spi_slave_callback_if._chan_yield.master_requires_data: # @_i.spi_slave_callback_if._chan_yield.master_requires_data
	.cfi_startproc
	.issue_mode dual
# BB#0:                                 # %allocas
	{
		nop
		dualentsp 4
	}
.Ltmp244:
	.cfi_def_cfa_offset 16
.Ltmp245:
	.cfi_offset 15, 0
	{
		nop
		stw r4, sp[2]
	}
.Ltmp246:
	.cfi_offset 4, -8
	#DEBUG_VALUE: _i.spi_slave_callback_if._chan_yield.master_requires_data:s <- R0
	{
		getr r4, 2
		ldw r1, r0[0]
	}
	{
		setd res[r4], r1
		add r1, r4, 1
	}
	{
		out res[r4], r1
		nop
	}
	{
		outct res[r4], 2
		ldw r2, r0[1]
	}
	{
		ldc r1, 0
		mov r0, r4
	}
	bl __interface_client_call_y
	{
		in r0, res[r4]
		nop
	}
	{
		chkct res[r4], 1
		nop
	}
	{
		freer res[r4]
		ldw r4, sp[2]
	}
	{
		nop
		retsp 4
	}
	# RETURN_REG_HOLDER
	.cc_bottom _i.spi_slave_callback_if._chan_yield.master_requires_data.function
	.set	_i.spi_slave_callback_if._chan_yield.master_requires_data.nstackwords,((_i.spi_slave_callback_if._client_call_y.max.nstackwords $M ($D __interface_client_call_y.nstackwords ? __interface_client_call_y.nstackwords $: _i.spi_slave_callback_if._client_call_y.max.nstackwords)) + 4)
	.globl	_i.spi_slave_callback_if._chan_yield.master_requires_data.nstackwords
	.weak	_i.spi_slave_callback_if._chan_yield.master_requires_data.nstackwords
	.set	_i.spi_slave_callback_if._chan_yield.master_requires_data.maxcores,($D __interface_client_call_y.maxcores ? __interface_client_call_y.maxcores $: _i.spi_slave_callback_if._client_call_y.max.maxcores) $M 1
	.globl	_i.spi_slave_callback_if._chan_yield.master_requires_data.maxcores
	.weak	_i.spi_slave_callback_if._chan_yield.master_requires_data.maxcores
	.set	_i.spi_slave_callback_if._chan_yield.master_requires_data.maxtimers,($D __interface_client_call_y.maxtimers ? __interface_client_call_y.maxtimers $: _i.spi_slave_callback_if._client_call_y.max.maxtimers) $M 0
	.globl	_i.spi_slave_callback_if._chan_yield.master_requires_data.maxtimers
	.weak	_i.spi_slave_callback_if._chan_yield.master_requires_data.maxtimers
	.set	_i.spi_slave_callback_if._chan_yield.master_requires_data.maxchanends,(1 + ($D __interface_client_call_y.maxchanends ? __interface_client_call_y.maxchanends $: _i.spi_slave_callback_if._client_call_y.max.maxchanends)) $M 1
	.globl	_i.spi_slave_callback_if._chan_yield.master_requires_data.maxchanends
	.weak	_i.spi_slave_callback_if._chan_yield.master_requires_data.maxchanends
.Ltmp247:
	.size	_i.spi_slave_callback_if._chan_yield.master_requires_data, .Ltmp247-_i.spi_slave_callback_if._chan_yield.master_requires_data
	.cfi_endproc

	.weak	_i.spi_slave_callback_if._chan_yield.master_ends_transaction
	.align	4
	.type	_i.spi_slave_callback_if._chan_yield.master_ends_transaction,@function
	.cc_top _i.spi_slave_callback_if._chan_yield.master_ends_transaction.function,_i.spi_slave_callback_if._chan_yield.master_ends_transaction
_i.spi_slave_callback_if._chan_yield.master_ends_transaction: # @_i.spi_slave_callback_if._chan_yield.master_ends_transaction
	.cfi_startproc
	.issue_mode dual
# BB#0:                                 # %allocas
	{
		nop
		dualentsp 4
	}
.Ltmp248:
	.cfi_def_cfa_offset 16
.Ltmp249:
	.cfi_offset 15, 0
	{
		nop
		stw r4, sp[2]
	}
.Ltmp250:
	.cfi_offset 4, -8
	#DEBUG_VALUE: _i.spi_slave_callback_if._chan_yield.master_ends_transaction:s <- R0
	{
		getr r4, 2
		ldw r1, r0[0]
	}
	{
		setd res[r4], r1
		nop
	}
	{
		out res[r4], r4
		nop
	}
	{
		outct res[r4], 2
		ldw r2, r0[1]
	}
	{
		ldc r1, 0
		mov r0, r4
	}
	bl __interface_client_call_y
	{
		chkct res[r4], 1
		nop
	}
	{
		freer res[r4]
		ldw r4, sp[2]
	}
	{
		nop
		retsp 4
	}
	# RETURN_REG_HOLDER
	.cc_bottom _i.spi_slave_callback_if._chan_yield.master_ends_transaction.function
	.set	_i.spi_slave_callback_if._chan_yield.master_ends_transaction.nstackwords,((_i.spi_slave_callback_if._client_call_y.max.nstackwords $M ($D __interface_client_call_y.nstackwords ? __interface_client_call_y.nstackwords $: _i.spi_slave_callback_if._client_call_y.max.nstackwords)) + 4)
	.globl	_i.spi_slave_callback_if._chan_yield.master_ends_transaction.nstackwords
	.weak	_i.spi_slave_callback_if._chan_yield.master_ends_transaction.nstackwords
	.set	_i.spi_slave_callback_if._chan_yield.master_ends_transaction.maxcores,($D __interface_client_call_y.maxcores ? __interface_client_call_y.maxcores $: _i.spi_slave_callback_if._client_call_y.max.maxcores) $M 1
	.globl	_i.spi_slave_callback_if._chan_yield.master_ends_transaction.maxcores
	.weak	_i.spi_slave_callback_if._chan_yield.master_ends_transaction.maxcores
	.set	_i.spi_slave_callback_if._chan_yield.master_ends_transaction.maxtimers,($D __interface_client_call_y.maxtimers ? __interface_client_call_y.maxtimers $: _i.spi_slave_callback_if._client_call_y.max.maxtimers) $M 0
	.globl	_i.spi_slave_callback_if._chan_yield.master_ends_transaction.maxtimers
	.weak	_i.spi_slave_callback_if._chan_yield.master_ends_transaction.maxtimers
	.set	_i.spi_slave_callback_if._chan_yield.master_ends_transaction.maxchanends,(1 + ($D __interface_client_call_y.maxchanends ? __interface_client_call_y.maxchanends $: _i.spi_slave_callback_if._client_call_y.max.maxchanends)) $M 1
	.globl	_i.spi_slave_callback_if._chan_yield.master_ends_transaction.maxchanends
	.weak	_i.spi_slave_callback_if._chan_yield.master_ends_transaction.maxchanends
.Ltmp251:
	.size	_i.spi_slave_callback_if._chan_yield.master_ends_transaction, .Ltmp251-_i.spi_slave_callback_if._chan_yield.master_ends_transaction
	.cfi_endproc

	.section	.cp.rodata.cst4,"aMc",@progbits,4
	.cc_top .LCPI32_0.data,.LCPI32_0
	.align	4
	.type	.LCPI32_0,@object
	.size	.LCPI32_0, 4
.LCPI32_0:
	.long	2863311530              # 0xaaaaaaaa
	.cc_bottom .LCPI32_0.data
	.cc_top .LCPI32_1.data,.LCPI32_1
	.align	4
	.type	.LCPI32_1,@object
	.size	.LCPI32_1, 4
.LCPI32_1:
	.long	4294901760              # 0xffff0000
	.cc_bottom .LCPI32_1.data
	.text
	.globl	spi_master_async
	.align	4
	.type	spi_master_async,@function
	.cc_top spi_master_async.function,spi_master_async
spi_master_async:                       # @spi_master_async
.Lfunc_begin32:
	.loc	1 154 0                 # C:/Users/user/workspace/lib_spi/src/spi_async.xc:154:0
	.cfi_startproc
	.issue_mode dual
# BB#0:                                 # %body1
.Lxtalabel34:
	DUALENTSP_lu6 142
.Ltmp252:
	.cfi_def_cfa_offset 568
.Ltmp253:
	.cfi_offset 15, 0
	stw r4, sp[134]                 # 4-byte Folded Spill
	stw r5, sp[135]                 # 4-byte Folded Spill
.Ltmp254:
	.cfi_offset 4, -32
.Ltmp255:
	.cfi_offset 5, -28
	stw r6, sp[136]                 # 4-byte Folded Spill
	stw r7, sp[137]                 # 4-byte Folded Spill
.Ltmp256:
	.cfi_offset 6, -24
.Ltmp257:
	.cfi_offset 7, -20
	stw r8, sp[138]                 # 4-byte Folded Spill
	stw r9, sp[139]                 # 4-byte Folded Spill
.Ltmp258:
	.cfi_offset 8, -16
.Ltmp259:
	.cfi_offset 9, -12
	stw r10, sp[140]                # 4-byte Folded Spill
.Ltmp260:
	.cfi_offset 10, -8
	#DEBUG_VALUE: spi_master_async:i <- R0
	#DEBUG_VALUE: spi_master_async:num_clients <- R1
	#DEBUG_VALUE: spi_master_async:sclk <- R2
	#DEBUG_VALUE: spi_master_async:mosi <- R3
	{
		nop
		stw r3, sp[26]
	}
.Ltmp261:
	#DEBUG_VALUE: spi_master_async:mosi <- [SP+104]
	#DEBUG_VALUE: spi_master_async:sclk <- [SP+112]
	#DEBUG_VALUE: spi_master_async:num_clients <- R6
	{
		mov r6, r1
		stw r2, sp[28]
	}
.Ltmp262:
	{
		mov r7, r0
		nop
	}
.Ltmp263:
	#DEBUG_VALUE: spi_master_async:i <- R7
	ldw r8, sp[146]
	ldw r0, sp[147]
	#DEBUG_VALUE: spi_master_async:cb1 <- [SP+56]
	#DEBUG_VALUE: spi_master_async:cb0 <- R8
	{
		nop
		stw r0, sp[14]
	}
	ldw r4, sp[144]
	ldw r5, sp[145]
	#DEBUG_VALUE: spi_master_async:miso <- undef
	#DEBUG_VALUE: spi_master_async:num_slaves <- R5
	#DEBUG_VALUE: spi_master_async:p_ss <- R4
	.loc	1 157 0 prologue_end    # C:/Users/user/workspace/lib_spi/src/spi_async.xc:157:0
.Ltmp264:
	ldaw r0, sp[128]
	{
		ldc r9, 0
		ldc r10, 24
	}
	.loc	1 157 0                 # C:/Users/user/workspace/lib_spi/src/spi_async.xc:157:0
	{
		mov r1, r9
		mov r2, r10
	}
	bl memset
	.loc	1 157 0                 # C:/Users/user/workspace/lib_spi/src/spi_async.xc:157:0
	ldaw r0, sp[116]
	.loc	1 157 0                 # C:/Users/user/workspace/lib_spi/src/spi_async.xc:157:0
	{
		mov r1, r9
		mov r2, r10
	}
	bl memset
	.loc	1 157 0                 # C:/Users/user/workspace/lib_spi/src/spi_async.xc:157:0
	ldaw r0, sp[104]
	.loc	1 157 0                 # C:/Users/user/workspace/lib_spi/src/spi_async.xc:157:0
	{
		mov r1, r9
		mov r2, r10
	}
	bl memset
	.loc	1 157 0                 # C:/Users/user/workspace/lib_spi/src/spi_async.xc:157:0
	ldaw r0, sp[92]
	.loc	1 157 0                 # C:/Users/user/workspace/lib_spi/src/spi_async.xc:157:0
	{
		mov r1, r9
		mov r2, r10
	}
	bl memset
	.loc	1 157 0                 # C:/Users/user/workspace/lib_spi/src/spi_async.xc:157:0
	ldaw r0, sp[80]
	.loc	1 157 0                 # C:/Users/user/workspace/lib_spi/src/spi_async.xc:157:0
	{
		mov r1, r9
		mov r2, r10
	}
	bl memset
	.loc	1 157 0                 # C:/Users/user/workspace/lib_spi/src/spi_async.xc:157:0
	ldaw r0, sp[68]
	.loc	1 157 0                 # C:/Users/user/workspace/lib_spi/src/spi_async.xc:157:0
	{
		mov r1, r9
		mov r2, r10
	}
	bl memset
	.loc	1 157 0                 # C:/Users/user/workspace/lib_spi/src/spi_async.xc:157:0
	{
		ldaw r0, sp[56]
		mov r1, r9
	}
	.loc	1 157 0                 # C:/Users/user/workspace/lib_spi/src/spi_async.xc:157:0
	{
		mov r2, r10
		nop
	}
	bl memset
	.loc	1 157 0                 # C:/Users/user/workspace/lib_spi/src/spi_async.xc:157:0
	{
		ldaw r0, sp[44]
		mov r1, r9
	}
	.loc	1 157 0                 # C:/Users/user/workspace/lib_spi/src/spi_async.xc:157:0
	{
		mov r2, r10
		nop
	}
	bl memset
.Ltmp265:
	#DEBUG_VALUE: i <- 0
	#DEBUG_VALUE: currently_performing_a_transaction <- 0
	#DEBUG_VALUE: tr_fill <- 0
	#DEBUG_VALUE: tr_tail <- 0
	bf r5, .LBB32_3
.Ltmp266:
# BB#1:
	#DEBUG_VALUE: spi_master_async:i <- R7
	#DEBUG_VALUE: spi_master_async:num_clients <- R6
	#DEBUG_VALUE: spi_master_async:sclk <- [SP+112]
	#DEBUG_VALUE: spi_master_async:mosi <- [SP+104]
	#DEBUG_VALUE: spi_master_async:cb0 <- R8
	#DEBUG_VALUE: spi_master_async:cb1 <- [SP+56]
	#DEBUG_VALUE: spi_master_async:p_ss <- R4
	#DEBUG_VALUE: spi_master_async:num_slaves <- R5
	#DEBUG_VALUE: spi_master_async:miso <- undef
	{
		mkmsk r0, 1
		nop
	}
.Ltmp267:
.LBB32_2:                               # %afterboundcheck
                                        # =>This Inner Loop Header: Depth=1
.Lxtalabel35:
	#DEBUG_VALUE: spi_master_async:i <- R7
	#DEBUG_VALUE: spi_master_async:num_clients <- R6
	#DEBUG_VALUE: spi_master_async:sclk <- [SP+112]
	#DEBUG_VALUE: spi_master_async:mosi <- [SP+104]
	#DEBUG_VALUE: spi_master_async:cb0 <- R8
	#DEBUG_VALUE: spi_master_async:cb1 <- [SP+56]
	#DEBUG_VALUE: spi_master_async:p_ss <- R4
	#DEBUG_VALUE: spi_master_async:num_slaves <- R5
	#DEBUG_VALUE: spi_master_async:miso <- undef
	{
		nop
		ldw r1, r4[r9]
	}
.Ltmp268:
	#DEBUG_VALUE: i <- R9
	.loc	1 175 21                # C:/Users/user/workspace/lib_spi/src/spi_async.xc:175:21
.Lxta.endpoint_labels4:
	{
		out res[r1], r0
		add r9, r9, 1
	}
.Ltmp269:
	.loc	1 174 0                 # C:/Users/user/workspace/lib_spi/src/spi_async.xc:174:0
	{
		lsu r1, r9, r5
		nop
	}
.Lxta.loop_labels2:
	# LOOPMARKER 0
	bt r1, .LBB32_2
.Ltmp270:
.LBB32_3:                               # %ifdone
.Lxtalabel36:
	#DEBUG_VALUE: spi_master_async:i <- R7
	#DEBUG_VALUE: spi_master_async:num_clients <- R6
	#DEBUG_VALUE: spi_master_async:sclk <- [SP+112]
	#DEBUG_VALUE: spi_master_async:mosi <- [SP+104]
	#DEBUG_VALUE: spi_master_async:cb0 <- R8
	#DEBUG_VALUE: spi_master_async:cb1 <- [SP+56]
	#DEBUG_VALUE: spi_master_async:p_ss <- R4
	#DEBUG_VALUE: spi_master_async:num_slaves <- R5
	#DEBUG_VALUE: spi_master_async:miso <- undef
	#DEBUG_VALUE: tr_tail <- 0
	#DEBUG_VALUE: tr_fill <- 0
	#DEBUG_VALUE: currently_performing_a_transaction <- 0
	{
		nop
		stw r5, sp[21]
	}
.Ltmp271:
	#DEBUG_VALUE: spi_master_async:num_slaves <- [SP+84]
	#DEBUG_VALUE: spi_master_async:p_ss <- [SP+88]
	{
		setc res[r8], 7
		stw r4, sp[22]
	}
	{
		mkmsk r10, 1
		mov r0, r8
	}
	.loc	1 179 0                 # C:/Users/user/workspace/lib_spi/src/spi_async.xc:179:0
	{
		mov r1, r10
		nop
	}
.Lxta.call_labels7:
	bl configure_clock_ref
.Ltmp272:
	#DEBUG_VALUE: spi_master_async:sclk <- R5
	{
		ldc r2, 0
		ldw r5, sp[28]
	}
.Ltmp273:
	.loc	1 180 0                 # C:/Users/user/workspace/lib_spi/src/spi_async.xc:180:0
	{
		mov r0, r5
		mov r1, r8
	}
.Lxta.call_labels8:
	bl configure_out_port
	{
		nop
		ldw r0, sp[14]
	}
.Ltmp274:
	#DEBUG_VALUE: spi_master_async:cb1 <- R0
	#DEBUG_VALUE: spi_master_async:sclk <- [SP+112]
	.loc	1 182 0                 # C:/Users/user/workspace/lib_spi/src/spi_async.xc:182:0
	{
		setc res[r0], 7
		mov r1, r5
	}
	{
		mov r4, r0
		nop
	}
.Ltmp275:
	#DEBUG_VALUE: spi_master_async:cb1 <- R4
	.loc	1 183 0                 # C:/Users/user/workspace/lib_spi/src/spi_async.xc:183:0
.Lxta.call_labels9:
	bl configure_clock_src
	ldw r5, sp[143]
.Ltmp276:
	#DEBUG_VALUE: spi_master_async:miso <- R5
	.loc	1 184 0                 # C:/Users/user/workspace/lib_spi/src/spi_async.xc:184:0
	setc res[r5], 16391
	.loc	1 185 0                 # C:/Users/user/workspace/lib_spi/src/spi_async.xc:185:0
	{
		mov r0, r5
		mov r1, r4
	}
.Lxta.call_labels10:
	bl configure_in_port
	{
		nop
		ldw r9, sp[26]
	}
.Ltmp277:
	#DEBUG_VALUE: spi_master_async:mosi <- R9
	.loc	1 186 5                 # C:/Users/user/workspace/lib_spi/src/spi_async.xc:186:5
	bf r9, .LBB32_5
.Ltmp278:
# BB#4:                                 # %afternullcheck
.Lxtalabel37:
	#DEBUG_VALUE: spi_master_async:i <- R7
	#DEBUG_VALUE: spi_master_async:num_clients <- R6
	#DEBUG_VALUE: spi_master_async:sclk <- [SP+112]
	#DEBUG_VALUE: spi_master_async:mosi <- R9
	#DEBUG_VALUE: spi_master_async:cb0 <- R8
	#DEBUG_VALUE: spi_master_async:cb1 <- R4
	#DEBUG_VALUE: spi_master_async:p_ss <- [SP+88]
	#DEBUG_VALUE: spi_master_async:num_slaves <- [SP+84]
	#DEBUG_VALUE: spi_master_async:miso <- R5
	#DEBUG_VALUE: tr_tail <- 0
	#DEBUG_VALUE: tr_fill <- 0
	#DEBUG_VALUE: currently_performing_a_transaction <- 0
	{
		ldc r2, 0
		mov r0, r9
	}
	.loc	1 187 0                 # C:/Users/user/workspace/lib_spi/src/spi_async.xc:187:0
	{
		mov r1, r4
		nop
	}
.Lxta.call_labels11:
	bl configure_out_port
	.loc	1 188 0                 # C:/Users/user/workspace/lib_spi/src/spi_async.xc:188:0
	{
		setc res[r4], 15
		nop
	}
.Ltmp279:
	#DEBUG_VALUE: spi_master_async:cb1 <- [SP+56]
	#DEBUG_VALUE: spi_master_async:cb0 <- [SP+52]
	.loc	1 190 0                 # C:/Users/user/workspace/lib_spi/src/spi_async.xc:190:0
	{
		setc res[r8], 15
		stw r8, sp[13]
	}
	{
		mkmsk r0, 32
		nop
	}
	.loc	1 193 27                # C:/Users/user/workspace/lib_spi/src/spi_async.xc:193:27
.Lxta.endpoint_labels5:
	{
		out res[r9], r0
		nop
	}
	bu .LBB32_6
.Ltmp280:
.LBB32_5:                               # %ifdone74.critedge
	#DEBUG_VALUE: spi_master_async:i <- R7
	#DEBUG_VALUE: spi_master_async:num_clients <- R6
	#DEBUG_VALUE: spi_master_async:sclk <- [SP+112]
	#DEBUG_VALUE: spi_master_async:mosi <- R9
	#DEBUG_VALUE: spi_master_async:mosi <- [SP+104]
	#DEBUG_VALUE: spi_master_async:cb0 <- R8
	#DEBUG_VALUE: spi_master_async:cb1 <- R4
	#DEBUG_VALUE: spi_master_async:p_ss <- [SP+88]
	#DEBUG_VALUE: spi_master_async:num_slaves <- [SP+84]
	#DEBUG_VALUE: spi_master_async:miso <- R5
	#DEBUG_VALUE: tr_tail <- 0
	#DEBUG_VALUE: tr_fill <- 0
	#DEBUG_VALUE: currently_performing_a_transaction <- 0
	.loc	1 188 0                 # C:/Users/user/workspace/lib_spi/src/spi_async.xc:188:0
	{
		setc res[r4], 15
		nop
	}
.Ltmp281:
	#DEBUG_VALUE: spi_master_async:cb1 <- [SP+56]
	.loc	1 190 0                 # C:/Users/user/workspace/lib_spi/src/spi_async.xc:190:0
	{
		setc res[r8], 15
		stw r8, sp[13]
	}
.Ltmp282:
.LBB32_6:                               # %ifdone74
.Lxtalabel38:
	#DEBUG_VALUE: spi_master_async:cb0 <- [SP+52]
	#DEBUG_VALUE: spi_master_async:i <- R7
	#DEBUG_VALUE: spi_master_async:num_clients <- R6
	#DEBUG_VALUE: spi_master_async:sclk <- [SP+112]
	#DEBUG_VALUE: spi_master_async:mosi <- [SP+104]
	#DEBUG_VALUE: spi_master_async:cb0 <- [SP+52]
	#DEBUG_VALUE: spi_master_async:cb1 <- [SP+56]
	#DEBUG_VALUE: spi_master_async:p_ss <- [SP+88]
	#DEBUG_VALUE: spi_master_async:num_slaves <- [SP+84]
	#DEBUG_VALUE: spi_master_async:miso <- R5
	#DEBUG_VALUE: tr_tail <- 0
	#DEBUG_VALUE: tr_fill <- 0
	#DEBUG_VALUE: currently_performing_a_transaction <- 0
	{
		setc res[r5], 23
		ldc r4, 0
	}
	{
		nop
		stw r4, sp[16]
	}
                                        # implicit-def: R0
	{
		nop
		stw r0, sp[24]
	}
                                        # implicit-def: R0
	{
		nop
		stw r0, sp[27]
	}
                                        # implicit-def: R3
                                        # implicit-def: R0
	{
		nop
		stw r0, sp[33]
	}
                                        # implicit-def: R0
	{
		nop
		stw r0, sp[11]
	}
                                        # implicit-def: R0
	{
		nop
		stw r0, sp[29]
	}
                                        # implicit-def: R0
	{
		nop
		stw r0, sp[10]
	}
	{
		nop
		stw r4, sp[35]
	}
	{
		nop
		stw r4, sp[34]
	}
	{
		nop
		stw r4, sp[36]
	}
	{
		nop
		stw r4, sp[32]
	}
	{
		nop
		stw r4, sp[31]
	}
	{
		nop
		stw r4, sp[30]
	}
	{
		nop
		stw r4, sp[23]
	}
	{
		nop
		stw r4, sp[17]
	}
	bu .LBB32_7
.Ltmp283:
.LBB32_13:                              # %afternotifycheck
                                        #   in Loop: Header=BB32_7 Depth=1
	#DEBUG_VALUE: spi_master_async:i <- R7
	#DEBUG_VALUE: spi_master_async:num_clients <- R6
	#DEBUG_VALUE: spi_master_async:sclk <- [SP+112]
	#DEBUG_VALUE: spi_master_async:mosi <- [SP+104]
	#DEBUG_VALUE: spi_master_async:cb0 <- [SP+52]
	#DEBUG_VALUE: spi_master_async:cb1 <- [SP+56]
	#DEBUG_VALUE: spi_master_async:p_ss <- [SP+88]
	#DEBUG_VALUE: spi_master_async:num_slaves <- [SP+84]
	#DEBUG_VALUE: spi_master_async:miso <- R5
	{
		nop
		stw r10, r8[4]
	}
	{
		nop
		ldw r0, r7[r9]
	}
	{
		nop
		ldw r0, r0[0]
	}
	{
		in r1, res[r0]
		nop
	}
.Ltmp284:
	#DEBUG_VALUE: outbuf <- R0
	#DEBUG_VALUE: inbuf <- R1
	{
		in r0, res[r0]
		ldw r2, sp[35]
	}
.Ltmp285:
	{
		nop
		stw r2, r1[0]
	}
	{
		nop
		ldw r2, sp[34]
	}
	{
		nop
		stw r2, r1[1]
	}
	{
		nop
		ldw r2, sp[36]
	}
	{
		nop
		stw r2, r1[2]
	}
	{
		nop
		ldw r1, sp[32]
	}
.Ltmp286:
	{
		nop
		stw r1, r0[0]
	}
	{
		nop
		ldw r1, sp[31]
	}
	{
		nop
		stw r1, r0[1]
	}
	{
		nop
		ldw r1, sp[30]
	}
	{
		nop
		stw r1, r0[2]
	}
	{
		nop
		ldw r0, r7[r9]
	}
	{
		nop
		ldw r0, r0[0]
	}
	{
		out res[r0], r4
		nop
	}
	{
		outct res[r0], 1
		stw r4, sp[35]
	}
	{
		nop
		stw r4, sp[34]
	}
	{
		nop
		stw r4, sp[36]
	}
	{
		nop
		stw r4, sp[32]
	}
	{
		nop
		stw r4, sp[31]
	}
	{
		nop
		stw r4, sp[30]
	}
.Ltmp287:
.LBB32_7:                               # %LoopBody86
                                        # =>This Loop Header: Depth=1
                                        #     Child Loop BB32_11 Depth 2
                                        #     Child Loop BB32_26 Depth 2
                                        #     Child Loop BB32_43 Depth 2
.Lxtalabel39:
	#DEBUG_VALUE: spi_master_async:i <- R7
	#DEBUG_VALUE: spi_master_async:num_clients <- R6
	#DEBUG_VALUE: spi_master_async:sclk <- [SP+112]
	#DEBUG_VALUE: spi_master_async:mosi <- [SP+104]
	#DEBUG_VALUE: spi_master_async:cb0 <- [SP+52]
	#DEBUG_VALUE: spi_master_async:cb1 <- [SP+56]
	#DEBUG_VALUE: spi_master_async:p_ss <- [SP+88]
	#DEBUG_VALUE: spi_master_async:num_slaves <- [SP+84]
	#DEBUG_VALUE: spi_master_async:miso <- R5
	#DEBUG_VALUE: tr_tail <- 0
	#DEBUG_VALUE: tr_fill <- 0
	#DEBUG_VALUE: currently_performing_a_transaction <- 0
	#DEBUG_VALUE: x <- 0
	.loc	1 198 9                 # C:/Users/user/workspace/lib_spi/src/spi_async.xc:198:9
	{
		clre
		mov r0, r4
	}
	bf r6, .LBB32_8
.Ltmp288:
.LBB32_11:                              # %selectguardtrue
                                        #   Parent Loop BB32_7 Depth=1
                                        # =>  This Inner Loop Header: Depth=2
	#DEBUG_VALUE: spi_master_async:i <- R7
	#DEBUG_VALUE: spi_master_async:num_clients <- R6
	#DEBUG_VALUE: spi_master_async:sclk <- [SP+112]
	#DEBUG_VALUE: spi_master_async:mosi <- [SP+104]
	#DEBUG_VALUE: spi_master_async:cb0 <- [SP+52]
	#DEBUG_VALUE: spi_master_async:cb1 <- [SP+56]
	#DEBUG_VALUE: spi_master_async:p_ss <- [SP+88]
	#DEBUG_VALUE: spi_master_async:num_slaves <- [SP+84]
	#DEBUG_VALUE: spi_master_async:miso <- R5
	#DEBUG_VALUE: tr_tail <- 0
	#DEBUG_VALUE: tr_fill <- 0
	#DEBUG_VALUE: currently_performing_a_transaction <- 0
	#DEBUG_VALUE: x <- 0
	{
		nop
		ldw r1, r7[r0]
	}
	{
		nop
		ldw r1, r1[0]
	}
	ldap r11, .Ltmp289
	.loc	1 200 0                 # C:/Users/user/workspace/lib_spi/src/spi_async.xc:200:0
.Ltmp290:
	{
		setv res[r1], r11
		mov r11, r0
	}
	.loc	1 200 0                 # C:/Users/user/workspace/lib_spi/src/spi_async.xc:200:0
	{
		setev res[r1], r11
		nop
	}
.Ltmp291:
	#DEBUG_VALUE: x <- R0
	.loc	1 200 0                 # C:/Users/user/workspace/lib_spi/src/spi_async.xc:200:0
	{
		eeu res[r1]
		add r0, r0, 1
	}
.Ltmp292:
	.loc	1 200 0                 # C:/Users/user/workspace/lib_spi/src/spi_async.xc:200:0
	{
		eq r1, r6, r0
		nop
	}
	bf r1, .LBB32_11
.Ltmp293:
.LBB32_8:                               # %iteratordone
                                        #   in Loop: Header=BB32_7 Depth=1
	#DEBUG_VALUE: spi_master_async:i <- R7
	#DEBUG_VALUE: spi_master_async:num_clients <- R6
	#DEBUG_VALUE: spi_master_async:sclk <- [SP+112]
	#DEBUG_VALUE: spi_master_async:mosi <- [SP+104]
	#DEBUG_VALUE: spi_master_async:cb0 <- [SP+52]
	#DEBUG_VALUE: spi_master_async:cb1 <- [SP+56]
	#DEBUG_VALUE: spi_master_async:p_ss <- [SP+88]
	#DEBUG_VALUE: spi_master_async:num_slaves <- [SP+84]
	#DEBUG_VALUE: spi_master_async:miso <- R5
	#DEBUG_VALUE: tr_tail <- 0
	#DEBUG_VALUE: tr_fill <- 0
	#DEBUG_VALUE: currently_performing_a_transaction <- 0
	#DEBUG_VALUE: x <- 0
	.loc	1 200 0                 # C:/Users/user/workspace/lib_spi/src/spi_async.xc:200:0
	{
		setc res[r5], 1
		nop
	}
	ldap r11, .Ltmp294
	.loc	1 200 0                 # C:/Users/user/workspace/lib_spi/src/spi_async.xc:200:0
	{
		setv res[r5], r11
		nop
	}
	.loc	1 200 0                 # C:/Users/user/workspace/lib_spi/src/spi_async.xc:200:0
	{
		eeu res[r5]
		nop
	}
.Ltmp295:
	.loc	1 376 0                 # C:/Users/user/workspace/lib_spi/src/spi_async.xc:376:0

	.xtabranch .LBB32_9, .LBB32_65
	{
		waiteu
		nop
	}
.Ltmp296:
.Ltmp289:                               # Block address taken
.LBB32_9:                               # %selectcase
                                        #   in Loop: Header=BB32_7 Depth=1
.Lxtalabel40:
	#DEBUG_VALUE: spi_master_async:i <- R7
	#DEBUG_VALUE: spi_master_async:num_clients <- R6
	#DEBUG_VALUE: spi_master_async:sclk <- [SP+112]
	#DEBUG_VALUE: spi_master_async:mosi <- [SP+104]
	#DEBUG_VALUE: spi_master_async:cb0 <- [SP+52]
	#DEBUG_VALUE: spi_master_async:cb1 <- [SP+56]
	#DEBUG_VALUE: spi_master_async:p_ss <- [SP+88]
	#DEBUG_VALUE: spi_master_async:num_slaves <- [SP+84]
	#DEBUG_VALUE: spi_master_async:miso <- R5
	#DEBUG_VALUE: tr_tail <- 0
	#DEBUG_VALUE: tr_fill <- 0
	#DEBUG_VALUE: currently_performing_a_transaction <- 0
	.loc	1 200 0                 # C:/Users/user/workspace/lib_spi/src/spi_async.xc:200:0
	{
		get r11, ed
		nop
	}
	{
		mov r9, r11
		nop
	}
	.loc	1 200 0                 # C:/Users/user/workspace/lib_spi/src/spi_async.xc:200:0
	{
		zext r9, 16
		nop
	}
.Ltmp297:
	#DEBUG_VALUE: active_client <- R9
	#DEBUG_VALUE: x <- R9
	{
		nop
		ldw r8, r7[r9]
	}
	{
		nop
		ldw r0, r8[0]
	}
	{
		in r2, res[r0]
		nop
	}
	ldc r1, 254
	{
		add r1, r2, r1
		nop
	}
	{
		zext r1, 8
		nop
	}
	{
		sub r2, r2, r1
		nop
	}
	{
		setd res[r0], r2
		ldc r2, 4
	}
	{
		lsu r2, r2, r1
		nop
	}
	bf r2, .LBB32_10
.Ltmp298:
# BB#12:                                # %switchcase
                                        #   in Loop: Header=BB32_7 Depth=1
	#DEBUG_VALUE: spi_master_async:i <- R7
	#DEBUG_VALUE: spi_master_async:num_clients <- R6
	#DEBUG_VALUE: spi_master_async:sclk <- [SP+112]
	#DEBUG_VALUE: spi_master_async:mosi <- [SP+104]
	#DEBUG_VALUE: spi_master_async:cb0 <- [SP+52]
	#DEBUG_VALUE: spi_master_async:cb1 <- [SP+56]
	#DEBUG_VALUE: spi_master_async:p_ss <- [SP+88]
	#DEBUG_VALUE: spi_master_async:num_slaves <- [SP+84]
	#DEBUG_VALUE: spi_master_async:miso <- R5
	{
		outct res[r0], 1
		nop
	}
	{
		in r0, res[r0]
		ldw r1, r8[4]
	}
	{
		eq r0, r1, r0
		nop
	}
	bt r0, .LBB32_13
.Ltmp299:
# BB#14:                                # %refillchan
                                        #   in Loop: Header=BB32_7 Depth=1
	#DEBUG_VALUE: spi_master_async:i <- R7
	#DEBUG_VALUE: spi_master_async:num_clients <- R6
	#DEBUG_VALUE: spi_master_async:sclk <- [SP+112]
	#DEBUG_VALUE: spi_master_async:mosi <- [SP+104]
	#DEBUG_VALUE: spi_master_async:cb0 <- [SP+52]
	#DEBUG_VALUE: spi_master_async:cb1 <- [SP+56]
	#DEBUG_VALUE: spi_master_async:p_ss <- [SP+88]
	#DEBUG_VALUE: spi_master_async:num_slaves <- [SP+84]
	#DEBUG_VALUE: spi_master_async:miso <- R5
	{
		nop
		ldw r0, r8[2]
	}
	{
		nop
		ldw r1, r8[3]
	}
	#APP
	getd r2, res[r0]
	#NO_APP
	bu .LBB32_15
.Ltmp300:
.Ltmp294:                               # Block address taken
.LBB32_65:                              # %selectcase95
                                        #   in Loop: Header=BB32_7 Depth=1
.Lxtalabel41:
	#DEBUG_VALUE: spi_master_async:i <- R7
	#DEBUG_VALUE: spi_master_async:num_clients <- R6
	#DEBUG_VALUE: spi_master_async:sclk <- [SP+112]
	#DEBUG_VALUE: spi_master_async:mosi <- [SP+104]
	#DEBUG_VALUE: spi_master_async:cb0 <- [SP+52]
	#DEBUG_VALUE: spi_master_async:cb1 <- [SP+56]
	#DEBUG_VALUE: spi_master_async:p_ss <- [SP+88]
	#DEBUG_VALUE: spi_master_async:num_slaves <- [SP+84]
	#DEBUG_VALUE: spi_master_async:miso <- R5
	#DEBUG_VALUE: tr_tail <- 0
	#DEBUG_VALUE: tr_fill <- 0
	#DEBUG_VALUE: currently_performing_a_transaction <- 0
	#DEBUG_VALUE: data <- R0
	.loc	1 354 0                 # C:/Users/user/workspace/lib_spi/src/spi_async.xc:354:0
.Lxta.endpoint_labels6:
	{
		in r0, res[r5]
		eq r1, r3, 8
	}
.Ltmp301:
	.loc	1 356 17                # C:/Users/user/workspace/lib_spi/src/spi_async.xc:356:17
	bf r1, .LBB32_69
.Ltmp302:
# BB#66:                                # %iftrue789
                                        #   in Loop: Header=BB32_7 Depth=1
.Lxtalabel42:
	#DEBUG_VALUE: spi_master_async:i <- R7
	#DEBUG_VALUE: spi_master_async:num_clients <- R6
	#DEBUG_VALUE: spi_master_async:sclk <- [SP+112]
	#DEBUG_VALUE: spi_master_async:mosi <- [SP+104]
	#DEBUG_VALUE: spi_master_async:cb0 <- [SP+52]
	#DEBUG_VALUE: spi_master_async:cb1 <- [SP+56]
	#DEBUG_VALUE: spi_master_async:p_ss <- [SP+88]
	#DEBUG_VALUE: spi_master_async:num_slaves <- [SP+84]
	#DEBUG_VALUE: spi_master_async:miso <- R5
	#DEBUG_VALUE: tr_tail <- 0
	#DEBUG_VALUE: tr_fill <- 0
	#DEBUG_VALUE: currently_performing_a_transaction <- 0
	{
		nop
		ldw r3, sp[33]
	}
	{
		nop
		ldw r1, sp[35]
	}
	.loc	1 358 0                 # C:/Users/user/workspace/lib_spi/src/spi_async.xc:358:0
	{
		add r1, r1, r3
		ldw r2, sp[34]
	}
	.loc	1 358 0                 # C:/Users/user/workspace/lib_spi/src/spi_async.xc:358:0
	{
		sub r2, r1, r2
		ldw r11, sp[36]
	}
	.loc	1 358 0                 # C:/Users/user/workspace/lib_spi/src/spi_async.xc:358:0
	{
		lsu r2, r2, r11
		nop
	}
.Ltrap_info16:
	{
		ecallf r2
		nop
	}
	#DEBUG_VALUE: spi_master_async:i <- R7
	#DEBUG_VALUE: spi_master_async:num_clients <- R6
	#DEBUG_VALUE: spi_master_async:sclk <- [SP+112]
	#DEBUG_VALUE: spi_master_async:mosi <- [SP+104]
	#DEBUG_VALUE: spi_master_async:cb0 <- [SP+52]
	#DEBUG_VALUE: spi_master_async:cb1 <- [SP+56]
	#DEBUG_VALUE: spi_master_async:p_ss <- [SP+88]
	#DEBUG_VALUE: spi_master_async:num_slaves <- [SP+84]
	#DEBUG_VALUE: spi_master_async:miso <- R5
	#DEBUG_VALUE: tr_tail <- 0
	#DEBUG_VALUE: tr_fill <- 0
	#DEBUG_VALUE: currently_performing_a_transaction <- 0
	.loc	1 357 0                 # C:/Users/user/workspace/lib_spi/src/spi_async.xc:357:0
	{
		shl r0, r0, 24
		nop
	}
	.loc	1 357 0                 # C:/Users/user/workspace/lib_spi/src/spi_async.xc:357:0
	{
		bitrev r0, r0
		nop
	}
.Ltmp303:
	#DEBUG_VALUE: data <- R0
	.loc	1 358 0                 # C:/Users/user/workspace/lib_spi/src/spi_async.xc:358:0
	st8 r0, r1[r4]
.Ltmp304:
	#DEBUG_VALUE: current_index <- R3
	.loc	1 359 0                 # C:/Users/user/workspace/lib_spi/src/spi_async.xc:359:0
	{
		add r3, r3, 1
		ldw r0, sp[29]
	}
.Ltmp305:
	.loc	1 360 21                # C:/Users/user/workspace/lib_spi/src/spi_async.xc:360:21
	{
		eq r0, r3, r0
		nop
	}
	.loc	1 360 21                # C:/Users/user/workspace/lib_spi/src/spi_async.xc:360:21
	bf r0, .LBB32_74
.Ltmp306:
# BB#67:                                # %iftrue811
                                        #   in Loop: Header=BB32_7 Depth=1
.Lxtalabel43:
	#DEBUG_VALUE: spi_master_async:i <- R7
	#DEBUG_VALUE: spi_master_async:num_clients <- R6
	#DEBUG_VALUE: spi_master_async:sclk <- [SP+112]
	#DEBUG_VALUE: spi_master_async:mosi <- [SP+104]
	#DEBUG_VALUE: spi_master_async:cb0 <- [SP+52]
	#DEBUG_VALUE: spi_master_async:cb1 <- [SP+56]
	#DEBUG_VALUE: spi_master_async:p_ss <- [SP+88]
	#DEBUG_VALUE: spi_master_async:num_slaves <- [SP+84]
	#DEBUG_VALUE: spi_master_async:miso <- R5
	#DEBUG_VALUE: tr_tail <- 0
	#DEBUG_VALUE: tr_fill <- 0
	#DEBUG_VALUE: currently_performing_a_transaction <- 0
	{
		nop
		ldw r1, sp[27]
	}
	.loc	1 361 0                 # C:/Users/user/workspace/lib_spi/src/spi_async.xc:361:0
	{
		lsu r0, r1, r6
		nop
	}
.Ltrap_info17:
	{
		ecallf r0
		nop
	}
	#DEBUG_VALUE: spi_master_async:i <- R7
	#DEBUG_VALUE: spi_master_async:num_clients <- R6
	#DEBUG_VALUE: spi_master_async:sclk <- [SP+112]
	#DEBUG_VALUE: spi_master_async:mosi <- [SP+104]
	#DEBUG_VALUE: spi_master_async:cb0 <- [SP+52]
	#DEBUG_VALUE: spi_master_async:cb1 <- [SP+56]
	#DEBUG_VALUE: spi_master_async:p_ss <- [SP+88]
	#DEBUG_VALUE: spi_master_async:num_slaves <- [SP+84]
	#DEBUG_VALUE: spi_master_async:miso <- R5
	#DEBUG_VALUE: tr_tail <- 0
	#DEBUG_VALUE: tr_fill <- 0
	#DEBUG_VALUE: currently_performing_a_transaction <- 0
	{
		nop
		ldw r0, r7[r1]
	}
	.loc	1 361 0                 # C:/Users/user/workspace/lib_spi/src/spi_async.xc:361:0
	{
		ldc r2, 8
		ldw r1, r0[4]
	}
	{
		mov r3, r2
		ldw r2, sp[29]
	}
	{
		nop
		stw r2, sp[33]
	}
	bf r1, .LBB32_7
.Ltmp307:
# BB#68:                                # %sendNotify830
                                        #   in Loop: Header=BB32_7 Depth=1
	#DEBUG_VALUE: spi_master_async:i <- R7
	#DEBUG_VALUE: spi_master_async:num_clients <- R6
	#DEBUG_VALUE: spi_master_async:sclk <- [SP+112]
	#DEBUG_VALUE: spi_master_async:mosi <- [SP+104]
	#DEBUG_VALUE: spi_master_async:cb0 <- [SP+52]
	#DEBUG_VALUE: spi_master_async:cb1 <- [SP+56]
	#DEBUG_VALUE: spi_master_async:p_ss <- [SP+88]
	#DEBUG_VALUE: spi_master_async:num_slaves <- [SP+84]
	#DEBUG_VALUE: spi_master_async:miso <- R5
	#DEBUG_VALUE: tr_tail <- 0
	#DEBUG_VALUE: tr_fill <- 0
	#DEBUG_VALUE: currently_performing_a_transaction <- 0
	{
		nop
		ldw r1, r0[2]
	}
	{
		nop
		ldw r2, r0[3]
	}
	.loc	1 361 0                 # C:/Users/user/workspace/lib_spi/src/spi_async.xc:361:0
	#APP
	getd r3, res[r1]
	#NO_APP
	.loc	1 361 0                 # C:/Users/user/workspace/lib_spi/src/spi_async.xc:361:0
	{
		setd res[r1], r2
		nop
	}
	.loc	1 361 0                 # C:/Users/user/workspace/lib_spi/src/spi_async.xc:361:0
	{
		outct res[r1], 1
		nop
	}
	.loc	1 361 0                 # C:/Users/user/workspace/lib_spi/src/spi_async.xc:361:0
	{
		setd res[r1], r3
		stw r4, r0[4]
	}
	{
		ldc r0, 8
		nop
	}
	{
		mov r3, r0
		ldw r0, sp[29]
	}
	{
		nop
		stw r0, sp[33]
	}
	bu .LBB32_7
.Ltmp308:
.LBB32_10:                              # %selectcase
                                        #   in Loop: Header=BB32_7 Depth=1
.Lxtalabel44:
	#DEBUG_VALUE: spi_master_async:i <- R7
	#DEBUG_VALUE: spi_master_async:num_clients <- R6
	#DEBUG_VALUE: spi_master_async:sclk <- [SP+112]
	#DEBUG_VALUE: spi_master_async:mosi <- [SP+104]
	#DEBUG_VALUE: spi_master_async:cb0 <- [SP+52]
	#DEBUG_VALUE: spi_master_async:cb1 <- [SP+56]
	#DEBUG_VALUE: spi_master_async:p_ss <- [SP+88]
	#DEBUG_VALUE: spi_master_async:num_slaves <- [SP+84]
	#DEBUG_VALUE: spi_master_async:miso <- R5

	.xtabranch .Ljumptable1+4,.Ljumptable1+8,.Ljumptable1+12,.Ljumptable1+16,.Ljumptable1+20
.Ljumptable1:
		
	{
		nop
		bru r1
	}
	.jmptable32 .LBB32_61,.LBB32_33,.LBB32_35,.LBB32_18,.LBB32_16
.Ltmp309:
.LBB32_61:                              # %switchcase520
                                        #   in Loop: Header=BB32_7 Depth=1
	#DEBUG_VALUE: spi_master_async:i <- R7
	#DEBUG_VALUE: spi_master_async:num_clients <- R6
	#DEBUG_VALUE: spi_master_async:sclk <- [SP+112]
	#DEBUG_VALUE: spi_master_async:mosi <- [SP+104]
	#DEBUG_VALUE: spi_master_async:cb0 <- [SP+52]
	#DEBUG_VALUE: spi_master_async:cb1 <- [SP+56]
	#DEBUG_VALUE: spi_master_async:p_ss <- [SP+88]
	#DEBUG_VALUE: spi_master_async:num_slaves <- [SP+84]
	#DEBUG_VALUE: spi_master_async:miso <- R5
	#DEBUG_VALUE: spi_master_async:miso <- undef
	{
		outct res[r0], 1
		stw r3, sp[25]
	}
	{
		in r1, res[r0]
		nop
	}
.Ltmp310:
	#DEBUG_VALUE: device_index <- R1
	#DEBUG_VALUE: active_device <- R1
	{
		in r2, res[r0]
		nop
	}
.Ltmp311:
	#DEBUG_VALUE: speed_in_khz <- R2
	#DEBUG_VALUE: mode <- R5
	#DEBUG_VALUE: active_mode <- R5
	{
		in r5, res[r0]
		ldw r0, sp[16]
	}
.Ltmp312:
	.loc	1 204 17                # C:/Users/user/workspace/lib_spi/src/spi_async.xc:204:17
	bf r0, .LBB32_62
.Ltmp313:
# BB#63:                                # %iftrue716
                                        #   in Loop: Header=BB32_7 Depth=1
.Lxtalabel45:
	#DEBUG_VALUE: spi_master_async:i <- R7
	#DEBUG_VALUE: spi_master_async:num_clients <- R6
	#DEBUG_VALUE: spi_master_async:sclk <- [SP+112]
	#DEBUG_VALUE: spi_master_async:mosi <- [SP+104]
	#DEBUG_VALUE: spi_master_async:cb0 <- [SP+52]
	#DEBUG_VALUE: spi_master_async:cb1 <- [SP+56]
	#DEBUG_VALUE: spi_master_async:p_ss <- [SP+88]
	#DEBUG_VALUE: spi_master_async:num_slaves <- [SP+84]
	#DEBUG_VALUE: spi_master_async:miso <- undef
	#DEBUG_VALUE: active_device <- R1
	#DEBUG_VALUE: device_index <- R1
	#DEBUG_VALUE: speed_in_khz <- R2
	#DEBUG_VALUE: active_mode <- R5
	#DEBUG_VALUE: mode <- R5
	{
		nop
		ldw r0, sp[17]
	}
	{
		nop
		ldw r11, sp[23]
	}
	.loc	1 206 0                 # C:/Users/user/workspace/lib_spi/src/spi_async.xc:206:0
.Ltmp314:
	{
		add r0, r0, r11
		nop
	}
	.loc	1 206 0                 # C:/Users/user/workspace/lib_spi/src/spi_async.xc:206:0
	remu r0, r0, r6
.Ltmp315:
	#DEBUG_VALUE: index <- R0
	{
		ldc r3, 8
		nop
	}
	.loc	1 207 0                 # C:/Users/user/workspace/lib_spi/src/spi_async.xc:207:0
	{
		lsu r3, r0, r3
		nop
	}
.Ltrap_info18:
	{
		ecallf r3
		nop
	}
	#DEBUG_VALUE: spi_master_async:i <- R7
	#DEBUG_VALUE: spi_master_async:num_clients <- R6
	#DEBUG_VALUE: spi_master_async:sclk <- [SP+112]
	#DEBUG_VALUE: spi_master_async:mosi <- [SP+104]
	#DEBUG_VALUE: spi_master_async:cb0 <- [SP+52]
	#DEBUG_VALUE: spi_master_async:cb1 <- [SP+56]
	#DEBUG_VALUE: spi_master_async:p_ss <- [SP+88]
	#DEBUG_VALUE: spi_master_async:num_slaves <- [SP+84]
	#DEBUG_VALUE: spi_master_async:miso <- undef
	#DEBUG_VALUE: active_device <- R1
	#DEBUG_VALUE: device_index <- R1
	#DEBUG_VALUE: speed_in_khz <- R2
	#DEBUG_VALUE: active_mode <- R5
	#DEBUG_VALUE: mode <- R5
	#DEBUG_VALUE: index <- R0
	{
		ldc r3, 48
		nop
	}
	.loc	1 207 0                 # C:/Users/user/workspace/lib_spi/src/spi_async.xc:207:0
	mul r0, r0, r3
.Ltmp316:
	{
		ldaw r3, sp[38]
		nop
	}
	{
		add r0, r3, r0
		nop
	}
	{
		nop
		stw r1, r0[1]
	}
	{
		nop
		stw r2, r0[2]
	}
	{
		nop
		stw r5, r0[3]
	}
	.loc	1 210 0                 # C:/Users/user/workspace/lib_spi/src/spi_async.xc:210:0
	{
		mkmsk r1, 32
		stw r9, r0[0]
	}
.Ltmp317:
	#DEBUG_VALUE: tr_fill <- R11
	.loc	1 211 0                 # C:/Users/user/workspace/lib_spi/src/spi_async.xc:211:0
	{
		add r11, r11, 1
		stw r1, r0[4]
	}
.Ltmp318:
	{
		nop
		stw r11, sp[23]
	}
.Ltmp319:
	#DEBUG_VALUE: tr_fill <- [SP+92]
	{
		nop
		ldw r0, r8[0]
	}
	{
		out res[r0], r4
		nop
	}
	{
		outct res[r0], 1
		nop
	}
	bu .LBB32_64
.Ltmp320:
.LBB32_69:                              # %iffalse795
                                        #   in Loop: Header=BB32_7 Depth=1
.Lxtalabel46:
	#DEBUG_VALUE: spi_master_async:i <- R7
	#DEBUG_VALUE: spi_master_async:num_clients <- R6
	#DEBUG_VALUE: spi_master_async:sclk <- [SP+112]
	#DEBUG_VALUE: spi_master_async:mosi <- [SP+104]
	#DEBUG_VALUE: spi_master_async:cb0 <- [SP+52]
	#DEBUG_VALUE: spi_master_async:cb1 <- [SP+56]
	#DEBUG_VALUE: spi_master_async:p_ss <- [SP+88]
	#DEBUG_VALUE: spi_master_async:num_slaves <- [SP+84]
	#DEBUG_VALUE: spi_master_async:miso <- R5
	#DEBUG_VALUE: tr_tail <- 0
	#DEBUG_VALUE: tr_fill <- 0
	#DEBUG_VALUE: currently_performing_a_transaction <- 0
	{
		mov r9, r3
		ldw r8, sp[33]
	}
	{
		nop
		ldw r1, sp[35]
	}
	.loc	1 368 0                 # C:/Users/user/workspace/lib_spi/src/spi_async.xc:368:0
	ldaw r1, r1[r8]
	{
		nop
		ldw r2, sp[34]
	}
	.loc	1 368 0                 # C:/Users/user/workspace/lib_spi/src/spi_async.xc:368:0
	{
		sub r2, r1, r2
		mkmsk r3, 2
	}
	{
		nop
		ldw r11, sp[36]
	}
	.loc	1 368 0                 # C:/Users/user/workspace/lib_spi/src/spi_async.xc:368:0
	{
		lsu r11, r11, r3
		mov r3, r4
	}
	bt r11, .LBB32_71
.Ltmp321:
# BB#70:                                # %iffalse795
                                        #   in Loop: Header=BB32_7 Depth=1
.Lxtalabel47:
	#DEBUG_VALUE: spi_master_async:i <- R7
	#DEBUG_VALUE: spi_master_async:num_clients <- R6
	#DEBUG_VALUE: spi_master_async:sclk <- [SP+112]
	#DEBUG_VALUE: spi_master_async:mosi <- [SP+104]
	#DEBUG_VALUE: spi_master_async:cb0 <- [SP+52]
	#DEBUG_VALUE: spi_master_async:cb1 <- [SP+56]
	#DEBUG_VALUE: spi_master_async:p_ss <- [SP+88]
	#DEBUG_VALUE: spi_master_async:num_slaves <- [SP+84]
	#DEBUG_VALUE: spi_master_async:miso <- R5
	#DEBUG_VALUE: tr_tail <- 0
	#DEBUG_VALUE: tr_fill <- 0
	#DEBUG_VALUE: currently_performing_a_transaction <- 0
	{
		nop
		ldw r3, sp[36]
	}
	.loc	1 368 0                 # C:/Users/user/workspace/lib_spi/src/spi_async.xc:368:0
	{
		sub r3, r3, 3
		nop
	}
.Ltmp322:
.LBB32_71:                              # %iffalse795
                                        #   in Loop: Header=BB32_7 Depth=1
.Lxtalabel48:
	#DEBUG_VALUE: spi_master_async:i <- R7
	#DEBUG_VALUE: spi_master_async:num_clients <- R6
	#DEBUG_VALUE: spi_master_async:sclk <- [SP+112]
	#DEBUG_VALUE: spi_master_async:mosi <- [SP+104]
	#DEBUG_VALUE: spi_master_async:cb0 <- [SP+52]
	#DEBUG_VALUE: spi_master_async:cb1 <- [SP+56]
	#DEBUG_VALUE: spi_master_async:p_ss <- [SP+88]
	#DEBUG_VALUE: spi_master_async:num_slaves <- [SP+84]
	#DEBUG_VALUE: spi_master_async:miso <- R5
	#DEBUG_VALUE: tr_tail <- 0
	#DEBUG_VALUE: tr_fill <- 0
	#DEBUG_VALUE: currently_performing_a_transaction <- 0
	.loc	1 368 0                 # C:/Users/user/workspace/lib_spi/src/spi_async.xc:368:0
	{
		lsu r2, r2, r3
		nop
	}
.Ltrap_info19:
	{
		ecallf r2
		nop
	}
	#DEBUG_VALUE: spi_master_async:i <- R7
	#DEBUG_VALUE: spi_master_async:num_clients <- R6
	#DEBUG_VALUE: spi_master_async:sclk <- [SP+112]
	#DEBUG_VALUE: spi_master_async:mosi <- [SP+104]
	#DEBUG_VALUE: spi_master_async:cb0 <- [SP+52]
	#DEBUG_VALUE: spi_master_async:cb1 <- [SP+56]
	#DEBUG_VALUE: spi_master_async:p_ss <- [SP+88]
	#DEBUG_VALUE: spi_master_async:num_slaves <- [SP+84]
	#DEBUG_VALUE: spi_master_async:miso <- R5
	#DEBUG_VALUE: tr_tail <- 0
	#DEBUG_VALUE: tr_fill <- 0
	#DEBUG_VALUE: currently_performing_a_transaction <- 0
	.loc	1 367 0                 # C:/Users/user/workspace/lib_spi/src/spi_async.xc:367:0
	{
		bitrev r0, r0
		nop
	}
.Ltmp323:
	#DEBUG_VALUE: data <- R0
	#DEBUG_VALUE: current_index <- R8
	.loc	1 368 0                 # C:/Users/user/workspace/lib_spi/src/spi_async.xc:368:0
	{
		add r8, r8, 1
		stw r0, r1[0]
	}
.Ltmp324:
	.loc	1 370 21                # C:/Users/user/workspace/lib_spi/src/spi_async.xc:370:21
	{
		shl r0, r8, 2
		ldw r1, sp[29]
	}
.Ltmp325:
	.loc	1 370 21                # C:/Users/user/workspace/lib_spi/src/spi_async.xc:370:21
	{
		eq r0, r0, r1
		nop
	}
	.loc	1 370 21                # C:/Users/user/workspace/lib_spi/src/spi_async.xc:370:21
	bf r0, .LBB32_77
.Ltmp326:
# BB#72:                                # %iftrue866
                                        #   in Loop: Header=BB32_7 Depth=1
.Lxtalabel49:
	#DEBUG_VALUE: spi_master_async:i <- R7
	#DEBUG_VALUE: spi_master_async:num_clients <- R6
	#DEBUG_VALUE: spi_master_async:sclk <- [SP+112]
	#DEBUG_VALUE: spi_master_async:mosi <- [SP+104]
	#DEBUG_VALUE: spi_master_async:cb0 <- [SP+52]
	#DEBUG_VALUE: spi_master_async:cb1 <- [SP+56]
	#DEBUG_VALUE: spi_master_async:p_ss <- [SP+88]
	#DEBUG_VALUE: spi_master_async:num_slaves <- [SP+84]
	#DEBUG_VALUE: spi_master_async:miso <- R5
	#DEBUG_VALUE: tr_tail <- 0
	#DEBUG_VALUE: tr_fill <- 0
	#DEBUG_VALUE: currently_performing_a_transaction <- 0
	#DEBUG_VALUE: current_index <- R8
	{
		nop
		ldw r1, sp[27]
	}
	.loc	1 371 0                 # C:/Users/user/workspace/lib_spi/src/spi_async.xc:371:0
	{
		lsu r0, r1, r6
		mov r3, r9
	}
.Ltrap_info20:
	{
		ecallf r0
		nop
	}
	#DEBUG_VALUE: spi_master_async:i <- R7
	#DEBUG_VALUE: spi_master_async:num_clients <- R6
	#DEBUG_VALUE: spi_master_async:sclk <- [SP+112]
	#DEBUG_VALUE: spi_master_async:mosi <- [SP+104]
	#DEBUG_VALUE: spi_master_async:cb0 <- [SP+52]
	#DEBUG_VALUE: spi_master_async:cb1 <- [SP+56]
	#DEBUG_VALUE: spi_master_async:p_ss <- [SP+88]
	#DEBUG_VALUE: spi_master_async:num_slaves <- [SP+84]
	#DEBUG_VALUE: spi_master_async:miso <- R5
	#DEBUG_VALUE: tr_tail <- 0
	#DEBUG_VALUE: tr_fill <- 0
	#DEBUG_VALUE: currently_performing_a_transaction <- 0
	#DEBUG_VALUE: current_index <- R8
	{
		nop
		stw r8, sp[33]
	}
.Ltmp327:
	#DEBUG_VALUE: current_index <- [SP+132]
	{
		nop
		ldw r0, r7[r1]
	}
	{
		nop
		ldw r1, r0[4]
	}
	bf r1, .LBB32_7
.Ltmp328:
# BB#73:                                # %sendNotify885
                                        #   in Loop: Header=BB32_7 Depth=1
	#DEBUG_VALUE: spi_master_async:i <- R7
	#DEBUG_VALUE: spi_master_async:num_clients <- R6
	#DEBUG_VALUE: spi_master_async:sclk <- [SP+112]
	#DEBUG_VALUE: spi_master_async:mosi <- [SP+104]
	#DEBUG_VALUE: spi_master_async:cb0 <- [SP+52]
	#DEBUG_VALUE: spi_master_async:cb1 <- [SP+56]
	#DEBUG_VALUE: spi_master_async:p_ss <- [SP+88]
	#DEBUG_VALUE: spi_master_async:num_slaves <- [SP+84]
	#DEBUG_VALUE: spi_master_async:miso <- R5
	#DEBUG_VALUE: tr_tail <- 0
	#DEBUG_VALUE: tr_fill <- 0
	#DEBUG_VALUE: currently_performing_a_transaction <- 0
	#DEBUG_VALUE: current_index <- [SP+132]
	{
		nop
		ldw r1, r0[2]
	}
	.loc	1 371 0                 # C:/Users/user/workspace/lib_spi/src/spi_async.xc:371:0
	{
		mov r11, r3
		ldw r2, r0[3]
	}
	.loc	1 371 0                 # C:/Users/user/workspace/lib_spi/src/spi_async.xc:371:0
	#APP
	getd r3, res[r1]
	#NO_APP
	.loc	1 371 0                 # C:/Users/user/workspace/lib_spi/src/spi_async.xc:371:0
	{
		setd res[r1], r2
		nop
	}
	.loc	1 371 0                 # C:/Users/user/workspace/lib_spi/src/spi_async.xc:371:0
	{
		outct res[r1], 1
		nop
	}
	.loc	1 371 0                 # C:/Users/user/workspace/lib_spi/src/spi_async.xc:371:0
	{
		setd res[r1], r3
		mov r3, r11
	}
	{
		nop
		stw r4, r0[4]
	}
	bu .LBB32_7
.Ltmp329:
.LBB32_74:                              # %iffalse819
                                        #   in Loop: Header=BB32_7 Depth=1
.Lxtalabel50:
	#DEBUG_VALUE: spi_master_async:i <- R7
	#DEBUG_VALUE: spi_master_async:num_clients <- R6
	#DEBUG_VALUE: spi_master_async:sclk <- [SP+112]
	#DEBUG_VALUE: spi_master_async:mosi <- [SP+104]
	#DEBUG_VALUE: spi_master_async:cb0 <- [SP+52]
	#DEBUG_VALUE: spi_master_async:cb1 <- [SP+56]
	#DEBUG_VALUE: spi_master_async:p_ss <- [SP+88]
	#DEBUG_VALUE: spi_master_async:num_slaves <- [SP+84]
	#DEBUG_VALUE: spi_master_async:miso <- R5
	#DEBUG_VALUE: tr_tail <- 0
	#DEBUG_VALUE: tr_fill <- 0
	#DEBUG_VALUE: currently_performing_a_transaction <- 0
	#DEBUG_VALUE: current_index <- R3
	{
		nop
		ldw r0, sp[32]
	}
	.loc	1 363 0                 # C:/Users/user/workspace/lib_spi/src/spi_async.xc:363:0
	{
		add r0, r0, r3
		ldw r1, sp[31]
	}
	.loc	1 363 0                 # C:/Users/user/workspace/lib_spi/src/spi_async.xc:363:0
	{
		sub r1, r0, r1
		ldw r2, sp[30]
	}
	.loc	1 363 0                 # C:/Users/user/workspace/lib_spi/src/spi_async.xc:363:0
	{
		lsu r1, r1, r2
		nop
	}
.Ltrap_info21:
	{
		ecallf r1
		nop
	}
	#DEBUG_VALUE: spi_master_async:i <- R7
	#DEBUG_VALUE: spi_master_async:num_clients <- R6
	#DEBUG_VALUE: spi_master_async:sclk <- [SP+112]
	#DEBUG_VALUE: spi_master_async:mosi <- [SP+104]
	#DEBUG_VALUE: spi_master_async:cb0 <- [SP+52]
	#DEBUG_VALUE: spi_master_async:cb1 <- [SP+56]
	#DEBUG_VALUE: spi_master_async:p_ss <- [SP+88]
	#DEBUG_VALUE: spi_master_async:num_slaves <- [SP+84]
	#DEBUG_VALUE: spi_master_async:miso <- R5
	#DEBUG_VALUE: tr_tail <- 0
	#DEBUG_VALUE: tr_fill <- 0
	#DEBUG_VALUE: currently_performing_a_transaction <- 0
	#DEBUG_VALUE: current_index <- R3
.Ltmp330:
	#DEBUG_VALUE: transfer8_async:mosi <- [SP+104]
	{
		nop
		stw r3, sp[33]
	}
.Ltmp331:
	#DEBUG_VALUE: current_index <- [SP+132]
	{
		nop
		ldw r1, sp[26]
	}
.Ltmp332:
	#DEBUG_VALUE: transfer8_async:mosi <- R1
	#DEBUG_VALUE: spi_master_async:mosi <- R1
	bf r1, .LBB32_76
.Ltmp333:
# BB#75:                                # %afternullcheck.i
                                        #   in Loop: Header=BB32_7 Depth=1
.Lxtalabel51:
	#DEBUG_VALUE: spi_master_async:i <- R7
	#DEBUG_VALUE: spi_master_async:num_clients <- R6
	#DEBUG_VALUE: spi_master_async:sclk <- [SP+112]
	#DEBUG_VALUE: spi_master_async:mosi <- R1
	#DEBUG_VALUE: spi_master_async:cb0 <- [SP+52]
	#DEBUG_VALUE: spi_master_async:cb1 <- [SP+56]
	#DEBUG_VALUE: spi_master_async:p_ss <- [SP+88]
	#DEBUG_VALUE: spi_master_async:num_slaves <- [SP+84]
	#DEBUG_VALUE: spi_master_async:miso <- R5
	#DEBUG_VALUE: tr_tail <- 0
	#DEBUG_VALUE: tr_fill <- 0
	#DEBUG_VALUE: currently_performing_a_transaction <- 0
	#DEBUG_VALUE: current_index <- [SP+132]
	#DEBUG_VALUE: transfer8_async:mosi <- R1
	.loc	1 30 35                 # C:/Users/user/workspace/lib_spi/src/spi_async.xc:30:35
	{
		setc res[r1], 23
		ld8u r0, r0[r4]
	}
	.loc	1 30 35                 # C:/Users/user/workspace/lib_spi/src/spi_async.xc:30:35
	{
		bitrev r0, r0
		nop
	}
	.loc	1 30 35                 # C:/Users/user/workspace/lib_spi/src/spi_async.xc:30:35
	{
		shr r0, r0, 24
		nop
	}
	.loc	1 30 35                 # C:/Users/user/workspace/lib_spi/src/spi_async.xc:30:35
.Lxta.endpoint_labels7:
	{
		out res[r1], r0
		nop
	}
.Ltmp334:
.LBB32_76:                              # %transfer8_async.exit
                                        #   in Loop: Header=BB32_7 Depth=1
.Lxtalabel52:
	#DEBUG_VALUE: spi_master_async:i <- R7
	#DEBUG_VALUE: spi_master_async:num_clients <- R6
	#DEBUG_VALUE: spi_master_async:sclk <- [SP+112]
	#DEBUG_VALUE: spi_master_async:mosi <- R1
	#DEBUG_VALUE: spi_master_async:mosi <- [SP+104]
	#DEBUG_VALUE: spi_master_async:cb0 <- [SP+52]
	#DEBUG_VALUE: spi_master_async:cb1 <- [SP+56]
	#DEBUG_VALUE: spi_master_async:p_ss <- [SP+88]
	#DEBUG_VALUE: spi_master_async:num_slaves <- [SP+84]
	#DEBUG_VALUE: spi_master_async:miso <- R5
	#DEBUG_VALUE: tr_tail <- 0
	#DEBUG_VALUE: tr_fill <- 0
	#DEBUG_VALUE: currently_performing_a_transaction <- 0
	#DEBUG_VALUE: current_index <- [SP+132]
	#DEBUG_VALUE: transfer8_async:mosi <- R1
	#DEBUG_VALUE: transfer8_async:mosi <- [SP+104]
	.loc	1 33 0                  # C:/Users/user/workspace/lib_spi/src/spi_async.xc:33:0
	{
		setc res[r5], 23
		ldw r0, sp[28]
	}
	ldc r1, 43690
	.loc	1 35 0                  # C:/Users/user/workspace/lib_spi/src/spi_async.xc:35:0
.Lxta.endpoint_labels8:
	outpw res[r0], r1, 16
.Ltmp335:
	#DEBUG_VALUE: transfer8_async:sclk <- [SP+112]
	#DEBUG_VALUE: transfer8_async:miso <- R5
	{
		ldc r0, 8
		nop
	}
	{
		mov r3, r0
		nop
	}
	bu .LBB32_7
.Ltmp336:
.LBB32_77:                              # %iffalse874
                                        #   in Loop: Header=BB32_7 Depth=1
.Lxtalabel53:
	#DEBUG_VALUE: spi_master_async:i <- R7
	#DEBUG_VALUE: spi_master_async:num_clients <- R6
	#DEBUG_VALUE: spi_master_async:sclk <- [SP+112]
	#DEBUG_VALUE: spi_master_async:mosi <- [SP+104]
	#DEBUG_VALUE: spi_master_async:cb0 <- [SP+52]
	#DEBUG_VALUE: spi_master_async:cb1 <- [SP+56]
	#DEBUG_VALUE: spi_master_async:p_ss <- [SP+88]
	#DEBUG_VALUE: spi_master_async:num_slaves <- [SP+84]
	#DEBUG_VALUE: spi_master_async:miso <- R5
	#DEBUG_VALUE: tr_tail <- 0
	#DEBUG_VALUE: tr_fill <- 0
	#DEBUG_VALUE: currently_performing_a_transaction <- 0
	#DEBUG_VALUE: current_index <- R8
	{
		nop
		ldw r0, sp[32]
	}
	.loc	1 373 0                 # C:/Users/user/workspace/lib_spi/src/spi_async.xc:373:0
	ldaw r0, r0[r8]
	{
		nop
		ldw r1, sp[31]
	}
	.loc	1 373 0                 # C:/Users/user/workspace/lib_spi/src/spi_async.xc:373:0
	{
		sub r1, r0, r1
		mkmsk r2, 2
	}
	{
		nop
		ldw r11, sp[30]
	}
	.loc	1 373 0                 # C:/Users/user/workspace/lib_spi/src/spi_async.xc:373:0
	{
		lsu r3, r11, r2
		mov r2, r4
	}
	bt r3, .LBB32_79
.Ltmp337:
# BB#78:                                # %iffalse874
                                        #   in Loop: Header=BB32_7 Depth=1
.Lxtalabel54:
	#DEBUG_VALUE: spi_master_async:i <- R7
	#DEBUG_VALUE: spi_master_async:num_clients <- R6
	#DEBUG_VALUE: spi_master_async:sclk <- [SP+112]
	#DEBUG_VALUE: spi_master_async:mosi <- [SP+104]
	#DEBUG_VALUE: spi_master_async:cb0 <- [SP+52]
	#DEBUG_VALUE: spi_master_async:cb1 <- [SP+56]
	#DEBUG_VALUE: spi_master_async:p_ss <- [SP+88]
	#DEBUG_VALUE: spi_master_async:num_slaves <- [SP+84]
	#DEBUG_VALUE: spi_master_async:miso <- R5
	#DEBUG_VALUE: tr_tail <- 0
	#DEBUG_VALUE: tr_fill <- 0
	#DEBUG_VALUE: currently_performing_a_transaction <- 0
	#DEBUG_VALUE: current_index <- R8
	.loc	1 373 0                 # C:/Users/user/workspace/lib_spi/src/spi_async.xc:373:0
	{
		sub r2, r11, 3
		nop
	}
.Ltmp338:
.LBB32_79:                              # %iffalse874
                                        #   in Loop: Header=BB32_7 Depth=1
.Lxtalabel55:
	#DEBUG_VALUE: spi_master_async:i <- R7
	#DEBUG_VALUE: spi_master_async:num_clients <- R6
	#DEBUG_VALUE: spi_master_async:sclk <- [SP+112]
	#DEBUG_VALUE: spi_master_async:mosi <- [SP+104]
	#DEBUG_VALUE: spi_master_async:cb0 <- [SP+52]
	#DEBUG_VALUE: spi_master_async:cb1 <- [SP+56]
	#DEBUG_VALUE: spi_master_async:p_ss <- [SP+88]
	#DEBUG_VALUE: spi_master_async:num_slaves <- [SP+84]
	#DEBUG_VALUE: spi_master_async:miso <- R5
	#DEBUG_VALUE: tr_tail <- 0
	#DEBUG_VALUE: tr_fill <- 0
	#DEBUG_VALUE: currently_performing_a_transaction <- 0
	#DEBUG_VALUE: current_index <- R8
	.loc	1 373 0                 # C:/Users/user/workspace/lib_spi/src/spi_async.xc:373:0
	{
		lsu r1, r1, r2
		mov r3, r9
	}
.Ltrap_info22:
	{
		ecallf r1
		nop
	}
	#DEBUG_VALUE: spi_master_async:i <- R7
	#DEBUG_VALUE: spi_master_async:num_clients <- R6
	#DEBUG_VALUE: spi_master_async:sclk <- [SP+112]
	#DEBUG_VALUE: spi_master_async:mosi <- [SP+104]
	#DEBUG_VALUE: spi_master_async:cb0 <- [SP+52]
	#DEBUG_VALUE: spi_master_async:cb1 <- [SP+56]
	#DEBUG_VALUE: spi_master_async:p_ss <- [SP+88]
	#DEBUG_VALUE: spi_master_async:num_slaves <- [SP+84]
	#DEBUG_VALUE: spi_master_async:miso <- R5
	#DEBUG_VALUE: tr_tail <- 0
	#DEBUG_VALUE: tr_fill <- 0
	#DEBUG_VALUE: currently_performing_a_transaction <- 0
	#DEBUG_VALUE: current_index <- R8
.Ltmp339:
	#DEBUG_VALUE: transfer32_async:mosi <- [SP+104]
	{
		nop
		stw r8, sp[33]
	}
.Ltmp340:
	#DEBUG_VALUE: current_index <- [SP+132]
	{
		nop
		ldw r1, sp[26]
	}
.Ltmp341:
	#DEBUG_VALUE: transfer32_async:mosi <- R1
	#DEBUG_VALUE: spi_master_async:mosi <- R1
	bf r1, .LBB32_81
.Ltmp342:
# BB#80:                                # %afternullcheck.i910
                                        #   in Loop: Header=BB32_7 Depth=1
.Lxtalabel56:
	#DEBUG_VALUE: spi_master_async:i <- R7
	#DEBUG_VALUE: spi_master_async:num_clients <- R6
	#DEBUG_VALUE: spi_master_async:sclk <- [SP+112]
	#DEBUG_VALUE: spi_master_async:mosi <- R1
	#DEBUG_VALUE: spi_master_async:cb0 <- [SP+52]
	#DEBUG_VALUE: spi_master_async:cb1 <- [SP+56]
	#DEBUG_VALUE: spi_master_async:p_ss <- [SP+88]
	#DEBUG_VALUE: spi_master_async:num_slaves <- [SP+84]
	#DEBUG_VALUE: spi_master_async:miso <- R5
	#DEBUG_VALUE: tr_tail <- 0
	#DEBUG_VALUE: tr_fill <- 0
	#DEBUG_VALUE: currently_performing_a_transaction <- 0
	#DEBUG_VALUE: current_index <- [SP+132]
	#DEBUG_VALUE: transfer32_async:mosi <- R1
	#DEBUG_VALUE: transfer32_async:data <- R0
	.loc	1 373 0                 # C:/Users/user/workspace/lib_spi/src/spi_async.xc:373:0
	{
		setc res[r1], 23
		ldw r0, r0[0]
	}
.Ltmp343:
	.loc	1 46 29                 # C:/Users/user/workspace/lib_spi/src/spi_async.xc:46:29
	{
		bitrev r0, r0
		nop
	}
	.loc	1 46 29                 # C:/Users/user/workspace/lib_spi/src/spi_async.xc:46:29
.Lxta.endpoint_labels9:
	{
		out res[r1], r0
		nop
	}
.Ltmp344:
.LBB32_81:                              # %transfer32_async.exit
                                        #   in Loop: Header=BB32_7 Depth=1
.Lxtalabel57:
	#DEBUG_VALUE: spi_master_async:i <- R7
	#DEBUG_VALUE: spi_master_async:num_clients <- R6
	#DEBUG_VALUE: spi_master_async:sclk <- [SP+112]
	#DEBUG_VALUE: spi_master_async:mosi <- R1
	#DEBUG_VALUE: spi_master_async:mosi <- [SP+104]
	#DEBUG_VALUE: spi_master_async:cb0 <- [SP+52]
	#DEBUG_VALUE: spi_master_async:cb1 <- [SP+56]
	#DEBUG_VALUE: spi_master_async:p_ss <- [SP+88]
	#DEBUG_VALUE: spi_master_async:num_slaves <- [SP+84]
	#DEBUG_VALUE: spi_master_async:miso <- R5
	#DEBUG_VALUE: tr_tail <- 0
	#DEBUG_VALUE: tr_fill <- 0
	#DEBUG_VALUE: currently_performing_a_transaction <- 0
	#DEBUG_VALUE: current_index <- [SP+132]
	#DEBUG_VALUE: transfer32_async:mosi <- R1
	#DEBUG_VALUE: transfer32_async:mosi <- [SP+104]
	#DEBUG_VALUE: spi_master_async:sclk <- R0
	.loc	1 49 0                  # C:/Users/user/workspace/lib_spi/src/spi_async.xc:49:0
	{
		setc res[r5], 23
		ldw r0, sp[28]
	}
.Ltmp345:
	ldw r1, cp[.LCPI32_0]
	.loc	1 52 23                 # C:/Users/user/workspace/lib_spi/src/spi_async.xc:52:23
.Lxta.endpoint_labels10:
	{
		out res[r0], r1
		nop
	}
	.loc	1 53 23                 # C:/Users/user/workspace/lib_spi/src/spi_async.xc:53:23
.Lxta.endpoint_labels11:
	{
		out res[r0], r1
		nop
	}
.Ltmp346:
	#DEBUG_VALUE: transfer32_async:sclk <- [SP+112]
	#DEBUG_VALUE: transfer32_async:sclk <- R0
	#DEBUG_VALUE: transfer32_async:miso <- R5
	#DEBUG_VALUE: spi_master_async:sclk <- [SP+112]
	bu .LBB32_7
.Ltmp347:
.LBB32_33:                              # %switchcase362
                                        #   in Loop: Header=BB32_7 Depth=1
	#DEBUG_VALUE: spi_master_async:i <- R7
	#DEBUG_VALUE: spi_master_async:num_clients <- R6
	#DEBUG_VALUE: spi_master_async:sclk <- [SP+112]
	#DEBUG_VALUE: spi_master_async:cb0 <- [SP+52]
	#DEBUG_VALUE: spi_master_async:cb1 <- [SP+56]
	#DEBUG_VALUE: spi_master_async:p_ss <- [SP+88]
	#DEBUG_VALUE: spi_master_async:num_slaves <- [SP+84]
	#DEBUG_VALUE: spi_master_async:miso <- R5
	#DEBUG_VALUE: spi_master_async:miso <- undef
	{
		outct res[r0], 1
		stw r3, sp[25]
	}
.Ltmp348:
	#DEBUG_VALUE: ss_deassert_time <- R5
	{
		in r5, res[r0]
		mkmsk r0, 2
	}
.Ltmp349:
	{
		nop
		ldw r1, sp[24]
	}
.Ltmp350:
	#DEBUG_VALUE: spi_master_async:p_ss <- R1
	.loc	1 234 0                 # C:/Users/user/workspace/lib_spi/src/spi_async.xc:234:0
	{
		lsu r0, r0, r1
		ldw r1, sp[22]
	}
.Ltmp351:
	{
		nop
		ldw r3, sp[21]
	}
.Ltmp352:
	#DEBUG_VALUE: spi_master_async:num_slaves <- R3
	bt r0, .LBB32_48
.Ltmp353:
# BB#34:                                # %switchcase362
                                        #   in Loop: Header=BB32_7 Depth=1
	#DEBUG_VALUE: spi_master_async:i <- R7
	#DEBUG_VALUE: spi_master_async:num_clients <- R6
	#DEBUG_VALUE: spi_master_async:sclk <- [SP+112]
	#DEBUG_VALUE: spi_master_async:cb0 <- [SP+52]
	#DEBUG_VALUE: spi_master_async:cb1 <- [SP+56]
	#DEBUG_VALUE: spi_master_async:p_ss <- R1
	#DEBUG_VALUE: spi_master_async:num_slaves <- R3
	#DEBUG_VALUE: spi_master_async:miso <- undef
	{
		nop
		ldw r0, sp[24]
	}

	.xtabranch .Ljumptable2+4,.Ljumptable2+8,.Ljumptable2+12,.Ljumptable2+16
.Ljumptable2:
		
	{
		nop
		bru r0
	}
	.jmptable32 .LBB32_82,.LBB32_47,.LBB32_47,.LBB32_82
.Ltmp354:
.LBB32_82:                              # %switchcase534
                                        #   in Loop: Header=BB32_7 Depth=1
.Lxtalabel58:
	#DEBUG_VALUE: spi_master_async:i <- R7
	#DEBUG_VALUE: spi_master_async:num_clients <- R6
	#DEBUG_VALUE: spi_master_async:sclk <- [SP+112]
	#DEBUG_VALUE: spi_master_async:cb0 <- [SP+52]
	#DEBUG_VALUE: spi_master_async:cb1 <- [SP+56]
	#DEBUG_VALUE: spi_master_async:p_ss <- R1
	#DEBUG_VALUE: spi_master_async:num_slaves <- R3
	#DEBUG_VALUE: spi_master_async:miso <- undef
	{
		nop
		ldw r0, sp[28]
	}
	.loc	1 236 0                 # C:/Users/user/workspace/lib_spi/src/spi_async.xc:236:0
.Lxta.endpoint_labels12:
	outpw res[r0], r10, 1
	bu .LBB32_48
.Ltmp355:
.LBB32_35:                              # %switchcase216
                                        #   in Loop: Header=BB32_7 Depth=1
	#DEBUG_VALUE: spi_master_async:i <- R7
	#DEBUG_VALUE: spi_master_async:num_clients <- R6
	#DEBUG_VALUE: spi_master_async:sclk <- [SP+112]
	#DEBUG_VALUE: spi_master_async:mosi <- [SP+104]
	#DEBUG_VALUE: spi_master_async:cb0 <- [SP+52]
	#DEBUG_VALUE: spi_master_async:cb1 <- [SP+56]
	#DEBUG_VALUE: spi_master_async:p_ss <- [SP+88]
	#DEBUG_VALUE: spi_master_async:num_slaves <- [SP+84]
	#DEBUG_VALUE: spi_master_async:miso <- R5
	#DEBUG_VALUE: spi_master_async:miso <- undef
	{
		outct res[r0], 1
		stw r3, sp[25]
	}
	{
		in r1, res[r0]
		nop
	}
	{
		in r3, res[r0]
		stw r1, sp[18]
	}
	{
		in r2, res[r0]
		nop
	}
	{
		in r1, res[r0]
		nop
	}
	{
		in r11, res[r0]
		stw r1, sp[20]
	}
	{
		in r10, res[r0]
		nop
	}
.Ltmp356:
	#DEBUG_VALUE: nbytes <- R5
	#DEBUG_VALUE: buffer_nbytes <- R5
	{
		in r5, res[r0]
		ldw r1, sp[27]
	}
.Ltmp357:
	.loc	1 296 17                # C:/Users/user/workspace/lib_spi/src/spi_async.xc:296:17
	{
		eq r0, r9, r1
		nop
	}
	.loc	1 296 17                # C:/Users/user/workspace/lib_spi/src/spi_async.xc:296:17
	bf r0, .LBB32_40
.Ltmp358:
# BB#36:                                # %iffalse402
                                        #   in Loop: Header=BB32_7 Depth=1
.Lxtalabel59:
	#DEBUG_VALUE: spi_master_async:i <- R7
	#DEBUG_VALUE: spi_master_async:num_clients <- R6
	#DEBUG_VALUE: spi_master_async:sclk <- [SP+112]
	#DEBUG_VALUE: spi_master_async:mosi <- [SP+104]
	#DEBUG_VALUE: spi_master_async:cb0 <- [SP+52]
	#DEBUG_VALUE: spi_master_async:cb1 <- [SP+56]
	#DEBUG_VALUE: spi_master_async:p_ss <- [SP+88]
	#DEBUG_VALUE: spi_master_async:num_slaves <- [SP+84]
	#DEBUG_VALUE: spi_master_async:miso <- undef
	#DEBUG_VALUE: buffer_nbytes <- R5
	#DEBUG_VALUE: nbytes <- R5
	{
		nop
		stw r3, sp[19]
	}
	.loc	1 312 21                # C:/Users/user/workspace/lib_spi/src/spi_async.xc:312:21
	bf r5, .LBB32_37
.Ltmp359:
# BB#46:                                # %iffalse479
                                        #   in Loop: Header=BB32_7 Depth=1
.Lxtalabel60:
	#DEBUG_VALUE: spi_master_async:i <- R7
	#DEBUG_VALUE: spi_master_async:num_clients <- R6
	#DEBUG_VALUE: spi_master_async:sclk <- [SP+112]
	#DEBUG_VALUE: spi_master_async:mosi <- [SP+104]
	#DEBUG_VALUE: spi_master_async:cb0 <- [SP+52]
	#DEBUG_VALUE: spi_master_async:cb1 <- [SP+56]
	#DEBUG_VALUE: spi_master_async:p_ss <- [SP+88]
	#DEBUG_VALUE: spi_master_async:num_slaves <- [SP+84]
	#DEBUG_VALUE: spi_master_async:miso <- undef
	#DEBUG_VALUE: buffer_nbytes <- R5
	#DEBUG_VALUE: nbytes <- R5
	#DEBUG_VALUE: buffer_transfer_width <- 8
	{
		nop
		stw r2, sp[15]
	}
	{
		nop
		ldw r2, sp[20]
	}
	.loc	1 316 0                 # C:/Users/user/workspace/lib_spi/src/spi_async.xc:316:0
	{
		sub r0, r2, r11
		nop
	}
.Ltmp360:
	#DEBUG_VALUE: spi_master_async:mosi <- R1
	.loc	1 316 0                 # C:/Users/user/workspace/lib_spi/src/spi_async.xc:316:0
	{
		lsu r0, r0, r10
		ldw r1, sp[26]
	}
.Ltmp361:
	#DEBUG_VALUE: spi_master_async:i <- R7
	#DEBUG_VALUE: spi_master_async:num_clients <- R6
	#DEBUG_VALUE: spi_master_async:sclk <- [SP+112]
	#DEBUG_VALUE: spi_master_async:mosi <- R1
	#DEBUG_VALUE: spi_master_async:cb0 <- [SP+52]
	#DEBUG_VALUE: spi_master_async:cb1 <- [SP+56]
	#DEBUG_VALUE: spi_master_async:p_ss <- [SP+88]
	#DEBUG_VALUE: spi_master_async:num_slaves <- [SP+84]
	#DEBUG_VALUE: spi_master_async:miso <- undef
	#DEBUG_VALUE: buffer_nbytes <- R5
	#DEBUG_VALUE: nbytes <- R5
	#DEBUG_VALUE: buffer_transfer_width <- 8
.Ltrap_info23:
	{
		mov r9, r11
		ecallf r0
	}
	{
		nop
		ld8u r0, r2[r4]
	}
	{
		nop
		stw r0, sp[2]
	}
	{
		nop
		ldw r0, sp[14]
	}
	{
		nop
		stw r0, sp[1]
	}
	{
		nop
		ldw r0, sp[28]
	}
.Ltmp362:
	#DEBUG_VALUE: spi_master_async:mosi <- [SP+104]
	ldw r2, sp[143]
	{
		nop
		ldw r3, sp[24]
	}
	.loc	1 316 0                 # C:/Users/user/workspace/lib_spi/src/spi_async.xc:316:0
.Lxta.call_labels12:
	bl init_init_transfer_array_8
	{
		ldc r0, 8
		nop
	}
.Ltmp363:
	#DEBUG_VALUE: nbytes <- [SP+116]
	#DEBUG_VALUE: buffer_nbytes <- [SP+116]
	{
		mov r3, r0
		stw r5, sp[29]
	}
	{
		nop
		ldw r0, sp[18]
	}
	{
		nop
		stw r0, sp[35]
	}
	{
		nop
		ldw r0, sp[19]
	}
	{
		nop
		stw r0, sp[34]
	}
	{
		nop
		ldw r0, sp[15]
	}
	{
		nop
		stw r0, sp[36]
	}
	{
		nop
		ldw r0, sp[20]
	}
	{
		nop
		stw r0, sp[32]
	}
	{
		nop
		stw r9, sp[31]
	}
	{
		mkmsk r10, 1
		stw r10, sp[30]
	}
	bu .LBB32_29
.Ltmp364:
.LBB32_18:                              # %switchcase159
                                        #   in Loop: Header=BB32_7 Depth=1
	#DEBUG_VALUE: spi_master_async:i <- R7
	#DEBUG_VALUE: spi_master_async:num_clients <- R6
	#DEBUG_VALUE: spi_master_async:sclk <- [SP+112]
	#DEBUG_VALUE: spi_master_async:mosi <- [SP+104]
	#DEBUG_VALUE: spi_master_async:cb0 <- [SP+52]
	#DEBUG_VALUE: spi_master_async:cb1 <- [SP+56]
	#DEBUG_VALUE: spi_master_async:p_ss <- [SP+88]
	#DEBUG_VALUE: spi_master_async:num_slaves <- [SP+84]
	#DEBUG_VALUE: spi_master_async:miso <- R5
	#DEBUG_VALUE: spi_master_async:miso <- undef
	{
		outct res[r0], 1
		nop
	}
	{
		in r1, res[r0]
		nop
	}
	{
		in r1, res[r0]
		stw r1, sp[18]
	}
	{
		in r11, res[r0]
		stw r1, sp[19]
	}
	{
		in r1, res[r0]
		nop
	}
	{
		in r1, res[r0]
		stw r1, sp[20]
	}
	{
		in r5, res[r0]
		stw r1, sp[25]
	}
.Ltmp365:
	#DEBUG_VALUE: nwords <- R0
	{
		in r0, res[r0]
		ldw r2, sp[27]
	}
.Ltmp366:
	.loc	1 326 17                # C:/Users/user/workspace/lib_spi/src/spi_async.xc:326:17
	{
		eq r1, r9, r2
		nop
	}
	.loc	1 326 17                # C:/Users/user/workspace/lib_spi/src/spi_async.xc:326:17
	bf r1, .LBB32_23
.Ltmp367:
# BB#19:                                # %iffalse
                                        #   in Loop: Header=BB32_7 Depth=1
.Lxtalabel61:
	#DEBUG_VALUE: spi_master_async:i <- R7
	#DEBUG_VALUE: spi_master_async:num_clients <- R6
	#DEBUG_VALUE: spi_master_async:sclk <- [SP+112]
	#DEBUG_VALUE: spi_master_async:mosi <- [SP+104]
	#DEBUG_VALUE: spi_master_async:cb0 <- [SP+52]
	#DEBUG_VALUE: spi_master_async:cb1 <- [SP+56]
	#DEBUG_VALUE: spi_master_async:p_ss <- [SP+88]
	#DEBUG_VALUE: spi_master_async:num_slaves <- [SP+84]
	#DEBUG_VALUE: spi_master_async:miso <- undef
	#DEBUG_VALUE: nwords <- R0
	.loc	1 341 0                 # C:/Users/user/workspace/lib_spi/src/spi_async.xc:341:0
	{
		shl r0, r0, 2
		nop
	}
.Ltmp368:
	#DEBUG_VALUE: buffer_nbytes <- R0
	{
		nop
		stw r0, sp[29]
	}
.Ltmp369:
	#DEBUG_VALUE: buffer_nbytes <- [SP+116]
	.loc	1 345 21                # C:/Users/user/workspace/lib_spi/src/spi_async.xc:345:21
	bf r0, .LBB32_20
.Ltmp370:
# BB#30:                                # %iffalse327
                                        #   in Loop: Header=BB32_7 Depth=1
.Lxtalabel62:
	#DEBUG_VALUE: spi_master_async:i <- R7
	#DEBUG_VALUE: spi_master_async:num_clients <- R6
	#DEBUG_VALUE: spi_master_async:sclk <- [SP+112]
	#DEBUG_VALUE: spi_master_async:mosi <- [SP+104]
	#DEBUG_VALUE: spi_master_async:cb0 <- [SP+52]
	#DEBUG_VALUE: spi_master_async:cb1 <- [SP+56]
	#DEBUG_VALUE: spi_master_async:p_ss <- [SP+88]
	#DEBUG_VALUE: spi_master_async:num_slaves <- [SP+84]
	#DEBUG_VALUE: spi_master_async:miso <- undef
	#DEBUG_VALUE: buffer_nbytes <- [SP+116]
	#DEBUG_VALUE: buffer_transfer_width <- 32
	{
		nop
		stw r11, sp[15]
	}
	{
		nop
		ldw r0, sp[25]
	}
	{
		nop
		ldw r1, sp[20]
	}
	.loc	1 349 0                 # C:/Users/user/workspace/lib_spi/src/spi_async.xc:349:0
	{
		sub r0, r1, r0
		mkmsk r1, 2
	}
	.loc	1 349 0                 # C:/Users/user/workspace/lib_spi/src/spi_async.xc:349:0
	{
		lsu r2, r5, r1
		mov r1, r4
	}
	bt r2, .LBB32_32
.Ltmp371:
# BB#31:                                # %iffalse327
                                        #   in Loop: Header=BB32_7 Depth=1
.Lxtalabel63:
	#DEBUG_VALUE: spi_master_async:i <- R7
	#DEBUG_VALUE: spi_master_async:num_clients <- R6
	#DEBUG_VALUE: spi_master_async:sclk <- [SP+112]
	#DEBUG_VALUE: spi_master_async:mosi <- [SP+104]
	#DEBUG_VALUE: spi_master_async:cb0 <- [SP+52]
	#DEBUG_VALUE: spi_master_async:cb1 <- [SP+56]
	#DEBUG_VALUE: spi_master_async:p_ss <- [SP+88]
	#DEBUG_VALUE: spi_master_async:num_slaves <- [SP+84]
	#DEBUG_VALUE: spi_master_async:miso <- undef
	#DEBUG_VALUE: buffer_nbytes <- [SP+116]
	#DEBUG_VALUE: buffer_transfer_width <- 32
	.loc	1 349 0                 # C:/Users/user/workspace/lib_spi/src/spi_async.xc:349:0
	{
		sub r1, r5, 3
		nop
	}
.Ltmp372:
.LBB32_32:                              # %iffalse327
                                        #   in Loop: Header=BB32_7 Depth=1
.Lxtalabel64:
	#DEBUG_VALUE: spi_master_async:i <- R7
	#DEBUG_VALUE: spi_master_async:num_clients <- R6
	#DEBUG_VALUE: spi_master_async:sclk <- [SP+112]
	#DEBUG_VALUE: spi_master_async:mosi <- [SP+104]
	#DEBUG_VALUE: spi_master_async:cb0 <- [SP+52]
	#DEBUG_VALUE: spi_master_async:cb1 <- [SP+56]
	#DEBUG_VALUE: spi_master_async:p_ss <- [SP+88]
	#DEBUG_VALUE: spi_master_async:num_slaves <- [SP+84]
	#DEBUG_VALUE: spi_master_async:miso <- undef
	#DEBUG_VALUE: buffer_nbytes <- [SP+116]
	#DEBUG_VALUE: buffer_transfer_width <- 32
	.loc	1 349 0                 # C:/Users/user/workspace/lib_spi/src/spi_async.xc:349:0
	{
		lsu r0, r0, r1
		nop
	}
.Ltrap_info24:
	{
		ecallf r0
		nop
	}
	#DEBUG_VALUE: spi_master_async:i <- R7
	#DEBUG_VALUE: spi_master_async:num_clients <- R6
	#DEBUG_VALUE: spi_master_async:sclk <- [SP+112]
	#DEBUG_VALUE: spi_master_async:mosi <- [SP+104]
	#DEBUG_VALUE: spi_master_async:cb0 <- [SP+52]
	#DEBUG_VALUE: spi_master_async:cb1 <- [SP+56]
	#DEBUG_VALUE: spi_master_async:p_ss <- [SP+88]
	#DEBUG_VALUE: spi_master_async:num_slaves <- [SP+84]
	#DEBUG_VALUE: spi_master_async:miso <- undef
	#DEBUG_VALUE: buffer_nbytes <- [SP+116]
	#DEBUG_VALUE: buffer_transfer_width <- 32
	{
		nop
		ldw r9, sp[20]
	}
	{
		nop
		ldw r0, r9[0]
	}
	{
		nop
		stw r0, sp[2]
	}
	{
		nop
		ldw r0, sp[14]
	}
	{
		nop
		stw r0, sp[1]
	}
	{
		nop
		ldw r0, sp[28]
	}
	{
		nop
		ldw r1, sp[26]
	}
	ldw r2, sp[143]
	{
		nop
		ldw r3, sp[24]
	}
	.loc	1 349 0                 # C:/Users/user/workspace/lib_spi/src/spi_async.xc:349:0
.Lxta.call_labels13:
	bl first_transfer_array_32
	{
		ldc r0, 32
		nop
	}
	{
		mov r3, r0
		ldw r0, sp[18]
	}
	{
		nop
		stw r0, sp[35]
	}
	{
		nop
		ldw r0, sp[19]
	}
	{
		nop
		stw r0, sp[34]
	}
	{
		nop
		ldw r0, sp[15]
	}
	{
		nop
		stw r0, sp[36]
	}
	{
		nop
		stw r9, sp[32]
	}
	{
		nop
		ldw r0, sp[25]
	}
	{
		nop
		stw r0, sp[31]
	}
	{
		nop
		stw r5, sp[30]
	}
	bu .LBB32_29
.Ltmp373:
.LBB32_16:                              # %switchcase115
                                        #   in Loop: Header=BB32_7 Depth=1
	#DEBUG_VALUE: spi_master_async:i <- R7
	#DEBUG_VALUE: spi_master_async:num_clients <- R6
	#DEBUG_VALUE: spi_master_async:sclk <- [SP+112]
	#DEBUG_VALUE: spi_master_async:mosi <- [SP+104]
	#DEBUG_VALUE: spi_master_async:cb0 <- [SP+52]
	#DEBUG_VALUE: spi_master_async:cb1 <- [SP+56]
	#DEBUG_VALUE: spi_master_async:p_ss <- [SP+88]
	#DEBUG_VALUE: spi_master_async:num_slaves <- [SP+84]
	#DEBUG_VALUE: spi_master_async:miso <- R5
	{
		outct res[r0], 1
		nop
	}
	{
		in r0, res[r0]
		ldw r1, r8[4]
	}
	{
		eq r0, r1, r0
		nop
	}
	bt r0, .LBB32_13
.Ltmp374:
# BB#17:                                # %refillchan178
                                        #   in Loop: Header=BB32_7 Depth=1
	#DEBUG_VALUE: spi_master_async:i <- R7
	#DEBUG_VALUE: spi_master_async:num_clients <- R6
	#DEBUG_VALUE: spi_master_async:sclk <- [SP+112]
	#DEBUG_VALUE: spi_master_async:mosi <- [SP+104]
	#DEBUG_VALUE: spi_master_async:cb0 <- [SP+52]
	#DEBUG_VALUE: spi_master_async:cb1 <- [SP+56]
	#DEBUG_VALUE: spi_master_async:p_ss <- [SP+88]
	#DEBUG_VALUE: spi_master_async:num_slaves <- [SP+84]
	#DEBUG_VALUE: spi_master_async:miso <- R5
	{
		nop
		ldw r0, r8[2]
	}
	{
		nop
		ldw r1, r8[3]
	}
	#APP
	getd r2, res[r0]
	#NO_APP
.Ltmp375:
.LBB32_15:                              # %afternotifycheck
                                        #   in Loop: Header=BB32_7 Depth=1
	{
		setd res[r0], r1
		nop
	}
	{
		outct res[r0], 1
		nop
	}
	{
		setd res[r0], r2
		nop
	}
	bu .LBB32_13
.LBB32_40:                              # %iftrue395
                                        #   in Loop: Header=BB32_7 Depth=1
.Lxtalabel65:
.Ltmp376:
	#DEBUG_VALUE: spi_master_async:i <- R7
	#DEBUG_VALUE: spi_master_async:num_clients <- R6
	#DEBUG_VALUE: spi_master_async:sclk <- [SP+112]
	#DEBUG_VALUE: spi_master_async:mosi <- [SP+104]
	#DEBUG_VALUE: spi_master_async:cb0 <- [SP+52]
	#DEBUG_VALUE: spi_master_async:cb1 <- [SP+56]
	#DEBUG_VALUE: spi_master_async:p_ss <- [SP+88]
	#DEBUG_VALUE: spi_master_async:num_slaves <- [SP+84]
	#DEBUG_VALUE: spi_master_async:miso <- undef
	#DEBUG_VALUE: buffer_nbytes <- R5
	#DEBUG_VALUE: nbytes <- R5
	#DEBUG_VALUE: j <- 0
	{
		nop
		stw r3, sp[19]
	}
	{
		ldaw r1, sp[38]
		stw r2, sp[15]
	}
	{
		mov r0, r4
		mkmsk r3, 3
	}
	bf r6, .LBB32_41
.Ltmp377:
.LBB32_43:                              # %LoopBody412
                                        #   Parent Loop BB32_7 Depth=1
                                        # =>  This Inner Loop Header: Depth=2
.Lxtalabel66:
	#DEBUG_VALUE: spi_master_async:i <- R7
	#DEBUG_VALUE: spi_master_async:num_clients <- R6
	#DEBUG_VALUE: spi_master_async:sclk <- [SP+112]
	#DEBUG_VALUE: spi_master_async:mosi <- [SP+104]
	#DEBUG_VALUE: spi_master_async:cb0 <- [SP+52]
	#DEBUG_VALUE: spi_master_async:cb1 <- [SP+56]
	#DEBUG_VALUE: spi_master_async:p_ss <- [SP+88]
	#DEBUG_VALUE: spi_master_async:num_slaves <- [SP+84]
	#DEBUG_VALUE: spi_master_async:miso <- undef
	#DEBUG_VALUE: buffer_nbytes <- R5
	#DEBUG_VALUE: nbytes <- R5
	#DEBUG_VALUE: j <- 0
	.loc	1 299 25                # C:/Users/user/workspace/lib_spi/src/spi_async.xc:299:25
	{
		lsu r2, r3, r0
		nop
	}
.Ltrap_info25:
	{
		ecallt r2
		nop
	}
	#DEBUG_VALUE: spi_master_async:i <- R7
	#DEBUG_VALUE: spi_master_async:num_clients <- R6
	#DEBUG_VALUE: spi_master_async:sclk <- [SP+112]
	#DEBUG_VALUE: spi_master_async:mosi <- [SP+104]
	#DEBUG_VALUE: spi_master_async:cb0 <- [SP+52]
	#DEBUG_VALUE: spi_master_async:cb1 <- [SP+56]
	#DEBUG_VALUE: spi_master_async:p_ss <- [SP+88]
	#DEBUG_VALUE: spi_master_async:num_slaves <- [SP+84]
	#DEBUG_VALUE: spi_master_async:miso <- undef
	#DEBUG_VALUE: buffer_nbytes <- R5
	#DEBUG_VALUE: nbytes <- R5
	#DEBUG_VALUE: j <- 0
	{
		nop
		ldw r2, r1[0]
	}
	.loc	1 299 25                # C:/Users/user/workspace/lib_spi/src/spi_async.xc:299:25
	{
		eq r2, r2, r9
		nop
	}
	.loc	1 299 25                # C:/Users/user/workspace/lib_spi/src/spi_async.xc:299:25
	bt r2, .LBB32_44
.Ltmp378:
# BB#42:                                # %LoopIncrement414
                                        #   in Loop: Header=BB32_43 Depth=2
.Lxtalabel67:
	#DEBUG_VALUE: spi_master_async:i <- R7
	#DEBUG_VALUE: spi_master_async:num_clients <- R6
	#DEBUG_VALUE: spi_master_async:sclk <- [SP+112]
	#DEBUG_VALUE: spi_master_async:mosi <- [SP+104]
	#DEBUG_VALUE: spi_master_async:cb0 <- [SP+52]
	#DEBUG_VALUE: spi_master_async:cb1 <- [SP+56]
	#DEBUG_VALUE: spi_master_async:p_ss <- [SP+88]
	#DEBUG_VALUE: spi_master_async:num_slaves <- [SP+84]
	#DEBUG_VALUE: spi_master_async:miso <- undef
	#DEBUG_VALUE: buffer_nbytes <- R5
	#DEBUG_VALUE: nbytes <- R5
	#DEBUG_VALUE: j <- 0
	#DEBUG_VALUE: j <- R0
	.loc	1 298 0                 # C:/Users/user/workspace/lib_spi/src/spi_async.xc:298:0
	{
		add r0, r0, 1
		ldc r2, 48
	}
.Ltmp379:
	.loc	1 298 0                 # C:/Users/user/workspace/lib_spi/src/spi_async.xc:298:0
	{
		add r1, r1, r2
		lsu r2, r0, r6
	}
.Lxta.loop_labels3:
	# LOOPMARKER 1
	bt r2, .LBB32_43
.Ltmp380:
.LBB32_41:                              # %ifdone406
                                        #   in Loop: Header=BB32_7 Depth=1
.Lxtalabel68:
	#DEBUG_VALUE: spi_master_async:i <- R7
	#DEBUG_VALUE: spi_master_async:num_clients <- R6
	#DEBUG_VALUE: spi_master_async:sclk <- [SP+112]
	#DEBUG_VALUE: spi_master_async:mosi <- [SP+104]
	#DEBUG_VALUE: spi_master_async:cb0 <- [SP+52]
	#DEBUG_VALUE: spi_master_async:cb1 <- [SP+56]
	#DEBUG_VALUE: spi_master_async:p_ss <- [SP+88]
	#DEBUG_VALUE: spi_master_async:num_slaves <- [SP+84]
	#DEBUG_VALUE: spi_master_async:miso <- undef
	#DEBUG_VALUE: buffer_nbytes <- R5
	#DEBUG_VALUE: nbytes <- R5
	{
		ldc r1, 8
		ldw r2, sp[10]
	}
	.loc	1 304 0                 # C:/Users/user/workspace/lib_spi/src/spi_async.xc:304:0
	{
		lsu r0, r2, r1
		ldw r3, sp[25]
	}
.Ltrap_info26:
	{
		ecallf r0
		ldw r9, sp[18]
	}
	bu .LBB32_45
.Ltmp381:
.LBB32_23:                              # %iftrue249
                                        #   in Loop: Header=BB32_7 Depth=1
.Lxtalabel69:
	#DEBUG_VALUE: spi_master_async:i <- R7
	#DEBUG_VALUE: spi_master_async:num_clients <- R6
	#DEBUG_VALUE: spi_master_async:sclk <- [SP+112]
	#DEBUG_VALUE: spi_master_async:mosi <- [SP+104]
	#DEBUG_VALUE: spi_master_async:cb0 <- [SP+52]
	#DEBUG_VALUE: spi_master_async:cb1 <- [SP+56]
	#DEBUG_VALUE: spi_master_async:p_ss <- [SP+88]
	#DEBUG_VALUE: spi_master_async:num_slaves <- [SP+84]
	#DEBUG_VALUE: spi_master_async:miso <- undef
	#DEBUG_VALUE: nwords <- R0
	#DEBUG_VALUE: j <- 0
	{
		nop
		stw r11, sp[15]
	}
	{
		mov r5, r10
		stw r5, sp[12]
	}
	{
		mov r10, r3
		ldaw r2, sp[38]
	}
	{
		mov r1, r4
		mkmsk r11, 3
	}
	bf r6, .LBB32_24
.Ltmp382:
.LBB32_26:                              # %LoopBody261
                                        #   Parent Loop BB32_7 Depth=1
                                        # =>  This Inner Loop Header: Depth=2
.Lxtalabel70:
	#DEBUG_VALUE: spi_master_async:i <- R7
	#DEBUG_VALUE: spi_master_async:num_clients <- R6
	#DEBUG_VALUE: spi_master_async:sclk <- [SP+112]
	#DEBUG_VALUE: spi_master_async:mosi <- [SP+104]
	#DEBUG_VALUE: spi_master_async:cb0 <- [SP+52]
	#DEBUG_VALUE: spi_master_async:cb1 <- [SP+56]
	#DEBUG_VALUE: spi_master_async:p_ss <- [SP+88]
	#DEBUG_VALUE: spi_master_async:num_slaves <- [SP+84]
	#DEBUG_VALUE: spi_master_async:miso <- undef
	#DEBUG_VALUE: nwords <- R0
	#DEBUG_VALUE: j <- 0
	.loc	1 330 25                # C:/Users/user/workspace/lib_spi/src/spi_async.xc:330:25
	{
		lsu r3, r11, r1
		nop
	}
.Ltrap_info27:
	{
		ecallt r3
		nop
	}
	#DEBUG_VALUE: spi_master_async:i <- R7
	#DEBUG_VALUE: spi_master_async:num_clients <- R6
	#DEBUG_VALUE: spi_master_async:sclk <- [SP+112]
	#DEBUG_VALUE: spi_master_async:mosi <- [SP+104]
	#DEBUG_VALUE: spi_master_async:cb0 <- [SP+52]
	#DEBUG_VALUE: spi_master_async:cb1 <- [SP+56]
	#DEBUG_VALUE: spi_master_async:p_ss <- [SP+88]
	#DEBUG_VALUE: spi_master_async:num_slaves <- [SP+84]
	#DEBUG_VALUE: spi_master_async:miso <- undef
	#DEBUG_VALUE: nwords <- R0
	#DEBUG_VALUE: j <- 0
	{
		nop
		ldw r3, r2[0]
	}
	.loc	1 330 25                # C:/Users/user/workspace/lib_spi/src/spi_async.xc:330:25
	{
		eq r3, r3, r9
		nop
	}
	.loc	1 330 25                # C:/Users/user/workspace/lib_spi/src/spi_async.xc:330:25
	bt r3, .LBB32_27
.Ltmp383:
# BB#25:                                # %LoopIncrement263
                                        #   in Loop: Header=BB32_26 Depth=2
.Lxtalabel71:
	#DEBUG_VALUE: spi_master_async:i <- R7
	#DEBUG_VALUE: spi_master_async:num_clients <- R6
	#DEBUG_VALUE: spi_master_async:sclk <- [SP+112]
	#DEBUG_VALUE: spi_master_async:mosi <- [SP+104]
	#DEBUG_VALUE: spi_master_async:cb0 <- [SP+52]
	#DEBUG_VALUE: spi_master_async:cb1 <- [SP+56]
	#DEBUG_VALUE: spi_master_async:p_ss <- [SP+88]
	#DEBUG_VALUE: spi_master_async:num_slaves <- [SP+84]
	#DEBUG_VALUE: spi_master_async:miso <- undef
	#DEBUG_VALUE: nwords <- R0
	#DEBUG_VALUE: j <- 0
	#DEBUG_VALUE: j <- R1
	.loc	1 329 0                 # C:/Users/user/workspace/lib_spi/src/spi_async.xc:329:0
	{
		add r1, r1, 1
		ldc r3, 48
	}
.Ltmp384:
	.loc	1 329 0                 # C:/Users/user/workspace/lib_spi/src/spi_async.xc:329:0
	{
		add r2, r2, r3
		lsu r3, r1, r6
	}
.Lxta.loop_labels4:
	# LOOPMARKER 2
	bt r3, .LBB32_26
.Ltmp385:
.LBB32_24:                              # %ifdone256
                                        #   in Loop: Header=BB32_7 Depth=1
.Lxtalabel72:
	#DEBUG_VALUE: spi_master_async:i <- R7
	#DEBUG_VALUE: spi_master_async:num_clients <- R6
	#DEBUG_VALUE: spi_master_async:sclk <- [SP+112]
	#DEBUG_VALUE: spi_master_async:mosi <- [SP+104]
	#DEBUG_VALUE: spi_master_async:cb0 <- [SP+52]
	#DEBUG_VALUE: spi_master_async:cb1 <- [SP+56]
	#DEBUG_VALUE: spi_master_async:p_ss <- [SP+88]
	#DEBUG_VALUE: spi_master_async:num_slaves <- [SP+84]
	#DEBUG_VALUE: spi_master_async:miso <- undef
	#DEBUG_VALUE: nwords <- R0
	{
		ldc r1, 8
		ldw r2, sp[11]
	}
	.loc	1 335 0                 # C:/Users/user/workspace/lib_spi/src/spi_async.xc:335:0
	{
		lsu r1, r2, r1
		mov r3, r10
	}
	{
		mov r10, r5
		ldw r11, sp[12]
	}
	{
		nop
		ldw r5, sp[19]
	}
.Ltrap_info28:
	{
		ecallf r1
		ldw r9, sp[18]
	}
	bu .LBB32_28
.Ltmp386:
.LBB32_62:                              # %ifdone717
                                        #   in Loop: Header=BB32_7 Depth=1
.Lxtalabel73:
	#DEBUG_VALUE: spi_master_async:i <- R7
	#DEBUG_VALUE: spi_master_async:num_clients <- R6
	#DEBUG_VALUE: spi_master_async:sclk <- [SP+112]
	#DEBUG_VALUE: spi_master_async:mosi <- [SP+104]
	#DEBUG_VALUE: spi_master_async:cb0 <- [SP+52]
	#DEBUG_VALUE: spi_master_async:cb1 <- [SP+56]
	#DEBUG_VALUE: spi_master_async:p_ss <- [SP+88]
	#DEBUG_VALUE: spi_master_async:num_slaves <- [SP+84]
	#DEBUG_VALUE: spi_master_async:miso <- undef
	#DEBUG_VALUE: active_device <- R1
	#DEBUG_VALUE: device_index <- R1
	#DEBUG_VALUE: speed_in_khz <- R2
	#DEBUG_VALUE: active_mode <- R5
	#DEBUG_VALUE: mode <- R5
	#DEBUG_VALUE: active_device <- undef
	.loc	1 217 0                 # C:/Users/user/workspace/lib_spi/src/spi_async.xc:217:0
	{
		ldaw r0, sp[37]
		stw r1, sp[37]
	}
	.loc	1 218 0                 # C:/Users/user/workspace/lib_spi/src/spi_async.xc:218:0
	std r0, r2, sp[1]
	{
		nop
		ldw r0, sp[21]
	}
	{
		nop
		stw r0, sp[4]
	}
	{
		nop
		stw r1, sp[1]
	}
	{
		nop
		ldw r0, sp[28]
	}
	{
		nop
		ldw r1, sp[22]
	}
.Ltmp387:
	{
		mov r3, r5
		ldw r2, sp[13]
	}
.Ltmp388:
.Lxta.call_labels14:
	bl setup_new_transaction
.Ltmp389:
	#DEBUG_VALUE: current_index <- 0
	#DEBUG_VALUE: currently_performing_a_transaction <- 1
	{
		nop
		ldw r0, r7[r9]
	}
	{
		nop
		ldw r0, r0[0]
	}
	{
		out res[r0], r4
		nop
	}
	{
		outct res[r0], 1
		stw r10, sp[16]
	}
	{
		nop
		stw r5, sp[24]
	}
.Ltmp390:
	#DEBUG_VALUE: mode <- [SP+96]
	#DEBUG_VALUE: active_mode <- [SP+96]
	{
		nop
		stw r9, sp[27]
	}
	{
		nop
		stw r4, sp[33]
	}
.Ltmp391:
.LBB32_64:                              # %LoopBody86
                                        #   in Loop: Header=BB32_7 Depth=1
.Lxtalabel74:
	ldw r5, sp[143]
.Ltmp392:
	#DEBUG_VALUE: spi_master_async:miso <- R5
	{
		nop
		ldw r3, sp[25]
	}
	bu .LBB32_7
.Ltmp393:
.LBB32_47:                              # %switchcase538
                                        #   in Loop: Header=BB32_7 Depth=1
.Lxtalabel75:
	#DEBUG_VALUE: spi_master_async:i <- R7
	#DEBUG_VALUE: spi_master_async:num_clients <- R6
	#DEBUG_VALUE: spi_master_async:sclk <- [SP+112]
	#DEBUG_VALUE: spi_master_async:cb0 <- [SP+52]
	#DEBUG_VALUE: spi_master_async:cb1 <- [SP+56]
	#DEBUG_VALUE: spi_master_async:p_ss <- R1
	#DEBUG_VALUE: spi_master_async:num_slaves <- R3
	#DEBUG_VALUE: spi_master_async:miso <- undef
	{
		nop
		ldw r0, sp[28]
	}
	.loc	1 242 0                 # C:/Users/user/workspace/lib_spi/src/spi_async.xc:242:0
.Lxta.endpoint_labels13:
	outpw res[r0], r4, 1
.Ltmp394:
.LBB32_48:                              # %switchdone533
                                        #   in Loop: Header=BB32_7 Depth=1
.Lxtalabel76:
	#DEBUG_VALUE: spi_master_async:i <- R7
	#DEBUG_VALUE: spi_master_async:num_clients <- R6
	#DEBUG_VALUE: spi_master_async:sclk <- [SP+112]
	#DEBUG_VALUE: spi_master_async:cb0 <- [SP+52]
	#DEBUG_VALUE: spi_master_async:cb1 <- [SP+56]
	#DEBUG_VALUE: spi_master_async:p_ss <- R1
	#DEBUG_VALUE: spi_master_async:num_slaves <- R3
	#DEBUG_VALUE: spi_master_async:miso <- undef
	#DEBUG_VALUE: ss_deassert_time <- R5
	{
		nop
		ldw r0, sp[28]
	}
.Ltmp395:
	#DEBUG_VALUE: spi_master_async:mosi <- [SP+104]
	.loc	1 248 0                 # C:/Users/user/workspace/lib_spi/src/spi_async.xc:248:0
	{
		syncr res[r0]
		ldw r0, sp[37]
	}
	.loc	1 250 48                # C:/Users/user/workspace/lib_spi/src/spi_async.xc:250:48
.Ltmp396:
	{
		lsu r2, r0, r3
		nop
	}
.Ltrap_info29:
	{
		ecallf r2
		nop
	}
	#DEBUG_VALUE: spi_master_async:i <- R7
	#DEBUG_VALUE: spi_master_async:num_clients <- R6
	#DEBUG_VALUE: spi_master_async:sclk <- [SP+112]
	#DEBUG_VALUE: spi_master_async:mosi <- [SP+104]
	#DEBUG_VALUE: spi_master_async:cb0 <- [SP+52]
	#DEBUG_VALUE: spi_master_async:cb1 <- [SP+56]
	#DEBUG_VALUE: spi_master_async:p_ss <- R1
	#DEBUG_VALUE: spi_master_async:num_slaves <- R3
	#DEBUG_VALUE: spi_master_async:miso <- undef
	#DEBUG_VALUE: ss_deassert_time <- R5
	{
		nop
		ldw r9, r1[r0]
	}
	.loc	1 250 48                # C:/Users/user/workspace/lib_spi/src/spi_async.xc:250:48
.Lxta.endpoint_labels14:
	{
		out res[r9], r10
		nop
	}
	.loc	1 250 48                # C:/Users/user/workspace/lib_spi/src/spi_async.xc:250:48
	{
		syncr res[r9]
		nop
	}
.Ltmp397:
	#DEBUG_VALUE: time <- R4
	.loc	1 250 48                # C:/Users/user/workspace/lib_spi/src/spi_async.xc:250:48
	{
		getts r4, res[r9]
		shr r0, r5, 16
	}
.Ltmp398:
	bf r0, .LBB32_50
.Ltmp399:
# BB#49:                                # %iftrue552
                                        #   in Loop: Header=BB32_7 Depth=1
.Lxtalabel77:
	#DEBUG_VALUE: spi_master_async:i <- R7
	#DEBUG_VALUE: spi_master_async:num_clients <- R6
	#DEBUG_VALUE: spi_master_async:sclk <- [SP+112]
	#DEBUG_VALUE: spi_master_async:mosi <- [SP+104]
	#DEBUG_VALUE: spi_master_async:cb0 <- [SP+52]
	#DEBUG_VALUE: spi_master_async:cb1 <- [SP+56]
	#DEBUG_VALUE: spi_master_async:p_ss <- R1
	#DEBUG_VALUE: spi_master_async:num_slaves <- R3
	#DEBUG_VALUE: spi_master_async:miso <- undef
	#DEBUG_VALUE: ss_deassert_time <- R5
	#DEBUG_VALUE: time <- R4
	ldw r0, cp[.LCPI32_1]
	.loc	1 254 0                 # C:/Users/user/workspace/lib_spi/src/spi_async.xc:254:0
	{
		and r0, r5, r0
		nop
	}
.Ltmp400:
	#DEBUG_VALUE: spi_master_async:num_slaves <- [SP+84]
	#DEBUG_VALUE: spi_master_async:p_ss <- [SP+88]
	.loc	1 254 0                 # C:/Users/user/workspace/lib_spi/src/spi_async.xc:254:0
.Lxta.call_labels15:
	bl delay_ticks
	{
		nop
		ldw r3, sp[21]
	}
.Ltmp401:
	#DEBUG_VALUE: spi_master_async:num_slaves <- R3
	{
		nop
		ldw r1, sp[22]
	}
.Ltmp402:
	#DEBUG_VALUE: spi_master_async:p_ss <- R1
.LBB32_50:                              # %afterboundcheck563
                                        #   in Loop: Header=BB32_7 Depth=1
.Lxtalabel78:
	#DEBUG_VALUE: spi_master_async:i <- R7
	#DEBUG_VALUE: spi_master_async:num_clients <- R6
	#DEBUG_VALUE: spi_master_async:sclk <- [SP+112]
	#DEBUG_VALUE: spi_master_async:mosi <- [SP+104]
	#DEBUG_VALUE: spi_master_async:cb0 <- [SP+52]
	#DEBUG_VALUE: spi_master_async:cb1 <- [SP+56]
	#DEBUG_VALUE: spi_master_async:p_ss <- R1
	#DEBUG_VALUE: spi_master_async:num_slaves <- R3
	#DEBUG_VALUE: spi_master_async:miso <- undef
	#DEBUG_VALUE: ss_deassert_time <- R5
	#DEBUG_VALUE: time <- R4
	.loc	1 255 0                 # C:/Users/user/workspace/lib_spi/src/spi_async.xc:255:0
	{
		add r0, r4, r5
		nop
	}
.Ltmp403:
	#DEBUG_VALUE: time <- R0
	.loc	1 256 48                # C:/Users/user/workspace/lib_spi/src/spi_async.xc:256:48
	{
		setpt res[r9], r0
		nop
	}
	.loc	1 256 48                # C:/Users/user/workspace/lib_spi/src/spi_async.xc:256:48
.Lxta.endpoint_labels15:
	{
		out res[r9], r10
		ldw r4, sp[23]
	}
