	.text
	.file	"src_mrhf_ssrc.c"

	.weak       _fptrgroup.G1.group
	.weak       _fptrgroup.G1.nstackwords.group
	.weak       _fptrgroup.G1.maxcores.group
	.weak       _fptrgroup.G1.maxtimers.group
	.weak       _fptrgroup.G1.maxchanends.group
	.max_reduce _fptrgroup.G1.nstackwords, _fptrgroup.G1.nstackwords.group, 0
	.max_reduce _fptrgroup.G1.maxcores, _fptrgroup.G1.maxcores.group, 0
	.max_reduce _fptrgroup.G1.maxtimers, _fptrgroup.G1.maxtimers.group, 0
	.max_reduce _fptrgroup.G1.maxchanends, _fptrgroup.G1.maxchanends.group, 0


	.text
	.globl	SSRC_init
	.align	4
	.type	SSRC_init,@function
	.cc_top SSRC_init.function,SSRC_init
SSRC_init:
.Lfunc_begin0:
	.loc	2 156 0
	.cfi_startproc
	.issue_mode dual
	{
		nop
		dualentsp 14
	}
.Ltmp0:
	.cfi_def_cfa_offset 56
.Ltmp1:
	.cfi_offset 15, 0
	std r5, r4, sp[3]
.Ltmp2:
	.cfi_offset 4, -32
.Ltmp3:
	.cfi_offset 5, -28
	std r7, r6, sp[4]
.Ltmp4:
	.cfi_offset 6, -24
.Ltmp5:
	.cfi_offset 7, -20
	std r9, r8, sp[5]
.Ltmp6:
	.cfi_offset 8, -16
.Ltmp7:
	.cfi_offset 9, -12
.Ltmp8:
	.cfi_offset 10, -8
.Ltmp9:
	{
		mov r5, r0
		stw r10, sp[12]
	}
.Ltmp10:
	ldc r0, 252
	.loc	2 163 8 prologue_end
.Ltmp11:
	{
		add r9, r5, r0
		nop
	}
	.loc	2 163 8
	{
		mkmsk r4, 1
		ldw r7, r9[0]
	}
	bf r7, .LBB0_29
.Ltmp12:
	ldc r1, 256
	.loc	2 167 8
.Ltmp13:
	{
		add r10, r5, r1
		nop
	}
	{
		nop
		ldw r1, r10[0]
	}
	bf r1, .LBB0_29
.Ltmp14:
	.loc	2 171 9
	{
		ldc r2, 5
		ldw r1, r5[5]
	}
	.loc	2 171 9
	{
		lsu r3, r2, r1
		nop
	}
	bt r3, .LBB0_29
.Ltmp15:
	{
		nop
		ldw r3, r5[8]
	}
	.loc	2 173 9
.Ltmp16:
	{
		lsu r2, r2, r3
		nop
	}
	bt r2, .LBB0_29
.Ltmp17:
	{
		nop
		ldw r2, r5[4]
	}
	bf r2, .LBB0_29
.Ltmp18:
	{
		mov r11, r2
		nop
	}
	{
		zext r11, 2
		nop
	}
	bt r11, .LBB0_29
.Ltmp19:
	ldc r11, 96
	.loc	2 189 5
	mul r1, r1, r11
	ldaw r11, dp[sFiltersIDs]
	{
		add r1, r11, r1
		shl r3, r3, 4
	}
	{
		add r8, r1, r3
		nop
	}
	.loc	2 189 5
	{
		ldc r0, 12
		ldw r1, r8[0]
	}
	.loc	2 189 5
	mul r1, r1, r0
	ldaw r0, dp[sSSRCFirDescriptor]
	{
		add r1, r0, r1
		nop
	}
.Ltmp20:
	.loc	2 191 5
	ldaw r0, r5[10]
	{
		ldc r3, 48
		nop
	}
	.loc	2 191 5
	{
		add r3, r5, r3
		nop
	}
	{
		nop
		stw r2, r3[0]
	}
	.loc	2 192 5
	{
		ldc r3, 52
		ldw r2, r5[2]
	}
	.loc	2 192 5
	{
		add r3, r5, r3
		nop
	}
	{
		nop
		stw r2, r3[0]
	}
	{
		nop
		ldw r3, r8[0]
	}
	.loc	2 195 9
.Ltmp21:
	{
		sub r3, r3, 9
		ldc r11, 2
	}
	.loc	2 195 9
	{
		lsu r3, r3, r11
		nop
	}
	ldc r11, 1288
	.loc	2 195 9
	bt r3, .LBB0_7
.Ltmp22:
	.loc	2 198 9
	{
		add r11, r7, 8
		nop
	}
	bu .LBB0_9
.Ltmp23:
.LBB0_7:
	.loc	2 196 9
	{
		add r11, r7, r11
		nop
	}
.Ltmp24:
.LBB0_9:
	ldc r3, 72
	.loc	2 198 9
	{
		add r3, r5, r3
		nop
	}
	{
		nop
		stw r11, r3[0]
	}
	{
		nop
		ldw r3, r8[1]
	}
.Ltmp25:
	.loc	2 201 8
	{
		eq r3, r3, 10
		nop
	}
	.loc	2 201 8
	{
		shl r3, r2, r3
		nop
	}
	ldc r2, 64
	.loc	2 205 9
	{
		add r7, r5, r2
		nop
	}
	{
		mov r6, r0
		stw r3, r7[0]
	}
.Ltmp26:
	.loc	2 208 8
	bl FIR_init_from_desc
.Ltmp27:
	bt r0, .LBB0_29
.Ltmp28:
	{
		add r11, r8, 4
		stw r6, sp[3]
	}
	{
		nop
		stw r11, sp[5]
	}
	.loc	2 214 5
	{
		ldc r1, 12
		ldw r0, r11[0]
	}
	.loc	2 214 5
	mul r0, r0, r1
	.loc	2 189 5
	ldaw r1, dp[sSSRCFirDescriptor]
.Ltmp29:
	.loc	2 214 5
	{
		add r1, r1, r0
		ldc r0, 60
	}
.Ltmp30:
	.loc	2 217 5
	{
		add r0, r5, r0
		nop
	}
	{
		nop
		stw r0, sp[4]
	}
	{
		nop
		ldw r3, r0[0]
	}
	ldc r2, 104
	.loc	2 217 5
	{
		add r0, r5, r2
		nop
	}
	ldc r2, 112
	.loc	2 217 5
	{
		add r2, r5, r2
		nop
	}
	{
		nop
		stw r3, r2[0]
	}
	{
		nop
		ldw r3, r7[0]
	}
	ldc r2, 116
	.loc	2 218 5
	{
		add r2, r5, r2
		nop
	}
	{
		nop
		stw r3, r2[0]
	}
	{
		nop
		ldw r2, r11[0]
	}
	.loc	2 221 9
.Ltmp31:
	{
		sub r2, r2, 9
		ldc r3, 2
	}
	.loc	2 221 9
	{
		lsu r2, r2, r3
		ldw r3, r9[0]
	}
	.loc	2 221 9
	bt r2, .LBB0_11
.Ltmp32:
	.loc	2 224 9
	{
		add r3, r3, 8
		nop
	}
	bu .LBB0_13
.Ltmp33:
.LBB0_11:
	ldc r2, 1288
	.loc	2 222 9
	{
		add r3, r3, r2
		nop
	}
.Ltmp34:
.LBB0_13:
	ldc r2, 136
	.loc	2 224 9
	{
		add r2, r5, r2
		nop
	}
	{
		nop
		stw r3, r2[0]
	}
	{
		nop
		ldw r3, r5[2]
	}
	ldc r2, 128
.Ltmp35:
	.loc	2 227 5
	{
		add r6, r5, r2
		nop
	}
	.loc	2 227 5
	{
		mov r7, r0
		stw r3, r6[0]
	}
	.loc	2 230 8
.Ltmp36:
	bl FIR_init_from_desc
.Ltmp37:
	bt r0, .LBB0_29
.Ltmp38:
	{
		nop
		stw r7, sp[2]
	}
	.loc	2 236 5
	{
		ldc r1, 12
		ldw r0, r8[2]
	}
	.loc	2 236 5
	mul r0, r0, r1
	ldaw r1, dp[sPPFirDescriptor]
.Ltmp39:
	{
		add r1, r1, r0
		ldw r0, sp[5]
	}
.Ltmp40:
	{
		nop
		ldw r0, r0[0]
	}
	.loc	2 239 8
.Ltmp41:
	{
		eq r2, r0, 11
		nop
	}
	ldc r7, 124
	{
		nop
		ldw r0, sp[4]
	}
	bt r2, .LBB0_16
.Ltmp42:
	.loc	2 242 9
	{
		add r0, r5, r7
		nop
	}
.Ltmp43:
.LBB0_16:
	{
		nop
		ldw r0, r0[0]
	}
	ldc r2, 168
	.loc	2 242 9
	{
		add r3, r5, r2
		nop
	}
	ldc r2, 176
	{
		add r2, r5, r2
		nop
	}
	{
		nop
		stw r0, r2[0]
	}
.Ltmp44:
	.loc	2 243 5
	{
		mov r6, r3
		ldw r0, r6[0]
	}
	ldc r2, 180
	.loc	2 243 5
	{
		add r2, r5, r2
		nop
	}
	{
		nop
		stw r0, r2[0]
	}
	{
		nop
		ldw r0, r9[0]
	}
	ldc r2, 1544
	.loc	2 246 5
	{
		add r0, r0, r2
		nop
	}
	ldc r2, 196
	.loc	2 246 5
	{
		add r2, r5, r2
		nop
	}
	{
		nop
		stw r0, r2[0]
	}
	{
		nop
		ldw r0, r5[2]
	}
	ldc r2, 192
	.loc	2 249 5
	{
		add r2, r5, r2
		nop
	}
	{
		nop
		stw r0, r2[0]
	}
	{
		nop
		ldw r0, r8[3]
	}
	ldc r2, 232
	.loc	2 252 5
	{
		add r2, r5, r2
		nop
	}
	.loc	2 252 5
	{
		mov r0, r6
		stw r0, r2[0]
	}
	.loc	2 255 8
.Ltmp45:
	bl PPFIR_init_from_desc
.Ltmp46:
	bt r0, .LBB0_29
.Ltmp47:
	.loc	2 236 5
	{
		add r2, r8, 8
		ldw r3, r10[0]
	}
	ldc r0, 108
	.loc	2 264 5
	{
		add r0, r5, r0
		nop
	}
	{
		nop
		stw r3, r0[0]
	}
	ldc r0, 172
	.loc	2 265 5
	{
		add r0, r5, r0
		nop
	}
	.loc	2 265 5
	{
		ldc r0, 56
		stw r3, r0[0]
	}
	.loc	2 267 5
	{
		add r11, r5, r0
		nop
	}
	{
		nop
		stw r3, r11[0]
	}
	ldc r1, 120
	.loc	2 268 5
	{
		add r1, r5, r1
		nop
	}
	{
		nop
		stw r3, r1[0]
	}
	{
		nop
		ldw r2, r2[0]
	}
	.loc	2 274 8
.Ltmp48:
	{
		eq r2, r2, 2
		nop
	}
	.loc	2 274 8
	bf r2, .LBB0_18
.Ltmp49:
	{
		nop
		ldw r0, sp[5]
	}
	{
		nop
		ldw r2, r0[0]
	}
	.loc	2 282 12
.Ltmp50:
	{
		eq r2, r2, 11
		ldw r0, sp[3]
	}
	.loc	2 282 12
	bf r2, .LBB0_20
.Ltmp51:
	{
		nop
		stw r11, r5[9]
	}
	{
		nop
		ldw r1, r8[0]
	}
	.loc	2 294 16
.Ltmp52:
	{
		eq r1, r1, 11
		nop
	}
	.loc	2 294 16
	bf r1, .LBB0_22
.Ltmp53:
	.loc	2 177 8
	ldaw r1, r5[4]
	bu .LBB0_24
.Ltmp54:
.LBB0_18:
	ldc r0, 184
	.loc	2 277 9
.Ltmp55:
	{
		add r0, r5, r0
		nop
	}
	{
		nop
		stw r0, r5[9]
	}
	ldc r0, 188
	.loc	2 278 9
	{
		add r0, r5, r0
		nop
	}
	{
		nop
		stw r0, r5[7]
	}
	{
		nop
		ldw r0, sp[3]
	}
	bu .LBB0_25
.Ltmp56:
.LBB0_20:
	.loc	2 285 13
	{
		add r1, r5, r7
		stw r1, r5[9]
	}
	bu .LBB0_24
.Ltmp57:
.LBB0_22:
	{
		nop
		ldw r1, sp[4]
	}
.Ltmp58:
.LBB0_24:
	{
		nop
		stw r1, r5[7]
	}
.LBB0_25:
.Ltmp59:
	.loc	2 321 8
	bl FIR_sync
	bt r0, .LBB0_29
.Ltmp60:
	{
		nop
		ldw r0, sp[2]
	}
	.loc	2 323 8
.Ltmp61:
	bl FIR_sync
	bt r0, .LBB0_29
.Ltmp62:
	.loc	2 325 8
	{
		mov r0, r6
		nop
	}
	bl PPFIR_sync
	bt r0, .LBB0_29
.Ltmp63:
	ldc r0, 248
	.loc	2 329 5
	{
		add r0, r5, r0
		nop
	}
	{
		nop
		ldw r0, r0[0]
	}
	{
		nop
		ldw r1, r9[0]
	}
	ldc r2, 1672
	.loc	2 329 5
	{
		add r1, r1, r2
		nop
	}
	.loc	2 329 5
	{
		ldc r4, 0
		stw r0, r1[0]
	}
.Ltmp64:
.LBB0_29:
	.loc	2 308 1
	{
		mov r0, r4
		ldw r10, sp[12]
	}
	ldd r9, r8, sp[5]
	ldd r7, r6, sp[4]
	ldd r5, r4, sp[3]
	{
		nop
		retsp 14
	}
	# RETURN_REG_HOLDER
.Ltmp65:
	.cc_bottom SSRC_init.function
	.set	SSRC_init.nstackwords,((FIR_init_from_desc.nstackwords $M PPFIR_init_from_desc.nstackwords $M FIR_sync.nstackwords $M PPFIR_sync.nstackwords) + 14)
	.globl	SSRC_init.nstackwords
	.set	SSRC_init.maxcores,FIR_init_from_desc.maxcores $M FIR_sync.maxcores $M PPFIR_init_from_desc.maxcores $M PPFIR_sync.maxcores $M 1
	.globl	SSRC_init.maxcores
	.set	SSRC_init.maxtimers,FIR_init_from_desc.maxtimers $M FIR_sync.maxtimers $M PPFIR_init_from_desc.maxtimers $M PPFIR_sync.maxtimers $M 0
	.globl	SSRC_init.maxtimers
	.set	SSRC_init.maxchanends,FIR_init_from_desc.maxchanends $M FIR_sync.maxchanends $M PPFIR_init_from_desc.maxchanends $M PPFIR_sync.maxchanends $M 0
	.globl	SSRC_init.maxchanends
.Ltmp66:
	.size	SSRC_init, .Ltmp66-SSRC_init
.Lfunc_end0:
	.cfi_endproc

	.globl	SSRC_sync
	.align	4
	.type	SSRC_sync,@function
	.cc_top SSRC_sync.function,SSRC_sync
SSRC_sync:
.Lfunc_begin1:
	.loc	2 319 0
	.cfi_startproc
	.issue_mode dual
	{
		nop
		dualentsp 4
	}
.Ltmp67:
	.cfi_def_cfa_offset 16
.Ltmp68:
	.cfi_offset 15, 0
	std r5, r4, sp[1]
.Ltmp69:
	.cfi_offset 4, -8
.Ltmp70:
	.cfi_offset 5, -4
	{
		mov r4, r0
		nop
	}
.Ltmp71:
	.loc	2 321 8 prologue_end
	ldaw r0, r4[10]
	.loc	2 321 8
	bl FIR_sync
	{
		mkmsk r5, 1
		nop
	}
	bt r0, .LBB1_4
.Ltmp72:
	ldc r0, 104
	.loc	2 323 8
.Ltmp73:
	{
		add r0, r4, r0
		nop
	}
	.loc	2 323 8
	bl FIR_sync
	bt r0, .LBB1_4
.Ltmp74:
	ldc r0, 168
	.loc	2 325 8
.Ltmp75:
	{
		add r0, r4, r0
		nop
	}
	.loc	2 325 8
	bl PPFIR_sync
	bt r0, .LBB1_4
.Ltmp76:
	ldc r0, 248
	.loc	2 329 5
	{
		add r0, r4, r0
		nop
	}
	{
		nop
		ldw r0, r0[0]
	}
	ldc r1, 252
	.loc	2 329 5
	{
		add r1, r4, r1
		nop
	}
	{
		nop
		ldw r1, r1[0]
	}
	ldc r2, 1672
	.loc	2 329 5
	{
		add r1, r1, r2
		nop
	}
	.loc	2 329 5
	{
		ldc r5, 0
		stw r0, r1[0]
	}
.Ltmp77:
.LBB1_4:
	.loc	2 332 1
	{
		mov r0, r5
		nop
	}
	ldd r5, r4, sp[1]
	{
		nop
		retsp 4
	}
	# RETURN_REG_HOLDER
.Ltmp78:
	.cc_bottom SSRC_sync.function
	.set	SSRC_sync.nstackwords,((FIR_sync.nstackwords $M PPFIR_sync.nstackwords) + 4)
	.globl	SSRC_sync.nstackwords
	.set	SSRC_sync.maxcores,FIR_sync.maxcores $M PPFIR_sync.maxcores $M 1
	.globl	SSRC_sync.maxcores
	.set	SSRC_sync.maxtimers,FIR_sync.maxtimers $M PPFIR_sync.maxtimers $M 0
	.globl	SSRC_sync.maxtimers
	.set	SSRC_sync.maxchanends,FIR_sync.maxchanends $M PPFIR_sync.maxchanends $M 0
	.globl	SSRC_sync.maxchanends
.Ltmp79:
	.size	SSRC_sync, .Ltmp79-SSRC_sync
.Lfunc_end1:
	.cfi_endproc

	.globl	SSRC_proc
	.align	4
	.type	SSRC_proc,@function
	.cc_top SSRC_proc.function,SSRC_proc
SSRC_proc:
.Lfunc_begin2:
	.loc	2 346 0
	.cfi_startproc
	.issue_mode dual
	{
		nop
		dualentsp 4
	}
.Ltmp80:
	.cfi_def_cfa_offset 16
.Ltmp81:
	.cfi_offset 15, 0
	std r5, r4, sp[1]
.Ltmp82:
	.cfi_offset 4, -8
.Ltmp83:
	.cfi_offset 5, -4
	{
		mov r4, r0
		nop
	}
.Ltmp84:
	{
		nop
		ldw r0, r4[3]
	}
	{
		nop
		stw r0, r4[11]
	}
	{
		nop
		ldw r0, r4[6]
	}
	{
		nop
		ldw r1, r4[9]
	}
	{
		nop
		stw r0, r1[0]
	}
.Ltmp85:
	{
		nop
		ldw r0, r4[10]
	}
	.loc	2 386 8 prologue_end
.Ltmp86:
	bf r0, .LBB2_1
.Ltmp87:
	.loc	2 349 5
	ldaw r0, r4[10]
	ldc r1, 68
	.loc	2 396 8
.Ltmp88:
	{
		add r1, r4, r1
		nop
	}
	{
		nop
		ldw r1, r1[0]
	}
	{
		nop
		bla r1
	}
	{
		mkmsk r5, 1
		nop
	}
	bt r0, .LBB2_11
.Ltmp89:
	ldc r0, 104
	.loc	2 401 8
.Ltmp90:
	{
		add r0, r4, r0
		nop
	}
	{
		nop
		ldw r1, r0[0]
	}
	.loc	2 401 8
	{
		eq r1, r1, 1
		nop
	}
	bf r1, .LBB2_7
.Ltmp91:
	ldc r1, 132
	.loc	2 404 12
.Ltmp92:
	{
		add r1, r4, r1
		nop
	}
	{
		nop
		ldw r1, r1[0]
	}
	{
		nop
		bla r1
	}
	bt r0, .LBB2_11
	bu .LBB2_7
.Ltmp93:
.LBB2_1:
	{
		nop
		ldw r0, r4[4]
	}
	{
		nop
		ldw r1, r4[2]
	}
	.loc	2 389 9
.Ltmp94:
	mul r0, r1, r0
	bf r0, .LBB2_7
.Ltmp95:
	{
		nop
		ldw r0, r4[3]
	}
.Ltmp96:
	.loc	2 381 5
	{
		ldc r2, 0
		ldw r1, r4[6]
	}
.Ltmp97:
.LBB2_3:
	{
		nop
		ldw r3, r0[r2]
	}
	.loc	2 390 13
.Ltmp98:
	stw r3, r1[r2]
	{
		nop
		ldw r3, r4[2]
	}
.Ltmp99:
	.loc	2 389 78
	{
		add r2, r3, r2
		ldw r11, r4[4]
	}
.Ltmp100:
	.loc	2 389 9
	mul r3, r11, r3
	.loc	2 389 9
	{
		lsu r3, r2, r3
		nop
	}
	bt r3, .LBB2_3
.Ltmp101:
.LBB2_7:
	ldc r0, 168
	.loc	2 423 8
.Ltmp102:
	{
		add r0, r4, r0
		nop
	}
	{
		nop
		ldw r1, r0[0]
	}
	.loc	2 423 8
	{
		eq r1, r1, 1
		nop
	}
	bf r1, .LBB2_10
.Ltmp103:
	.loc	2 426 12
	bl PPFIR_proc
	bf r0, .LBB2_10
.Ltmp104:
	{
		mkmsk r5, 1
		nop
	}
	bu .LBB2_11
.LBB2_10:
.Ltmp105:
	.loc	2 364 9
	{
		mov r0, r4
		nop
	}
	bl SSRC_proc_dither
	{
		ldc r5, 0
		nop
	}
.Ltmp106:
.LBB2_11:
	.loc	2 368 1
	{
		mov r0, r5
		nop
	}
	ldd r5, r4, sp[1]
	{
		nop
		retsp 4
	}
	# RETURN_REG_HOLDER
.Ltmp107:
	.cc_bottom SSRC_proc.function
	.set	SSRC_proc.nstackwords,((PPFIR_proc.nstackwords $M SSRC_proc_dither.nstackwords $M _fptrgroup.G1.nstackwords) + 4)
	.globl	SSRC_proc.nstackwords
	.set	SSRC_proc.maxcores,PPFIR_proc.maxcores $M SSRC_proc_dither.maxcores $M _fptrgroup.G1.maxcores $M 1
	.globl	SSRC_proc.maxcores
	.set	SSRC_proc.maxtimers,PPFIR_proc.maxtimers $M SSRC_proc_dither.maxtimers $M _fptrgroup.G1.maxtimers $M 0
	.globl	SSRC_proc.maxtimers
	.set	SSRC_proc.maxchanends,PPFIR_proc.maxchanends $M SSRC_proc_dither.maxchanends $M _fptrgroup.G1.maxchanends $M 0
	.globl	SSRC_proc.maxchanends
.Ltmp108:
	.size	SSRC_proc, .Ltmp108-SSRC_proc
.Lfunc_end2:
	.cfi_endproc

	.globl	SSRC_proc_F1_F2
	.align	4
	.type	SSRC_proc_F1_F2,@function
	.cc_top SSRC_proc_F1_F2.function,SSRC_proc_F1_F2
SSRC_proc_F1_F2:
.Lfunc_begin3:
	.loc	2 379 0
	.cfi_startproc
	.issue_mode dual
	{
		nop
		dualentsp 4
	}
.Ltmp109:
	.cfi_def_cfa_offset 16
.Ltmp110:
	.cfi_offset 15, 0
	std r5, r4, sp[1]
.Ltmp111:
	.cfi_offset 4, -8
.Ltmp112:
	.cfi_offset 5, -4
	{
		mov r5, r0
		nop
	}
.Ltmp113:
	{
		nop
		ldw r0, r5[10]
	}
	.loc	2 386 8 prologue_end
.Ltmp114:
	bf r0, .LBB3_1
.Ltmp115:
	.loc	2 386 8
	ldaw r0, r5[10]
	ldc r1, 68
.Ltmp116:
	.loc	2 396 8
	{
		add r1, r5, r1
		nop
	}
	{
		nop
		ldw r1, r1[0]
	}
	{
		nop
		bla r1
	}
	{
		mkmsk r4, 1
		nop
	}
	bt r0, .LBB3_8
.Ltmp117:
	ldc r0, 104
	.loc	2 401 8
.Ltmp118:
	{
		add r0, r5, r0
		nop
	}
	{
		nop
		ldw r1, r0[0]
	}
	.loc	2 401 8
	{
		eq r1, r1, 1
		nop
	}
	bf r1, .LBB3_7
.Ltmp119:
	ldc r1, 132
	.loc	2 404 12
.Ltmp120:
	{
		add r1, r5, r1
		nop
	}
	{
		nop
		ldw r1, r1[0]
	}
	{
		nop
		bla r1
	}
	bt r0, .LBB3_8
.Ltmp121:
.LBB3_7:
	{
		ldc r4, 0
		nop
	}
	bu .LBB3_8
.LBB3_1:
.Ltmp122:
	{
		nop
		ldw r0, r5[4]
	}
	{
		nop
		ldw r1, r5[2]
	}
	.loc	2 389 9
.Ltmp123:
	mul r0, r1, r0
	{
		ldc r4, 0
		nop
	}
	bf r0, .LBB3_8
.Ltmp124:
	{
		nop
		ldw r0, r5[3]
	}
.Ltmp125:
	.loc	2 381 5
	{
		mov r2, r4
		ldw r1, r5[6]
	}
.Ltmp126:
.LBB3_3:
	{
		nop
		ldw r3, r0[r2]
	}
	.loc	2 390 13
.Ltmp127:
	stw r3, r1[r2]
	{
		nop
		ldw r3, r5[2]
	}
.Ltmp128:
	.loc	2 389 78
	{
		add r2, r3, r2
		ldw r11, r5[4]
	}
.Ltmp129:
	.loc	2 389 9
	mul r3, r3, r11
	.loc	2 389 9
	{
		lsu r3, r2, r3
		nop
	}
	bt r3, .LBB3_3
.Ltmp130:
.LBB3_8:
	.loc	2 409 1
	{
		mov r0, r4
		nop
	}
	ldd r5, r4, sp[1]
	{
		nop
		retsp 4
	}
	# RETURN_REG_HOLDER
.Ltmp131:
	.cc_bottom SSRC_proc_F1_F2.function
	.set	SSRC_proc_F1_F2.nstackwords,(_fptrgroup.G1.nstackwords + 4)
	.globl	SSRC_proc_F1_F2.nstackwords
	.set	SSRC_proc_F1_F2.maxcores,_fptrgroup.G1.maxcores $M 1
	.globl	SSRC_proc_F1_F2.maxcores
	.set	SSRC_proc_F1_F2.maxtimers,_fptrgroup.G1.maxtimers $M 0
	.globl	SSRC_proc_F1_F2.maxtimers
	.set	SSRC_proc_F1_F2.maxchanends,_fptrgroup.G1.maxchanends $M 0
	.globl	SSRC_proc_F1_F2.maxchanends
.Ltmp132:
	.size	SSRC_proc_F1_F2, .Ltmp132-SSRC_proc_F1_F2
.Lfunc_end3:
	.cfi_endproc

	.globl	SSRC_proc_F3
	.align	4
	.type	SSRC_proc_F3,@function
	.cc_top SSRC_proc_F3.function,SSRC_proc_F3
SSRC_proc_F3:
.Lfunc_begin4:
	.loc	2 420 0
	.cfi_startproc
	.issue_mode dual
	{
		nop
		dualentsp 2
	}
.Ltmp133:
	.cfi_def_cfa_offset 8
.Ltmp134:
	.cfi_offset 15, 0
	ldc r1, 168
	.loc	2 423 8 prologue_end
.Ltmp135:
	{
		add r0, r0, r1
		nop
	}
.Ltmp136:
	{
		nop
		ldw r1, r0[0]
	}
	.loc	2 423 8
	{
		eq r1, r1, 1
		nop
	}
	bf r1, .LBB4_3
	.loc	2 426 12
.Ltmp137:
	bl PPFIR_proc
	bf r0, .LBB4_3
.Ltmp138:
	{
		mkmsk r0, 1
		retsp 2
	}
	.loc	2 431 1
	# RETURN_REG_HOLDER
.LBB4_3:
	{
		ldc r0, 0
		retsp 2
	}
	# RETURN_REG_HOLDER
.Ltmp139:
	.cc_bottom SSRC_proc_F3.function
	.set	SSRC_proc_F3.nstackwords,(PPFIR_proc.nstackwords + 2)
	.globl	SSRC_proc_F3.nstackwords
	.set	SSRC_proc_F3.maxcores,PPFIR_proc.maxcores $M 1
	.globl	SSRC_proc_F3.maxcores
	.set	SSRC_proc_F3.maxtimers,PPFIR_proc.maxtimers $M 0
	.globl	SSRC_proc_F3.maxtimers
	.set	SSRC_proc_F3.maxchanends,PPFIR_proc.maxchanends $M 0
	.globl	SSRC_proc_F3.maxchanends
.Ltmp140:
	.size	SSRC_proc_F3, .Ltmp140-SSRC_proc_F3
.Lfunc_end4:
	.cfi_endproc

	.section	.cp.rodata.cst4,"aMc",@progbits,4
	.cc_top .LCPI5_0.data,.LCPI5_0
	.align	4
	.type	.LCPI5_0,@object
	.size	.LCPI5_0, 4
.LCPI5_0:
	.long	1664525
	.cc_bottom .LCPI5_0.data
	.cc_top .LCPI5_1.data,.LCPI5_1
	.align	4
	.type	.LCPI5_1,@object
	.size	.LCPI5_1, 4
.LCPI5_1:
	.long	4294967232
	.cc_bottom .LCPI5_1.data
	.cc_top .LCPI5_2.data,.LCPI5_2
	.align	4
	.type	.LCPI5_2,@object
	.size	.LCPI5_2, 4
.LCPI5_2:
	.long	2147483647
	.cc_bottom .LCPI5_2.data
	.cc_top .LCPI5_3.data,.LCPI5_3
	.align	4
	.type	.LCPI5_3,@object
	.size	.LCPI5_3, 4
.LCPI5_3:
	.long	4294967040
	.cc_bottom .LCPI5_3.data
	.text
	.globl	SSRC_proc_dither
	.align	4
	.type	SSRC_proc_dither,@function
	.cc_top SSRC_proc_dither.function,SSRC_proc_dither
SSRC_proc_dither:
.Lfunc_begin5:
	.loc	2 442 0
	.cfi_startproc
	.issue_mode dual
	{
		nop
		dualentsp 14
	}
.Ltmp141:
	.cfi_def_cfa_offset 56
.Ltmp142:
	.cfi_offset 15, 0
	std r5, r4, sp[3]
.Ltmp143:
	.cfi_offset 4, -32
.Ltmp144:
	.cfi_offset 5, -28
	std r7, r6, sp[4]
.Ltmp145:
	.cfi_offset 6, -24
.Ltmp146:
	.cfi_offset 7, -20
	std r9, r8, sp[5]
.Ltmp147:
	.cfi_offset 8, -16
.Ltmp148:
	.cfi_offset 9, -12
	{
		nop
		stw r10, sp[12]
	}
.Ltmp149:
	.cfi_offset 10, -8
	ldc r1, 244
.Ltmp150:
	.loc	2 451 8 prologue_end
	{
		add r2, r0, r1
		mov r1, r0
	}
.Ltmp151:
	{
		nop
		ldw r0, r2[0]
	}
	.loc	2 451 8
	{
		eq r0, r0, 1
		nop
	}
	bf r0, .LBB5_6
.Ltmp152:
	ldc r0, 252
	{
		mov r2, r1
		nop
	}
.Ltmp153:
	.loc	2 456 9
	{
		add r11, r2, r0
		stw r2, sp[3]
	}
	{
		nop
		ldw r0, r11[0]
	}
	ldc r3, 1672
	.loc	2 456 9
	{
		add r1, r0, r3
		nop
	}
	{
		nop
		ldw r9, r1[0]
	}
.Ltmp154:
	{
		nop
		ldw r1, r2[7]
	}
	{
		nop
		ldw r1, r1[0]
	}
	{
		nop
		ldw r2, r2[2]
	}
.Ltmp155:
	.loc	2 459 9
	mul r1, r2, r1
	bf r1, .LBB5_5
.Ltmp156:
	{
		nop
		stw r11, sp[2]
	}
	{
		nop
		ldw r0, sp[3]
	}
.Ltmp157:
	.loc	2 454 9
	{
		ldc r10, 0
		ldw r2, r0[6]
	}
.Ltmp158:
	ldw r6, cp[.LCPI5_0]
	ldc r5, 32767
	{
		ldaw r4, sp[4]
		nop
	}
.Ltmp159:
.LBB5_3:
	.loc	2 464 13
	mul r0, r9, r6
.Ltmp160:
	.loc	2 465 13
	{
		add r0, r0, r5
		nop
	}
.Ltmp161:
	.loc	2 466 13
	{
		shr r1, r0, 16
		nop
	}
	.loc	2 466 13
	{
		zext r1, 7
		nop
	}
	.loc	2 468 13
	mul r0, r0, r6
	.loc	2 469 13
	{
		add r9, r0, r5
		nop
	}
	.loc	2 470 13
	{
		shr r0, r9, 16
		nop
	}
	.loc	2 470 13
	{
		zext r0, 7
		nop
	}
	.loc	2 466 13
	{
		add r0, r1, r0
		nop
	}
	ldw r1, cp[.LCPI5_1]
.Ltmp162:
	.loc	2 470 13
	{
		add r0, r0, r1
		ldc r1, 0
	}
.Ltmp163:
	.loc	2 474 13
	std r0, r1, sp[2]
	{
		mov r7, r2
		nop
	}
.Ltmp164:
	.loc	2 475 13
	ldaw r8, r7[r10]
.Ltmp165:
	.loc	2 475 13
	{
		mov r0, r4
		ldw r1, r7[r10]
	}
	ldw r2, cp[.LCPI5_2]
	.loc	2 475 13
	bl MACC
	.loc	2 478 25
	{
		mov r0, r4
		nop
	}
	bl LSAT30
	.loc	2 481 13
	ldd r2, r1, sp[2]
	.loc	2 481 13
	{
		mov r0, r8
		nop
	}
	bl EXT30
	{
		nop
		ldw r0, r7[r10]
	}
	ldw r1, cp[.LCPI5_3]
	.loc	2 484 13
	{
		and r0, r0, r1
		nop
	}
	.loc	2 484 13
	stw r0, r7[r10]
.Ltmp166:
	{
		mov r2, r7
		ldw r1, sp[3]
	}
.Ltmp167:
	{
		nop
		ldw r0, r1[2]
	}
.Ltmp168:
	.loc	2 459 83
	{
		add r10, r0, r10
		ldw r1, r1[7]
	}
.Ltmp169:
	{
		nop
		ldw r1, r1[0]
	}
	.loc	2 459 9
	mul r0, r0, r1
	.loc	2 459 9
	{
		lsu r0, r10, r0
		nop
	}
	.loc	2 459 9
	bt r0, .LBB5_3
.Ltmp170:
	{
		nop
		ldw r0, sp[2]
	}
	{
		nop
		ldw r0, r0[0]
	}
	ldc r3, 1672
.LBB5_5:
.Ltmp171:
	.loc	2 489 9
	{
		add r0, r0, r3
		nop
	}
	{
		nop
		stw r9, r0[0]
	}
.Ltmp172:
.LBB5_6:
	{
		ldc r0, 0
		ldw r10, sp[12]
	}
	.loc	2 492 5
	ldd r9, r8, sp[5]
	ldd r7, r6, sp[4]
	ldd r5, r4, sp[3]
	{
		nop
		retsp 14
	}
	# RETURN_REG_HOLDER
.Ltmp173:
	.cc_bottom SSRC_proc_dither.function
	.set	SSRC_proc_dither.nstackwords,((MACC.nstackwords $M LSAT30.nstackwords $M EXT30.nstackwords) + 14)
	.globl	SSRC_proc_dither.nstackwords
	.set	SSRC_proc_dither.maxcores,EXT30.maxcores $M LSAT30.maxcores $M MACC.maxcores $M 1
	.globl	SSRC_proc_dither.maxcores
	.set	SSRC_proc_dither.maxtimers,EXT30.maxtimers $M LSAT30.maxtimers $M MACC.maxtimers $M 0
	.globl	SSRC_proc_dither.maxtimers
	.set	SSRC_proc_dither.maxchanends,EXT30.maxchanends $M LSAT30.maxchanends $M MACC.maxchanends $M 0
	.globl	SSRC_proc_dither.maxchanends
.Ltmp174:
	.size	SSRC_proc_dither, .Ltmp174-SSRC_proc_dither
.Lfunc_end5:
	.cfi_endproc

	.section	.dp.data,"awd",@progbits
	.cc_top sFiltersIDs.data,sFiltersIDs
	.globl	sFiltersIDs.globound
sFiltersIDs.globound = 6
	.globl	sFiltersIDs
	.align	8
	.type	sFiltersIDs,@object
	.size	sFiltersIDs, 576
sFiltersIDs:
	.long	11
	.long	11
	.long	2
	.long	0
	.long	5
	.long	11
	.long	1
	.long	294
	.long	5
	.long	11
	.long	2
	.long	0
	.long	5
	.long	11
	.long	1
	.long	147
	.long	5
	.long	10
	.long	2
	.long	0
	.long	5
	.long	10
	.long	1
	.long	147
	.long	6
	.long	11
	.long	0
	.long	320
	.long	11
	.long	11
	.long	2
	.long	0
	.long	5
	.long	11
	.long	0
	.long	160
	.long	5
	.long	11
	.long	2
	.long	0
	.long	5
	.long	10
	.long	0
	.long	160
	.long	5
	.long	10
	.long	2
	.long	0
	.long	0
	.long	11
	.long	2
	.long	0
	.long	2
	.long	11
	.long	1
	.long	294
	.long	11
	.long	11
	.long	2
	.long	0
	.long	5
	.long	11
	.long	1
	.long	294
	.long	5
	.long	11
	.long	2
	.long	0
	.long	5
	.long	11
	.long	1
	.long	147
	.long	1
	.long	11
	.long	0
	.long	320
	.long	0
	.long	11
	.long	2
	.long	0
	.long	6
	.long	11
	.long	0
	.long	320
	.long	11
	.long	11
	.long	2
	.long	0
	.long	5
	.long	11
	.long	0
	.long	160
	.long	5
	.long	11
	.long	2
	.long	0
	.long	9
	.long	0
	.long	2
	.long	0
	.long	9
	.long	2
	.long	1
	.long	294
	.long	0
	.long	11
	.long	2
	.long	0
	.long	4
	.long	11
	.long	1
	.long	294
	.long	11
	.long	11
	.long	2
	.long	0
	.long	7
	.long	11
	.long	1
	.long	294
	.long	9
	.long	1
	.long	0
	.long	320
	.long	9
	.long	0
	.long	2
	.long	0
	.long	3
	.long	11
	.long	0
	.long	320
	.long	0
	.long	11
	.long	2
	.long	0
	.long	8
	.long	11
	.long	0
	.long	320
	.long	11
	.long	11
	.long	2
	.long	0
	.cc_bottom sFiltersIDs.data
.Ldebug_end0:
	.text
.Ldebug_end1:
	.section	.trap_info,"",@progbits
.Ltrap_info_entries_start0:
	.long	.Ltrap_info_entries_end0-.Ltrap_info_entries_start0
	.long	1
.Ltrap_info_entries_end0: