	.text
	.file	"src_mrhf_fir.c"
	.text
	.globl	FIR_init_from_desc
	.align	4
	.type	FIR_init_from_desc,@function
	.cc_top FIR_init_from_desc.function,FIR_init_from_desc
FIR_init_from_desc:
.Lfunc_begin0:
	.file	2 "C:/Users/user/workspace/lib_src/src/multirate_hifi\\src_mrhf_fir.c"
	.loc	2 76 0
	.cfi_startproc
	.issue_mode dual
	{
		nop
		dualentsp 6
	}
.Ltmp0:
	.cfi_def_cfa_offset 24
.Ltmp1:
	.cfi_offset 15, 0
	std r5, r4, sp[1]
.Ltmp2:
	.cfi_offset 4, -16
.Ltmp3:
	.cfi_offset 5, -12
	{
		nop
		stw r6, sp[4]
	}
.Ltmp4:
	.cfi_offset 6, -8
	{
		nop
		ldw r3, r1[1]
	}
	.loc	2 79 9 prologue_end
.Ltmp5:
	bf r3, .LBB0_1
.Ltmp6:
	.loc	2 97 8
	{
		mkmsk r4, 1
		ldw r2, r0[8]
	}
	bf r2, .LBB0_20
.Ltmp7:
	{
		nop
		ldw r11, r0[2]
	}
	bf r11, .LBB0_20
.Ltmp8:
	{
		mov r5, r11
		nop
	}
	{
		zext r5, 1
		nop
	}
	bt r5, .LBB0_20
.Ltmp9:
	{
		nop
		ldw r5, r0[3]
	}
	bf r5, .LBB0_20
.Ltmp10:
	{
		nop
		ldw r5, r0[6]
	}
	bf r5, .LBB0_20
.Ltmp11:
	{
		nop
		ldw r5, r1[0]
	}
	.loc	2 113 5
	{
		eq r6, r5, 2
		nop
	}
	bt r6, .LBB0_16
.Ltmp12:
	{
		eq r6, r5, 1
		nop
	}
	bf r6, .LBB0_9
.Ltmp13:
	.loc	2 132 17
	{
		mov r5, r3
		nop
	}
	{
		zext r5, 1
		nop
	}
	bt r5, .LBB0_20
.Ltmp14:
	{
		mkmsk r4, 1
		nop
	}
	{
		nop
		stw r4, r0[0]
	}
	{
		nop
		stw r11, r0[5]
	}
	.loc	2 137 13
	ldap r11, FIR_proc_sync
	bu .LBB0_18
.Ltmp15:
.LBB0_1:
	{
		ldc r4, 0
		nop
	}
	{
		nop
		stw r4, r0[0]
	}
	{
		nop
		stw r4, r0[5]
	}
	{
		nop
		stw r4, r0[7]
	}
	{
		nop
		stw r4, r0[9]
	}
	.loc	2 86 9
.Ltmp16:
	ldaw r0, r0[11]
.Ltmp17:
	{
		ldc r2, 20
		mov r1, r4
	}
	.loc	2 86 9
	bl memset
.Ltmp18:
.LBB0_20:
	.loc	2 171 1
	{
		mov r0, r4
		ldw r6, sp[4]
	}
	ldd r5, r4, sp[1]
	{
		nop
		retsp 6
	}
	# RETURN_REG_HOLDER
.LBB0_16:
.Ltmp19:
	.loc	2 148 17
	{
		mov r5, r3
		nop
	}
	{
		zext r5, 1
		nop
	}
	bt r5, .LBB0_20
.Ltmp20:
	{
		mkmsk r4, 1
		nop
	}
	.loc	2 150 13
	{
		shr r11, r11, 1
		stw r4, r0[0]
	}
	{
		nop
		stw r11, r0[5]
	}
	.loc	2 152 13
	ldap r11, FIR_proc_ds2
.Ltmp21:
.LBB0_18:
	{
		shl r11, r3, 1
		stw r11, r0[7]
	}
	{
		nop
		stw r11, r0[9]
	}
	.loc	2 154 13
	ldaw r4, r2[r3]
	.loc	2 154 13
	{
		ldc r4, 48
		stw r4, r0[11]
	}
	.loc	2 155 13
	{
		add r4, r0, r4
		nop
	}
	.loc	2 155 13
	{
		shr r4, r3, 1
		stw r3, r4[0]
	}
	{
		ldc r5, 52
		nop
	}
	.loc	2 156 13
	{
		add r5, r0, r5
		nop
	}
	.loc	2 156 13
	{
		ldc r4, 56
		stw r4, r5[0]
	}
	.loc	2 157 13
	{
		add r4, r0, r4
		nop
	}
	{
		nop
		stw r3, r4[0]
	}
	.loc	2 158 13
	{
		ldc r3, 60
		ldw r1, r1[2]
	}
	.loc	2 158 13
	{
		add r3, r0, r3
		nop
	}
	{
		nop
		stw r1, r3[0]
	}
.Ltmp22:
	{
		nop
		stw r2, r0[10]
	}
	bt r11, .LBB0_12
.Ltmp23:
	{
		ldc r4, 0
		nop
	}
	bu .LBB0_20
.LBB0_9:
.Ltmp24:
	bt r5, .LBB0_20
.Ltmp25:
	.loc	2 117 17
	{
		mov r5, r3
		nop
	}
	{
		zext r5, 2
		nop
	}
	bt r5, .LBB0_20
.Ltmp26:
	{
		mkmsk r4, 1
		nop
	}
	.loc	2 119 13
	{
		shl r11, r11, 1
		stw r4, r0[0]
	}
	{
		nop
		stw r11, r0[5]
	}
	.loc	2 121 13
	ldap r11, FIR_proc_os2
	{
		nop
		stw r11, r0[7]
	}
	.loc	2 122 13
	{
		shr r11, r3, 1
		stw r3, r0[9]
	}
	.loc	2 123 13
	ldaw r4, r2[r11]
	.loc	2 123 13
	{
		ldc r4, 48
		stw r4, r0[11]
	}
	.loc	2 124 13
	{
		add r4, r0, r4
		nop
	}
	.loc	2 124 13
	{
		shr r11, r3, 2
		stw r11, r4[0]
	}
	{
		ldc r4, 52
		nop
	}
	.loc	2 125 13
	{
		add r4, r0, r4
		nop
	}
	.loc	2 125 13
	{
		ldc r11, 56
		stw r11, r4[0]
	}
	.loc	2 126 13
	{
		add r11, r0, r11
		nop
	}
	{
		nop
		stw r3, r11[0]
	}
	.loc	2 127 13
	{
		ldc r3, 60
		ldw r1, r1[2]
	}
.Ltmp27:
	.loc	2 127 13
	{
		add r3, r0, r3
		nop
	}
	{
		nop
		stw r1, r3[0]
	}
.Ltmp28:
	{
		nop
		stw r2, r0[10]
	}
.Ltmp29:
.LBB0_12:
	{
		ldc r4, 0
		nop
	}
	.loc	2 167 8
.Ltmp30:
	{
		mov r1, r4
		nop
	}
.Ltmp31:
.LBB0_13:
	.loc	2 192 13
	stw r4, r2[r1]
.Ltmp32:
	.loc	2 191 47
	{
		add r1, r1, 1
		ldw r3, r0[9]
	}
.Ltmp33:
	.loc	2 191 9
	{
		lsu r3, r1, r3
		nop
	}
	bt r3, .LBB0_13
	bu .LBB0_20
.Ltmp34:
	.cc_bottom FIR_init_from_desc.function
	.set	FIR_init_from_desc.nstackwords,(memset.nstackwords + 6)
	.globl	FIR_init_from_desc.nstackwords
	.set	FIR_init_from_desc.maxcores,1
	.globl	FIR_init_from_desc.maxcores
	.set	FIR_init_from_desc.maxtimers,0
	.globl	FIR_init_from_desc.maxtimers
	.set	FIR_init_from_desc.maxchanends,0
	.globl	FIR_init_from_desc.maxchanends
.Ltmp35:
	.size	FIR_init_from_desc, .Ltmp35-FIR_init_from_desc
.Lfunc_end0:
	.cfi_endproc

	.globl	FIR_proc_os2
	.align	4
	.type	FIR_proc_os2,@function
	.cc_top FIR_proc_os2.function,FIR_proc_os2
FIR_proc_os2:
.Lfunc_begin1:
	.loc	2 207 0
	.cfi_startproc
	.issue_mode dual
	{
		nop
		dualentsp 18
	}
.Ltmp36:
	.cfi_def_cfa_offset 72
.Ltmp37:
	.cfi_offset 15, 0
	std r5, r4, sp[5]
.Ltmp38:
	.cfi_offset 4, -32
.Ltmp39:
	.cfi_offset 5, -28
	std r7, r6, sp[6]
.Ltmp40:
	.cfi_offset 6, -24
.Ltmp41:
	.cfi_offset 7, -20
	std r9, r8, sp[7]
.Ltmp42:
	.cfi_offset 8, -16
.Ltmp43:
	.cfi_offset 9, -12
.Ltmp44:
	.cfi_offset 10, -8
.Ltmp45:
	{
		mov r2, r0
		stw r10, sp[16]
	}
.Ltmp46:
	{
		nop
		ldw r8, r2[10]
	}
.Ltmp47:
	{
		nop
		ldw r0, r2[2]
	}
	bf r0, .LBB1_13
.Ltmp48:
	{
		nop
		ldw r3, r2[3]
	}
.Ltmp49:
	{
		nop
		stw r3, sp[4]
	}
	{
		nop
		ldw r0, r2[6]
	}
.Ltmp50:
	{
		nop
		ldw r1, r2[8]
	}
.Ltmp51:
	{
		nop
		stw r1, sp[3]
	}
	{
		nop
		ldw r1, r2[11]
	}
.Ltmp52:
	{
		ldc r1, 48
		stw r1, sp[7]
	}
	.loc	2 215 5 prologue_end
.Ltmp53:
	{
		add r1, r2, r1
		nop
	}
	{
		nop
		ldw r1, r1[0]
	}
.Ltmp54:
	{
		ldc r1, 60
		stw r1, sp[6]
	}
	.loc	2 216 5
	{
		add r1, r2, r1
		nop
	}
	{
		nop
		ldw r1, r1[0]
	}
.Ltmp55:
	{
		ldc r1, 52
		stw r1, sp[5]
	}
	.loc	2 217 5
	{
		add r1, r2, r1
		nop
	}
	{
		nop
		ldw r6, r1[0]
	}
.Ltmp56:
	{
		nop
		ldw r9, r2[4]
	}
.Ltmp57:
	.loc	2 208 5
	{
		shl r1, r3, 3
		ldw r7, r2[1]
	}
.Ltmp58:
	.loc	2 223 5
	{
		shl r4, r0, 2
		stw r1, sp[2]
	}
	{
		ldc r10, 0
		nop
	}
.Ltmp59:
.LBB1_2:
	{
		nop
		ldw r0, r7[0]
	}
	{
		nop
		stw r0, sp[8]
	}
	{
		nop
		stw r0, r8[0]
	}
	{
		nop
		ldw r0, sp[8]
	}
	{
		nop
		ldw r1, sp[6]
	}
	.loc	2 230 9
.Ltmp60:
	stw r0, r8[r1]
.Ltmp61:
	.loc	2 233 9
	{
		add r8, r8, 4
		ldw r0, sp[7]
	}
.Ltmp62:
	.loc	2 234 12
	{
		lsu r0, r8, r0
		nop
	}
	bt r0, .LBB1_4
.Ltmp63:
	{
		nop
		ldw r8, sp[3]
	}
.Ltmp64:
.LBB1_4:
	{
		ldc r0, 4
		mov r5, r2
	}
.Ltmp65:
	.loc	2 242 13
	{
		and r0, r8, r0
		nop
	}
	.loc	2 242 13
	bf r0, .LBB1_6
.Ltmp66:
	.loc	2 243 13
	{
		mov r0, r8
		ldw r1, sp[5]
	}
	{
		ldaw r2, sp[8]
		mov r3, r6
	}
	bl src_mrhf_fir_os_inner_loop_asm_odd
	bu .LBB1_7
.LBB1_6:
	.loc	2 245 13
	{
		mov r0, r8
		ldw r1, sp[5]
	}
	{
		ldaw r2, sp[8]
		mov r3, r6
	}
	bl src_mrhf_fir_os_inner_loop_asm
.Ltmp67:
.LBB1_7:
	{
		nop
		ldw r0, sp[9]
	}
	{
		nop
		stw r0, r9[0]
	}
	.loc	2 251 9
	{
		add r9, r9, r4
		ldw r0, sp[8]
	}
	{
		nop
		stw r0, r9[0]
	}
	{
		nop
		ldw r0, sp[4]
	}
	{
		nop
		ldw r0, r7[r0]
	}
	{
		nop
		stw r0, sp[8]
	}
	{
		nop
		stw r0, r8[0]
	}
	{
		nop
		ldw r0, sp[8]
	}
	{
		nop
		ldw r1, sp[6]
	}
	.loc	2 259 9
	stw r0, r8[r1]
.Ltmp68:
	.loc	2 262 9
	{
		add r8, r8, 4
		ldw r0, sp[7]
	}
.Ltmp69:
	.loc	2 263 12
	{
		lsu r0, r8, r0
		nop
	}
	bt r0, .LBB1_9
.Ltmp70:
	{
		nop
		ldw r8, sp[3]
	}
.Ltmp71:
.LBB1_9:
	{
		ldc r0, 4
		nop
	}
	.loc	2 271 13
.Ltmp72:
	{
		and r0, r8, r0
		nop
	}
	.loc	2 271 13
	bf r0, .LBB1_11
.Ltmp73:
	.loc	2 272 13
	{
		mov r0, r8
		ldw r1, sp[5]
	}
	{
		ldaw r2, sp[8]
		mov r3, r6
	}
	bl src_mrhf_fir_os_inner_loop_asm_odd
	bu .LBB1_12
.Ltmp74:
.LBB1_11:
	.loc	2 274 13
	{
		mov r0, r8
		ldw r1, sp[5]
	}
	{
		ldaw r2, sp[8]
		mov r3, r6
	}
	bl src_mrhf_fir_os_inner_loop_asm
.Ltmp75:
.LBB1_12:
	{
		mov r2, r5
		ldw r0, sp[9]
	}
.Ltmp76:
	{
		add r1, r9, r4
		nop
	}
	{
		nop
		stw r0, r1[0]
	}
	.loc	2 280 9
	{
		add r1, r1, r4
		ldw r0, sp[8]
	}
.Ltmp77:
	.loc	2 280 9
	{
		add r10, r10, 2
		stw r0, r1[0]
	}
.Ltmp78:
	{
		nop
		ldw r0, r2[2]
	}
	{
		nop
		ldw r3, sp[2]
	}
.Ltmp79:
	.loc	2 223 5
	{
		add r7, r7, r3
		lsu r0, r10, r0
	}
	{
		add r9, r1, r4
		nop
	}
	bt r0, .LBB1_2
.Ltmp80:
.LBB1_13:
	.loc	2 284 5
	{
		ldc r0, 0
		stw r8, r2[10]
	}
	{
		nop
		ldw r10, sp[16]
	}
	.loc	2 286 5
	ldd r9, r8, sp[7]
	ldd r7, r6, sp[6]
	ldd r5, r4, sp[5]
	{
		nop
		retsp 18
	}
	# RETURN_REG_HOLDER
.Ltmp81:
	.cc_bottom FIR_proc_os2.function
	.set	FIR_proc_os2.nstackwords,((src_mrhf_fir_os_inner_loop_asm.nstackwords $M src_mrhf_fir_os_inner_loop_asm_odd.nstackwords) + 18)
	.globl	FIR_proc_os2.nstackwords
	.set	FIR_proc_os2.maxcores,src_mrhf_fir_os_inner_loop_asm.maxcores $M src_mrhf_fir_os_inner_loop_asm_odd.maxcores $M 1
	.globl	FIR_proc_os2.maxcores
	.set	FIR_proc_os2.maxtimers,src_mrhf_fir_os_inner_loop_asm.maxtimers $M src_mrhf_fir_os_inner_loop_asm_odd.maxtimers $M 0
	.globl	FIR_proc_os2.maxtimers
	.set	FIR_proc_os2.maxchanends,src_mrhf_fir_os_inner_loop_asm.maxchanends $M src_mrhf_fir_os_inner_loop_asm_odd.maxchanends $M 0
	.globl	FIR_proc_os2.maxchanends
.Ltmp82:
	.size	FIR_proc_os2, .Ltmp82-FIR_proc_os2
.Lfunc_end1:
	.cfi_endproc

	.globl	FIR_proc_sync
	.align	4
	.type	FIR_proc_sync,@function
	.cc_top FIR_proc_sync.function,FIR_proc_sync
FIR_proc_sync:
.Lfunc_begin2:
	.loc	2 298 0
	.cfi_startproc
	.issue_mode dual
	{
		nop
		dualentsp 16
	}
.Ltmp83:
	.cfi_def_cfa_offset 64
.Ltmp84:
	.cfi_offset 15, 0
	std r5, r4, sp[4]
.Ltmp85:
	.cfi_offset 4, -32
.Ltmp86:
	.cfi_offset 5, -28
	std r7, r6, sp[5]
.Ltmp87:
	.cfi_offset 6, -24
.Ltmp88:
	.cfi_offset 7, -20
	std r9, r8, sp[6]
.Ltmp89:
	.cfi_offset 8, -16
.Ltmp90:
	.cfi_offset 9, -12
.Ltmp91:
	.cfi_offset 10, -8
.Ltmp92:
	{
		mov r4, r0
		stw r10, sp[14]
	}
.Ltmp93:
	{
		nop
		ldw r5, r4[10]
	}
.Ltmp94:
	{
		nop
		ldw r0, r4[2]
	}
	bf r0, .LBB2_8
.Ltmp95:
	{
		nop
		ldw r0, r4[3]
	}
.Ltmp96:
	{
		nop
		ldw r1, r4[6]
	}
.Ltmp97:
	{
		nop
		ldw r2, r4[8]
	}
.Ltmp98:
	{
		nop
		stw r2, sp[2]
	}
	{
		nop
		ldw r2, r4[11]
	}
.Ltmp99:
	{
		ldc r2, 48
		stw r2, sp[6]
	}
	.loc	2 306 5 prologue_end
.Ltmp100:
	{
		add r2, r4, r2
		nop
	}
	{
		nop
		ldw r2, r2[0]
	}
.Ltmp101:
	{
		ldc r2, 60
		stw r2, sp[5]
	}
	.loc	2 307 5
	{
		add r2, r4, r2
		nop
	}
	{
		nop
		ldw r2, r2[0]
	}
.Ltmp102:
	{
		ldc r2, 52
		stw r2, sp[4]
	}
	.loc	2 308 5
	{
		add r2, r4, r2
		nop
	}
	{
		nop
		ldw r2, r2[0]
	}
.Ltmp103:
	{
		nop
		stw r2, sp[3]
	}
	{
		nop
		ldw r8, r4[4]
	}
.Ltmp104:
	.loc	2 299 5
	{
		shl r9, r0, 2
		ldw r10, r4[1]
	}
.Ltmp105:
	.loc	2 314 5
	{
		shl r6, r1, 2
		ldc r7, 0
	}
.Ltmp106:
.LBB2_2:
	{
		nop
		ldw r0, r10[0]
	}
.Ltmp107:
	{
		nop
		stw r0, sp[7]
	}
	{
		nop
		stw r0, r5[0]
	}
	{
		nop
		ldw r0, sp[7]
	}
.Ltmp108:
	{
		nop
		ldw r1, sp[5]
	}
	.loc	2 321 9
.Ltmp109:
	stw r0, r5[r1]
.Ltmp110:
	.loc	2 323 9
	{
		add r5, r5, 4
		ldw r0, sp[6]
	}
.Ltmp111:
	.loc	2 324 12
	{
		lsu r0, r5, r0
		nop
	}
	bt r0, .LBB2_4
.Ltmp112:
	{
		nop
		ldw r5, sp[2]
	}
.Ltmp113:
.LBB2_4:
	{
		ldc r0, 4
		nop
	}
	.loc	2 331 13
.Ltmp114:
	{
		and r0, r5, r0
		nop
	}
	.loc	2 331 13
	bf r0, .LBB2_6
.Ltmp115:
	.loc	2 331 40
	{
		mov r0, r5
		ldw r1, sp[4]
	}
	{
		ldaw r2, sp[7]
		ldw r3, sp[3]
	}
	bl src_mrhf_fir_inner_loop_asm_odd
	bu .LBB2_7
.Ltmp116:
.LBB2_6:
	.loc	2 332 14
	{
		mov r0, r5
		ldw r1, sp[4]
	}
	{
		ldaw r2, sp[7]
		ldw r3, sp[3]
	}
	bl src_mrhf_fir_inner_loop_asm
.Ltmp117:
.LBB2_7:
	{
		nop
		ldw r0, sp[7]
	}
.Ltmp118:
	.loc	2 335 9
	{
		add r7, r7, 1
		stw r0, r8[0]
	}
.Ltmp119:
	.loc	2 314 5
	{
		add r10, r10, r9
		ldw r0, r4[2]
	}
	.loc	2 314 5
	{
		add r8, r8, r6
		lsu r0, r7, r0
	}
	bt r0, .LBB2_2
.Ltmp120:
.LBB2_8:
	.loc	2 340 5
	{
		ldc r0, 0
		stw r5, r4[10]
	}
	{
		nop
		ldw r10, sp[14]
	}
	.loc	2 342 5
	ldd r9, r8, sp[6]
	ldd r7, r6, sp[5]
	ldd r5, r4, sp[4]
.Ltmp121:
	{
		nop
		retsp 16
	}
	# RETURN_REG_HOLDER
.Ltmp122:
	.cc_bottom FIR_proc_sync.function
	.set	FIR_proc_sync.nstackwords,((src_mrhf_fir_inner_loop_asm.nstackwords $M src_mrhf_fir_inner_loop_asm_odd.nstackwords) + 16)
	.globl	FIR_proc_sync.nstackwords
	.set	FIR_proc_sync.maxcores,src_mrhf_fir_inner_loop_asm.maxcores $M src_mrhf_fir_inner_loop_asm_odd.maxcores $M 1
	.globl	FIR_proc_sync.maxcores
	.set	FIR_proc_sync.maxtimers,src_mrhf_fir_inner_loop_asm.maxtimers $M src_mrhf_fir_inner_loop_asm_odd.maxtimers $M 0
	.globl	FIR_proc_sync.maxtimers
	.set	FIR_proc_sync.maxchanends,src_mrhf_fir_inner_loop_asm.maxchanends $M src_mrhf_fir_inner_loop_asm_odd.maxchanends $M 0
	.globl	FIR_proc_sync.maxchanends
.Ltmp123:
	.size	FIR_proc_sync, .Ltmp123-FIR_proc_sync
.Lfunc_end2:
	.cfi_endproc

	.globl	FIR_proc_ds2
	.align	4
	.type	FIR_proc_ds2,@function
	.cc_top FIR_proc_ds2.function,FIR_proc_ds2
FIR_proc_ds2:
.Lfunc_begin3:
	.loc	2 354 0
	.cfi_startproc
	.issue_mode dual
	{
		nop
		dualentsp 18
	}
.Ltmp124:
	.cfi_def_cfa_offset 72
.Ltmp125:
	.cfi_offset 15, 0
	std r5, r4, sp[5]
.Ltmp126:
	.cfi_offset 4, -32
.Ltmp127:
	.cfi_offset 5, -28
	std r7, r6, sp[6]
.Ltmp128:
	.cfi_offset 6, -24
.Ltmp129:
	.cfi_offset 7, -20
	std r9, r8, sp[7]
.Ltmp130:
	.cfi_offset 8, -16
.Ltmp131:
	.cfi_offset 9, -12
.Ltmp132:
	.cfi_offset 10, -8
.Ltmp133:
	{
		mov r4, r0
		stw r10, sp[16]
	}
.Ltmp134:
	{
		nop
		ldw r5, r4[10]
	}
.Ltmp135:
	.loc	2 370 5 prologue_end
	{
		ldc r1, 2
		ldw r0, r4[2]
	}
	.loc	2 370 5
	{
		lsu r0, r0, r1
		nop
	}
	bt r0, .LBB3_8
.Ltmp136:
	{
		nop
		ldw r6, r4[3]
	}
.Ltmp137:
	{
		nop
		ldw r0, r4[6]
	}
.Ltmp138:
	{
		nop
		ldw r1, r4[8]
	}
.Ltmp139:
	{
		nop
		stw r1, sp[2]
	}
	{
		nop
		ldw r1, r4[11]
	}
.Ltmp140:
	{
		ldc r1, 48
		stw r1, sp[8]
	}
	.loc	2 362 5
	{
		add r1, r4, r1
		nop
	}
	{
		nop
		ldw r2, r1[0]
	}
.Ltmp141:
	{
		ldc r1, 60
		stw r2, sp[7]
	}
	.loc	2 363 5
	{
		add r1, r4, r1
		nop
	}
	{
		nop
		ldw r1, r1[0]
	}
.Ltmp142:
	{
		ldc r1, 52
		stw r1, sp[4]
	}
	.loc	2 364 5
	{
		add r1, r4, r1
		nop
	}
	{
		nop
		ldw r1, r1[0]
	}
.Ltmp143:
	{
		nop
		stw r1, sp[3]
	}
	{
		nop
		ldw r10, r4[4]
	}
.Ltmp144:
	.loc	2 355 5
	{
		add r1, r2, 1
		ldw r9, r4[1]
	}
.Ltmp145:
	.loc	2 370 5
	{
		shl r1, r6, 3
		stw r1, sp[6]
	}
	{
		shl r7, r0, 2
		stw r1, sp[5]
	}
	{
		ldc r8, 0
		nop
	}
.Ltmp146:
.LBB3_2:
	{
		nop
		ldw r0, r9[0]
	}
.Ltmp147:
	{
		nop
		stw r0, sp[9]
	}
	{
		nop
		ldw r1, r9[r6]
	}
.Ltmp148:
	{
		nop
		stw r0, r5[0]
	}
	{
		nop
		stw r1, r5[1]
	}
	{
		nop
		ldw r0, sp[9]
	}
.Ltmp149:
	{
		nop
		ldw r2, sp[7]
	}
	.loc	2 380 9
.Ltmp150:
	stw r0, r5[r2]
	{
		nop
		ldw r0, sp[6]
	}
	.loc	2 381 9
	stw r1, r5[r0]
.Ltmp151:
	.loc	2 383 9
	{
		add r5, r5, 8
		ldw r0, sp[8]
	}
.Ltmp152:
	.loc	2 384 12
	{
		lsu r0, r5, r0
		nop
	}
	bt r0, .LBB3_4
.Ltmp153:
	{
		nop
		ldw r5, sp[2]
	}
.Ltmp154:
.LBB3_4:
	{
		ldc r0, 4
		nop
	}
	.loc	2 390 13
.Ltmp155:
	{
		and r0, r5, r0
		nop
	}
	.loc	2 390 13
	bf r0, .LBB3_6
.Ltmp156:
	.loc	2 390 40
	{
		mov r0, r5
		ldw r1, sp[4]
	}
	{
		ldaw r2, sp[9]
		ldw r3, sp[3]
	}
	bl src_mrhf_fir_inner_loop_asm_odd
	bu .LBB3_7
.Ltmp157:
.LBB3_6:
	.loc	2 391 14
	{
		mov r0, r5
		ldw r1, sp[4]
	}
	{
		ldaw r2, sp[9]
		ldw r3, sp[3]
	}
	bl src_mrhf_fir_inner_loop_asm
.Ltmp158:
.LBB3_7:
	{
		nop
		ldw r0, sp[9]
	}
.Ltmp159:
	.loc	2 393 9
	{
		add r8, r8, 1
		stw r0, r10[0]
	}
.Ltmp160:
	{
		nop
		ldw r0, r4[2]
	}
.Ltmp161:
	.loc	2 370 5
	{
		shr r0, r0, 1
		ldw r1, sp[5]
	}
	.loc	2 370 5
	{
		add r9, r9, r1
		add r10, r10, r7
	}
	.loc	2 370 5
	{
		lsu r0, r8, r0
		nop
	}
	bt r0, .LBB3_2
.Ltmp162:
.LBB3_8:
	.loc	2 398 5
	{
		ldc r0, 0
		stw r5, r4[10]
	}
	{
		nop
		ldw r10, sp[16]
	}
	.loc	2 400 5
	ldd r9, r8, sp[7]
	ldd r7, r6, sp[6]
	ldd r5, r4, sp[5]
.Ltmp163:
	{
		nop
		retsp 18
	}
	# RETURN_REG_HOLDER
.Ltmp164:
	.cc_bottom FIR_proc_ds2.function
	.set	FIR_proc_ds2.nstackwords,((src_mrhf_fir_inner_loop_asm.nstackwords $M src_mrhf_fir_inner_loop_asm_odd.nstackwords) + 18)
	.globl	FIR_proc_ds2.nstackwords
	.set	FIR_proc_ds2.maxcores,src_mrhf_fir_inner_loop_asm.maxcores $M src_mrhf_fir_inner_loop_asm_odd.maxcores $M 1
	.globl	FIR_proc_ds2.maxcores
	.set	FIR_proc_ds2.maxtimers,src_mrhf_fir_inner_loop_asm.maxtimers $M src_mrhf_fir_inner_loop_asm_odd.maxtimers $M 0
	.globl	FIR_proc_ds2.maxtimers
	.set	FIR_proc_ds2.maxchanends,src_mrhf_fir_inner_loop_asm.maxchanends $M src_mrhf_fir_inner_loop_asm_odd.maxchanends $M 0
	.globl	FIR_proc_ds2.maxchanends
.Ltmp165:
	.size	FIR_proc_ds2, .Ltmp165-FIR_proc_ds2
.Lfunc_end3:
	.cfi_endproc

	.globl	FIR_sync
	.align	4
	.type	FIR_sync,@function
	.cc_top FIR_sync.function,FIR_sync
FIR_sync:
.Lfunc_begin4:
	.loc	2 182 0
	.cfi_startproc
	.issue_mode dual
	{
		nop
		dualentsp 0
	}
	{
		nop
		ldw r1, r0[0]
	}
	.loc	2 185 8 prologue_end
.Ltmp166:
	{
		eq r1, r1, 1
		nop
	}
	bf r1, .LBB4_4
.Ltmp167:
	{
		nop
		ldw r1, r0[8]
	}
	{
		nop
		stw r1, r0[10]
	}
.Ltmp168:
	{
		nop
		ldw r2, r0[9]
	}
	bf r2, .LBB4_4
.Ltmp169:
	{
		ldc r2, 0
		ldc r3, 0
	}
.Ltmp170:
.LBB4_3:
	.loc	2 192 13
	stw r3, r1[r2]
.Ltmp171:
	.loc	2 191 47
	{
		add r2, r2, 1
		ldw r11, r0[9]
	}
.Ltmp172:
	.loc	2 191 9
	{
		lsu r11, r2, r11
		nop
	}
	bt r11, .LBB4_3
.Ltmp173:
.LBB4_4:
	{
		ldc r0, 0
		retsp 0
	}
	.loc	2 195 5
	# RETURN_REG_HOLDER
.Ltmp174:
	.cc_bottom FIR_sync.function
	.set	FIR_sync.nstackwords,0
	.globl	FIR_sync.nstackwords
	.set	FIR_sync.maxcores,1
	.globl	FIR_sync.maxcores
	.set	FIR_sync.maxtimers,0
	.globl	FIR_sync.maxtimers
	.set	FIR_sync.maxchanends,0
	.globl	FIR_sync.maxchanends
.Ltmp175:
	.size	FIR_sync, .Ltmp175-FIR_sync
.Lfunc_end4:
	.cfi_endproc

	.globl	ADFIR_init_from_desc
	.align	4
	.type	ADFIR_init_from_desc,@function
	.cc_top ADFIR_init_from_desc.function,ADFIR_init_from_desc
ADFIR_init_from_desc:
.Lfunc_begin5:
	.loc	2 413 0
	.cfi_startproc
	.issue_mode dual
	{
		mov r2, r0
		dualentsp 0
	}
.Ltmp176:
	.loc	2 417 8 prologue_end
	{
		mkmsk r0, 1
		ldw r3, r2[2]
	}
	bf r3, .LBB5_8
.Ltmp177:
	{
		nop
		ldw r11, r2[8]
	}
	bf r11, .LBB5_8
.Ltmp178:
	{
		nop
		ldw r11, r1[1]
	}
	bf r11, .LBB5_8
.Ltmp179:
	{
		nop
		ldw r1, r1[0]
	}
.Ltmp180:
	bf r1, .LBB5_8
.Ltmp181:
	.loc	2 432 5
	{
		shl r11, r1, 1
		nop
	}
	{
		nop
		stw r11, r2[3]
	}
	.loc	2 433 5
	ldaw r0, r3[r1]
	{
		nop
		stw r0, r2[5]
	}
	.loc	2 434 5
	{
		shr r0, r1, 1
		stw r1, r2[6]
	}
	{
		nop
		stw r0, r2[7]
	}
.Ltmp182:
	.loc	2 456 5
	{
		ldc r0, 0
		stw r3, r2[4]
	}
	bf r11, .LBB5_8
.Ltmp183:
	{
		ldc r1, 0
		nop
	}
.Ltmp184:
.LBB5_6:
	.loc	2 460 9
	stw r1, r3[r0]
.Ltmp185:
	.loc	2 459 45
	{
		add r0, r0, 1
		ldw r11, r2[3]
	}
.Ltmp186:
	.loc	2 459 5
	{
		lsu r11, r0, r11
		nop
	}
	.loc	2 459 5
	bt r11, .LBB5_6
.Ltmp187:
	{
		mov r0, r1
		nop
	}
.LBB5_8:
	{
		nop
		retsp 0
	}
	.loc	2 442 1
	# RETURN_REG_HOLDER
.Ltmp188:
	.cc_bottom ADFIR_init_from_desc.function
	.set	ADFIR_init_from_desc.nstackwords,0
	.globl	ADFIR_init_from_desc.nstackwords
	.set	ADFIR_init_from_desc.maxcores,1
	.globl	ADFIR_init_from_desc.maxcores
	.set	ADFIR_init_from_desc.maxtimers,0
	.globl	ADFIR_init_from_desc.maxtimers
	.set	ADFIR_init_from_desc.maxchanends,0
	.globl	ADFIR_init_from_desc.maxchanends
.Ltmp189:
	.size	ADFIR_init_from_desc, .Ltmp189-ADFIR_init_from_desc
.Lfunc_end5:
	.cfi_endproc

	.globl	ADFIR_sync
	.align	4
	.type	ADFIR_sync,@function
	.cc_top ADFIR_sync.function,ADFIR_sync
ADFIR_sync:
.Lfunc_begin6:
	.loc	2 452 0
	.cfi_startproc
	.issue_mode dual
	{
		nop
		dualentsp 0
	}
	{
		nop
		ldw r1, r0[2]
	}
	{
		nop
		stw r1, r0[4]
	}
.Ltmp190:
	{
		nop
		ldw r2, r0[3]
	}
	bf r2, .LBB6_3
.Ltmp191:
	{
		ldc r2, 0
		ldc r3, 0
	}
.Ltmp192:
.LBB6_2:
	.loc	2 460 9 prologue_end
	stw r3, r1[r2]
.Ltmp193:
	.loc	2 459 45
	{
		add r2, r2, 1
		ldw r11, r0[3]
	}
.Ltmp194:
	.loc	2 459 5
	{
		lsu r11, r2, r11
		nop
	}
	bt r11, .LBB6_2
.Ltmp195:
.LBB6_3:
	{
		ldc r0, 0
		retsp 0
	}
	.loc	2 462 5
	# RETURN_REG_HOLDER
.Ltmp196:
	.cc_bottom ADFIR_sync.function
	.set	ADFIR_sync.nstackwords,0
	.globl	ADFIR_sync.nstackwords
	.set	ADFIR_sync.maxcores,1
	.globl	ADFIR_sync.maxcores
	.set	ADFIR_sync.maxtimers,0
	.globl	ADFIR_sync.maxtimers
	.set	ADFIR_sync.maxchanends,0
	.globl	ADFIR_sync.maxchanends
.Ltmp197:
	.size	ADFIR_sync, .Ltmp197-ADFIR_sync
.Lfunc_end6:
	.cfi_endproc

	.globl	ADFIR_proc_in_spl
	.align	4
	.type	ADFIR_proc_in_spl,@function
	.cc_top ADFIR_proc_in_spl.function,ADFIR_proc_in_spl
ADFIR_proc_in_spl:
.Lfunc_begin7:
	.loc	2 473 0
	.cfi_startproc
	.issue_mode dual
	{
		nop
		dualentsp 0
	}
	{
		nop
		ldw r1, r0[0]
	}
	{
		nop
		ldw r2, r0[4]
	}
	{
		nop
		stw r1, r2[0]
	}
	{
		nop
		ldw r1, r0[0]
	}
	{
		nop
		ldw r3, r0[6]
	}
	.loc	2 476 5 prologue_end
.Ltmp198:
	stw r1, r2[r3]
	.loc	2 478 5
	{
		add r1, r2, 4
		nop
	}
	{
		nop
		stw r1, r0[4]
	}
	{
		nop
		ldw r2, r0[5]
	}
	.loc	2 479 8
.Ltmp199:
	{
		lsu r1, r1, r2
		nop
	}
	bt r1, .LBB7_2
.Ltmp200:
	{
		nop
		ldw r1, r0[2]
	}
	{
		nop
		stw r1, r0[4]
	}
.Ltmp201:
.LBB7_2:
	{
		ldc r0, 0
		retsp 0
	}
	.loc	2 482 5
	# RETURN_REG_HOLDER
.Ltmp202:
	.cc_bottom ADFIR_proc_in_spl.function
	.set	ADFIR_proc_in_spl.nstackwords,0
	.globl	ADFIR_proc_in_spl.nstackwords
	.set	ADFIR_proc_in_spl.maxcores,1
	.globl	ADFIR_proc_in_spl.maxcores
	.set	ADFIR_proc_in_spl.maxtimers,0
	.globl	ADFIR_proc_in_spl.maxtimers
	.set	ADFIR_proc_in_spl.maxchanends,0
	.globl	ADFIR_proc_in_spl.maxchanends
.Ltmp203:
	.size	ADFIR_proc_in_spl, .Ltmp203-ADFIR_proc_in_spl
.Lfunc_end7:
	.cfi_endproc

	.globl	ADFIR_proc_macc
	.align	4
	.type	ADFIR_proc_macc,@function
	.cc_top ADFIR_proc_macc.function,ADFIR_proc_macc
ADFIR_proc_macc:
.Lfunc_begin8:
	.loc	2 493 0
	.cfi_startproc
	.issue_mode dual
	{
		nop
		dualentsp 4
	}
.Ltmp204:
	.cfi_def_cfa_offset 16
.Ltmp205:
	.cfi_offset 15, 0
.Ltmp206:
	.cfi_offset 4, -8
.Ltmp207:
	{
		mov r4, r0
		stw r4, sp[2]
	}
.Ltmp208:
	{
		nop
		ldw r0, r4[4]
	}
.Ltmp209:
	.loc	2 504 5 prologue_end
	{
		ldc r2, 4
		ldw r1, r4[8]
	}
.Ltmp210:
	.loc	2 505 9
	{
		and r2, r0, r2
		ldw r3, r4[7]
	}
	.loc	2 505 9
	bf r2, .LBB8_2
.Ltmp211:
	{
		ldaw r2, sp[1]
		nop
	}
.Ltmp212:
	.loc	2 505 36
	bl src_mrhf_adfir_inner_loop_asm_odd
.Ltmp213:
	bu .LBB8_3
.Ltmp214:
.LBB8_2:
	{
		ldaw r2, sp[1]
		nop
	}
	.loc	2 506 40
	bl src_mrhf_adfir_inner_loop_asm
.Ltmp215:
.LBB8_3:
	{
		nop
		ldw r0, sp[1]
	}
	{
		nop
		ldw r1, r4[1]
	}
	.loc	2 509 5
	{
		ldc r0, 0
		stw r0, r1[0]
	}
	{
		nop
		ldw r4, sp[2]
	}
.Ltmp216:
	{
		nop
		retsp 4
	}
	.loc	2 511 5
	# RETURN_REG_HOLDER
.Ltmp217:
	.cc_bottom ADFIR_proc_macc.function
	.set	ADFIR_proc_macc.nstackwords,((src_mrhf_adfir_inner_loop_asm.nstackwords $M src_mrhf_adfir_inner_loop_asm_odd.nstackwords) + 4)
	.globl	ADFIR_proc_macc.nstackwords
	.set	ADFIR_proc_macc.maxcores,src_mrhf_adfir_inner_loop_asm.maxcores $M src_mrhf_adfir_inner_loop_asm_odd.maxcores $M 1
	.globl	ADFIR_proc_macc.maxcores
	.set	ADFIR_proc_macc.maxtimers,src_mrhf_adfir_inner_loop_asm.maxtimers $M src_mrhf_adfir_inner_loop_asm_odd.maxtimers $M 0
	.globl	ADFIR_proc_macc.maxtimers
	.set	ADFIR_proc_macc.maxchanends,src_mrhf_adfir_inner_loop_asm.maxchanends $M src_mrhf_adfir_inner_loop_asm_odd.maxchanends $M 0
	.globl	ADFIR_proc_macc.maxchanends
.Ltmp218:
	.size	ADFIR_proc_macc, .Ltmp218-ADFIR_proc_macc
.Lfunc_end8:
	.cfi_endproc

	.globl	PPFIR_init_from_desc
	.align	4
	.type	PPFIR_init_from_desc,@function
	.cc_top PPFIR_init_from_desc.function,PPFIR_init_from_desc
PPFIR_init_from_desc:
.Lfunc_begin9:
	.loc	2 524 0
	.cfi_startproc
	.issue_mode dual
	{
		nop
		dualentsp 8
	}
.Ltmp219:
	.cfi_def_cfa_offset 32
.Ltmp220:
	.cfi_offset 15, 0
	std r5, r4, sp[1]
.Ltmp221:
	.cfi_offset 4, -24
.Ltmp222:
	.cfi_offset 5, -20
	std r7, r6, sp[2]
.Ltmp223:
	.cfi_offset 6, -16
.Ltmp224:
	.cfi_offset 7, -12
	{
		nop
		stw r8, sp[6]
	}
.Ltmp225:
	.cfi_offset 8, -8
	{
		nop
		ldw r3, r1[0]
	}
	.loc	2 528 9 prologue_end
.Ltmp226:
	bf r3, .LBB9_1
.Ltmp227:
	.loc	2 547 8
	{
		mkmsk r4, 1
		ldw r2, r0[7]
	}
	bf r2, .LBB9_14
.Ltmp228:
	{
		nop
		ldw r11, r0[2]
	}
	bf r11, .LBB9_14
.Ltmp229:
	{
		nop
		ldw r11, r0[3]
	}
	bf r11, .LBB9_14
.Ltmp230:
	{
		nop
		ldw r11, r0[6]
	}
	bf r11, .LBB9_14
.Ltmp231:
	ldc r11, 64
	.loc	2 561 8
.Ltmp232:
	{
		add r11, r0, r11
		nop
	}
	{
		nop
		ldw r11, r11[0]
	}
	bf r11, .LBB9_14
.Ltmp233:
	{
		nop
		ldw r5, r1[1]
	}
	.loc	2 565 5
	divu r6, r3, r5
.Ltmp234:
	bf r6, .LBB9_14
.Ltmp235:
	mul r7, r6, r5
	{
		eq r7, r7, r3
		nop
	}
	bf r7, .LBB9_14
.Ltmp236:
	{
		mov r7, r6
		nop
	}
	{
		zext r7, 1
		nop
	}
	bt r7, .LBB9_14
.Ltmp237:
	{
		mkmsk r4, 1
		nop
	}
	.loc	2 574 5
	{
		shl r4, r6, 1
		stw r4, r0[0]
	}
	{
		nop
		stw r4, r0[8]
	}
	.loc	2 576 5
	ldaw r7, r2[r6]
	{
		nop
		stw r7, r0[10]
	}
	.loc	2 577 5
	{
		shr r7, r6, 1
		stw r6, r0[11]
	}
	{
		ldc r8, 48
		nop
	}
	.loc	2 578 5
	{
		add r8, r0, r8
		nop
	}
	.loc	2 578 5
	{
		ldc r7, 52
		stw r7, r8[0]
	}
	.loc	2 579 5
	{
		add r7, r0, r7
		nop
	}
	{
		nop
		stw r3, r7[0]
	}
	.loc	2 580 5
	{
		ldc r3, 56
		ldw r1, r1[2]
	}
.Ltmp238:
	.loc	2 580 5
	{
		add r3, r0, r3
		nop
	}
	.loc	2 580 5
	{
		ldc r1, 60
		stw r1, r3[0]
	}
	.loc	2 581 5
	{
		add r1, r0, r1
		nop
	}
	{
		nop
		stw r5, r1[0]
	}
	.loc	2 582 5
	mul r1, r11, r6
	ldc r3, 68
	.loc	2 582 5
	{
		add r3, r0, r3
		nop
	}
	{
		nop
		stw r1, r3[0]
	}
.Ltmp239:
	{
		nop
		stw r2, r0[9]
	}
.Ltmp240:
	bf r4, .LBB9_13
.Ltmp241:
	{
		ldc r1, 0
		ldc r3, 0
	}
.Ltmp242:
.LBB9_12:
	.loc	2 610 13
	stw r3, r2[r1]
.Ltmp243:
	.loc	2 609 49
	{
		add r1, r1, 1
		ldw r11, r0[8]
	}
.Ltmp244:
	.loc	2 609 9
	{
		lsu r11, r1, r11
		nop
	}
	bt r11, .LBB9_12
.Ltmp245:
.LBB9_13:
	ldc r1, 72
	.loc	2 613 9
	{
		add r1, r0, r1
		ldc r4, 0
	}
	{
		nop
		stw r4, r1[0]
	}
	{
		nop
		stw r4, r0[5]
	}
	bu .LBB9_14
.Ltmp246:
.LBB9_1:
	{
		ldc r4, 0
		nop
	}
	{
		nop
		stw r4, r0[0]
	}
	{
		nop
		stw r4, r0[5]
	}
	{
		nop
		stw r4, r0[8]
	}
	.loc	2 534 9
.Ltmp247:
	ldaw r0, r0[10]
.Ltmp248:
	{
		ldc r2, 36
		mov r1, r4
	}
	.loc	2 534 9
	bl memset
.Ltmp249:
.LBB9_14:
	.loc	2 589 1
	{
		mov r0, r4
		ldw r8, sp[6]
	}
	ldd r7, r6, sp[2]
	ldd r5, r4, sp[1]
	{
		nop
		retsp 8
	}
	# RETURN_REG_HOLDER
.Ltmp250:
	.cc_bottom PPFIR_init_from_desc.function
	.set	PPFIR_init_from_desc.nstackwords,(memset.nstackwords + 8)
	.globl	PPFIR_init_from_desc.nstackwords
	.set	PPFIR_init_from_desc.maxcores,1
	.globl	PPFIR_init_from_desc.maxcores
	.set	PPFIR_init_from_desc.maxtimers,0
	.globl	PPFIR_init_from_desc.maxtimers
	.set	PPFIR_init_from_desc.maxchanends,0
	.globl	PPFIR_init_from_desc.maxchanends
.Ltmp251:
	.size	PPFIR_init_from_desc, .Ltmp251-PPFIR_init_from_desc
.Lfunc_end9:
	.cfi_endproc

	.globl	PPFIR_sync
	.align	4
	.type	PPFIR_sync,@function
	.cc_top PPFIR_sync.function,PPFIR_sync
PPFIR_sync:
.Lfunc_begin10:
	.loc	2 600 0
	.cfi_startproc
	.issue_mode dual
	{
		nop
		dualentsp 0
	}
	{
		nop
		ldw r1, r0[0]
	}
	.loc	2 603 8 prologue_end
.Ltmp252:
	{
		eq r1, r1, 1
		nop
	}
	bf r1, .LBB10_5
.Ltmp253:
	{
		nop
		ldw r1, r0[7]
	}
	{
		nop
		stw r1, r0[9]
	}
.Ltmp254:
	{
		nop
		ldw r2, r0[8]
	}
	bf r2, .LBB10_4
.Ltmp255:
	{
		ldc r2, 0
		ldc r3, 0
	}
.Ltmp256:
.LBB10_3:
	.loc	2 610 13
	stw r3, r1[r2]
.Ltmp257:
	.loc	2 609 49
	{
		add r2, r2, 1
		ldw r11, r0[8]
	}
.Ltmp258:
	.loc	2 609 9
	{
		lsu r11, r2, r11
		nop
	}
	bt r11, .LBB10_3
.Ltmp259:
.LBB10_4:
	ldc r1, 72
	.loc	2 613 9
	{
		add r1, r0, r1
		ldc r2, 0
	}
	{
		nop
		stw r2, r1[0]
	}
	{
		nop
		stw r2, r0[5]
	}
.Ltmp260:
.LBB10_5:
	{
		ldc r0, 0
		retsp 0
	}
	.loc	2 620 5
	# RETURN_REG_HOLDER
.Ltmp261:
	.cc_bottom PPFIR_sync.function
	.set	PPFIR_sync.nstackwords,0
	.globl	PPFIR_sync.nstackwords
	.set	PPFIR_sync.maxcores,1
	.globl	PPFIR_sync.maxcores
	.set	PPFIR_sync.maxtimers,0
	.globl	PPFIR_sync.maxtimers
	.set	PPFIR_sync.maxchanends,0
	.globl	PPFIR_sync.maxchanends
.Ltmp262:
	.size	PPFIR_sync, .Ltmp262-PPFIR_sync
.Lfunc_end10:
	.cfi_endproc

	.globl	PPFIR_proc
	.align	4
	.type	PPFIR_proc,@function
	.cc_top PPFIR_proc.function,PPFIR_proc
PPFIR_proc:
.Lfunc_begin11:
	.loc	2 632 0
	.cfi_startproc
	.issue_mode dual
	{
		nop
		dualentsp 24
	}
.Ltmp263:
	.cfi_def_cfa_offset 96
.Ltmp264:
	.cfi_offset 15, 0
	std r5, r4, sp[8]
.Ltmp265:
	.cfi_offset 4, -32
.Ltmp266:
	.cfi_offset 5, -28
	std r7, r6, sp[9]
.Ltmp267:
	.cfi_offset 6, -24
.Ltmp268:
	.cfi_offset 7, -20
	std r9, r8, sp[10]
.Ltmp269:
	.cfi_offset 8, -16
.Ltmp270:
	.cfi_offset 9, -12
	{
		nop
		stw r10, sp[22]
	}
.Ltmp271:
	.cfi_offset 10, -8
	{
		nop
		stw r0, sp[7]
	}
	{
		nop
		ldw r1, r0[9]
	}
.Ltmp272:
	{
		nop
		stw r1, sp[13]
	}
	ldc r1, 72
	.loc	2 644 5 prologue_end
.Ltmp273:
	{
		add r1, r0, r1
		nop
	}
	{
		nop
		stw r1, sp[1]
	}
	{
		nop
		ldw r10, r1[0]
	}
.Ltmp274:
	{
		nop
		ldw r1, r0[2]
	}
	.loc	2 653 5
.Ltmp275:
	bf r1, .LBB11_1
.Ltmp276:
	{
		nop
		ldw r1, r0[3]
	}
.Ltmp277:
	{
		nop
		stw r1, sp[6]
	}
	{
		nop
		ldw r2, r0[6]
	}
.Ltmp278:
	{
		nop
		ldw r1, r0[7]
	}
.Ltmp279:
	{
		nop
		stw r1, sp[3]
	}
	{
		nop
		ldw r1, r0[10]
	}
.Ltmp280:
	{
		nop
		stw r1, sp[5]
	}
	{
		nop
		ldw r1, r0[11]
	}
.Ltmp281:
	{
		ldc r1, 56
		stw r1, sp[4]
	}
	.loc	2 641 5
	{
		add r1, r0, r1
		nop
	}
	{
		nop
		ldw r1, r1[0]
	}
.Ltmp282:
	{
		ldc r1, 48
		stw r1, sp[2]
	}
	.loc	2 642 5
	{
		add r1, r0, r1
		nop
	}
.Ltmp283:
	.loc	2 642 5
	{
		ldc r1, 52
		ldw r7, r1[0]
	}
.Ltmp284:
	.loc	2 643 5
	{
		add r1, r0, r1
		nop
	}
	{
		nop
		ldw r5, r1[0]
	}
.Ltmp285:
	ldc r1, 68
	.loc	2 645 5
	{
		add r1, r0, r1
		nop
	}
	{
		nop
		ldw r3, r1[0]
	}
.Ltmp286:
	{
		nop
		ldw r6, r0[4]
	}
.Ltmp287:
	.loc	2 633 5
	{
		shl r0, r2, 2
		ldw r8, r0[1]
	}
.Ltmp288:
	.loc	2 653 5
	{
		shl r0, r3, 2
		stw r0, sp[11]
	}
	{
		ldc r9, 0
		stw r0, sp[10]
	}
	{
		ldaw r2, sp[14]
		mov r4, r9
	}
.Ltmp289:
.LBB11_3:
	{
		nop
		stw r9, sp[8]
	}
.Ltmp290:
	{
		nop
		ldw r0, r8[0]
	}
	{
		nop
		stw r0, sp[14]
	}
	{
		nop
		ldw r11, sp[13]
	}
	{
		nop
		stw r0, r11[0]
	}
	{
		nop
		ldw r0, sp[14]
	}
	{
		nop
		ldw r1, sp[4]
	}
	.loc	2 660 9
.Ltmp291:
	stw r0, r11[r1]
	.loc	2 662 9
	{
		add r11, r11, 4
		nop
	}
.Ltmp292:
	{
		nop
		stw r11, sp[13]
	}
	{
		nop
		ldw r0, sp[5]
	}
	.loc	2 663 12
.Ltmp293:
	{
		lsu r0, r11, r0
		nop
	}
.Ltmp294:
	bt r0, .LBB11_5
.Ltmp295:
	{
		nop
		ldw r0, sp[3]
	}
	{
		nop
		stw r0, sp[13]
	}
.Ltmp296:
.LBB11_5:
	.loc	2 669 9
	{
		lsu r0, r10, r5
		nop
	}
	bf r0, .LBB11_6
.Ltmp297:
	{
		ldc r0, 4
		stw r8, sp[9]
	}
	{
		nop
		ldw r1, sp[13]
	}
	.loc	2 675 17
.Ltmp298:
	{
		and r0, r1, r0
		nop
	}
	bf r0, .LBB11_10
.Ltmp299:
	{
		nop
		ldw r0, sp[2]
	}
	ldaw r8, r0[r10]
.Ltmp300:
.LBB11_9:
	{
		nop
		stw r10, sp[12]
	}
	{
		mov r1, r8
		ldw r0, sp[13]
	}
.Ltmp301:
	{
		mov r9, r3
		mov r3, r7
	}
.Ltmp302:
	{
		mov r10, r4
		nop
	}
	.loc	2 675 44
	bl src_mrhf_fir_inner_loop_asm_odd
	{
		nop
		ldw r11, sp[10]
	}
	{
		nop
		ldw r1, sp[11]
	}
.Ltmp303:
	{
		mov r3, r9
		ldw r10, sp[12]
	}
.Ltmp304:
	{
		ldaw r2, sp[14]
		ldw r0, sp[14]
	}
.Ltmp305:
	.loc	2 680 13
	{
		add r10, r10, r3
		stw r0, r6[0]
	}
	.loc	2 687 13
	{
		add r4, r4, 1
		add r6, r6, r1
	}
.Ltmp306:
	.loc	2 669 9
	{
		add r8, r8, r11
		lsu r0, r10, r5
	}
	bt r0, .LBB11_9
	bu .LBB11_12
.Ltmp307:
.LBB11_6:
	{
		nop
		stw r8, sp[9]
	}
	bu .LBB11_12
.Ltmp308:
.LBB11_10:
	{
		nop
		ldw r0, sp[2]
	}
	ldaw r8, r0[r10]
.Ltmp309:
.LBB11_11:
	.loc	2 676 18
	{
		mov r1, r8
		ldw r0, sp[13]
	}
.Ltmp310:
	{
		mov r9, r3
		mov r3, r7
	}
.Ltmp311:
	bl src_mrhf_fir_inner_loop_asm
	{
		nop
		ldw r11, sp[10]
	}
.Ltmp312:
	{
		mov r3, r9
		ldw r1, sp[11]
	}
.Ltmp313:
	{
		ldaw r2, sp[14]
		ldw r0, sp[14]
	}
.Ltmp314:
	.loc	2 680 13
	{
		add r10, r10, r3
		stw r0, r6[0]
	}
	.loc	2 687 13
	{
		add r4, r4, 1
		add r6, r6, r1
	}
.Ltmp315:
	.loc	2 669 9
	{
		add r8, r8, r11
		lsu r0, r10, r5
	}
	bt r0, .LBB11_11
.Ltmp316:
.LBB11_12:
	{
		nop
		ldw r0, sp[6]
	}
	{
		nop
		ldw r8, sp[9]
	}
	.loc	2 657 9
	ldaw r8, r8[r0]
.Ltmp317:
	.loc	2 691 9
	{
		sub r10, r10, r5
		ldw r9, sp[8]
	}
.Ltmp318:
	.loc	2 653 49
	{
		add r9, r9, 1
		ldw r0, sp[7]
	}
.Ltmp319:
	{
		nop
		ldw r1, r0[2]
	}
	.loc	2 653 5
	{
		lsu r1, r9, r1
		nop
	}
	bt r1, .LBB11_3
	bu .LBB11_13
.Ltmp320:
.LBB11_1:
	{
		ldc r4, 0
		nop
	}
.Ltmp321:
.LBB11_13:
	{
		nop
		ldw r1, sp[13]
	}
	{
		nop
		stw r1, r0[9]
	}
	{
		nop
		ldw r1, sp[1]
	}
	{
		nop
		stw r10, r1[0]
	}
	.loc	2 699 5
	{
		ldc r0, 0
		stw r4, r0[5]
	}
.Ltmp322:
	{
		nop
		ldw r10, sp[22]
	}
	.loc	2 701 5
	ldd r9, r8, sp[10]
	ldd r7, r6, sp[9]
	ldd r5, r4, sp[8]
	{
		nop
		retsp 24
	}
	# RETURN_REG_HOLDER
.Ltmp323:
	.cc_bottom PPFIR_proc.function
	.set	PPFIR_proc.nstackwords,((src_mrhf_fir_inner_loop_asm.nstackwords $M src_mrhf_fir_inner_loop_asm_odd.nstackwords) + 24)
	.globl	PPFIR_proc.nstackwords
	.set	PPFIR_proc.maxcores,src_mrhf_fir_inner_loop_asm.maxcores $M src_mrhf_fir_inner_loop_asm_odd.maxcores $M 1
	.globl	PPFIR_proc.maxcores
	.set	PPFIR_proc.maxtimers,src_mrhf_fir_inner_loop_asm.maxtimers $M src_mrhf_fir_inner_loop_asm_odd.maxtimers $M 0
	.globl	PPFIR_proc.maxtimers
	.set	PPFIR_proc.maxchanends,src_mrhf_fir_inner_loop_asm.maxchanends $M src_mrhf_fir_inner_loop_asm_odd.maxchanends $M 0
	.globl	PPFIR_proc.maxchanends
.Ltmp324:
	.size	PPFIR_proc, .Ltmp324-PPFIR_proc
.Lfunc_end11:
	.cfi_endproc

.Ldebug_end0:
	.section	.trap_info,"",@progbits
.Ltrap_info_entries_start0:
	.long	.Ltrap_info_entries_end0-.Ltrap_info_entries_start0
	.long	1
.Ltrap_info_entries_end0: