	.text
	.file	"C:/Users/user/workspace/module_usb_audio/endpoint0/dbcalc.xc"
                                        # Start of file scope inline assembly
	.inline_definition delay_seconds
	.inline_definition delay_milliseconds
	.inline_definition delay_microseconds
	.set usage.anon.0,0
	.set usage.anon.1,0
	.set usage.anon.2,0
	.set usage.anon.3,0
	.globread db_to_mult,usage.anon.3,"C:/Users/user/workspace/module_usb_audio/endpoint0/dbcalc.xc:87:14: note: object used here\n      val += coef[i] >> (COEF_PREC - DB_CALC_PREC);\n             ^~~~~~~"
	.call usage.anon.2,delay_ticks_longlong
	.call usage.anon.1,delay_ticks_longlong
	.call usage.anon.0,delay_ticks_longlong
	.set db_to_mult.locnoglobalaccess, 0

                                        # End of file scope inline assembly
	.section	.cp.rodata.cst4,"aMc",@progbits,4
	.cc_top .LCPI0_0.data,.LCPI0_0
	.align	4
	.type	.LCPI0_0,@object
	.size	.LCPI0_0, 4
.LCPI0_0:
	.long	1717986919              # 0x66666667
	.cc_bottom .LCPI0_0.data
	.cc_top .LCPI0_1.data,.LCPI0_1
	.align	4
	.type	.LCPI0_1,@object
	.size	.LCPI0_1, 4
.LCPI0_1:
	.long	268435440               # 0xffffff0
	.cc_bottom .LCPI0_1.data
	.cc_top .LCPI0_2.data,.LCPI0_2
	.align	4
	.type	.LCPI0_2,@object
	.size	.LCPI0_2, 4
.LCPI0_2:
	.long	268435456               # 0x10000000
	.cc_bottom .LCPI0_2.data
	.cc_top .LCPI0_3.data,.LCPI0_3
	.align	4
	.type	.LCPI0_3,@object
	.size	.LCPI0_3, 4
.LCPI0_3:
	.long	4026531840              # 0xf0000000
	.cc_bottom .LCPI0_3.data
	.text
	.globl	db_to_mult
	.align	4
	.type	db_to_mult,@function
	.cc_top db_to_mult.function,db_to_mult
db_to_mult:                             # @db_to_mult
.Lfunc_begin0:
	.loc	1 32 0                  # C:/Users/user/workspace/module_usb_audio/endpoint0/dbcalc.xc:32:0
	.cfi_startproc
	.issue_mode single
# BB#0:                                 # %allocas
.Lxtalabel0:
	ENTSP_lu6 0
	extsp 6
.Ltmp0:
	.cfi_def_cfa_offset 24
	std r5, r4, sp[0]               # 4-byte Folded Spill
.Ltmp1:
	.cfi_offset 4, -24
.Ltmp2:
	.cfi_offset 5, -20
	std r7, r6, sp[1]               # 4-byte Folded Spill
.Ltmp3:
	.cfi_offset 6, -16
.Ltmp4:
	.cfi_offset 7, -12
	stw r8, sp[4]                   # 4-byte Folded Spill
.Ltmp5:
	.cfi_offset 8, -8
	#DEBUG_VALUE: db_to_mult:db <- R0
	#DEBUG_VALUE: db_to_mult:db_frac_bits <- R1
	#DEBUG_VALUE: db_to_mult:result_frac_bits <- R2
.Ltmp6:
	#DEBUG_VALUE: val <- 0
	#DEBUG_VALUE: val0 <- 0
	#DEBUG_VALUE: mask <- -268435456
	.loc	1 40 3 prologue_end     # C:/Users/user/workspace/module_usb_audio/endpoint0/dbcalc.xc:40:3
	bf r0, .LBB0_1
.Ltmp7:
# BB#2:                                 # %ifdone
.Lxtalabel1:
	#DEBUG_VALUE: db_to_mult:db <- R0
	#DEBUG_VALUE: db_to_mult:db_frac_bits <- R1
	#DEBUG_VALUE: db_to_mult:result_frac_bits <- R2
	#DEBUG_VALUE: val <- 0
	#DEBUG_VALUE: val0 <- 0
	#DEBUG_VALUE: mask <- -268435456
	ldc r3, 23
	.loc	1 46 0                  # C:/Users/user/workspace/module_usb_audio/endpoint0/dbcalc.xc:46:0
	sub r1, r3, r1
.Ltmp8:
	.loc	1 46 0                  # C:/Users/user/workspace/module_usb_audio/endpoint0/dbcalc.xc:46:0
	shl r1, r0, r1
.Ltmp9:
	#DEBUG_VALUE: db_to_mult:db <- R1
	ldw r11, cp[.LCPI0_0]
	ldc r0, 0
	.loc	1 47 0                  # C:/Users/user/workspace/module_usb_audio/endpoint0/dbcalc.xc:47:0
	mov r3, r0
	mov r4, r0
	maccs r3, r4, r1, r11
	mkmsk r4, 5
	shr r1, r3, r4
.Ltmp10:
	shr r3, r3, 2
	add r1, r3, r1
.Ltmp11:
	#DEBUG_VALUE: db_to_mult:db <- R1
	.loc	1 48 0                  # C:/Users/user/workspace/module_usb_audio/endpoint0/dbcalc.xc:48:0
	shl r3, r1, 4
.Ltmp12:
	#DEBUG_VALUE: db_to_mult:db <- R3
	.loc	1 55 3                  # C:/Users/user/workspace/module_usb_audio/endpoint0/dbcalc.xc:55:3
	ashr r1, r3, 32
	bt r1, .LBB0_3
.Ltmp13:
# BB#11:                                # %iffalse
.Lxtalabel2:
	#DEBUG_VALUE: db_to_mult:db <- R3
	#DEBUG_VALUE: db_to_mult:result_frac_bits <- R2
	#DEBUG_VALUE: val <- 0
	#DEBUG_VALUE: val0 <- 0
	#DEBUG_VALUE: mask <- -268435456
	ldw r1, cp[.LCPI0_1]
	.loc	1 68 0                  # C:/Users/user/workspace/module_usb_audio/endpoint0/dbcalc.xc:68:0
	and r1, r3, r1
.Ltmp14:
	#DEBUG_VALUE: db_to_mult:db <- R1
	ldc r11, 28
	.loc	1 69 0                  # C:/Users/user/workspace/module_usb_audio/endpoint0/dbcalc.xc:69:0
	ashr r11, r3, r11
.Ltmp15:
	#DEBUG_VALUE: intpart <- R11
	bf r11, .LBB0_4
.Ltmp16:
# BB#12:                                # %iftrue45
.Lxtalabel3:
	#DEBUG_VALUE: db_to_mult:db <- R1
	#DEBUG_VALUE: db_to_mult:result_frac_bits <- R2
	#DEBUG_VALUE: val <- 0
	#DEBUG_VALUE: val0 <- 268435456
	#DEBUG_VALUE: mask <- -268435456
	#DEBUG_VALUE: intpart <- R11
	#DEBUG_VALUE: i <- 0
	ldw r3, cp[.LCPI0_2]
	mkmsk r4, 1
	.loc	1 72 0                  # C:/Users/user/workspace/module_usb_audio/endpoint0/dbcalc.xc:72:0
.Ltmp17:
	lss r4, r11, r4
	bt r4, .LBB0_5
.Ltmp18:
# BB#13:
	#DEBUG_VALUE: db_to_mult:db <- R1
	#DEBUG_VALUE: db_to_mult:result_frac_bits <- R2
	ldc r4, 10
.Ltmp19:
.LBB0_14:                               # %LoopBody57
                                        # =>This Inner Loop Header: Depth=1
.Lxtalabel4:
	#DEBUG_VALUE: db_to_mult:db <- R1
	#DEBUG_VALUE: db_to_mult:result_frac_bits <- R2
	.loc	1 73 0                  # C:/Users/user/workspace/module_usb_audio/endpoint0/dbcalc.xc:73:0
	mul r3, r3, r4
	.loc	1 72 0                  # C:/Users/user/workspace/module_usb_audio/endpoint0/dbcalc.xc:72:0
	sub r11, r11, 1
.Lxta.loop_labels0:
	# LOOPMARKER 0
	bt r11, .LBB0_14
	bu .LBB0_5
.Ltmp20:
.LBB0_1:                                # %iftrue
.Lxtalabel5:
	#DEBUG_VALUE: db_to_mult:result_frac_bits <- R2
	#DEBUG_VALUE: val <- 0
	#DEBUG_VALUE: val0 <- 0
	#DEBUG_VALUE: mask <- -268435456
	mkmsk r0, 1
	.loc	1 41 5                  # C:/Users/user/workspace/module_usb_audio/endpoint0/dbcalc.xc:41:5
	shl r0, r0, r2
	bu .LBB0_19
.LBB0_3:                                # %iftrue8
.Lxtalabel6:
.Ltmp21:
	#DEBUG_VALUE: db_to_mult:db <- R3
	#DEBUG_VALUE: db_to_mult:result_frac_bits <- R2
	#DEBUG_VALUE: val <- 0
	#DEBUG_VALUE: val0 <- 0
	#DEBUG_VALUE: mask <- -268435456
	.loc	1 56 0                  # C:/Users/user/workspace/module_usb_audio/endpoint0/dbcalc.xc:56:0
	neg r5, r3
	ldw r1, cp[.LCPI0_3]
	.loc	1 56 0                  # C:/Users/user/workspace/module_usb_audio/endpoint0/dbcalc.xc:56:0
	and r1, r5, r1
.Ltmp22:
	#DEBUG_VALUE: intpart <- R1
	.loc	1 57 0                  # C:/Users/user/workspace/module_usb_audio/endpoint0/dbcalc.xc:57:0
	add r1, r1, r3
.Ltmp23:
	#DEBUG_VALUE: db_to_mult:db <- R1
	ldc r3, 28
	.loc	1 58 0                  # C:/Users/user/workspace/module_usb_audio/endpoint0/dbcalc.xc:58:0
	ashr r5, r5, r3
.Ltmp24:
	#DEBUG_VALUE: intpart <- R5
	.loc	1 60 5                  # C:/Users/user/workspace/module_usb_audio/endpoint0/dbcalc.xc:60:5
	bf r5, .LBB0_4
.Ltmp25:
# BB#15:                                # %iftrue20
.Lxtalabel7:
	#DEBUG_VALUE: db_to_mult:db <- R1
	#DEBUG_VALUE: db_to_mult:result_frac_bits <- R2
	#DEBUG_VALUE: val <- 0
	#DEBUG_VALUE: val0 <- 268435456
	#DEBUG_VALUE: mask <- -268435456
	#DEBUG_VALUE: intpart <- R5
	#DEBUG_VALUE: i <- 0
	ldw r3, cp[.LCPI0_2]
	mkmsk r6, 1
	.loc	1 62 0                  # C:/Users/user/workspace/module_usb_audio/endpoint0/dbcalc.xc:62:0
.Ltmp26:
	lss r6, r5, r6
	bt r6, .LBB0_5
.Ltmp27:
# BB#16:
	#DEBUG_VALUE: db_to_mult:db <- R1
	#DEBUG_VALUE: db_to_mult:result_frac_bits <- R2
	ldc r6, 0
.Ltmp28:
.LBB0_17:                               # %LoopBody
                                        # =>This Inner Loop Header: Depth=1
.Lxtalabel8:
	#DEBUG_VALUE: db_to_mult:db <- R1
	#DEBUG_VALUE: db_to_mult:result_frac_bits <- R2
	.loc	1 63 0                  # C:/Users/user/workspace/module_usb_audio/endpoint0/dbcalc.xc:63:0
	mov r7, r6
	mov r8, r6
	maccs r7, r8, r3, r11
	shr r3, r7, r4
	ashr r7, r7, 2
	add r3, r7, r3
	.loc	1 62 0                  # C:/Users/user/workspace/module_usb_audio/endpoint0/dbcalc.xc:62:0
	sub r5, r5, 1
.Lxta.loop_labels1:
	# LOOPMARKER 1
	bt r5, .LBB0_17
	bu .LBB0_5
.Ltmp29:
.LBB0_4:
	#DEBUG_VALUE: db_to_mult:db <- R1
	#DEBUG_VALUE: db_to_mult:result_frac_bits <- R2
	mov r3, r0
.Ltmp30:
.LBB0_5:                                # %ifdone9
.Lxtalabel9:
	#DEBUG_VALUE: db_to_mult:result_frac_bits <- R2
	#DEBUG_VALUE: val <- 0
	#DEBUG_VALUE: val0 <- 0
	#DEBUG_VALUE: mask <- -268435456
	#DEBUG_VALUE: i <- 0
	ldc r4, 28
	ldc r5, 14
	mov r6, r0
	mov r11, r0
.LBB0_6:                                # %afterboundcheck
                                        # =>This Inner Loop Header: Depth=1
.Lxtalabel10:
	#DEBUG_VALUE: db_to_mult:result_frac_bits <- R2
	#DEBUG_VALUE: val <- 0
	#DEBUG_VALUE: val0 <- 0
	#DEBUG_VALUE: mask <- -268435456
	#DEBUG_VALUE: i <- 0
.Ltmp31:
	#DEBUG_VALUE: hi <- 0
	#DEBUG_VALUE: lo <- 0
	.loc	1 84 0                  # C:/Users/user/workspace/module_usb_audio/endpoint0/dbcalc.xc:84:0
	mov r7, r0
	mov r8, r0
	#APP
	maccs r8, r7, r1, r11
	#NO_APP
	.loc	1 86 0                  # C:/Users/user/workspace/module_usb_audio/endpoint0/dbcalc.xc:86:0
	shl r11, r8, 4
	.loc	1 86 0                  # C:/Users/user/workspace/module_usb_audio/endpoint0/dbcalc.xc:86:0
	shr r7, r7, r4
	.loc	1 86 0                  # C:/Users/user/workspace/module_usb_audio/endpoint0/dbcalc.xc:86:0
	or r7, r11, r7
.Ltmp32:
	#DEBUG_VALUE: val <- R7
	ldaw r11, cp[coef]
	.loc	1 87 0                  # C:/Users/user/workspace/module_usb_audio/endpoint0/dbcalc.xc:87:0
	ldw r11, r11[r6]
	.loc	1 87 0                  # C:/Users/user/workspace/module_usb_audio/endpoint0/dbcalc.xc:87:0
	add r11, r11, r7
.Ltmp33:
	.loc	1 79 0                  # C:/Users/user/workspace/module_usb_audio/endpoint0/dbcalc.xc:79:0
	add r6, r6, 1
.Ltmp34:
	#DEBUG_VALUE: i <- R6
	.loc	1 79 0                  # C:/Users/user/workspace/module_usb_audio/endpoint0/dbcalc.xc:79:0
	lss r7, r6, r5
.Ltmp35:
.Lxta.loop_labels2:
	# LOOPMARKER 2
	.loc	1 79 0                  # C:/Users/user/workspace/module_usb_audio/endpoint0/dbcalc.xc:79:0
	bt r7, .LBB0_6
.Ltmp36:
# BB#7:                                 # %ifdone71
.Lxtalabel11:
	#DEBUG_VALUE: db_to_mult:result_frac_bits <- R2
	#DEBUG_VALUE: val0 <- 0
	#DEBUG_VALUE: mask <- -268435456
	bf r3, .LBB0_9
# BB#8:                                 # %iftrue95
.Lxtalabel12:
	#DEBUG_VALUE: db_to_mult:result_frac_bits <- R2
.Ltmp37:
	#DEBUG_VALUE: val <- R11
	#DEBUG_VALUE: val0 <- 0
	#DEBUG_VALUE: mask <- -268435456
	ldc r0, 0
	.loc	1 95 0                  # C:/Users/user/workspace/module_usb_audio/endpoint0/dbcalc.xc:95:0
.Ltmp38:
	mov r1, r0
	#APP
	maccs r0, r1, r3, r11
	#NO_APP
.Ltmp39:
	#DEBUG_VALUE: lo <- 0
	#DEBUG_VALUE: hi <- 0
	.loc	1 96 0                  # C:/Users/user/workspace/module_usb_audio/endpoint0/dbcalc.xc:96:0
	shl r0, r0, 4
	.loc	1 96 0                  # C:/Users/user/workspace/module_usb_audio/endpoint0/dbcalc.xc:96:0
	shr r1, r1, r4
	.loc	1 96 0                  # C:/Users/user/workspace/module_usb_audio/endpoint0/dbcalc.xc:96:0
	or r11, r0, r1
.Ltmp40:
	#DEBUG_VALUE: val <- R11
.LBB0_9:                                # %ifdone96
.Lxtalabel13:
	#DEBUG_VALUE: db_to_mult:result_frac_bits <- R2
	#DEBUG_VALUE: val0 <- 0
	#DEBUG_VALUE: mask <- -268435456
	ldc r0, 29
	.loc	1 103 3                 # C:/Users/user/workspace/module_usb_audio/endpoint0/dbcalc.xc:103:3
	lss r0, r2, r0
	bt r0, .LBB0_18
# BB#10:                                # %iftrue109
.Lxtalabel14:
	#DEBUG_VALUE: db_to_mult:result_frac_bits <- R2
	#DEBUG_VALUE: val0 <- 0
	#DEBUG_VALUE: mask <- -268435456
	.loc	1 104 5                 # C:/Users/user/workspace/module_usb_audio/endpoint0/dbcalc.xc:104:5
	ldaw r0, r2[-7]
	.loc	1 104 5                 # C:/Users/user/workspace/module_usb_audio/endpoint0/dbcalc.xc:104:5
	shl r0, r11, r0
	bu .LBB0_19
.LBB0_18:                               # %iffalse115
.Lxtalabel15:
	#DEBUG_VALUE: db_to_mult:result_frac_bits <- R2
	#DEBUG_VALUE: val0 <- 0
	#DEBUG_VALUE: mask <- -268435456
.Ltmp41:
	#DEBUG_VALUE: ret <- R11
	.loc	1 107 5                 # C:/Users/user/workspace/module_usb_audio/endpoint0/dbcalc.xc:107:5
	sub r0, r4, r2
	.loc	1 107 5                 # C:/Users/user/workspace/module_usb_audio/endpoint0/dbcalc.xc:107:5
	shr r0, r11, r0
.Ltmp42:
.LBB0_19:                               # %return
	ldw r8, sp[4]                   # 4-byte Folded Reload
	ldd r7, r6, sp[1]               # 4-byte Folded Reload
	ldd r5, r4, sp[0]               # 4-byte Folded Reload
	ldaw sp, sp[6]
	retsp 0
	# RETURN_REG_HOLDER
	.cc_bottom db_to_mult.function
	.set	db_to_mult.nstackwords,6
	.globl	db_to_mult.nstackwords
	.set	db_to_mult.maxcores,1
	.globl	db_to_mult.maxcores
	.set	db_to_mult.maxtimers,0
	.globl	db_to_mult.maxtimers
	.set	db_to_mult.maxchanends,0
	.globl	db_to_mult.maxchanends
.Ltmp43:
	.size	db_to_mult, .Ltmp43-db_to_mult
.Lfunc_end0:
	.cfi_endproc

	.section	.cp.rodata.4,"ac",@progbits
	.cc_top coef.data,coef
	.align	4
	.type	coef,@object
	.size	coef, 56
coef:
	.long	2407                    # 0x967
	.long	13778                   # 0x35d2
	.long	64588                   # 0xfc4c
	.long	308051                  # 0x4b353
	.long	1346110                 # 0x148a3e
	.long	5261991                 # 0x504aa7
	.long	18277531                # 0x116e49b
	.long	55564576                # 0x34fd920
	.long	144789513               # 0x8a15009
	.long	314406484               # 0x12bd7654
	.long	546179875               # 0x208e0b23
	.long	711608713               # 0x2a6a4989
	.long	618095479               # 0x24d76377
	.long	268435456               # 0x10000000
	.cc_bottom coef.data
.Ldebug_end0:
	.text
.Ldebug_end1:
	.file	2 "C:\\Program Files (x86)\\XMOS\\xTIMEcomposer\\Community_14.3.3\\target/include\\timer.h"
	.section	.xtalabeltable,"",@progbits
.Lentries_start0:
	.long	.Lentries_end1-.Lentries_start0
	.long	0
	.ascii	"C:\\Users\\user\\workspace\\app_vf_spk_base\\.build_1i2o2_lin33_48k_usbctl_farenddsp"
	.byte	0
.cc_top cc_0,.Lxtalabel0
	.ascii	"C:/Users/user/workspace/module_usb_audio/endpoint0/dbcalc.xc"
	.byte	0
	.long	32
	.long	37
	.long	.Lxtalabel0
.cc_bottom cc_0
.cc_top cc_1,.Lxtalabel0
	.ascii	"C:/Users/user/workspace/module_usb_audio/endpoint0/dbcalc.xc"
	.byte	0
	.long	40
	.long	40
	.long	.Lxtalabel0
.cc_bottom cc_1
.cc_top cc_2,.Lxtalabel5
	.ascii	"C:/Users/user/workspace/module_usb_audio/endpoint0/dbcalc.xc"
	.byte	0
	.long	41
	.long	41
	.long	.Lxtalabel5
.cc_bottom cc_2
.cc_top cc_3,.Lxtalabel1
	.ascii	"C:/Users/user/workspace/module_usb_audio/endpoint0/dbcalc.xc"
	.byte	0
	.long	46
	.long	48
	.long	.Lxtalabel1
.cc_bottom cc_3
.cc_top cc_4,.Lxtalabel1
	.ascii	"C:/Users/user/workspace/module_usb_audio/endpoint0/dbcalc.xc"
	.byte	0
	.long	55
	.long	55
	.long	.Lxtalabel1
.cc_bottom cc_4
.cc_top cc_5,.Lxtalabel6
	.ascii	"C:/Users/user/workspace/module_usb_audio/endpoint0/dbcalc.xc"
	.byte	0
	.long	56
	.long	58
	.long	.Lxtalabel6
.cc_bottom cc_5
.cc_top cc_6,.Lxtalabel6
	.ascii	"C:/Users/user/workspace/module_usb_audio/endpoint0/dbcalc.xc"
	.byte	0
	.long	60
	.long	60
	.long	.Lxtalabel6
.cc_bottom cc_6
.cc_top cc_7,.Lxtalabel7
	.ascii	"C:/Users/user/workspace/module_usb_audio/endpoint0/dbcalc.xc"
	.byte	0
	.long	61
	.long	62
	.long	.Lxtalabel7
.cc_bottom cc_7
.cc_top cc_8,.Lxtalabel8
	.ascii	"C:/Users/user/workspace/module_usb_audio/endpoint0/dbcalc.xc"
	.byte	0
	.long	63
	.long	63
	.long	.Lxtalabel8
.cc_bottom cc_8
.cc_top cc_9,.Lxtalabel2
	.ascii	"C:/Users/user/workspace/module_usb_audio/endpoint0/dbcalc.xc"
	.byte	0
	.long	66
	.long	70
	.long	.Lxtalabel2
.cc_bottom cc_9
.cc_top cc_10,.Lxtalabel3
	.ascii	"C:/Users/user/workspace/module_usb_audio/endpoint0/dbcalc.xc"
	.byte	0
	.long	71
	.long	72
	.long	.Lxtalabel3
.cc_bottom cc_10
.cc_top cc_11,.Lxtalabel4
	.ascii	"C:/Users/user/workspace/module_usb_audio/endpoint0/dbcalc.xc"
	.byte	0
	.long	73
	.long	73
	.long	.Lxtalabel4
.cc_bottom cc_11
.cc_top cc_12,.Lxtalabel9
	.ascii	"C:/Users/user/workspace/module_usb_audio/endpoint0/dbcalc.xc"
	.byte	0
	.long	79
	.long	79
	.long	.Lxtalabel9
.cc_bottom cc_12
.cc_top cc_13,.Lxtalabel10
	.ascii	"C:/Users/user/workspace/module_usb_audio/endpoint0/dbcalc.xc"
	.byte	0
	.long	80
	.long	82
	.long	.Lxtalabel10
.cc_bottom cc_13
.cc_top cc_14,.Lxtalabel10
	.ascii	"C:/Users/user/workspace/module_usb_audio/endpoint0/dbcalc.xc"
	.byte	0
	.long	84
	.long	84
	.long	.Lxtalabel10
.cc_bottom cc_14
.cc_top cc_15,.Lxtalabel10
	.ascii	"C:/Users/user/workspace/module_usb_audio/endpoint0/dbcalc.xc"
	.byte	0
	.long	86
	.long	88
	.long	.Lxtalabel10
.cc_bottom cc_15
.cc_top cc_16,.Lxtalabel11
	.ascii	"C:/Users/user/workspace/module_usb_audio/endpoint0/dbcalc.xc"
	.byte	0
	.long	91
	.long	91
	.long	.Lxtalabel11
.cc_bottom cc_16
.cc_top cc_17,.Lxtalabel12
	.ascii	"C:/Users/user/workspace/module_usb_audio/endpoint0/dbcalc.xc"
	.byte	0
	.long	92
	.long	93
	.long	.Lxtalabel12
.cc_bottom cc_17
.cc_top cc_18,.Lxtalabel12
	.ascii	"C:/Users/user/workspace/module_usb_audio/endpoint0/dbcalc.xc"
	.byte	0
	.long	95
	.long	97
	.long	.Lxtalabel12
.cc_bottom cc_18
.cc_top cc_19,.Lxtalabel13
	.ascii	"C:/Users/user/workspace/module_usb_audio/endpoint0/dbcalc.xc"
	.byte	0
	.long	101
	.long	101
	.long	.Lxtalabel13
.cc_bottom cc_19
.cc_top cc_20,.Lxtalabel13
	.ascii	"C:/Users/user/workspace/module_usb_audio/endpoint0/dbcalc.xc"
	.byte	0
	.long	103
	.long	103
	.long	.Lxtalabel13
.cc_bottom cc_20
.cc_top cc_21,.Lxtalabel14
	.ascii	"C:/Users/user/workspace/module_usb_audio/endpoint0/dbcalc.xc"
	.byte	0
	.long	104
	.long	105
	.long	.Lxtalabel14
.cc_bottom cc_21
.cc_top cc_22,.Lxtalabel15
	.ascii	"C:/Users/user/workspace/module_usb_audio/endpoint0/dbcalc.xc"
	.byte	0
	.long	106
	.long	108
	.long	.Lxtalabel15
.cc_bottom cc_22
.Lentries_end1:
	.section	.xtalooplabeltable,"",@progbits
.Lentries_start2:
	.long	.Lentries_end3-.Lentries_start2
	.long	0
	.ascii	"C:\\Users\\user\\workspace\\app_vf_spk_base\\.build_1i2o2_lin33_48k_usbctl_farenddsp"
	.byte	0
.cc_top cc_23,.Lxta.loop_labels1
	.ascii	"C:/Users/user/workspace/module_usb_audio/endpoint0/dbcalc.xc"
	.byte	0
	.long	63
	.long	63
	.long	.Lxta.loop_labels1
.cc_bottom cc_23
.cc_top cc_24,.Lxta.loop_labels0
	.ascii	"C:/Users/user/workspace/module_usb_audio/endpoint0/dbcalc.xc"
	.byte	0
	.long	73
	.long	73
	.long	.Lxta.loop_labels0
.cc_bottom cc_24
.cc_top cc_25,.Lxta.loop_labels2
	.ascii	"C:/Users/user/workspace/module_usb_audio/endpoint0/dbcalc.xc"
	.byte	0
	.long	80
	.long	82
	.long	.Lxta.loop_labels2
.cc_bottom cc_25
.cc_top cc_26,.Lxta.loop_labels2
	.ascii	"C:/Users/user/workspace/module_usb_audio/endpoint0/dbcalc.xc"
	.byte	0
	.long	84
	.long	84
	.long	.Lxta.loop_labels2
.cc_bottom cc_26
.cc_top cc_27,.Lxta.loop_labels2
	.ascii	"C:/Users/user/workspace/module_usb_audio/endpoint0/dbcalc.xc"
	.byte	0
	.long	86
	.long	88
	.long	.Lxta.loop_labels2
.cc_bottom cc_27
.Lentries_end3:
	.section	.trap_info,"",@progbits
.Ltrap_info_entries_start0:
	.long	.Ltrap_info_entries_end0-.Ltrap_info_entries_start0
	.long	1
.Ltrap_info_entries_end0: