	.text
	.file	"C:/Users/user/workspace/lib_dsp/src/dsp_complex.xc"
                                        # Start of file scope inline assembly
	.inline_definition dsp_math_cos
	.inline_definition dsp_math_sinh
	.inline_definition dsp_math_cosh
	.inline_definition delay_seconds
	.inline_definition delay_milliseconds
	.inline_definition delay_microseconds
	.set usage.anon.0,0
	.set usage.anon.1,0
	.set usage.anon.2,0
	.set usage.anon.3,0
	.set usage.anon.4,0
	.set usage.anon.5,0
	.set usage.anon.6,0
	.call dsp_complex_scale_vector,usage.anon.6
	.call dsp_complex_magnitude_vector,dsp_math_atan2_hypot
	.call usage.anon.5,delay_ticks_longlong
	.call usage.anon.4,delay_ticks_longlong
	.call usage.anon.3,delay_ticks_longlong
	.call usage.anon.2,dsp_math_sinh_
	.call usage.anon.1,dsp_math_sinh_
	.call usage.anon.0,dsp_math_sin
	.set dsp_complex_magnitude_vector.locnoside, 0
	.set dsp_complex_scale_vector.locnoside, 0

                                        # End of file scope inline assembly
	.text
	.globl	dsp_complex_add
	.align	4
	.type	dsp_complex_add,@function
	.cc_top dsp_complex_add.function,dsp_complex_add
dsp_complex_add:                        # @dsp_complex_add
.Lfunc_begin0:
	.file	1 "C:/Users/user/workspace/lib_dsp/src\\dsp_complex.xc"
	.loc	1 7 0                   # C:/Users/user/workspace/lib_dsp/src/dsp_complex.xc:7:0
	.cfi_startproc
	.issue_mode dual
# BB#0:                                 # %allocas
.Lxtalabel0:
	{
		nop
		dualentsp 0
	}
	{
		nop
		ldw r3, r1[0]
	}
	{
		nop
		ldw r1, r1[1]
	}
	{
		nop
		ldw r11, r2[0]
	}
	{
		add r3, r11, r3
		ldw r2, r2[1]
	}
	.loc	1 8 0 prologue_end      # C:/Users/user/workspace/lib_dsp/src/dsp_complex.xc:8:0
.Ltmp0:
	{
		add r1, r2, r1
		stw r3, r0[0]
	}
	{
		nop
		stw r1, r0[1]
	}
	{
		nop
		retsp 0
	}
	# RETURN_REG_HOLDER
.Ltmp1:
	.cc_bottom dsp_complex_add.function
	.set	dsp_complex_add.nstackwords,0
	.globl	dsp_complex_add.nstackwords
	.set	dsp_complex_add.maxcores,1
	.globl	dsp_complex_add.maxcores
	.set	dsp_complex_add.maxtimers,0
	.globl	dsp_complex_add.maxtimers
	.set	dsp_complex_add.maxchanends,0
	.globl	dsp_complex_add.maxchanends
.Ltmp2:
	.size	dsp_complex_add, .Ltmp2-dsp_complex_add
.Lfunc_end0:
	.cfi_endproc

	.globl	dsp_complex_sub
	.align	4
	.type	dsp_complex_sub,@function
	.cc_top dsp_complex_sub.function,dsp_complex_sub
dsp_complex_sub:                        # @dsp_complex_sub
.Lfunc_begin1:
	.loc	1 12 0                  # C:/Users/user/workspace/lib_dsp/src/dsp_complex.xc:12:0
	.cfi_startproc
	.issue_mode dual
# BB#0:                                 # %allocas
.Lxtalabel1:
	{
		nop
		dualentsp 0
	}
	{
		nop
		ldw r3, r1[0]
	}
	{
		nop
		ldw r1, r1[1]
	}
	{
		nop
		ldw r11, r2[0]
	}
	{
		sub r3, r3, r11
		ldw r2, r2[1]
	}
	.loc	1 13 0 prologue_end     # C:/Users/user/workspace/lib_dsp/src/dsp_complex.xc:13:0
.Ltmp3:
	{
		sub r1, r1, r2
		stw r3, r0[0]
	}
	{
		nop
		stw r1, r0[1]
	}
	{
		nop
		retsp 0
	}
	# RETURN_REG_HOLDER
.Ltmp4:
	.cc_bottom dsp_complex_sub.function
	.set	dsp_complex_sub.nstackwords,0
	.globl	dsp_complex_sub.nstackwords
	.set	dsp_complex_sub.maxcores,1
	.globl	dsp_complex_sub.maxcores
	.set	dsp_complex_sub.maxtimers,0
	.globl	dsp_complex_sub.maxtimers
	.set	dsp_complex_sub.maxchanends,0
	.globl	dsp_complex_sub.maxchanends
.Ltmp5:
	.size	dsp_complex_sub, .Ltmp5-dsp_complex_sub
.Lfunc_end1:
	.cfi_endproc

	.globl	dsp_complex_mul
	.align	4
	.type	dsp_complex_mul,@function
	.cc_top dsp_complex_mul.function,dsp_complex_mul
dsp_complex_mul:                        # @dsp_complex_mul
.Lfunc_begin2:
	.loc	1 17 0                  # C:/Users/user/workspace/lib_dsp/src/dsp_complex.xc:17:0
	.cfi_startproc
	.issue_mode dual
# BB#0:                                 # %allocas
.Lxtalabel2:
	{
		nop
		dualentsp 10
	}
.Ltmp6:
	.cfi_def_cfa_offset 40
.Ltmp7:
	.cfi_offset 15, 0
	std r5, r4, sp[1]               # 4-byte Folded Spill
.Ltmp8:
	.cfi_offset 4, -32
.Ltmp9:
	.cfi_offset 5, -28
	std r7, r6, sp[2]               # 4-byte Folded Spill
.Ltmp10:
	.cfi_offset 6, -24
.Ltmp11:
	.cfi_offset 7, -20
	std r9, r8, sp[3]               # 4-byte Folded Spill
.Ltmp12:
	.cfi_offset 8, -16
.Ltmp13:
	.cfi_offset 9, -12
.Ltmp14:
	.cfi_offset 10, -8
	#DEBUG_VALUE: dsp_complex_mul:N <- R3
.Ltmp15:
	#DEBUG_VALUE: dsp_complex_mul:N <- R5
	{
		mov r5, r3
		stw r10, sp[8]
	}
.Ltmp16:
	{
		nop
		stw r0, sp[1]
	}
	{
		nop
		ldw r8, r2[0]
	}
	.loc	1 18 0 prologue_end     # C:/Users/user/workspace/lib_dsp/src/dsp_complex.xc:18:0
.Ltmp17:
	{
		ldc r6, 0
		ldw r9, r1[0]
	}
	.loc	1 18 0                  # C:/Users/user/workspace/lib_dsp/src/dsp_complex.xc:18:0
	{
		mov r3, r6
		mov r0, r6
	}
	maccs r3, r0, r8, r9
	{
		nop
		ldw r10, r2[1]
	}
	.loc	1 18 0                  # C:/Users/user/workspace/lib_dsp/src/dsp_complex.xc:18:0
	{
		mov r1, r6
		ldw r4, r1[1]
	}
	.loc	1 18 0                  # C:/Users/user/workspace/lib_dsp/src/dsp_complex.xc:18:0
	{
		mov r2, r6
		nop
	}
	maccs r1, r2, r10, r4
	.loc	1 18 0                  # C:/Users/user/workspace/lib_dsp/src/dsp_complex.xc:18:0
	lsub r2, r0, r0, r2, r6
	lsub r2, r1, r3, r1, r2
	.loc	1 18 0                  # C:/Users/user/workspace/lib_dsp/src/dsp_complex.xc:18:0
	{
		mov r2, r5
		nop
	}
	bl __ashrdi3
	{
		mov r7, r0
		mov r0, r6
	}
	.loc	1 19 0                  # C:/Users/user/workspace/lib_dsp/src/dsp_complex.xc:19:0
.Ltmp18:
	maccs r6, r0, r8, r4
	.loc	1 19 0                  # C:/Users/user/workspace/lib_dsp/src/dsp_complex.xc:19:0
	maccs r6, r0, r10, r9
	.loc	1 19 0                  # C:/Users/user/workspace/lib_dsp/src/dsp_complex.xc:19:0
	{
		mov r1, r6
		mov r2, r5
	}
	bl __ashrdi3
	{
		nop
		ldw r1, sp[1]
	}
	{
		nop
		stw r7, r1[0]
	}
	{
		nop
		stw r0, r1[1]
	}
	{
		nop
		ldw r10, sp[8]
	}
	ldd r9, r8, sp[3]               # 4-byte Folded Reload
	ldd r7, r6, sp[2]               # 4-byte Folded Reload
	ldd r5, r4, sp[1]               # 4-byte Folded Reload
	{
		nop
		retsp 10
	}
	# RETURN_REG_HOLDER
.Ltmp19:
	.cc_bottom dsp_complex_mul.function
	.set	dsp_complex_mul.nstackwords,(__ashrdi3.nstackwords + 10)
	.globl	dsp_complex_mul.nstackwords
	.set	dsp_complex_mul.maxcores,1
	.globl	dsp_complex_mul.maxcores
	.set	dsp_complex_mul.maxtimers,0
	.globl	dsp_complex_mul.maxtimers
	.set	dsp_complex_mul.maxchanends,0
	.globl	dsp_complex_mul.maxchanends
.Ltmp20:
	.size	dsp_complex_mul, .Ltmp20-dsp_complex_mul
.Lfunc_end2:
	.cfi_endproc

	.globl	dsp_complex_mul_conjugate
	.align	4
	.type	dsp_complex_mul_conjugate,@function
	.cc_top dsp_complex_mul_conjugate.function,dsp_complex_mul_conjugate
dsp_complex_mul_conjugate:              # @dsp_complex_mul_conjugate
.Lfunc_begin3:
	.loc	1 24 0                  # C:/Users/user/workspace/lib_dsp/src/dsp_complex.xc:24:0
	.cfi_startproc
	.issue_mode dual
# BB#0:                                 # %allocas
.Lxtalabel3:
	{
		nop
		dualentsp 10
	}
.Ltmp21:
	.cfi_def_cfa_offset 40
.Ltmp22:
	.cfi_offset 15, 0
	std r5, r4, sp[1]               # 4-byte Folded Spill
.Ltmp23:
	.cfi_offset 4, -32
.Ltmp24:
	.cfi_offset 5, -28
	std r7, r6, sp[2]               # 4-byte Folded Spill
.Ltmp25:
	.cfi_offset 6, -24
.Ltmp26:
	.cfi_offset 7, -20
	std r9, r8, sp[3]               # 4-byte Folded Spill
.Ltmp27:
	.cfi_offset 8, -16
.Ltmp28:
	.cfi_offset 9, -12
.Ltmp29:
	.cfi_offset 10, -8
	#DEBUG_VALUE: dsp_complex_mul_conjugate:N <- R3
.Ltmp30:
	#DEBUG_VALUE: dsp_complex_mul_conjugate:N <- R5
	{
		mov r5, r3
		stw r10, sp[8]
	}
.Ltmp31:
	{
		mov r4, r0
		ldw r8, r1[0]
	}
	.loc	1 25 0 prologue_end     # C:/Users/user/workspace/lib_dsp/src/dsp_complex.xc:25:0
.Ltmp32:
	{
		ldc r6, 0
		ldw r9, r2[0]
	}
	.loc	1 25 0                  # C:/Users/user/workspace/lib_dsp/src/dsp_complex.xc:25:0
	{
		mov r3, r6
		mov r0, r6
	}
	maccs r3, r0, r9, r8
	{
		nop
		ldw r10, r2[1]
	}
	{
		nop
		ldw r7, r1[1]
	}
	.loc	1 25 0                  # C:/Users/user/workspace/lib_dsp/src/dsp_complex.xc:25:0
	maccs r3, r0, r10, r7
	.loc	1 25 0                  # C:/Users/user/workspace/lib_dsp/src/dsp_complex.xc:25:0
	{
		mov r1, r3
		mov r2, r5
	}
	bl __ashrdi3
	{
		neg r1, r8
		stw r0, sp[1]
	}
	.loc	1 26 0                  # C:/Users/user/workspace/lib_dsp/src/dsp_complex.xc:26:0
.Ltmp33:
	{
		mov r0, r6
		nop
	}
	maccs r6, r0, r9, r7
	.loc	1 26 0                  # C:/Users/user/workspace/lib_dsp/src/dsp_complex.xc:26:0
	maccs r6, r0, r10, r1
	.loc	1 26 0                  # C:/Users/user/workspace/lib_dsp/src/dsp_complex.xc:26:0
	{
		mov r1, r6
		mov r2, r5
	}
	bl __ashrdi3
	{
		nop
		ldw r1, sp[1]
	}
	{
		nop
		stw r1, r4[0]
	}
	{
		nop
		stw r0, r4[1]
	}
	{
		nop
		ldw r10, sp[8]
	}
	ldd r9, r8, sp[3]               # 4-byte Folded Reload
	ldd r7, r6, sp[2]               # 4-byte Folded Reload
	ldd r5, r4, sp[1]               # 4-byte Folded Reload
	{
		nop
		retsp 10
	}
	# RETURN_REG_HOLDER
.Ltmp34:
	.cc_bottom dsp_complex_mul_conjugate.function
	.set	dsp_complex_mul_conjugate.nstackwords,(__ashrdi3.nstackwords + 10)
	.globl	dsp_complex_mul_conjugate.nstackwords
	.set	dsp_complex_mul_conjugate.maxcores,1
	.globl	dsp_complex_mul_conjugate.maxcores
	.set	dsp_complex_mul_conjugate.maxtimers,0
	.globl	dsp_complex_mul_conjugate.maxtimers
	.set	dsp_complex_mul_conjugate.maxchanends,0
	.globl	dsp_complex_mul_conjugate.maxchanends
.Ltmp35:
	.size	dsp_complex_mul_conjugate, .Ltmp35-dsp_complex_mul_conjugate
.Lfunc_end3:
	.cfi_endproc

	.globl	dsp_complex_magnitude_vector
	.align	4
	.type	dsp_complex_magnitude_vector,@function
	.cc_top dsp_complex_magnitude_vector.function,dsp_complex_magnitude_vector
dsp_complex_magnitude_vector:           # @dsp_complex_magnitude_vector
.Lfunc_begin4:
	.loc	1 65 0                  # C:/Users/user/workspace/lib_dsp/src/dsp_complex.xc:65:0
	.cfi_startproc
	.issue_mode dual
# BB#0:                                 # %allocas
.Lxtalabel4:
	{
		nop
		dualentsp 12
	}
.Ltmp36:
	.cfi_def_cfa_offset 48
.Ltmp37:
	.cfi_offset 15, 0
	std r5, r4, sp[2]               # 4-byte Folded Spill
.Ltmp38:
	.cfi_offset 4, -32
.Ltmp39:
	.cfi_offset 5, -28
	std r7, r6, sp[3]               # 4-byte Folded Spill
.Ltmp40:
	.cfi_offset 6, -24
.Ltmp41:
	.cfi_offset 7, -20
	std r9, r8, sp[4]               # 4-byte Folded Spill
.Ltmp42:
	.cfi_offset 8, -16
.Ltmp43:
	.cfi_offset 9, -12
.Ltmp44:
	.cfi_offset 10, -8
	#DEBUG_VALUE: dsp_complex_magnitude_vector:magnitude <- R0
	#DEBUG_VALUE: dsp_complex_magnitude_vector:input <- R1
	#DEBUG_VALUE: dsp_complex_magnitude_vector:N <- R2
	#DEBUG_VALUE: dsp_complex_magnitude_vector:P <- R3
.Ltmp45:
	#DEBUG_VALUE: dsp_complex_magnitude_vector:P <- R4
	{
		mov r4, r3
		stw r10, sp[10]
	}
.Ltmp46:
	#DEBUG_VALUE: dsp_complex_magnitude_vector:magnitude <- R5
	#DEBUG_VALUE: i <- R7
	{
		mov r5, r0
		sub r7, r2, 1
	}
.Ltmp47:
	.loc	1 66 0 prologue_end     # C:/Users/user/workspace/lib_dsp/src/dsp_complex.xc:66:0
	ashr r0, r7, 32
	bt r0, .LBB4_3
.Ltmp48:
# BB#1:                                 # %LoopBody.preheader
	#DEBUG_VALUE: dsp_complex_magnitude_vector:magnitude <- R5
	#DEBUG_VALUE: dsp_complex_magnitude_vector:input <- R1
	#DEBUG_VALUE: dsp_complex_magnitude_vector:N <- R2
	#DEBUG_VALUE: dsp_complex_magnitude_vector:P <- R4
	#DEBUG_VALUE: i <- R7
	{
		nop
		ldw r8, sp[14]
	}
	{
		shl r0, r2, 3
		ldw r9, sp[13]
	}
	{
		add r0, r0, r1
		nop
	}
	{
		sub r10, r0, 8
		ldaw r6, sp[2]
	}
.Ltmp49:
.LBB4_2:                                # %LoopBody
                                        # =>This Inner Loop Header: Depth=1
.Lxtalabel5:
	#DEBUG_VALUE: dsp_complex_magnitude_vector:magnitude <- R5
	#DEBUG_VALUE: dsp_complex_magnitude_vector:P <- R4
	#DEBUG_VALUE: z <- [SP+8]
	.loc	1 68 0                  # C:/Users/user/workspace/lib_dsp/src/dsp_complex.xc:68:0
	{
		lsu r0, r7, r8
		nop
	}
.Ltrap_info0:
	{
		ecallf r0
		nop
	}
	#DEBUG_VALUE: dsp_complex_magnitude_vector:magnitude <- R5
	#DEBUG_VALUE: dsp_complex_magnitude_vector:P <- R4
	#DEBUG_VALUE: z <- [SP+8]
	{
		nop
		ldw r0, r10[0]
	}
	{
		nop
		stw r0, sp[2]
	}
	{
		nop
		ldw r0, r10[1]
	}
	.loc	1 69 0                  # C:/Users/user/workspace/lib_dsp/src/dsp_complex.xc:69:0
	{
		mov r0, r6
		stw r0, sp[3]
	}
	.loc	1 70 0                  # C:/Users/user/workspace/lib_dsp/src/dsp_complex.xc:70:0
	{
		mov r1, r4
		nop
	}
.Lxta.call_labels0:
	bl dsp_math_atan2_hypot
	.loc	1 71 0                  # C:/Users/user/workspace/lib_dsp/src/dsp_complex.xc:71:0
	{
		lsu r0, r7, r9
		nop
	}
.Ltrap_info1:
	{
		ecallf r0
		nop
	}
	#DEBUG_VALUE: dsp_complex_magnitude_vector:magnitude <- R5
	#DEBUG_VALUE: dsp_complex_magnitude_vector:P <- R4
	#DEBUG_VALUE: z <- [SP+8]
	{
		nop
		ldw r0, sp[2]
	}
	.loc	1 71 0                  # C:/Users/user/workspace/lib_dsp/src/dsp_complex.xc:71:0
	stw r0, r5[r7]
.Ltmp50:
	#DEBUG_VALUE: i <- R7
	.loc	1 66 0                  # C:/Users/user/workspace/lib_dsp/src/dsp_complex.xc:66:0
	{
		sub r7, r7, 1
		sub r10, r10, 8
	}
.Ltmp51:
.Lxta.loop_labels0:
	# LOOPMARKER 0
	.loc	1 66 0                  # C:/Users/user/workspace/lib_dsp/src/dsp_complex.xc:66:0
	ashr r0, r7, 32
	bf r0, .LBB4_2
.Ltmp52:
.LBB4_3:                                # %return
.Lxtalabel6:
	{
		nop
		ldw r10, sp[10]
	}
	ldd r9, r8, sp[4]               # 4-byte Folded Reload
	ldd r7, r6, sp[3]               # 4-byte Folded Reload
	ldd r5, r4, sp[2]               # 4-byte Folded Reload
	{
		nop
		retsp 12
	}
	# RETURN_REG_HOLDER
	.cc_bottom dsp_complex_magnitude_vector.function
	.set	dsp_complex_magnitude_vector.nstackwords,(dsp_math_atan2_hypot.nstackwords + 12)
	.globl	dsp_complex_magnitude_vector.nstackwords
	.set	dsp_complex_magnitude_vector.maxcores,dsp_math_atan2_hypot.maxcores $M 1
	.globl	dsp_complex_magnitude_vector.maxcores
	.set	dsp_complex_magnitude_vector.maxtimers,dsp_math_atan2_hypot.maxtimers $M 0
	.globl	dsp_complex_magnitude_vector.maxtimers
	.set	dsp_complex_magnitude_vector.maxchanends,dsp_math_atan2_hypot.maxchanends $M 0
	.globl	dsp_complex_magnitude_vector.maxchanends
.Ltmp53:
	.size	dsp_complex_magnitude_vector, .Ltmp53-dsp_complex_magnitude_vector
.Lfunc_end4:
	.cfi_endproc

	.section	.cp.rodata.cst4,"aMc",@progbits,4
	.cc_top .LCPI5_0.data,.LCPI5_0
	.align	4
	.type	.LCPI5_0,@object
	.size	.LCPI5_0, 4
.LCPI5_0:
	.long	2147483647              # 0x7fffffff
	.cc_bottom .LCPI5_0.data
	.text
	.globl	dsp_complex_scale_vector
	.align	4
	.type	dsp_complex_scale_vector,@function
	.cc_top dsp_complex_scale_vector.function,dsp_complex_scale_vector
dsp_complex_scale_vector:               # @dsp_complex_scale_vector
.Lfunc_begin5:
	.loc	1 102 0                 # C:/Users/user/workspace/lib_dsp/src/dsp_complex.xc:102:0
	.cfi_startproc
	.issue_mode dual
# BB#0:                                 # %allocas
.Lxtalabel7:
	{
		nop
		dualentsp 12
	}
.Ltmp54:
	.cfi_def_cfa_offset 48
.Ltmp55:
	.cfi_offset 15, 0
	std r5, r4, sp[2]               # 4-byte Folded Spill
.Ltmp56:
	.cfi_offset 4, -32
.Ltmp57:
	.cfi_offset 5, -28
	std r7, r6, sp[3]               # 4-byte Folded Spill
.Ltmp58:
	.cfi_offset 6, -24
.Ltmp59:
	.cfi_offset 7, -20
	std r9, r8, sp[4]               # 4-byte Folded Spill
.Ltmp60:
	.cfi_offset 8, -16
.Ltmp61:
	.cfi_offset 9, -12
	{
		nop
		stw r10, sp[10]
	}
.Ltmp62:
	.cfi_offset 10, -8
	#DEBUG_VALUE: dsp_complex_scale_vector:array <- R0
	#DEBUG_VALUE: dsp_complex_scale_vector:numerator <- R1
	#DEBUG_VALUE: dsp_complex_scale_vector:denominator <- R2
	#DEBUG_VALUE: dsp_complex_scale_vector:N <- R3
	{
		nop
		stw r2, sp[1]
	}
.Ltmp63:
	#DEBUG_VALUE: dsp_complex_scale_vector:denominator <- [SP+4]
	{
		nop
		stw r1, sp[0]
	}
.Ltmp64:
	#DEBUG_VALUE: dsp_complex_scale_vector:numerator <- [SP+0]
	ldd r2, r1, sp[7]
	{
		nop
		stw r2, sp[2]
	}
.Ltmp65:
	#DEBUG_VALUE: i <- R5
	.loc	1 103 0 prologue_end    # C:/Users/user/workspace/lib_dsp/src/dsp_complex.xc:103:0
	{
		sub r5, r3, 1
		stw r1, sp[3]
	}
.Ltmp66:
	.loc	1 103 0                 # C:/Users/user/workspace/lib_dsp/src/dsp_complex.xc:103:0
	ashr r1, r5, 32
	bt r1, .LBB5_7
.Ltmp67:
# BB#1:                                 # %LoopBody.preheader
	#DEBUG_VALUE: dsp_complex_scale_vector:array <- R0
	#DEBUG_VALUE: dsp_complex_scale_vector:numerator <- [SP+0]
	#DEBUG_VALUE: dsp_complex_scale_vector:denominator <- [SP+4]
	#DEBUG_VALUE: dsp_complex_scale_vector:N <- R3
	#DEBUG_VALUE: i <- R5
	.loc	1 104 0                 # C:/Users/user/workspace/lib_dsp/src/dsp_complex.xc:104:0
	{
		shl r1, r3, 3
		nop
	}
	{
		add r0, r1, r0
		nop
	}
.Ltmp68:
	{
		sub r0, r0, 8
		mkmsk r3, 1
	}
.Ltmp69:
	{
		ldc r2, 0
		nop
	}
	ldw r1, cp[.LCPI5_0]
.Ltmp70:
.LBB5_2:                                # %LoopBody
                                        # =>This Inner Loop Header: Depth=1
.Lxtalabel8:
	#DEBUG_VALUE: dsp_complex_scale_vector:numerator <- [SP+0]
	#DEBUG_VALUE: dsp_complex_scale_vector:denominator <- [SP+4]
	{
		nop
		ldw r11, sp[13]
	}
	.loc	1 104 0                 # C:/Users/user/workspace/lib_dsp/src/dsp_complex.xc:104:0
	{
		lsu r4, r5, r11
		nop
	}
.Ltrap_info2:
	{
		ecallf r4
		nop
	}
	#DEBUG_VALUE: dsp_complex_scale_vector:numerator <- [SP+0]
	#DEBUG_VALUE: dsp_complex_scale_vector:denominator <- [SP+4]
	{
		nop
		ldw r11, sp[3]
	}
	.loc	1 104 0                 # C:/Users/user/workspace/lib_dsp/src/dsp_complex.xc:104:0
	{
		lsu r4, r5, r11
		nop
	}
.Ltrap_info3:
	{
		ecallf r4
		nop
	}
	#DEBUG_VALUE: dsp_complex_scale_vector:numerator <- [SP+0]
	#DEBUG_VALUE: dsp_complex_scale_vector:denominator <- [SP+4]
	{
		nop
		ldw r11, sp[2]
	}
	.loc	1 104 0                 # C:/Users/user/workspace/lib_dsp/src/dsp_complex.xc:104:0
	{
		lsu r4, r5, r11
		nop
	}
.Ltrap_info4:
	{
		ecallf r4
		nop
	}
	#DEBUG_VALUE: dsp_complex_scale_vector:numerator <- [SP+0]
	#DEBUG_VALUE: dsp_complex_scale_vector:denominator <- [SP+4]
	{
		nop
		ldw r4, r0[0]
	}
.Ltmp71:
	#DEBUG_VALUE: mul_by_frac:v <- R4
	{
		nop
		ldw r11, sp[0]
	}
	{
		nop
		ldw r10, r11[r5]
	}
.Ltmp72:
	#DEBUG_VALUE: mul_by_frac:numerator <- R10
	#DEBUG_VALUE: mul_by_frac:numerator <- R10
	{
		nop
		ldw r11, sp[1]
	}
	{
		nop
		ldw r9, r11[r5]
	}
.Ltmp73:
	#DEBUG_VALUE: sign <- 1
	#DEBUG_VALUE: mul_by_frac:denominator <- R9
	#DEBUG_VALUE: mul_by_frac:denominator <- R9
	.loc	1 79 5                  # C:/Users/user/workspace/lib_dsp/src/dsp_complex.xc:79:5
	ashr r7, r4, 32
	.loc	1 79 5                  # C:/Users/user/workspace/lib_dsp/src/dsp_complex.xc:79:5
	{
		add r4, r4, r7
		or r6, r7, r3
	}
.Ltmp74:
	.loc	1 79 5                  # C:/Users/user/workspace/lib_dsp/src/dsp_complex.xc:79:5
	xor r8, r4, r7
.Ltmp75:
	#DEBUG_VALUE: l <- 0
	#DEBUG_VALUE: h <- 0
	.loc	1 87 0                  # C:/Users/user/workspace/lib_dsp/src/dsp_complex.xc:87:0
	{
		mov r7, r2
		mov r4, r2
	}
	#APP
	maccu r7, r4, r8, r10
	#NO_APP
	.loc	1 88 5                  # C:/Users/user/workspace/lib_dsp/src/dsp_complex.xc:88:5
	{
		lsu r11, r7, r9
		mov r8, r1
	}
	bf r11, .LBB5_4
.Ltmp76:
# BB#3:                                 # %ifdone4.i
                                        #   in Loop: Header=BB5_2 Depth=1
.Lxtalabel9:
	#DEBUG_VALUE: dsp_complex_scale_vector:numerator <- [SP+0]
	#DEBUG_VALUE: dsp_complex_scale_vector:denominator <- [SP+4]
	#DEBUG_VALUE: mul_by_frac:numerator <- R10
	#DEBUG_VALUE: mul_by_frac:denominator <- R9
	#DEBUG_VALUE: sign <- 1
	#DEBUG_VALUE: h <- 0
	#DEBUG_VALUE: l <- 0
	.loc	1 92 0                  # C:/Users/user/workspace/lib_dsp/src/dsp_complex.xc:92:0
	#APP
	ldivu r8, r11, r7, r4, r9
	#NO_APP
.Ltmp77:
.LBB5_4:                                # %afterboundcheck40
                                        #   in Loop: Header=BB5_2 Depth=1
.Lxtalabel10:
	#DEBUG_VALUE: dsp_complex_scale_vector:numerator <- [SP+0]
	#DEBUG_VALUE: dsp_complex_scale_vector:denominator <- [SP+4]
	#DEBUG_VALUE: mul_by_frac:numerator <- R10
	#DEBUG_VALUE: mul_by_frac:numerator <- R10
	#DEBUG_VALUE: mul_by_frac:denominator <- R9
	#DEBUG_VALUE: mul_by_frac:denominator <- R9
	#DEBUG_VALUE: sign <- 1
	#DEBUG_VALUE: h <- 0
	#DEBUG_VALUE: l <- 0
	.loc	1 89 9                  # C:/Users/user/workspace/lib_dsp/src/dsp_complex.xc:89:9
	mul r11, r8, r6
	{
		nop
		stw r11, r0[0]
	}
	{
		nop
		ldw r11, r0[1]
	}
.Ltmp78:
	#DEBUG_VALUE: sign <- 1
	#DEBUG_VALUE: mul_by_frac:v <- R11
	.loc	1 79 5                  # C:/Users/user/workspace/lib_dsp/src/dsp_complex.xc:79:5
	ashr r4, r11, 32
.Ltmp79:
	#DEBUG_VALUE: l <- 0
	#DEBUG_VALUE: h <- 0
	.loc	1 105 0                 # C:/Users/user/workspace/lib_dsp/src/dsp_complex.xc:105:0
	{
		add r11, r11, r4
		or r6, r4, r3
	}
.Ltmp80:
	.loc	1 79 5                  # C:/Users/user/workspace/lib_dsp/src/dsp_complex.xc:79:5
	xor r11, r11, r4
	.loc	1 87 0                  # C:/Users/user/workspace/lib_dsp/src/dsp_complex.xc:87:0
.Ltmp81:
	{
		mov r7, r2
		mov r4, r2
	}
	#APP
	maccu r7, r4, r11, r10
	#NO_APP
	.loc	1 88 5                  # C:/Users/user/workspace/lib_dsp/src/dsp_complex.xc:88:5
	{
		lsu r11, r7, r9
		mov r8, r1
	}
	bf r11, .LBB5_6
.Ltmp82:
# BB#5:                                 # %ifdone4.i53
                                        #   in Loop: Header=BB5_2 Depth=1
.Lxtalabel11:
	#DEBUG_VALUE: dsp_complex_scale_vector:numerator <- [SP+0]
	#DEBUG_VALUE: dsp_complex_scale_vector:denominator <- [SP+4]
	#DEBUG_VALUE: mul_by_frac:denominator <- R9
	#DEBUG_VALUE: sign <- 1
	#DEBUG_VALUE: h <- 0
	#DEBUG_VALUE: l <- 0
	.loc	1 92 0                  # C:/Users/user/workspace/lib_dsp/src/dsp_complex.xc:92:0
	#APP
	ldivu r8, r11, r7, r4, r9
	#NO_APP
.Ltmp83:
.LBB5_6:                                # %mul_by_frac.exit56
                                        #   in Loop: Header=BB5_2 Depth=1
	#DEBUG_VALUE: dsp_complex_scale_vector:numerator <- [SP+0]
	#DEBUG_VALUE: dsp_complex_scale_vector:denominator <- [SP+4]
	#DEBUG_VALUE: sign <- 1
	#DEBUG_VALUE: h <- 0
	#DEBUG_VALUE: l <- 0
	.loc	1 89 9                  # C:/Users/user/workspace/lib_dsp/src/dsp_complex.xc:89:9
	mul r11, r8, r6
.Ltmp84:
	#DEBUG_VALUE: i <- R5
	.loc	1 105 0                 # C:/Users/user/workspace/lib_dsp/src/dsp_complex.xc:105:0
	{
		sub r5, r5, 1
		stw r11, r0[1]
	}
.Ltmp85:
	.loc	1 103 0                 # C:/Users/user/workspace/lib_dsp/src/dsp_complex.xc:103:0
	{
		sub r0, r0, 8
		nop
	}
.Lxta.loop_labels1:
	# LOOPMARKER 0
	.loc	1 103 0                 # C:/Users/user/workspace/lib_dsp/src/dsp_complex.xc:103:0
	ashr r11, r5, 32
	bf r11, .LBB5_2
.Ltmp86:
.LBB5_7:                                # %return
.Lxtalabel12:
	{
		nop
		ldw r10, sp[10]
	}
	ldd r9, r8, sp[4]               # 4-byte Folded Reload
	ldd r7, r6, sp[3]               # 4-byte Folded Reload
	ldd r5, r4, sp[2]               # 4-byte Folded Reload
	{
		nop
		retsp 12
	}
	# RETURN_REG_HOLDER
	.cc_bottom dsp_complex_scale_vector.function
	.set	dsp_complex_scale_vector.nstackwords,12
	.globl	dsp_complex_scale_vector.nstackwords
	.set	dsp_complex_scale_vector.maxcores,1
	.globl	dsp_complex_scale_vector.maxcores
	.set	dsp_complex_scale_vector.maxtimers,0
	.globl	dsp_complex_scale_vector.maxtimers
	.set	dsp_complex_scale_vector.maxchanends,0
	.globl	dsp_complex_scale_vector.maxchanends
.Ltmp87:
	.size	dsp_complex_scale_vector, .Ltmp87-dsp_complex_scale_vector
.Lfunc_end5:
	.cfi_endproc

.Ldebug_end0:
	.file	2 "C:/Users/user/workspace/lib_dsp/api\\dsp_math.h"
	.file	3 "C:\\Program Files (x86)\\XMOS\\xTIMEcomposer\\Community_14.3.3\\target/include\\timer.h"
	.section	.xtacalltable,"",@progbits
.Lentries_start0:
	.long	.Lentries_end1-.Lentries_start0
	.long	0
	.ascii	"C:\\Users\\user\\workspace\\app_vf_spk_base\\.build_1i2o2_lin33_48k_usbctl_farenddsp"
	.byte	0
.cc_top cc_0,.Lxta.call_labels0
	.ascii	"C:/Users/user/workspace/lib_dsp/src/dsp_complex.xc"
	.byte	0
	.long	70
	.long	.Lxta.call_labels0
.cc_bottom cc_0
.Lentries_end1:
	.section	.xtalabeltable,"",@progbits
.Lentries_start2:
	.long	.Lentries_end3-.Lentries_start2
	.long	0
	.ascii	"C:\\Users\\user\\workspace\\app_vf_spk_base\\.build_1i2o2_lin33_48k_usbctl_farenddsp"
	.byte	0
.cc_top cc_1,.Lxtalabel0
	.ascii	"C:/Users/user/workspace/lib_dsp/src/dsp_complex.xc"
	.byte	0
	.long	8
	.long	10
	.long	.Lxtalabel0
.cc_bottom cc_1
.cc_top cc_2,.Lxtalabel1
	.ascii	"C:/Users/user/workspace/lib_dsp/src/dsp_complex.xc"
	.byte	0
	.long	13
	.long	15
	.long	.Lxtalabel1
.cc_bottom cc_2
.cc_top cc_3,.Lxtalabel2
	.ascii	"C:/Users/user/workspace/lib_dsp/src/dsp_complex.xc"
	.byte	0
	.long	18
	.long	22
	.long	.Lxtalabel2
.cc_bottom cc_3
.cc_top cc_4,.Lxtalabel3
	.ascii	"C:/Users/user/workspace/lib_dsp/src/dsp_complex.xc"
	.byte	0
	.long	25
	.long	29
	.long	.Lxtalabel3
.cc_bottom cc_4
.cc_top cc_5,.Lxtalabel4
	.ascii	"C:/Users/user/workspace/lib_dsp/src/dsp_complex.xc"
	.byte	0
	.long	66
	.long	66
	.long	.Lxtalabel4
.cc_bottom cc_5
.cc_top cc_6,.Lxtalabel5
	.ascii	"C:/Users/user/workspace/lib_dsp/src/dsp_complex.xc"
	.byte	0
	.long	67
	.long	72
	.long	.Lxtalabel5
.cc_bottom cc_6
.cc_top cc_7,.Lxtalabel6
	.ascii	"C:/Users/user/workspace/lib_dsp/src/dsp_complex.xc"
	.byte	0
	.long	73
	.long	73
	.long	.Lxtalabel6
.cc_bottom cc_7
.cc_top cc_8,.Lxtalabel10
	.ascii	"C:/Users/user/workspace/lib_dsp/src/dsp_complex.xc"
	.byte	0
	.long	78
	.long	79
	.long	.Lxtalabel10
.cc_bottom cc_8
.cc_top cc_9,.Lxtalabel10
	.ascii	"C:/Users/user/workspace/lib_dsp/src/dsp_complex.xc"
	.byte	0
	.long	85
	.long	88
	.long	.Lxtalabel10
.cc_bottom cc_9
.cc_top cc_10,.Lxtalabel10
	.ascii	"C:/Users/user/workspace/lib_dsp/src/dsp_complex.xc"
	.byte	0
	.long	89
	.long	90
	.long	.Lxtalabel10
.cc_bottom cc_10
.cc_top cc_11,.Lxtalabel9
	.ascii	"C:/Users/user/workspace/lib_dsp/src/dsp_complex.xc"
	.byte	0
	.long	91
	.long	93
	.long	.Lxtalabel9
.cc_bottom cc_11
.cc_top cc_12,.Lxtalabel11
	.ascii	"C:/Users/user/workspace/lib_dsp/src/dsp_complex.xc"
	.byte	0
	.long	91
	.long	93
	.long	.Lxtalabel11
.cc_bottom cc_12
.cc_top cc_13,.Lxtalabel9
	.ascii	"C:/Users/user/workspace/lib_dsp/src/dsp_complex.xc"
	.byte	0
	.long	96
	.long	97
	.long	.Lxtalabel9
.cc_bottom cc_13
.cc_top cc_14,.Lxtalabel11
	.ascii	"C:/Users/user/workspace/lib_dsp/src/dsp_complex.xc"
	.byte	0
	.long	96
	.long	97
	.long	.Lxtalabel11
.cc_bottom cc_14
.cc_top cc_15,.Lxtalabel7
	.ascii	"C:/Users/user/workspace/lib_dsp/src/dsp_complex.xc"
	.byte	0
	.long	103
	.long	103
	.long	.Lxtalabel7
.cc_bottom cc_15
.cc_top cc_16,.Lxtalabel8
	.ascii	"C:/Users/user/workspace/lib_dsp/src/dsp_complex.xc"
	.byte	0
	.long	104
	.long	106
	.long	.Lxtalabel8
.cc_bottom cc_16
.cc_top cc_17,.Lxtalabel12
	.ascii	"C:/Users/user/workspace/lib_dsp/src/dsp_complex.xc"
	.byte	0
	.long	107
	.long	107
	.long	.Lxtalabel12
.cc_bottom cc_17
.Lentries_end3:
	.section	.xtalooplabeltable,"",@progbits
.Lentries_start4:
	.long	.Lentries_end5-.Lentries_start4
	.long	0
	.ascii	"C:\\Users\\user\\workspace\\app_vf_spk_base\\.build_1i2o2_lin33_48k_usbctl_farenddsp"
	.byte	0
.cc_top cc_18,.Lxta.loop_labels0
	.ascii	"C:/Users/user/workspace/lib_dsp/src/dsp_complex.xc"
	.byte	0
	.long	67
	.long	72
	.long	.Lxta.loop_labels0
.cc_bottom cc_18
.cc_top cc_19,.Lxta.loop_labels1
	.ascii	"C:/Users/user/workspace/lib_dsp/src/dsp_complex.xc"
	.byte	0
	.long	104
	.long	106
	.long	.Lxta.loop_labels1
.cc_bottom cc_19
.Lentries_end5:
	.section	.trap_info,"",@progbits
.Ltrap_info_entries_start0:
	.long	.Ltrap_info_entries_end0-.Ltrap_info_entries_start0
	.long	1
	.section	.trap_info_str,"MS",@progbits
.Ltrap_info_str0:
.asciiz"C:/Users/user/workspace/lib_dsp/src/dsp_complex.xc:68:16: error: out of bounds array access\n        z[0] = input[i].re;\n               ^~~~~~~~\n"
	.section	.trap_info,"",@progbits
.cc_top cc_trapinfo_0,.Ltrap_info0
	.long	.Ltrap_info0
	.long	.Ltrap_info_str0
.cc_bottom cc_trapinfo_0
	.section	.trap_info_str,"MS",@progbits
.Ltrap_info_str1:
.asciiz"C:/Users/user/workspace/lib_dsp/src/dsp_complex.xc:71:9: error: out of bounds array access\n        magnitude[i] = z[0];\n        ^~~~~~~~~~~~\n"
	.section	.trap_info,"",@progbits
.cc_top cc_trapinfo_1,.Ltrap_info1
	.long	.Ltrap_info1
	.long	.Ltrap_info_str1
.cc_bottom cc_trapinfo_1
	.section	.trap_info_str,"MS",@progbits
.Ltrap_info_str2:
.asciiz"C:/Users/user/workspace/lib_dsp/src/dsp_complex.xc:104:9: error: out of bounds array access\n        array[i].re = mul_by_frac(array[i].re, numerator[i], denominator[i]);\n        ^~~~~~~~\n"
	.section	.trap_info,"",@progbits
.cc_top cc_trapinfo_2,.Ltrap_info2
	.long	.Ltrap_info2
	.long	.Ltrap_info_str2
.cc_bottom cc_trapinfo_2
	.section	.trap_info_str,"MS",@progbits
.Ltrap_info_str3:
.asciiz"C:/Users/user/workspace/lib_dsp/src/dsp_complex.xc:104:48: error: out of bounds array access\n        array[i].re = mul_by_frac(array[i].re, numerator[i], denominator[i]);\n                                               ^~~~~~~~~~~~\n"
	.section	.trap_info,"",@progbits
.cc_top cc_trapinfo_3,.Ltrap_info3
	.long	.Ltrap_info3
	.long	.Ltrap_info_str3
.cc_bottom cc_trapinfo_3
	.section	.trap_info_str,"MS",@progbits
.Ltrap_info_str4:
.asciiz"C:/Users/user/workspace/lib_dsp/src/dsp_complex.xc:104:62: error: out of bounds array access\n        array[i].re = mul_by_frac(array[i].re, numerator[i], denominator[i]);\n                                                             ^~~~~~~~~~~~~~\n"
	.section	.trap_info,"",@progbits
.cc_top cc_trapinfo_4,.Ltrap_info4
	.long	.Ltrap_info4
	.long	.Ltrap_info_str4
.cc_bottom cc_trapinfo_4
.Ltrap_info_entries_end0: