	.text
	.file	"C:/Users/user/workspace/lib_dsp/src/dsp_idct.xc"
                                        # Start of file scope inline assembly
	.set usage.anon.0,0
	.call dsp_dct_inverse2,usage.anon.0
	.call dsp_dct_inverse3,usage.anon.0
	.call dsp_dct_inverse4,usage.anon.0
	.set dsp_dct_inverse4.locnoside, 0
	.set dsp_dct_inverse3.locnoside, 0
	.set dsp_dct_inverse2.locnoside, 0
	.set dsp_dct_inverse1.locnoside, 0

                                        # End of file scope inline assembly
	.section	.cp.rodata.cst4,"aMc",@progbits,4
	.cc_top .LCPI0_0.data,.LCPI0_0
	.align	4
	.type	.LCPI0_0,@object
	.size	.LCPI0_0, 4
.LCPI0_0:
	.long	1984016189              # 0x7641af3d
	.cc_bottom .LCPI0_0.data
	.cc_top .LCPI0_1.data,.LCPI0_1
	.align	4
	.type	.LCPI0_1,@object
	.size	.LCPI0_1, 4
.LCPI0_1:
	.long	821806413               # 0x30fbc54d
	.cc_bottom .LCPI0_1.data
	.cc_top .LCPI0_2.data,.LCPI0_2
	.align	4
	.type	.LCPI0_2,@object
	.size	.LCPI0_2, 4
.LCPI0_2:
	.long	1518500250              # 0x5a82799a
	.cc_bottom .LCPI0_2.data
	.text
	.globl	dsp_dct_inverse4
	.align	4
	.type	dsp_dct_inverse4,@function
	.cc_top dsp_dct_inverse4.function,dsp_dct_inverse4
dsp_dct_inverse4:                       # @dsp_dct_inverse4
.Lfunc_begin0:
	.file	1 "C:/Users/user/workspace/lib_dsp/src\\dsp_idct.xc"
	.loc	1 14 0                  # C:/Users/user/workspace/lib_dsp/src/dsp_idct.xc:14:0
	.cfi_startproc
	.issue_mode dual
# BB#0:                                 # %allocas
.Lxtalabel0:
	{
		nop
		dualentsp 0
	}
	{
		extsp 8
		nop
	}
.Ltmp0:
	.cfi_def_cfa_offset 32
	std r5, r4, sp[0]               # 4-byte Folded Spill
.Ltmp1:
	.cfi_offset 4, -32
.Ltmp2:
	.cfi_offset 5, -28
	std r7, r6, sp[1]               # 4-byte Folded Spill
.Ltmp3:
	.cfi_offset 6, -24
.Ltmp4:
	.cfi_offset 7, -20
	std r9, r8, sp[2]               # 4-byte Folded Spill
.Ltmp5:
	.cfi_offset 8, -16
.Ltmp6:
	.cfi_offset 9, -12
	{
		nop
		stw r10, sp[6]
	}
.Ltmp7:
	.cfi_offset 10, -8
	#DEBUG_VALUE: dsp_dct_inverse4:output <- R0
	#DEBUG_VALUE: dsp_dct_inverse4:input <- R1
	{
		nop
		ldw r2, r1[0]
	}
	.loc	1 15 0 prologue_end     # C:/Users/user/workspace/lib_dsp/src/dsp_idct.xc:15:0
.Ltmp8:
	ashr r2, r2, 1
.Ltmp9:
	#DEBUG_VALUE: mulcos:cos <- 1984016189
	#DEBUG_VALUE: z <- R2
	{
		nop
		ldw r6, r1[1]
	}
	ldw r4, cp[.LCPI0_0]
	{
		ldc r11, 0
		nop
	}
	.loc	1 9 0                   # C:/Users/user/workspace/lib_dsp/src/dsp_idct.xc:9:0
.Ltmp10:
	{
		mov r3, r11
		mov r7, r11
	}
	maccs r3, r7, r6, r4
	{
		mkmsk r5, 5
		nop
	}
	.loc	1 10 5                  # C:/Users/user/workspace/lib_dsp/src/dsp_idct.xc:10:5
	{
		shr r7, r7, r5
		shl r3, r3, 1
	}
.Ltmp11:
	#DEBUG_VALUE: mulcos:cos <- 1984016189
	{
		or r3, r7, r3
		ldw r7, r1[3]
	}
.Ltmp12:
	.loc	1 9 0                   # C:/Users/user/workspace/lib_dsp/src/dsp_idct.xc:9:0
	{
		mov r8, r11
		mov r9, r11
	}
	maccs r8, r9, r7, r4
	.loc	1 10 5                  # C:/Users/user/workspace/lib_dsp/src/dsp_idct.xc:10:5
	{
		shr r4, r9, r5
		shl r8, r8, 1
	}
	{
		or r4, r4, r8
		nop
	}
	ldw r8, cp[.LCPI0_1]
.Ltmp13:
	#DEBUG_VALUE: mulcos:cos <- 821806413
	.loc	1 9 0                   # C:/Users/user/workspace/lib_dsp/src/dsp_idct.xc:9:0
	{
		mov r9, r11
		mov r10, r11
	}
	maccs r9, r10, r6, r8
	.loc	1 10 5                  # C:/Users/user/workspace/lib_dsp/src/dsp_idct.xc:10:5
	{
		shr r6, r10, r5
		shl r9, r9, 1
	}
.Ltmp14:
	#DEBUG_VALUE: mulcos:cos <- 821806413
	{
		or r6, r6, r9
		mov r9, r11
	}
.Ltmp15:
	.loc	1 9 0                   # C:/Users/user/workspace/lib_dsp/src/dsp_idct.xc:9:0
	{
		mov r10, r11
		nop
	}
	maccs r9, r10, r7, r8
	.loc	1 10 5                  # C:/Users/user/workspace/lib_dsp/src/dsp_idct.xc:10:5
	{
		shr r7, r10, r5
		shl r8, r9, 1
	}
.Ltmp16:
	#DEBUG_VALUE: mulcos:cos <- 1518500250
	{
		or r7, r7, r8
		ldw r1, r1[2]
	}
.Ltmp17:
	ldw r8, cp[.LCPI0_2]
.Ltmp18:
	.loc	1 9 0                   # C:/Users/user/workspace/lib_dsp/src/dsp_idct.xc:9:0
	{
		mov r9, r11
		nop
	}
	maccs r11, r9, r1, r8
	.loc	1 10 5                  # C:/Users/user/workspace/lib_dsp/src/dsp_idct.xc:10:5
	{
		shr r1, r9, r5
		shl r11, r11, 1
	}
	{
		or r1, r1, r11
		add r11, r3, r2
	}
.Ltmp19:
	.loc	1 21 0                  # C:/Users/user/workspace/lib_dsp/src/dsp_idct.xc:21:0
	{
		add r11, r11, r7
		nop
	}
	.loc	1 21 0                  # C:/Users/user/workspace/lib_dsp/src/dsp_idct.xc:21:0
	{
		add r11, r11, r1
		nop
	}
	.loc	1 21 0                  # C:/Users/user/workspace/lib_dsp/src/dsp_idct.xc:21:0
	{
		add r11, r6, r2
		stw r11, r0[0]
	}
	.loc	1 22 0                  # C:/Users/user/workspace/lib_dsp/src/dsp_idct.xc:22:0
	{
		sub r11, r11, r4
		nop
	}
	.loc	1 22 0                  # C:/Users/user/workspace/lib_dsp/src/dsp_idct.xc:22:0
	{
		sub r11, r11, r1
		nop
	}
	.loc	1 22 0                  # C:/Users/user/workspace/lib_dsp/src/dsp_idct.xc:22:0
	{
		sub r11, r2, r6
		stw r11, r0[1]
	}
	.loc	1 23 0                  # C:/Users/user/workspace/lib_dsp/src/dsp_idct.xc:23:0
	{
		add r11, r11, r4
		nop
	}
	.loc	1 23 0                  # C:/Users/user/workspace/lib_dsp/src/dsp_idct.xc:23:0
	{
		sub r11, r11, r1
		nop
	}
	.loc	1 23 0                  # C:/Users/user/workspace/lib_dsp/src/dsp_idct.xc:23:0
	{
		sub r2, r2, r3
		stw r11, r0[2]
	}
.Ltmp20:
	.loc	1 24 0                  # C:/Users/user/workspace/lib_dsp/src/dsp_idct.xc:24:0
	{
		sub r2, r2, r7
		nop
	}
	.loc	1 24 0                  # C:/Users/user/workspace/lib_dsp/src/dsp_idct.xc:24:0
	{
		add r1, r2, r1
		nop
	}
	{
		nop
		stw r1, r0[3]
	}
	{
		nop
		ldw r10, sp[6]
	}
	ldd r9, r8, sp[2]               # 4-byte Folded Reload
	ldd r7, r6, sp[1]               # 4-byte Folded Reload
	ldd r5, r4, sp[0]               # 4-byte Folded Reload
	{
		ldaw sp, sp[8]
		nop
	}
	{
		nop
		retsp 0
	}
	# RETURN_REG_HOLDER
.Ltmp21:
	.cc_bottom dsp_dct_inverse4.function
	.set	dsp_dct_inverse4.nstackwords,8
	.globl	dsp_dct_inverse4.nstackwords
	.set	dsp_dct_inverse4.maxcores,1
	.globl	dsp_dct_inverse4.maxcores
	.set	dsp_dct_inverse4.maxtimers,0
	.globl	dsp_dct_inverse4.maxtimers
	.set	dsp_dct_inverse4.maxchanends,0
	.globl	dsp_dct_inverse4.maxchanends
.Ltmp22:
	.size	dsp_dct_inverse4, .Ltmp22-dsp_dct_inverse4
.Lfunc_end0:
	.cfi_endproc

	.section	.cp.rodata.cst4,"aMc",@progbits,4
	.cc_top .LCPI1_0.data,.LCPI1_0
	.align	4
	.type	.LCPI1_0,@object
	.size	.LCPI1_0, 4
.LCPI1_0:
	.long	1859775393              # 0x6ed9eba1
	.cc_bottom .LCPI1_0.data
	.cc_top .LCPI1_1.data,.LCPI1_1
	.align	4
	.type	.LCPI1_1,@object
	.size	.LCPI1_1, 4
.LCPI1_1:
	.long	2147483648              # 0x80000000
	.cc_bottom .LCPI1_1.data
	.text
	.globl	dsp_dct_inverse3
	.align	4
	.type	dsp_dct_inverse3,@function
	.cc_top dsp_dct_inverse3.function,dsp_dct_inverse3
dsp_dct_inverse3:                       # @dsp_dct_inverse3
.Lfunc_begin1:
	.loc	1 27 0                  # C:/Users/user/workspace/lib_dsp/src/dsp_idct.xc:27:0
	.cfi_startproc
	.issue_mode dual
# BB#0:                                 # %allocas
.Lxtalabel1:
	{
		nop
		dualentsp 0
	}
	{
		extsp 2
		nop
	}
.Ltmp23:
	.cfi_def_cfa_offset 8
	std r5, r4, sp[0]               # 4-byte Folded Spill
.Ltmp24:
	.cfi_offset 4, -8
.Ltmp25:
	.cfi_offset 5, -4
	#DEBUG_VALUE: dsp_dct_inverse3:output <- R0
	#DEBUG_VALUE: dsp_dct_inverse3:input <- R1
	{
		nop
		ldw r2, r1[0]
	}
	.loc	1 28 0 prologue_end     # C:/Users/user/workspace/lib_dsp/src/dsp_idct.xc:28:0
.Ltmp26:
	ashr r2, r2, 1
.Ltmp27:
	#DEBUG_VALUE: mulcos:cos <- 1859775393
	#DEBUG_VALUE: z <- R2
	{
		nop
		ldw r3, r1[1]
	}
	ldw r11, cp[.LCPI1_0]
	{
		ldc r4, 0
		nop
	}
	.loc	1 9 0                   # C:/Users/user/workspace/lib_dsp/src/dsp_idct.xc:9:0
.Ltmp28:
	{
		mov r5, r4
		nop
	}
	maccs r4, r5, r3, r11
	{
		mkmsk r3, 5
		nop
	}
	.loc	1 10 5                  # C:/Users/user/workspace/lib_dsp/src/dsp_idct.xc:10:5
	{
		shr r3, r5, r3
		shl r11, r4, 1
	}
.Ltmp29:
	#DEBUG_VALUE: mulcos:x <- R1
	{
		or r3, r3, r11
		ldw r1, r1[2]
	}
.Ltmp30:
	ldw r11, cp[.LCPI1_1]
.Ltmp31:
	#DEBUG_VALUE: mulcos:cos <- 1073741824
	.loc	1 9 0                   # C:/Users/user/workspace/lib_dsp/src/dsp_idct.xc:9:0
	{
		and r11, r1, r11
		shr r4, r1, 1
	}
	.loc	1 10 5                  # C:/Users/user/workspace/lib_dsp/src/dsp_idct.xc:10:5
	{
		or r11, r4, r11
		nop
	}
.Ltmp32:
	.loc	1 31 0                  # C:/Users/user/workspace/lib_dsp/src/dsp_idct.xc:31:0
	{
		add r4, r11, r2
		nop
	}
	.loc	1 31 0                  # C:/Users/user/workspace/lib_dsp/src/dsp_idct.xc:31:0
	{
		add r4, r4, r3
		nop
	}
	.loc	1 31 0                  # C:/Users/user/workspace/lib_dsp/src/dsp_idct.xc:31:0
	{
		sub r1, r2, r1
		stw r4, r0[0]
	}
	.loc	1 32 0                  # C:/Users/user/workspace/lib_dsp/src/dsp_idct.xc:32:0
	{
		sub r1, r2, r3
		stw r1, r0[1]
	}
	.loc	1 33 0                  # C:/Users/user/workspace/lib_dsp/src/dsp_idct.xc:33:0
	{
		add r1, r1, r11
		nop
	}
	{
		nop
		stw r1, r0[2]
	}
	ldd r5, r4, sp[0]               # 4-byte Folded Reload
	{
		ldaw sp, sp[2]
		nop
	}
	{
		nop
		retsp 0
	}
	# RETURN_REG_HOLDER
.Ltmp33:
	.cc_bottom dsp_dct_inverse3.function
	.set	dsp_dct_inverse3.nstackwords,2
	.globl	dsp_dct_inverse3.nstackwords
	.set	dsp_dct_inverse3.maxcores,1
	.globl	dsp_dct_inverse3.maxcores
	.set	dsp_dct_inverse3.maxtimers,0
	.globl	dsp_dct_inverse3.maxtimers
	.set	dsp_dct_inverse3.maxchanends,0
	.globl	dsp_dct_inverse3.maxchanends
.Ltmp34:
	.size	dsp_dct_inverse3, .Ltmp34-dsp_dct_inverse3
.Lfunc_end1:
	.cfi_endproc

	.section	.cp.rodata.cst4,"aMc",@progbits,4
	.cc_top .LCPI2_0.data,.LCPI2_0
	.align	4
	.type	.LCPI2_0,@object
	.size	.LCPI2_0, 4
.LCPI2_0:
	.long	1518500250              # 0x5a82799a
	.cc_bottom .LCPI2_0.data
	.text
	.globl	dsp_dct_inverse2
	.align	4
	.type	dsp_dct_inverse2,@function
	.cc_top dsp_dct_inverse2.function,dsp_dct_inverse2
dsp_dct_inverse2:                       # @dsp_dct_inverse2
.Lfunc_begin2:
	.loc	1 36 0                  # C:/Users/user/workspace/lib_dsp/src/dsp_idct.xc:36:0
	.cfi_startproc
	.issue_mode dual
# BB#0:                                 # %allocas
.Lxtalabel2:
	{
		nop
		dualentsp 0
	}
	{
		extsp 2
		nop
	}
.Ltmp35:
	.cfi_def_cfa_offset 8
	{
		nop
		stw r4, sp[0]
	}
.Ltmp36:
	.cfi_offset 4, -8
	#DEBUG_VALUE: dsp_dct_inverse2:output <- R0
	#DEBUG_VALUE: dsp_dct_inverse2:input <- R1
	{
		nop
		ldw r2, r1[0]
	}
	.loc	1 37 0 prologue_end     # C:/Users/user/workspace/lib_dsp/src/dsp_idct.xc:37:0
.Ltmp37:
	ashr r2, r2, 1
.Ltmp38:
	#DEBUG_VALUE: mulcos:cos <- 1518500250
	#DEBUG_VALUE: z <- R2
	{
		nop
		ldw r1, r1[1]
	}
.Ltmp39:
	ldw r3, cp[.LCPI2_0]
	{
		ldc r11, 0
		nop
	}
	.loc	1 9 0                   # C:/Users/user/workspace/lib_dsp/src/dsp_idct.xc:9:0
.Ltmp40:
	{
		mov r4, r11
		nop
	}
	maccs r11, r4, r1, r3
	{
		mkmsk r1, 5
		nop
	}
	.loc	1 10 5                  # C:/Users/user/workspace/lib_dsp/src/dsp_idct.xc:10:5
	{
		shr r1, r4, r1
		shl r3, r11, 1
	}
	{
		or r1, r1, r3
		nop
	}
.Ltmp41:
	.loc	1 39 0                  # C:/Users/user/workspace/lib_dsp/src/dsp_idct.xc:39:0
	{
		add r3, r1, r2
		nop
	}
	.loc	1 39 0                  # C:/Users/user/workspace/lib_dsp/src/dsp_idct.xc:39:0
	{
		sub r1, r2, r1
		stw r3, r0[0]
	}
	{
		nop
		stw r1, r0[1]
	}
	{
		ldaw sp, sp[2]
		ldw r4, sp[0]
	}
	{
		nop
		retsp 0
	}
	# RETURN_REG_HOLDER
.Ltmp42:
	.cc_bottom dsp_dct_inverse2.function
	.set	dsp_dct_inverse2.nstackwords,2
	.globl	dsp_dct_inverse2.nstackwords
	.set	dsp_dct_inverse2.maxcores,1
	.globl	dsp_dct_inverse2.maxcores
	.set	dsp_dct_inverse2.maxtimers,0
	.globl	dsp_dct_inverse2.maxtimers
	.set	dsp_dct_inverse2.maxchanends,0
	.globl	dsp_dct_inverse2.maxchanends
.Ltmp43:
	.size	dsp_dct_inverse2, .Ltmp43-dsp_dct_inverse2
.Lfunc_end2:
	.cfi_endproc

	.globl	dsp_dct_inverse1
	.align	4
	.type	dsp_dct_inverse1,@function
	.cc_top dsp_dct_inverse1.function,dsp_dct_inverse1
dsp_dct_inverse1:                       # @dsp_dct_inverse1
	.cfi_startproc
	.issue_mode dual
# BB#0:                                 # %allocas
.Lxtalabel3:
	{
		nop
		dualentsp 0
	}
	#DEBUG_VALUE: dsp_dct_inverse1:output <- R0
	#DEBUG_VALUE: dsp_dct_inverse1:input <- R1
	{
		nop
		ldw r1, r1[0]
	}
	{
		nop
		stw r1, r0[0]
	}
	{
		nop
		retsp 0
	}
	# RETURN_REG_HOLDER
	.cc_bottom dsp_dct_inverse1.function
	.set	dsp_dct_inverse1.nstackwords,0
	.globl	dsp_dct_inverse1.nstackwords
	.set	dsp_dct_inverse1.maxcores,1
	.globl	dsp_dct_inverse1.maxcores
	.set	dsp_dct_inverse1.maxtimers,0
	.globl	dsp_dct_inverse1.maxtimers
	.set	dsp_dct_inverse1.maxchanends,0
	.globl	dsp_dct_inverse1.maxchanends
.Ltmp44:
	.size	dsp_dct_inverse1, .Ltmp44-dsp_dct_inverse1
	.cfi_endproc

.Ldebug_end0:
	.section	.xtalabeltable,"",@progbits
.Lentries_start0:
	.long	.Lentries_end1-.Lentries_start0
	.long	0
	.ascii	"C:\\Users\\user\\workspace\\app_vf_spk_base\\.build_1i2o2_lin33_48k_usbctl_farenddsp"
	.byte	0
.cc_top cc_0,.Lxtalabel0
	.ascii	"C:/Users/user/workspace/lib_dsp/src/dsp_idct.xc"
	.byte	0
	.long	9
	.long	11
	.long	.Lxtalabel0
.cc_bottom cc_0
.cc_top cc_1,.Lxtalabel0
	.ascii	"C:/Users/user/workspace/lib_dsp/src/dsp_idct.xc"
	.byte	0
	.long	9
	.long	11
	.long	.Lxtalabel0
.cc_bottom cc_1
.cc_top cc_2,.Lxtalabel0
	.ascii	"C:/Users/user/workspace/lib_dsp/src/dsp_idct.xc"
	.byte	0
	.long	9
	.long	11
	.long	.Lxtalabel0
.cc_bottom cc_2
.cc_top cc_3,.Lxtalabel0
	.ascii	"C:/Users/user/workspace/lib_dsp/src/dsp_idct.xc"
	.byte	0
	.long	9
	.long	11
	.long	.Lxtalabel0
.cc_bottom cc_3
.cc_top cc_4,.Lxtalabel0
	.ascii	"C:/Users/user/workspace/lib_dsp/src/dsp_idct.xc"
	.byte	0
	.long	9
	.long	11
	.long	.Lxtalabel0
.cc_bottom cc_4
.cc_top cc_5,.Lxtalabel1
	.ascii	"C:/Users/user/workspace/lib_dsp/src/dsp_idct.xc"
	.byte	0
	.long	9
	.long	11
	.long	.Lxtalabel1
.cc_bottom cc_5
.cc_top cc_6,.Lxtalabel1
	.ascii	"C:/Users/user/workspace/lib_dsp/src/dsp_idct.xc"
	.byte	0
	.long	9
	.long	11
	.long	.Lxtalabel1
.cc_bottom cc_6
.cc_top cc_7,.Lxtalabel2
	.ascii	"C:/Users/user/workspace/lib_dsp/src/dsp_idct.xc"
	.byte	0
	.long	9
	.long	11
	.long	.Lxtalabel2
.cc_bottom cc_7
.cc_top cc_8,.Lxtalabel0
	.ascii	"C:/Users/user/workspace/lib_dsp/src/dsp_idct.xc"
	.byte	0
	.long	15
	.long	25
	.long	.Lxtalabel0
.cc_bottom cc_8
.cc_top cc_9,.Lxtalabel1
	.ascii	"C:/Users/user/workspace/lib_dsp/src/dsp_idct.xc"
	.byte	0
	.long	28
	.long	34
	.long	.Lxtalabel1
.cc_bottom cc_9
.cc_top cc_10,.Lxtalabel2
	.ascii	"C:/Users/user/workspace/lib_dsp/src/dsp_idct.xc"
	.byte	0
	.long	37
	.long	41
	.long	.Lxtalabel2
.cc_bottom cc_10
.cc_top cc_11,.Lxtalabel3
	.ascii	"C:/Users/user/workspace/lib_dsp/src/dsp_idct.xc"
	.byte	0
	.long	44
	.long	45
	.long	.Lxtalabel3
.cc_bottom cc_11
.Lentries_end1:
	.section	.trap_info,"",@progbits
.Ltrap_info_entries_start0:
	.long	.Ltrap_info_entries_end0-.Ltrap_info_entries_start0
	.long	1
.Ltrap_info_entries_end0: