	.text
	.file	"debug_printf.c"
	.section	.cp.rodata.cst4,"aMc",@progbits,4
	.cc_top .LCPI0_0.data,.LCPI0_0
	.align	4
	.type	.LCPI0_0,@object
	.size	.LCPI0_0, 4
.LCPI0_0:
	.long	4294967248
	.cc_bottom .LCPI0_0.data
	.cc_top .LCPI0_1.data,.LCPI0_1
	.align	4
	.type	.LCPI0_1,@object
	.size	.LCPI0_1, 4
.LCPI0_1:
	.long	4294967184
	.cc_bottom .LCPI0_1.data
	.text
	.globl	debug_printf
	.align	4
	.type	debug_printf,@function
	.cc_top debug_printf.function,debug_printf
debug_printf:
.Lfunc_begin0:
	.loc	1 57 0
	.cfi_startproc
	.issue_mode single
	ENTSP_lu6 0
	extsp 50
.Ltmp0:
	.cfi_def_cfa_offset 200
	stw lr, sp[1]
.Ltmp1:
	.cfi_offset 15, -196
	stw r4, sp[40]
	stw r5, sp[41]
.Ltmp2:
	.cfi_offset 4, -40
.Ltmp3:
	.cfi_offset 5, -36
	stw r6, sp[42]
	stw r7, sp[43]
.Ltmp4:
	.cfi_offset 6, -32
.Ltmp5:
	.cfi_offset 7, -28
	stw r8, sp[44]
	stw r9, sp[45]
.Ltmp6:
	.cfi_offset 8, -24
.Ltmp7:
	.cfi_offset 9, -20
	stw r10, sp[46]
.Ltmp8:
	.cfi_offset 10, -16
.Ltmp9:
	mov r10, r0
.Ltmp10:
	stw r1, sp[48]
	stw r2, sp[49]
	stw r3, sp[50]
	ldaw r9, sp[7]
.Ltmp11:
	ldaw r0, sp[48]
	.loc	1 68 3 prologue_end
.Ltmp12:
	stw r0, sp[6]
	.loc	1 71 3
	ldc r8, 0
	ld8u r0, r10[r8]
.Ltmp13:
	bf r0, .LBB0_32
.Ltmp14:
	ldc r2, 119
	ldaw r1, sp[7]
.Ltmp15:
	.loc	1 64 3
	add r2, r1, r2
.Ltmp16:
	stw r2, sp[5]
	mkmsk r6, 1
	ldw r5, cp[.LCPI0_0]
	ldc r7, 10
	mov r9, r1
.Ltmp17:
.LBB0_2:
	.loc	1 72 9
	ldw r1, sp[5]
	lsu r1, r1, r9
	bf r1, .LBB0_4
.Ltmp18:
	ldaw r4, sp[7]
	.loc	1 74 7
.Ltmp19:
	sub r2, r9, r4
	.loc	1 74 7
	mov r0, r6
	mov r1, r4
	bl _write
.Ltmp20:
	.loc	1 77 5
	ld8u r0, r10[r8]
	mov r9, r4
.Ltmp21:
.LBB0_4:
	.loc	1 77 5
	mov r1, r0
	zext r1, 8
	ldc r2, 37
	.loc	1 77 5
	eq r1, r1, r2
	bf r1, .LBB0_30
.Ltmp22:
	.loc	1 79 7
	add r0, r10, 1
.Ltmp23:
	.loc	1 80 11
	ld8u r1, r10[r6]
	.loc	1 80 11
	ldaw r1, r1[-8]
	zext r1, 8
	shr r2, r1, 1
	ldc r3, 6
	lsu r2, r3, r2
	bt r2, .LBB0_8
.Ltmp24:
	shl r1, r6, r1
	ldc r2, 10249
	and r1, r1, r2
	bf r1, .LBB0_8
.Ltmp25:
	.loc	1 82 9
	add r0, r10, 2
.Ltmp26:
.LBB0_8:
	sub r1, r0, 1
.Ltmp27:
.LBB0_9:
	add r4, r1, 1
	.loc	1 84 7
	ld8u r0, r1[r6]
	.loc	1 84 7
	add r1, r0, r5
	zext r1, 8
	.loc	1 84 7
	lsu r2, r1, r7
	mov r1, r4
	.loc	1 84 7
	bt r2, .LBB0_9
.Ltmp28:
	.loc	1 89 15
	ldw r1, dp[__ctype_ptr__]
	add r1, r0, r1
	.loc	1 89 15
	ld8u r1, r1[r6]
	.loc	1 89 15
	zext r1, 1
	bf r1, .LBB0_12
.Ltmp29:
	.loc	1 89 15
	ldaw r0, r0[8]
.Ltmp30:
.LBB0_12:
	ldc r1, 111
	.loc	1 89 15
	lss r1, r1, r0
	bt r1, .LBB0_17
.Ltmp31:
	ldc r1, 99
	eq r1, r0, r1
	bf r1, .LBB0_14
.Ltmp32:
	.loc	1 108 9
	ldw r0, sp[6]
	.loc	1 108 9
	add r1, r0, 4
.Ltmp33:
	.loc	1 108 9
	stw r1, sp[6]
	.loc	1 108 9
	ldw r0, r0[0]
.Ltmp34:
	.loc	1 109 9
	add r1, r9, 1
.Ltmp35:
	.loc	1 109 9
	st8 r0, r9[r8]
	mov r9, r1
.Ltmp36:
	bu .LBB0_31
.Ltmp37:
.LBB0_30:
	.loc	1 130 7
	add r1, r9, 1
.Ltmp38:
	.loc	1 130 7
	st8 r0, r9[r8]
	mov r9, r1
.Ltmp39:
	mov r4, r10
	bu .LBB0_31
.Ltmp40:
.LBB0_17:
	ldw r1, cp[.LCPI0_1]
	add r0, r0, r1
	ldc r1, 8
	lsu r1, r1, r0
	bt r1, .LBB0_31
.Ltmp41:

	.xtabranch .Ljumptable0+2,.Ljumptable0+4,.Ljumptable0+6,.Ljumptable0+8,.Ljumptable0+10,.Ljumptable0+12,.Ljumptable0+14,.Ljumptable0+16,.Ljumptable0+18
.Ljumptable0:
		
	bru r0
	.jmptable .LBB0_23,.LBB0_31,.LBB0_31,.LBB0_25,.LBB0_31,.LBB0_21,.LBB0_31,.LBB0_31,.LBB0_23
.Ltmp42:
.LBB0_23:
	.loc	1 104 9
	ldw r0, sp[6]
	.loc	1 104 9
	add r1, r0, 4
.Ltmp43:
	.loc	1 104 9
	stw r1, sp[6]
	.loc	1 104 9
	ldw r0, r0[0]
.Ltmp44:
	.loc	1 105 14
	mov r1, r9
.Ltmp45:
	ldc r2, 16
	bu .LBB0_22
.Ltmp46:
.LBB0_14:
	ldc r1, 100
	eq r0, r0, r1
	bf r0, .LBB0_31
.Ltmp47:
	mov r10, r8
	.loc	1 91 9
	ldw r0, sp[6]
	.loc	1 91 9
	add r1, r0, 4
.Ltmp48:
	.loc	1 91 9
	stw r1, sp[6]
	.loc	1 91 9
	ldw r0, r0[0]
.Ltmp49:
	.loc	1 92 13
	ashr r1, r0, 32
.Ltmp50:
	bt r1, .LBB0_19
.Ltmp51:
	mov r8, r9
	bu .LBB0_20
.Ltmp52:
.LBB0_25:
	.loc	1 112 9
	ldw r0, sp[6]
	.loc	1 112 9
	add r1, r0, 4
.Ltmp53:
	.loc	1 112 9
	stw r1, sp[6]
	.loc	1 112 9
	ldw r0, r0[0]
.Ltmp54:
	.loc	1 113 19
	stw r0, sp[4]
.Ltmp55:
	bl strlen
.Ltmp56:
	mov r8, r0
.Ltmp57:
	ldc r0, 120
	.loc	1 114 13
.Ltmp58:
	lss r0, r8, r0
	bt r0, .LBB0_27
.Ltmp59:
	ldaw r10, sp[7]
	.loc	1 116 11
.Ltmp60:
	sub r2, r9, r10
	.loc	1 116 11
	mov r0, r6
	mov r1, r10
	bl _write
	mov r9, r10
.Ltmp61:
.LBB0_27:
	ldc r0, 119
	mov r1, r0
	lss r0, r1, r8
	.loc	1 119 13
.Ltmp62:
	mov r10, r1
	bt r0, .LBB0_29
.Ltmp63:
	mov r10, r8
.Ltmp64:
.LBB0_29:
	.loc	1 121 9
	mov r0, r9
	ldw r1, sp[4]
	mov r2, r10
	bl memcpy
	.loc	1 122 9
	add r9, r9, r10
.Ltmp65:
	.loc	1 71 3
	ldc r8, 0
	bu .LBB0_31
.Ltmp66:
.LBB0_21:
	.loc	1 99 9
	ldw r0, sp[6]
	.loc	1 99 9
	add r1, r0, 4
.Ltmp67:
	.loc	1 99 9
	stw r1, sp[6]
	.loc	1 99 9
	ldw r0, r0[0]
.Ltmp68:
	.loc	1 100 14
	mov r1, r9
.Ltmp69:
	mov r2, r7
.Ltmp70:
.LBB0_22:
	bl itoa
	.loc	1 100 14
	add r9, r9, r0
.Ltmp71:
	bu .LBB0_31
.Ltmp72:
.LBB0_19:
	.loc	1 93 11
	add r8, r9, 1
.Ltmp73:
	ldc r1, 45
	.loc	1 93 11
	st8 r1, r9[r10]
	.loc	1 94 11
	neg r0, r0
.Ltmp74:
.LBB0_20:
	.loc	1 96 14
	mov r1, r8
	mov r2, r7
	bl itoa
	.loc	1 96 14
	add r9, r8, r0
.Ltmp75:
	mov r8, r10
.Ltmp76:
.LBB0_31:
	.loc	1 132 5
	add r10, r4, 1
.Ltmp77:
	.loc	1 71 3
	ld8u r0, r4[r6]
	bt r0, .LBB0_2
.Ltmp78:
.LBB0_32:
	ldaw r1, sp[7]
.Ltmp79:
	.loc	1 134 3
	sub r2, r9, r1
	mkmsk r0, 1
	.loc	1 134 3
	bl _write
.Ltmp80:
	.loc	1 138 1
	ldw r10, sp[46]
	ldw r8, sp[44]
	ldw r9, sp[45]
	ldw r6, sp[42]
	ldw r7, sp[43]
	ldw r4, sp[40]
	ldw r5, sp[41]
	ldw lr, sp[1]
	ldaw sp, sp[50]
	retsp 0
	# RETURN_REG_HOLDER
.Ltmp81:
	.cc_bottom debug_printf.function
	.set	debug_printf.nstackwords,((itoa.nstackwords $M strlen.nstackwords $M _write.nstackwords $M memcpy.nstackwords) + 50)
	.globl	debug_printf.nstackwords
	.set	debug_printf.maxcores,_write.maxcores $M itoa.maxcores $M strlen.maxcores $M 1
	.globl	debug_printf.maxcores
	.set	debug_printf.maxtimers,_write.maxtimers $M itoa.maxtimers $M strlen.maxtimers $M 0
	.globl	debug_printf.maxtimers
	.set	debug_printf.maxchanends,_write.maxchanends $M itoa.maxchanends $M strlen.maxchanends $M 0
	.globl	debug_printf.maxchanends
.Ltmp82:
	.size	debug_printf, .Ltmp82-debug_printf
.Lfunc_end0:
	.cfi_endproc

	.align	4
	.type	itoa,@function
	.cc_top itoa.function,itoa
itoa:
.Lfunc_begin1:
	.loc	1 26 0
	.cfi_startproc
	.issue_mode single
	ENTSP_lu6 6
.Ltmp83:
	.cfi_def_cfa_offset 24
.Ltmp84:
	.cfi_offset 15, 0
	std r5, r4, sp[1]
.Ltmp85:
	.cfi_offset 4, -16
.Ltmp86:
	.cfi_offset 5, -12
	stw r6, sp[4]
.Ltmp87:
	.cfi_offset 6, -8
	mov r4, r1
.Ltmp88:
	ldc r1, 0
	.loc	1 33 3 prologue_end
.Ltmp89:
	bf r0, .LBB1_1
	mov r3, r0
.LBB1_6:
	.loc	1 34 5
.Ltmp90:
	divu r5, r3, r2
.Ltmp91:
	.loc	1 35 5
	remu r3, r3, r2
.Ltmp92:
	.loc	1 36 5
	ldaw r11, cp[itoa.digits]
	.loc	1 36 5
	ld8u r3, r11[r3]
.Ltmp93:
	.loc	1 36 5
	st8 r3, r4[r1]
	.loc	1 37 5
	add r1, r1, 1
.Ltmp94:
	mov r3, r5
.Ltmp95:
	.loc	1 33 3
	bt r5, .LBB1_6
.Ltmp96:
	eq r0, r0, 0
	sub r2, r0, r1
	bu .LBB1_3
.Ltmp97:
.LBB1_1:
	.loc	1 30 7
	eq r2, r0, 0
.Ltmp98:
.LBB1_3:
	mkmsk r6, 1
	.loc	1 41 3
.Ltmp99:
	lss r0, r2, r6
	bt r0, .LBB1_4
	.loc	1 41 3
	add r5, r2, r1
	add r0, r4, r1
	ldc r1, 48
	.loc	1 42 5
.Ltmp100:
	bl memset
	bu .LBB1_8
.Ltmp101:
.LBB1_4:
	mov r5, r1
.LBB1_8:
.Ltmp102:
	.loc	1 16 3
	sub r0, r5, 1
	.loc	1 18 3
.Ltmp103:
	lss r1, r0, r6
	bt r1, .LBB1_11
.Ltmp104:
	mkmsk r1, 32
.LBB1_10:
.Ltmp105:
	add r2, r4, r6
	.loc	1 19 5
.Ltmp106:
	ld8u r3, r2[r1]
	.loc	1 20 5
	ld8u r11, r4[r0]
	.loc	1 20 5
	st8 r11, r2[r1]
	.loc	1 21 5
	st8 r3, r4[r0]
.Ltmp107:
	.loc	1 16 3
	sub r0, r0, 1
	.loc	1 18 3
.Ltmp108:
	add r2, r6, 1
	.loc	1 18 3
	lss r3, r6, r0
	mov r6, r2
	bt r3, .LBB1_10
.Ltmp109:
.LBB1_11:
	.loc	1 46 3
	mov r0, r5
	ldw r6, sp[4]
	ldd r5, r4, sp[1]
	retsp 6
	# RETURN_REG_HOLDER
.Ltmp110:
	.cc_bottom itoa.function
	.set	itoa.nstackwords,(memset.nstackwords + 6)
	.set	itoa.maxcores,1
	.set	itoa.maxtimers,0
	.set	itoa.maxchanends,0
.Ltmp111:
	.size	itoa, .Ltmp111-itoa
.Lfunc_end1:
	.cfi_endproc

	.section	.cp.rodata.string,"aMSc",@progbits
	.cc_top itoa.digits.data,itoa.digits
	.align	4
	.type	itoa.digits,@object
	.size	itoa.digits, 17
itoa.digits:
.asciiz"0123456789ABCDEF"
	.cc_bottom itoa.digits.data
.Ldebug_end0:
	.text
.Ldebug_end1:
	.file	2 "C:/Users/user/workspace/lib_logging/src\\debug_printf.c"
	.file	3 "C:\\Program Files (x86)\\XMOS\\xTIMEcomposer\\Community_14.3.3\\target/include/clang\\stdarg.h"
	.section	.trap_info,"",@progbits
.Ltrap_info_entries_start0:
	.long	.Ltrap_info_entries_end0-.Ltrap_info_entries_start0
	.long	1
.Ltrap_info_entries_end0: