	.text
	.file	"C:/Users/user/workspace/lib_i2c/src/i2c_master_single_port.xc"
                                        # Start of file scope inline assembly
	.inline_definition __i_i2c_master_if_read_reg
	.inline_definition __i_i2c_master_if_write_reg
	.inline_definition __i_i2c_master_if_read_reg8_addr16
	.inline_definition __i_i2c_master_if_write_reg8_addr16
	.inline_definition __i_i2c_master_if_read_reg16
	.inline_definition __i_i2c_master_if_write_reg16
	.inline_definition __i_i2c_master_if_read_reg16_addr8
	.inline_definition __i_i2c_master_if_write_reg16_addr8
	.inline_definition delay_seconds
	.inline_definition delay_milliseconds
	.inline_definition delay_microseconds
	.inline_definition xassert_msg
	.set i2c_master_single_port.select.0.enable.savedstate,46
	.globl i2c_master_single_port.select.0.enable.savedstate
	.set i2c_master_single_port.select.0.enable.cases.maxtimers,0 $M i2c_master_single_port.select.0.case.0.maxtimers
	.globl i2c_master_single_port.select.0.enable.cases.maxtimers
	.set i2c_master_single_port.select.0.enable.cases.maxcores,0 $M i2c_master_single_port.select.0.case.0.maxcores
	.globl i2c_master_single_port.select.0.enable.cases.maxcores
	.set i2c_master_single_port.select.0.enable.cases.maxchanends,0 $M i2c_master_single_port.select.0.case.0.maxchanends
	.globl i2c_master_single_port.select.0.enable.cases.maxchanends
	.set i2c_master_single_port.select.0.enable.cases,0
	.globl i2c_master_single_port.select.0.enable.cases
	.set i2c_master_single_port.select.0.enable.cases.nstackwords, 0 $M (i2c_master_single_port.select.0.case.0.nstackwords)
	.globl i2c_master_single_port.select.0.enable.cases.nstackwords
	.set i2c_master_single_port.dynalloc_maxchanends, 0
	.globl i2c_master_single_port.dynalloc_maxchanends
	.set i2c_master_single_port.dynalloc_maxcores, 0
	.globl i2c_master_single_port.dynalloc_maxcores
	.set i2c_master_single_port.dynalloc_maxtimers, 0
	.globl i2c_master_single_port.dynalloc_maxtimers
	.set i2c_master_single_port.init.0.savedstate,46
	.globl i2c_master_single_port.init.0.savedstate
	.set i2c_master_single_port.select.yield.enable.savedstate,46
	.globl i2c_master_single_port.select.yield.enable.savedstate
	.set i2c_master_single_port.select.yield.enable.cases.maxtimers,0 $M i2c_master_single_port.select.yield.case.0.maxtimers
	.globl i2c_master_single_port.select.yield.enable.cases.maxtimers
	.set i2c_master_single_port.select.yield.enable.cases.maxcores,0 $M i2c_master_single_port.select.yield.case.0.maxcores
	.globl i2c_master_single_port.select.yield.enable.cases.maxcores
	.set i2c_master_single_port.select.yield.enable.cases.maxchanends,0 $M i2c_master_single_port.select.yield.case.0.maxchanends
	.globl i2c_master_single_port.select.yield.enable.cases.maxchanends
	.set i2c_master_single_port.select.yield.enable.cases,0
	.globl i2c_master_single_port.select.yield.enable.cases
	.set i2c_master_single_port.select.yield.enable.cases.nstackwords, 0 $M (i2c_master_single_port.select.yield.case.0.nstackwords)
	.globl i2c_master_single_port.select.yield.enable.cases.nstackwords
	.set i2c_master_single_port.select.enable.savedstate,46
	.globl i2c_master_single_port.select.enable.savedstate
	.set i2c_master_single_port.select.enable.cases.maxtimers,0 $M i2c_master_single_port.select.case.0.maxtimers
	.globl i2c_master_single_port.select.enable.cases.maxtimers
	.set i2c_master_single_port.select.enable.cases.maxcores,0 $M i2c_master_single_port.select.case.0.maxcores
	.globl i2c_master_single_port.select.enable.cases.maxcores
	.set i2c_master_single_port.select.enable.cases.maxchanends,0 $M i2c_master_single_port.select.case.0.maxchanends
	.globl i2c_master_single_port.select.enable.cases.maxchanends
	.set i2c_master_single_port.select.enable.cases,0
	.globl i2c_master_single_port.select.enable.cases
	.set i2c_master_single_port.select.enable.cases.nstackwords, 0 $M (i2c_master_single_port.select.case.0.nstackwords)
	.globl i2c_master_single_port.select.enable.cases.nstackwords
	.set _Si2c_master_single_port_0.select.0.enable.savedstate,40
	.globl _Si2c_master_single_port_0.select.0.enable.savedstate
	.set _Si2c_master_single_port_0.select.0.enable.cases.maxtimers,0 $M _Si2c_master_single_port_0.select.0.case.0.maxtimers
	.globl _Si2c_master_single_port_0.select.0.enable.cases.maxtimers
	.set _Si2c_master_single_port_0.select.0.enable.cases.maxcores,0 $M _Si2c_master_single_port_0.select.0.case.0.maxcores
	.globl _Si2c_master_single_port_0.select.0.enable.cases.maxcores
	.set _Si2c_master_single_port_0.select.0.enable.cases.maxchanends,0 $M _Si2c_master_single_port_0.select.0.case.0.maxchanends
	.globl _Si2c_master_single_port_0.select.0.enable.cases.maxchanends
	.set _Si2c_master_single_port_0.select.0.enable.cases,0
	.globl _Si2c_master_single_port_0.select.0.enable.cases
	.set _Si2c_master_single_port_0.select.0.enable.cases.nstackwords, 0 $M (_Si2c_master_single_port_0.select.0.case.0.nstackwords)
	.globl _Si2c_master_single_port_0.select.0.enable.cases.nstackwords
	.set _Si2c_master_single_port_0.dynalloc_maxchanends, 0
	.globl _Si2c_master_single_port_0.dynalloc_maxchanends
	.set _Si2c_master_single_port_0.dynalloc_maxcores, 0
	.globl _Si2c_master_single_port_0.dynalloc_maxcores
	.set _Si2c_master_single_port_0.dynalloc_maxtimers, 0
	.globl _Si2c_master_single_port_0.dynalloc_maxtimers
	.set _Si2c_master_single_port_0.init.0.savedstate,40
	.globl _Si2c_master_single_port_0.init.0.savedstate
	.set _Si2c_master_single_port_0.select.yield.enable.savedstate,40
	.globl _Si2c_master_single_port_0.select.yield.enable.savedstate
	.set _Si2c_master_single_port_0.select.yield.enable.cases.maxtimers,0 $M _Si2c_master_single_port_0.select.yield.case.0.maxtimers
	.globl _Si2c_master_single_port_0.select.yield.enable.cases.maxtimers
	.set _Si2c_master_single_port_0.select.yield.enable.cases.maxcores,0 $M _Si2c_master_single_port_0.select.yield.case.0.maxcores
	.globl _Si2c_master_single_port_0.select.yield.enable.cases.maxcores
	.set _Si2c_master_single_port_0.select.yield.enable.cases.maxchanends,0 $M _Si2c_master_single_port_0.select.yield.case.0.maxchanends
	.globl _Si2c_master_single_port_0.select.yield.enable.cases.maxchanends
	.set _Si2c_master_single_port_0.select.yield.enable.cases,0
	.globl _Si2c_master_single_port_0.select.yield.enable.cases
	.set _Si2c_master_single_port_0.select.yield.enable.cases.nstackwords, 0 $M (_Si2c_master_single_port_0.select.yield.case.0.nstackwords)
	.globl _Si2c_master_single_port_0.select.yield.enable.cases.nstackwords
	.set _Si2c_master_single_port_0.select.enable.savedstate,40
	.globl _Si2c_master_single_port_0.select.enable.savedstate
	.set _Si2c_master_single_port_0.select.enable.cases.maxtimers,0 $M _Si2c_master_single_port_0.select.case.0.maxtimers
	.globl _Si2c_master_single_port_0.select.enable.cases.maxtimers
	.set _Si2c_master_single_port_0.select.enable.cases.maxcores,0 $M _Si2c_master_single_port_0.select.case.0.maxcores
	.globl _Si2c_master_single_port_0.select.enable.cases.maxcores
	.set _Si2c_master_single_port_0.select.enable.cases.maxchanends,0 $M _Si2c_master_single_port_0.select.case.0.maxchanends
	.globl _Si2c_master_single_port_0.select.enable.cases.maxchanends
	.set _Si2c_master_single_port_0.select.enable.cases,0
	.globl _Si2c_master_single_port_0.select.enable.cases
	.set _Si2c_master_single_port_0.select.enable.cases.nstackwords, 0 $M (_Si2c_master_single_port_0.select.case.0.nstackwords)
	.globl _Si2c_master_single_port_0.select.enable.cases.nstackwords
	.weak _i.i2c_slave_callback_if.start_read_request.maxchanends.group
	.max_reduce _i.i2c_slave_callback_if.start_read_request.max.maxchanends, _i.i2c_slave_callback_if.start_read_request.maxchanends.group, 0
	.weak _i.i2c_slave_callback_if.start_read_request.maxcores.group
	.max_reduce _i.i2c_slave_callback_if.start_read_request.max.maxcores, _i.i2c_slave_callback_if.start_read_request.maxcores.group, 0
	.weak _i.i2c_slave_callback_if.start_read_request.maxtimers.group
	.max_reduce _i.i2c_slave_callback_if.start_read_request.max.maxtimers, _i.i2c_slave_callback_if.start_read_request.maxtimers.group, 0
	.weak _i.i2c_slave_callback_if.start_read_request.nstackwords.group
	.globl _i.i2c_slave_callback_if.start_read_request.nstackwords.group
	.weak _i.i2c_slave_callback_if.start_read_request.fns.group
	.globl _i.i2c_slave_callback_if.start_read_request.fns.group
	.max_reduce _i.i2c_slave_callback_if.start_read_request.max.nstackwords, _i.i2c_slave_callback_if.start_read_request.nstackwords.group, 0
	.max_reduce _i.i2c_slave_callback_if.start_read_request.fns, _i.i2c_slave_callback_if.start_read_request.fns.group, 0
	.weak _i.i2c_slave_callback_if.ack_read_request.maxchanends.group
	.max_reduce _i.i2c_slave_callback_if.ack_read_request.max.maxchanends, _i.i2c_slave_callback_if.ack_read_request.maxchanends.group, 0
	.weak _i.i2c_slave_callback_if.ack_read_request.maxcores.group
	.max_reduce _i.i2c_slave_callback_if.ack_read_request.max.maxcores, _i.i2c_slave_callback_if.ack_read_request.maxcores.group, 0
	.weak _i.i2c_slave_callback_if.ack_read_request.maxtimers.group
	.max_reduce _i.i2c_slave_callback_if.ack_read_request.max.maxtimers, _i.i2c_slave_callback_if.ack_read_request.maxtimers.group, 0
	.weak _i.i2c_slave_callback_if.ack_read_request.nstackwords.group
	.globl _i.i2c_slave_callback_if.ack_read_request.nstackwords.group
	.weak _i.i2c_slave_callback_if.ack_read_request.fns.group
	.globl _i.i2c_slave_callback_if.ack_read_request.fns.group
	.max_reduce _i.i2c_slave_callback_if.ack_read_request.max.nstackwords, _i.i2c_slave_callback_if.ack_read_request.nstackwords.group, 0
	.max_reduce _i.i2c_slave_callback_if.ack_read_request.fns, _i.i2c_slave_callback_if.ack_read_request.fns.group, 0
	.weak _i.i2c_slave_callback_if.start_write_request.maxchanends.group
	.max_reduce _i.i2c_slave_callback_if.start_write_request.max.maxchanends, _i.i2c_slave_callback_if.start_write_request.maxchanends.group, 0
	.weak _i.i2c_slave_callback_if.start_write_request.maxcores.group
	.max_reduce _i.i2c_slave_callback_if.start_write_request.max.maxcores, _i.i2c_slave_callback_if.start_write_request.maxcores.group, 0
	.weak _i.i2c_slave_callback_if.start_write_request.maxtimers.group
	.max_reduce _i.i2c_slave_callback_if.start_write_request.max.maxtimers, _i.i2c_slave_callback_if.start_write_request.maxtimers.group, 0
	.weak _i.i2c_slave_callback_if.start_write_request.nstackwords.group
	.globl _i.i2c_slave_callback_if.start_write_request.nstackwords.group
	.weak _i.i2c_slave_callback_if.start_write_request.fns.group
	.globl _i.i2c_slave_callback_if.start_write_request.fns.group
	.max_reduce _i.i2c_slave_callback_if.start_write_request.max.nstackwords, _i.i2c_slave_callback_if.start_write_request.nstackwords.group, 0
	.max_reduce _i.i2c_slave_callback_if.start_write_request.fns, _i.i2c_slave_callback_if.start_write_request.fns.group, 0
	.weak _i.i2c_slave_callback_if.ack_write_request.maxchanends.group
	.max_reduce _i.i2c_slave_callback_if.ack_write_request.max.maxchanends, _i.i2c_slave_callback_if.ack_write_request.maxchanends.group, 0
	.weak _i.i2c_slave_callback_if.ack_write_request.maxcores.group
	.max_reduce _i.i2c_slave_callback_if.ack_write_request.max.maxcores, _i.i2c_slave_callback_if.ack_write_request.maxcores.group, 0
	.weak _i.i2c_slave_callback_if.ack_write_request.maxtimers.group
	.max_reduce _i.i2c_slave_callback_if.ack_write_request.max.maxtimers, _i.i2c_slave_callback_if.ack_write_request.maxtimers.group, 0
	.weak _i.i2c_slave_callback_if.ack_write_request.nstackwords.group
	.globl _i.i2c_slave_callback_if.ack_write_request.nstackwords.group
	.weak _i.i2c_slave_callback_if.ack_write_request.fns.group
	.globl _i.i2c_slave_callback_if.ack_write_request.fns.group
	.max_reduce _i.i2c_slave_callback_if.ack_write_request.max.nstackwords, _i.i2c_slave_callback_if.ack_write_request.nstackwords.group, 0
	.max_reduce _i.i2c_slave_callback_if.ack_write_request.fns, _i.i2c_slave_callback_if.ack_write_request.fns.group, 0
	.weak _i.i2c_slave_callback_if.start_master_read.maxchanends.group
	.max_reduce _i.i2c_slave_callback_if.start_master_read.max.maxchanends, _i.i2c_slave_callback_if.start_master_read.maxchanends.group, 0
	.weak _i.i2c_slave_callback_if.start_master_read.maxcores.group
	.max_reduce _i.i2c_slave_callback_if.start_master_read.max.maxcores, _i.i2c_slave_callback_if.start_master_read.maxcores.group, 0
	.weak _i.i2c_slave_callback_if.start_master_read.maxtimers.group
	.max_reduce _i.i2c_slave_callback_if.start_master_read.max.maxtimers, _i.i2c_slave_callback_if.start_master_read.maxtimers.group, 0
	.weak _i.i2c_slave_callback_if.start_master_read.nstackwords.group
	.globl _i.i2c_slave_callback_if.start_master_read.nstackwords.group
	.weak _i.i2c_slave_callback_if.start_master_read.fns.group
	.globl _i.i2c_slave_callback_if.start_master_read.fns.group
	.max_reduce _i.i2c_slave_callback_if.start_master_read.max.nstackwords, _i.i2c_slave_callback_if.start_master_read.nstackwords.group, 0
	.max_reduce _i.i2c_slave_callback_if.start_master_read.fns, _i.i2c_slave_callback_if.start_master_read.fns.group, 0
	.weak _i.i2c_slave_callback_if.master_requires_data.maxchanends.group
	.max_reduce _i.i2c_slave_callback_if.master_requires_data.max.maxchanends, _i.i2c_slave_callback_if.master_requires_data.maxchanends.group, 0
	.weak _i.i2c_slave_callback_if.master_requires_data.maxcores.group
	.max_reduce _i.i2c_slave_callback_if.master_requires_data.max.maxcores, _i.i2c_slave_callback_if.master_requires_data.maxcores.group, 0
	.weak _i.i2c_slave_callback_if.master_requires_data.maxtimers.group
	.max_reduce _i.i2c_slave_callback_if.master_requires_data.max.maxtimers, _i.i2c_slave_callback_if.master_requires_data.maxtimers.group, 0
	.weak _i.i2c_slave_callback_if.master_requires_data.nstackwords.group
	.globl _i.i2c_slave_callback_if.master_requires_data.nstackwords.group
	.weak _i.i2c_slave_callback_if.master_requires_data.fns.group
	.globl _i.i2c_slave_callback_if.master_requires_data.fns.group
	.max_reduce _i.i2c_slave_callback_if.master_requires_data.max.nstackwords, _i.i2c_slave_callback_if.master_requires_data.nstackwords.group, 0
	.max_reduce _i.i2c_slave_callback_if.master_requires_data.fns, _i.i2c_slave_callback_if.master_requires_data.fns.group, 0
	.weak _i.i2c_slave_callback_if.start_master_write.maxchanends.group
	.max_reduce _i.i2c_slave_callback_if.start_master_write.max.maxchanends, _i.i2c_slave_callback_if.start_master_write.maxchanends.group, 0
	.weak _i.i2c_slave_callback_if.start_master_write.maxcores.group
	.max_reduce _i.i2c_slave_callback_if.start_master_write.max.maxcores, _i.i2c_slave_callback_if.start_master_write.maxcores.group, 0
	.weak _i.i2c_slave_callback_if.start_master_write.maxtimers.group
	.max_reduce _i.i2c_slave_callback_if.start_master_write.max.maxtimers, _i.i2c_slave_callback_if.start_master_write.maxtimers.group, 0
	.weak _i.i2c_slave_callback_if.start_master_write.nstackwords.group
	.globl _i.i2c_slave_callback_if.start_master_write.nstackwords.group
	.weak _i.i2c_slave_callback_if.start_master_write.fns.group
	.globl _i.i2c_slave_callback_if.start_master_write.fns.group
	.max_reduce _i.i2c_slave_callback_if.start_master_write.max.nstackwords, _i.i2c_slave_callback_if.start_master_write.nstackwords.group, 0
	.max_reduce _i.i2c_slave_callback_if.start_master_write.fns, _i.i2c_slave_callback_if.start_master_write.fns.group, 0
	.weak _i.i2c_slave_callback_if.master_sent_data.maxchanends.group
	.max_reduce _i.i2c_slave_callback_if.master_sent_data.max.maxchanends, _i.i2c_slave_callback_if.master_sent_data.maxchanends.group, 0
	.weak _i.i2c_slave_callback_if.master_sent_data.maxcores.group
	.max_reduce _i.i2c_slave_callback_if.master_sent_data.max.maxcores, _i.i2c_slave_callback_if.master_sent_data.maxcores.group, 0
	.weak _i.i2c_slave_callback_if.master_sent_data.maxtimers.group
	.max_reduce _i.i2c_slave_callback_if.master_sent_data.max.maxtimers, _i.i2c_slave_callback_if.master_sent_data.maxtimers.group, 0
	.weak _i.i2c_slave_callback_if.master_sent_data.nstackwords.group
	.globl _i.i2c_slave_callback_if.master_sent_data.nstackwords.group
	.weak _i.i2c_slave_callback_if.master_sent_data.fns.group
	.globl _i.i2c_slave_callback_if.master_sent_data.fns.group
	.max_reduce _i.i2c_slave_callback_if.master_sent_data.max.nstackwords, _i.i2c_slave_callback_if.master_sent_data.nstackwords.group, 0
	.max_reduce _i.i2c_slave_callback_if.master_sent_data.fns, _i.i2c_slave_callback_if.master_sent_data.fns.group, 0
	.weak _i.i2c_slave_callback_if.stop_bit.maxchanends.group
	.max_reduce _i.i2c_slave_callback_if.stop_bit.max.maxchanends, _i.i2c_slave_callback_if.stop_bit.maxchanends.group, 0
	.weak _i.i2c_slave_callback_if.stop_bit.maxcores.group
	.max_reduce _i.i2c_slave_callback_if.stop_bit.max.maxcores, _i.i2c_slave_callback_if.stop_bit.maxcores.group, 0
	.weak _i.i2c_slave_callback_if.stop_bit.maxtimers.group
	.max_reduce _i.i2c_slave_callback_if.stop_bit.max.maxtimers, _i.i2c_slave_callback_if.stop_bit.maxtimers.group, 0
	.weak _i.i2c_slave_callback_if.stop_bit.nstackwords.group
	.globl _i.i2c_slave_callback_if.stop_bit.nstackwords.group
	.weak _i.i2c_slave_callback_if.stop_bit.fns.group
	.globl _i.i2c_slave_callback_if.stop_bit.fns.group
	.max_reduce _i.i2c_slave_callback_if.stop_bit.max.nstackwords, _i.i2c_slave_callback_if.stop_bit.nstackwords.group, 0
	.max_reduce _i.i2c_slave_callback_if.stop_bit.fns, _i.i2c_slave_callback_if.stop_bit.fns.group, 0
	.weak _i.i2c_slave_callback_if.__interface_init.maxchanends.group
	.max_reduce _i.i2c_slave_callback_if.__interface_init.max.maxchanends, _i.i2c_slave_callback_if.__interface_init.maxchanends.group, 0
	.weak _i.i2c_slave_callback_if.__interface_init.maxcores.group
	.max_reduce _i.i2c_slave_callback_if.__interface_init.max.maxcores, _i.i2c_slave_callback_if.__interface_init.maxcores.group, 0
	.weak _i.i2c_slave_callback_if.__interface_init.maxtimers.group
	.max_reduce _i.i2c_slave_callback_if.__interface_init.max.maxtimers, _i.i2c_slave_callback_if.__interface_init.maxtimers.group, 0
	.weak _i.i2c_slave_callback_if.__interface_init.nstackwords.group
	.globl _i.i2c_slave_callback_if.__interface_init.nstackwords.group
	.weak _i.i2c_slave_callback_if.__interface_init.fns.group
	.globl _i.i2c_slave_callback_if.__interface_init.fns.group
	.max_reduce _i.i2c_slave_callback_if.__interface_init.max.nstackwords, _i.i2c_slave_callback_if.__interface_init.nstackwords.group, 0
	.max_reduce _i.i2c_slave_callback_if.__interface_init.fns, _i.i2c_slave_callback_if.__interface_init.fns.group, 0
	.weak _i.i2c_slave_callback_if._client_call_y.maxchanends.group
	.add_to_set _i.i2c_slave_callback_if._client_call_y.maxchanends.group, (__interface_client_call_y_other.maxchanends + __interface_client_call_y_extra.maxchanends), __interface_client_call_y_other
	.max_reduce _i.i2c_slave_callback_if._client_call_y.max.maxchanends, _i.i2c_slave_callback_if._client_call_y.maxchanends.group, 0
	.weak _i.i2c_slave_callback_if._client_call_y.maxcores.group
	.add_to_set _i.i2c_slave_callback_if._client_call_y.maxcores.group, (__interface_client_call_y_other.maxcores + __interface_client_call_y_extra.maxcores), __interface_client_call_y_other
	.max_reduce _i.i2c_slave_callback_if._client_call_y.max.maxcores, _i.i2c_slave_callback_if._client_call_y.maxcores.group, 0
	.weak _i.i2c_slave_callback_if._client_call_y.maxtimers.group
	.add_to_set _i.i2c_slave_callback_if._client_call_y.maxtimers.group, (__interface_client_call_y_other.maxtimers + __interface_client_call_y_extra.maxtimers), __interface_client_call_y_other
	.max_reduce _i.i2c_slave_callback_if._client_call_y.max.maxtimers, _i.i2c_slave_callback_if._client_call_y.maxtimers.group, 0
	.weak _i.i2c_slave_callback_if._client_call_y.nstackwords.group
	.globl _i.i2c_slave_callback_if._client_call_y.nstackwords.group
	.weak _i.i2c_slave_callback_if._client_call_y.fns.group
	.globl _i.i2c_slave_callback_if._client_call_y.fns.group
	.add_to_set _i.i2c_slave_callback_if._client_call_y.nstackwords.group, (__interface_client_call_y_other.nstackwords + __interface_client_call_y_extra.nstackwords), __interface_client_call_y_other
	.add_to_set _i.i2c_slave_callback_if._client_call_y.fns.group, __interface_client_call_y_other, __interface_client_call_y_other
	.max_reduce _i.i2c_slave_callback_if._client_call_y.max.nstackwords, _i.i2c_slave_callback_if._client_call_y.nstackwords.group, 0
	.max_reduce _i.i2c_slave_callback_if._client_call_y.fns, _i.i2c_slave_callback_if._client_call_y.fns.group, 0
	.weak _i.i2c_master_async_if.write.maxchanends.group
	.max_reduce _i.i2c_master_async_if.write.max.maxchanends, _i.i2c_master_async_if.write.maxchanends.group, 0
	.weak _i.i2c_master_async_if.write.maxcores.group
	.max_reduce _i.i2c_master_async_if.write.max.maxcores, _i.i2c_master_async_if.write.maxcores.group, 0
	.weak _i.i2c_master_async_if.write.maxtimers.group
	.max_reduce _i.i2c_master_async_if.write.max.maxtimers, _i.i2c_master_async_if.write.maxtimers.group, 0
	.weak _i.i2c_master_async_if.write.nstackwords.group
	.globl _i.i2c_master_async_if.write.nstackwords.group
	.weak _i.i2c_master_async_if.write.fns.group
	.globl _i.i2c_master_async_if.write.fns.group
	.max_reduce _i.i2c_master_async_if.write.max.nstackwords, _i.i2c_master_async_if.write.nstackwords.group, 0
	.max_reduce _i.i2c_master_async_if.write.fns, _i.i2c_master_async_if.write.fns.group, 0
	.weak _i.i2c_master_async_if.read.maxchanends.group
	.max_reduce _i.i2c_master_async_if.read.max.maxchanends, _i.i2c_master_async_if.read.maxchanends.group, 0
	.weak _i.i2c_master_async_if.read.maxcores.group
	.max_reduce _i.i2c_master_async_if.read.max.maxcores, _i.i2c_master_async_if.read.maxcores.group, 0
	.weak _i.i2c_master_async_if.read.maxtimers.group
	.max_reduce _i.i2c_master_async_if.read.max.maxtimers, _i.i2c_master_async_if.read.maxtimers.group, 0
	.weak _i.i2c_master_async_if.read.nstackwords.group
	.globl _i.i2c_master_async_if.read.nstackwords.group
	.weak _i.i2c_master_async_if.read.fns.group
	.globl _i.i2c_master_async_if.read.fns.group
	.max_reduce _i.i2c_master_async_if.read.max.nstackwords, _i.i2c_master_async_if.read.nstackwords.group, 0
	.max_reduce _i.i2c_master_async_if.read.fns, _i.i2c_master_async_if.read.fns.group, 0
	.weak _i.i2c_master_async_if.get_write_result.maxchanends.group
	.max_reduce _i.i2c_master_async_if.get_write_result.max.maxchanends, _i.i2c_master_async_if.get_write_result.maxchanends.group, 0
	.weak _i.i2c_master_async_if.get_write_result.maxcores.group
	.max_reduce _i.i2c_master_async_if.get_write_result.max.maxcores, _i.i2c_master_async_if.get_write_result.maxcores.group, 0
	.weak _i.i2c_master_async_if.get_write_result.maxtimers.group
	.max_reduce _i.i2c_master_async_if.get_write_result.max.maxtimers, _i.i2c_master_async_if.get_write_result.maxtimers.group, 0
	.weak _i.i2c_master_async_if.get_write_result.nstackwords.group
	.globl _i.i2c_master_async_if.get_write_result.nstackwords.group
	.weak _i.i2c_master_async_if.get_write_result.fns.group
	.globl _i.i2c_master_async_if.get_write_result.fns.group
	.max_reduce _i.i2c_master_async_if.get_write_result.max.nstackwords, _i.i2c_master_async_if.get_write_result.nstackwords.group, 0
	.max_reduce _i.i2c_master_async_if.get_write_result.fns, _i.i2c_master_async_if.get_write_result.fns.group, 0
	.weak _i.i2c_master_async_if.get_read_data.maxchanends.group
	.max_reduce _i.i2c_master_async_if.get_read_data.max.maxchanends, _i.i2c_master_async_if.get_read_data.maxchanends.group, 0
	.weak _i.i2c_master_async_if.get_read_data.maxcores.group
	.max_reduce _i.i2c_master_async_if.get_read_data.max.maxcores, _i.i2c_master_async_if.get_read_data.maxcores.group, 0
	.weak _i.i2c_master_async_if.get_read_data.maxtimers.group
	.max_reduce _i.i2c_master_async_if.get_read_data.max.maxtimers, _i.i2c_master_async_if.get_read_data.maxtimers.group, 0
	.weak _i.i2c_master_async_if.get_read_data.nstackwords.group
	.globl _i.i2c_master_async_if.get_read_data.nstackwords.group
	.weak _i.i2c_master_async_if.get_read_data.fns.group
	.globl _i.i2c_master_async_if.get_read_data.fns.group
	.max_reduce _i.i2c_master_async_if.get_read_data.max.nstackwords, _i.i2c_master_async_if.get_read_data.nstackwords.group, 0
	.max_reduce _i.i2c_master_async_if.get_read_data.fns, _i.i2c_master_async_if.get_read_data.fns.group, 0
	.weak _i.i2c_master_async_if.send_stop_bit.maxchanends.group
	.max_reduce _i.i2c_master_async_if.send_stop_bit.max.maxchanends, _i.i2c_master_async_if.send_stop_bit.maxchanends.group, 0
	.weak _i.i2c_master_async_if.send_stop_bit.maxcores.group
	.max_reduce _i.i2c_master_async_if.send_stop_bit.max.maxcores, _i.i2c_master_async_if.send_stop_bit.maxcores.group, 0
	.weak _i.i2c_master_async_if.send_stop_bit.maxtimers.group
	.max_reduce _i.i2c_master_async_if.send_stop_bit.max.maxtimers, _i.i2c_master_async_if.send_stop_bit.maxtimers.group, 0
	.weak _i.i2c_master_async_if.send_stop_bit.nstackwords.group
	.globl _i.i2c_master_async_if.send_stop_bit.nstackwords.group
	.weak _i.i2c_master_async_if.send_stop_bit.fns.group
	.globl _i.i2c_master_async_if.send_stop_bit.fns.group
	.max_reduce _i.i2c_master_async_if.send_stop_bit.max.nstackwords, _i.i2c_master_async_if.send_stop_bit.nstackwords.group, 0
	.max_reduce _i.i2c_master_async_if.send_stop_bit.fns, _i.i2c_master_async_if.send_stop_bit.fns.group, 0
	.weak _i.i2c_master_async_if.shutdown.maxchanends.group
	.max_reduce _i.i2c_master_async_if.shutdown.max.maxchanends, _i.i2c_master_async_if.shutdown.maxchanends.group, 0
	.weak _i.i2c_master_async_if.shutdown.maxcores.group
	.max_reduce _i.i2c_master_async_if.shutdown.max.maxcores, _i.i2c_master_async_if.shutdown.maxcores.group, 0
	.weak _i.i2c_master_async_if.shutdown.maxtimers.group
	.max_reduce _i.i2c_master_async_if.shutdown.max.maxtimers, _i.i2c_master_async_if.shutdown.maxtimers.group, 0
	.weak _i.i2c_master_async_if.shutdown.nstackwords.group
	.globl _i.i2c_master_async_if.shutdown.nstackwords.group
	.weak _i.i2c_master_async_if.shutdown.fns.group
	.globl _i.i2c_master_async_if.shutdown.fns.group
	.max_reduce _i.i2c_master_async_if.shutdown.max.nstackwords, _i.i2c_master_async_if.shutdown.nstackwords.group, 0
	.max_reduce _i.i2c_master_async_if.shutdown.fns, _i.i2c_master_async_if.shutdown.fns.group, 0
	.weak _i.i2c_master_async_if.__interface_init.maxchanends.group
	.max_reduce _i.i2c_master_async_if.__interface_init.max.maxchanends, _i.i2c_master_async_if.__interface_init.maxchanends.group, 0
	.weak _i.i2c_master_async_if.__interface_init.maxcores.group
	.max_reduce _i.i2c_master_async_if.__interface_init.max.maxcores, _i.i2c_master_async_if.__interface_init.maxcores.group, 0
	.weak _i.i2c_master_async_if.__interface_init.maxtimers.group
	.max_reduce _i.i2c_master_async_if.__interface_init.max.maxtimers, _i.i2c_master_async_if.__interface_init.maxtimers.group, 0
	.weak _i.i2c_master_async_if.__interface_init.nstackwords.group
	.globl _i.i2c_master_async_if.__interface_init.nstackwords.group
	.weak _i.i2c_master_async_if.__interface_init.fns.group
	.globl _i.i2c_master_async_if.__interface_init.fns.group
	.max_reduce _i.i2c_master_async_if.__interface_init.max.nstackwords, _i.i2c_master_async_if.__interface_init.nstackwords.group, 0
	.max_reduce _i.i2c_master_async_if.__interface_init.fns, _i.i2c_master_async_if.__interface_init.fns.group, 0
	.weak _i.i2c_master_async_if._client_call_y.maxchanends.group
	.add_to_set _i.i2c_master_async_if._client_call_y.maxchanends.group, (__interface_client_call_y_other.maxchanends + __interface_client_call_y_extra.maxchanends), __interface_client_call_y_other
	.max_reduce _i.i2c_master_async_if._client_call_y.max.maxchanends, _i.i2c_master_async_if._client_call_y.maxchanends.group, 0
	.weak _i.i2c_master_async_if._client_call_y.maxcores.group
	.add_to_set _i.i2c_master_async_if._client_call_y.maxcores.group, (__interface_client_call_y_other.maxcores + __interface_client_call_y_extra.maxcores), __interface_client_call_y_other
	.max_reduce _i.i2c_master_async_if._client_call_y.max.maxcores, _i.i2c_master_async_if._client_call_y.maxcores.group, 0
	.weak _i.i2c_master_async_if._client_call_y.maxtimers.group
	.add_to_set _i.i2c_master_async_if._client_call_y.maxtimers.group, (__interface_client_call_y_other.maxtimers + __interface_client_call_y_extra.maxtimers), __interface_client_call_y_other
	.max_reduce _i.i2c_master_async_if._client_call_y.max.maxtimers, _i.i2c_master_async_if._client_call_y.maxtimers.group, 0
	.weak _i.i2c_master_async_if._client_call_y.nstackwords.group
	.globl _i.i2c_master_async_if._client_call_y.nstackwords.group
	.weak _i.i2c_master_async_if._client_call_y.fns.group
	.globl _i.i2c_master_async_if._client_call_y.fns.group
	.add_to_set _i.i2c_master_async_if._client_call_y.nstackwords.group, (__interface_client_call_y_other.nstackwords + __interface_client_call_y_extra.nstackwords), __interface_client_call_y_other
	.add_to_set _i.i2c_master_async_if._client_call_y.fns.group, __interface_client_call_y_other, __interface_client_call_y_other
	.max_reduce _i.i2c_master_async_if._client_call_y.max.nstackwords, _i.i2c_master_async_if._client_call_y.nstackwords.group, 0
	.max_reduce _i.i2c_master_async_if._client_call_y.fns, _i.i2c_master_async_if._client_call_y.fns.group, 0
	.weak _i.i2c_master_if.write.maxchanends.group
	.max_reduce _i.i2c_master_if.write.max.maxchanends, _i.i2c_master_if.write.maxchanends.group, 0
	.weak _i.i2c_master_if.write.maxcores.group
	.max_reduce _i.i2c_master_if.write.max.maxcores, _i.i2c_master_if.write.maxcores.group, 0
	.weak _i.i2c_master_if.write.maxtimers.group
	.max_reduce _i.i2c_master_if.write.max.maxtimers, _i.i2c_master_if.write.maxtimers.group, 0
	.weak _i.i2c_master_if.write.nstackwords.group
	.globl _i.i2c_master_if.write.nstackwords.group
	.weak _i.i2c_master_if.write.fns.group
	.globl _i.i2c_master_if.write.fns.group
	.max_reduce _i.i2c_master_if.write.max.nstackwords, _i.i2c_master_if.write.nstackwords.group, 0
	.max_reduce _i.i2c_master_if.write.fns, _i.i2c_master_if.write.fns.group, 0
	.weak _i.i2c_master_if.read.maxchanends.group
	.max_reduce _i.i2c_master_if.read.max.maxchanends, _i.i2c_master_if.read.maxchanends.group, 0
	.weak _i.i2c_master_if.read.maxcores.group
	.max_reduce _i.i2c_master_if.read.max.maxcores, _i.i2c_master_if.read.maxcores.group, 0
	.weak _i.i2c_master_if.read.maxtimers.group
	.max_reduce _i.i2c_master_if.read.max.maxtimers, _i.i2c_master_if.read.maxtimers.group, 0
	.weak _i.i2c_master_if.read.nstackwords.group
	.globl _i.i2c_master_if.read.nstackwords.group
	.weak _i.i2c_master_if.read.fns.group
	.globl _i.i2c_master_if.read.fns.group
	.max_reduce _i.i2c_master_if.read.max.nstackwords, _i.i2c_master_if.read.nstackwords.group, 0
	.max_reduce _i.i2c_master_if.read.fns, _i.i2c_master_if.read.fns.group, 0
	.weak _i.i2c_master_if.send_stop_bit.maxchanends.group
	.max_reduce _i.i2c_master_if.send_stop_bit.max.maxchanends, _i.i2c_master_if.send_stop_bit.maxchanends.group, 0
	.weak _i.i2c_master_if.send_stop_bit.maxcores.group
	.max_reduce _i.i2c_master_if.send_stop_bit.max.maxcores, _i.i2c_master_if.send_stop_bit.maxcores.group, 0
	.weak _i.i2c_master_if.send_stop_bit.maxtimers.group
	.max_reduce _i.i2c_master_if.send_stop_bit.max.maxtimers, _i.i2c_master_if.send_stop_bit.maxtimers.group, 0
	.weak _i.i2c_master_if.send_stop_bit.nstackwords.group
	.globl _i.i2c_master_if.send_stop_bit.nstackwords.group
	.weak _i.i2c_master_if.send_stop_bit.fns.group
	.globl _i.i2c_master_if.send_stop_bit.fns.group
	.max_reduce _i.i2c_master_if.send_stop_bit.max.nstackwords, _i.i2c_master_if.send_stop_bit.nstackwords.group, 0
	.max_reduce _i.i2c_master_if.send_stop_bit.fns, _i.i2c_master_if.send_stop_bit.fns.group, 0
	.weak _i.i2c_master_if.shutdown.maxchanends.group
	.max_reduce _i.i2c_master_if.shutdown.max.maxchanends, _i.i2c_master_if.shutdown.maxchanends.group, 0
	.weak _i.i2c_master_if.shutdown.maxcores.group
	.max_reduce _i.i2c_master_if.shutdown.max.maxcores, _i.i2c_master_if.shutdown.maxcores.group, 0
	.weak _i.i2c_master_if.shutdown.maxtimers.group
	.max_reduce _i.i2c_master_if.shutdown.max.maxtimers, _i.i2c_master_if.shutdown.maxtimers.group, 0
	.weak _i.i2c_master_if.shutdown.nstackwords.group
	.globl _i.i2c_master_if.shutdown.nstackwords.group
	.weak _i.i2c_master_if.shutdown.fns.group
	.globl _i.i2c_master_if.shutdown.fns.group
	.max_reduce _i.i2c_master_if.shutdown.max.nstackwords, _i.i2c_master_if.shutdown.nstackwords.group, 0
	.max_reduce _i.i2c_master_if.shutdown.fns, _i.i2c_master_if.shutdown.fns.group, 0
	.weak _i.i2c_master_if.__interface_init.maxchanends.group
	.max_reduce _i.i2c_master_if.__interface_init.max.maxchanends, _i.i2c_master_if.__interface_init.maxchanends.group, 0
	.weak _i.i2c_master_if.__interface_init.maxcores.group
	.max_reduce _i.i2c_master_if.__interface_init.max.maxcores, _i.i2c_master_if.__interface_init.maxcores.group, 0
	.weak _i.i2c_master_if.__interface_init.maxtimers.group
	.max_reduce _i.i2c_master_if.__interface_init.max.maxtimers, _i.i2c_master_if.__interface_init.maxtimers.group, 0
	.weak _i.i2c_master_if.__interface_init.nstackwords.group
	.globl _i.i2c_master_if.__interface_init.nstackwords.group
	.weak _i.i2c_master_if.__interface_init.fns.group
	.globl _i.i2c_master_if.__interface_init.fns.group
	.max_reduce _i.i2c_master_if.__interface_init.max.nstackwords, _i.i2c_master_if.__interface_init.nstackwords.group, 0
	.max_reduce _i.i2c_master_if.__interface_init.fns, _i.i2c_master_if.__interface_init.fns.group, 0
	.weak _i.i2c_master_if._client_call_y.maxchanends.group
	.add_to_set _i.i2c_master_if._client_call_y.maxchanends.group, (__interface_client_call_y_other.maxchanends + __interface_client_call_y_extra.maxchanends), __interface_client_call_y_other
	.max_reduce _i.i2c_master_if._client_call_y.max.maxchanends, _i.i2c_master_if._client_call_y.maxchanends.group, 0
	.weak _i.i2c_master_if._client_call_y.maxcores.group
	.add_to_set _i.i2c_master_if._client_call_y.maxcores.group, (__interface_client_call_y_other.maxcores + __interface_client_call_y_extra.maxcores), __interface_client_call_y_other
	.max_reduce _i.i2c_master_if._client_call_y.max.maxcores, _i.i2c_master_if._client_call_y.maxcores.group, 0
	.weak _i.i2c_master_if._client_call_y.maxtimers.group
	.add_to_set _i.i2c_master_if._client_call_y.maxtimers.group, (__interface_client_call_y_other.maxtimers + __interface_client_call_y_extra.maxtimers), __interface_client_call_y_other
	.max_reduce _i.i2c_master_if._client_call_y.max.maxtimers, _i.i2c_master_if._client_call_y.maxtimers.group, 0
	.weak _i.i2c_master_if._client_call_y.nstackwords.group
	.globl _i.i2c_master_if._client_call_y.nstackwords.group
	.weak _i.i2c_master_if._client_call_y.fns.group
	.globl _i.i2c_master_if._client_call_y.fns.group
	.add_to_set _i.i2c_master_if._client_call_y.nstackwords.group, (__interface_client_call_y_other.nstackwords + __interface_client_call_y_extra.nstackwords), __interface_client_call_y_other
	.add_to_set _i.i2c_master_if._client_call_y.fns.group, __interface_client_call_y_other, __interface_client_call_y_other
	.max_reduce _i.i2c_master_if._client_call_y.max.nstackwords, _i.i2c_master_if._client_call_y.nstackwords.group, 0
	.max_reduce _i.i2c_master_if._client_call_y.fns, _i.i2c_master_if._client_call_y.fns.group, 0
	.set usage.anon.0,0
	.set usage.anon.1,0
	.set usage.anon.2,0
	.set usage.anon.3,0
	.set usage.anon.4,0
	.set usage.anon.5,0
	.set usage.anon.6,0
	.set usage.anon.7,0
	.set usage.anon.8,0
	.set usage.anon.9,0
	.set usage.anon.10,0
	.set usage.anon.11,0
	.set usage.anon.12,0
	.set usage.anon.13,0
	.set usage.anon.14,0
	.set usage.anon.15,0
	.set usage.anon.16,0
	.set usage.anon.17,0
	.call i2c_master_single_port,usage.anon.17
	.call i2c_master_single_port,usage.anon.16
	.call i2c_master_single_port,usage.anon.15
	.call i2c_master_single_port,usage.anon.14
	.call i2c_master_single_port,usage.anon.12
	.call usage.anon.17,usage.anon.14
	.call usage.anon.17,usage.anon.13
	.call usage.anon.16,usage.anon.12
	.call usage.anon.16,delay_ticks
	.call usage.anon.15,delay_ticks
	.call usage.anon.14,usage.anon.12
	.call usage.anon.13,usage.anon.12
	.call usage.anon.10,delay_ticks_longlong
	.call usage.anon.9,delay_ticks_longlong
	.call usage.anon.8,delay_ticks_longlong
	.set usage.anon.0.locnoside, 0
	.set usage.anon.1.locnoside, 0
	.set usage.anon.2.locnoside, 0
	.set usage.anon.3.locnoside, 0
	.set usage.anon.4.locnoside, 0
	.set usage.anon.5.locnoside, 0
	.set usage.anon.6.locnoside, 0
	.set usage.anon.7.locnoside, 0
	.set usage.anon.12.locnoside, 0
	.set usage.anon.13.locnoside, 0
	.set usage.anon.14.locnoside, 0
	.set usage.anon.15.locnoside, 0
	.set usage.anon.16.locnoside, 0
	.set usage.anon.17.locnoside, 0
	.set i2c_master_single_port.locnoside, 0
	.set usage.anon.0.locnointerfaceaccess, 0
	.set usage.anon.1.locnointerfaceaccess, 0
	.set usage.anon.2.locnointerfaceaccess, 0
	.set usage.anon.3.locnointerfaceaccess, 0
	.set usage.anon.4.locnointerfaceaccess, 0
	.set usage.anon.5.locnointerfaceaccess, 0
	.set usage.anon.6.locnointerfaceaccess, 0
	.set usage.anon.7.locnointerfaceaccess, 0
	.set i2c_master_single_port.locnointerfaceaccess, 0
	.assert 1,usage.anon.17.actnonotificationselect,"C:/Users/user/workspace/lib_i2c/src/i2c_master_single_port.xc:260:15: error: call to function `tx8\' which selects on a notification in a combinable function select case\n        ack = tx8(p_i2c, buf[j], bit_time, SCL_HIGH, SDA_HIGH, other_bits_mask,\n              ^~~~~~~~~~~~~~~~~~~~~~~~~~~~~~~~~~~~~~~~~~~~~~~~~~~~~~~~~~~~~~~~~"
	.assert 1,usage.anon.16.actnonotificationselect,"C:/Users/user/workspace/lib_i2c/src/i2c_master_single_port.xc:281:7: error: call to function `stop_bit\' which selects on a notification in a combinable function select case\n      stop_bit(p_i2c, bit_time, SCL_HIGH, SDA_HIGH, other_bits_mask, fall_time);\n      ^~~~~~~~~~~~~~~~~~~~~~~~~~~~~~~~~~~~~~~~~~~~~~~~~~~~~~~~~~~~~~~~~~~~~~~~~"
	.assert 1,usage.anon.15.actnonotificationselect,"C:/Users/user/workspace/lib_i2c/src/i2c_master_single_port.xc:249:19: error: call to function `start_bit\' which selects on a notification in a combinable function select case\n      fall_time = start_bit(p_i2c, bit_time, SCL_HIGH, SDA_HIGH,\n                  ^~~~~~~~~~~~~~~~~~~~~~~~~~~~~~~~~~~~~~~~~~~~~~"
	.assert 1,usage.anon.14.actnonotificationselect,"C:/Users/user/workspace/lib_i2c/src/i2c_master_single_port.xc:209:24: error: call to function `high_pulse_sample\' which selects on a notification in a combinable function select case\n            int temp = high_pulse_sample(p_i2c, bit_time,\n                       ^~~~~~~~~~~~~~~~~~~~~~~~~~~~~~~~~~"
	.assert 1,usage.anon.12.actnonotificationselect,"C:/Users/user/workspace/lib_i2c/src/i2c_master_single_port.xc:226:11: error: call to function `wait_for_clock_high\' which selects on a notification in a combinable function select case\n          wait_for_clock_high(p_i2c, SCL_HIGH, fall_time, bit_time + 1);\n          ^~~~~~~~~~~~~~~~~~~~~~~~~~~~~~~~~~~~~~~~~~~~~~~~~~~~~~~~~~~~~"

                                        # End of file scope inline assembly
	.text
	.globl	_i.i2c_master_if.i2c_master_single_port._c0.shutdown
	.align	4
	.type	_i.i2c_master_if.i2c_master_single_port._c0.shutdown,@function
	.cc_top _i.i2c_master_if.i2c_master_single_port._c0.shutdown.function,_i.i2c_master_if.i2c_master_single_port._c0.shutdown
_i.i2c_master_if.i2c_master_single_port._c0.shutdown: # @_i.i2c_master_if.i2c_master_single_port._c0.shutdown
	.cfi_startproc
	.issue_mode single
# BB#0:                                 # %allocas
	ENTSP_lu6 0
	#DEBUG_VALUE: _i.i2c_master_if.i2c_master_single_port._c0.shutdown:p <- R0
	ldw r0, r0[0]
.LBB0_1:                                # %LoopTest
                                        # =>This Inner Loop Header: Depth=1
	ldw r1, r0[0]
	bf r1, .LBB0_1
# BB#2:                                 # %ifdone
	ldc r1, 0
	stw r1, r0[0]
	retsp 0
	# RETURN_REG_HOLDER
	.cc_bottom _i.i2c_master_if.i2c_master_single_port._c0.shutdown.function
	.set	_i.i2c_master_if.i2c_master_single_port._c0.shutdown.nstackwords,0
	.globl	_i.i2c_master_if.i2c_master_single_port._c0.shutdown.nstackwords
	.set	_i.i2c_master_if.i2c_master_single_port._c0.shutdown.maxcores,1
	.globl	_i.i2c_master_if.i2c_master_single_port._c0.shutdown.maxcores
	.set	_i.i2c_master_if.i2c_master_single_port._c0.shutdown.maxtimers,0
	.globl	_i.i2c_master_if.i2c_master_single_port._c0.shutdown.maxtimers
	.set	_i.i2c_master_if.i2c_master_single_port._c0.shutdown.maxchanends,0
	.globl	_i.i2c_master_if.i2c_master_single_port._c0.shutdown.maxchanends
.Ltmp0:
	.size	_i.i2c_master_if.i2c_master_single_port._c0.shutdown, .Ltmp0-_i.i2c_master_if.i2c_master_single_port._c0.shutdown
	.cfi_endproc

	.globl	_i.i2c_master_if.i2c_master_single_port._c0.send_stop_bit
	.align	4
	.type	_i.i2c_master_if.i2c_master_single_port._c0.send_stop_bit,@function
	.cc_top _i.i2c_master_if.i2c_master_single_port._c0.send_stop_bit.function,_i.i2c_master_if.i2c_master_single_port._c0.send_stop_bit
_i.i2c_master_if.i2c_master_single_port._c0.send_stop_bit: # @_i.i2c_master_if.i2c_master_single_port._c0.send_stop_bit
.Lfunc_begin1:
	.loc	2 277 0                 # C:/Users/user/workspace/lib_i2c/src/i2c_master_single_port.xc:277:0
	.cfi_startproc
	.issue_mode single
# BB#0:                                 # %allocas
	ENTSP_lu6 6
.Ltmp1:
	.cfi_def_cfa_offset 24
.Ltmp2:
	.cfi_offset 15, 0
	std r5, r4, sp[2]               # 4-byte Folded Spill
.Ltmp3:
	.cfi_offset 4, -8
.Ltmp4:
	.cfi_offset 5, -4
	#DEBUG_VALUE: _i.i2c_master_if.i2c_master_single_port._c0.send_stop_bit:p <- R0
	ldw r4, r0[0]
.Ltmp5:
.LBB1_1:                                # %LoopTest
                                        # =>This Inner Loop Header: Depth=1
	ldw r0, r4[0]
	bf r0, .LBB1_1
# BB#2:                                 # %ifdone
	ldc r0, 0
	stw r0, r4[0]
	.loc	2 280 0 prologue_end    # C:/Users/user/workspace/lib_i2c/src/i2c_master_single_port.xc:280:0
.Ltmp6:
	gettime r11
.Ltmp7:
	#DEBUG_VALUE: fall_time <- R11
	.loc	2 281 0                 # C:/Users/user/workspace/lib_i2c/src/i2c_master_single_port.xc:281:0
	ldw r0, r4[8]
	ldc r1, 52
	.loc	2 281 0                 # C:/Users/user/workspace/lib_i2c/src/i2c_master_single_port.xc:281:0
	add r1, r4, r1
	.loc	2 281 0                 # C:/Users/user/workspace/lib_i2c/src/i2c_master_single_port.xc:281:0
	ldw r1, r1[0]
	ldc r2, 60
	.loc	2 281 0                 # C:/Users/user/workspace/lib_i2c/src/i2c_master_single_port.xc:281:0
	add r2, r4, r2
	.loc	2 281 0                 # C:/Users/user/workspace/lib_i2c/src/i2c_master_single_port.xc:281:0
	ldw r2, r2[0]
	ldc r3, 56
	.loc	2 281 0                 # C:/Users/user/workspace/lib_i2c/src/i2c_master_single_port.xc:281:0
	add r3, r4, r3
	.loc	2 281 0                 # C:/Users/user/workspace/lib_i2c/src/i2c_master_single_port.xc:281:0
	ldw r3, r3[0]
	ldc r5, 48
	.loc	2 281 0                 # C:/Users/user/workspace/lib_i2c/src/i2c_master_single_port.xc:281:0
	add r5, r4, r5
	.loc	2 281 0                 # C:/Users/user/workspace/lib_i2c/src/i2c_master_single_port.xc:281:0
	ldw r5, r5[0]
	.loc	2 281 0                 # C:/Users/user/workspace/lib_i2c/src/i2c_master_single_port.xc:281:0
	stw r5, sp[1]
	stw r11, sp[2]
.Lxta.call_labels0:
	bl stop_bit
.Ltmp8:
	ldc r0, 64
	.loc	2 282 0                 # C:/Users/user/workspace/lib_i2c/src/i2c_master_single_port.xc:282:0
	add r0, r4, r0
	mkmsk r1, 32
	.loc	2 282 0                 # C:/Users/user/workspace/lib_i2c/src/i2c_master_single_port.xc:282:0
	stw r1, r0[0]
	mkmsk r0, 1
	stw r0, r4[0]
	ldd r5, r4, sp[2]               # 4-byte Folded Reload
	retsp 6
	# RETURN_REG_HOLDER
.Ltmp9:
	.cc_bottom _i.i2c_master_if.i2c_master_single_port._c0.send_stop_bit.function
	.set	_i.i2c_master_if.i2c_master_single_port._c0.send_stop_bit.nstackwords,(stop_bit.nstackwords + 6)
	.globl	_i.i2c_master_if.i2c_master_single_port._c0.send_stop_bit.nstackwords
	.set	_i.i2c_master_if.i2c_master_single_port._c0.send_stop_bit.maxcores,stop_bit.maxcores $M 1
	.globl	_i.i2c_master_if.i2c_master_single_port._c0.send_stop_bit.maxcores
	.set	_i.i2c_master_if.i2c_master_single_port._c0.send_stop_bit.maxtimers,stop_bit.maxtimers $M 0
	.globl	_i.i2c_master_if.i2c_master_single_port._c0.send_stop_bit.maxtimers
	.set	_i.i2c_master_if.i2c_master_single_port._c0.send_stop_bit.maxchanends,stop_bit.maxchanends $M 0
	.globl	_i.i2c_master_if.i2c_master_single_port._c0.send_stop_bit.maxchanends
.Ltmp10:
	.size	_i.i2c_master_if.i2c_master_single_port._c0.send_stop_bit, .Ltmp10-_i.i2c_master_if.i2c_master_single_port._c0.send_stop_bit
.Lfunc_end1:
	.cfi_endproc

	.section	.cp.rodata.cst4,"aMc",@progbits,4
	.cc_top .LCPI2_0.data,.LCPI2_0
	.align	4
	.type	.LCPI2_0,@object
	.size	.LCPI2_0, 4
.LCPI2_0:
	.long	4294967288              # 0xfffffff8
	.cc_bottom .LCPI2_0.data
	.text
	.globl	_i.i2c_master_if.i2c_master_single_port._c0.read
	.align	4
	.type	_i.i2c_master_if.i2c_master_single_port._c0.read,@function
	.cc_top _i.i2c_master_if.i2c_master_single_port._c0.read.function,_i.i2c_master_if.i2c_master_single_port._c0.read
_i.i2c_master_if.i2c_master_single_port._c0.read: # @_i.i2c_master_if.i2c_master_single_port._c0.read
.Lfunc_begin2:
	.loc	2 190 0                 # C:/Users/user/workspace/lib_i2c/src/i2c_master_single_port.xc:190:0
	.cfi_startproc
	.issue_mode single
# BB#0:                                 # %allocas
	ENTSP_lu6 24
.Ltmp11:
	.cfi_def_cfa_offset 96
.Ltmp12:
	.cfi_offset 15, 0
	std r5, r4, sp[8]               # 4-byte Folded Spill
.Ltmp13:
	.cfi_offset 4, -32
.Ltmp14:
	.cfi_offset 5, -28
	std r7, r6, sp[9]               # 4-byte Folded Spill
.Ltmp15:
	.cfi_offset 6, -24
.Ltmp16:
	.cfi_offset 7, -20
	std r9, r8, sp[10]              # 4-byte Folded Spill
.Ltmp17:
	.cfi_offset 8, -16
.Ltmp18:
	.cfi_offset 9, -12
	stw r10, sp[22]                 # 4-byte Folded Spill
.Ltmp19:
	.cfi_offset 10, -8
	#DEBUG_VALUE: _i.i2c_master_if.i2c_master_single_port._c0.read:p <- R0
	#DEBUG_VALUE: _i.i2c_master_if.i2c_master_single_port._c0.read:device <- R1
	#DEBUG_VALUE: _i.i2c_master_if.i2c_master_single_port._c0.read:buf <- R2
	#DEBUG_VALUE: _i.i2c_master_if.i2c_master_single_port._c0.read:m <- R3
	stw r3, sp[12]                  # 4-byte Folded Spill
.Ltmp20:
	#DEBUG_VALUE: _i.i2c_master_if.i2c_master_single_port._c0.read:m <- [SP+48]
	stw r2, sp[11]                  # 4-byte Folded Spill
.Ltmp21:
	#DEBUG_VALUE: _i.i2c_master_if.i2c_master_single_port._c0.read:buf <- [SP+44]
	mov r8, r1
.Ltmp22:
	#DEBUG_VALUE: _i.i2c_master_if.i2c_master_single_port._c0.read:device <- undef
	#DEBUG_VALUE: _i.i2c_master_if.i2c_master_single_port._c0.read:device <- R8
	ldw r11, r0[0]
	ldw r6, r0[1]
.Ltmp23:
.LBB2_1:                                # %allocas
                                        # =>This Inner Loop Header: Depth=1
	ldw r0, r11[0]
	bf r0, .LBB2_1
# BB#2:                                 # %ifdone
.Ltmp24:
	#DEBUG_VALUE: _i.i2c_master_if.i2c_master_single_port._c0.read:device <- undef
	#DEBUG_VALUE: _i.i2c_master_if.i2c_master_single_port._c0.read:buf <- [SP+44]
	#DEBUG_VALUE: _i.i2c_master_if.i2c_master_single_port._c0.read:m <- [SP+48]
	ldw r0, r11[7]
	eq r0, r0, 1
	bt r0, .LBB2_3
.Ltmp25:
# BB#14:                                # %lhsfalse
	#DEBUG_VALUE: _i.i2c_master_if.i2c_master_single_port._c0.read:device <- undef
	#DEBUG_VALUE: _i.i2c_master_if.i2c_master_single_port._c0.read:buf <- [SP+44]
	#DEBUG_VALUE: _i.i2c_master_if.i2c_master_single_port._c0.read:m <- [SP+48]
	ldc r0, 64
	add r4, r11, r0
	ldw r0, r4[0]
	mkmsk r5, 32
	bu .LBB2_18
.Ltmp26:
.LBB2_17:                               # %lhsfalse51
                                        #   in Loop: Header=BB2_18 Depth=1
	#DEBUG_VALUE: _i.i2c_master_if.i2c_master_single_port._c0.read:device <- undef
	#DEBUG_VALUE: _i.i2c_master_if.i2c_master_single_port._c0.read:buf <- [SP+44]
	#DEBUG_VALUE: _i.i2c_master_if.i2c_master_single_port._c0.read:m <- [SP+48]
	ldw r0, r4[0]
.Ltmp27:
.LBB2_18:                               # %lhsfalse51
                                        # =>This Inner Loop Header: Depth=1
	eq r1, r0, r5
	bt r1, .LBB2_3
# BB#15:                                # %lhsfalse
                                        #   in Loop: Header=BB2_18 Depth=1
	#DEBUG_VALUE: _i.i2c_master_if.i2c_master_single_port._c0.read:device <- undef
.Ltmp28:
	#DEBUG_VALUE: _i.i2c_master_if.i2c_master_single_port._c0.read:buf <- [SP+44]
	#DEBUG_VALUE: _i.i2c_master_if.i2c_master_single_port._c0.read:m <- [SP+48]
	eq r0, r6, r0
	bt r0, .LBB2_3
.Ltmp29:
# BB#16:                                # %LoopBody42
                                        #   in Loop: Header=BB2_18 Depth=1
	#DEBUG_VALUE: _i.i2c_master_if.i2c_master_single_port._c0.read:device <- undef
	#DEBUG_VALUE: _i.i2c_master_if.i2c_master_single_port._c0.read:buf <- [SP+44]
	#DEBUG_VALUE: _i.i2c_master_if.i2c_master_single_port._c0.read:m <- [SP+48]
	mov r0, r6
	mov r7, r11
	bl __interface_yield_once
	mov r11, r7
	ldw r0, r11[7]
	eq r0, r0, 1
	bf r0, .LBB2_17
.Ltmp30:
.LBB2_3:                                # %ifdone19
	#DEBUG_VALUE: _i.i2c_master_if.i2c_master_single_port._c0.read:device <- undef
	#DEBUG_VALUE: _i.i2c_master_if.i2c_master_single_port._c0.read:buf <- [SP+44]
	#DEBUG_VALUE: _i.i2c_master_if.i2c_master_single_port._c0.read:m <- [SP+48]
	stw r11, sp[10]                 # 4-byte Folded Spill
	stw r6, sp[6]                   # 4-byte Folded Spill
	#DEBUG_VALUE: _i.i2c_master_if.i2c_master_single_port._c0.read:send_stop_bit <- undef
	ldc r0, 0
	stw r0, r11[0]
	.loc	2 200 0 prologue_end    # C:/Users/user/workspace/lib_i2c/src/i2c_master_single_port.xc:200:0
.Ltmp31:
	ldw r0, r11[8]
	ldc r1, 52
	.loc	2 200 0                 # C:/Users/user/workspace/lib_i2c/src/i2c_master_single_port.xc:200:0
	add r10, r11, r1
	.loc	2 200 0                 # C:/Users/user/workspace/lib_i2c/src/i2c_master_single_port.xc:200:0
	ldw r1, r10[0]
	ldc r2, 60
	.loc	2 200 0                 # C:/Users/user/workspace/lib_i2c/src/i2c_master_single_port.xc:200:0
	add r7, r11, r2
	.loc	2 200 0                 # C:/Users/user/workspace/lib_i2c/src/i2c_master_single_port.xc:200:0
	ldw r2, r7[0]
	ldc r3, 56
	.loc	2 200 0                 # C:/Users/user/workspace/lib_i2c/src/i2c_master_single_port.xc:200:0
	add r4, r11, r3
	.loc	2 200 0                 # C:/Users/user/workspace/lib_i2c/src/i2c_master_single_port.xc:200:0
	ldw r3, r4[0]
	mov r6, r11
	ldc r11, 48
	.loc	2 200 0                 # C:/Users/user/workspace/lib_i2c/src/i2c_master_single_port.xc:200:0
	add r9, r6, r11
	.loc	2 200 0                 # C:/Users/user/workspace/lib_i2c/src/i2c_master_single_port.xc:200:0
	stw r9, sp[14]                  # 4-byte Folded Spill
	ldw r11, r9[0]
	.loc	2 200 0                 # C:/Users/user/workspace/lib_i2c/src/i2c_master_single_port.xc:200:0
	stw r11, sp[1]
.Lxta.call_labels1:
	bl start_bit
.Ltmp32:
	#DEBUG_VALUE: fall_time <- R0
	.loc	2 200 0                 # C:/Users/user/workspace/lib_i2c/src/i2c_master_single_port.xc:200:0
	stw r0, sp[15]
	.loc	2 202 0                 # C:/Users/user/workspace/lib_i2c/src/i2c_master_single_port.xc:202:0
	ldw r0, r6[8]
.Ltmp33:
	.loc	2 202 0                 # C:/Users/user/workspace/lib_i2c/src/i2c_master_single_port.xc:202:0
	shl r1, r8, 1
	mkmsk r2, 1
	.loc	2 202 0                 # C:/Users/user/workspace/lib_i2c/src/i2c_master_single_port.xc:202:0
	or r1, r1, r2
	.loc	2 202 0                 # C:/Users/user/workspace/lib_i2c/src/i2c_master_single_port.xc:202:0
	ldw r2, r10[0]
	.loc	2 202 0                 # C:/Users/user/workspace/lib_i2c/src/i2c_master_single_port.xc:202:0
	ldw r3, r7[0]
	.loc	2 202 0                 # C:/Users/user/workspace/lib_i2c/src/i2c_master_single_port.xc:202:0
	ldw r11, r4[0]
	.loc	2 202 0                 # C:/Users/user/workspace/lib_i2c/src/i2c_master_single_port.xc:202:0
	ldw r8, r9[0]
	ldaw r5, sp[15]
.Ltmp34:
	#DEBUG_VALUE: fall_time <- [R5+0]
	.loc	2 202 0                 # C:/Users/user/workspace/lib_i2c/src/i2c_master_single_port.xc:202:0
	std r5, r8, sp[1]
	stw r11, sp[1]
.Lxta.call_labels2:
	bl tx8
	mov r11, r6
.Ltmp35:
	#DEBUG_VALUE: ack <- R0
	.loc	2 204 7                 # C:/Users/user/workspace/lib_i2c/src/i2c_master_single_port.xc:204:7
	eq r0, r0, 0
.Ltmp36:
	#DEBUG_VALUE: j <- 0
	.loc	2 204 7                 # C:/Users/user/workspace/lib_i2c/src/i2c_master_single_port.xc:204:7
	stw r0, sp[7]                   # 4-byte Folded Spill
	ldw r0, sp[12]                  # 4-byte Folded Reload
	bf r0, .LBB2_11
.Ltmp37:
# BB#4:                                 # %ifdone19
	#DEBUG_VALUE: _i.i2c_master_if.i2c_master_single_port._c0.read:device <- undef
	#DEBUG_VALUE: _i.i2c_master_if.i2c_master_single_port._c0.read:buf <- [SP+44]
	#DEBUG_VALUE: _i.i2c_master_if.i2c_master_single_port._c0.read:m <- [SP+48]
	#DEBUG_VALUE: _i.i2c_master_if.i2c_master_single_port._c0.read:send_stop_bit <- undef
	#DEBUG_VALUE: fall_time <- [R5+0]
	.loc	2 204 7                 # C:/Users/user/workspace/lib_i2c/src/i2c_master_single_port.xc:204:7
	ldw r0, sp[7]                   # 4-byte Folded Reload
	eq r0, r0, 0
	bt r0, .LBB2_11
.Ltmp38:
# BB#5:                                 # %LoopBody104.preheader
	#DEBUG_VALUE: _i.i2c_master_if.i2c_master_single_port._c0.read:device <- undef
	#DEBUG_VALUE: _i.i2c_master_if.i2c_master_single_port._c0.read:buf <- [SP+44]
	#DEBUG_VALUE: _i.i2c_master_if.i2c_master_single_port._c0.read:m <- [SP+48]
	#DEBUG_VALUE: _i.i2c_master_if.i2c_master_single_port._c0.read:send_stop_bit <- undef
	#DEBUG_VALUE: fall_time <- [R5+0]
	mov r1, r11
	.loc	2 216 0                 # C:/Users/user/workspace/lib_i2c/src/i2c_master_single_port.xc:216:0
.Ltmp39:
	get r11, id
	.loc	2 216 0                 # C:/Users/user/workspace/lib_i2c/src/i2c_master_single_port.xc:216:0
	ldaw r0, dp[__timers]
	.loc	2 216 0                 # C:/Users/user/workspace/lib_i2c/src/i2c_master_single_port.xc:216:0
	ldw r0, r0[r11]
	stw r0, sp[9]                   # 4-byte Folded Spill
	mov r11, r1
	.loc	2 218 11                # C:/Users/user/workspace/lib_i2c/src/i2c_master_single_port.xc:218:11
.Ltmp40:
	ldw r0, sp[12]                  # 4-byte Folded Reload
	sub r0, r0, 1
	stw r0, sp[8]                   # 4-byte Folded Spill
	ldc r0, 0
	stw r0, sp[13]                  # 4-byte Folded Spill
.Ltmp41:
.LBB2_6:                                # %LoopBody104
                                        # =>This Loop Header: Depth=1
                                        #     Child Loop BB2_7 Depth 2
.Lxtalabel0:
	#DEBUG_VALUE: _i.i2c_master_if.i2c_master_single_port._c0.read:device <- undef
	#DEBUG_VALUE: _i.i2c_master_if.i2c_master_single_port._c0.read:buf <- [SP+44]
	#DEBUG_VALUE: _i.i2c_master_if.i2c_master_single_port._c0.read:m <- [SP+48]
	#DEBUG_VALUE: _i.i2c_master_if.i2c_master_single_port._c0.read:send_stop_bit <- undef
	#DEBUG_VALUE: data <- 0
	#DEBUG_VALUE: i <- 8
	ldw r8, cp[.LCPI2_0]
	ldc r5, 0
.Ltmp42:
.LBB2_7:                                # %LoopBody113
                                        #   Parent Loop BB2_6 Depth=1
                                        # =>  This Inner Loop Header: Depth=2
.Lxtalabel1:
	#DEBUG_VALUE: _i.i2c_master_if.i2c_master_single_port._c0.read:device <- undef
	#DEBUG_VALUE: _i.i2c_master_if.i2c_master_single_port._c0.read:buf <- [SP+44]
	#DEBUG_VALUE: _i.i2c_master_if.i2c_master_single_port._c0.read:m <- [SP+48]
	#DEBUG_VALUE: _i.i2c_master_if.i2c_master_single_port._c0.read:send_stop_bit <- undef
	#DEBUG_VALUE: data <- 0
	#DEBUG_VALUE: i <- 8
	.loc	2 209 0                 # C:/Users/user/workspace/lib_i2c/src/i2c_master_single_port.xc:209:0
	ldw r0, r11[8]
	.loc	2 209 0                 # C:/Users/user/workspace/lib_i2c/src/i2c_master_single_port.xc:209:0
	ldw r1, r10[0]
	.loc	2 209 0                 # C:/Users/user/workspace/lib_i2c/src/i2c_master_single_port.xc:209:0
	ldw r2, r7[0]
	.loc	2 209 0                 # C:/Users/user/workspace/lib_i2c/src/i2c_master_single_port.xc:209:0
	ldw r3, r4[0]
	mov r6, r4
	mov r4, r10
	mov r10, r7
	mov r7, r11
	.loc	2 209 0                 # C:/Users/user/workspace/lib_i2c/src/i2c_master_single_port.xc:209:0
	ldw r11, sp[14]                 # 4-byte Folded Reload
	ldw r11, r11[0]
.Ltmp43:
	#DEBUG_VALUE: fall_time <- undef
	ldaw r9, sp[15]
	.loc	2 209 0                 # C:/Users/user/workspace/lib_i2c/src/i2c_master_single_port.xc:209:0
	stw r9, sp[2]
	stw r11, sp[1]
.Lxta.call_labels3:
	bl high_pulse_sample
	mov r11, r7
	mov r7, r10
	mov r10, r4
	mov r4, r6
.Ltmp44:
	#DEBUG_VALUE: temp <- R0
	.loc	2 212 0                 # C:/Users/user/workspace/lib_i2c/src/i2c_master_single_port.xc:212:0
	shl r1, r5, 1
	ldc r2, 510
	.loc	2 212 0                 # C:/Users/user/workspace/lib_i2c/src/i2c_master_single_port.xc:212:0
	and r1, r1, r2
	.loc	2 212 0                 # C:/Users/user/workspace/lib_i2c/src/i2c_master_single_port.xc:212:0
	or r5, r0, r1
.Ltmp45:
	.loc	2 208 0                 # C:/Users/user/workspace/lib_i2c/src/i2c_master_single_port.xc:208:0
	add r8, r8, 1
.xtaloop 8
	# LOOPMARKER 1
.Lxta.loop_labels0:
	# LOOPMARKER 0
	bt r8, .LBB2_7
.Ltmp46:
# BB#8:                                 # %afterboundcheck
                                        #   in Loop: Header=BB2_6 Depth=1
.Lxtalabel2:
	#DEBUG_VALUE: _i.i2c_master_if.i2c_master_single_port._c0.read:device <- undef
	#DEBUG_VALUE: _i.i2c_master_if.i2c_master_single_port._c0.read:buf <- [SP+44]
	#DEBUG_VALUE: _i.i2c_master_if.i2c_master_single_port._c0.read:m <- [SP+48]
	#DEBUG_VALUE: _i.i2c_master_if.i2c_master_single_port._c0.read:send_stop_bit <- undef
	#DEBUG_VALUE: fall_time <- undef
	#DEBUG_VALUE: data <- 0
	ldw r2, sp[14]                  # 4-byte Folded Reload
	.loc	2 214 0                 # C:/Users/user/workspace/lib_i2c/src/i2c_master_single_port.xc:214:0
	ldw r0, sp[11]                  # 4-byte Folded Reload
	ldw r9, sp[13]                  # 4-byte Folded Reload
	st8 r5, r0[r9]
	.loc	2 216 0                 # C:/Users/user/workspace/lib_i2c/src/i2c_master_single_port.xc:216:0
	ldw r3, sp[15]
	.loc	2 216 0                 # C:/Users/user/workspace/lib_i2c/src/i2c_master_single_port.xc:216:0
	ldw r6, r10[0]
	.loc	2 216 0                 # C:/Users/user/workspace/lib_i2c/src/i2c_master_single_port.xc:216:0
	shr r0, r6, 2
	.loc	2 216 0                 # C:/Users/user/workspace/lib_i2c/src/i2c_master_single_port.xc:216:0
	add r0, r0, r3
	ldw r1, sp[9]                   # 4-byte Folded Reload
	.loc	2 216 0                 # C:/Users/user/workspace/lib_i2c/src/i2c_master_single_port.xc:216:0
	setd res[r1], r0
	.loc	2 216 0                 # C:/Users/user/workspace/lib_i2c/src/i2c_master_single_port.xc:216:0
	setc res[r1], 9
	.loc	2 216 0                 # C:/Users/user/workspace/lib_i2c/src/i2c_master_single_port.xc:216:0
.Ltmp47:
.Lxta.endpoint_labels0:
	in r0, res[r1]
	mov r8, r1
	.loc	2 219 59                # C:/Users/user/workspace/lib_i2c/src/i2c_master_single_port.xc:219:59
	ldw r0, r11[8]
	.loc	2 218 11                # C:/Users/user/workspace/lib_i2c/src/i2c_master_single_port.xc:218:11
	ldw r1, sp[8]                   # 4-byte Folded Reload
	eq r1, r9, r1
	bf r1, .LBB2_19
.Ltmp48:
# BB#9:                                 # %iftrue143
                                        #   in Loop: Header=BB2_6 Depth=1
.Lxtalabel3:
	#DEBUG_VALUE: _i.i2c_master_if.i2c_master_single_port._c0.read:device <- undef
	#DEBUG_VALUE: _i.i2c_master_if.i2c_master_single_port._c0.read:buf <- [SP+44]
	#DEBUG_VALUE: _i.i2c_master_if.i2c_master_single_port._c0.read:m <- [SP+48]
	#DEBUG_VALUE: _i.i2c_master_if.i2c_master_single_port._c0.read:send_stop_bit <- undef
	#DEBUG_VALUE: fall_time <- undef
	#DEBUG_VALUE: data <- 0
	.loc	2 219 59                # C:/Users/user/workspace/lib_i2c/src/i2c_master_single_port.xc:219:59
	ldw r11, r4[0]
	.loc	2 219 59                # C:/Users/user/workspace/lib_i2c/src/i2c_master_single_port.xc:219:59
	ldw r1, r7[0]
	.loc	2 219 59                # C:/Users/user/workspace/lib_i2c/src/i2c_master_single_port.xc:219:59
	or r11, r1, r11
	mov r9, r2
	.loc	2 219 59                # C:/Users/user/workspace/lib_i2c/src/i2c_master_single_port.xc:219:59
	ldw r5, r9[0]
	.loc	2 219 59                # C:/Users/user/workspace/lib_i2c/src/i2c_master_single_port.xc:219:59
	or r11, r11, r5
	bu .LBB2_10
.Ltmp49:
.LBB2_19:                               # %iffalse151
                                        #   in Loop: Header=BB2_6 Depth=1
.Lxtalabel4:
	#DEBUG_VALUE: _i.i2c_master_if.i2c_master_single_port._c0.read:device <- undef
	#DEBUG_VALUE: _i.i2c_master_if.i2c_master_single_port._c0.read:buf <- [SP+44]
	#DEBUG_VALUE: _i.i2c_master_if.i2c_master_single_port._c0.read:m <- [SP+48]
	#DEBUG_VALUE: _i.i2c_master_if.i2c_master_single_port._c0.read:send_stop_bit <- undef
	#DEBUG_VALUE: fall_time <- undef
	#DEBUG_VALUE: data <- 0
	.loc	2 221 48                # C:/Users/user/workspace/lib_i2c/src/i2c_master_single_port.xc:221:48
	ldw r1, r7[0]
	mov r9, r2
	.loc	2 221 48                # C:/Users/user/workspace/lib_i2c/src/i2c_master_single_port.xc:221:48
	ldw r11, r9[0]
	.loc	2 221 48                # C:/Users/user/workspace/lib_i2c/src/i2c_master_single_port.xc:221:48
	or r11, r11, r1
.Ltmp50:
.LBB2_10:                               # %ifdone144
                                        #   in Loop: Header=BB2_6 Depth=1
.Lxtalabel5:
	.loc	2 219 59                # C:/Users/user/workspace/lib_i2c/src/i2c_master_single_port.xc:219:59
.Lxta.endpoint_labels1:
	out res[r0], r11
	ldaw r5, sp[15]
	mov r2, r5
.Ltmp51:
	#DEBUG_VALUE: fall_time <- [R5+0]
	#DEBUG_VALUE: _i.i2c_master_if.i2c_master_single_port._c0.read:device <- undef
	#DEBUG_VALUE: _i.i2c_master_if.i2c_master_single_port._c0.read:buf <- [SP+44]
	#DEBUG_VALUE: _i.i2c_master_if.i2c_master_single_port._c0.read:m <- [SP+48]
	#DEBUG_VALUE: _i.i2c_master_if.i2c_master_single_port._c0.read:send_stop_bit <- undef
	#DEBUG_VALUE: fall_time <- [R5+0]
	#DEBUG_VALUE: data <- 0
	.loc	2 225 0                 # C:/Users/user/workspace/lib_i2c/src/i2c_master_single_port.xc:225:0
	shr r11, r6, 1
	.loc	2 225 0                 # C:/Users/user/workspace/lib_i2c/src/i2c_master_single_port.xc:225:0
	add r3, r11, r3
	.loc	2 225 0                 # C:/Users/user/workspace/lib_i2c/src/i2c_master_single_port.xc:225:0
	shr r11, r6, 5
	.loc	2 225 0                 # C:/Users/user/workspace/lib_i2c/src/i2c_master_single_port.xc:225:0
	add r3, r3, r11
	.loc	2 225 0                 # C:/Users/user/workspace/lib_i2c/src/i2c_master_single_port.xc:225:0
	setd res[r8], r3
	.loc	2 225 0                 # C:/Users/user/workspace/lib_i2c/src/i2c_master_single_port.xc:225:0
	setc res[r8], 9
	.loc	2 225 0                 # C:/Users/user/workspace/lib_i2c/src/i2c_master_single_port.xc:225:0
.Ltmp52:
.Lxta.endpoint_labels2:
	in r3, res[r8]
	.loc	2 226 0                 # C:/Users/user/workspace/lib_i2c/src/i2c_master_single_port.xc:226:0
	add r3, r6, 1
	.loc	2 226 0                 # C:/Users/user/workspace/lib_i2c/src/i2c_master_single_port.xc:226:0
.Lxta.call_labels4:
	bl wait_for_clock_high
	ldw r11, sp[10]                 # 4-byte Folded Reload
	.loc	2 227 46                # C:/Users/user/workspace/lib_i2c/src/i2c_master_single_port.xc:227:46
	ldw r0, r11[8]
	.loc	2 227 46                # C:/Users/user/workspace/lib_i2c/src/i2c_master_single_port.xc:227:46
	ldw r1, r4[0]
	.loc	2 227 46                # C:/Users/user/workspace/lib_i2c/src/i2c_master_single_port.xc:227:46
	ldw r2, r9[0]
	.loc	2 227 46                # C:/Users/user/workspace/lib_i2c/src/i2c_master_single_port.xc:227:46
	or r1, r2, r1
	.loc	2 227 46                # C:/Users/user/workspace/lib_i2c/src/i2c_master_single_port.xc:227:46
.Lxta.endpoint_labels3:
	out res[r0], r1
	.loc	2 228 0                 # C:/Users/user/workspace/lib_i2c/src/i2c_master_single_port.xc:228:0
	ldw r0, sp[15]
	.loc	2 228 0                 # C:/Users/user/workspace/lib_i2c/src/i2c_master_single_port.xc:228:0
	ldw r1, r10[0]
	.loc	2 228 0                 # C:/Users/user/workspace/lib_i2c/src/i2c_master_single_port.xc:228:0
	add r0, r1, r0
.Ltmp53:
	#DEBUG_VALUE: fall_time <- R0
	.loc	2 228 0                 # C:/Users/user/workspace/lib_i2c/src/i2c_master_single_port.xc:228:0
	stw r0, sp[15]
	ldw r1, sp[13]                  # 4-byte Folded Reload
.Ltmp54:
	.loc	2 205 0                 # C:/Users/user/workspace/lib_i2c/src/i2c_master_single_port.xc:205:0
	add r1, r1, 1
.Ltmp55:
	#DEBUG_VALUE: j <- R1
	.loc	2 205 0                 # C:/Users/user/workspace/lib_i2c/src/i2c_master_single_port.xc:205:0
	stw r1, sp[13]                  # 4-byte Folded Spill
	ldw r0, sp[12]                  # 4-byte Folded Reload
.Ltmp56:
	lsu r0, r1, r0
.Ltmp57:
	#DEBUG_VALUE: j <- [SP+52]
.Lxta.loop_labels1:
	# LOOPMARKER 2
	bt r0, .LBB2_6
.Ltmp58:
.LBB2_11:                               # %ifdone94
.Lxtalabel6:
	#DEBUG_VALUE: _i.i2c_master_if.i2c_master_single_port._c0.read:device <- undef
	#DEBUG_VALUE: _i.i2c_master_if.i2c_master_single_port._c0.read:send_stop_bit <- undef
	ldw r0, sp[25]
	bf r0, .LBB2_13
# BB#12:                                # %iftrue205
.Lxtalabel7:
	#DEBUG_VALUE: _i.i2c_master_if.i2c_master_single_port._c0.read:device <- undef
	.loc	2 232 0                 # C:/Users/user/workspace/lib_i2c/src/i2c_master_single_port.xc:232:0
	ldw r0, r11[8]
	.loc	2 232 0                 # C:/Users/user/workspace/lib_i2c/src/i2c_master_single_port.xc:232:0
	ldw r1, r10[0]
	.loc	2 232 0                 # C:/Users/user/workspace/lib_i2c/src/i2c_master_single_port.xc:232:0
	ldw r2, r7[0]
	.loc	2 232 0                 # C:/Users/user/workspace/lib_i2c/src/i2c_master_single_port.xc:232:0
	ldw r3, r4[0]
	mov r5, r11
	.loc	2 232 0                 # C:/Users/user/workspace/lib_i2c/src/i2c_master_single_port.xc:232:0
	ldw r11, r9[0]
	.loc	2 232 0                 # C:/Users/user/workspace/lib_i2c/src/i2c_master_single_port.xc:232:0
	ldw r4, sp[15]
	.loc	2 232 0                 # C:/Users/user/workspace/lib_i2c/src/i2c_master_single_port.xc:232:0
	stw r4, sp[2]
	stw r11, sp[1]
.Lxta.call_labels5:
	bl stop_bit
	mov r11, r5
	mkmsk r0, 32
	stw r0, sp[6]                   # 4-byte Folded Spill
.LBB2_13:                               # %ifdone206
.Lxtalabel8:
	#DEBUG_VALUE: _i.i2c_master_if.i2c_master_single_port._c0.read:device <- undef
	ldc r0, 64
	.loc	2 237 0                 # C:/Users/user/workspace/lib_i2c/src/i2c_master_single_port.xc:237:0
	add r0, r11, r0
	ldw r1, sp[6]                   # 4-byte Folded Reload
	stw r1, r0[0]
	mkmsk r0, 1
	stw r0, r11[0]
	ldw r0, sp[7]                   # 4-byte Folded Reload
	ldw r10, sp[22]                 # 4-byte Folded Reload
	ldd r9, r8, sp[10]              # 4-byte Folded Reload
	ldd r7, r6, sp[9]               # 4-byte Folded Reload
	ldd r5, r4, sp[8]               # 4-byte Folded Reload
	retsp 24
	# RETURN_REG_HOLDER
.Ltmp59:
	.cc_bottom _i.i2c_master_if.i2c_master_single_port._c0.read.function
	.set	_i.i2c_master_if.i2c_master_single_port._c0.read.nstackwords,((start_bit.nstackwords $M tx8.nstackwords $M stop_bit.nstackwords $M high_pulse_sample.nstackwords $M wait_for_clock_high.nstackwords $M _i.i2c_master_if._client_call_y.max.nstackwords $M ($D __interface_yield_once.nstackwords ? __interface_yield_once.nstackwords $: _i.i2c_master_if._client_call_y.max.nstackwords)) + 24)
	.globl	_i.i2c_master_if.i2c_master_single_port._c0.read.nstackwords
	.set	_i.i2c_master_if.i2c_master_single_port._c0.read.maxcores,($D __interface_yield_once.maxcores ? __interface_yield_once.maxcores $: _i.i2c_master_if._client_call_y.max.maxcores) $M high_pulse_sample.maxcores $M start_bit.maxcores $M stop_bit.maxcores $M tx8.maxcores $M wait_for_clock_high.maxcores $M 1
	.globl	_i.i2c_master_if.i2c_master_single_port._c0.read.maxcores
	.set	_i.i2c_master_if.i2c_master_single_port._c0.read.maxtimers,($D __interface_yield_once.maxtimers ? __interface_yield_once.maxtimers $: _i.i2c_master_if._client_call_y.max.maxtimers) $M high_pulse_sample.maxtimers $M start_bit.maxtimers $M stop_bit.maxtimers $M tx8.maxtimers $M wait_for_clock_high.maxtimers $M 0
	.globl	_i.i2c_master_if.i2c_master_single_port._c0.read.maxtimers
	.set	_i.i2c_master_if.i2c_master_single_port._c0.read.maxchanends,($D __interface_yield_once.maxchanends ? __interface_yield_once.maxchanends $: _i.i2c_master_if._client_call_y.max.maxchanends) $M high_pulse_sample.maxchanends $M start_bit.maxchanends $M stop_bit.maxchanends $M tx8.maxchanends $M wait_for_clock_high.maxchanends $M 0
	.globl	_i.i2c_master_if.i2c_master_single_port._c0.read.maxchanends
.Ltmp60:
	.size	_i.i2c_master_if.i2c_master_single_port._c0.read, .Ltmp60-_i.i2c_master_if.i2c_master_single_port._c0.read
.Lfunc_end2:
	.cfi_endproc

	.globl	_i.i2c_master_if.i2c_master_single_port._c0.write
	.align	4
	.type	_i.i2c_master_if.i2c_master_single_port._c0.write,@function
	.cc_top _i.i2c_master_if.i2c_master_single_port._c0.write.function,_i.i2c_master_if.i2c_master_single_port._c0.write
_i.i2c_master_if.i2c_master_single_port._c0.write: # @_i.i2c_master_if.i2c_master_single_port._c0.write
.Lfunc_begin3:
	.loc	2 242 0                 # C:/Users/user/workspace/lib_i2c/src/i2c_master_single_port.xc:242:0
	.cfi_startproc
	.issue_mode single
# BB#0:                                 # %allocas
	ENTSP_lu6 18
.Ltmp61:
	.cfi_def_cfa_offset 72
.Ltmp62:
	.cfi_offset 15, 0
	std r5, r4, sp[5]               # 4-byte Folded Spill
.Ltmp63:
	.cfi_offset 4, -32
.Ltmp64:
	.cfi_offset 5, -28
	std r7, r6, sp[6]               # 4-byte Folded Spill
.Ltmp65:
	.cfi_offset 6, -24
.Ltmp66:
	.cfi_offset 7, -20
	std r9, r8, sp[7]               # 4-byte Folded Spill
.Ltmp67:
	.cfi_offset 8, -16
.Ltmp68:
	.cfi_offset 9, -12
	stw r10, sp[16]                 # 4-byte Folded Spill
.Ltmp69:
	.cfi_offset 10, -8
	#DEBUG_VALUE: _i.i2c_master_if.i2c_master_single_port._c0.write:p <- R0
	#DEBUG_VALUE: _i.i2c_master_if.i2c_master_single_port._c0.write:device <- R1
	#DEBUG_VALUE: _i.i2c_master_if.i2c_master_single_port._c0.write:buf <- R2
	#DEBUG_VALUE: _i.i2c_master_if.i2c_master_single_port._c0.write:n <- R3
	stw r3, sp[8]                   # 4-byte Folded Spill
.Ltmp70:
	#DEBUG_VALUE: _i.i2c_master_if.i2c_master_single_port._c0.write:n <- [SP+32]
	stw r2, sp[6]                   # 4-byte Folded Spill
.Ltmp71:
	#DEBUG_VALUE: _i.i2c_master_if.i2c_master_single_port._c0.write:buf <- [SP+24]
	mov r7, r1
.Ltmp72:
	#DEBUG_VALUE: _i.i2c_master_if.i2c_master_single_port._c0.write:device <- undef
	#DEBUG_VALUE: _i.i2c_master_if.i2c_master_single_port._c0.write:device <- R7
	ldw r8, r0[0]
	ldw r6, r0[1]
.Ltmp73:
.LBB3_1:                                # %allocas
                                        # =>This Inner Loop Header: Depth=1
	ldw r0, r8[0]
	bf r0, .LBB3_1
# BB#2:                                 # %ifdone
.Ltmp74:
	#DEBUG_VALUE: _i.i2c_master_if.i2c_master_single_port._c0.write:device <- undef
	#DEBUG_VALUE: _i.i2c_master_if.i2c_master_single_port._c0.write:buf <- [SP+24]
	#DEBUG_VALUE: _i.i2c_master_if.i2c_master_single_port._c0.write:n <- [SP+32]
	ldw r0, r8[7]
	eq r0, r0, 1
	bt r0, .LBB3_3
.Ltmp75:
# BB#9:                                 # %lhsfalse
	#DEBUG_VALUE: _i.i2c_master_if.i2c_master_single_port._c0.write:device <- undef
	#DEBUG_VALUE: _i.i2c_master_if.i2c_master_single_port._c0.write:buf <- [SP+24]
	#DEBUG_VALUE: _i.i2c_master_if.i2c_master_single_port._c0.write:n <- [SP+32]
	ldc r0, 64
	add r4, r8, r0
	ldw r0, r4[0]
	mkmsk r5, 32
	bu .LBB3_13
.Ltmp76:
.LBB3_12:                               # %lhsfalse51
                                        #   in Loop: Header=BB3_13 Depth=1
	#DEBUG_VALUE: _i.i2c_master_if.i2c_master_single_port._c0.write:device <- undef
	#DEBUG_VALUE: _i.i2c_master_if.i2c_master_single_port._c0.write:buf <- [SP+24]
	#DEBUG_VALUE: _i.i2c_master_if.i2c_master_single_port._c0.write:n <- [SP+32]
	ldw r0, r4[0]
.Ltmp77:
.LBB3_13:                               # %lhsfalse51
                                        # =>This Inner Loop Header: Depth=1
	eq r1, r0, r5
	bt r1, .LBB3_3
# BB#10:                                # %lhsfalse
                                        #   in Loop: Header=BB3_13 Depth=1
	#DEBUG_VALUE: _i.i2c_master_if.i2c_master_single_port._c0.write:device <- undef
.Ltmp78:
	#DEBUG_VALUE: _i.i2c_master_if.i2c_master_single_port._c0.write:buf <- [SP+24]
	#DEBUG_VALUE: _i.i2c_master_if.i2c_master_single_port._c0.write:n <- [SP+32]
	eq r0, r6, r0
	bt r0, .LBB3_3
.Ltmp79:
# BB#11:                                # %LoopBody42
                                        #   in Loop: Header=BB3_13 Depth=1
	#DEBUG_VALUE: _i.i2c_master_if.i2c_master_single_port._c0.write:device <- undef
	#DEBUG_VALUE: _i.i2c_master_if.i2c_master_single_port._c0.write:buf <- [SP+24]
	#DEBUG_VALUE: _i.i2c_master_if.i2c_master_single_port._c0.write:n <- [SP+32]
	mov r0, r6
	bl __interface_yield_once
	ldw r0, r8[7]
	eq r0, r0, 1
	bf r0, .LBB3_12
.Ltmp80:
.LBB3_3:                                # %ifdone19
	#DEBUG_VALUE: _i.i2c_master_if.i2c_master_single_port._c0.write:device <- undef
	#DEBUG_VALUE: _i.i2c_master_if.i2c_master_single_port._c0.write:buf <- [SP+24]
	#DEBUG_VALUE: _i.i2c_master_if.i2c_master_single_port._c0.write:n <- [SP+32]
	stw r6, sp[5]                   # 4-byte Folded Spill
	#DEBUG_VALUE: _i.i2c_master_if.i2c_master_single_port._c0.write:send_stop_bit <- undef
	ldc r9, 0
	stw r9, r8[0]
.Ltmp81:
	#DEBUG_VALUE: ack <- 0
	.loc	2 249 0 prologue_end    # C:/Users/user/workspace/lib_i2c/src/i2c_master_single_port.xc:249:0
	ldw r0, r8[8]
	ldc r1, 52
	.loc	2 249 0                 # C:/Users/user/workspace/lib_i2c/src/i2c_master_single_port.xc:249:0
	add r4, r8, r1
	.loc	2 249 0                 # C:/Users/user/workspace/lib_i2c/src/i2c_master_single_port.xc:249:0
	ldw r1, r4[0]
	ldc r2, 60
	.loc	2 249 0                 # C:/Users/user/workspace/lib_i2c/src/i2c_master_single_port.xc:249:0
	add r6, r8, r2
	.loc	2 249 0                 # C:/Users/user/workspace/lib_i2c/src/i2c_master_single_port.xc:249:0
	ldw r2, r6[0]
	ldc r3, 56
	.loc	2 249 0                 # C:/Users/user/workspace/lib_i2c/src/i2c_master_single_port.xc:249:0
	add r5, r8, r3
	.loc	2 249 0                 # C:/Users/user/workspace/lib_i2c/src/i2c_master_single_port.xc:249:0
	ldw r3, r5[0]
	ldc r11, 48
	.loc	2 249 0                 # C:/Users/user/workspace/lib_i2c/src/i2c_master_single_port.xc:249:0
	add r10, r8, r11
	.loc	2 249 0                 # C:/Users/user/workspace/lib_i2c/src/i2c_master_single_port.xc:249:0
	stw r10, sp[7]                  # 4-byte Folded Spill
	ldw r11, r10[0]
	.loc	2 249 0                 # C:/Users/user/workspace/lib_i2c/src/i2c_master_single_port.xc:249:0
	stw r11, sp[1]
.Lxta.call_labels6:
	bl start_bit
.Ltmp82:
	#DEBUG_VALUE: fall_time <- R0
	.loc	2 249 0                 # C:/Users/user/workspace/lib_i2c/src/i2c_master_single_port.xc:249:0
	stw r0, sp[9]
	.loc	2 252 0                 # C:/Users/user/workspace/lib_i2c/src/i2c_master_single_port.xc:252:0
	ldw r0, r8[8]
.Ltmp83:
	.loc	2 252 0                 # C:/Users/user/workspace/lib_i2c/src/i2c_master_single_port.xc:252:0
	shl r1, r7, 1
	.loc	2 252 0                 # C:/Users/user/workspace/lib_i2c/src/i2c_master_single_port.xc:252:0
	ldw r2, r4[0]
	.loc	2 252 0                 # C:/Users/user/workspace/lib_i2c/src/i2c_master_single_port.xc:252:0
	ldw r3, r6[0]
	.loc	2 252 0                 # C:/Users/user/workspace/lib_i2c/src/i2c_master_single_port.xc:252:0
	ldw r11, r5[0]
	.loc	2 252 0                 # C:/Users/user/workspace/lib_i2c/src/i2c_master_single_port.xc:252:0
	ldw r7, r10[0]
	ldaw r10, sp[9]
.Ltmp84:
	#DEBUG_VALUE: fall_time <- [R10+0]
	.loc	2 252 0                 # C:/Users/user/workspace/lib_i2c/src/i2c_master_single_port.xc:252:0
	std r10, r7, sp[1]
	stw r11, sp[1]
.Lxta.call_labels7:
	bl tx8
	mov r7, r0
.Ltmp85:
	#DEBUG_VALUE: j <- 0
	#DEBUG_VALUE: ack <- R7
	.loc	2 255 0                 # C:/Users/user/workspace/lib_i2c/src/i2c_master_single_port.xc:255:0
	ldw r0, sp[8]                   # 4-byte Folded Reload
	bf r0, .LBB3_6
.Ltmp86:
.LBB3_4:                                # %LoopBody98
                                        # =>This Inner Loop Header: Depth=1
.Lxtalabel9:
	#DEBUG_VALUE: _i.i2c_master_if.i2c_master_single_port._c0.write:device <- undef
	#DEBUG_VALUE: _i.i2c_master_if.i2c_master_single_port._c0.write:buf <- [SP+24]
	#DEBUG_VALUE: _i.i2c_master_if.i2c_master_single_port._c0.write:n <- [SP+32]
	#DEBUG_VALUE: _i.i2c_master_if.i2c_master_single_port._c0.write:send_stop_bit <- undef
	bt r7, .LBB3_6
.Ltmp87:
# BB#5:                                 # %afterboundcheck
                                        #   in Loop: Header=BB3_4 Depth=1
.Lxtalabel10:
	#DEBUG_VALUE: _i.i2c_master_if.i2c_master_single_port._c0.write:device <- undef
	#DEBUG_VALUE: _i.i2c_master_if.i2c_master_single_port._c0.write:buf <- [SP+24]
	#DEBUG_VALUE: _i.i2c_master_if.i2c_master_single_port._c0.write:n <- [SP+32]
	#DEBUG_VALUE: _i.i2c_master_if.i2c_master_single_port._c0.write:send_stop_bit <- undef
	.loc	2 260 0                 # C:/Users/user/workspace/lib_i2c/src/i2c_master_single_port.xc:260:0
	ldw r0, r8[8]
	.loc	2 260 0                 # C:/Users/user/workspace/lib_i2c/src/i2c_master_single_port.xc:260:0
	ldw r1, sp[6]                   # 4-byte Folded Reload
	ld8u r1, r1[r9]
	.loc	2 260 0                 # C:/Users/user/workspace/lib_i2c/src/i2c_master_single_port.xc:260:0
	ldw r2, r4[0]
	.loc	2 260 0                 # C:/Users/user/workspace/lib_i2c/src/i2c_master_single_port.xc:260:0
	ldw r3, r6[0]
	.loc	2 260 0                 # C:/Users/user/workspace/lib_i2c/src/i2c_master_single_port.xc:260:0
	ldw r11, r5[0]
	.loc	2 260 0                 # C:/Users/user/workspace/lib_i2c/src/i2c_master_single_port.xc:260:0
	ldw r7, sp[7]                   # 4-byte Folded Reload
	ldw r7, r7[0]
.Ltmp88:
	#DEBUG_VALUE: fall_time <- [R10+0]
	.loc	2 260 0                 # C:/Users/user/workspace/lib_i2c/src/i2c_master_single_port.xc:260:0
	std r10, r7, sp[1]
	stw r11, sp[1]
.Lxta.call_labels8:
	bl tx8
	mov r7, r0
.Ltmp89:
	#DEBUG_VALUE: ack <- R7
	.loc	2 255 0                 # C:/Users/user/workspace/lib_i2c/src/i2c_master_single_port.xc:255:0
	add r9, r9, 1
.Ltmp90:
	#DEBUG_VALUE: j <- R9
	.loc	2 255 0                 # C:/Users/user/workspace/lib_i2c/src/i2c_master_single_port.xc:255:0
	ldw r0, sp[8]                   # 4-byte Folded Reload
	lsu r0, r9, r0
.Lxta.loop_labels2:
	# LOOPMARKER 0
	bt r0, .LBB3_4
.Ltmp91:
.LBB3_6:                                # %ifdone93
.Lxtalabel11:
	#DEBUG_VALUE: _i.i2c_master_if.i2c_master_single_port._c0.write:device <- undef
	#DEBUG_VALUE: _i.i2c_master_if.i2c_master_single_port._c0.write:send_stop_bit <- undef
	#DEBUG_VALUE: j <- 0
	ldw r10, sp[19]
	#DEBUG_VALUE: _i.i2c_master_if.i2c_master_single_port._c0.write:num_bytes_sent <- R10
	ldw r0, sp[20]
	bf r0, .LBB3_8
.Ltmp92:
# BB#7:                                 # %iftrue124
.Lxtalabel12:
	#DEBUG_VALUE: _i.i2c_master_if.i2c_master_single_port._c0.write:device <- undef
	#DEBUG_VALUE: j <- 0
	#DEBUG_VALUE: _i.i2c_master_if.i2c_master_single_port._c0.write:num_bytes_sent <- R10
	.loc	2 264 0                 # C:/Users/user/workspace/lib_i2c/src/i2c_master_single_port.xc:264:0
	ldw r0, r8[8]
	.loc	2 264 0                 # C:/Users/user/workspace/lib_i2c/src/i2c_master_single_port.xc:264:0
	ldw r1, r4[0]
	.loc	2 264 0                 # C:/Users/user/workspace/lib_i2c/src/i2c_master_single_port.xc:264:0
	ldw r2, r6[0]
	.loc	2 264 0                 # C:/Users/user/workspace/lib_i2c/src/i2c_master_single_port.xc:264:0
	ldw r3, r5[0]
	.loc	2 264 0                 # C:/Users/user/workspace/lib_i2c/src/i2c_master_single_port.xc:264:0
	ldw r11, sp[7]                  # 4-byte Folded Reload
	ldw r11, r11[0]
	.loc	2 264 0                 # C:/Users/user/workspace/lib_i2c/src/i2c_master_single_port.xc:264:0
	ldw r4, sp[9]
	.loc	2 264 0                 # C:/Users/user/workspace/lib_i2c/src/i2c_master_single_port.xc:264:0
	stw r4, sp[2]
	stw r11, sp[1]
.Lxta.call_labels9:
	bl stop_bit
	mkmsk r0, 32
	stw r0, sp[5]                   # 4-byte Folded Spill
.Ltmp93:
.LBB3_8:                                # %ifdone125
.Lxtalabel13:
	#DEBUG_VALUE: _i.i2c_master_if.i2c_master_single_port._c0.write:device <- undef
	#DEBUG_VALUE: j <- 0
	#DEBUG_VALUE: _i.i2c_master_if.i2c_master_single_port._c0.write:num_bytes_sent <- R10
	ldc r0, 64
	.loc	2 268 0                 # C:/Users/user/workspace/lib_i2c/src/i2c_master_single_port.xc:268:0
	add r0, r8, r0
	ldw r1, sp[5]                   # 4-byte Folded Reload
	stw r1, r0[0]
	.loc	2 270 0                 # C:/Users/user/workspace/lib_i2c/src/i2c_master_single_port.xc:270:0
	stw r9, r10[0]
	.loc	2 272 0                 # C:/Users/user/workspace/lib_i2c/src/i2c_master_single_port.xc:272:0
	eq r0, r7, 0
	mkmsk r1, 1
	stw r1, r8[0]
	ldw r10, sp[16]                 # 4-byte Folded Reload
.Ltmp94:
	ldd r9, r8, sp[7]               # 4-byte Folded Reload
	ldd r7, r6, sp[6]               # 4-byte Folded Reload
	ldd r5, r4, sp[5]               # 4-byte Folded Reload
	retsp 18
	# RETURN_REG_HOLDER
.Ltmp95:
	.cc_bottom _i.i2c_master_if.i2c_master_single_port._c0.write.function
	.set	_i.i2c_master_if.i2c_master_single_port._c0.write.nstackwords,((start_bit.nstackwords $M stop_bit.nstackwords $M tx8.nstackwords $M _i.i2c_master_if._client_call_y.max.nstackwords $M ($D __interface_yield_once.nstackwords ? __interface_yield_once.nstackwords $: _i.i2c_master_if._client_call_y.max.nstackwords)) + 18)
	.globl	_i.i2c_master_if.i2c_master_single_port._c0.write.nstackwords
	.set	_i.i2c_master_if.i2c_master_single_port._c0.write.maxcores,($D __interface_yield_once.maxcores ? __interface_yield_once.maxcores $: _i.i2c_master_if._client_call_y.max.maxcores) $M start_bit.maxcores $M stop_bit.maxcores $M tx8.maxcores $M 1
	.globl	_i.i2c_master_if.i2c_master_single_port._c0.write.maxcores
	.set	_i.i2c_master_if.i2c_master_single_port._c0.write.maxtimers,($D __interface_yield_once.maxtimers ? __interface_yield_once.maxtimers $: _i.i2c_master_if._client_call_y.max.maxtimers) $M start_bit.maxtimers $M stop_bit.maxtimers $M tx8.maxtimers $M 0
	.globl	_i.i2c_master_if.i2c_master_single_port._c0.write.maxtimers
	.set	_i.i2c_master_if.i2c_master_single_port._c0.write.maxchanends,($D __interface_yield_once.maxchanends ? __interface_yield_once.maxchanends $: _i.i2c_master_if._client_call_y.max.maxchanends) $M start_bit.maxchanends $M stop_bit.maxchanends $M tx8.maxchanends $M 0
	.globl	_i.i2c_master_if.i2c_master_single_port._c0.write.maxchanends
.Ltmp96:
	.size	_i.i2c_master_if.i2c_master_single_port._c0.write, .Ltmp96-_i.i2c_master_if.i2c_master_single_port._c0.write
.Lfunc_end3:
	.cfi_endproc

	.globl	_i.i2c_master_if.i2c_master_single_port.0.shutdown
	.align	4
	.type	_i.i2c_master_if.i2c_master_single_port.0.shutdown,@function
	.cc_top _i.i2c_master_if.i2c_master_single_port.0.shutdown.function,_i.i2c_master_if.i2c_master_single_port.0.shutdown
_i.i2c_master_if.i2c_master_single_port.0.shutdown: # @_i.i2c_master_if.i2c_master_single_port.0.shutdown
	.cfi_startproc
	.issue_mode single
# BB#0:                                 # %allocas
	ENTSP_lu6 4
.Ltmp97:
	.cfi_def_cfa_offset 16
.Ltmp98:
	.cfi_offset 15, 0
	std r5, r4, sp[1]               # 4-byte Folded Spill
.Ltmp99:
	.cfi_offset 4, -8
.Ltmp100:
	.cfi_offset 5, -4
	#DEBUG_VALUE: _i.i2c_master_if.i2c_master_single_port.0.shutdown:p <- R0
	ldw r5, r0[0]
.LBB4_1:                                # %LoopTest
                                        # =>This Inner Loop Header: Depth=1
	ldw r0, r5[0]
	bf r0, .LBB4_1
# BB#2:                                 # %ifdone
	add r4, r5, 8
	mov r0, r4
	bl __lock_fair_acquire
	ldc r0, 0
	stw r0, r5[0]
	mov r0, r4
	bl __lock_fair_release
	ldw r0, r5[4]
	add r0, r0, 1
	stw r0, r5[4]
	ldd r5, r4, sp[1]               # 4-byte Folded Reload
	retsp 4
	# RETURN_REG_HOLDER
	.cc_bottom _i.i2c_master_if.i2c_master_single_port.0.shutdown.function
	.set	_i.i2c_master_if.i2c_master_single_port.0.shutdown.nstackwords,((__lock_fair_acquire.nstackwords $M __lock_fair_release.nstackwords) + 4)
	.globl	_i.i2c_master_if.i2c_master_single_port.0.shutdown.nstackwords
	.set	_i.i2c_master_if.i2c_master_single_port.0.shutdown.maxcores,__lock_fair_acquire.maxcores $M __lock_fair_release.maxcores $M 1
	.globl	_i.i2c_master_if.i2c_master_single_port.0.shutdown.maxcores
	.set	_i.i2c_master_if.i2c_master_single_port.0.shutdown.maxtimers,__lock_fair_acquire.maxtimers $M __lock_fair_release.maxtimers $M 0
	.globl	_i.i2c_master_if.i2c_master_single_port.0.shutdown.maxtimers
	.set	_i.i2c_master_if.i2c_master_single_port.0.shutdown.maxchanends,__lock_fair_acquire.maxchanends $M __lock_fair_release.maxchanends $M 0
	.globl	_i.i2c_master_if.i2c_master_single_port.0.shutdown.maxchanends
.Ltmp101:
	.size	_i.i2c_master_if.i2c_master_single_port.0.shutdown, .Ltmp101-_i.i2c_master_if.i2c_master_single_port.0.shutdown
	.cfi_endproc

	.globl	_i.i2c_master_if.i2c_master_single_port.0.send_stop_bit
	.align	4
	.type	_i.i2c_master_if.i2c_master_single_port.0.send_stop_bit,@function
	.cc_top _i.i2c_master_if.i2c_master_single_port.0.send_stop_bit.function,_i.i2c_master_if.i2c_master_single_port.0.send_stop_bit
_i.i2c_master_if.i2c_master_single_port.0.send_stop_bit: # @_i.i2c_master_if.i2c_master_single_port.0.send_stop_bit
.Lfunc_begin5:
	.loc	2 277 0                 # C:/Users/user/workspace/lib_i2c/src/i2c_master_single_port.xc:277:0
	.cfi_startproc
	.issue_mode single
# BB#0:                                 # %allocas
	ENTSP_lu6 8
.Ltmp102:
	.cfi_def_cfa_offset 32
.Ltmp103:
	.cfi_offset 15, 0
	std r5, r4, sp[2]               # 4-byte Folded Spill
.Ltmp104:
	.cfi_offset 4, -16
.Ltmp105:
	.cfi_offset 5, -12
	stw r6, sp[6]                   # 4-byte Folded Spill
.Ltmp106:
	.cfi_offset 6, -8
	#DEBUG_VALUE: _i.i2c_master_if.i2c_master_single_port.0.send_stop_bit:p <- R0
	ldw r5, r0[0]
.Ltmp107:
.LBB5_1:                                # %LoopTest
                                        # =>This Inner Loop Header: Depth=1
	ldw r0, r5[0]
	bf r0, .LBB5_1
# BB#2:                                 # %ifdone
	add r4, r5, 8
	mov r0, r4
	bl __lock_fair_acquire
	.loc	2 280 0 prologue_end    # C:/Users/user/workspace/lib_i2c/src/i2c_master_single_port.xc:280:0
.Ltmp108:
	gettime r11
.Ltmp109:
	#DEBUG_VALUE: fall_time <- R11
	.loc	2 281 0                 # C:/Users/user/workspace/lib_i2c/src/i2c_master_single_port.xc:281:0
	ldw r0, r5[8]
	ldc r1, 52
	.loc	2 281 0                 # C:/Users/user/workspace/lib_i2c/src/i2c_master_single_port.xc:281:0
	add r1, r5, r1
	.loc	2 281 0                 # C:/Users/user/workspace/lib_i2c/src/i2c_master_single_port.xc:281:0
	ldw r1, r1[0]
	ldc r2, 60
	.loc	2 281 0                 # C:/Users/user/workspace/lib_i2c/src/i2c_master_single_port.xc:281:0
	add r2, r5, r2
	.loc	2 281 0                 # C:/Users/user/workspace/lib_i2c/src/i2c_master_single_port.xc:281:0
	ldw r2, r2[0]
	ldc r3, 56
	.loc	2 281 0                 # C:/Users/user/workspace/lib_i2c/src/i2c_master_single_port.xc:281:0
	add r3, r5, r3
	.loc	2 281 0                 # C:/Users/user/workspace/lib_i2c/src/i2c_master_single_port.xc:281:0
	ldw r3, r3[0]
	ldc r6, 48
	.loc	2 281 0                 # C:/Users/user/workspace/lib_i2c/src/i2c_master_single_port.xc:281:0
	add r6, r5, r6
	.loc	2 281 0                 # C:/Users/user/workspace/lib_i2c/src/i2c_master_single_port.xc:281:0
	ldw r6, r6[0]
	.loc	2 281 0                 # C:/Users/user/workspace/lib_i2c/src/i2c_master_single_port.xc:281:0
	stw r6, sp[1]
	stw r11, sp[2]
.Lxta.call_labels10:
	bl stop_bit
.Ltmp110:
	ldc r0, 64
	.loc	2 282 0                 # C:/Users/user/workspace/lib_i2c/src/i2c_master_single_port.xc:282:0
	add r0, r5, r0
	mkmsk r1, 32
	.loc	2 282 0                 # C:/Users/user/workspace/lib_i2c/src/i2c_master_single_port.xc:282:0
	stw r1, r0[0]
	clre
	mov r0, r4
	bl __lock_fair_release
	ldw r0, r5[4]
	add r0, r0, 1
	stw r0, r5[4]
	ldw r6, sp[6]                   # 4-byte Folded Reload
	ldd r5, r4, sp[2]               # 4-byte Folded Reload
	retsp 8
	# RETURN_REG_HOLDER
.Ltmp111:
	.cc_bottom _i.i2c_master_if.i2c_master_single_port.0.send_stop_bit.function
	.set	_i.i2c_master_if.i2c_master_single_port.0.send_stop_bit.nstackwords,((__lock_fair_acquire.nstackwords $M stop_bit.nstackwords $M __lock_fair_release.nstackwords) + 8)
	.globl	_i.i2c_master_if.i2c_master_single_port.0.send_stop_bit.nstackwords
	.set	_i.i2c_master_if.i2c_master_single_port.0.send_stop_bit.maxcores,__lock_fair_acquire.maxcores $M __lock_fair_release.maxcores $M stop_bit.maxcores $M 1
	.globl	_i.i2c_master_if.i2c_master_single_port.0.send_stop_bit.maxcores
	.set	_i.i2c_master_if.i2c_master_single_port.0.send_stop_bit.maxtimers,__lock_fair_acquire.maxtimers $M __lock_fair_release.maxtimers $M stop_bit.maxtimers $M 0
	.globl	_i.i2c_master_if.i2c_master_single_port.0.send_stop_bit.maxtimers
	.set	_i.i2c_master_if.i2c_master_single_port.0.send_stop_bit.maxchanends,__lock_fair_acquire.maxchanends $M __lock_fair_release.maxchanends $M stop_bit.maxchanends $M 0
	.globl	_i.i2c_master_if.i2c_master_single_port.0.send_stop_bit.maxchanends
.Ltmp112:
	.size	_i.i2c_master_if.i2c_master_single_port.0.send_stop_bit, .Ltmp112-_i.i2c_master_if.i2c_master_single_port.0.send_stop_bit
.Lfunc_end5:
	.cfi_endproc

	.section	.cp.rodata.cst4,"aMc",@progbits,4
	.cc_top .LCPI6_0.data,.LCPI6_0
	.align	4
	.type	.LCPI6_0,@object
	.size	.LCPI6_0, 4
.LCPI6_0:
	.long	4294967288              # 0xfffffff8
	.cc_bottom .LCPI6_0.data
	.text
	.globl	_i.i2c_master_if.i2c_master_single_port.0.read
	.align	4
	.type	_i.i2c_master_if.i2c_master_single_port.0.read,@function
	.cc_top _i.i2c_master_if.i2c_master_single_port.0.read.function,_i.i2c_master_if.i2c_master_single_port.0.read
_i.i2c_master_if.i2c_master_single_port.0.read: # @_i.i2c_master_if.i2c_master_single_port.0.read
.Lfunc_begin6:
	.loc	2 190 0                 # C:/Users/user/workspace/lib_i2c/src/i2c_master_single_port.xc:190:0
	.cfi_startproc
	.issue_mode single
# BB#0:                                 # %allocas
	ENTSP_lu6 26
.Ltmp113:
	.cfi_def_cfa_offset 104
.Ltmp114:
	.cfi_offset 15, 0
	std r5, r4, sp[9]               # 4-byte Folded Spill
.Ltmp115:
	.cfi_offset 4, -32
.Ltmp116:
	.cfi_offset 5, -28
	std r7, r6, sp[10]              # 4-byte Folded Spill
.Ltmp117:
	.cfi_offset 6, -24
.Ltmp118:
	.cfi_offset 7, -20
	std r9, r8, sp[11]              # 4-byte Folded Spill
.Ltmp119:
	.cfi_offset 8, -16
.Ltmp120:
	.cfi_offset 9, -12
	stw r10, sp[24]                 # 4-byte Folded Spill
.Ltmp121:
	.cfi_offset 10, -8
	#DEBUG_VALUE: _i.i2c_master_if.i2c_master_single_port.0.read:p <- R0
	#DEBUG_VALUE: _i.i2c_master_if.i2c_master_single_port.0.read:device <- R1
	#DEBUG_VALUE: _i.i2c_master_if.i2c_master_single_port.0.read:buf <- R2
	#DEBUG_VALUE: _i.i2c_master_if.i2c_master_single_port.0.read:m <- R3
	stw r3, sp[12]                  # 4-byte Folded Spill
.Ltmp122:
	#DEBUG_VALUE: _i.i2c_master_if.i2c_master_single_port.0.read:m <- [SP+48]
	stw r2, sp[11]                  # 4-byte Folded Spill
.Ltmp123:
	#DEBUG_VALUE: _i.i2c_master_if.i2c_master_single_port.0.read:buf <- [SP+44]
	stw r1, sp[13]                  # 4-byte Folded Spill
.Ltmp124:
	#DEBUG_VALUE: _i.i2c_master_if.i2c_master_single_port.0.read:device <- undef
	#DEBUG_VALUE: _i.i2c_master_if.i2c_master_single_port.0.read:device <- [SP+52]
	ldw r10, r0[0]
	stw r10, sp[15]                 # 4-byte Folded Spill
	ldw r7, r0[1]
.Ltmp125:
.LBB6_1:                                # %allocas
                                        # =>This Inner Loop Header: Depth=1
	ldw r0, r10[0]
	bf r0, .LBB6_1
# BB#2:                                 # %ifdone
.Ltmp126:
	#DEBUG_VALUE: _i.i2c_master_if.i2c_master_single_port.0.read:device <- undef
	#DEBUG_VALUE: _i.i2c_master_if.i2c_master_single_port.0.read:buf <- [SP+44]
	#DEBUG_VALUE: _i.i2c_master_if.i2c_master_single_port.0.read:m <- [SP+48]
	add r6, r10, 8
	mov r0, r6
	bl __lock_fair_acquire
	ldw r0, r10[7]
	eq r0, r0, 1
	bt r0, .LBB6_3
.Ltmp127:
# BB#14:                                # %lhsfalse
	#DEBUG_VALUE: _i.i2c_master_if.i2c_master_single_port.0.read:device <- undef
	#DEBUG_VALUE: _i.i2c_master_if.i2c_master_single_port.0.read:buf <- [SP+44]
	#DEBUG_VALUE: _i.i2c_master_if.i2c_master_single_port.0.read:m <- [SP+48]
	ldc r0, 64
	add r4, r10, r0
	ldw r0, r4[0]
	mkmsk r5, 32
	eq r1, r0, r5
	bt r1, .LBB6_3
.Ltmp128:
# BB#15:                                # %lhsfalse
	#DEBUG_VALUE: _i.i2c_master_if.i2c_master_single_port.0.read:device <- undef
	#DEBUG_VALUE: _i.i2c_master_if.i2c_master_single_port.0.read:buf <- [SP+44]
	#DEBUG_VALUE: _i.i2c_master_if.i2c_master_single_port.0.read:m <- [SP+48]
	eq r0, r7, r0
	bt r0, .LBB6_3
.Ltmp129:
# BB#16:                                # %lhsfalse53.thread
	#DEBUG_VALUE: _i.i2c_master_if.i2c_master_single_port.0.read:device <- undef
	#DEBUG_VALUE: _i.i2c_master_if.i2c_master_single_port.0.read:buf <- [SP+44]
	#DEBUG_VALUE: _i.i2c_master_if.i2c_master_single_port.0.read:m <- [SP+48]
	ldaw r8, r10[4]
.Ltmp130:
.LBB6_17:                               # %LoopBody77
                                        # =>This Inner Loop Header: Depth=1
	#DEBUG_VALUE: _i.i2c_master_if.i2c_master_single_port.0.read:device <- undef
	#DEBUG_VALUE: _i.i2c_master_if.i2c_master_single_port.0.read:buf <- [SP+44]
	#DEBUG_VALUE: _i.i2c_master_if.i2c_master_single_port.0.read:m <- [SP+48]
	ldw r9, r10[4]
	mov r0, r6
	bl __lock_fair_release
	mov r0, r8
	mov r1, r9
	bl __wait_until_gt
	mov r0, r6
	bl __lock_fair_acquire
	ldw r0, r10[7]
	eq r0, r0, 1
	bt r0, .LBB6_3
.Ltmp131:
# BB#18:                                # %lhsfalse94
                                        #   in Loop: Header=BB6_17 Depth=1
	#DEBUG_VALUE: _i.i2c_master_if.i2c_master_single_port.0.read:device <- undef
	#DEBUG_VALUE: _i.i2c_master_if.i2c_master_single_port.0.read:buf <- [SP+44]
	#DEBUG_VALUE: _i.i2c_master_if.i2c_master_single_port.0.read:m <- [SP+48]
	ldw r0, r4[0]
	eq r1, r0, r5
	bt r1, .LBB6_3
.Ltmp132:
# BB#19:                                # %lhsfalse94
                                        #   in Loop: Header=BB6_17 Depth=1
	#DEBUG_VALUE: _i.i2c_master_if.i2c_master_single_port.0.read:device <- undef
	#DEBUG_VALUE: _i.i2c_master_if.i2c_master_single_port.0.read:buf <- [SP+44]
	#DEBUG_VALUE: _i.i2c_master_if.i2c_master_single_port.0.read:m <- [SP+48]
	eq r0, r7, r0
	bf r0, .LBB6_17
.Ltmp133:
.LBB6_3:                                # %ifdone21
	#DEBUG_VALUE: _i.i2c_master_if.i2c_master_single_port.0.read:device <- undef
	#DEBUG_VALUE: _i.i2c_master_if.i2c_master_single_port.0.read:buf <- [SP+44]
	#DEBUG_VALUE: _i.i2c_master_if.i2c_master_single_port.0.read:m <- [SP+48]
	stw r7, sp[7]                   # 4-byte Folded Spill
	stw r6, sp[6]                   # 4-byte Folded Spill
	#DEBUG_VALUE: _i.i2c_master_if.i2c_master_single_port.0.read:send_stop_bit <- undef
	.loc	2 200 0 prologue_end    # C:/Users/user/workspace/lib_i2c/src/i2c_master_single_port.xc:200:0
.Ltmp134:
	ldw r0, r10[8]
	ldc r1, 52
	.loc	2 200 0                 # C:/Users/user/workspace/lib_i2c/src/i2c_master_single_port.xc:200:0
	add r5, r10, r1
	.loc	2 200 0                 # C:/Users/user/workspace/lib_i2c/src/i2c_master_single_port.xc:200:0
	stw r5, sp[16]                  # 4-byte Folded Spill
	ldw r1, r5[0]
	ldc r2, 60
	.loc	2 200 0                 # C:/Users/user/workspace/lib_i2c/src/i2c_master_single_port.xc:200:0
	add r7, r10, r2
	.loc	2 200 0                 # C:/Users/user/workspace/lib_i2c/src/i2c_master_single_port.xc:200:0
	stw r7, sp[14]                  # 4-byte Folded Spill
	ldw r2, r7[0]
	ldc r3, 56
	.loc	2 200 0                 # C:/Users/user/workspace/lib_i2c/src/i2c_master_single_port.xc:200:0
	add r4, r10, r3
	.loc	2 200 0                 # C:/Users/user/workspace/lib_i2c/src/i2c_master_single_port.xc:200:0
	ldw r3, r4[0]
	ldc r11, 48
	.loc	2 200 0                 # C:/Users/user/workspace/lib_i2c/src/i2c_master_single_port.xc:200:0
	add r6, r10, r11
	.loc	2 200 0                 # C:/Users/user/workspace/lib_i2c/src/i2c_master_single_port.xc:200:0
	ldw r11, r6[0]
	.loc	2 200 0                 # C:/Users/user/workspace/lib_i2c/src/i2c_master_single_port.xc:200:0
	stw r11, sp[1]
.Lxta.call_labels11:
	bl start_bit
.Ltmp135:
	#DEBUG_VALUE: fall_time <- R0
	.loc	2 200 0                 # C:/Users/user/workspace/lib_i2c/src/i2c_master_single_port.xc:200:0
	stw r0, sp[17]
	.loc	2 202 0                 # C:/Users/user/workspace/lib_i2c/src/i2c_master_single_port.xc:202:0
	ldw r0, r10[8]
.Ltmp136:
	.loc	2 202 0                 # C:/Users/user/workspace/lib_i2c/src/i2c_master_single_port.xc:202:0
	ldw r1, sp[13]                  # 4-byte Folded Reload
	shl r1, r1, 1
	mkmsk r2, 1
	.loc	2 202 0                 # C:/Users/user/workspace/lib_i2c/src/i2c_master_single_port.xc:202:0
	or r1, r1, r2
	.loc	2 202 0                 # C:/Users/user/workspace/lib_i2c/src/i2c_master_single_port.xc:202:0
	ldw r2, r5[0]
	.loc	2 202 0                 # C:/Users/user/workspace/lib_i2c/src/i2c_master_single_port.xc:202:0
	ldw r3, r7[0]
	.loc	2 202 0                 # C:/Users/user/workspace/lib_i2c/src/i2c_master_single_port.xc:202:0
	ldw r11, r4[0]
	.loc	2 202 0                 # C:/Users/user/workspace/lib_i2c/src/i2c_master_single_port.xc:202:0
	ldw r7, r6[0]
	ldaw r8, sp[17]
.Ltmp137:
	#DEBUG_VALUE: fall_time <- [R8+0]
	.loc	2 202 0                 # C:/Users/user/workspace/lib_i2c/src/i2c_master_single_port.xc:202:0
	std r8, r7, sp[1]
	stw r11, sp[1]
.Lxta.call_labels12:
	bl tx8
.Ltmp138:
	#DEBUG_VALUE: ack <- R0
	.loc	2 204 7                 # C:/Users/user/workspace/lib_i2c/src/i2c_master_single_port.xc:204:7
	eq r0, r0, 0
.Ltmp139:
	#DEBUG_VALUE: j <- 0
	.loc	2 204 7                 # C:/Users/user/workspace/lib_i2c/src/i2c_master_single_port.xc:204:7
	stw r0, sp[8]                   # 4-byte Folded Spill
	ldw r0, sp[12]                  # 4-byte Folded Reload
	bf r0, .LBB6_11
.Ltmp140:
# BB#4:                                 # %ifdone21
	#DEBUG_VALUE: _i.i2c_master_if.i2c_master_single_port.0.read:device <- undef
	#DEBUG_VALUE: _i.i2c_master_if.i2c_master_single_port.0.read:buf <- [SP+44]
	#DEBUG_VALUE: _i.i2c_master_if.i2c_master_single_port.0.read:m <- [SP+48]
	#DEBUG_VALUE: _i.i2c_master_if.i2c_master_single_port.0.read:send_stop_bit <- undef
	#DEBUG_VALUE: fall_time <- [R8+0]
	.loc	2 204 7                 # C:/Users/user/workspace/lib_i2c/src/i2c_master_single_port.xc:204:7
	ldw r0, sp[8]                   # 4-byte Folded Reload
	eq r0, r0, 0
	bt r0, .LBB6_11
.Ltmp141:
# BB#5:                                 # %LoopBody145.preheader
	#DEBUG_VALUE: _i.i2c_master_if.i2c_master_single_port.0.read:device <- undef
	#DEBUG_VALUE: _i.i2c_master_if.i2c_master_single_port.0.read:buf <- [SP+44]
	#DEBUG_VALUE: _i.i2c_master_if.i2c_master_single_port.0.read:m <- [SP+48]
	#DEBUG_VALUE: _i.i2c_master_if.i2c_master_single_port.0.read:send_stop_bit <- undef
	#DEBUG_VALUE: fall_time <- [R8+0]
	.loc	2 216 0                 # C:/Users/user/workspace/lib_i2c/src/i2c_master_single_port.xc:216:0
	get r11, id
	.loc	2 216 0                 # C:/Users/user/workspace/lib_i2c/src/i2c_master_single_port.xc:216:0
	ldaw r0, dp[__timers]
	.loc	2 216 0                 # C:/Users/user/workspace/lib_i2c/src/i2c_master_single_port.xc:216:0
	ldw r0, r0[r11]
	.loc	2 218 11                # C:/Users/user/workspace/lib_i2c/src/i2c_master_single_port.xc:218:11
.Ltmp142:
	stw r0, sp[10]                  # 4-byte Folded Spill
	ldw r0, sp[12]                  # 4-byte Folded Reload
	sub r0, r0, 1
	stw r0, sp[9]                   # 4-byte Folded Spill
	ldc r0, 0
	stw r0, sp[13]                  # 4-byte Folded Spill
.Ltmp143:
.LBB6_6:                                # %LoopBody145
                                        # =>This Loop Header: Depth=1
                                        #     Child Loop BB6_7 Depth 2
.Lxtalabel14:
	#DEBUG_VALUE: _i.i2c_master_if.i2c_master_single_port.0.read:device <- undef
	#DEBUG_VALUE: _i.i2c_master_if.i2c_master_single_port.0.read:buf <- [SP+44]
	#DEBUG_VALUE: _i.i2c_master_if.i2c_master_single_port.0.read:m <- [SP+48]
	#DEBUG_VALUE: _i.i2c_master_if.i2c_master_single_port.0.read:send_stop_bit <- undef
	#DEBUG_VALUE: data <- 0
	#DEBUG_VALUE: i <- 8
	mov r5, r8
	ldw r8, cp[.LCPI6_0]
	ldc r10, 0
	ldw r9, sp[14]                  # 4-byte Folded Reload
	ldc r7, 510
.Ltmp144:
.LBB6_7:                                # %LoopBody154
                                        #   Parent Loop BB6_6 Depth=1
                                        # =>  This Inner Loop Header: Depth=2
.Lxtalabel15:
	#DEBUG_VALUE: _i.i2c_master_if.i2c_master_single_port.0.read:device <- undef
	#DEBUG_VALUE: _i.i2c_master_if.i2c_master_single_port.0.read:buf <- [SP+44]
	#DEBUG_VALUE: _i.i2c_master_if.i2c_master_single_port.0.read:m <- [SP+48]
	#DEBUG_VALUE: _i.i2c_master_if.i2c_master_single_port.0.read:send_stop_bit <- undef
	#DEBUG_VALUE: data <- 0
	#DEBUG_VALUE: i <- 8
	.loc	2 209 0                 # C:/Users/user/workspace/lib_i2c/src/i2c_master_single_port.xc:209:0
	ldw r0, sp[15]                  # 4-byte Folded Reload
	ldw r0, r0[8]
	.loc	2 209 0                 # C:/Users/user/workspace/lib_i2c/src/i2c_master_single_port.xc:209:0
	ldw r1, sp[16]                  # 4-byte Folded Reload
	ldw r1, r1[0]
	.loc	2 209 0                 # C:/Users/user/workspace/lib_i2c/src/i2c_master_single_port.xc:209:0
	ldw r2, r9[0]
	.loc	2 209 0                 # C:/Users/user/workspace/lib_i2c/src/i2c_master_single_port.xc:209:0
	ldw r3, r4[0]
	.loc	2 209 0                 # C:/Users/user/workspace/lib_i2c/src/i2c_master_single_port.xc:209:0
	ldw r11, r6[0]
.Ltmp145:
	#DEBUG_VALUE: fall_time <- [R5+0]
	.loc	2 209 0                 # C:/Users/user/workspace/lib_i2c/src/i2c_master_single_port.xc:209:0
	stw r5, sp[2]
	stw r11, sp[1]
.Lxta.call_labels13:
	bl high_pulse_sample
.Ltmp146:
	#DEBUG_VALUE: temp <- R0
	.loc	2 212 0                 # C:/Users/user/workspace/lib_i2c/src/i2c_master_single_port.xc:212:0
	shl r1, r10, 1
	.loc	2 212 0                 # C:/Users/user/workspace/lib_i2c/src/i2c_master_single_port.xc:212:0
	and r1, r1, r7
	.loc	2 212 0                 # C:/Users/user/workspace/lib_i2c/src/i2c_master_single_port.xc:212:0
	or r10, r0, r1
.Ltmp147:
	.loc	2 208 0                 # C:/Users/user/workspace/lib_i2c/src/i2c_master_single_port.xc:208:0
	add r8, r8, 1
.xtaloop 8
	# LOOPMARKER 1
.Lxta.loop_labels3:
	# LOOPMARKER 0
	bt r8, .LBB6_7
.Ltmp148:
# BB#8:                                 # %afterboundcheck
                                        #   in Loop: Header=BB6_6 Depth=1
.Lxtalabel16:
	#DEBUG_VALUE: _i.i2c_master_if.i2c_master_single_port.0.read:device <- undef
	#DEBUG_VALUE: _i.i2c_master_if.i2c_master_single_port.0.read:buf <- [SP+44]
	#DEBUG_VALUE: _i.i2c_master_if.i2c_master_single_port.0.read:m <- [SP+48]
	#DEBUG_VALUE: _i.i2c_master_if.i2c_master_single_port.0.read:send_stop_bit <- undef
	#DEBUG_VALUE: fall_time <- [R5+0]
	#DEBUG_VALUE: data <- 0
	mov r7, r5
.Ltmp149:
	#DEBUG_VALUE: fall_time <- [R7+0]
	.loc	2 214 0                 # C:/Users/user/workspace/lib_i2c/src/i2c_master_single_port.xc:214:0
	ldw r0, sp[11]                  # 4-byte Folded Reload
	ldw r11, sp[13]                 # 4-byte Folded Reload
	st8 r10, r0[r11]
	.loc	2 216 0                 # C:/Users/user/workspace/lib_i2c/src/i2c_master_single_port.xc:216:0
	ldw r3, sp[17]
	.loc	2 216 0                 # C:/Users/user/workspace/lib_i2c/src/i2c_master_single_port.xc:216:0
	ldw r0, sp[16]                  # 4-byte Folded Reload
	ldw r2, r0[0]
	.loc	2 216 0                 # C:/Users/user/workspace/lib_i2c/src/i2c_master_single_port.xc:216:0
	shr r0, r2, 2
	.loc	2 216 0                 # C:/Users/user/workspace/lib_i2c/src/i2c_master_single_port.xc:216:0
	add r0, r0, r3
	ldw r1, sp[10]                  # 4-byte Folded Reload
	.loc	2 216 0                 # C:/Users/user/workspace/lib_i2c/src/i2c_master_single_port.xc:216:0
	setd res[r1], r0
	.loc	2 216 0                 # C:/Users/user/workspace/lib_i2c/src/i2c_master_single_port.xc:216:0
	setc res[r1], 9
	.loc	2 216 0                 # C:/Users/user/workspace/lib_i2c/src/i2c_master_single_port.xc:216:0
.Ltmp150:
.Lxta.endpoint_labels4:
	in r0, res[r1]
	mov r10, r1
	ldw r8, sp[15]                  # 4-byte Folded Reload
	.loc	2 219 59                # C:/Users/user/workspace/lib_i2c/src/i2c_master_single_port.xc:219:59
	ldw r0, r8[8]
	.loc	2 218 11                # C:/Users/user/workspace/lib_i2c/src/i2c_master_single_port.xc:218:11
	ldw r1, sp[9]                   # 4-byte Folded Reload
	eq r1, r11, r1
	mov r5, r11
	mov r9, r8
	bf r1, .LBB6_20
.Ltmp151:
# BB#9:                                 # %iftrue184
                                        #   in Loop: Header=BB6_6 Depth=1
.Lxtalabel17:
	#DEBUG_VALUE: _i.i2c_master_if.i2c_master_single_port.0.read:device <- undef
	#DEBUG_VALUE: _i.i2c_master_if.i2c_master_single_port.0.read:buf <- [SP+44]
	#DEBUG_VALUE: _i.i2c_master_if.i2c_master_single_port.0.read:m <- [SP+48]
	#DEBUG_VALUE: _i.i2c_master_if.i2c_master_single_port.0.read:send_stop_bit <- undef
	#DEBUG_VALUE: fall_time <- [R7+0]
	#DEBUG_VALUE: data <- 0
	.loc	2 219 59                # C:/Users/user/workspace/lib_i2c/src/i2c_master_single_port.xc:219:59
	ldw r11, r4[0]
	.loc	2 219 59                # C:/Users/user/workspace/lib_i2c/src/i2c_master_single_port.xc:219:59
	ldw r1, sp[14]                  # 4-byte Folded Reload
	ldw r1, r1[0]
	.loc	2 219 59                # C:/Users/user/workspace/lib_i2c/src/i2c_master_single_port.xc:219:59
	or r11, r1, r11
	.loc	2 219 59                # C:/Users/user/workspace/lib_i2c/src/i2c_master_single_port.xc:219:59
	ldw r8, r6[0]
	.loc	2 219 59                # C:/Users/user/workspace/lib_i2c/src/i2c_master_single_port.xc:219:59
	or r11, r11, r8
	bu .LBB6_10
.Ltmp152:
.LBB6_20:                               # %iffalse192
                                        #   in Loop: Header=BB6_6 Depth=1
.Lxtalabel18:
	#DEBUG_VALUE: _i.i2c_master_if.i2c_master_single_port.0.read:device <- undef
	#DEBUG_VALUE: _i.i2c_master_if.i2c_master_single_port.0.read:buf <- [SP+44]
	#DEBUG_VALUE: _i.i2c_master_if.i2c_master_single_port.0.read:m <- [SP+48]
	#DEBUG_VALUE: _i.i2c_master_if.i2c_master_single_port.0.read:send_stop_bit <- undef
	#DEBUG_VALUE: fall_time <- [R7+0]
	#DEBUG_VALUE: data <- 0
	.loc	2 221 48                # C:/Users/user/workspace/lib_i2c/src/i2c_master_single_port.xc:221:48
	ldw r1, sp[14]                  # 4-byte Folded Reload
	ldw r1, r1[0]
	.loc	2 221 48                # C:/Users/user/workspace/lib_i2c/src/i2c_master_single_port.xc:221:48
	ldw r11, r6[0]
	.loc	2 221 48                # C:/Users/user/workspace/lib_i2c/src/i2c_master_single_port.xc:221:48
	or r11, r11, r1
.Ltmp153:
.LBB6_10:                               # %ifdone185
                                        #   in Loop: Header=BB6_6 Depth=1
.Lxtalabel19:
	.loc	2 219 59                # C:/Users/user/workspace/lib_i2c/src/i2c_master_single_port.xc:219:59
.Lxta.endpoint_labels5:
	out res[r0], r11
	mov r8, r7
.Ltmp154:
	#DEBUG_VALUE: fall_time <- [R8+0]
	#DEBUG_VALUE: _i.i2c_master_if.i2c_master_single_port.0.read:device <- undef
	#DEBUG_VALUE: _i.i2c_master_if.i2c_master_single_port.0.read:buf <- [SP+44]
	#DEBUG_VALUE: _i.i2c_master_if.i2c_master_single_port.0.read:m <- [SP+48]
	#DEBUG_VALUE: _i.i2c_master_if.i2c_master_single_port.0.read:send_stop_bit <- undef
	#DEBUG_VALUE: fall_time <- [R8+0]
	#DEBUG_VALUE: data <- 0
	.loc	2 225 0                 # C:/Users/user/workspace/lib_i2c/src/i2c_master_single_port.xc:225:0
	shr r11, r2, 1
	.loc	2 225 0                 # C:/Users/user/workspace/lib_i2c/src/i2c_master_single_port.xc:225:0
	add r3, r11, r3
	.loc	2 225 0                 # C:/Users/user/workspace/lib_i2c/src/i2c_master_single_port.xc:225:0
	shr r11, r2, 5
	.loc	2 225 0                 # C:/Users/user/workspace/lib_i2c/src/i2c_master_single_port.xc:225:0
	add r3, r3, r11
	.loc	2 225 0                 # C:/Users/user/workspace/lib_i2c/src/i2c_master_single_port.xc:225:0
	setd res[r10], r3
	.loc	2 225 0                 # C:/Users/user/workspace/lib_i2c/src/i2c_master_single_port.xc:225:0
	setc res[r10], 9
	.loc	2 225 0                 # C:/Users/user/workspace/lib_i2c/src/i2c_master_single_port.xc:225:0
.Ltmp155:
.Lxta.endpoint_labels6:
	in r3, res[r10]
	.loc	2 226 0                 # C:/Users/user/workspace/lib_i2c/src/i2c_master_single_port.xc:226:0
	add r3, r2, 1
	.loc	2 226 0                 # C:/Users/user/workspace/lib_i2c/src/i2c_master_single_port.xc:226:0
	mov r2, r8
.Lxta.call_labels14:
	bl wait_for_clock_high
	mov r10, r9
	.loc	2 227 46                # C:/Users/user/workspace/lib_i2c/src/i2c_master_single_port.xc:227:46
	ldw r0, r10[8]
	.loc	2 227 46                # C:/Users/user/workspace/lib_i2c/src/i2c_master_single_port.xc:227:46
	ldw r1, r4[0]
	.loc	2 227 46                # C:/Users/user/workspace/lib_i2c/src/i2c_master_single_port.xc:227:46
	ldw r2, r6[0]
	.loc	2 227 46                # C:/Users/user/workspace/lib_i2c/src/i2c_master_single_port.xc:227:46
	or r1, r2, r1
	.loc	2 227 46                # C:/Users/user/workspace/lib_i2c/src/i2c_master_single_port.xc:227:46
.Lxta.endpoint_labels7:
	out res[r0], r1
	.loc	2 228 0                 # C:/Users/user/workspace/lib_i2c/src/i2c_master_single_port.xc:228:0
	ldw r0, sp[17]
	.loc	2 228 0                 # C:/Users/user/workspace/lib_i2c/src/i2c_master_single_port.xc:228:0
	ldw r1, sp[16]                  # 4-byte Folded Reload
	ldw r1, r1[0]
	.loc	2 228 0                 # C:/Users/user/workspace/lib_i2c/src/i2c_master_single_port.xc:228:0
	add r0, r1, r0
.Ltmp156:
	#DEBUG_VALUE: fall_time <- R0
	.loc	2 228 0                 # C:/Users/user/workspace/lib_i2c/src/i2c_master_single_port.xc:228:0
	stw r0, sp[17]
.Ltmp157:
	.loc	2 205 0                 # C:/Users/user/workspace/lib_i2c/src/i2c_master_single_port.xc:205:0
	add r5, r5, 1
.Ltmp158:
	#DEBUG_VALUE: j <- R5
	.loc	2 205 0                 # C:/Users/user/workspace/lib_i2c/src/i2c_master_single_port.xc:205:0
	stw r5, sp[13]                  # 4-byte Folded Spill
	ldw r0, sp[12]                  # 4-byte Folded Reload
.Ltmp159:
	lsu r0, r5, r0
.Ltmp160:
	#DEBUG_VALUE: j <- [SP+52]
.Lxta.loop_labels4:
	# LOOPMARKER 2
	bt r0, .LBB6_6
.Ltmp161:
.LBB6_11:                               # %ifdone135
.Lxtalabel20:
	#DEBUG_VALUE: _i.i2c_master_if.i2c_master_single_port.0.read:device <- undef
	#DEBUG_VALUE: _i.i2c_master_if.i2c_master_single_port.0.read:send_stop_bit <- undef
	ldw r0, sp[27]
	bf r0, .LBB6_13
# BB#12:                                # %iftrue246
.Lxtalabel21:
	#DEBUG_VALUE: _i.i2c_master_if.i2c_master_single_port.0.read:device <- undef
	.loc	2 232 0                 # C:/Users/user/workspace/lib_i2c/src/i2c_master_single_port.xc:232:0
	ldw r0, r10[8]
	.loc	2 232 0                 # C:/Users/user/workspace/lib_i2c/src/i2c_master_single_port.xc:232:0
	ldw r1, sp[16]                  # 4-byte Folded Reload
	ldw r1, r1[0]
	.loc	2 232 0                 # C:/Users/user/workspace/lib_i2c/src/i2c_master_single_port.xc:232:0
	ldw r2, sp[14]                  # 4-byte Folded Reload
	ldw r2, r2[0]
	.loc	2 232 0                 # C:/Users/user/workspace/lib_i2c/src/i2c_master_single_port.xc:232:0
	ldw r3, r4[0]
	.loc	2 232 0                 # C:/Users/user/workspace/lib_i2c/src/i2c_master_single_port.xc:232:0
	ldw r11, r6[0]
	.loc	2 232 0                 # C:/Users/user/workspace/lib_i2c/src/i2c_master_single_port.xc:232:0
	ldw r4, sp[17]
	.loc	2 232 0                 # C:/Users/user/workspace/lib_i2c/src/i2c_master_single_port.xc:232:0
	stw r4, sp[2]
	stw r11, sp[1]
.Lxta.call_labels15:
	bl stop_bit
	mkmsk r0, 32
	stw r0, sp[7]                   # 4-byte Folded Spill
.LBB6_13:                               # %ifdone247
.Lxtalabel22:
	#DEBUG_VALUE: _i.i2c_master_if.i2c_master_single_port.0.read:device <- undef
	ldc r0, 64
	.loc	2 237 0                 # C:/Users/user/workspace/lib_i2c/src/i2c_master_single_port.xc:237:0
	add r0, r10, r0
	ldw r1, sp[7]                   # 4-byte Folded Reload
	stw r1, r0[0]
	clre
	ldw r0, sp[6]                   # 4-byte Folded Reload
	bl __lock_fair_release
	ldw r0, r10[4]
	add r0, r0, 1
	stw r0, r10[4]
	ldw r0, sp[8]                   # 4-byte Folded Reload
	ldw r10, sp[24]                 # 4-byte Folded Reload
	ldd r9, r8, sp[11]              # 4-byte Folded Reload
	ldd r7, r6, sp[10]              # 4-byte Folded Reload
	ldd r5, r4, sp[9]               # 4-byte Folded Reload
	retsp 26
	# RETURN_REG_HOLDER
.Ltmp162:
	.cc_bottom _i.i2c_master_if.i2c_master_single_port.0.read.function
	.set	_i.i2c_master_if.i2c_master_single_port.0.read.nstackwords,((start_bit.nstackwords $M tx8.nstackwords $M stop_bit.nstackwords $M high_pulse_sample.nstackwords $M wait_for_clock_high.nstackwords $M __lock_fair_release.nstackwords $M __wait_until_gt.nstackwords $M __lock_fair_acquire.nstackwords) + 26)
	.globl	_i.i2c_master_if.i2c_master_single_port.0.read.nstackwords
	.set	_i.i2c_master_if.i2c_master_single_port.0.read.maxcores,__lock_fair_acquire.maxcores $M __lock_fair_release.maxcores $M __wait_until_gt.maxcores $M high_pulse_sample.maxcores $M start_bit.maxcores $M stop_bit.maxcores $M tx8.maxcores $M wait_for_clock_high.maxcores $M 1
	.globl	_i.i2c_master_if.i2c_master_single_port.0.read.maxcores
	.set	_i.i2c_master_if.i2c_master_single_port.0.read.maxtimers,__lock_fair_acquire.maxtimers $M __lock_fair_release.maxtimers $M __wait_until_gt.maxtimers $M high_pulse_sample.maxtimers $M start_bit.maxtimers $M stop_bit.maxtimers $M tx8.maxtimers $M wait_for_clock_high.maxtimers $M 0
	.globl	_i.i2c_master_if.i2c_master_single_port.0.read.maxtimers
	.set	_i.i2c_master_if.i2c_master_single_port.0.read.maxchanends,__lock_fair_acquire.maxchanends $M __lock_fair_release.maxchanends $M __wait_until_gt.maxchanends $M high_pulse_sample.maxchanends $M start_bit.maxchanends $M stop_bit.maxchanends $M tx8.maxchanends $M wait_for_clock_high.maxchanends $M 0
	.globl	_i.i2c_master_if.i2c_master_single_port.0.read.maxchanends
.Ltmp163:
	.size	_i.i2c_master_if.i2c_master_single_port.0.read, .Ltmp163-_i.i2c_master_if.i2c_master_single_port.0.read
.Lfunc_end6:
	.cfi_endproc

	.globl	_i.i2c_master_if.i2c_master_single_port.0.write
	.align	4
	.type	_i.i2c_master_if.i2c_master_single_port.0.write,@function
	.cc_top _i.i2c_master_if.i2c_master_single_port.0.write.function,_i.i2c_master_if.i2c_master_single_port.0.write
_i.i2c_master_if.i2c_master_single_port.0.write: # @_i.i2c_master_if.i2c_master_single_port.0.write
.Lfunc_begin7:
	.loc	2 242 0                 # C:/Users/user/workspace/lib_i2c/src/i2c_master_single_port.xc:242:0
	.cfi_startproc
	.issue_mode single
# BB#0:                                 # %allocas
	ENTSP_lu6 18
.Ltmp164:
	.cfi_def_cfa_offset 72
.Ltmp165:
	.cfi_offset 15, 0
	std r5, r4, sp[5]               # 4-byte Folded Spill
.Ltmp166:
	.cfi_offset 4, -32
.Ltmp167:
	.cfi_offset 5, -28
	std r7, r6, sp[6]               # 4-byte Folded Spill
.Ltmp168:
	.cfi_offset 6, -24
.Ltmp169:
	.cfi_offset 7, -20
	std r9, r8, sp[7]               # 4-byte Folded Spill
.Ltmp170:
	.cfi_offset 8, -16
.Ltmp171:
	.cfi_offset 9, -12
	stw r10, sp[16]                 # 4-byte Folded Spill
.Ltmp172:
	.cfi_offset 10, -8
	#DEBUG_VALUE: _i.i2c_master_if.i2c_master_single_port.0.write:p <- R0
	#DEBUG_VALUE: _i.i2c_master_if.i2c_master_single_port.0.write:device <- R1
	#DEBUG_VALUE: _i.i2c_master_if.i2c_master_single_port.0.write:buf <- R2
	#DEBUG_VALUE: _i.i2c_master_if.i2c_master_single_port.0.write:n <- R3
	stw r3, sp[8]                   # 4-byte Folded Spill
.Ltmp173:
	#DEBUG_VALUE: _i.i2c_master_if.i2c_master_single_port.0.write:n <- [SP+32]
	stw r2, sp[6]                   # 4-byte Folded Spill
.Ltmp174:
	#DEBUG_VALUE: _i.i2c_master_if.i2c_master_single_port.0.write:buf <- [SP+24]
	mov r7, r1
.Ltmp175:
	#DEBUG_VALUE: _i.i2c_master_if.i2c_master_single_port.0.write:device <- undef
	#DEBUG_VALUE: _i.i2c_master_if.i2c_master_single_port.0.write:device <- R7
	ldw r10, r0[0]
	ldw r0, r0[1]
.Ltmp176:
	stw r0, sp[5]                   # 4-byte Folded Spill
.Ltmp177:
.LBB7_1:                                # %allocas
                                        # =>This Inner Loop Header: Depth=1
	ldw r0, r10[0]
	bf r0, .LBB7_1
# BB#2:                                 # %ifdone
.Ltmp178:
	#DEBUG_VALUE: _i.i2c_master_if.i2c_master_single_port.0.write:device <- undef
	#DEBUG_VALUE: _i.i2c_master_if.i2c_master_single_port.0.write:buf <- [SP+24]
	#DEBUG_VALUE: _i.i2c_master_if.i2c_master_single_port.0.write:n <- [SP+32]
	add r6, r10, 8
	mov r0, r6
	bl __lock_fair_acquire
	ldw r0, r10[7]
	eq r0, r0, 1
	bt r0, .LBB7_3
.Ltmp179:
# BB#9:                                 # %lhsfalse
	#DEBUG_VALUE: _i.i2c_master_if.i2c_master_single_port.0.write:device <- undef
	#DEBUG_VALUE: _i.i2c_master_if.i2c_master_single_port.0.write:buf <- [SP+24]
	#DEBUG_VALUE: _i.i2c_master_if.i2c_master_single_port.0.write:n <- [SP+32]
	ldc r0, 64
	add r4, r10, r0
	ldw r0, r4[0]
	mkmsk r5, 32
	eq r1, r0, r5
	bt r1, .LBB7_3
.Ltmp180:
# BB#10:                                # %lhsfalse
	#DEBUG_VALUE: _i.i2c_master_if.i2c_master_single_port.0.write:device <- undef
	#DEBUG_VALUE: _i.i2c_master_if.i2c_master_single_port.0.write:buf <- [SP+24]
	#DEBUG_VALUE: _i.i2c_master_if.i2c_master_single_port.0.write:n <- [SP+32]
	ldw r1, sp[5]                   # 4-byte Folded Reload
	eq r0, r1, r0
	bt r0, .LBB7_3
.Ltmp181:
# BB#11:                                # %lhsfalse53.thread
	#DEBUG_VALUE: _i.i2c_master_if.i2c_master_single_port.0.write:device <- undef
	#DEBUG_VALUE: _i.i2c_master_if.i2c_master_single_port.0.write:buf <- [SP+24]
	#DEBUG_VALUE: _i.i2c_master_if.i2c_master_single_port.0.write:n <- [SP+32]
	ldaw r8, r10[4]
.Ltmp182:
.LBB7_12:                               # %LoopBody77
                                        # =>This Inner Loop Header: Depth=1
	#DEBUG_VALUE: _i.i2c_master_if.i2c_master_single_port.0.write:device <- undef
	#DEBUG_VALUE: _i.i2c_master_if.i2c_master_single_port.0.write:buf <- [SP+24]
	#DEBUG_VALUE: _i.i2c_master_if.i2c_master_single_port.0.write:n <- [SP+32]
	ldw r9, r10[4]
	mov r0, r6
	bl __lock_fair_release
	mov r0, r8
	mov r1, r9
	bl __wait_until_gt
	mov r0, r6
	bl __lock_fair_acquire
	ldw r0, r10[7]
	eq r0, r0, 1
	bt r0, .LBB7_3
.Ltmp183:
# BB#13:                                # %lhsfalse94
                                        #   in Loop: Header=BB7_12 Depth=1
	#DEBUG_VALUE: _i.i2c_master_if.i2c_master_single_port.0.write:device <- undef
	#DEBUG_VALUE: _i.i2c_master_if.i2c_master_single_port.0.write:buf <- [SP+24]
	#DEBUG_VALUE: _i.i2c_master_if.i2c_master_single_port.0.write:n <- [SP+32]
	ldw r0, r4[0]
	eq r1, r0, r5
	bt r1, .LBB7_3
.Ltmp184:
# BB#14:                                # %lhsfalse94
                                        #   in Loop: Header=BB7_12 Depth=1
	#DEBUG_VALUE: _i.i2c_master_if.i2c_master_single_port.0.write:device <- undef
	#DEBUG_VALUE: _i.i2c_master_if.i2c_master_single_port.0.write:buf <- [SP+24]
	#DEBUG_VALUE: _i.i2c_master_if.i2c_master_single_port.0.write:n <- [SP+32]
	ldw r1, sp[5]                   # 4-byte Folded Reload
	eq r0, r1, r0
	bf r0, .LBB7_12
.Ltmp185:
.LBB7_3:                                # %ifdone21
	#DEBUG_VALUE: _i.i2c_master_if.i2c_master_single_port.0.write:device <- undef
	#DEBUG_VALUE: _i.i2c_master_if.i2c_master_single_port.0.write:buf <- [SP+24]
	#DEBUG_VALUE: _i.i2c_master_if.i2c_master_single_port.0.write:n <- [SP+32]
	stw r6, sp[4]                   # 4-byte Folded Spill
.Ltmp186:
	#DEBUG_VALUE: ack <- 0
	#DEBUG_VALUE: _i.i2c_master_if.i2c_master_single_port.0.write:send_stop_bit <- undef
	.loc	2 249 0 prologue_end    # C:/Users/user/workspace/lib_i2c/src/i2c_master_single_port.xc:249:0
	ldw r0, r10[8]
	ldc r1, 52
	.loc	2 249 0                 # C:/Users/user/workspace/lib_i2c/src/i2c_master_single_port.xc:249:0
	add r9, r10, r1
	.loc	2 249 0                 # C:/Users/user/workspace/lib_i2c/src/i2c_master_single_port.xc:249:0
	ldw r1, r9[0]
	ldc r2, 60
	.loc	2 249 0                 # C:/Users/user/workspace/lib_i2c/src/i2c_master_single_port.xc:249:0
	add r4, r10, r2
	.loc	2 249 0                 # C:/Users/user/workspace/lib_i2c/src/i2c_master_single_port.xc:249:0
	ldw r2, r4[0]
	ldc r3, 56
	.loc	2 249 0                 # C:/Users/user/workspace/lib_i2c/src/i2c_master_single_port.xc:249:0
	add r6, r10, r3
	.loc	2 249 0                 # C:/Users/user/workspace/lib_i2c/src/i2c_master_single_port.xc:249:0
	ldw r3, r6[0]
	ldc r11, 48
	.loc	2 249 0                 # C:/Users/user/workspace/lib_i2c/src/i2c_master_single_port.xc:249:0
	add r5, r10, r11
	.loc	2 249 0                 # C:/Users/user/workspace/lib_i2c/src/i2c_master_single_port.xc:249:0
	stw r5, sp[7]                   # 4-byte Folded Spill
	ldw r11, r5[0]
	.loc	2 249 0                 # C:/Users/user/workspace/lib_i2c/src/i2c_master_single_port.xc:249:0
	stw r11, sp[1]
.Lxta.call_labels16:
	bl start_bit
.Ltmp187:
	#DEBUG_VALUE: fall_time <- R0
	.loc	2 249 0                 # C:/Users/user/workspace/lib_i2c/src/i2c_master_single_port.xc:249:0
	stw r0, sp[9]
	.loc	2 252 0                 # C:/Users/user/workspace/lib_i2c/src/i2c_master_single_port.xc:252:0
	ldw r0, r10[8]
.Ltmp188:
	.loc	2 252 0                 # C:/Users/user/workspace/lib_i2c/src/i2c_master_single_port.xc:252:0
	shl r1, r7, 1
	.loc	2 252 0                 # C:/Users/user/workspace/lib_i2c/src/i2c_master_single_port.xc:252:0
	ldw r2, r9[0]
	.loc	2 252 0                 # C:/Users/user/workspace/lib_i2c/src/i2c_master_single_port.xc:252:0
	ldw r3, r4[0]
	.loc	2 252 0                 # C:/Users/user/workspace/lib_i2c/src/i2c_master_single_port.xc:252:0
	ldw r11, r6[0]
	.loc	2 252 0                 # C:/Users/user/workspace/lib_i2c/src/i2c_master_single_port.xc:252:0
	ldw r5, r5[0]
	ldaw r8, sp[9]
.Ltmp189:
	#DEBUG_VALUE: fall_time <- [R8+0]
	.loc	2 252 0                 # C:/Users/user/workspace/lib_i2c/src/i2c_master_single_port.xc:252:0
	std r8, r5, sp[1]
	stw r11, sp[1]
.Lxta.call_labels17:
	bl tx8
	mov r7, r0
.Ltmp190:
	#DEBUG_VALUE: j <- 0
	#DEBUG_VALUE: ack <- R7
	ldc r5, 0
	.loc	2 255 0                 # C:/Users/user/workspace/lib_i2c/src/i2c_master_single_port.xc:255:0
.Ltmp191:
	ldw r0, sp[8]                   # 4-byte Folded Reload
	bf r0, .LBB7_6
.Ltmp192:
.LBB7_4:                                # %LoopBody139
                                        # =>This Inner Loop Header: Depth=1
.Lxtalabel23:
	#DEBUG_VALUE: _i.i2c_master_if.i2c_master_single_port.0.write:device <- undef
	#DEBUG_VALUE: _i.i2c_master_if.i2c_master_single_port.0.write:buf <- [SP+24]
	#DEBUG_VALUE: _i.i2c_master_if.i2c_master_single_port.0.write:n <- [SP+32]
	#DEBUG_VALUE: _i.i2c_master_if.i2c_master_single_port.0.write:send_stop_bit <- undef
	bt r7, .LBB7_6
.Ltmp193:
# BB#5:                                 # %afterboundcheck
                                        #   in Loop: Header=BB7_4 Depth=1
.Lxtalabel24:
	#DEBUG_VALUE: _i.i2c_master_if.i2c_master_single_port.0.write:device <- undef
	#DEBUG_VALUE: _i.i2c_master_if.i2c_master_single_port.0.write:buf <- [SP+24]
	#DEBUG_VALUE: _i.i2c_master_if.i2c_master_single_port.0.write:n <- [SP+32]
	#DEBUG_VALUE: _i.i2c_master_if.i2c_master_single_port.0.write:send_stop_bit <- undef
	.loc	2 260 0                 # C:/Users/user/workspace/lib_i2c/src/i2c_master_single_port.xc:260:0
	ldw r0, r10[8]
	.loc	2 260 0                 # C:/Users/user/workspace/lib_i2c/src/i2c_master_single_port.xc:260:0
	ldw r1, sp[6]                   # 4-byte Folded Reload
	ld8u r1, r1[r5]
	.loc	2 260 0                 # C:/Users/user/workspace/lib_i2c/src/i2c_master_single_port.xc:260:0
	ldw r2, r9[0]
	.loc	2 260 0                 # C:/Users/user/workspace/lib_i2c/src/i2c_master_single_port.xc:260:0
	ldw r3, r4[0]
	.loc	2 260 0                 # C:/Users/user/workspace/lib_i2c/src/i2c_master_single_port.xc:260:0
	ldw r11, r6[0]
	.loc	2 260 0                 # C:/Users/user/workspace/lib_i2c/src/i2c_master_single_port.xc:260:0
	ldw r7, sp[7]                   # 4-byte Folded Reload
	ldw r7, r7[0]
.Ltmp194:
	#DEBUG_VALUE: fall_time <- [R8+0]
	.loc	2 260 0                 # C:/Users/user/workspace/lib_i2c/src/i2c_master_single_port.xc:260:0
	std r8, r7, sp[1]
	stw r11, sp[1]
.Lxta.call_labels18:
	bl tx8
	mov r7, r0
.Ltmp195:
	#DEBUG_VALUE: ack <- R7
	.loc	2 255 0                 # C:/Users/user/workspace/lib_i2c/src/i2c_master_single_port.xc:255:0
	add r5, r5, 1
.Ltmp196:
	#DEBUG_VALUE: j <- R5
	.loc	2 255 0                 # C:/Users/user/workspace/lib_i2c/src/i2c_master_single_port.xc:255:0
	ldw r0, sp[8]                   # 4-byte Folded Reload
	lsu r0, r5, r0
.Lxta.loop_labels5:
	# LOOPMARKER 0
	bt r0, .LBB7_4
.Ltmp197:
.LBB7_6:                                # %ifdone134
.Lxtalabel25:
	#DEBUG_VALUE: _i.i2c_master_if.i2c_master_single_port.0.write:device <- undef
	#DEBUG_VALUE: _i.i2c_master_if.i2c_master_single_port.0.write:send_stop_bit <- undef
	#DEBUG_VALUE: j <- 0
	ldw r8, sp[19]
	#DEBUG_VALUE: _i.i2c_master_if.i2c_master_single_port.0.write:num_bytes_sent <- R8
	ldw r0, sp[20]
	bf r0, .LBB7_8
.Ltmp198:
# BB#7:                                 # %iftrue165
.Lxtalabel26:
	#DEBUG_VALUE: _i.i2c_master_if.i2c_master_single_port.0.write:device <- undef
	#DEBUG_VALUE: j <- 0
	#DEBUG_VALUE: _i.i2c_master_if.i2c_master_single_port.0.write:num_bytes_sent <- R8
	.loc	2 264 0                 # C:/Users/user/workspace/lib_i2c/src/i2c_master_single_port.xc:264:0
	ldw r0, r10[8]
	.loc	2 264 0                 # C:/Users/user/workspace/lib_i2c/src/i2c_master_single_port.xc:264:0
	ldw r1, r9[0]
	.loc	2 264 0                 # C:/Users/user/workspace/lib_i2c/src/i2c_master_single_port.xc:264:0
	ldw r2, r4[0]
	.loc	2 264 0                 # C:/Users/user/workspace/lib_i2c/src/i2c_master_single_port.xc:264:0
	ldw r3, r6[0]
	.loc	2 264 0                 # C:/Users/user/workspace/lib_i2c/src/i2c_master_single_port.xc:264:0
	ldw r11, sp[7]                  # 4-byte Folded Reload
	ldw r11, r11[0]
	.loc	2 264 0                 # C:/Users/user/workspace/lib_i2c/src/i2c_master_single_port.xc:264:0
	ldw r4, sp[9]
	.loc	2 264 0                 # C:/Users/user/workspace/lib_i2c/src/i2c_master_single_port.xc:264:0
	stw r4, sp[2]
	stw r11, sp[1]
.Lxta.call_labels19:
	bl stop_bit
	mkmsk r0, 32
	stw r0, sp[5]                   # 4-byte Folded Spill
.Ltmp199:
.LBB7_8:                                # %ifdone166
.Lxtalabel27:
	#DEBUG_VALUE: _i.i2c_master_if.i2c_master_single_port.0.write:device <- undef
	#DEBUG_VALUE: j <- 0
	#DEBUG_VALUE: _i.i2c_master_if.i2c_master_single_port.0.write:num_bytes_sent <- R8
	ldc r0, 64
	.loc	2 268 0                 # C:/Users/user/workspace/lib_i2c/src/i2c_master_single_port.xc:268:0
	add r0, r10, r0
	ldw r1, sp[5]                   # 4-byte Folded Reload
	stw r1, r0[0]
	.loc	2 270 0                 # C:/Users/user/workspace/lib_i2c/src/i2c_master_single_port.xc:270:0
	stw r5, r8[0]
	.loc	2 272 0                 # C:/Users/user/workspace/lib_i2c/src/i2c_master_single_port.xc:272:0
	eq r5, r7, 0
	clre
	ldw r0, sp[4]                   # 4-byte Folded Reload
	bl __lock_fair_release
	ldw r0, r10[4]
	add r0, r0, 1
	stw r0, r10[4]
	mov r0, r5
	ldw r10, sp[16]                 # 4-byte Folded Reload
	ldd r9, r8, sp[7]               # 4-byte Folded Reload
.Ltmp200:
	ldd r7, r6, sp[6]               # 4-byte Folded Reload
	ldd r5, r4, sp[5]               # 4-byte Folded Reload
	retsp 18
	# RETURN_REG_HOLDER
.Ltmp201:
	.cc_bottom _i.i2c_master_if.i2c_master_single_port.0.write.function
	.set	_i.i2c_master_if.i2c_master_single_port.0.write.nstackwords,((start_bit.nstackwords $M stop_bit.nstackwords $M tx8.nstackwords $M __lock_fair_release.nstackwords $M __wait_until_gt.nstackwords $M __lock_fair_acquire.nstackwords) + 18)
	.globl	_i.i2c_master_if.i2c_master_single_port.0.write.nstackwords
	.set	_i.i2c_master_if.i2c_master_single_port.0.write.maxcores,__lock_fair_acquire.maxcores $M __lock_fair_release.maxcores $M __wait_until_gt.maxcores $M start_bit.maxcores $M stop_bit.maxcores $M tx8.maxcores $M 1
	.globl	_i.i2c_master_if.i2c_master_single_port.0.write.maxcores
	.set	_i.i2c_master_if.i2c_master_single_port.0.write.maxtimers,__lock_fair_acquire.maxtimers $M __lock_fair_release.maxtimers $M __wait_until_gt.maxtimers $M start_bit.maxtimers $M stop_bit.maxtimers $M tx8.maxtimers $M 0
	.globl	_i.i2c_master_if.i2c_master_single_port.0.write.maxtimers
	.set	_i.i2c_master_if.i2c_master_single_port.0.write.maxchanends,__lock_fair_acquire.maxchanends $M __lock_fair_release.maxchanends $M __wait_until_gt.maxchanends $M start_bit.maxchanends $M stop_bit.maxchanends $M tx8.maxchanends $M 0
	.globl	_i.i2c_master_if.i2c_master_single_port.0.write.maxchanends
.Ltmp202:
	.size	_i.i2c_master_if.i2c_master_single_port.0.write, .Ltmp202-_i.i2c_master_if.i2c_master_single_port.0.write
.Lfunc_end7:
	.cfi_endproc

	.globl	_i.i2c_master_if._Si2c_master_single_port_0._c0.shutdown
	.align	4
	.type	_i.i2c_master_if._Si2c_master_single_port_0._c0.shutdown,@function
	.cc_top _i.i2c_master_if._Si2c_master_single_port_0._c0.shutdown.function,_i.i2c_master_if._Si2c_master_single_port_0._c0.shutdown
_i.i2c_master_if._Si2c_master_single_port_0._c0.shutdown: # @_i.i2c_master_if._Si2c_master_single_port_0._c0.shutdown
	.cfi_startproc
	.issue_mode single
# BB#0:                                 # %allocas
	ENTSP_lu6 0
	#DEBUG_VALUE: _i.i2c_master_if._Si2c_master_single_port_0._c0.shutdown:p <- R0
	ldw r0, r0[0]
.LBB8_1:                                # %LoopTest
                                        # =>This Inner Loop Header: Depth=1
	ldw r1, r0[0]
	bf r1, .LBB8_1
# BB#2:                                 # %ifdone
	ldc r1, 0
	stw r1, r0[0]
	retsp 0
	# RETURN_REG_HOLDER
	.cc_bottom _i.i2c_master_if._Si2c_master_single_port_0._c0.shutdown.function
	.set	_i.i2c_master_if._Si2c_master_single_port_0._c0.shutdown.nstackwords,0
	.globl	_i.i2c_master_if._Si2c_master_single_port_0._c0.shutdown.nstackwords
	.set	_i.i2c_master_if._Si2c_master_single_port_0._c0.shutdown.maxcores,1
	.globl	_i.i2c_master_if._Si2c_master_single_port_0._c0.shutdown.maxcores
	.set	_i.i2c_master_if._Si2c_master_single_port_0._c0.shutdown.maxtimers,0
	.globl	_i.i2c_master_if._Si2c_master_single_port_0._c0.shutdown.maxtimers
	.set	_i.i2c_master_if._Si2c_master_single_port_0._c0.shutdown.maxchanends,0
	.globl	_i.i2c_master_if._Si2c_master_single_port_0._c0.shutdown.maxchanends
.Ltmp203:
	.size	_i.i2c_master_if._Si2c_master_single_port_0._c0.shutdown, .Ltmp203-_i.i2c_master_if._Si2c_master_single_port_0._c0.shutdown
	.cfi_endproc

	.globl	_i.i2c_master_if._Si2c_master_single_port_0._c0.send_stop_bit
	.align	4
	.type	_i.i2c_master_if._Si2c_master_single_port_0._c0.send_stop_bit,@function
	.cc_top _i.i2c_master_if._Si2c_master_single_port_0._c0.send_stop_bit.function,_i.i2c_master_if._Si2c_master_single_port_0._c0.send_stop_bit
_i.i2c_master_if._Si2c_master_single_port_0._c0.send_stop_bit: # @_i.i2c_master_if._Si2c_master_single_port_0._c0.send_stop_bit
.Lfunc_begin9:
	.loc	2 277 0                 # C:/Users/user/workspace/lib_i2c/src/i2c_master_single_port.xc:277:0
	.cfi_startproc
	.issue_mode single
# BB#0:                                 # %allocas
	ENTSP_lu6 4
.Ltmp204:
	.cfi_def_cfa_offset 16
.Ltmp205:
	.cfi_offset 15, 0
	stw r4, sp[2]                   # 4-byte Folded Spill
.Ltmp206:
	.cfi_offset 4, -8
	#DEBUG_VALUE: _i.i2c_master_if._Si2c_master_single_port_0._c0.send_stop_bit:p <- R0
	ldw r4, r0[0]
.Ltmp207:
.LBB9_1:                                # %LoopTest
                                        # =>This Inner Loop Header: Depth=1
	ldw r0, r4[0]
	bf r0, .LBB9_1
# BB#2:                                 # %ifdone
	ldc r0, 0
	stw r0, r4[0]
	.loc	2 280 0 prologue_end    # C:/Users/user/workspace/lib_i2c/src/i2c_master_single_port.xc:280:0
.Ltmp208:
	gettime r11
.Ltmp209:
	#DEBUG_VALUE: fall_time <- R11
	.loc	2 281 0                 # C:/Users/user/workspace/lib_i2c/src/i2c_master_single_port.xc:281:0
	ldw r0, r4[6]
	.loc	2 281 0                 # C:/Users/user/workspace/lib_i2c/src/i2c_master_single_port.xc:281:0
	ldw r1, r4[7]
	.loc	2 281 0                 # C:/Users/user/workspace/lib_i2c/src/i2c_master_single_port.xc:281:0
	ldw r2, r4[9]
	.loc	2 281 0                 # C:/Users/user/workspace/lib_i2c/src/i2c_master_single_port.xc:281:0
	ldw r3, r4[8]
	.loc	2 281 0                 # C:/Users/user/workspace/lib_i2c/src/i2c_master_single_port.xc:281:0
	stw r11, sp[1]
.Lxta.call_labels20:
	bl _Sstop_bit_0
.Ltmp210:
	mkmsk r0, 32
	.loc	2 282 0                 # C:/Users/user/workspace/lib_i2c/src/i2c_master_single_port.xc:282:0
	stw r0, r4[10]
	mkmsk r0, 1
	stw r0, r4[0]
	ldw r4, sp[2]                   # 4-byte Folded Reload
	retsp 4
	# RETURN_REG_HOLDER
.Ltmp211:
	.cc_bottom _i.i2c_master_if._Si2c_master_single_port_0._c0.send_stop_bit.function
	.set	_i.i2c_master_if._Si2c_master_single_port_0._c0.send_stop_bit.nstackwords,(_Sstop_bit_0.nstackwords + 4)
	.globl	_i.i2c_master_if._Si2c_master_single_port_0._c0.send_stop_bit.nstackwords
	.set	_i.i2c_master_if._Si2c_master_single_port_0._c0.send_stop_bit.maxcores,_Sstop_bit_0.maxcores $M 1
	.globl	_i.i2c_master_if._Si2c_master_single_port_0._c0.send_stop_bit.maxcores
	.set	_i.i2c_master_if._Si2c_master_single_port_0._c0.send_stop_bit.maxtimers,_Sstop_bit_0.maxtimers $M 0
	.globl	_i.i2c_master_if._Si2c_master_single_port_0._c0.send_stop_bit.maxtimers
	.set	_i.i2c_master_if._Si2c_master_single_port_0._c0.send_stop_bit.maxchanends,_Sstop_bit_0.maxchanends $M 0
	.globl	_i.i2c_master_if._Si2c_master_single_port_0._c0.send_stop_bit.maxchanends
.Ltmp212:
	.size	_i.i2c_master_if._Si2c_master_single_port_0._c0.send_stop_bit, .Ltmp212-_i.i2c_master_if._Si2c_master_single_port_0._c0.send_stop_bit
.Lfunc_end9:
	.cfi_endproc

	.section	.cp.rodata.cst4,"aMc",@progbits,4
	.cc_top .LCPI10_0.data,.LCPI10_0
	.align	4
	.type	.LCPI10_0,@object
	.size	.LCPI10_0, 4
.LCPI10_0:
	.long	4294967288              # 0xfffffff8
	.cc_bottom .LCPI10_0.data
	.text
	.globl	_i.i2c_master_if._Si2c_master_single_port_0._c0.read
	.align	4
	.type	_i.i2c_master_if._Si2c_master_single_port_0._c0.read,@function
	.cc_top _i.i2c_master_if._Si2c_master_single_port_0._c0.read.function,_i.i2c_master_if._Si2c_master_single_port_0._c0.read
_i.i2c_master_if._Si2c_master_single_port_0._c0.read: # @_i.i2c_master_if._Si2c_master_single_port_0._c0.read
.Lfunc_begin10:
	.loc	2 190 0                 # C:/Users/user/workspace/lib_i2c/src/i2c_master_single_port.xc:190:0
	.cfi_startproc
	.issue_mode single
# BB#0:                                 # %allocas
	ENTSP_lu6 18
.Ltmp213:
	.cfi_def_cfa_offset 72
.Ltmp214:
	.cfi_offset 15, 0
	std r5, r4, sp[5]               # 4-byte Folded Spill
.Ltmp215:
	.cfi_offset 4, -32
.Ltmp216:
	.cfi_offset 5, -28
	std r7, r6, sp[6]               # 4-byte Folded Spill
.Ltmp217:
	.cfi_offset 6, -24
.Ltmp218:
	.cfi_offset 7, -20
	std r9, r8, sp[7]               # 4-byte Folded Spill
.Ltmp219:
	.cfi_offset 8, -16
.Ltmp220:
	.cfi_offset 9, -12
	stw r10, sp[16]                 # 4-byte Folded Spill
.Ltmp221:
	.cfi_offset 10, -8
	#DEBUG_VALUE: _i.i2c_master_if._Si2c_master_single_port_0._c0.read:p <- R0
	#DEBUG_VALUE: _i.i2c_master_if._Si2c_master_single_port_0._c0.read:device <- R1
	#DEBUG_VALUE: _i.i2c_master_if._Si2c_master_single_port_0._c0.read:buf <- R2
	#DEBUG_VALUE: _i.i2c_master_if._Si2c_master_single_port_0._c0.read:m <- R3
	stw r3, sp[8]                   # 4-byte Folded Spill
.Ltmp222:
	#DEBUG_VALUE: _i.i2c_master_if._Si2c_master_single_port_0._c0.read:m <- [SP+32]
	stw r2, sp[7]                   # 4-byte Folded Spill
.Ltmp223:
	#DEBUG_VALUE: _i.i2c_master_if._Si2c_master_single_port_0._c0.read:buf <- [SP+28]
	mov r6, r1
.Ltmp224:
	#DEBUG_VALUE: _i.i2c_master_if._Si2c_master_single_port_0._c0.read:device <- undef
	#DEBUG_VALUE: _i.i2c_master_if._Si2c_master_single_port_0._c0.read:device <- R6
	ldw r8, r0[0]
	ldw r0, r0[1]
.Ltmp225:
	stw r0, sp[4]                   # 4-byte Folded Spill
.Ltmp226:
.LBB10_1:                               # %LoopTest
                                        # =>This Inner Loop Header: Depth=1
	#DEBUG_VALUE: _i.i2c_master_if._Si2c_master_single_port_0._c0.read:device <- undef
	#DEBUG_VALUE: _i.i2c_master_if._Si2c_master_single_port_0._c0.read:buf <- [SP+28]
	#DEBUG_VALUE: _i.i2c_master_if._Si2c_master_single_port_0._c0.read:m <- [SP+32]
	ldw r0, r8[0]
	bf r0, .LBB10_1
.Ltmp227:
# BB#2:                                 # %expdone
	#DEBUG_VALUE: _i.i2c_master_if._Si2c_master_single_port_0._c0.read:device <- undef
	#DEBUG_VALUE: _i.i2c_master_if._Si2c_master_single_port_0._c0.read:buf <- [SP+28]
	#DEBUG_VALUE: _i.i2c_master_if._Si2c_master_single_port_0._c0.read:m <- [SP+32]
	#DEBUG_VALUE: _i.i2c_master_if._Si2c_master_single_port_0._c0.read:send_stop_bit <- undef
	ldc r0, 0
	stw r0, r8[0]
	.loc	2 200 0 prologue_end    # C:/Users/user/workspace/lib_i2c/src/i2c_master_single_port.xc:200:0
.Ltmp228:
	ldw r0, r8[6]
	.loc	2 200 0                 # C:/Users/user/workspace/lib_i2c/src/i2c_master_single_port.xc:200:0
	ldw r1, r8[7]
	.loc	2 200 0                 # C:/Users/user/workspace/lib_i2c/src/i2c_master_single_port.xc:200:0
	ldw r2, r8[9]
	.loc	2 200 0                 # C:/Users/user/workspace/lib_i2c/src/i2c_master_single_port.xc:200:0
	ldw r3, r8[8]
	.loc	2 200 0                 # C:/Users/user/workspace/lib_i2c/src/i2c_master_single_port.xc:200:0
.Lxta.call_labels21:
	bl _Sstart_bit_0
.Ltmp229:
	#DEBUG_VALUE: fall_time <- R0
	.loc	2 200 0                 # C:/Users/user/workspace/lib_i2c/src/i2c_master_single_port.xc:200:0
	stw r0, sp[9]
	.loc	2 202 0                 # C:/Users/user/workspace/lib_i2c/src/i2c_master_single_port.xc:202:0
	ldw r0, r8[6]
.Ltmp230:
	.loc	2 202 0                 # C:/Users/user/workspace/lib_i2c/src/i2c_master_single_port.xc:202:0
	shl r1, r6, 1
	mkmsk r2, 1
	.loc	2 202 0                 # C:/Users/user/workspace/lib_i2c/src/i2c_master_single_port.xc:202:0
	or r1, r1, r2
	.loc	2 202 0                 # C:/Users/user/workspace/lib_i2c/src/i2c_master_single_port.xc:202:0
	ldw r2, r8[7]
	.loc	2 202 0                 # C:/Users/user/workspace/lib_i2c/src/i2c_master_single_port.xc:202:0
	ldw r3, r8[9]
	.loc	2 202 0                 # C:/Users/user/workspace/lib_i2c/src/i2c_master_single_port.xc:202:0
	ldw r11, r8[8]
	ldaw r7, sp[9]
.Ltmp231:
	#DEBUG_VALUE: fall_time <- [R7+0]
	.loc	2 202 0                 # C:/Users/user/workspace/lib_i2c/src/i2c_master_single_port.xc:202:0
	stw r7, sp[2]
	stw r11, sp[1]
.Lxta.call_labels22:
	bl _Stx8_0
.Ltmp232:
	#DEBUG_VALUE: ack <- R0
	.loc	2 204 7                 # C:/Users/user/workspace/lib_i2c/src/i2c_master_single_port.xc:204:7
	eq r0, r0, 0
.Ltmp233:
	#DEBUG_VALUE: j <- 0
	.loc	2 204 7                 # C:/Users/user/workspace/lib_i2c/src/i2c_master_single_port.xc:204:7
	stw r0, sp[5]                   # 4-byte Folded Spill
	ldw r0, sp[8]                   # 4-byte Folded Reload
	bf r0, .LBB10_10
.Ltmp234:
# BB#3:                                 # %expdone
	#DEBUG_VALUE: _i.i2c_master_if._Si2c_master_single_port_0._c0.read:device <- undef
	#DEBUG_VALUE: _i.i2c_master_if._Si2c_master_single_port_0._c0.read:buf <- [SP+28]
	#DEBUG_VALUE: _i.i2c_master_if._Si2c_master_single_port_0._c0.read:m <- [SP+32]
	#DEBUG_VALUE: _i.i2c_master_if._Si2c_master_single_port_0._c0.read:send_stop_bit <- undef
	#DEBUG_VALUE: fall_time <- [R7+0]
	.loc	2 204 7                 # C:/Users/user/workspace/lib_i2c/src/i2c_master_single_port.xc:204:7
	ldw r0, sp[5]                   # 4-byte Folded Reload
	eq r0, r0, 0
	bt r0, .LBB10_10
.Ltmp235:
# BB#4:                                 # %LoopBody109.preheader
	#DEBUG_VALUE: _i.i2c_master_if._Si2c_master_single_port_0._c0.read:device <- undef
	#DEBUG_VALUE: _i.i2c_master_if._Si2c_master_single_port_0._c0.read:buf <- [SP+28]
	#DEBUG_VALUE: _i.i2c_master_if._Si2c_master_single_port_0._c0.read:m <- [SP+32]
	#DEBUG_VALUE: _i.i2c_master_if._Si2c_master_single_port_0._c0.read:send_stop_bit <- undef
	#DEBUG_VALUE: fall_time <- [R7+0]
	.loc	2 216 0                 # C:/Users/user/workspace/lib_i2c/src/i2c_master_single_port.xc:216:0
	get r11, id
	.loc	2 216 0                 # C:/Users/user/workspace/lib_i2c/src/i2c_master_single_port.xc:216:0
	ldaw r0, dp[__timers]
	.loc	2 216 0                 # C:/Users/user/workspace/lib_i2c/src/i2c_master_single_port.xc:216:0
	ldw r9, r0[r11]
	.loc	2 218 11                # C:/Users/user/workspace/lib_i2c/src/i2c_master_single_port.xc:218:11
.Ltmp236:
	ldw r0, sp[8]                   # 4-byte Folded Reload
	sub r0, r0, 1
	stw r0, sp[6]                   # 4-byte Folded Spill
	ldc r10, 510
	ldc r4, 0
.Ltmp237:
.LBB10_5:                               # %LoopBody109
                                        # =>This Loop Header: Depth=1
                                        #     Child Loop BB10_6 Depth 2
.Lxtalabel28:
	#DEBUG_VALUE: _i.i2c_master_if._Si2c_master_single_port_0._c0.read:device <- undef
	#DEBUG_VALUE: _i.i2c_master_if._Si2c_master_single_port_0._c0.read:buf <- [SP+28]
	#DEBUG_VALUE: _i.i2c_master_if._Si2c_master_single_port_0._c0.read:m <- [SP+32]
	#DEBUG_VALUE: _i.i2c_master_if._Si2c_master_single_port_0._c0.read:send_stop_bit <- undef
	#DEBUG_VALUE: data <- 0
	#DEBUG_VALUE: i <- 8
	ldw r6, cp[.LCPI10_0]
	ldc r5, 0
.Ltmp238:
.LBB10_6:                               # %LoopBody118
                                        #   Parent Loop BB10_5 Depth=1
                                        # =>  This Inner Loop Header: Depth=2
.Lxtalabel29:
	#DEBUG_VALUE: _i.i2c_master_if._Si2c_master_single_port_0._c0.read:device <- undef
	#DEBUG_VALUE: _i.i2c_master_if._Si2c_master_single_port_0._c0.read:buf <- [SP+28]
	#DEBUG_VALUE: _i.i2c_master_if._Si2c_master_single_port_0._c0.read:m <- [SP+32]
	#DEBUG_VALUE: _i.i2c_master_if._Si2c_master_single_port_0._c0.read:send_stop_bit <- undef
	#DEBUG_VALUE: data <- 0
	#DEBUG_VALUE: i <- 8
	.loc	2 209 0                 # C:/Users/user/workspace/lib_i2c/src/i2c_master_single_port.xc:209:0
	ldw r0, r8[6]
	.loc	2 209 0                 # C:/Users/user/workspace/lib_i2c/src/i2c_master_single_port.xc:209:0
	ldw r1, r8[7]
	.loc	2 209 0                 # C:/Users/user/workspace/lib_i2c/src/i2c_master_single_port.xc:209:0
	ldw r2, r8[9]
	.loc	2 209 0                 # C:/Users/user/workspace/lib_i2c/src/i2c_master_single_port.xc:209:0
	ldw r3, r8[8]
.Ltmp239:
	#DEBUG_VALUE: fall_time <- [R7+0]
	.loc	2 209 0                 # C:/Users/user/workspace/lib_i2c/src/i2c_master_single_port.xc:209:0
	stw r7, sp[1]
.Lxta.call_labels23:
	bl _Shigh_pulse_sample_0
.Ltmp240:
	#DEBUG_VALUE: temp <- R0
	.loc	2 212 0                 # C:/Users/user/workspace/lib_i2c/src/i2c_master_single_port.xc:212:0
	shl r1, r5, 1
	.loc	2 212 0                 # C:/Users/user/workspace/lib_i2c/src/i2c_master_single_port.xc:212:0
	and r1, r1, r10
	.loc	2 212 0                 # C:/Users/user/workspace/lib_i2c/src/i2c_master_single_port.xc:212:0
	or r5, r0, r1
.Ltmp241:
	.loc	2 208 0                 # C:/Users/user/workspace/lib_i2c/src/i2c_master_single_port.xc:208:0
	add r6, r6, 1
.xtaloop 8
	# LOOPMARKER 1
.Lxta.loop_labels6:
	# LOOPMARKER 0
	.loc	2 208 0                 # C:/Users/user/workspace/lib_i2c/src/i2c_master_single_port.xc:208:0
	bt r6, .LBB10_6
.Ltmp242:
# BB#7:                                 # %afterboundcheck
                                        #   in Loop: Header=BB10_5 Depth=1
.Lxtalabel30:
	#DEBUG_VALUE: _i.i2c_master_if._Si2c_master_single_port_0._c0.read:device <- undef
	#DEBUG_VALUE: _i.i2c_master_if._Si2c_master_single_port_0._c0.read:buf <- [SP+28]
	#DEBUG_VALUE: _i.i2c_master_if._Si2c_master_single_port_0._c0.read:m <- [SP+32]
	#DEBUG_VALUE: _i.i2c_master_if._Si2c_master_single_port_0._c0.read:send_stop_bit <- undef
	#DEBUG_VALUE: fall_time <- [R7+0]
	#DEBUG_VALUE: data <- 0
	.loc	2 214 0                 # C:/Users/user/workspace/lib_i2c/src/i2c_master_single_port.xc:214:0
	ldw r0, sp[7]                   # 4-byte Folded Reload
	st8 r5, r0[r4]
	.loc	2 216 0                 # C:/Users/user/workspace/lib_i2c/src/i2c_master_single_port.xc:216:0
	ldw r3, sp[9]
	.loc	2 216 0                 # C:/Users/user/workspace/lib_i2c/src/i2c_master_single_port.xc:216:0
	ldw r2, r8[7]
	.loc	2 216 0                 # C:/Users/user/workspace/lib_i2c/src/i2c_master_single_port.xc:216:0
	shr r0, r2, 2
	.loc	2 216 0                 # C:/Users/user/workspace/lib_i2c/src/i2c_master_single_port.xc:216:0
	add r0, r0, r3
	.loc	2 216 0                 # C:/Users/user/workspace/lib_i2c/src/i2c_master_single_port.xc:216:0
	setd res[r9], r0
	.loc	2 216 0                 # C:/Users/user/workspace/lib_i2c/src/i2c_master_single_port.xc:216:0
	setc res[r9], 9
	.loc	2 216 0                 # C:/Users/user/workspace/lib_i2c/src/i2c_master_single_port.xc:216:0
.Ltmp243:
.Lxta.endpoint_labels8:
	in r0, res[r9]
	.loc	2 219 59                # C:/Users/user/workspace/lib_i2c/src/i2c_master_single_port.xc:219:59
	ldw r0, r8[6]
	.loc	2 218 11                # C:/Users/user/workspace/lib_i2c/src/i2c_master_single_port.xc:218:11
	ldw r1, sp[6]                   # 4-byte Folded Reload
	eq r1, r4, r1
	bf r1, .LBB10_13
.Ltmp244:
# BB#8:                                 # %iftrue146
                                        #   in Loop: Header=BB10_5 Depth=1
.Lxtalabel31:
	#DEBUG_VALUE: _i.i2c_master_if._Si2c_master_single_port_0._c0.read:device <- undef
	#DEBUG_VALUE: _i.i2c_master_if._Si2c_master_single_port_0._c0.read:buf <- [SP+28]
	#DEBUG_VALUE: _i.i2c_master_if._Si2c_master_single_port_0._c0.read:m <- [SP+32]
	#DEBUG_VALUE: _i.i2c_master_if._Si2c_master_single_port_0._c0.read:send_stop_bit <- undef
	#DEBUG_VALUE: fall_time <- [R7+0]
	#DEBUG_VALUE: data <- 0
	.loc	2 219 59                # C:/Users/user/workspace/lib_i2c/src/i2c_master_single_port.xc:219:59
	ldw r11, r8[8]
	.loc	2 219 59                # C:/Users/user/workspace/lib_i2c/src/i2c_master_single_port.xc:219:59
	ldw r1, r8[9]
	.loc	2 219 59                # C:/Users/user/workspace/lib_i2c/src/i2c_master_single_port.xc:219:59
	or r11, r11, r1
	ldc r5, 12
	.loc	2 219 59                # C:/Users/user/workspace/lib_i2c/src/i2c_master_single_port.xc:219:59
	or r11, r11, r5
	bu .LBB10_9
.Ltmp245:
.LBB10_13:                              # %iffalse154
                                        #   in Loop: Header=BB10_5 Depth=1
.Lxtalabel32:
	#DEBUG_VALUE: _i.i2c_master_if._Si2c_master_single_port_0._c0.read:device <- undef
	#DEBUG_VALUE: _i.i2c_master_if._Si2c_master_single_port_0._c0.read:buf <- [SP+28]
	#DEBUG_VALUE: _i.i2c_master_if._Si2c_master_single_port_0._c0.read:m <- [SP+32]
	#DEBUG_VALUE: _i.i2c_master_if._Si2c_master_single_port_0._c0.read:send_stop_bit <- undef
	#DEBUG_VALUE: fall_time <- [R7+0]
	#DEBUG_VALUE: data <- 0
	.loc	2 221 48                # C:/Users/user/workspace/lib_i2c/src/i2c_master_single_port.xc:221:48
	ldw r1, r8[9]
	ldc r5, 12
	.loc	2 221 48                # C:/Users/user/workspace/lib_i2c/src/i2c_master_single_port.xc:221:48
	or r11, r1, r5
.Ltmp246:
.LBB10_9:                               # %ifdone147
                                        #   in Loop: Header=BB10_5 Depth=1
.Lxtalabel33:
	.loc	2 219 59                # C:/Users/user/workspace/lib_i2c/src/i2c_master_single_port.xc:219:59
.Lxta.endpoint_labels9:
	out res[r0], r11
	#DEBUG_VALUE: _i.i2c_master_if._Si2c_master_single_port_0._c0.read:device <- undef
.Ltmp247:
	#DEBUG_VALUE: _i.i2c_master_if._Si2c_master_single_port_0._c0.read:buf <- [SP+28]
	#DEBUG_VALUE: _i.i2c_master_if._Si2c_master_single_port_0._c0.read:m <- [SP+32]
	#DEBUG_VALUE: _i.i2c_master_if._Si2c_master_single_port_0._c0.read:send_stop_bit <- undef
	#DEBUG_VALUE: fall_time <- [R7+0]
	#DEBUG_VALUE: data <- 0
	.loc	2 225 0                 # C:/Users/user/workspace/lib_i2c/src/i2c_master_single_port.xc:225:0
	shr r11, r2, 1
	.loc	2 225 0                 # C:/Users/user/workspace/lib_i2c/src/i2c_master_single_port.xc:225:0
	add r3, r11, r3
	.loc	2 225 0                 # C:/Users/user/workspace/lib_i2c/src/i2c_master_single_port.xc:225:0
	shr r11, r2, 5
	.loc	2 225 0                 # C:/Users/user/workspace/lib_i2c/src/i2c_master_single_port.xc:225:0
	add r3, r3, r11
	.loc	2 225 0                 # C:/Users/user/workspace/lib_i2c/src/i2c_master_single_port.xc:225:0
	setd res[r9], r3
	.loc	2 225 0                 # C:/Users/user/workspace/lib_i2c/src/i2c_master_single_port.xc:225:0
	setc res[r9], 9
	.loc	2 225 0                 # C:/Users/user/workspace/lib_i2c/src/i2c_master_single_port.xc:225:0
.Ltmp248:
.Lxta.endpoint_labels10:
	in r3, res[r9]
	.loc	2 226 0                 # C:/Users/user/workspace/lib_i2c/src/i2c_master_single_port.xc:226:0
	add r3, r2, 1
	.loc	2 226 0                 # C:/Users/user/workspace/lib_i2c/src/i2c_master_single_port.xc:226:0
	mov r2, r7
.Lxta.call_labels24:
	bl wait_for_clock_high
	.loc	2 227 46                # C:/Users/user/workspace/lib_i2c/src/i2c_master_single_port.xc:227:46
	ldw r0, r8[6]
	.loc	2 227 46                # C:/Users/user/workspace/lib_i2c/src/i2c_master_single_port.xc:227:46
	ldw r1, r8[8]
	.loc	2 227 46                # C:/Users/user/workspace/lib_i2c/src/i2c_master_single_port.xc:227:46
	or r1, r1, r5
	.loc	2 227 46                # C:/Users/user/workspace/lib_i2c/src/i2c_master_single_port.xc:227:46
.Lxta.endpoint_labels11:
	out res[r0], r1
	.loc	2 228 0                 # C:/Users/user/workspace/lib_i2c/src/i2c_master_single_port.xc:228:0
	ldw r0, sp[9]
	.loc	2 228 0                 # C:/Users/user/workspace/lib_i2c/src/i2c_master_single_port.xc:228:0
	ldw r1, r8[7]
	.loc	2 228 0                 # C:/Users/user/workspace/lib_i2c/src/i2c_master_single_port.xc:228:0
	add r0, r1, r0
.Ltmp249:
	#DEBUG_VALUE: fall_time <- R0
	.loc	2 228 0                 # C:/Users/user/workspace/lib_i2c/src/i2c_master_single_port.xc:228:0
	stw r0, sp[9]
.Ltmp250:
	.loc	2 205 0                 # C:/Users/user/workspace/lib_i2c/src/i2c_master_single_port.xc:205:0
	add r4, r4, 1
.Ltmp251:
	#DEBUG_VALUE: j <- R4
	.loc	2 205 0                 # C:/Users/user/workspace/lib_i2c/src/i2c_master_single_port.xc:205:0
	ldw r0, sp[8]                   # 4-byte Folded Reload
.Ltmp252:
	lsu r0, r4, r0
.Lxta.loop_labels7:
	# LOOPMARKER 2
	bt r0, .LBB10_5
.Ltmp253:
.LBB10_10:                              # %ifdone99
.Lxtalabel34:
	#DEBUG_VALUE: _i.i2c_master_if._Si2c_master_single_port_0._c0.read:device <- undef
	#DEBUG_VALUE: _i.i2c_master_if._Si2c_master_single_port_0._c0.read:send_stop_bit <- undef
	ldw r0, sp[4]                   # 4-byte Folded Reload
	ldw r1, sp[19]
	bf r1, .LBB10_12
# BB#11:                                # %iftrue204
.Lxtalabel35:
	#DEBUG_VALUE: _i.i2c_master_if._Si2c_master_single_port_0._c0.read:device <- undef
	.loc	2 232 0                 # C:/Users/user/workspace/lib_i2c/src/i2c_master_single_port.xc:232:0
	ldw r0, r8[6]
	.loc	2 232 0                 # C:/Users/user/workspace/lib_i2c/src/i2c_master_single_port.xc:232:0
	ldw r1, r8[7]
	.loc	2 232 0                 # C:/Users/user/workspace/lib_i2c/src/i2c_master_single_port.xc:232:0
	ldw r2, r8[9]
	.loc	2 232 0                 # C:/Users/user/workspace/lib_i2c/src/i2c_master_single_port.xc:232:0
	ldw r3, r8[8]
	.loc	2 232 0                 # C:/Users/user/workspace/lib_i2c/src/i2c_master_single_port.xc:232:0
	ldw r11, sp[9]
	.loc	2 232 0                 # C:/Users/user/workspace/lib_i2c/src/i2c_master_single_port.xc:232:0
	stw r11, sp[1]
.Lxta.call_labels25:
	bl _Sstop_bit_0
	mkmsk r0, 32
.Ltmp254:
.LBB10_12:                              # %ifdone205
.Lxtalabel36:
	#DEBUG_VALUE: _i.i2c_master_if._Si2c_master_single_port_0._c0.read:device <- undef
	stw r0, r8[10]
	mkmsk r0, 1
	stw r0, r8[0]
	ldw r0, sp[5]                   # 4-byte Folded Reload
	ldw r10, sp[16]                 # 4-byte Folded Reload
	ldd r9, r8, sp[7]               # 4-byte Folded Reload
	ldd r7, r6, sp[6]               # 4-byte Folded Reload
	ldd r5, r4, sp[5]               # 4-byte Folded Reload
	retsp 18
	# RETURN_REG_HOLDER
	.cc_bottom _i.i2c_master_if._Si2c_master_single_port_0._c0.read.function
	.set	_i.i2c_master_if._Si2c_master_single_port_0._c0.read.nstackwords,((_Sstart_bit_0.nstackwords $M _Stx8_0.nstackwords $M _Sstop_bit_0.nstackwords $M _Shigh_pulse_sample_0.nstackwords $M wait_for_clock_high.nstackwords) + 18)
	.globl	_i.i2c_master_if._Si2c_master_single_port_0._c0.read.nstackwords
	.set	_i.i2c_master_if._Si2c_master_single_port_0._c0.read.maxcores,_Shigh_pulse_sample_0.maxcores $M _Sstart_bit_0.maxcores $M _Sstop_bit_0.maxcores $M _Stx8_0.maxcores $M wait_for_clock_high.maxcores $M 1
	.globl	_i.i2c_master_if._Si2c_master_single_port_0._c0.read.maxcores
	.set	_i.i2c_master_if._Si2c_master_single_port_0._c0.read.maxtimers,_Shigh_pulse_sample_0.maxtimers $M _Sstart_bit_0.maxtimers $M _Sstop_bit_0.maxtimers $M _Stx8_0.maxtimers $M wait_for_clock_high.maxtimers $M 0
	.globl	_i.i2c_master_if._Si2c_master_single_port_0._c0.read.maxtimers
	.set	_i.i2c_master_if._Si2c_master_single_port_0._c0.read.maxchanends,_Shigh_pulse_sample_0.maxchanends $M _Sstart_bit_0.maxchanends $M _Sstop_bit_0.maxchanends $M _Stx8_0.maxchanends $M wait_for_clock_high.maxchanends $M 0
	.globl	_i.i2c_master_if._Si2c_master_single_port_0._c0.read.maxchanends
.Ltmp255:
	.size	_i.i2c_master_if._Si2c_master_single_port_0._c0.read, .Ltmp255-_i.i2c_master_if._Si2c_master_single_port_0._c0.read
.Lfunc_end10:
	.cfi_endproc

	.globl	_i.i2c_master_if._Si2c_master_single_port_0._c0.write
	.align	4
	.type	_i.i2c_master_if._Si2c_master_single_port_0._c0.write,@function
	.cc_top _i.i2c_master_if._Si2c_master_single_port_0._c0.write.function,_i.i2c_master_if._Si2c_master_single_port_0._c0.write
_i.i2c_master_if._Si2c_master_single_port_0._c0.write: # @_i.i2c_master_if._Si2c_master_single_port_0._c0.write
.Lfunc_begin11:
	.loc	2 242 0                 # C:/Users/user/workspace/lib_i2c/src/i2c_master_single_port.xc:242:0
	.cfi_startproc
	.issue_mode single
# BB#0:                                 # %allocas
	ENTSP_lu6 12
.Ltmp256:
	.cfi_def_cfa_offset 48
.Ltmp257:
	.cfi_offset 15, 0
	std r5, r4, sp[2]               # 4-byte Folded Spill
.Ltmp258:
	.cfi_offset 4, -32
.Ltmp259:
	.cfi_offset 5, -28
	std r7, r6, sp[3]               # 4-byte Folded Spill
.Ltmp260:
	.cfi_offset 6, -24
.Ltmp261:
	.cfi_offset 7, -20
	std r9, r8, sp[4]               # 4-byte Folded Spill
.Ltmp262:
	.cfi_offset 8, -16
.Ltmp263:
	.cfi_offset 9, -12
	stw r10, sp[10]                 # 4-byte Folded Spill
.Ltmp264:
	.cfi_offset 10, -8
	#DEBUG_VALUE: _i.i2c_master_if._Si2c_master_single_port_0._c0.write:p <- R0
	#DEBUG_VALUE: _i.i2c_master_if._Si2c_master_single_port_0._c0.write:device <- R1
	#DEBUG_VALUE: _i.i2c_master_if._Si2c_master_single_port_0._c0.write:buf <- R2
	#DEBUG_VALUE: _i.i2c_master_if._Si2c_master_single_port_0._c0.write:n <- R3
	mov r4, r3
.Ltmp265:
	#DEBUG_VALUE: _i.i2c_master_if._Si2c_master_single_port_0._c0.write:n <- R4
	mov r5, r2
.Ltmp266:
	#DEBUG_VALUE: _i.i2c_master_if._Si2c_master_single_port_0._c0.write:buf <- R5
	mov r6, r1
.Ltmp267:
	#DEBUG_VALUE: _i.i2c_master_if._Si2c_master_single_port_0._c0.write:device <- undef
	#DEBUG_VALUE: _i.i2c_master_if._Si2c_master_single_port_0._c0.write:device <- R6
	ldw r7, r0[0]
	ldw r9, r0[1]
.Ltmp268:
.LBB11_1:                               # %LoopTest
                                        # =>This Inner Loop Header: Depth=1
	#DEBUG_VALUE: _i.i2c_master_if._Si2c_master_single_port_0._c0.write:device <- undef
	#DEBUG_VALUE: _i.i2c_master_if._Si2c_master_single_port_0._c0.write:buf <- R5
	#DEBUG_VALUE: _i.i2c_master_if._Si2c_master_single_port_0._c0.write:n <- R4
	ldw r0, r7[0]
	bf r0, .LBB11_1
.Ltmp269:
# BB#2:                                 # %expdone
	#DEBUG_VALUE: _i.i2c_master_if._Si2c_master_single_port_0._c0.write:device <- undef
	#DEBUG_VALUE: _i.i2c_master_if._Si2c_master_single_port_0._c0.write:buf <- R5
	#DEBUG_VALUE: _i.i2c_master_if._Si2c_master_single_port_0._c0.write:n <- R4
	#DEBUG_VALUE: _i.i2c_master_if._Si2c_master_single_port_0._c0.write:send_stop_bit <- undef
	ldc r8, 0
	stw r8, r7[0]
.Ltmp270:
	#DEBUG_VALUE: ack <- 0
	.loc	2 249 0 prologue_end    # C:/Users/user/workspace/lib_i2c/src/i2c_master_single_port.xc:249:0
	ldw r0, r7[6]
	.loc	2 249 0                 # C:/Users/user/workspace/lib_i2c/src/i2c_master_single_port.xc:249:0
	ldw r1, r7[7]
	.loc	2 249 0                 # C:/Users/user/workspace/lib_i2c/src/i2c_master_single_port.xc:249:0
	ldw r2, r7[9]
	.loc	2 249 0                 # C:/Users/user/workspace/lib_i2c/src/i2c_master_single_port.xc:249:0
	ldw r3, r7[8]
	.loc	2 249 0                 # C:/Users/user/workspace/lib_i2c/src/i2c_master_single_port.xc:249:0
.Lxta.call_labels26:
	bl _Sstart_bit_0
.Ltmp271:
	#DEBUG_VALUE: fall_time <- R0
	.loc	2 249 0                 # C:/Users/user/workspace/lib_i2c/src/i2c_master_single_port.xc:249:0
	stw r0, sp[3]
	.loc	2 252 0                 # C:/Users/user/workspace/lib_i2c/src/i2c_master_single_port.xc:252:0
	ldw r0, r7[6]
.Ltmp272:
	.loc	2 252 0                 # C:/Users/user/workspace/lib_i2c/src/i2c_master_single_port.xc:252:0
	shl r1, r6, 1
	.loc	2 252 0                 # C:/Users/user/workspace/lib_i2c/src/i2c_master_single_port.xc:252:0
	ldw r2, r7[7]
	.loc	2 252 0                 # C:/Users/user/workspace/lib_i2c/src/i2c_master_single_port.xc:252:0
	ldw r3, r7[9]
	.loc	2 252 0                 # C:/Users/user/workspace/lib_i2c/src/i2c_master_single_port.xc:252:0
	ldw r11, r7[8]
	ldaw r10, sp[3]
.Ltmp273:
	#DEBUG_VALUE: fall_time <- [R10+0]
	.loc	2 252 0                 # C:/Users/user/workspace/lib_i2c/src/i2c_master_single_port.xc:252:0
	stw r10, sp[2]
	stw r11, sp[1]
.Lxta.call_labels27:
	bl _Stx8_0
	mov r6, r0
.Ltmp274:
	#DEBUG_VALUE: j <- 0
	#DEBUG_VALUE: ack <- R6
	bf r4, .LBB11_3
.Ltmp275:
.LBB11_6:                               # %LoopBody103
                                        # =>This Inner Loop Header: Depth=1
.Lxtalabel37:
	#DEBUG_VALUE: _i.i2c_master_if._Si2c_master_single_port_0._c0.write:device <- undef
	#DEBUG_VALUE: _i.i2c_master_if._Si2c_master_single_port_0._c0.write:buf <- R5
	#DEBUG_VALUE: _i.i2c_master_if._Si2c_master_single_port_0._c0.write:n <- R4
	#DEBUG_VALUE: _i.i2c_master_if._Si2c_master_single_port_0._c0.write:send_stop_bit <- undef
	bt r6, .LBB11_3
.Ltmp276:
# BB#7:                                 # %afterboundcheck
                                        #   in Loop: Header=BB11_6 Depth=1
.Lxtalabel38:
	#DEBUG_VALUE: _i.i2c_master_if._Si2c_master_single_port_0._c0.write:device <- undef
	#DEBUG_VALUE: _i.i2c_master_if._Si2c_master_single_port_0._c0.write:buf <- R5
	#DEBUG_VALUE: _i.i2c_master_if._Si2c_master_single_port_0._c0.write:n <- R4
	#DEBUG_VALUE: _i.i2c_master_if._Si2c_master_single_port_0._c0.write:send_stop_bit <- undef
	.loc	2 260 0                 # C:/Users/user/workspace/lib_i2c/src/i2c_master_single_port.xc:260:0
	ldw r0, r7[6]
	.loc	2 260 0                 # C:/Users/user/workspace/lib_i2c/src/i2c_master_single_port.xc:260:0
	ld8u r1, r5[r8]
	.loc	2 260 0                 # C:/Users/user/workspace/lib_i2c/src/i2c_master_single_port.xc:260:0
	ldw r2, r7[7]
	.loc	2 260 0                 # C:/Users/user/workspace/lib_i2c/src/i2c_master_single_port.xc:260:0
	ldw r3, r7[9]
	.loc	2 260 0                 # C:/Users/user/workspace/lib_i2c/src/i2c_master_single_port.xc:260:0
	ldw r11, r7[8]
.Ltmp277:
	#DEBUG_VALUE: fall_time <- [R10+0]
	.loc	2 260 0                 # C:/Users/user/workspace/lib_i2c/src/i2c_master_single_port.xc:260:0
	stw r10, sp[2]
	stw r11, sp[1]
.Lxta.call_labels28:
	bl _Stx8_0
	mov r6, r0
.Ltmp278:
	#DEBUG_VALUE: ack <- R6
	.loc	2 255 0                 # C:/Users/user/workspace/lib_i2c/src/i2c_master_single_port.xc:255:0
	add r8, r8, 1
.Ltmp279:
	#DEBUG_VALUE: j <- R8
	.loc	2 255 0                 # C:/Users/user/workspace/lib_i2c/src/i2c_master_single_port.xc:255:0
	lsu r0, r8, r4
.Lxta.loop_labels8:
	# LOOPMARKER 0
	bt r0, .LBB11_6
.Ltmp280:
.LBB11_3:                               # %ifdone98
.Lxtalabel39:
	#DEBUG_VALUE: _i.i2c_master_if._Si2c_master_single_port_0._c0.write:device <- undef
	#DEBUG_VALUE: _i.i2c_master_if._Si2c_master_single_port_0._c0.write:send_stop_bit <- undef
	#DEBUG_VALUE: j <- 0
	ldw r4, sp[13]
	#DEBUG_VALUE: _i.i2c_master_if._Si2c_master_single_port_0._c0.write:num_bytes_sent <- R4
	ldw r0, sp[14]
	bf r0, .LBB11_5
.Ltmp281:
# BB#4:                                 # %iftrue127
.Lxtalabel40:
	#DEBUG_VALUE: _i.i2c_master_if._Si2c_master_single_port_0._c0.write:device <- undef
	#DEBUG_VALUE: j <- 0
	#DEBUG_VALUE: _i.i2c_master_if._Si2c_master_single_port_0._c0.write:num_bytes_sent <- R4
	.loc	2 264 0                 # C:/Users/user/workspace/lib_i2c/src/i2c_master_single_port.xc:264:0
	ldw r0, r7[6]
	.loc	2 264 0                 # C:/Users/user/workspace/lib_i2c/src/i2c_master_single_port.xc:264:0
	ldw r1, r7[7]
	.loc	2 264 0                 # C:/Users/user/workspace/lib_i2c/src/i2c_master_single_port.xc:264:0
	ldw r2, r7[9]
	.loc	2 264 0                 # C:/Users/user/workspace/lib_i2c/src/i2c_master_single_port.xc:264:0
	ldw r3, r7[8]
	.loc	2 264 0                 # C:/Users/user/workspace/lib_i2c/src/i2c_master_single_port.xc:264:0
	ldw r11, sp[3]
	.loc	2 264 0                 # C:/Users/user/workspace/lib_i2c/src/i2c_master_single_port.xc:264:0
	stw r11, sp[1]
.Lxta.call_labels29:
	bl _Sstop_bit_0
	mkmsk r9, 32
.Ltmp282:
.LBB11_5:                               # %ifdone128
.Lxtalabel41:
	#DEBUG_VALUE: _i.i2c_master_if._Si2c_master_single_port_0._c0.write:device <- undef
	#DEBUG_VALUE: j <- 0
	#DEBUG_VALUE: _i.i2c_master_if._Si2c_master_single_port_0._c0.write:num_bytes_sent <- R4
	stw r9, r7[10]
	.loc	2 270 0                 # C:/Users/user/workspace/lib_i2c/src/i2c_master_single_port.xc:270:0
	stw r8, r4[0]
	.loc	2 272 0                 # C:/Users/user/workspace/lib_i2c/src/i2c_master_single_port.xc:272:0
	eq r0, r6, 0
	mkmsk r1, 1
	stw r1, r7[0]
	ldw r10, sp[10]                 # 4-byte Folded Reload
	ldd r9, r8, sp[4]               # 4-byte Folded Reload
	ldd r7, r6, sp[3]               # 4-byte Folded Reload
	ldd r5, r4, sp[2]               # 4-byte Folded Reload
.Ltmp283:
	retsp 12
	# RETURN_REG_HOLDER
.Ltmp284:
	.cc_bottom _i.i2c_master_if._Si2c_master_single_port_0._c0.write.function
	.set	_i.i2c_master_if._Si2c_master_single_port_0._c0.write.nstackwords,((_Sstart_bit_0.nstackwords $M _Sstop_bit_0.nstackwords $M _Stx8_0.nstackwords) + 12)
	.globl	_i.i2c_master_if._Si2c_master_single_port_0._c0.write.nstackwords
	.set	_i.i2c_master_if._Si2c_master_single_port_0._c0.write.maxcores,_Sstart_bit_0.maxcores $M _Sstop_bit_0.maxcores $M _Stx8_0.maxcores $M 1
	.globl	_i.i2c_master_if._Si2c_master_single_port_0._c0.write.maxcores
	.set	_i.i2c_master_if._Si2c_master_single_port_0._c0.write.maxtimers,_Sstart_bit_0.maxtimers $M _Sstop_bit_0.maxtimers $M _Stx8_0.maxtimers $M 0
	.globl	_i.i2c_master_if._Si2c_master_single_port_0._c0.write.maxtimers
	.set	_i.i2c_master_if._Si2c_master_single_port_0._c0.write.maxchanends,_Sstart_bit_0.maxchanends $M _Sstop_bit_0.maxchanends $M _Stx8_0.maxchanends $M 0
	.globl	_i.i2c_master_if._Si2c_master_single_port_0._c0.write.maxchanends
.Ltmp285:
	.size	_i.i2c_master_if._Si2c_master_single_port_0._c0.write, .Ltmp285-_i.i2c_master_if._Si2c_master_single_port_0._c0.write
.Lfunc_end11:
	.cfi_endproc

	.globl	_i.i2c_master_if._Si2c_master_single_port_0.0.shutdown
	.align	4
	.type	_i.i2c_master_if._Si2c_master_single_port_0.0.shutdown,@function
	.cc_top _i.i2c_master_if._Si2c_master_single_port_0.0.shutdown.function,_i.i2c_master_if._Si2c_master_single_port_0.0.shutdown
_i.i2c_master_if._Si2c_master_single_port_0.0.shutdown: # @_i.i2c_master_if._Si2c_master_single_port_0.0.shutdown
	.cfi_startproc
	.issue_mode single
# BB#0:                                 # %allocas
	ENTSP_lu6 0
	#DEBUG_VALUE: _i.i2c_master_if._Si2c_master_single_port_0.0.shutdown:p <- R0
	ldw r0, r0[0]
.LBB12_1:                               # %LoopTest
                                        # =>This Inner Loop Header: Depth=1
	ldw r1, r0[0]
	bf r1, .LBB12_1
# BB#2:                                 # %ifdone
	ldc r1, 0
	stw r1, r0[0]
	retsp 0
	# RETURN_REG_HOLDER
	.cc_bottom _i.i2c_master_if._Si2c_master_single_port_0.0.shutdown.function
	.set	_i.i2c_master_if._Si2c_master_single_port_0.0.shutdown.nstackwords,0
	.globl	_i.i2c_master_if._Si2c_master_single_port_0.0.shutdown.nstackwords
	.set	_i.i2c_master_if._Si2c_master_single_port_0.0.shutdown.maxcores,1
	.globl	_i.i2c_master_if._Si2c_master_single_port_0.0.shutdown.maxcores
	.set	_i.i2c_master_if._Si2c_master_single_port_0.0.shutdown.maxtimers,0
	.globl	_i.i2c_master_if._Si2c_master_single_port_0.0.shutdown.maxtimers
	.set	_i.i2c_master_if._Si2c_master_single_port_0.0.shutdown.maxchanends,0
	.globl	_i.i2c_master_if._Si2c_master_single_port_0.0.shutdown.maxchanends
.Ltmp286:
	.size	_i.i2c_master_if._Si2c_master_single_port_0.0.shutdown, .Ltmp286-_i.i2c_master_if._Si2c_master_single_port_0.0.shutdown
	.cfi_endproc

	.globl	_i.i2c_master_if._Si2c_master_single_port_0.0.send_stop_bit
	.align	4
	.type	_i.i2c_master_if._Si2c_master_single_port_0.0.send_stop_bit,@function
	.cc_top _i.i2c_master_if._Si2c_master_single_port_0.0.send_stop_bit.function,_i.i2c_master_if._Si2c_master_single_port_0.0.send_stop_bit
_i.i2c_master_if._Si2c_master_single_port_0.0.send_stop_bit: # @_i.i2c_master_if._Si2c_master_single_port_0.0.send_stop_bit
.Lfunc_begin13:
	.loc	2 277 0                 # C:/Users/user/workspace/lib_i2c/src/i2c_master_single_port.xc:277:0
	.cfi_startproc
	.issue_mode single
# BB#0:                                 # %allocas
	ENTSP_lu6 4
.Ltmp287:
	.cfi_def_cfa_offset 16
.Ltmp288:
	.cfi_offset 15, 0
	stw r4, sp[2]                   # 4-byte Folded Spill
.Ltmp289:
	.cfi_offset 4, -8
	#DEBUG_VALUE: _i.i2c_master_if._Si2c_master_single_port_0.0.send_stop_bit:p <- R0
	ldw r4, r0[0]
.Ltmp290:
.LBB13_1:                               # %LoopTest
                                        # =>This Inner Loop Header: Depth=1
	ldw r0, r4[0]
	bf r0, .LBB13_1
# BB#2:                                 # %ifdone
	.loc	2 280 0 prologue_end    # C:/Users/user/workspace/lib_i2c/src/i2c_master_single_port.xc:280:0
.Ltmp291:
	gettime r11
.Ltmp292:
	#DEBUG_VALUE: fall_time <- R11
	.loc	2 281 0                 # C:/Users/user/workspace/lib_i2c/src/i2c_master_single_port.xc:281:0
	ldw r0, r4[6]
	.loc	2 281 0                 # C:/Users/user/workspace/lib_i2c/src/i2c_master_single_port.xc:281:0
	ldw r1, r4[7]
	.loc	2 281 0                 # C:/Users/user/workspace/lib_i2c/src/i2c_master_single_port.xc:281:0
	ldw r2, r4[9]
	.loc	2 281 0                 # C:/Users/user/workspace/lib_i2c/src/i2c_master_single_port.xc:281:0
	ldw r3, r4[8]
	.loc	2 281 0                 # C:/Users/user/workspace/lib_i2c/src/i2c_master_single_port.xc:281:0
	stw r11, sp[1]
.Lxta.call_labels30:
	bl _Sstop_bit_0
.Ltmp293:
	mkmsk r0, 32
	.loc	2 282 0                 # C:/Users/user/workspace/lib_i2c/src/i2c_master_single_port.xc:282:0
	stw r0, r4[10]
	clre
	ldw r4, sp[2]                   # 4-byte Folded Reload
	retsp 4
	# RETURN_REG_HOLDER
.Ltmp294:
	.cc_bottom _i.i2c_master_if._Si2c_master_single_port_0.0.send_stop_bit.function
	.set	_i.i2c_master_if._Si2c_master_single_port_0.0.send_stop_bit.nstackwords,(_Sstop_bit_0.nstackwords + 4)
	.globl	_i.i2c_master_if._Si2c_master_single_port_0.0.send_stop_bit.nstackwords
	.set	_i.i2c_master_if._Si2c_master_single_port_0.0.send_stop_bit.maxcores,_Sstop_bit_0.maxcores $M 1
	.globl	_i.i2c_master_if._Si2c_master_single_port_0.0.send_stop_bit.maxcores
	.set	_i.i2c_master_if._Si2c_master_single_port_0.0.send_stop_bit.maxtimers,_Sstop_bit_0.maxtimers $M 0
	.globl	_i.i2c_master_if._Si2c_master_single_port_0.0.send_stop_bit.maxtimers
	.set	_i.i2c_master_if._Si2c_master_single_port_0.0.send_stop_bit.maxchanends,_Sstop_bit_0.maxchanends $M 0
	.globl	_i.i2c_master_if._Si2c_master_single_port_0.0.send_stop_bit.maxchanends
.Ltmp295:
	.size	_i.i2c_master_if._Si2c_master_single_port_0.0.send_stop_bit, .Ltmp295-_i.i2c_master_if._Si2c_master_single_port_0.0.send_stop_bit
.Lfunc_end13:
	.cfi_endproc

	.section	.cp.rodata.cst4,"aMc",@progbits,4
	.cc_top .LCPI14_0.data,.LCPI14_0
	.align	4
	.type	.LCPI14_0,@object
	.size	.LCPI14_0, 4
.LCPI14_0:
	.long	4294967288              # 0xfffffff8
	.cc_bottom .LCPI14_0.data
	.text
	.globl	_i.i2c_master_if._Si2c_master_single_port_0.0.read
	.align	4
	.type	_i.i2c_master_if._Si2c_master_single_port_0.0.read,@function
	.cc_top _i.i2c_master_if._Si2c_master_single_port_0.0.read.function,_i.i2c_master_if._Si2c_master_single_port_0.0.read
_i.i2c_master_if._Si2c_master_single_port_0.0.read: # @_i.i2c_master_if._Si2c_master_single_port_0.0.read
.Lfunc_begin14:
	.loc	2 190 0                 # C:/Users/user/workspace/lib_i2c/src/i2c_master_single_port.xc:190:0
	.cfi_startproc
	.issue_mode single
# BB#0:                                 # %allocas
	ENTSP_lu6 18
.Ltmp296:
	.cfi_def_cfa_offset 72
.Ltmp297:
	.cfi_offset 15, 0
	std r5, r4, sp[5]               # 4-byte Folded Spill
.Ltmp298:
	.cfi_offset 4, -32
.Ltmp299:
	.cfi_offset 5, -28
	std r7, r6, sp[6]               # 4-byte Folded Spill
.Ltmp300:
	.cfi_offset 6, -24
.Ltmp301:
	.cfi_offset 7, -20
	std r9, r8, sp[7]               # 4-byte Folded Spill
.Ltmp302:
	.cfi_offset 8, -16
.Ltmp303:
	.cfi_offset 9, -12
	stw r10, sp[16]                 # 4-byte Folded Spill
.Ltmp304:
	.cfi_offset 10, -8
	#DEBUG_VALUE: _i.i2c_master_if._Si2c_master_single_port_0.0.read:p <- R0
	#DEBUG_VALUE: _i.i2c_master_if._Si2c_master_single_port_0.0.read:device <- R1
	#DEBUG_VALUE: _i.i2c_master_if._Si2c_master_single_port_0.0.read:buf <- R2
	#DEBUG_VALUE: _i.i2c_master_if._Si2c_master_single_port_0.0.read:m <- R3
	stw r3, sp[8]                   # 4-byte Folded Spill
.Ltmp305:
	#DEBUG_VALUE: _i.i2c_master_if._Si2c_master_single_port_0.0.read:m <- [SP+32]
	stw r2, sp[7]                   # 4-byte Folded Spill
.Ltmp306:
	#DEBUG_VALUE: _i.i2c_master_if._Si2c_master_single_port_0.0.read:buf <- [SP+28]
	mov r6, r1
.Ltmp307:
	#DEBUG_VALUE: _i.i2c_master_if._Si2c_master_single_port_0.0.read:device <- undef
	#DEBUG_VALUE: _i.i2c_master_if._Si2c_master_single_port_0.0.read:device <- R6
	ldw r8, r0[0]
	ldw r0, r0[1]
.Ltmp308:
	stw r0, sp[4]                   # 4-byte Folded Spill
.Ltmp309:
.LBB14_1:                               # %LoopTest
                                        # =>This Inner Loop Header: Depth=1
	#DEBUG_VALUE: _i.i2c_master_if._Si2c_master_single_port_0.0.read:device <- undef
	#DEBUG_VALUE: _i.i2c_master_if._Si2c_master_single_port_0.0.read:buf <- [SP+28]
	#DEBUG_VALUE: _i.i2c_master_if._Si2c_master_single_port_0.0.read:m <- [SP+32]
	ldw r0, r8[0]
	bf r0, .LBB14_1
.Ltmp310:
# BB#2:                                 # %expdone
	#DEBUG_VALUE: _i.i2c_master_if._Si2c_master_single_port_0.0.read:device <- undef
	#DEBUG_VALUE: _i.i2c_master_if._Si2c_master_single_port_0.0.read:buf <- [SP+28]
	#DEBUG_VALUE: _i.i2c_master_if._Si2c_master_single_port_0.0.read:m <- [SP+32]
	#DEBUG_VALUE: _i.i2c_master_if._Si2c_master_single_port_0.0.read:send_stop_bit <- undef
	.loc	2 200 0 prologue_end    # C:/Users/user/workspace/lib_i2c/src/i2c_master_single_port.xc:200:0
	ldw r0, r8[6]
	.loc	2 200 0                 # C:/Users/user/workspace/lib_i2c/src/i2c_master_single_port.xc:200:0
	ldw r1, r8[7]
	.loc	2 200 0                 # C:/Users/user/workspace/lib_i2c/src/i2c_master_single_port.xc:200:0
	ldw r2, r8[9]
	.loc	2 200 0                 # C:/Users/user/workspace/lib_i2c/src/i2c_master_single_port.xc:200:0
	ldw r3, r8[8]
	.loc	2 200 0                 # C:/Users/user/workspace/lib_i2c/src/i2c_master_single_port.xc:200:0
.Lxta.call_labels31:
	bl _Sstart_bit_0
.Ltmp311:
	#DEBUG_VALUE: fall_time <- R0
	.loc	2 200 0                 # C:/Users/user/workspace/lib_i2c/src/i2c_master_single_port.xc:200:0
	stw r0, sp[9]
	.loc	2 202 0                 # C:/Users/user/workspace/lib_i2c/src/i2c_master_single_port.xc:202:0
	ldw r0, r8[6]
.Ltmp312:
	.loc	2 202 0                 # C:/Users/user/workspace/lib_i2c/src/i2c_master_single_port.xc:202:0
	shl r1, r6, 1
	mkmsk r2, 1
	.loc	2 202 0                 # C:/Users/user/workspace/lib_i2c/src/i2c_master_single_port.xc:202:0
	or r1, r1, r2
	.loc	2 202 0                 # C:/Users/user/workspace/lib_i2c/src/i2c_master_single_port.xc:202:0
	ldw r2, r8[7]
	.loc	2 202 0                 # C:/Users/user/workspace/lib_i2c/src/i2c_master_single_port.xc:202:0
	ldw r3, r8[9]
	.loc	2 202 0                 # C:/Users/user/workspace/lib_i2c/src/i2c_master_single_port.xc:202:0
	ldw r11, r8[8]
	ldaw r7, sp[9]
.Ltmp313:
	#DEBUG_VALUE: fall_time <- [R7+0]
	.loc	2 202 0                 # C:/Users/user/workspace/lib_i2c/src/i2c_master_single_port.xc:202:0
	stw r7, sp[2]
	stw r11, sp[1]
.Lxta.call_labels32:
	bl _Stx8_0
.Ltmp314:
	#DEBUG_VALUE: ack <- R0
	.loc	2 204 7                 # C:/Users/user/workspace/lib_i2c/src/i2c_master_single_port.xc:204:7
	eq r0, r0, 0
.Ltmp315:
	#DEBUG_VALUE: j <- 0
	.loc	2 204 7                 # C:/Users/user/workspace/lib_i2c/src/i2c_master_single_port.xc:204:7
	stw r0, sp[5]                   # 4-byte Folded Spill
	ldw r0, sp[8]                   # 4-byte Folded Reload
	bf r0, .LBB14_10
.Ltmp316:
# BB#3:                                 # %expdone
	#DEBUG_VALUE: _i.i2c_master_if._Si2c_master_single_port_0.0.read:device <- undef
	#DEBUG_VALUE: _i.i2c_master_if._Si2c_master_single_port_0.0.read:buf <- [SP+28]
	#DEBUG_VALUE: _i.i2c_master_if._Si2c_master_single_port_0.0.read:m <- [SP+32]
	#DEBUG_VALUE: _i.i2c_master_if._Si2c_master_single_port_0.0.read:send_stop_bit <- undef
	#DEBUG_VALUE: fall_time <- [R7+0]
	.loc	2 204 7                 # C:/Users/user/workspace/lib_i2c/src/i2c_master_single_port.xc:204:7
	ldw r0, sp[5]                   # 4-byte Folded Reload
	eq r0, r0, 0
	bt r0, .LBB14_10
.Ltmp317:
# BB#4:                                 # %LoopBody79.preheader
	#DEBUG_VALUE: _i.i2c_master_if._Si2c_master_single_port_0.0.read:device <- undef
	#DEBUG_VALUE: _i.i2c_master_if._Si2c_master_single_port_0.0.read:buf <- [SP+28]
	#DEBUG_VALUE: _i.i2c_master_if._Si2c_master_single_port_0.0.read:m <- [SP+32]
	#DEBUG_VALUE: _i.i2c_master_if._Si2c_master_single_port_0.0.read:send_stop_bit <- undef
	#DEBUG_VALUE: fall_time <- [R7+0]
	.loc	2 216 0                 # C:/Users/user/workspace/lib_i2c/src/i2c_master_single_port.xc:216:0
	get r11, id
	.loc	2 216 0                 # C:/Users/user/workspace/lib_i2c/src/i2c_master_single_port.xc:216:0
	ldaw r0, dp[__timers]
	.loc	2 216 0                 # C:/Users/user/workspace/lib_i2c/src/i2c_master_single_port.xc:216:0
	ldw r10, r0[r11]
	.loc	2 218 11                # C:/Users/user/workspace/lib_i2c/src/i2c_master_single_port.xc:218:11
.Ltmp318:
	ldw r0, sp[8]                   # 4-byte Folded Reload
	sub r0, r0, 1
	stw r0, sp[6]                   # 4-byte Folded Spill
	ldc r4, 0
	ldc r6, 510
.Ltmp319:
.LBB14_5:                               # %LoopBody79
                                        # =>This Loop Header: Depth=1
                                        #     Child Loop BB14_6 Depth 2
.Lxtalabel42:
	#DEBUG_VALUE: _i.i2c_master_if._Si2c_master_single_port_0.0.read:device <- undef
	#DEBUG_VALUE: _i.i2c_master_if._Si2c_master_single_port_0.0.read:buf <- [SP+28]
	#DEBUG_VALUE: _i.i2c_master_if._Si2c_master_single_port_0.0.read:m <- [SP+32]
	#DEBUG_VALUE: _i.i2c_master_if._Si2c_master_single_port_0.0.read:send_stop_bit <- undef
	#DEBUG_VALUE: data <- 0
	#DEBUG_VALUE: i <- 8
	ldw r9, cp[.LCPI14_0]
	ldc r5, 0
.Ltmp320:
.LBB14_6:                               # %LoopBody88
                                        #   Parent Loop BB14_5 Depth=1
                                        # =>  This Inner Loop Header: Depth=2
.Lxtalabel43:
	#DEBUG_VALUE: _i.i2c_master_if._Si2c_master_single_port_0.0.read:device <- undef
	#DEBUG_VALUE: _i.i2c_master_if._Si2c_master_single_port_0.0.read:buf <- [SP+28]
	#DEBUG_VALUE: _i.i2c_master_if._Si2c_master_single_port_0.0.read:m <- [SP+32]
	#DEBUG_VALUE: _i.i2c_master_if._Si2c_master_single_port_0.0.read:send_stop_bit <- undef
	#DEBUG_VALUE: data <- 0
	#DEBUG_VALUE: i <- 8
	.loc	2 209 0                 # C:/Users/user/workspace/lib_i2c/src/i2c_master_single_port.xc:209:0
	ldw r0, r8[6]
	.loc	2 209 0                 # C:/Users/user/workspace/lib_i2c/src/i2c_master_single_port.xc:209:0
	ldw r1, r8[7]
	.loc	2 209 0                 # C:/Users/user/workspace/lib_i2c/src/i2c_master_single_port.xc:209:0
	ldw r2, r8[9]
	.loc	2 209 0                 # C:/Users/user/workspace/lib_i2c/src/i2c_master_single_port.xc:209:0
	ldw r3, r8[8]
.Ltmp321:
	#DEBUG_VALUE: fall_time <- [R7+0]
	.loc	2 209 0                 # C:/Users/user/workspace/lib_i2c/src/i2c_master_single_port.xc:209:0
	stw r7, sp[1]
.Lxta.call_labels33:
	bl _Shigh_pulse_sample_0
.Ltmp322:
	#DEBUG_VALUE: temp <- R0
	.loc	2 212 0                 # C:/Users/user/workspace/lib_i2c/src/i2c_master_single_port.xc:212:0
	shl r1, r5, 1
	.loc	2 212 0                 # C:/Users/user/workspace/lib_i2c/src/i2c_master_single_port.xc:212:0
	and r1, r1, r6
	.loc	2 212 0                 # C:/Users/user/workspace/lib_i2c/src/i2c_master_single_port.xc:212:0
	or r5, r0, r1
.Ltmp323:
	.loc	2 208 0                 # C:/Users/user/workspace/lib_i2c/src/i2c_master_single_port.xc:208:0
	add r9, r9, 1
.xtaloop 8
	# LOOPMARKER 1
.Lxta.loop_labels9:
	# LOOPMARKER 0
	.loc	2 208 0                 # C:/Users/user/workspace/lib_i2c/src/i2c_master_single_port.xc:208:0
	bt r9, .LBB14_6
.Ltmp324:
# BB#7:                                 # %afterboundcheck
                                        #   in Loop: Header=BB14_5 Depth=1
.Lxtalabel44:
	#DEBUG_VALUE: _i.i2c_master_if._Si2c_master_single_port_0.0.read:device <- undef
	#DEBUG_VALUE: _i.i2c_master_if._Si2c_master_single_port_0.0.read:buf <- [SP+28]
	#DEBUG_VALUE: _i.i2c_master_if._Si2c_master_single_port_0.0.read:m <- [SP+32]
	#DEBUG_VALUE: _i.i2c_master_if._Si2c_master_single_port_0.0.read:send_stop_bit <- undef
	#DEBUG_VALUE: fall_time <- [R7+0]
	#DEBUG_VALUE: data <- 0
	.loc	2 214 0                 # C:/Users/user/workspace/lib_i2c/src/i2c_master_single_port.xc:214:0
	ldw r0, sp[7]                   # 4-byte Folded Reload
	st8 r5, r0[r4]
	.loc	2 216 0                 # C:/Users/user/workspace/lib_i2c/src/i2c_master_single_port.xc:216:0
	ldw r3, sp[9]
	.loc	2 216 0                 # C:/Users/user/workspace/lib_i2c/src/i2c_master_single_port.xc:216:0
	ldw r2, r8[7]
	.loc	2 216 0                 # C:/Users/user/workspace/lib_i2c/src/i2c_master_single_port.xc:216:0
	shr r0, r2, 2
	.loc	2 216 0                 # C:/Users/user/workspace/lib_i2c/src/i2c_master_single_port.xc:216:0
	add r0, r0, r3
	.loc	2 216 0                 # C:/Users/user/workspace/lib_i2c/src/i2c_master_single_port.xc:216:0
	setd res[r10], r0
	.loc	2 216 0                 # C:/Users/user/workspace/lib_i2c/src/i2c_master_single_port.xc:216:0
	setc res[r10], 9
	.loc	2 216 0                 # C:/Users/user/workspace/lib_i2c/src/i2c_master_single_port.xc:216:0
.Ltmp325:
.Lxta.endpoint_labels12:
	in r0, res[r10]
	.loc	2 219 59                # C:/Users/user/workspace/lib_i2c/src/i2c_master_single_port.xc:219:59
	ldw r0, r8[6]
	.loc	2 218 11                # C:/Users/user/workspace/lib_i2c/src/i2c_master_single_port.xc:218:11
	ldw r1, sp[6]                   # 4-byte Folded Reload
	eq r1, r4, r1
	bf r1, .LBB14_13
.Ltmp326:
# BB#8:                                 # %iftrue116
                                        #   in Loop: Header=BB14_5 Depth=1
.Lxtalabel45:
	#DEBUG_VALUE: _i.i2c_master_if._Si2c_master_single_port_0.0.read:device <- undef
	#DEBUG_VALUE: _i.i2c_master_if._Si2c_master_single_port_0.0.read:buf <- [SP+28]
	#DEBUG_VALUE: _i.i2c_master_if._Si2c_master_single_port_0.0.read:m <- [SP+32]
	#DEBUG_VALUE: _i.i2c_master_if._Si2c_master_single_port_0.0.read:send_stop_bit <- undef
	#DEBUG_VALUE: fall_time <- [R7+0]
	#DEBUG_VALUE: data <- 0
	.loc	2 219 59                # C:/Users/user/workspace/lib_i2c/src/i2c_master_single_port.xc:219:59
	ldw r11, r8[8]
	.loc	2 219 59                # C:/Users/user/workspace/lib_i2c/src/i2c_master_single_port.xc:219:59
	ldw r1, r8[9]
	.loc	2 219 59                # C:/Users/user/workspace/lib_i2c/src/i2c_master_single_port.xc:219:59
	or r11, r11, r1
	ldc r5, 12
	.loc	2 219 59                # C:/Users/user/workspace/lib_i2c/src/i2c_master_single_port.xc:219:59
	or r11, r11, r5
	bu .LBB14_9
.Ltmp327:
.LBB14_13:                              # %iffalse124
                                        #   in Loop: Header=BB14_5 Depth=1
.Lxtalabel46:
	#DEBUG_VALUE: _i.i2c_master_if._Si2c_master_single_port_0.0.read:device <- undef
	#DEBUG_VALUE: _i.i2c_master_if._Si2c_master_single_port_0.0.read:buf <- [SP+28]
	#DEBUG_VALUE: _i.i2c_master_if._Si2c_master_single_port_0.0.read:m <- [SP+32]
	#DEBUG_VALUE: _i.i2c_master_if._Si2c_master_single_port_0.0.read:send_stop_bit <- undef
	#DEBUG_VALUE: fall_time <- [R7+0]
	#DEBUG_VALUE: data <- 0
	.loc	2 221 48                # C:/Users/user/workspace/lib_i2c/src/i2c_master_single_port.xc:221:48
	ldw r1, r8[9]
	ldc r5, 12
	.loc	2 221 48                # C:/Users/user/workspace/lib_i2c/src/i2c_master_single_port.xc:221:48
	or r11, r1, r5
.Ltmp328:
.LBB14_9:                               # %ifdone117
                                        #   in Loop: Header=BB14_5 Depth=1
.Lxtalabel47:
	.loc	2 219 59                # C:/Users/user/workspace/lib_i2c/src/i2c_master_single_port.xc:219:59
.Lxta.endpoint_labels13:
	out res[r0], r11
	#DEBUG_VALUE: _i.i2c_master_if._Si2c_master_single_port_0.0.read:device <- undef
.Ltmp329:
	#DEBUG_VALUE: _i.i2c_master_if._Si2c_master_single_port_0.0.read:buf <- [SP+28]
	#DEBUG_VALUE: _i.i2c_master_if._Si2c_master_single_port_0.0.read:m <- [SP+32]
	#DEBUG_VALUE: _i.i2c_master_if._Si2c_master_single_port_0.0.read:send_stop_bit <- undef
	#DEBUG_VALUE: fall_time <- [R7+0]
	#DEBUG_VALUE: data <- 0
	.loc	2 225 0                 # C:/Users/user/workspace/lib_i2c/src/i2c_master_single_port.xc:225:0
	shr r11, r2, 1
	.loc	2 225 0                 # C:/Users/user/workspace/lib_i2c/src/i2c_master_single_port.xc:225:0
	add r3, r11, r3
	.loc	2 225 0                 # C:/Users/user/workspace/lib_i2c/src/i2c_master_single_port.xc:225:0
	shr r11, r2, 5
	.loc	2 225 0                 # C:/Users/user/workspace/lib_i2c/src/i2c_master_single_port.xc:225:0
	add r3, r3, r11
	.loc	2 225 0                 # C:/Users/user/workspace/lib_i2c/src/i2c_master_single_port.xc:225:0
	setd res[r10], r3
	.loc	2 225 0                 # C:/Users/user/workspace/lib_i2c/src/i2c_master_single_port.xc:225:0
	setc res[r10], 9
	.loc	2 225 0                 # C:/Users/user/workspace/lib_i2c/src/i2c_master_single_port.xc:225:0
.Ltmp330:
.Lxta.endpoint_labels14:
	in r3, res[r10]
	.loc	2 226 0                 # C:/Users/user/workspace/lib_i2c/src/i2c_master_single_port.xc:226:0
	add r3, r2, 1
	.loc	2 226 0                 # C:/Users/user/workspace/lib_i2c/src/i2c_master_single_port.xc:226:0
	mov r2, r7
.Lxta.call_labels34:
	bl wait_for_clock_high
	.loc	2 227 46                # C:/Users/user/workspace/lib_i2c/src/i2c_master_single_port.xc:227:46
	ldw r0, r8[6]
	.loc	2 227 46                # C:/Users/user/workspace/lib_i2c/src/i2c_master_single_port.xc:227:46
	ldw r1, r8[8]
	.loc	2 227 46                # C:/Users/user/workspace/lib_i2c/src/i2c_master_single_port.xc:227:46
	or r1, r1, r5
	.loc	2 227 46                # C:/Users/user/workspace/lib_i2c/src/i2c_master_single_port.xc:227:46
.Lxta.endpoint_labels15:
	out res[r0], r1
	.loc	2 228 0                 # C:/Users/user/workspace/lib_i2c/src/i2c_master_single_port.xc:228:0
	ldw r0, sp[9]
	.loc	2 228 0                 # C:/Users/user/workspace/lib_i2c/src/i2c_master_single_port.xc:228:0
	ldw r1, r8[7]
	.loc	2 228 0                 # C:/Users/user/workspace/lib_i2c/src/i2c_master_single_port.xc:228:0
	add r0, r1, r0
.Ltmp331:
	#DEBUG_VALUE: fall_time <- R0
	.loc	2 228 0                 # C:/Users/user/workspace/lib_i2c/src/i2c_master_single_port.xc:228:0
	stw r0, sp[9]
.Ltmp332:
	.loc	2 205 0                 # C:/Users/user/workspace/lib_i2c/src/i2c_master_single_port.xc:205:0
	add r4, r4, 1
.Ltmp333:
	#DEBUG_VALUE: j <- R4
	.loc	2 205 0                 # C:/Users/user/workspace/lib_i2c/src/i2c_master_single_port.xc:205:0
	ldw r0, sp[8]                   # 4-byte Folded Reload
.Ltmp334:
	lsu r0, r4, r0
.Lxta.loop_labels10:
	# LOOPMARKER 2
	bt r0, .LBB14_5
.Ltmp335:
.LBB14_10:                              # %ifdone69
.Lxtalabel48:
	#DEBUG_VALUE: _i.i2c_master_if._Si2c_master_single_port_0.0.read:device <- undef
	#DEBUG_VALUE: _i.i2c_master_if._Si2c_master_single_port_0.0.read:send_stop_bit <- undef
	ldw r0, sp[4]                   # 4-byte Folded Reload
	ldw r1, sp[19]
	bf r1, .LBB14_12
# BB#11:                                # %iftrue174
.Lxtalabel49:
	#DEBUG_VALUE: _i.i2c_master_if._Si2c_master_single_port_0.0.read:device <- undef
	.loc	2 232 0                 # C:/Users/user/workspace/lib_i2c/src/i2c_master_single_port.xc:232:0
	ldw r0, r8[6]
	.loc	2 232 0                 # C:/Users/user/workspace/lib_i2c/src/i2c_master_single_port.xc:232:0
	ldw r1, r8[7]
	.loc	2 232 0                 # C:/Users/user/workspace/lib_i2c/src/i2c_master_single_port.xc:232:0
	ldw r2, r8[9]
	.loc	2 232 0                 # C:/Users/user/workspace/lib_i2c/src/i2c_master_single_port.xc:232:0
	ldw r3, r8[8]
	.loc	2 232 0                 # C:/Users/user/workspace/lib_i2c/src/i2c_master_single_port.xc:232:0
	ldw r11, sp[9]
	.loc	2 232 0                 # C:/Users/user/workspace/lib_i2c/src/i2c_master_single_port.xc:232:0
	stw r11, sp[1]
.Lxta.call_labels35:
	bl _Sstop_bit_0
	mkmsk r0, 32
.Ltmp336:
.LBB14_12:                              # %ifdone175
.Lxtalabel50:
	#DEBUG_VALUE: _i.i2c_master_if._Si2c_master_single_port_0.0.read:device <- undef
	stw r0, r8[10]
	clre
	ldw r0, sp[5]                   # 4-byte Folded Reload
	ldw r10, sp[16]                 # 4-byte Folded Reload
	ldd r9, r8, sp[7]               # 4-byte Folded Reload
	ldd r7, r6, sp[6]               # 4-byte Folded Reload
	ldd r5, r4, sp[5]               # 4-byte Folded Reload
	retsp 18
	# RETURN_REG_HOLDER
	.cc_bottom _i.i2c_master_if._Si2c_master_single_port_0.0.read.function
	.set	_i.i2c_master_if._Si2c_master_single_port_0.0.read.nstackwords,((_Sstart_bit_0.nstackwords $M _Stx8_0.nstackwords $M _Sstop_bit_0.nstackwords $M _Shigh_pulse_sample_0.nstackwords $M wait_for_clock_high.nstackwords) + 18)
	.globl	_i.i2c_master_if._Si2c_master_single_port_0.0.read.nstackwords
	.set	_i.i2c_master_if._Si2c_master_single_port_0.0.read.maxcores,_Shigh_pulse_sample_0.maxcores $M _Sstart_bit_0.maxcores $M _Sstop_bit_0.maxcores $M _Stx8_0.maxcores $M wait_for_clock_high.maxcores $M 1
	.globl	_i.i2c_master_if._Si2c_master_single_port_0.0.read.maxcores
	.set	_i.i2c_master_if._Si2c_master_single_port_0.0.read.maxtimers,_Shigh_pulse_sample_0.maxtimers $M _Sstart_bit_0.maxtimers $M _Sstop_bit_0.maxtimers $M _Stx8_0.maxtimers $M wait_for_clock_high.maxtimers $M 0
	.globl	_i.i2c_master_if._Si2c_master_single_port_0.0.read.maxtimers
	.set	_i.i2c_master_if._Si2c_master_single_port_0.0.read.maxchanends,_Shigh_pulse_sample_0.maxchanends $M _Sstart_bit_0.maxchanends $M _Sstop_bit_0.maxchanends $M _Stx8_0.maxchanends $M wait_for_clock_high.maxchanends $M 0
	.globl	_i.i2c_master_if._Si2c_master_single_port_0.0.read.maxchanends
.Ltmp337:
	.size	_i.i2c_master_if._Si2c_master_single_port_0.0.read, .Ltmp337-_i.i2c_master_if._Si2c_master_single_port_0.0.read
.Lfunc_end14:
	.cfi_endproc

	.globl	_i.i2c_master_if._Si2c_master_single_port_0.0.write
	.align	4
	.type	_i.i2c_master_if._Si2c_master_single_port_0.0.write,@function
	.cc_top _i.i2c_master_if._Si2c_master_single_port_0.0.write.function,_i.i2c_master_if._Si2c_master_single_port_0.0.write
_i.i2c_master_if._Si2c_master_single_port_0.0.write: # @_i.i2c_master_if._Si2c_master_single_port_0.0.write
.Lfunc_begin15:
	.loc	2 242 0                 # C:/Users/user/workspace/lib_i2c/src/i2c_master_single_port.xc:242:0
	.cfi_startproc
	.issue_mode single
# BB#0:                                 # %allocas
	ENTSP_lu6 12
.Ltmp338:
	.cfi_def_cfa_offset 48
.Ltmp339:
	.cfi_offset 15, 0
	std r5, r4, sp[2]               # 4-byte Folded Spill
.Ltmp340:
	.cfi_offset 4, -32
.Ltmp341:
	.cfi_offset 5, -28
	std r7, r6, sp[3]               # 4-byte Folded Spill
.Ltmp342:
	.cfi_offset 6, -24
.Ltmp343:
	.cfi_offset 7, -20
	std r9, r8, sp[4]               # 4-byte Folded Spill
.Ltmp344:
	.cfi_offset 8, -16
.Ltmp345:
	.cfi_offset 9, -12
	stw r10, sp[10]                 # 4-byte Folded Spill
.Ltmp346:
	.cfi_offset 10, -8
	#DEBUG_VALUE: _i.i2c_master_if._Si2c_master_single_port_0.0.write:p <- R0
	#DEBUG_VALUE: _i.i2c_master_if._Si2c_master_single_port_0.0.write:device <- R1
	#DEBUG_VALUE: _i.i2c_master_if._Si2c_master_single_port_0.0.write:buf <- R2
	#DEBUG_VALUE: _i.i2c_master_if._Si2c_master_single_port_0.0.write:n <- R3
	mov r4, r3
.Ltmp347:
	#DEBUG_VALUE: _i.i2c_master_if._Si2c_master_single_port_0.0.write:n <- R4
	mov r5, r2
.Ltmp348:
	#DEBUG_VALUE: _i.i2c_master_if._Si2c_master_single_port_0.0.write:buf <- R5
	mov r6, r1
.Ltmp349:
	#DEBUG_VALUE: _i.i2c_master_if._Si2c_master_single_port_0.0.write:device <- undef
	#DEBUG_VALUE: _i.i2c_master_if._Si2c_master_single_port_0.0.write:device <- R6
	ldw r7, r0[0]
	ldw r8, r0[1]
.Ltmp350:
.LBB15_1:                               # %LoopTest
                                        # =>This Inner Loop Header: Depth=1
	#DEBUG_VALUE: _i.i2c_master_if._Si2c_master_single_port_0.0.write:device <- undef
	#DEBUG_VALUE: _i.i2c_master_if._Si2c_master_single_port_0.0.write:buf <- R5
	#DEBUG_VALUE: _i.i2c_master_if._Si2c_master_single_port_0.0.write:n <- R4
	ldw r0, r7[0]
	bf r0, .LBB15_1
.Ltmp351:
# BB#2:                                 # %expdone
	#DEBUG_VALUE: _i.i2c_master_if._Si2c_master_single_port_0.0.write:device <- undef
	#DEBUG_VALUE: _i.i2c_master_if._Si2c_master_single_port_0.0.write:buf <- R5
	#DEBUG_VALUE: _i.i2c_master_if._Si2c_master_single_port_0.0.write:n <- R4
	#DEBUG_VALUE: _i.i2c_master_if._Si2c_master_single_port_0.0.write:send_stop_bit <- undef
	#DEBUG_VALUE: ack <- 0
	.loc	2 249 0 prologue_end    # C:/Users/user/workspace/lib_i2c/src/i2c_master_single_port.xc:249:0
	ldw r0, r7[6]
	.loc	2 249 0                 # C:/Users/user/workspace/lib_i2c/src/i2c_master_single_port.xc:249:0
	ldw r1, r7[7]
	.loc	2 249 0                 # C:/Users/user/workspace/lib_i2c/src/i2c_master_single_port.xc:249:0
	ldw r2, r7[9]
	.loc	2 249 0                 # C:/Users/user/workspace/lib_i2c/src/i2c_master_single_port.xc:249:0
	ldw r3, r7[8]
	.loc	2 249 0                 # C:/Users/user/workspace/lib_i2c/src/i2c_master_single_port.xc:249:0
.Lxta.call_labels36:
	bl _Sstart_bit_0
.Ltmp352:
	#DEBUG_VALUE: fall_time <- R0
	.loc	2 249 0                 # C:/Users/user/workspace/lib_i2c/src/i2c_master_single_port.xc:249:0
	stw r0, sp[3]
	.loc	2 252 0                 # C:/Users/user/workspace/lib_i2c/src/i2c_master_single_port.xc:252:0
	ldw r0, r7[6]
.Ltmp353:
	.loc	2 252 0                 # C:/Users/user/workspace/lib_i2c/src/i2c_master_single_port.xc:252:0
	shl r1, r6, 1
	.loc	2 252 0                 # C:/Users/user/workspace/lib_i2c/src/i2c_master_single_port.xc:252:0
	ldw r2, r7[7]
	.loc	2 252 0                 # C:/Users/user/workspace/lib_i2c/src/i2c_master_single_port.xc:252:0
	ldw r3, r7[9]
	.loc	2 252 0                 # C:/Users/user/workspace/lib_i2c/src/i2c_master_single_port.xc:252:0
	ldw r11, r7[8]
	ldaw r9, sp[3]
.Ltmp354:
	#DEBUG_VALUE: fall_time <- [R9+0]
	.loc	2 252 0                 # C:/Users/user/workspace/lib_i2c/src/i2c_master_single_port.xc:252:0
	stw r9, sp[2]
	stw r11, sp[1]
.Lxta.call_labels37:
	bl _Stx8_0
	mov r6, r0
.Ltmp355:
	#DEBUG_VALUE: j <- 0
	#DEBUG_VALUE: ack <- R6
	ldc r10, 0
	bf r4, .LBB15_3
.Ltmp356:
.LBB15_6:                               # %LoopBody73
                                        # =>This Inner Loop Header: Depth=1
.Lxtalabel51:
	#DEBUG_VALUE: _i.i2c_master_if._Si2c_master_single_port_0.0.write:device <- undef
	#DEBUG_VALUE: _i.i2c_master_if._Si2c_master_single_port_0.0.write:buf <- R5
	#DEBUG_VALUE: _i.i2c_master_if._Si2c_master_single_port_0.0.write:n <- R4
	#DEBUG_VALUE: _i.i2c_master_if._Si2c_master_single_port_0.0.write:send_stop_bit <- undef
	bt r6, .LBB15_3
.Ltmp357:
# BB#7:                                 # %afterboundcheck
                                        #   in Loop: Header=BB15_6 Depth=1
.Lxtalabel52:
	#DEBUG_VALUE: _i.i2c_master_if._Si2c_master_single_port_0.0.write:device <- undef
	#DEBUG_VALUE: _i.i2c_master_if._Si2c_master_single_port_0.0.write:buf <- R5
	#DEBUG_VALUE: _i.i2c_master_if._Si2c_master_single_port_0.0.write:n <- R4
	#DEBUG_VALUE: _i.i2c_master_if._Si2c_master_single_port_0.0.write:send_stop_bit <- undef
	.loc	2 260 0                 # C:/Users/user/workspace/lib_i2c/src/i2c_master_single_port.xc:260:0
	ldw r0, r7[6]
	.loc	2 260 0                 # C:/Users/user/workspace/lib_i2c/src/i2c_master_single_port.xc:260:0
	ld8u r1, r5[r10]
	.loc	2 260 0                 # C:/Users/user/workspace/lib_i2c/src/i2c_master_single_port.xc:260:0
	ldw r2, r7[7]
	.loc	2 260 0                 # C:/Users/user/workspace/lib_i2c/src/i2c_master_single_port.xc:260:0
	ldw r3, r7[9]
	.loc	2 260 0                 # C:/Users/user/workspace/lib_i2c/src/i2c_master_single_port.xc:260:0
	ldw r11, r7[8]
.Ltmp358:
	#DEBUG_VALUE: fall_time <- [R9+0]
	.loc	2 260 0                 # C:/Users/user/workspace/lib_i2c/src/i2c_master_single_port.xc:260:0
	stw r9, sp[2]
	stw r11, sp[1]
.Lxta.call_labels38:
	bl _Stx8_0
	mov r6, r0
.Ltmp359:
	#DEBUG_VALUE: ack <- R6
	.loc	2 255 0                 # C:/Users/user/workspace/lib_i2c/src/i2c_master_single_port.xc:255:0
	add r10, r10, 1
.Ltmp360:
	#DEBUG_VALUE: j <- R10
	.loc	2 255 0                 # C:/Users/user/workspace/lib_i2c/src/i2c_master_single_port.xc:255:0
	lsu r0, r10, r4
.Lxta.loop_labels11:
	# LOOPMARKER 0
	bt r0, .LBB15_6
.Ltmp361:
.LBB15_3:                               # %ifdone68
.Lxtalabel53:
	#DEBUG_VALUE: _i.i2c_master_if._Si2c_master_single_port_0.0.write:device <- undef
	#DEBUG_VALUE: _i.i2c_master_if._Si2c_master_single_port_0.0.write:send_stop_bit <- undef
	#DEBUG_VALUE: j <- 0
	ldw r4, sp[13]
	#DEBUG_VALUE: _i.i2c_master_if._Si2c_master_single_port_0.0.write:num_bytes_sent <- R4
	ldw r0, sp[14]
	bf r0, .LBB15_5
.Ltmp362:
# BB#4:                                 # %iftrue97
.Lxtalabel54:
	#DEBUG_VALUE: _i.i2c_master_if._Si2c_master_single_port_0.0.write:device <- undef
	#DEBUG_VALUE: j <- 0
	#DEBUG_VALUE: _i.i2c_master_if._Si2c_master_single_port_0.0.write:num_bytes_sent <- R4
	.loc	2 264 0                 # C:/Users/user/workspace/lib_i2c/src/i2c_master_single_port.xc:264:0
	ldw r0, r7[6]
	.loc	2 264 0                 # C:/Users/user/workspace/lib_i2c/src/i2c_master_single_port.xc:264:0
	ldw r1, r7[7]
	.loc	2 264 0                 # C:/Users/user/workspace/lib_i2c/src/i2c_master_single_port.xc:264:0
	ldw r2, r7[9]
	.loc	2 264 0                 # C:/Users/user/workspace/lib_i2c/src/i2c_master_single_port.xc:264:0
	ldw r3, r7[8]
	.loc	2 264 0                 # C:/Users/user/workspace/lib_i2c/src/i2c_master_single_port.xc:264:0
	ldw r11, sp[3]
	.loc	2 264 0                 # C:/Users/user/workspace/lib_i2c/src/i2c_master_single_port.xc:264:0
	stw r11, sp[1]
.Lxta.call_labels39:
	bl _Sstop_bit_0
	mkmsk r8, 32
.Ltmp363:
.LBB15_5:                               # %ifdone98
.Lxtalabel55:
	#DEBUG_VALUE: _i.i2c_master_if._Si2c_master_single_port_0.0.write:device <- undef
	#DEBUG_VALUE: j <- 0
	#DEBUG_VALUE: _i.i2c_master_if._Si2c_master_single_port_0.0.write:num_bytes_sent <- R4
	stw r8, r7[10]
	.loc	2 270 0                 # C:/Users/user/workspace/lib_i2c/src/i2c_master_single_port.xc:270:0
	stw r10, r4[0]
	.loc	2 272 0                 # C:/Users/user/workspace/lib_i2c/src/i2c_master_single_port.xc:272:0
	eq r0, r6, 0
	clre
	ldw r10, sp[10]                 # 4-byte Folded Reload
	ldd r9, r8, sp[4]               # 4-byte Folded Reload
	ldd r7, r6, sp[3]               # 4-byte Folded Reload
	ldd r5, r4, sp[2]               # 4-byte Folded Reload
.Ltmp364:
	retsp 12
	# RETURN_REG_HOLDER
.Ltmp365:
	.cc_bottom _i.i2c_master_if._Si2c_master_single_port_0.0.write.function
	.set	_i.i2c_master_if._Si2c_master_single_port_0.0.write.nstackwords,((_Sstart_bit_0.nstackwords $M _Sstop_bit_0.nstackwords $M _Stx8_0.nstackwords) + 12)
	.globl	_i.i2c_master_if._Si2c_master_single_port_0.0.write.nstackwords
	.set	_i.i2c_master_if._Si2c_master_single_port_0.0.write.maxcores,_Sstart_bit_0.maxcores $M _Sstop_bit_0.maxcores $M _Stx8_0.maxcores $M 1
	.globl	_i.i2c_master_if._Si2c_master_single_port_0.0.write.maxcores
	.set	_i.i2c_master_if._Si2c_master_single_port_0.0.write.maxtimers,_Sstart_bit_0.maxtimers $M _Sstop_bit_0.maxtimers $M _Stx8_0.maxtimers $M 0
	.globl	_i.i2c_master_if._Si2c_master_single_port_0.0.write.maxtimers
	.set	_i.i2c_master_if._Si2c_master_single_port_0.0.write.maxchanends,_Sstart_bit_0.maxchanends $M _Sstop_bit_0.maxchanends $M _Stx8_0.maxchanends $M 0
	.globl	_i.i2c_master_if._Si2c_master_single_port_0.0.write.maxchanends
.Ltmp366:
	.size	_i.i2c_master_if._Si2c_master_single_port_0.0.write, .Ltmp366-_i.i2c_master_if._Si2c_master_single_port_0.0.write
.Lfunc_end15:
	.cfi_endproc

	.weak	_i.i2c_master_if._chan.shutdown
	.align	4
	.type	_i.i2c_master_if._chan.shutdown,@function
	.cc_top _i.i2c_master_if._chan.shutdown.function,_i.i2c_master_if._chan.shutdown
_i.i2c_master_if._chan.shutdown:        # @_i.i2c_master_if._chan.shutdown
	.cfi_startproc
	.issue_mode single
# BB#0:                                 # %allocas
	ENTSP_lu6 4
.Ltmp367:
	.cfi_def_cfa_offset 16
.Ltmp368:
	.cfi_offset 15, 0
	stw r4, sp[2]                   # 4-byte Folded Spill
.Ltmp369:
	.cfi_offset 4, -8
	#DEBUG_VALUE: _i.i2c_master_if._chan.shutdown:dest <- R0
	getr r4, 2
	setd res[r4], r0
	add r0, r4, 3
	out res[r4], r0
	outct res[r4], 2
	ldc r1, 0
	mov r0, r4
	bl __interface_wait_and_yield
	in r0, res[r4]
	chkct res[r4], 1
	freer res[r4]
	ldw r4, sp[2]                   # 4-byte Folded Reload
	retsp 4
	# RETURN_REG_HOLDER
	.cc_bottom _i.i2c_master_if._chan.shutdown.function
	.set	_i.i2c_master_if._chan.shutdown.nstackwords,((_i.i2c_master_if._client_call_y.max.nstackwords $M ($D __interface_wait_and_yield.nstackwords ? __interface_wait_and_yield.nstackwords $: _i.i2c_master_if._client_call_y.max.nstackwords)) + 4)
	.globl	_i.i2c_master_if._chan.shutdown.nstackwords
	.weak	_i.i2c_master_if._chan.shutdown.nstackwords
	.set	_i.i2c_master_if._chan.shutdown.maxcores,($D __interface_wait_and_yield.maxcores ? __interface_wait_and_yield.maxcores $: _i.i2c_master_if._client_call_y.max.maxcores) $M 1
	.globl	_i.i2c_master_if._chan.shutdown.maxcores
	.weak	_i.i2c_master_if._chan.shutdown.maxcores
	.set	_i.i2c_master_if._chan.shutdown.maxtimers,($D __interface_wait_and_yield.maxtimers ? __interface_wait_and_yield.maxtimers $: _i.i2c_master_if._client_call_y.max.maxtimers) $M 0
	.globl	_i.i2c_master_if._chan.shutdown.maxtimers
	.weak	_i.i2c_master_if._chan.shutdown.maxtimers
	.set	_i.i2c_master_if._chan.shutdown.maxchanends,(1 + ($D __interface_wait_and_yield.maxchanends ? __interface_wait_and_yield.maxchanends $: _i.i2c_master_if._client_call_y.max.maxchanends)) $M 1
	.globl	_i.i2c_master_if._chan.shutdown.maxchanends
	.weak	_i.i2c_master_if._chan.shutdown.maxchanends
.Ltmp370:
	.size	_i.i2c_master_if._chan.shutdown, .Ltmp370-_i.i2c_master_if._chan.shutdown
	.cfi_endproc

	.weak	_i.i2c_master_if._chan.send_stop_bit
	.align	4
	.type	_i.i2c_master_if._chan.send_stop_bit,@function
	.cc_top _i.i2c_master_if._chan.send_stop_bit.function,_i.i2c_master_if._chan.send_stop_bit
_i.i2c_master_if._chan.send_stop_bit:   # @_i.i2c_master_if._chan.send_stop_bit
	.cfi_startproc
	.issue_mode single
# BB#0:                                 # %allocas
	ENTSP_lu6 4
.Ltmp371:
	.cfi_def_cfa_offset 16
.Ltmp372:
	.cfi_offset 15, 0
	stw r4, sp[2]                   # 4-byte Folded Spill
.Ltmp373:
	.cfi_offset 4, -8
	#DEBUG_VALUE: _i.i2c_master_if._chan.send_stop_bit:dest <- R0
	getr r4, 2
	setd res[r4], r0
	add r0, r4, 2
	out res[r4], r0
	outct res[r4], 2
	ldc r1, 0
	mov r0, r4
	bl __interface_wait_and_yield
	in r0, res[r4]
	chkct res[r4], 1
	freer res[r4]
	ldw r4, sp[2]                   # 4-byte Folded Reload
	retsp 4
	# RETURN_REG_HOLDER
	.cc_bottom _i.i2c_master_if._chan.send_stop_bit.function
	.set	_i.i2c_master_if._chan.send_stop_bit.nstackwords,((_i.i2c_master_if._client_call_y.max.nstackwords $M ($D __interface_wait_and_yield.nstackwords ? __interface_wait_and_yield.nstackwords $: _i.i2c_master_if._client_call_y.max.nstackwords)) + 4)
	.globl	_i.i2c_master_if._chan.send_stop_bit.nstackwords
	.weak	_i.i2c_master_if._chan.send_stop_bit.nstackwords
	.set	_i.i2c_master_if._chan.send_stop_bit.maxcores,($D __interface_wait_and_yield.maxcores ? __interface_wait_and_yield.maxcores $: _i.i2c_master_if._client_call_y.max.maxcores) $M 1
	.globl	_i.i2c_master_if._chan.send_stop_bit.maxcores
	.weak	_i.i2c_master_if._chan.send_stop_bit.maxcores
	.set	_i.i2c_master_if._chan.send_stop_bit.maxtimers,($D __interface_wait_and_yield.maxtimers ? __interface_wait_and_yield.maxtimers $: _i.i2c_master_if._client_call_y.max.maxtimers) $M 0
	.globl	_i.i2c_master_if._chan.send_stop_bit.maxtimers
	.weak	_i.i2c_master_if._chan.send_stop_bit.maxtimers
	.set	_i.i2c_master_if._chan.send_stop_bit.maxchanends,(1 + ($D __interface_wait_and_yield.maxchanends ? __interface_wait_and_yield.maxchanends $: _i.i2c_master_if._client_call_y.max.maxchanends)) $M 1
	.globl	_i.i2c_master_if._chan.send_stop_bit.maxchanends
	.weak	_i.i2c_master_if._chan.send_stop_bit.maxchanends
.Ltmp374:
	.size	_i.i2c_master_if._chan.send_stop_bit, .Ltmp374-_i.i2c_master_if._chan.send_stop_bit
	.cfi_endproc

	.weak	_i.i2c_master_if._chan.read
	.align	4
	.type	_i.i2c_master_if._chan.read,@function
	.cc_top _i.i2c_master_if._chan.read.function,_i.i2c_master_if._chan.read
_i.i2c_master_if._chan.read:            # @_i.i2c_master_if._chan.read
	.cfi_startproc
	.issue_mode single
# BB#0:                                 # %allocas
	ENTSP_lu6 8
.Ltmp375:
	.cfi_def_cfa_offset 32
.Ltmp376:
	.cfi_offset 15, 0
	std r5, r4, sp[1]               # 4-byte Folded Spill
.Ltmp377:
	.cfi_offset 4, -24
.Ltmp378:
	.cfi_offset 5, -20
	std r7, r6, sp[2]               # 4-byte Folded Spill
.Ltmp379:
	.cfi_offset 6, -16
.Ltmp380:
	.cfi_offset 7, -12
	stw r8, sp[6]                   # 4-byte Folded Spill
.Ltmp381:
	.cfi_offset 8, -8
	#DEBUG_VALUE: _i.i2c_master_if._chan.read:dest <- R0
	#DEBUG_VALUE: _i.i2c_master_if._chan.read:param1 <- R1
	#DEBUG_VALUE: _i.i2c_master_if._chan.read:param2 <- R2
	#DEBUG_VALUE: _i.i2c_master_if._chan.read:param3 <- R3
	#DEBUG_VALUE: _i.i2c_master_if._chan.read:param4 <- [SP+36]
	mov r5, r3
	#DEBUG_VALUE: _i.i2c_master_if._chan.read:param3 <- R5
	mov r6, r2
	#DEBUG_VALUE: _i.i2c_master_if._chan.read:param2 <- R6
	mov r7, r1
	#DEBUG_VALUE: _i.i2c_master_if._chan.read:param1 <- R7
	ldw r8, sp[9]
	getr r4, 2
	setd res[r4], r0
	add r0, r4, 1
	out res[r4], r0
	outct res[r4], 2
	ldc r1, 0
	mov r0, r4
	bl __interface_wait_and_yield
	chkct res[r4], 1
	outt res[r4], r7
	stw r6, sp[1]
	out res[r4], r5
	out res[r4], r8
	outct res[r4], 2
	ldaw r1, sp[1]
	mov r0, r4
	bl __interface_client_call
	in r0, res[r4]
	chkct res[r4], 1
	freer res[r4]
	ldw r8, sp[6]                   # 4-byte Folded Reload
	ldd r7, r6, sp[2]               # 4-byte Folded Reload
	ldd r5, r4, sp[1]               # 4-byte Folded Reload
	retsp 8
	# RETURN_REG_HOLDER
	.cc_bottom _i.i2c_master_if._chan.read.function
	.set	_i.i2c_master_if._chan.read.nstackwords,((_i.i2c_master_if._client_call_y.max.nstackwords $M ($D __interface_wait_and_yield.nstackwords ? __interface_wait_and_yield.nstackwords $: _i.i2c_master_if._client_call_y.max.nstackwords) $M __interface_client_call.nstackwords) + 8)
	.globl	_i.i2c_master_if._chan.read.nstackwords
	.weak	_i.i2c_master_if._chan.read.nstackwords
	.set	_i.i2c_master_if._chan.read.maxcores,__interface_client_call.maxcores $M ($D __interface_wait_and_yield.maxcores ? __interface_wait_and_yield.maxcores $: _i.i2c_master_if._client_call_y.max.maxcores) $M 1
	.globl	_i.i2c_master_if._chan.read.maxcores
	.weak	_i.i2c_master_if._chan.read.maxcores
	.set	_i.i2c_master_if._chan.read.maxtimers,__interface_client_call.maxtimers $M ($D __interface_wait_and_yield.maxtimers ? __interface_wait_and_yield.maxtimers $: _i.i2c_master_if._client_call_y.max.maxtimers) $M 0
	.globl	_i.i2c_master_if._chan.read.maxtimers
	.weak	_i.i2c_master_if._chan.read.maxtimers
	.set	_i.i2c_master_if._chan.read.maxchanends,(1 + __interface_client_call.maxchanends) $M (1 + ($D __interface_wait_and_yield.maxchanends ? __interface_wait_and_yield.maxchanends $: _i.i2c_master_if._client_call_y.max.maxchanends)) $M 1
	.globl	_i.i2c_master_if._chan.read.maxchanends
	.weak	_i.i2c_master_if._chan.read.maxchanends
.Ltmp382:
	.size	_i.i2c_master_if._chan.read, .Ltmp382-_i.i2c_master_if._chan.read
	.cfi_endproc

	.weak	_i.i2c_master_if._chan.write
	.align	4
	.type	_i.i2c_master_if._chan.write,@function
	.cc_top _i.i2c_master_if._chan.write.function,_i.i2c_master_if._chan.write
_i.i2c_master_if._chan.write:           # @_i.i2c_master_if._chan.write
	.cfi_startproc
	.issue_mode single
# BB#0:                                 # %allocas
	ENTSP_lu6 8
.Ltmp383:
	.cfi_def_cfa_offset 32
.Ltmp384:
	.cfi_offset 15, 0
	std r5, r4, sp[1]               # 4-byte Folded Spill
.Ltmp385:
	.cfi_offset 4, -24
.Ltmp386:
	.cfi_offset 5, -20
	std r7, r6, sp[2]               # 4-byte Folded Spill
.Ltmp387:
	.cfi_offset 6, -16
.Ltmp388:
	.cfi_offset 7, -12
	std r9, r8, sp[3]               # 4-byte Folded Spill
.Ltmp389:
	.cfi_offset 8, -8
.Ltmp390:
	.cfi_offset 9, -4
	#DEBUG_VALUE: _i.i2c_master_if._chan.write:dest <- R0
	#DEBUG_VALUE: _i.i2c_master_if._chan.write:param1 <- R1
	#DEBUG_VALUE: _i.i2c_master_if._chan.write:param2 <- R2
	#DEBUG_VALUE: _i.i2c_master_if._chan.write:param3 <- R3
	#DEBUG_VALUE: _i.i2c_master_if._chan.write:param4 <- [SP+36]
	#DEBUG_VALUE: _i.i2c_master_if._chan.write:param5 <- [SP+40]
	mov r5, r3
	#DEBUG_VALUE: _i.i2c_master_if._chan.write:param3 <- R5
	mov r6, r2
	#DEBUG_VALUE: _i.i2c_master_if._chan.write:param2 <- R6
	mov r7, r1
	#DEBUG_VALUE: _i.i2c_master_if._chan.write:param1 <- R7
	ldw r9, sp[10]
	ldw r8, sp[9]
	getr r4, 2
	setd res[r4], r0
	out res[r4], r4
	outct res[r4], 2
	ldc r1, 0
	mov r0, r4
	bl __interface_wait_and_yield
	chkct res[r4], 1
	outt res[r4], r7
	stw r6, sp[1]
	out res[r4], r5
	ldw r0, r8[0]
	out res[r4], r0
	out res[r4], r9
	outct res[r4], 2
	ldaw r1, sp[1]
	mov r0, r4
	bl __interface_client_call
	in r0, res[r4]
	stw r0, r8[0]
	in r0, res[r4]
	chkct res[r4], 1
	freer res[r4]
	ldd r9, r8, sp[3]               # 4-byte Folded Reload
	ldd r7, r6, sp[2]               # 4-byte Folded Reload
	ldd r5, r4, sp[1]               # 4-byte Folded Reload
	retsp 8
	# RETURN_REG_HOLDER
	.cc_bottom _i.i2c_master_if._chan.write.function
	.set	_i.i2c_master_if._chan.write.nstackwords,((_i.i2c_master_if._client_call_y.max.nstackwords $M ($D __interface_wait_and_yield.nstackwords ? __interface_wait_and_yield.nstackwords $: _i.i2c_master_if._client_call_y.max.nstackwords) $M __interface_client_call.nstackwords) + 8)
	.globl	_i.i2c_master_if._chan.write.nstackwords
	.weak	_i.i2c_master_if._chan.write.nstackwords
	.set	_i.i2c_master_if._chan.write.maxcores,__interface_client_call.maxcores $M ($D __interface_wait_and_yield.maxcores ? __interface_wait_and_yield.maxcores $: _i.i2c_master_if._client_call_y.max.maxcores) $M 1
	.globl	_i.i2c_master_if._chan.write.maxcores
	.weak	_i.i2c_master_if._chan.write.maxcores
	.set	_i.i2c_master_if._chan.write.maxtimers,__interface_client_call.maxtimers $M ($D __interface_wait_and_yield.maxtimers ? __interface_wait_and_yield.maxtimers $: _i.i2c_master_if._client_call_y.max.maxtimers) $M 0
	.globl	_i.i2c_master_if._chan.write.maxtimers
	.weak	_i.i2c_master_if._chan.write.maxtimers
	.set	_i.i2c_master_if._chan.write.maxchanends,(1 + __interface_client_call.maxchanends) $M (1 + ($D __interface_wait_and_yield.maxchanends ? __interface_wait_and_yield.maxchanends $: _i.i2c_master_if._client_call_y.max.maxchanends)) $M 1
	.globl	_i.i2c_master_if._chan.write.maxchanends
	.weak	_i.i2c_master_if._chan.write.maxchanends
.Ltmp391:
	.size	_i.i2c_master_if._chan.write, .Ltmp391-_i.i2c_master_if._chan.write
	.cfi_endproc

	.weak	_i.i2c_master_if._chan_yield.shutdown
	.align	4
	.type	_i.i2c_master_if._chan_yield.shutdown,@function
	.cc_top _i.i2c_master_if._chan_yield.shutdown.function,_i.i2c_master_if._chan_yield.shutdown
_i.i2c_master_if._chan_yield.shutdown:  # @_i.i2c_master_if._chan_yield.shutdown
	.cfi_startproc
	.issue_mode single
# BB#0:                                 # %allocas
	ENTSP_lu6 4
.Ltmp392:
	.cfi_def_cfa_offset 16
.Ltmp393:
	.cfi_offset 15, 0
	std r5, r4, sp[1]               # 4-byte Folded Spill
.Ltmp394:
	.cfi_offset 4, -8
.Ltmp395:
	.cfi_offset 5, -4
	#DEBUG_VALUE: _i.i2c_master_if._chan_yield.shutdown:s <- R0
	ldw r1, r0[0]
	getr r4, 2
	setd res[r4], r1
	add r1, r4, 3
	out res[r4], r1
	outct res[r4], 2
	ldw r5, r0[1]
	mov r0, r4
	mov r1, r5
	bl __interface_wait_and_yield
	ldc r1, 0
	mov r0, r4
	mov r2, r5
	bl __interface_client_call_y
	chkct res[r4], 1
	freer res[r4]
	ldd r5, r4, sp[1]               # 4-byte Folded Reload
	retsp 4
	# RETURN_REG_HOLDER
	.cc_bottom _i.i2c_master_if._chan_yield.shutdown.function
	.set	_i.i2c_master_if._chan_yield.shutdown.nstackwords,((($D __interface_wait_and_yield.nstackwords ? __interface_wait_and_yield.nstackwords $: _i.i2c_master_if._client_call_y.max.nstackwords) $M _i.i2c_master_if._client_call_y.max.nstackwords $M ($D __interface_client_call_y.nstackwords ? __interface_client_call_y.nstackwords $: _i.i2c_master_if._client_call_y.max.nstackwords)) + 4)
	.globl	_i.i2c_master_if._chan_yield.shutdown.nstackwords
	.weak	_i.i2c_master_if._chan_yield.shutdown.nstackwords
	.set	_i.i2c_master_if._chan_yield.shutdown.maxcores,($D __interface_client_call_y.maxcores ? __interface_client_call_y.maxcores $: _i.i2c_master_if._client_call_y.max.maxcores) $M ($D __interface_wait_and_yield.maxcores ? __interface_wait_and_yield.maxcores $: _i.i2c_master_if._client_call_y.max.maxcores) $M 1
	.globl	_i.i2c_master_if._chan_yield.shutdown.maxcores
	.weak	_i.i2c_master_if._chan_yield.shutdown.maxcores
	.set	_i.i2c_master_if._chan_yield.shutdown.maxtimers,($D __interface_client_call_y.maxtimers ? __interface_client_call_y.maxtimers $: _i.i2c_master_if._client_call_y.max.maxtimers) $M ($D __interface_wait_and_yield.maxtimers ? __interface_wait_and_yield.maxtimers $: _i.i2c_master_if._client_call_y.max.maxtimers) $M 0
	.globl	_i.i2c_master_if._chan_yield.shutdown.maxtimers
	.weak	_i.i2c_master_if._chan_yield.shutdown.maxtimers
	.set	_i.i2c_master_if._chan_yield.shutdown.maxchanends,(1 + ($D __interface_client_call_y.maxchanends ? __interface_client_call_y.maxchanends $: _i.i2c_master_if._client_call_y.max.maxchanends)) $M (1 + ($D __interface_wait_and_yield.maxchanends ? __interface_wait_and_yield.maxchanends $: _i.i2c_master_if._client_call_y.max.maxchanends)) $M 1
	.globl	_i.i2c_master_if._chan_yield.shutdown.maxchanends
	.weak	_i.i2c_master_if._chan_yield.shutdown.maxchanends
.Ltmp396:
	.size	_i.i2c_master_if._chan_yield.shutdown, .Ltmp396-_i.i2c_master_if._chan_yield.shutdown
	.cfi_endproc

	.weak	_i.i2c_master_if._chan_yield.send_stop_bit
	.align	4
	.type	_i.i2c_master_if._chan_yield.send_stop_bit,@function
	.cc_top _i.i2c_master_if._chan_yield.send_stop_bit.function,_i.i2c_master_if._chan_yield.send_stop_bit
_i.i2c_master_if._chan_yield.send_stop_bit: # @_i.i2c_master_if._chan_yield.send_stop_bit
	.cfi_startproc
	.issue_mode single
# BB#0:                                 # %allocas
	ENTSP_lu6 4
.Ltmp397:
	.cfi_def_cfa_offset 16
.Ltmp398:
	.cfi_offset 15, 0
	std r5, r4, sp[1]               # 4-byte Folded Spill
.Ltmp399:
	.cfi_offset 4, -8
.Ltmp400:
	.cfi_offset 5, -4
	#DEBUG_VALUE: _i.i2c_master_if._chan_yield.send_stop_bit:s <- R0
	ldw r1, r0[0]
	getr r4, 2
	setd res[r4], r1
	add r1, r4, 2
	out res[r4], r1
	outct res[r4], 2
	ldw r5, r0[1]
	mov r0, r4
	mov r1, r5
	bl __interface_wait_and_yield
	ldc r1, 0
	mov r0, r4
	mov r2, r5
	bl __interface_client_call_y
	chkct res[r4], 1
	freer res[r4]
	ldd r5, r4, sp[1]               # 4-byte Folded Reload
	retsp 4
	# RETURN_REG_HOLDER
	.cc_bottom _i.i2c_master_if._chan_yield.send_stop_bit.function
	.set	_i.i2c_master_if._chan_yield.send_stop_bit.nstackwords,((($D __interface_wait_and_yield.nstackwords ? __interface_wait_and_yield.nstackwords $: _i.i2c_master_if._client_call_y.max.nstackwords) $M _i.i2c_master_if._client_call_y.max.nstackwords $M ($D __interface_client_call_y.nstackwords ? __interface_client_call_y.nstackwords $: _i.i2c_master_if._client_call_y.max.nstackwords)) + 4)
	.globl	_i.i2c_master_if._chan_yield.send_stop_bit.nstackwords
	.weak	_i.i2c_master_if._chan_yield.send_stop_bit.nstackwords
	.set	_i.i2c_master_if._chan_yield.send_stop_bit.maxcores,($D __interface_client_call_y.maxcores ? __interface_client_call_y.maxcores $: _i.i2c_master_if._client_call_y.max.maxcores) $M ($D __interface_wait_and_yield.maxcores ? __interface_wait_and_yield.maxcores $: _i.i2c_master_if._client_call_y.max.maxcores) $M 1
	.globl	_i.i2c_master_if._chan_yield.send_stop_bit.maxcores
	.weak	_i.i2c_master_if._chan_yield.send_stop_bit.maxcores
	.set	_i.i2c_master_if._chan_yield.send_stop_bit.maxtimers,($D __interface_client_call_y.maxtimers ? __interface_client_call_y.maxtimers $: _i.i2c_master_if._client_call_y.max.maxtimers) $M ($D __interface_wait_and_yield.maxtimers ? __interface_wait_and_yield.maxtimers $: _i.i2c_master_if._client_call_y.max.maxtimers) $M 0
	.globl	_i.i2c_master_if._chan_yield.send_stop_bit.maxtimers
	.weak	_i.i2c_master_if._chan_yield.send_stop_bit.maxtimers
	.set	_i.i2c_master_if._chan_yield.send_stop_bit.maxchanends,(1 + ($D __interface_client_call_y.maxchanends ? __interface_client_call_y.maxchanends $: _i.i2c_master_if._client_call_y.max.maxchanends)) $M (1 + ($D __interface_wait_and_yield.maxchanends ? __interface_wait_and_yield.maxchanends $: _i.i2c_master_if._client_call_y.max.maxchanends)) $M 1
	.globl	_i.i2c_master_if._chan_yield.send_stop_bit.maxchanends
	.weak	_i.i2c_master_if._chan_yield.send_stop_bit.maxchanends
.Ltmp401:
	.size	_i.i2c_master_if._chan_yield.send_stop_bit, .Ltmp401-_i.i2c_master_if._chan_yield.send_stop_bit
	.cfi_endproc

	.weak	_i.i2c_master_if._chan_yield.read
	.align	4
	.type	_i.i2c_master_if._chan_yield.read,@function
	.cc_top _i.i2c_master_if._chan_yield.read.function,_i.i2c_master_if._chan_yield.read
_i.i2c_master_if._chan_yield.read:      # @_i.i2c_master_if._chan_yield.read
	.cfi_startproc
	.issue_mode single
# BB#0:                                 # %allocas
	ENTSP_lu6 8
.Ltmp402:
	.cfi_def_cfa_offset 32
.Ltmp403:
	.cfi_offset 15, 0
	std r5, r4, sp[1]               # 4-byte Folded Spill
.Ltmp404:
	.cfi_offset 4, -24
.Ltmp405:
	.cfi_offset 5, -20
	std r7, r6, sp[2]               # 4-byte Folded Spill
.Ltmp406:
	.cfi_offset 6, -16
.Ltmp407:
	.cfi_offset 7, -12
	std r9, r8, sp[3]               # 4-byte Folded Spill
.Ltmp408:
	.cfi_offset 8, -8
.Ltmp409:
	.cfi_offset 9, -4
	#DEBUG_VALUE: _i.i2c_master_if._chan_yield.read:s <- R0
	#DEBUG_VALUE: _i.i2c_master_if._chan_yield.read:param1 <- R1
	#DEBUG_VALUE: _i.i2c_master_if._chan_yield.read:param2 <- R2
	#DEBUG_VALUE: _i.i2c_master_if._chan_yield.read:param3 <- R3
	#DEBUG_VALUE: _i.i2c_master_if._chan_yield.read:param4 <- [SP+36]
	mov r5, r3
	#DEBUG_VALUE: _i.i2c_master_if._chan_yield.read:param3 <- R5
	mov r6, r2
	#DEBUG_VALUE: _i.i2c_master_if._chan_yield.read:param2 <- R6
	mov r7, r1
	#DEBUG_VALUE: _i.i2c_master_if._chan_yield.read:param1 <- R7
	ldw r9, sp[9]
	ldw r1, r0[0]
	getr r4, 2
	setd res[r4], r1
	add r1, r4, 1
	out res[r4], r1
	outct res[r4], 2
	ldw r8, r0[1]
	mov r0, r4
	mov r1, r8
	bl __interface_wait_and_yield
	chkct res[r4], 1
	outt res[r4], r7
	stw r6, sp[1]
	out res[r4], r5
	out res[r4], r9
	outct res[r4], 2
	ldaw r1, sp[1]
	mov r0, r4
	mov r2, r8
	bl __interface_client_call_y
	in r0, res[r4]
	chkct res[r4], 1
	freer res[r4]
	ldd r9, r8, sp[3]               # 4-byte Folded Reload
	ldd r7, r6, sp[2]               # 4-byte Folded Reload
	ldd r5, r4, sp[1]               # 4-byte Folded Reload
	retsp 8
	# RETURN_REG_HOLDER
	.cc_bottom _i.i2c_master_if._chan_yield.read.function
	.set	_i.i2c_master_if._chan_yield.read.nstackwords,((($D __interface_wait_and_yield.nstackwords ? __interface_wait_and_yield.nstackwords $: _i.i2c_master_if._client_call_y.max.nstackwords) $M _i.i2c_master_if._client_call_y.max.nstackwords $M ($D __interface_client_call_y.nstackwords ? __interface_client_call_y.nstackwords $: _i.i2c_master_if._client_call_y.max.nstackwords)) + 8)
	.globl	_i.i2c_master_if._chan_yield.read.nstackwords
	.weak	_i.i2c_master_if._chan_yield.read.nstackwords
	.set	_i.i2c_master_if._chan_yield.read.maxcores,($D __interface_client_call_y.maxcores ? __interface_client_call_y.maxcores $: _i.i2c_master_if._client_call_y.max.maxcores) $M ($D __interface_wait_and_yield.maxcores ? __interface_wait_and_yield.maxcores $: _i.i2c_master_if._client_call_y.max.maxcores) $M 1
	.globl	_i.i2c_master_if._chan_yield.read.maxcores
	.weak	_i.i2c_master_if._chan_yield.read.maxcores
	.set	_i.i2c_master_if._chan_yield.read.maxtimers,($D __interface_client_call_y.maxtimers ? __interface_client_call_y.maxtimers $: _i.i2c_master_if._client_call_y.max.maxtimers) $M ($D __interface_wait_and_yield.maxtimers ? __interface_wait_and_yield.maxtimers $: _i.i2c_master_if._client_call_y.max.maxtimers) $M 0
	.globl	_i.i2c_master_if._chan_yield.read.maxtimers
	.weak	_i.i2c_master_if._chan_yield.read.maxtimers
	.set	_i.i2c_master_if._chan_yield.read.maxchanends,(1 + ($D __interface_client_call_y.maxchanends ? __interface_client_call_y.maxchanends $: _i.i2c_master_if._client_call_y.max.maxchanends)) $M (1 + ($D __interface_wait_and_yield.maxchanends ? __interface_wait_and_yield.maxchanends $: _i.i2c_master_if._client_call_y.max.maxchanends)) $M 1
	.globl	_i.i2c_master_if._chan_yield.read.maxchanends
	.weak	_i.i2c_master_if._chan_yield.read.maxchanends
.Ltmp410:
	.size	_i.i2c_master_if._chan_yield.read, .Ltmp410-_i.i2c_master_if._chan_yield.read
	.cfi_endproc

	.weak	_i.i2c_master_if._chan_yield.write
	.align	4
	.type	_i.i2c_master_if._chan_yield.write,@function
	.cc_top _i.i2c_master_if._chan_yield.write.function,_i.i2c_master_if._chan_yield.write
_i.i2c_master_if._chan_yield.write:     # @_i.i2c_master_if._chan_yield.write
	.cfi_startproc
	.issue_mode single
# BB#0:                                 # %allocas
	ENTSP_lu6 10
.Ltmp411:
	.cfi_def_cfa_offset 40
.Ltmp412:
	.cfi_offset 15, 0
	std r5, r4, sp[1]               # 4-byte Folded Spill
.Ltmp413:
	.cfi_offset 4, -32
.Ltmp414:
	.cfi_offset 5, -28
	std r7, r6, sp[2]               # 4-byte Folded Spill
.Ltmp415:
	.cfi_offset 6, -24
.Ltmp416:
	.cfi_offset 7, -20
	std r9, r8, sp[3]               # 4-byte Folded Spill
.Ltmp417:
	.cfi_offset 8, -16
.Ltmp418:
	.cfi_offset 9, -12
	stw r10, sp[8]                  # 4-byte Folded Spill
.Ltmp419:
	.cfi_offset 10, -8
	#DEBUG_VALUE: _i.i2c_master_if._chan_yield.write:s <- R0
	#DEBUG_VALUE: _i.i2c_master_if._chan_yield.write:param1 <- R1
	#DEBUG_VALUE: _i.i2c_master_if._chan_yield.write:param2 <- R2
	#DEBUG_VALUE: _i.i2c_master_if._chan_yield.write:param3 <- R3
	#DEBUG_VALUE: _i.i2c_master_if._chan_yield.write:param4 <- [SP+44]
	#DEBUG_VALUE: _i.i2c_master_if._chan_yield.write:param5 <- [SP+48]
	mov r5, r3
	#DEBUG_VALUE: _i.i2c_master_if._chan_yield.write:param3 <- R5
	mov r6, r2
	#DEBUG_VALUE: _i.i2c_master_if._chan_yield.write:param2 <- R6
	mov r7, r1
	#DEBUG_VALUE: _i.i2c_master_if._chan_yield.write:param1 <- R7
	ldw r10, sp[12]
	ldw r9, sp[11]
	ldw r1, r0[0]
	getr r4, 2
	setd res[r4], r1
	out res[r4], r4
	outct res[r4], 2
	ldw r8, r0[1]
	mov r0, r4
	mov r1, r8
	bl __interface_wait_and_yield
	chkct res[r4], 1
	outt res[r4], r7
	stw r6, sp[1]
	out res[r4], r5
	ldw r0, r9[0]
	out res[r4], r0
	out res[r4], r10
	outct res[r4], 2
	ldaw r1, sp[1]
	mov r0, r4
	mov r2, r8
	bl __interface_client_call_y
	in r0, res[r4]
	stw r0, r9[0]
	in r0, res[r4]
	chkct res[r4], 1
	freer res[r4]
	ldw r10, sp[8]                  # 4-byte Folded Reload
	ldd r9, r8, sp[3]               # 4-byte Folded Reload
	ldd r7, r6, sp[2]               # 4-byte Folded Reload
	ldd r5, r4, sp[1]               # 4-byte Folded Reload
	retsp 10
	# RETURN_REG_HOLDER
	.cc_bottom _i.i2c_master_if._chan_yield.write.function
	.set	_i.i2c_master_if._chan_yield.write.nstackwords,((($D __interface_wait_and_yield.nstackwords ? __interface_wait_and_yield.nstackwords $: _i.i2c_master_if._client_call_y.max.nstackwords) $M _i.i2c_master_if._client_call_y.max.nstackwords $M ($D __interface_client_call_y.nstackwords ? __interface_client_call_y.nstackwords $: _i.i2c_master_if._client_call_y.max.nstackwords)) + 10)
	.globl	_i.i2c_master_if._chan_yield.write.nstackwords
	.weak	_i.i2c_master_if._chan_yield.write.nstackwords
	.set	_i.i2c_master_if._chan_yield.write.maxcores,($D __interface_client_call_y.maxcores ? __interface_client_call_y.maxcores $: _i.i2c_master_if._client_call_y.max.maxcores) $M ($D __interface_wait_and_yield.maxcores ? __interface_wait_and_yield.maxcores $: _i.i2c_master_if._client_call_y.max.maxcores) $M 1
	.globl	_i.i2c_master_if._chan_yield.write.maxcores
	.weak	_i.i2c_master_if._chan_yield.write.maxcores
	.set	_i.i2c_master_if._chan_yield.write.maxtimers,($D __interface_client_call_y.maxtimers ? __interface_client_call_y.maxtimers $: _i.i2c_master_if._client_call_y.max.maxtimers) $M ($D __interface_wait_and_yield.maxtimers ? __interface_wait_and_yield.maxtimers $: _i.i2c_master_if._client_call_y.max.maxtimers) $M 0
	.globl	_i.i2c_master_if._chan_yield.write.maxtimers
	.weak	_i.i2c_master_if._chan_yield.write.maxtimers
	.set	_i.i2c_master_if._chan_yield.write.maxchanends,(1 + ($D __interface_client_call_y.maxchanends ? __interface_client_call_y.maxchanends $: _i.i2c_master_if._client_call_y.max.maxchanends)) $M (1 + ($D __interface_wait_and_yield.maxchanends ? __interface_wait_and_yield.maxchanends $: _i.i2c_master_if._client_call_y.max.maxchanends)) $M 1
	.globl	_i.i2c_master_if._chan_yield.write.maxchanends
	.weak	_i.i2c_master_if._chan_yield.write.maxchanends
.Ltmp420:
	.size	_i.i2c_master_if._chan_yield.write, .Ltmp420-_i.i2c_master_if._chan_yield.write
	.cfi_endproc

	.weak	_i.i2c_master_async_if._chan.shutdown
	.align	4
	.type	_i.i2c_master_async_if._chan.shutdown,@function
	.cc_top _i.i2c_master_async_if._chan.shutdown.function,_i.i2c_master_async_if._chan.shutdown
_i.i2c_master_async_if._chan.shutdown:  # @_i.i2c_master_async_if._chan.shutdown
	.cfi_startproc
	.issue_mode single
# BB#0:                                 # %allocas
	ENTSP_lu6 4
.Ltmp421:
	.cfi_def_cfa_offset 16
.Ltmp422:
	.cfi_offset 15, 0
	stw r4, sp[2]                   # 4-byte Folded Spill
.Ltmp423:
	.cfi_offset 4, -8
	#DEBUG_VALUE: _i.i2c_master_async_if._chan.shutdown:dest <- R0
	getr r4, 2
	setd res[r4], r0
	add r0, r4, 5
	out res[r4], r0
	outct res[r4], 2
	ldc r1, 0
	mov r0, r4
	bl __interface_wait_and_yield
	in r0, res[r4]
	chkct res[r4], 1
	freer res[r4]
	ldw r4, sp[2]                   # 4-byte Folded Reload
	retsp 4
	# RETURN_REG_HOLDER
	.cc_bottom _i.i2c_master_async_if._chan.shutdown.function
	.set	_i.i2c_master_async_if._chan.shutdown.nstackwords,((_i.i2c_master_async_if._client_call_y.max.nstackwords $M ($D __interface_wait_and_yield.nstackwords ? __interface_wait_and_yield.nstackwords $: _i.i2c_master_async_if._client_call_y.max.nstackwords)) + 4)
	.globl	_i.i2c_master_async_if._chan.shutdown.nstackwords
	.weak	_i.i2c_master_async_if._chan.shutdown.nstackwords
	.set	_i.i2c_master_async_if._chan.shutdown.maxcores,($D __interface_wait_and_yield.maxcores ? __interface_wait_and_yield.maxcores $: _i.i2c_master_async_if._client_call_y.max.maxcores) $M 1
	.globl	_i.i2c_master_async_if._chan.shutdown.maxcores
	.weak	_i.i2c_master_async_if._chan.shutdown.maxcores
	.set	_i.i2c_master_async_if._chan.shutdown.maxtimers,($D __interface_wait_and_yield.maxtimers ? __interface_wait_and_yield.maxtimers $: _i.i2c_master_async_if._client_call_y.max.maxtimers) $M 0
	.globl	_i.i2c_master_async_if._chan.shutdown.maxtimers
	.weak	_i.i2c_master_async_if._chan.shutdown.maxtimers
	.set	_i.i2c_master_async_if._chan.shutdown.maxchanends,(1 + ($D __interface_wait_and_yield.maxchanends ? __interface_wait_and_yield.maxchanends $: _i.i2c_master_async_if._client_call_y.max.maxchanends)) $M 1
	.globl	_i.i2c_master_async_if._chan.shutdown.maxchanends
	.weak	_i.i2c_master_async_if._chan.shutdown.maxchanends
.Ltmp424:
	.size	_i.i2c_master_async_if._chan.shutdown, .Ltmp424-_i.i2c_master_async_if._chan.shutdown
	.cfi_endproc

	.weak	_i.i2c_master_async_if._chan.send_stop_bit
	.align	4
	.type	_i.i2c_master_async_if._chan.send_stop_bit,@function
	.cc_top _i.i2c_master_async_if._chan.send_stop_bit.function,_i.i2c_master_async_if._chan.send_stop_bit
_i.i2c_master_async_if._chan.send_stop_bit: # @_i.i2c_master_async_if._chan.send_stop_bit
	.cfi_startproc
	.issue_mode single
# BB#0:                                 # %allocas
	ENTSP_lu6 4
.Ltmp425:
	.cfi_def_cfa_offset 16
.Ltmp426:
	.cfi_offset 15, 0
	stw r4, sp[2]                   # 4-byte Folded Spill
.Ltmp427:
	.cfi_offset 4, -8
	#DEBUG_VALUE: _i.i2c_master_async_if._chan.send_stop_bit:dest <- R0
	getr r4, 2
	setd res[r4], r0
	add r0, r4, 4
	out res[r4], r0
	outct res[r4], 2
	ldc r1, 0
	mov r0, r4
	bl __interface_wait_and_yield
	in r0, res[r4]
	chkct res[r4], 1
	freer res[r4]
	ldw r4, sp[2]                   # 4-byte Folded Reload
	retsp 4
	# RETURN_REG_HOLDER
	.cc_bottom _i.i2c_master_async_if._chan.send_stop_bit.function
	.set	_i.i2c_master_async_if._chan.send_stop_bit.nstackwords,((_i.i2c_master_async_if._client_call_y.max.nstackwords $M ($D __interface_wait_and_yield.nstackwords ? __interface_wait_and_yield.nstackwords $: _i.i2c_master_async_if._client_call_y.max.nstackwords)) + 4)
	.globl	_i.i2c_master_async_if._chan.send_stop_bit.nstackwords
	.weak	_i.i2c_master_async_if._chan.send_stop_bit.nstackwords
	.set	_i.i2c_master_async_if._chan.send_stop_bit.maxcores,($D __interface_wait_and_yield.maxcores ? __interface_wait_and_yield.maxcores $: _i.i2c_master_async_if._client_call_y.max.maxcores) $M 1
	.globl	_i.i2c_master_async_if._chan.send_stop_bit.maxcores
	.weak	_i.i2c_master_async_if._chan.send_stop_bit.maxcores
	.set	_i.i2c_master_async_if._chan.send_stop_bit.maxtimers,($D __interface_wait_and_yield.maxtimers ? __interface_wait_and_yield.maxtimers $: _i.i2c_master_async_if._client_call_y.max.maxtimers) $M 0
	.globl	_i.i2c_master_async_if._chan.send_stop_bit.maxtimers
	.weak	_i.i2c_master_async_if._chan.send_stop_bit.maxtimers
	.set	_i.i2c_master_async_if._chan.send_stop_bit.maxchanends,(1 + ($D __interface_wait_and_yield.maxchanends ? __interface_wait_and_yield.maxchanends $: _i.i2c_master_async_if._client_call_y.max.maxchanends)) $M 1
	.globl	_i.i2c_master_async_if._chan.send_stop_bit.maxchanends
	.weak	_i.i2c_master_async_if._chan.send_stop_bit.maxchanends
.Ltmp428:
	.size	_i.i2c_master_async_if._chan.send_stop_bit, .Ltmp428-_i.i2c_master_async_if._chan.send_stop_bit
	.cfi_endproc

	.weak	_i.i2c_master_async_if._chan.get_read_data
	.align	4
	.type	_i.i2c_master_async_if._chan.get_read_data,@function
	.cc_top _i.i2c_master_async_if._chan.get_read_data.function,_i.i2c_master_async_if._chan.get_read_data
_i.i2c_master_async_if._chan.get_read_data: # @_i.i2c_master_async_if._chan.get_read_data
	.cfi_startproc
	.issue_mode single
# BB#0:                                 # %allocas
	ENTSP_lu6 6
.Ltmp429:
	.cfi_def_cfa_offset 24
.Ltmp430:
	.cfi_offset 15, 0
	std r5, r4, sp[1]               # 4-byte Folded Spill
.Ltmp431:
	.cfi_offset 4, -16
.Ltmp432:
	.cfi_offset 5, -12
	std r7, r6, sp[2]               # 4-byte Folded Spill
.Ltmp433:
	.cfi_offset 6, -8
.Ltmp434:
	.cfi_offset 7, -4
	#DEBUG_VALUE: _i.i2c_master_async_if._chan.get_read_data:dest <- R0
	#DEBUG_VALUE: _i.i2c_master_async_if._chan.get_read_data:clientNotifyFlag <- R1
	#DEBUG_VALUE: _i.i2c_master_async_if._chan.get_read_data:param2 <- R2
	#DEBUG_VALUE: _i.i2c_master_async_if._chan.get_read_data:param3 <- R3
	mov r4, r3
	#DEBUG_VALUE: _i.i2c_master_async_if._chan.get_read_data:param3 <- R4
	mov r5, r2
	#DEBUG_VALUE: _i.i2c_master_async_if._chan.get_read_data:param2 <- R5
	mov r6, r1
	#DEBUG_VALUE: _i.i2c_master_async_if._chan.get_read_data:clientNotifyFlag <- R6
	getr r7, 2
	setd res[r7], r0
	add r0, r7, 3
	out res[r7], r0
	outct res[r7], 2
	ldc r1, 0
	mov r0, r7
	bl __interface_wait_and_yield
	chkct res[r7], 1
	out res[r7], r6
	stw r5, sp[1]
	out res[r7], r4
	outct res[r7], 2
	ldaw r1, sp[1]
	mov r0, r7
	bl __interface_client_call
	in r0, res[r7]
	chkct res[r7], 1
	freer res[r7]
	ldd r7, r6, sp[2]               # 4-byte Folded Reload
	ldd r5, r4, sp[1]               # 4-byte Folded Reload
	retsp 6
	# RETURN_REG_HOLDER
	.cc_bottom _i.i2c_master_async_if._chan.get_read_data.function
	.set	_i.i2c_master_async_if._chan.get_read_data.nstackwords,((_i.i2c_master_async_if._client_call_y.max.nstackwords $M ($D __interface_wait_and_yield.nstackwords ? __interface_wait_and_yield.nstackwords $: _i.i2c_master_async_if._client_call_y.max.nstackwords) $M __interface_client_call.nstackwords) + 6)
	.globl	_i.i2c_master_async_if._chan.get_read_data.nstackwords
	.weak	_i.i2c_master_async_if._chan.get_read_data.nstackwords
	.set	_i.i2c_master_async_if._chan.get_read_data.maxcores,__interface_client_call.maxcores $M ($D __interface_wait_and_yield.maxcores ? __interface_wait_and_yield.maxcores $: _i.i2c_master_async_if._client_call_y.max.maxcores) $M 1
	.globl	_i.i2c_master_async_if._chan.get_read_data.maxcores
	.weak	_i.i2c_master_async_if._chan.get_read_data.maxcores
	.set	_i.i2c_master_async_if._chan.get_read_data.maxtimers,__interface_client_call.maxtimers $M ($D __interface_wait_and_yield.maxtimers ? __interface_wait_and_yield.maxtimers $: _i.i2c_master_async_if._client_call_y.max.maxtimers) $M 0
	.globl	_i.i2c_master_async_if._chan.get_read_data.maxtimers
	.weak	_i.i2c_master_async_if._chan.get_read_data.maxtimers
	.set	_i.i2c_master_async_if._chan.get_read_data.maxchanends,(1 + __interface_client_call.maxchanends) $M (1 + ($D __interface_wait_and_yield.maxchanends ? __interface_wait_and_yield.maxchanends $: _i.i2c_master_async_if._client_call_y.max.maxchanends)) $M 1
	.globl	_i.i2c_master_async_if._chan.get_read_data.maxchanends
	.weak	_i.i2c_master_async_if._chan.get_read_data.maxchanends
.Ltmp435:
	.size	_i.i2c_master_async_if._chan.get_read_data, .Ltmp435-_i.i2c_master_async_if._chan.get_read_data
	.cfi_endproc

	.weak	_i.i2c_master_async_if._chan.get_write_result
	.align	4
	.type	_i.i2c_master_async_if._chan.get_write_result,@function
	.cc_top _i.i2c_master_async_if._chan.get_write_result.function,_i.i2c_master_async_if._chan.get_write_result
_i.i2c_master_async_if._chan.get_write_result: # @_i.i2c_master_async_if._chan.get_write_result
	.cfi_startproc
	.issue_mode single
# BB#0:                                 # %allocas
	ENTSP_lu6 6
.Ltmp436:
	.cfi_def_cfa_offset 24
.Ltmp437:
	.cfi_offset 15, 0
	std r5, r4, sp[1]               # 4-byte Folded Spill
.Ltmp438:
	.cfi_offset 4, -16
.Ltmp439:
	.cfi_offset 5, -12
	stw r6, sp[4]                   # 4-byte Folded Spill
.Ltmp440:
	.cfi_offset 6, -8
	#DEBUG_VALUE: _i.i2c_master_async_if._chan.get_write_result:dest <- R0
	#DEBUG_VALUE: _i.i2c_master_async_if._chan.get_write_result:clientNotifyFlag <- R1
	#DEBUG_VALUE: _i.i2c_master_async_if._chan.get_write_result:param2 <- R2
	mov r4, r2
	#DEBUG_VALUE: _i.i2c_master_async_if._chan.get_write_result:param2 <- R4
	mov r5, r1
	#DEBUG_VALUE: _i.i2c_master_async_if._chan.get_write_result:clientNotifyFlag <- R5
	getr r6, 2
	setd res[r6], r0
	add r0, r6, 2
	out res[r6], r0
	outct res[r6], 2
	ldc r1, 0
	mov r0, r6
	bl __interface_wait_and_yield
	chkct res[r6], 1
	out res[r6], r5
	ldw r0, r4[0]
	out res[r6], r0
	outct res[r6], 2
	in r0, res[r6]
	in r0, res[r6]
	stw r0, r4[0]
	in r0, res[r6]
	chkct res[r6], 1
	freer res[r6]
	ldw r6, sp[4]                   # 4-byte Folded Reload
	ldd r5, r4, sp[1]               # 4-byte Folded Reload
	retsp 6
	# RETURN_REG_HOLDER
	.cc_bottom _i.i2c_master_async_if._chan.get_write_result.function
	.set	_i.i2c_master_async_if._chan.get_write_result.nstackwords,((_i.i2c_master_async_if._client_call_y.max.nstackwords $M ($D __interface_wait_and_yield.nstackwords ? __interface_wait_and_yield.nstackwords $: _i.i2c_master_async_if._client_call_y.max.nstackwords)) + 6)
	.globl	_i.i2c_master_async_if._chan.get_write_result.nstackwords
	.weak	_i.i2c_master_async_if._chan.get_write_result.nstackwords
	.set	_i.i2c_master_async_if._chan.get_write_result.maxcores,($D __interface_wait_and_yield.maxcores ? __interface_wait_and_yield.maxcores $: _i.i2c_master_async_if._client_call_y.max.maxcores) $M 1
	.globl	_i.i2c_master_async_if._chan.get_write_result.maxcores
	.weak	_i.i2c_master_async_if._chan.get_write_result.maxcores
	.set	_i.i2c_master_async_if._chan.get_write_result.maxtimers,($D __interface_wait_and_yield.maxtimers ? __interface_wait_and_yield.maxtimers $: _i.i2c_master_async_if._client_call_y.max.maxtimers) $M 0
	.globl	_i.i2c_master_async_if._chan.get_write_result.maxtimers
	.weak	_i.i2c_master_async_if._chan.get_write_result.maxtimers
	.set	_i.i2c_master_async_if._chan.get_write_result.maxchanends,(1 + ($D __interface_wait_and_yield.maxchanends ? __interface_wait_and_yield.maxchanends $: _i.i2c_master_async_if._client_call_y.max.maxchanends)) $M 1
	.globl	_i.i2c_master_async_if._chan.get_write_result.maxchanends
	.weak	_i.i2c_master_async_if._chan.get_write_result.maxchanends
.Ltmp441:
	.size	_i.i2c_master_async_if._chan.get_write_result, .Ltmp441-_i.i2c_master_async_if._chan.get_write_result
	.cfi_endproc

	.weak	_i.i2c_master_async_if._chan.read
	.align	4
	.type	_i.i2c_master_async_if._chan.read,@function
	.cc_top _i.i2c_master_async_if._chan.read.function,_i.i2c_master_async_if._chan.read
_i.i2c_master_async_if._chan.read:      # @_i.i2c_master_async_if._chan.read
	.cfi_startproc
	.issue_mode single
# BB#0:                                 # %allocas
	ENTSP_lu6 6
.Ltmp442:
	.cfi_def_cfa_offset 24
.Ltmp443:
	.cfi_offset 15, 0
	std r5, r4, sp[1]               # 4-byte Folded Spill
.Ltmp444:
	.cfi_offset 4, -16
.Ltmp445:
	.cfi_offset 5, -12
	std r7, r6, sp[2]               # 4-byte Folded Spill
.Ltmp446:
	.cfi_offset 6, -8
.Ltmp447:
	.cfi_offset 7, -4
	#DEBUG_VALUE: _i.i2c_master_async_if._chan.read:dest <- R0
	#DEBUG_VALUE: _i.i2c_master_async_if._chan.read:param1 <- R1
	#DEBUG_VALUE: _i.i2c_master_async_if._chan.read:param2 <- R2
	#DEBUG_VALUE: _i.i2c_master_async_if._chan.read:param3 <- R3
	mov r4, r3
	#DEBUG_VALUE: _i.i2c_master_async_if._chan.read:param3 <- R4
	mov r5, r2
	#DEBUG_VALUE: _i.i2c_master_async_if._chan.read:param2 <- R5
	mov r6, r1
	#DEBUG_VALUE: _i.i2c_master_async_if._chan.read:param1 <- R6
	getr r7, 2
	setd res[r7], r0
	add r0, r7, 1
	out res[r7], r0
	outct res[r7], 2
	ldc r1, 0
	mov r0, r7
	bl __interface_wait_and_yield
	chkct res[r7], 1
	outt res[r7], r6
	out res[r7], r5
	out res[r7], r4
	outct res[r7], 2
	in r0, res[r7]
	chkct res[r7], 1
	freer res[r7]
	ldd r7, r6, sp[2]               # 4-byte Folded Reload
	ldd r5, r4, sp[1]               # 4-byte Folded Reload
	retsp 6
	# RETURN_REG_HOLDER
	.cc_bottom _i.i2c_master_async_if._chan.read.function
	.set	_i.i2c_master_async_if._chan.read.nstackwords,((_i.i2c_master_async_if._client_call_y.max.nstackwords $M ($D __interface_wait_and_yield.nstackwords ? __interface_wait_and_yield.nstackwords $: _i.i2c_master_async_if._client_call_y.max.nstackwords)) + 6)
	.globl	_i.i2c_master_async_if._chan.read.nstackwords
	.weak	_i.i2c_master_async_if._chan.read.nstackwords
	.set	_i.i2c_master_async_if._chan.read.maxcores,($D __interface_wait_and_yield.maxcores ? __interface_wait_and_yield.maxcores $: _i.i2c_master_async_if._client_call_y.max.maxcores) $M 1
	.globl	_i.i2c_master_async_if._chan.read.maxcores
	.weak	_i.i2c_master_async_if._chan.read.maxcores
	.set	_i.i2c_master_async_if._chan.read.maxtimers,($D __interface_wait_and_yield.maxtimers ? __interface_wait_and_yield.maxtimers $: _i.i2c_master_async_if._client_call_y.max.maxtimers) $M 0
	.globl	_i.i2c_master_async_if._chan.read.maxtimers
	.weak	_i.i2c_master_async_if._chan.read.maxtimers
	.set	_i.i2c_master_async_if._chan.read.maxchanends,(1 + ($D __interface_wait_and_yield.maxchanends ? __interface_wait_and_yield.maxchanends $: _i.i2c_master_async_if._client_call_y.max.maxchanends)) $M 1
	.globl	_i.i2c_master_async_if._chan.read.maxchanends
	.weak	_i.i2c_master_async_if._chan.read.maxchanends
.Ltmp448:
	.size	_i.i2c_master_async_if._chan.read, .Ltmp448-_i.i2c_master_async_if._chan.read
	.cfi_endproc

	.weak	_i.i2c_master_async_if._chan.write
	.align	4
	.type	_i.i2c_master_async_if._chan.write,@function
	.cc_top _i.i2c_master_async_if._chan.write.function,_i.i2c_master_async_if._chan.write
_i.i2c_master_async_if._chan.write:     # @_i.i2c_master_async_if._chan.write
	.cfi_startproc
	.issue_mode single
# BB#0:                                 # %allocas
	ENTSP_lu6 8
.Ltmp449:
	.cfi_def_cfa_offset 32
.Ltmp450:
	.cfi_offset 15, 0
	std r5, r4, sp[1]               # 4-byte Folded Spill
.Ltmp451:
	.cfi_offset 4, -24
.Ltmp452:
	.cfi_offset 5, -20
	std r7, r6, sp[2]               # 4-byte Folded Spill
.Ltmp453:
	.cfi_offset 6, -16
.Ltmp454:
	.cfi_offset 7, -12
	stw r8, sp[6]                   # 4-byte Folded Spill
.Ltmp455:
	.cfi_offset 8, -8
	#DEBUG_VALUE: _i.i2c_master_async_if._chan.write:dest <- R0
	#DEBUG_VALUE: _i.i2c_master_async_if._chan.write:param1 <- R1
	#DEBUG_VALUE: _i.i2c_master_async_if._chan.write:param2 <- R2
	#DEBUG_VALUE: _i.i2c_master_async_if._chan.write:param3 <- R3
	#DEBUG_VALUE: _i.i2c_master_async_if._chan.write:param4 <- [SP+36]
	mov r4, r3
	#DEBUG_VALUE: _i.i2c_master_async_if._chan.write:param3 <- R4
	mov r5, r2
	#DEBUG_VALUE: _i.i2c_master_async_if._chan.write:param2 <- R5
	mov r6, r1
	#DEBUG_VALUE: _i.i2c_master_async_if._chan.write:param1 <- R6
	ldw r8, sp[9]
	getr r7, 2
	setd res[r7], r0
	out res[r7], r7
	outct res[r7], 2
	ldc r1, 0
	mov r0, r7
	bl __interface_wait_and_yield
	chkct res[r7], 1
	outt res[r7], r6
	stw r5, sp[1]
	out res[r7], r4
	out res[r7], r8
	outct res[r7], 2
	ldaw r1, sp[1]
	mov r0, r7
	bl __interface_client_call
	chkct res[r7], 1
	freer res[r7]
	ldw r8, sp[6]                   # 4-byte Folded Reload
	ldd r7, r6, sp[2]               # 4-byte Folded Reload
	ldd r5, r4, sp[1]               # 4-byte Folded Reload
	retsp 8
	# RETURN_REG_HOLDER
	.cc_bottom _i.i2c_master_async_if._chan.write.function
	.set	_i.i2c_master_async_if._chan.write.nstackwords,((_i.i2c_master_async_if._client_call_y.max.nstackwords $M ($D __interface_wait_and_yield.nstackwords ? __interface_wait_and_yield.nstackwords $: _i.i2c_master_async_if._client_call_y.max.nstackwords) $M __interface_client_call.nstackwords) + 8)
	.globl	_i.i2c_master_async_if._chan.write.nstackwords
	.weak	_i.i2c_master_async_if._chan.write.nstackwords
	.set	_i.i2c_master_async_if._chan.write.maxcores,__interface_client_call.maxcores $M ($D __interface_wait_and_yield.maxcores ? __interface_wait_and_yield.maxcores $: _i.i2c_master_async_if._client_call_y.max.maxcores) $M 1
	.globl	_i.i2c_master_async_if._chan.write.maxcores
	.weak	_i.i2c_master_async_if._chan.write.maxcores
	.set	_i.i2c_master_async_if._chan.write.maxtimers,__interface_client_call.maxtimers $M ($D __interface_wait_and_yield.maxtimers ? __interface_wait_and_yield.maxtimers $: _i.i2c_master_async_if._client_call_y.max.maxtimers) $M 0
	.globl	_i.i2c_master_async_if._chan.write.maxtimers
	.weak	_i.i2c_master_async_if._chan.write.maxtimers
	.set	_i.i2c_master_async_if._chan.write.maxchanends,(1 + __interface_client_call.maxchanends) $M (1 + ($D __interface_wait_and_yield.maxchanends ? __interface_wait_and_yield.maxchanends $: _i.i2c_master_async_if._client_call_y.max.maxchanends)) $M 1
	.globl	_i.i2c_master_async_if._chan.write.maxchanends
	.weak	_i.i2c_master_async_if._chan.write.maxchanends
.Ltmp456:
	.size	_i.i2c_master_async_if._chan.write, .Ltmp456-_i.i2c_master_async_if._chan.write
	.cfi_endproc

	.weak	_i.i2c_master_async_if._chan_yield.shutdown
	.align	4
	.type	_i.i2c_master_async_if._chan_yield.shutdown,@function
	.cc_top _i.i2c_master_async_if._chan_yield.shutdown.function,_i.i2c_master_async_if._chan_yield.shutdown
_i.i2c_master_async_if._chan_yield.shutdown: # @_i.i2c_master_async_if._chan_yield.shutdown
	.cfi_startproc
	.issue_mode single
# BB#0:                                 # %allocas
	ENTSP_lu6 4
.Ltmp457:
	.cfi_def_cfa_offset 16
.Ltmp458:
	.cfi_offset 15, 0
	std r5, r4, sp[1]               # 4-byte Folded Spill
.Ltmp459:
	.cfi_offset 4, -8
.Ltmp460:
	.cfi_offset 5, -4
	#DEBUG_VALUE: _i.i2c_master_async_if._chan_yield.shutdown:s <- R0
	ldw r1, r0[0]
	getr r4, 2
	setd res[r4], r1
	add r1, r4, 5
	out res[r4], r1
	outct res[r4], 2
	ldw r5, r0[1]
	mov r0, r4
	mov r1, r5
	bl __interface_wait_and_yield
	ldc r1, 0
	mov r0, r4
	mov r2, r5
	bl __interface_client_call_y
	chkct res[r4], 1
	freer res[r4]
	ldd r5, r4, sp[1]               # 4-byte Folded Reload
	retsp 4
	# RETURN_REG_HOLDER
	.cc_bottom _i.i2c_master_async_if._chan_yield.shutdown.function
	.set	_i.i2c_master_async_if._chan_yield.shutdown.nstackwords,((($D __interface_wait_and_yield.nstackwords ? __interface_wait_and_yield.nstackwords $: _i.i2c_master_async_if._client_call_y.max.nstackwords) $M _i.i2c_master_async_if._client_call_y.max.nstackwords $M ($D __interface_client_call_y.nstackwords ? __interface_client_call_y.nstackwords $: _i.i2c_master_async_if._client_call_y.max.nstackwords)) + 4)
	.globl	_i.i2c_master_async_if._chan_yield.shutdown.nstackwords
	.weak	_i.i2c_master_async_if._chan_yield.shutdown.nstackwords
	.set	_i.i2c_master_async_if._chan_yield.shutdown.maxcores,($D __interface_client_call_y.maxcores ? __interface_client_call_y.maxcores $: _i.i2c_master_async_if._client_call_y.max.maxcores) $M ($D __interface_wait_and_yield.maxcores ? __interface_wait_and_yield.maxcores $: _i.i2c_master_async_if._client_call_y.max.maxcores) $M 1
	.globl	_i.i2c_master_async_if._chan_yield.shutdown.maxcores
	.weak	_i.i2c_master_async_if._chan_yield.shutdown.maxcores
	.set	_i.i2c_master_async_if._chan_yield.shutdown.maxtimers,($D __interface_client_call_y.maxtimers ? __interface_client_call_y.maxtimers $: _i.i2c_master_async_if._client_call_y.max.maxtimers) $M ($D __interface_wait_and_yield.maxtimers ? __interface_wait_and_yield.maxtimers $: _i.i2c_master_async_if._client_call_y.max.maxtimers) $M 0
	.globl	_i.i2c_master_async_if._chan_yield.shutdown.maxtimers
	.weak	_i.i2c_master_async_if._chan_yield.shutdown.maxtimers
	.set	_i.i2c_master_async_if._chan_yield.shutdown.maxchanends,(1 + ($D __interface_client_call_y.maxchanends ? __interface_client_call_y.maxchanends $: _i.i2c_master_async_if._client_call_y.max.maxchanends)) $M (1 + ($D __interface_wait_and_yield.maxchanends ? __interface_wait_and_yield.maxchanends $: _i.i2c_master_async_if._client_call_y.max.maxchanends)) $M 1
	.globl	_i.i2c_master_async_if._chan_yield.shutdown.maxchanends
	.weak	_i.i2c_master_async_if._chan_yield.shutdown.maxchanends
.Ltmp461:
	.size	_i.i2c_master_async_if._chan_yield.shutdown, .Ltmp461-_i.i2c_master_async_if._chan_yield.shutdown
	.cfi_endproc

	.weak	_i.i2c_master_async_if._chan_yield.send_stop_bit
	.align	4
	.type	_i.i2c_master_async_if._chan_yield.send_stop_bit,@function
	.cc_top _i.i2c_master_async_if._chan_yield.send_stop_bit.function,_i.i2c_master_async_if._chan_yield.send_stop_bit
_i.i2c_master_async_if._chan_yield.send_stop_bit: # @_i.i2c_master_async_if._chan_yield.send_stop_bit
	.cfi_startproc
	.issue_mode single
# BB#0:                                 # %allocas
	ENTSP_lu6 4
.Ltmp462:
	.cfi_def_cfa_offset 16
.Ltmp463:
	.cfi_offset 15, 0
	std r5, r4, sp[1]               # 4-byte Folded Spill
.Ltmp464:
	.cfi_offset 4, -8
.Ltmp465:
	.cfi_offset 5, -4
	#DEBUG_VALUE: _i.i2c_master_async_if._chan_yield.send_stop_bit:s <- R0
	ldw r1, r0[0]
	getr r4, 2
	setd res[r4], r1
	add r1, r4, 4
	out res[r4], r1
	outct res[r4], 2
	ldw r5, r0[1]
	mov r0, r4
	mov r1, r5
	bl __interface_wait_and_yield
	ldc r1, 0
	mov r0, r4
	mov r2, r5
	bl __interface_client_call_y
	chkct res[r4], 1
	freer res[r4]
	ldd r5, r4, sp[1]               # 4-byte Folded Reload
	retsp 4
	# RETURN_REG_HOLDER
	.cc_bottom _i.i2c_master_async_if._chan_yield.send_stop_bit.function
	.set	_i.i2c_master_async_if._chan_yield.send_stop_bit.nstackwords,((($D __interface_wait_and_yield.nstackwords ? __interface_wait_and_yield.nstackwords $: _i.i2c_master_async_if._client_call_y.max.nstackwords) $M _i.i2c_master_async_if._client_call_y.max.nstackwords $M ($D __interface_client_call_y.nstackwords ? __interface_client_call_y.nstackwords $: _i.i2c_master_async_if._client_call_y.max.nstackwords)) + 4)
	.globl	_i.i2c_master_async_if._chan_yield.send_stop_bit.nstackwords
	.weak	_i.i2c_master_async_if._chan_yield.send_stop_bit.nstackwords
	.set	_i.i2c_master_async_if._chan_yield.send_stop_bit.maxcores,($D __interface_client_call_y.maxcores ? __interface_client_call_y.maxcores $: _i.i2c_master_async_if._client_call_y.max.maxcores) $M ($D __interface_wait_and_yield.maxcores ? __interface_wait_and_yield.maxcores $: _i.i2c_master_async_if._client_call_y.max.maxcores) $M 1
	.globl	_i.i2c_master_async_if._chan_yield.send_stop_bit.maxcores
	.weak	_i.i2c_master_async_if._chan_yield.send_stop_bit.maxcores
