	.text
	.file	"C:/Users/user/workspace/module_vocalfusion/src/vendorrequests.xc"
                                        # Start of file scope inline assembly
	.inline_definition __i_i2c_master_if_read_reg
	.inline_definition __i_i2c_master_if_write_reg
	.inline_definition __i_i2c_master_if_read_reg8_addr16
	.inline_definition __i_i2c_master_if_write_reg8_addr16
	.inline_definition __i_i2c_master_if_read_reg16
	.inline_definition __i_i2c_master_if_write_reg16
	.inline_definition __i_i2c_master_if_read_reg16_addr8
	.inline_definition __i_i2c_master_if_write_reg16_addr8
	.inline_definition delay_seconds
	.inline_definition delay_milliseconds
	.inline_definition delay_microseconds
	.inline_definition XUD_SetReady_Out
	.inline_definition XUD_SetReady_OutPtr
	.inline_definition XUD_SetReady_InPtr
	.inline_definition XUD_SetReady_In
	.weak _i.i2c_slave_callback_if.start_read_request.maxchanends.group
	.max_reduce _i.i2c_slave_callback_if.start_read_request.max.maxchanends, _i.i2c_slave_callback_if.start_read_request.maxchanends.group, 0
	.weak _i.i2c_slave_callback_if.start_read_request.maxcores.group
	.max_reduce _i.i2c_slave_callback_if.start_read_request.max.maxcores, _i.i2c_slave_callback_if.start_read_request.maxcores.group, 0
	.weak _i.i2c_slave_callback_if.start_read_request.maxtimers.group
	.max_reduce _i.i2c_slave_callback_if.start_read_request.max.maxtimers, _i.i2c_slave_callback_if.start_read_request.maxtimers.group, 0
	.weak _i.i2c_slave_callback_if.start_read_request.nstackwords.group
	.globl _i.i2c_slave_callback_if.start_read_request.nstackwords.group
	.weak _i.i2c_slave_callback_if.start_read_request.fns.group
	.globl _i.i2c_slave_callback_if.start_read_request.fns.group
	.max_reduce _i.i2c_slave_callback_if.start_read_request.max.nstackwords, _i.i2c_slave_callback_if.start_read_request.nstackwords.group, 0
	.max_reduce _i.i2c_slave_callback_if.start_read_request.fns, _i.i2c_slave_callback_if.start_read_request.fns.group, 0
	.weak _i.i2c_slave_callback_if.ack_read_request.maxchanends.group
	.max_reduce _i.i2c_slave_callback_if.ack_read_request.max.maxchanends, _i.i2c_slave_callback_if.ack_read_request.maxchanends.group, 0
	.weak _i.i2c_slave_callback_if.ack_read_request.maxcores.group
	.max_reduce _i.i2c_slave_callback_if.ack_read_request.max.maxcores, _i.i2c_slave_callback_if.ack_read_request.maxcores.group, 0
	.weak _i.i2c_slave_callback_if.ack_read_request.maxtimers.group
	.max_reduce _i.i2c_slave_callback_if.ack_read_request.max.maxtimers, _i.i2c_slave_callback_if.ack_read_request.maxtimers.group, 0
	.weak _i.i2c_slave_callback_if.ack_read_request.nstackwords.group
	.globl _i.i2c_slave_callback_if.ack_read_request.nstackwords.group
	.weak _i.i2c_slave_callback_if.ack_read_request.fns.group
	.globl _i.i2c_slave_callback_if.ack_read_request.fns.group
	.max_reduce _i.i2c_slave_callback_if.ack_read_request.max.nstackwords, _i.i2c_slave_callback_if.ack_read_request.nstackwords.group, 0
	.max_reduce _i.i2c_slave_callback_if.ack_read_request.fns, _i.i2c_slave_callback_if.ack_read_request.fns.group, 0
	.weak _i.i2c_slave_callback_if.start_write_request.maxchanends.group
	.max_reduce _i.i2c_slave_callback_if.start_write_request.max.maxchanends, _i.i2c_slave_callback_if.start_write_request.maxchanends.group, 0
	.weak _i.i2c_slave_callback_if.start_write_request.maxcores.group
	.max_reduce _i.i2c_slave_callback_if.start_write_request.max.maxcores, _i.i2c_slave_callback_if.start_write_request.maxcores.group, 0
	.weak _i.i2c_slave_callback_if.start_write_request.maxtimers.group
	.max_reduce _i.i2c_slave_callback_if.start_write_request.max.maxtimers, _i.i2c_slave_callback_if.start_write_request.maxtimers.group, 0
	.weak _i.i2c_slave_callback_if.start_write_request.nstackwords.group
	.globl _i.i2c_slave_callback_if.start_write_request.nstackwords.group
	.weak _i.i2c_slave_callback_if.start_write_request.fns.group
	.globl _i.i2c_slave_callback_if.start_write_request.fns.group
	.max_reduce _i.i2c_slave_callback_if.start_write_request.max.nstackwords, _i.i2c_slave_callback_if.start_write_request.nstackwords.group, 0
	.max_reduce _i.i2c_slave_callback_if.start_write_request.fns, _i.i2c_slave_callback_if.start_write_request.fns.group, 0
	.weak _i.i2c_slave_callback_if.ack_write_request.maxchanends.group
	.max_reduce _i.i2c_slave_callback_if.ack_write_request.max.maxchanends, _i.i2c_slave_callback_if.ack_write_request.maxchanends.group, 0
	.weak _i.i2c_slave_callback_if.ack_write_request.maxcores.group
	.max_reduce _i.i2c_slave_callback_if.ack_write_request.max.maxcores, _i.i2c_slave_callback_if.ack_write_request.maxcores.group, 0
	.weak _i.i2c_slave_callback_if.ack_write_request.maxtimers.group
	.max_reduce _i.i2c_slave_callback_if.ack_write_request.max.maxtimers, _i.i2c_slave_callback_if.ack_write_request.maxtimers.group, 0
	.weak _i.i2c_slave_callback_if.ack_write_request.nstackwords.group
	.globl _i.i2c_slave_callback_if.ack_write_request.nstackwords.group
	.weak _i.i2c_slave_callback_if.ack_write_request.fns.group
	.globl _i.i2c_slave_callback_if.ack_write_request.fns.group
	.max_reduce _i.i2c_slave_callback_if.ack_write_request.max.nstackwords, _i.i2c_slave_callback_if.ack_write_request.nstackwords.group, 0
	.max_reduce _i.i2c_slave_callback_if.ack_write_request.fns, _i.i2c_slave_callback_if.ack_write_request.fns.group, 0
	.weak _i.i2c_slave_callback_if.start_master_read.maxchanends.group
	.max_reduce _i.i2c_slave_callback_if.start_master_read.max.maxchanends, _i.i2c_slave_callback_if.start_master_read.maxchanends.group, 0
	.weak _i.i2c_slave_callback_if.start_master_read.maxcores.group
	.max_reduce _i.i2c_slave_callback_if.start_master_read.max.maxcores, _i.i2c_slave_callback_if.start_master_read.maxcores.group, 0
	.weak _i.i2c_slave_callback_if.start_master_read.maxtimers.group
	.max_reduce _i.i2c_slave_callback_if.start_master_read.max.maxtimers, _i.i2c_slave_callback_if.start_master_read.maxtimers.group, 0
	.weak _i.i2c_slave_callback_if.start_master_read.nstackwords.group
	.globl _i.i2c_slave_callback_if.start_master_read.nstackwords.group
	.weak _i.i2c_slave_callback_if.start_master_read.fns.group
	.globl _i.i2c_slave_callback_if.start_master_read.fns.group
	.max_reduce _i.i2c_slave_callback_if.start_master_read.max.nstackwords, _i.i2c_slave_callback_if.start_master_read.nstackwords.group, 0
	.max_reduce _i.i2c_slave_callback_if.start_master_read.fns, _i.i2c_slave_callback_if.start_master_read.fns.group, 0
	.weak _i.i2c_slave_callback_if.master_requires_data.maxchanends.group
	.max_reduce _i.i2c_slave_callback_if.master_requires_data.max.maxchanends, _i.i2c_slave_callback_if.master_requires_data.maxchanends.group, 0
	.weak _i.i2c_slave_callback_if.master_requires_data.maxcores.group
	.max_reduce _i.i2c_slave_callback_if.master_requires_data.max.maxcores, _i.i2c_slave_callback_if.master_requires_data.maxcores.group, 0
	.weak _i.i2c_slave_callback_if.master_requires_data.maxtimers.group
	.max_reduce _i.i2c_slave_callback_if.master_requires_data.max.maxtimers, _i.i2c_slave_callback_if.master_requires_data.maxtimers.group, 0
	.weak _i.i2c_slave_callback_if.master_requires_data.nstackwords.group
	.globl _i.i2c_slave_callback_if.master_requires_data.nstackwords.group
	.weak _i.i2c_slave_callback_if.master_requires_data.fns.group
	.globl _i.i2c_slave_callback_if.master_requires_data.fns.group
	.max_reduce _i.i2c_slave_callback_if.master_requires_data.max.nstackwords, _i.i2c_slave_callback_if.master_requires_data.nstackwords.group, 0
	.max_reduce _i.i2c_slave_callback_if.master_requires_data.fns, _i.i2c_slave_callback_if.master_requires_data.fns.group, 0
	.weak _i.i2c_slave_callback_if.start_master_write.maxchanends.group
	.max_reduce _i.i2c_slave_callback_if.start_master_write.max.maxchanends, _i.i2c_slave_callback_if.start_master_write.maxchanends.group, 0
	.weak _i.i2c_slave_callback_if.start_master_write.maxcores.group
	.max_reduce _i.i2c_slave_callback_if.start_master_write.max.maxcores, _i.i2c_slave_callback_if.start_master_write.maxcores.group, 0
	.weak _i.i2c_slave_callback_if.start_master_write.maxtimers.group
	.max_reduce _i.i2c_slave_callback_if.start_master_write.max.maxtimers, _i.i2c_slave_callback_if.start_master_write.maxtimers.group, 0
	.weak _i.i2c_slave_callback_if.start_master_write.nstackwords.group
	.globl _i.i2c_slave_callback_if.start_master_write.nstackwords.group
	.weak _i.i2c_slave_callback_if.start_master_write.fns.group
	.globl _i.i2c_slave_callback_if.start_master_write.fns.group
	.max_reduce _i.i2c_slave_callback_if.start_master_write.max.nstackwords, _i.i2c_slave_callback_if.start_master_write.nstackwords.group, 0
	.max_reduce _i.i2c_slave_callback_if.start_master_write.fns, _i.i2c_slave_callback_if.start_master_write.fns.group, 0
	.weak _i.i2c_slave_callback_if.master_sent_data.maxchanends.group
	.max_reduce _i.i2c_slave_callback_if.master_sent_data.max.maxchanends, _i.i2c_slave_callback_if.master_sent_data.maxchanends.group, 0
	.weak _i.i2c_slave_callback_if.master_sent_data.maxcores.group
	.max_reduce _i.i2c_slave_callback_if.master_sent_data.max.maxcores, _i.i2c_slave_callback_if.master_sent_data.maxcores.group, 0
	.weak _i.i2c_slave_callback_if.master_sent_data.maxtimers.group
	.max_reduce _i.i2c_slave_callback_if.master_sent_data.max.maxtimers, _i.i2c_slave_callback_if.master_sent_data.maxtimers.group, 0
	.weak _i.i2c_slave_callback_if.master_sent_data.nstackwords.group
	.globl _i.i2c_slave_callback_if.master_sent_data.nstackwords.group
	.weak _i.i2c_slave_callback_if.master_sent_data.fns.group
	.globl _i.i2c_slave_callback_if.master_sent_data.fns.group
	.max_reduce _i.i2c_slave_callback_if.master_sent_data.max.nstackwords, _i.i2c_slave_callback_if.master_sent_data.nstackwords.group, 0
	.max_reduce _i.i2c_slave_callback_if.master_sent_data.fns, _i.i2c_slave_callback_if.master_sent_data.fns.group, 0
	.weak _i.i2c_slave_callback_if.stop_bit.maxchanends.group
	.max_reduce _i.i2c_slave_callback_if.stop_bit.max.maxchanends, _i.i2c_slave_callback_if.stop_bit.maxchanends.group, 0
	.weak _i.i2c_slave_callback_if.stop_bit.maxcores.group
	.max_reduce _i.i2c_slave_callback_if.stop_bit.max.maxcores, _i.i2c_slave_callback_if.stop_bit.maxcores.group, 0
	.weak _i.i2c_slave_callback_if.stop_bit.maxtimers.group
	.max_reduce _i.i2c_slave_callback_if.stop_bit.max.maxtimers, _i.i2c_slave_callback_if.stop_bit.maxtimers.group, 0
	.weak _i.i2c_slave_callback_if.stop_bit.nstackwords.group
	.globl _i.i2c_slave_callback_if.stop_bit.nstackwords.group
	.weak _i.i2c_slave_callback_if.stop_bit.fns.group
	.globl _i.i2c_slave_callback_if.stop_bit.fns.group
	.max_reduce _i.i2c_slave_callback_if.stop_bit.max.nstackwords, _i.i2c_slave_callback_if.stop_bit.nstackwords.group, 0
	.max_reduce _i.i2c_slave_callback_if.stop_bit.fns, _i.i2c_slave_callback_if.stop_bit.fns.group, 0
	.weak _i.i2c_slave_callback_if.__interface_init.maxchanends.group
	.max_reduce _i.i2c_slave_callback_if.__interface_init.max.maxchanends, _i.i2c_slave_callback_if.__interface_init.maxchanends.group, 0
	.weak _i.i2c_slave_callback_if.__interface_init.maxcores.group
	.max_reduce _i.i2c_slave_callback_if.__interface_init.max.maxcores, _i.i2c_slave_callback_if.__interface_init.maxcores.group, 0
	.weak _i.i2c_slave_callback_if.__interface_init.maxtimers.group
	.max_reduce _i.i2c_slave_callback_if.__interface_init.max.maxtimers, _i.i2c_slave_callback_if.__interface_init.maxtimers.group, 0
	.weak _i.i2c_slave_callback_if.__interface_init.nstackwords.group
	.globl _i.i2c_slave_callback_if.__interface_init.nstackwords.group
	.weak _i.i2c_slave_callback_if.__interface_init.fns.group
	.globl _i.i2c_slave_callback_if.__interface_init.fns.group
	.max_reduce _i.i2c_slave_callback_if.__interface_init.max.nstackwords, _i.i2c_slave_callback_if.__interface_init.nstackwords.group, 0
	.max_reduce _i.i2c_slave_callback_if.__interface_init.fns, _i.i2c_slave_callback_if.__interface_init.fns.group, 0
	.weak _i.i2c_slave_callback_if._client_call_y.maxchanends.group
	.add_to_set _i.i2c_slave_callback_if._client_call_y.maxchanends.group, (__interface_client_call_y_other.maxchanends + __interface_client_call_y_extra.maxchanends), __interface_client_call_y_other
	.max_reduce _i.i2c_slave_callback_if._client_call_y.max.maxchanends, _i.i2c_slave_callback_if._client_call_y.maxchanends.group, 0
	.weak _i.i2c_slave_callback_if._client_call_y.maxcores.group
	.add_to_set _i.i2c_slave_callback_if._client_call_y.maxcores.group, (__interface_client_call_y_other.maxcores + __interface_client_call_y_extra.maxcores), __interface_client_call_y_other
	.max_reduce _i.i2c_slave_callback_if._client_call_y.max.maxcores, _i.i2c_slave_callback_if._client_call_y.maxcores.group, 0
	.weak _i.i2c_slave_callback_if._client_call_y.maxtimers.group
	.add_to_set _i.i2c_slave_callback_if._client_call_y.maxtimers.group, (__interface_client_call_y_other.maxtimers + __interface_client_call_y_extra.maxtimers), __interface_client_call_y_other
	.max_reduce _i.i2c_slave_callback_if._client_call_y.max.maxtimers, _i.i2c_slave_callback_if._client_call_y.maxtimers.group, 0
	.weak _i.i2c_slave_callback_if._client_call_y.nstackwords.group
	.globl _i.i2c_slave_callback_if._client_call_y.nstackwords.group
	.weak _i.i2c_slave_callback_if._client_call_y.fns.group
	.globl _i.i2c_slave_callback_if._client_call_y.fns.group
	.add_to_set _i.i2c_slave_callback_if._client_call_y.nstackwords.group, (__interface_client_call_y_other.nstackwords + __interface_client_call_y_extra.nstackwords), __interface_client_call_y_other
	.add_to_set _i.i2c_slave_callback_if._client_call_y.fns.group, __interface_client_call_y_other, __interface_client_call_y_other
	.max_reduce _i.i2c_slave_callback_if._client_call_y.max.nstackwords, _i.i2c_slave_callback_if._client_call_y.nstackwords.group, 0
	.max_reduce _i.i2c_slave_callback_if._client_call_y.fns, _i.i2c_slave_callback_if._client_call_y.fns.group, 0
	.weak _i.i2c_master_async_if.write.maxchanends.group
	.max_reduce _i.i2c_master_async_if.write.max.maxchanends, _i.i2c_master_async_if.write.maxchanends.group, 0
	.weak _i.i2c_master_async_if.write.maxcores.group
	.max_reduce _i.i2c_master_async_if.write.max.maxcores, _i.i2c_master_async_if.write.maxcores.group, 0
	.weak _i.i2c_master_async_if.write.maxtimers.group
	.max_reduce _i.i2c_master_async_if.write.max.maxtimers, _i.i2c_master_async_if.write.maxtimers.group, 0
	.weak _i.i2c_master_async_if.write.nstackwords.group
	.globl _i.i2c_master_async_if.write.nstackwords.group
	.weak _i.i2c_master_async_if.write.fns.group
	.globl _i.i2c_master_async_if.write.fns.group
	.max_reduce _i.i2c_master_async_if.write.max.nstackwords, _i.i2c_master_async_if.write.nstackwords.group, 0
	.max_reduce _i.i2c_master_async_if.write.fns, _i.i2c_master_async_if.write.fns.group, 0
	.weak _i.i2c_master_async_if.read.maxchanends.group
	.max_reduce _i.i2c_master_async_if.read.max.maxchanends, _i.i2c_master_async_if.read.maxchanends.group, 0
	.weak _i.i2c_master_async_if.read.maxcores.group
	.max_reduce _i.i2c_master_async_if.read.max.maxcores, _i.i2c_master_async_if.read.maxcores.group, 0
	.weak _i.i2c_master_async_if.read.maxtimers.group
	.max_reduce _i.i2c_master_async_if.read.max.maxtimers, _i.i2c_master_async_if.read.maxtimers.group, 0
	.weak _i.i2c_master_async_if.read.nstackwords.group
	.globl _i.i2c_master_async_if.read.nstackwords.group
	.weak _i.i2c_master_async_if.read.fns.group
	.globl _i.i2c_master_async_if.read.fns.group
	.max_reduce _i.i2c_master_async_if.read.max.nstackwords, _i.i2c_master_async_if.read.nstackwords.group, 0
	.max_reduce _i.i2c_master_async_if.read.fns, _i.i2c_master_async_if.read.fns.group, 0
	.weak _i.i2c_master_async_if.get_write_result.maxchanends.group
	.max_reduce _i.i2c_master_async_if.get_write_result.max.maxchanends, _i.i2c_master_async_if.get_write_result.maxchanends.group, 0
	.weak _i.i2c_master_async_if.get_write_result.maxcores.group
	.max_reduce _i.i2c_master_async_if.get_write_result.max.maxcores, _i.i2c_master_async_if.get_write_result.maxcores.group, 0
	.weak _i.i2c_master_async_if.get_write_result.maxtimers.group
	.max_reduce _i.i2c_master_async_if.get_write_result.max.maxtimers, _i.i2c_master_async_if.get_write_result.maxtimers.group, 0
	.weak _i.i2c_master_async_if.get_write_result.nstackwords.group
	.globl _i.i2c_master_async_if.get_write_result.nstackwords.group
	.weak _i.i2c_master_async_if.get_write_result.fns.group
	.globl _i.i2c_master_async_if.get_write_result.fns.group
	.max_reduce _i.i2c_master_async_if.get_write_result.max.nstackwords, _i.i2c_master_async_if.get_write_result.nstackwords.group, 0
	.max_reduce _i.i2c_master_async_if.get_write_result.fns, _i.i2c_master_async_if.get_write_result.fns.group, 0
	.weak _i.i2c_master_async_if.get_read_data.maxchanends.group
	.max_reduce _i.i2c_master_async_if.get_read_data.max.maxchanends, _i.i2c_master_async_if.get_read_data.maxchanends.group, 0
	.weak _i.i2c_master_async_if.get_read_data.maxcores.group
	.max_reduce _i.i2c_master_async_if.get_read_data.max.maxcores, _i.i2c_master_async_if.get_read_data.maxcores.group, 0
	.weak _i.i2c_master_async_if.get_read_data.maxtimers.group
	.max_reduce _i.i2c_master_async_if.get_read_data.max.maxtimers, _i.i2c_master_async_if.get_read_data.maxtimers.group, 0
	.weak _i.i2c_master_async_if.get_read_data.nstackwords.group
	.globl _i.i2c_master_async_if.get_read_data.nstackwords.group
	.weak _i.i2c_master_async_if.get_read_data.fns.group
	.globl _i.i2c_master_async_if.get_read_data.fns.group
	.max_reduce _i.i2c_master_async_if.get_read_data.max.nstackwords, _i.i2c_master_async_if.get_read_data.nstackwords.group, 0
	.max_reduce _i.i2c_master_async_if.get_read_data.fns, _i.i2c_master_async_if.get_read_data.fns.group, 0
	.weak _i.i2c_master_async_if.send_stop_bit.maxchanends.group
	.max_reduce _i.i2c_master_async_if.send_stop_bit.max.maxchanends, _i.i2c_master_async_if.send_stop_bit.maxchanends.group, 0
	.weak _i.i2c_master_async_if.send_stop_bit.maxcores.group
	.max_reduce _i.i2c_master_async_if.send_stop_bit.max.maxcores, _i.i2c_master_async_if.send_stop_bit.maxcores.group, 0
	.weak _i.i2c_master_async_if.send_stop_bit.maxtimers.group
	.max_reduce _i.i2c_master_async_if.send_stop_bit.max.maxtimers, _i.i2c_master_async_if.send_stop_bit.maxtimers.group, 0
	.weak _i.i2c_master_async_if.send_stop_bit.nstackwords.group
	.globl _i.i2c_master_async_if.send_stop_bit.nstackwords.group
	.weak _i.i2c_master_async_if.send_stop_bit.fns.group
	.globl _i.i2c_master_async_if.send_stop_bit.fns.group
	.max_reduce _i.i2c_master_async_if.send_stop_bit.max.nstackwords, _i.i2c_master_async_if.send_stop_bit.nstackwords.group, 0
	.max_reduce _i.i2c_master_async_if.send_stop_bit.fns, _i.i2c_master_async_if.send_stop_bit.fns.group, 0
	.weak _i.i2c_master_async_if.shutdown.maxchanends.group
	.max_reduce _i.i2c_master_async_if.shutdown.max.maxchanends, _i.i2c_master_async_if.shutdown.maxchanends.group, 0
	.weak _i.i2c_master_async_if.shutdown.maxcores.group
	.max_reduce _i.i2c_master_async_if.shutdown.max.maxcores, _i.i2c_master_async_if.shutdown.maxcores.group, 0
	.weak _i.i2c_master_async_if.shutdown.maxtimers.group
	.max_reduce _i.i2c_master_async_if.shutdown.max.maxtimers, _i.i2c_master_async_if.shutdown.maxtimers.group, 0
	.weak _i.i2c_master_async_if.shutdown.nstackwords.group
	.globl _i.i2c_master_async_if.shutdown.nstackwords.group
	.weak _i.i2c_master_async_if.shutdown.fns.group
	.globl _i.i2c_master_async_if.shutdown.fns.group
	.max_reduce _i.i2c_master_async_if.shutdown.max.nstackwords, _i.i2c_master_async_if.shutdown.nstackwords.group, 0
	.max_reduce _i.i2c_master_async_if.shutdown.fns, _i.i2c_master_async_if.shutdown.fns.group, 0
	.weak _i.i2c_master_async_if.__interface_init.maxchanends.group
	.max_reduce _i.i2c_master_async_if.__interface_init.max.maxchanends, _i.i2c_master_async_if.__interface_init.maxchanends.group, 0
	.weak _i.i2c_master_async_if.__interface_init.maxcores.group
	.max_reduce _i.i2c_master_async_if.__interface_init.max.maxcores, _i.i2c_master_async_if.__interface_init.maxcores.group, 0
	.weak _i.i2c_master_async_if.__interface_init.maxtimers.group
	.max_reduce _i.i2c_master_async_if.__interface_init.max.maxtimers, _i.i2c_master_async_if.__interface_init.maxtimers.group, 0
	.weak _i.i2c_master_async_if.__interface_init.nstackwords.group
	.globl _i.i2c_master_async_if.__interface_init.nstackwords.group
	.weak _i.i2c_master_async_if.__interface_init.fns.group
	.globl _i.i2c_master_async_if.__interface_init.fns.group
	.max_reduce _i.i2c_master_async_if.__interface_init.max.nstackwords, _i.i2c_master_async_if.__interface_init.nstackwords.group, 0
	.max_reduce _i.i2c_master_async_if.__interface_init.fns, _i.i2c_master_async_if.__interface_init.fns.group, 0
	.weak _i.i2c_master_async_if._client_call_y.maxchanends.group
	.add_to_set _i.i2c_master_async_if._client_call_y.maxchanends.group, (__interface_client_call_y_other.maxchanends + __interface_client_call_y_extra.maxchanends), __interface_client_call_y_other
	.max_reduce _i.i2c_master_async_if._client_call_y.max.maxchanends, _i.i2c_master_async_if._client_call_y.maxchanends.group, 0
	.weak _i.i2c_master_async_if._client_call_y.maxcores.group
	.add_to_set _i.i2c_master_async_if._client_call_y.maxcores.group, (__interface_client_call_y_other.maxcores + __interface_client_call_y_extra.maxcores), __interface_client_call_y_other
	.max_reduce _i.i2c_master_async_if._client_call_y.max.maxcores, _i.i2c_master_async_if._client_call_y.maxcores.group, 0
	.weak _i.i2c_master_async_if._client_call_y.maxtimers.group
	.add_to_set _i.i2c_master_async_if._client_call_y.maxtimers.group, (__interface_client_call_y_other.maxtimers + __interface_client_call_y_extra.maxtimers), __interface_client_call_y_other
	.max_reduce _i.i2c_master_async_if._client_call_y.max.maxtimers, _i.i2c_master_async_if._client_call_y.maxtimers.group, 0
	.weak _i.i2c_master_async_if._client_call_y.nstackwords.group
	.globl _i.i2c_master_async_if._client_call_y.nstackwords.group
	.weak _i.i2c_master_async_if._client_call_y.fns.group
	.globl _i.i2c_master_async_if._client_call_y.fns.group
	.add_to_set _i.i2c_master_async_if._client_call_y.nstackwords.group, (__interface_client_call_y_other.nstackwords + __interface_client_call_y_extra.nstackwords), __interface_client_call_y_other
	.add_to_set _i.i2c_master_async_if._client_call_y.fns.group, __interface_client_call_y_other, __interface_client_call_y_other
	.max_reduce _i.i2c_master_async_if._client_call_y.max.nstackwords, _i.i2c_master_async_if._client_call_y.nstackwords.group, 0
	.max_reduce _i.i2c_master_async_if._client_call_y.fns, _i.i2c_master_async_if._client_call_y.fns.group, 0
	.weak _i.i2c_master_if.write.maxchanends.group
	.max_reduce _i.i2c_master_if.write.max.maxchanends, _i.i2c_master_if.write.maxchanends.group, 0
	.weak _i.i2c_master_if.write.maxcores.group
	.max_reduce _i.i2c_master_if.write.max.maxcores, _i.i2c_master_if.write.maxcores.group, 0
	.weak _i.i2c_master_if.write.maxtimers.group
	.max_reduce _i.i2c_master_if.write.max.maxtimers, _i.i2c_master_if.write.maxtimers.group, 0
	.weak _i.i2c_master_if.write.nstackwords.group
	.globl _i.i2c_master_if.write.nstackwords.group
	.weak _i.i2c_master_if.write.fns.group
	.globl _i.i2c_master_if.write.fns.group
	.max_reduce _i.i2c_master_if.write.max.nstackwords, _i.i2c_master_if.write.nstackwords.group, 0
	.max_reduce _i.i2c_master_if.write.fns, _i.i2c_master_if.write.fns.group, 0
	.weak _i.i2c_master_if.read.maxchanends.group
	.max_reduce _i.i2c_master_if.read.max.maxchanends, _i.i2c_master_if.read.maxchanends.group, 0
	.weak _i.i2c_master_if.read.maxcores.group
	.max_reduce _i.i2c_master_if.read.max.maxcores, _i.i2c_master_if.read.maxcores.group, 0
	.weak _i.i2c_master_if.read.maxtimers.group
	.max_reduce _i.i2c_master_if.read.max.maxtimers, _i.i2c_master_if.read.maxtimers.group, 0
	.weak _i.i2c_master_if.read.nstackwords.group
	.globl _i.i2c_master_if.read.nstackwords.group
	.weak _i.i2c_master_if.read.fns.group
	.globl _i.i2c_master_if.read.fns.group
	.max_reduce _i.i2c_master_if.read.max.nstackwords, _i.i2c_master_if.read.nstackwords.group, 0
	.max_reduce _i.i2c_master_if.read.fns, _i.i2c_master_if.read.fns.group, 0
	.weak _i.i2c_master_if.send_stop_bit.maxchanends.group
	.max_reduce _i.i2c_master_if.send_stop_bit.max.maxchanends, _i.i2c_master_if.send_stop_bit.maxchanends.group, 0
	.weak _i.i2c_master_if.send_stop_bit.maxcores.group
	.max_reduce _i.i2c_master_if.send_stop_bit.max.maxcores, _i.i2c_master_if.send_stop_bit.maxcores.group, 0
	.weak _i.i2c_master_if.send_stop_bit.maxtimers.group
	.max_reduce _i.i2c_master_if.send_stop_bit.max.maxtimers, _i.i2c_master_if.send_stop_bit.maxtimers.group, 0
	.weak _i.i2c_master_if.send_stop_bit.nstackwords.group
	.globl _i.i2c_master_if.send_stop_bit.nstackwords.group
	.weak _i.i2c_master_if.send_stop_bit.fns.group
	.globl _i.i2c_master_if.send_stop_bit.fns.group
	.max_reduce _i.i2c_master_if.send_stop_bit.max.nstackwords, _i.i2c_master_if.send_stop_bit.nstackwords.group, 0
	.max_reduce _i.i2c_master_if.send_stop_bit.fns, _i.i2c_master_if.send_stop_bit.fns.group, 0
	.weak _i.i2c_master_if.shutdown.maxchanends.group
	.max_reduce _i.i2c_master_if.shutdown.max.maxchanends, _i.i2c_master_if.shutdown.maxchanends.group, 0
	.weak _i.i2c_master_if.shutdown.maxcores.group
	.max_reduce _i.i2c_master_if.shutdown.max.maxcores, _i.i2c_master_if.shutdown.maxcores.group, 0
	.weak _i.i2c_master_if.shutdown.maxtimers.group
	.max_reduce _i.i2c_master_if.shutdown.max.maxtimers, _i.i2c_master_if.shutdown.maxtimers.group, 0
	.weak _i.i2c_master_if.shutdown.nstackwords.group
	.globl _i.i2c_master_if.shutdown.nstackwords.group
	.weak _i.i2c_master_if.shutdown.fns.group
	.globl _i.i2c_master_if.shutdown.fns.group
	.max_reduce _i.i2c_master_if.shutdown.max.nstackwords, _i.i2c_master_if.shutdown.nstackwords.group, 0
	.max_reduce _i.i2c_master_if.shutdown.fns, _i.i2c_master_if.shutdown.fns.group, 0
	.weak _i.i2c_master_if.__interface_init.maxchanends.group
	.max_reduce _i.i2c_master_if.__interface_init.max.maxchanends, _i.i2c_master_if.__interface_init.maxchanends.group, 0
	.weak _i.i2c_master_if.__interface_init.maxcores.group
	.max_reduce _i.i2c_master_if.__interface_init.max.maxcores, _i.i2c_master_if.__interface_init.maxcores.group, 0
	.weak _i.i2c_master_if.__interface_init.maxtimers.group
	.max_reduce _i.i2c_master_if.__interface_init.max.maxtimers, _i.i2c_master_if.__interface_init.maxtimers.group, 0
	.weak _i.i2c_master_if.__interface_init.nstackwords.group
	.globl _i.i2c_master_if.__interface_init.nstackwords.group
	.weak _i.i2c_master_if.__interface_init.fns.group
	.globl _i.i2c_master_if.__interface_init.fns.group
	.max_reduce _i.i2c_master_if.__interface_init.max.nstackwords, _i.i2c_master_if.__interface_init.nstackwords.group, 0
	.max_reduce _i.i2c_master_if.__interface_init.fns, _i.i2c_master_if.__interface_init.fns.group, 0
	.weak _i.i2c_master_if._client_call_y.maxchanends.group
	.add_to_set _i.i2c_master_if._client_call_y.maxchanends.group, (__interface_client_call_y_other.maxchanends + __interface_client_call_y_extra.maxchanends), __interface_client_call_y_other
	.max_reduce _i.i2c_master_if._client_call_y.max.maxchanends, _i.i2c_master_if._client_call_y.maxchanends.group, 0
	.weak _i.i2c_master_if._client_call_y.maxcores.group
	.add_to_set _i.i2c_master_if._client_call_y.maxcores.group, (__interface_client_call_y_other.maxcores + __interface_client_call_y_extra.maxcores), __interface_client_call_y_other
	.max_reduce _i.i2c_master_if._client_call_y.max.maxcores, _i.i2c_master_if._client_call_y.maxcores.group, 0
	.weak _i.i2c_master_if._client_call_y.maxtimers.group
	.add_to_set _i.i2c_master_if._client_call_y.maxtimers.group, (__interface_client_call_y_other.maxtimers + __interface_client_call_y_extra.maxtimers), __interface_client_call_y_other
	.max_reduce _i.i2c_master_if._client_call_y.max.maxtimers, _i.i2c_master_if._client_call_y.maxtimers.group, 0
	.weak _i.i2c_master_if._client_call_y.nstackwords.group
	.globl _i.i2c_master_if._client_call_y.nstackwords.group
	.weak _i.i2c_master_if._client_call_y.fns.group
	.globl _i.i2c_master_if._client_call_y.fns.group
	.add_to_set _i.i2c_master_if._client_call_y.nstackwords.group, (__interface_client_call_y_other.nstackwords + __interface_client_call_y_extra.nstackwords), __interface_client_call_y_other
	.add_to_set _i.i2c_master_if._client_call_y.fns.group, __interface_client_call_y_other, __interface_client_call_y_other
	.max_reduce _i.i2c_master_if._client_call_y.max.nstackwords, _i.i2c_master_if._client_call_y.nstackwords.group, 0
	.max_reduce _i.i2c_master_if._client_call_y.fns, _i.i2c_master_if._client_call_y.fns.group, 0
	.weak _i.keyword_if.buffer_ready.maxchanends.group
	.max_reduce _i.keyword_if.buffer_ready.max.maxchanends, _i.keyword_if.buffer_ready.maxchanends.group, 0
	.weak _i.keyword_if.buffer_ready.maxcores.group
	.max_reduce _i.keyword_if.buffer_ready.max.maxcores, _i.keyword_if.buffer_ready.maxcores.group, 0
	.weak _i.keyword_if.buffer_ready.maxtimers.group
	.max_reduce _i.keyword_if.buffer_ready.max.maxtimers, _i.keyword_if.buffer_ready.maxtimers.group, 0
	.weak _i.keyword_if.buffer_ready.nstackwords.group
	.globl _i.keyword_if.buffer_ready.nstackwords.group
	.weak _i.keyword_if.buffer_ready.fns.group
	.globl _i.keyword_if.buffer_ready.fns.group
	.max_reduce _i.keyword_if.buffer_ready.max.nstackwords, _i.keyword_if.buffer_ready.nstackwords.group, 0
	.max_reduce _i.keyword_if.buffer_ready.fns, _i.keyword_if.buffer_ready.fns.group, 0
	.weak _i.keyword_if.__interface_init.maxchanends.group
	.max_reduce _i.keyword_if.__interface_init.max.maxchanends, _i.keyword_if.__interface_init.maxchanends.group, 0
	.weak _i.keyword_if.__interface_init.maxcores.group
	.max_reduce _i.keyword_if.__interface_init.max.maxcores, _i.keyword_if.__interface_init.maxcores.group, 0
	.weak _i.keyword_if.__interface_init.maxtimers.group
	.max_reduce _i.keyword_if.__interface_init.max.maxtimers, _i.keyword_if.__interface_init.maxtimers.group, 0
	.weak _i.keyword_if.__interface_init.nstackwords.group
	.globl _i.keyword_if.__interface_init.nstackwords.group
	.weak _i.keyword_if.__interface_init.fns.group
	.globl _i.keyword_if.__interface_init.fns.group
	.max_reduce _i.keyword_if.__interface_init.max.nstackwords, _i.keyword_if.__interface_init.nstackwords.group, 0
	.max_reduce _i.keyword_if.__interface_init.fns, _i.keyword_if.__interface_init.fns.group, 0
	.weak _i.keyword_if._client_call_y.maxchanends.group
	.add_to_set _i.keyword_if._client_call_y.maxchanends.group, (__interface_client_call_y_other.maxchanends + __interface_client_call_y_extra.maxchanends), __interface_client_call_y_other
	.max_reduce _i.keyword_if._client_call_y.max.maxchanends, _i.keyword_if._client_call_y.maxchanends.group, 0
	.weak _i.keyword_if._client_call_y.maxcores.group
	.add_to_set _i.keyword_if._client_call_y.maxcores.group, (__interface_client_call_y_other.maxcores + __interface_client_call_y_extra.maxcores), __interface_client_call_y_other
	.max_reduce _i.keyword_if._client_call_y.max.maxcores, _i.keyword_if._client_call_y.maxcores.group, 0
	.weak _i.keyword_if._client_call_y.maxtimers.group
	.add_to_set _i.keyword_if._client_call_y.maxtimers.group, (__interface_client_call_y_other.maxtimers + __interface_client_call_y_extra.maxtimers), __interface_client_call_y_other
	.max_reduce _i.keyword_if._client_call_y.max.maxtimers, _i.keyword_if._client_call_y.maxtimers.group, 0
	.weak _i.keyword_if._client_call_y.nstackwords.group
	.globl _i.keyword_if._client_call_y.nstackwords.group
	.weak _i.keyword_if._client_call_y.fns.group
	.globl _i.keyword_if._client_call_y.fns.group
	.add_to_set _i.keyword_if._client_call_y.nstackwords.group, (__interface_client_call_y_other.nstackwords + __interface_client_call_y_extra.nstackwords), __interface_client_call_y_other
	.add_to_set _i.keyword_if._client_call_y.fns.group, __interface_client_call_y_other, __interface_client_call_y_other
	.max_reduce _i.keyword_if._client_call_y.max.nstackwords, _i.keyword_if._client_call_y.nstackwords.group, 0
	.max_reduce _i.keyword_if._client_call_y.fns, _i.keyword_if._client_call_y.fns.group, 0
	.weak _i.audManage_if.transfer_buffers.maxchanends.group
	.max_reduce _i.audManage_if.transfer_buffers.max.maxchanends, _i.audManage_if.transfer_buffers.maxchanends.group, 0
	.weak _i.audManage_if.transfer_buffers.maxcores.group
	.max_reduce _i.audManage_if.transfer_buffers.max.maxcores, _i.audManage_if.transfer_buffers.maxcores.group, 0
	.weak _i.audManage_if.transfer_buffers.maxtimers.group
	.max_reduce _i.audManage_if.transfer_buffers.max.maxtimers, _i.audManage_if.transfer_buffers.maxtimers.group, 0
	.weak _i.audManage_if.transfer_buffers.nstackwords.group
	.globl _i.audManage_if.transfer_buffers.nstackwords.group
	.weak _i.audManage_if.transfer_buffers.fns.group
	.globl _i.audManage_if.transfer_buffers.fns.group
	.max_reduce _i.audManage_if.transfer_buffers.max.nstackwords, _i.audManage_if.transfer_buffers.nstackwords.group, 0
	.max_reduce _i.audManage_if.transfer_buffers.fns, _i.audManage_if.transfer_buffers.fns.group, 0
	.weak _i.audManage_if.transfer_samples.maxchanends.group
	.max_reduce _i.audManage_if.transfer_samples.max.maxchanends, _i.audManage_if.transfer_samples.maxchanends.group, 0
	.weak _i.audManage_if.transfer_samples.maxcores.group
	.max_reduce _i.audManage_if.transfer_samples.max.maxcores, _i.audManage_if.transfer_samples.maxcores.group, 0
	.weak _i.audManage_if.transfer_samples.maxtimers.group
	.max_reduce _i.audManage_if.transfer_samples.max.maxtimers, _i.audManage_if.transfer_samples.maxtimers.group, 0
	.weak _i.audManage_if.transfer_samples.nstackwords.group
	.globl _i.audManage_if.transfer_samples.nstackwords.group
	.weak _i.audManage_if.transfer_samples.fns.group
	.globl _i.audManage_if.transfer_samples.fns.group
	.max_reduce _i.audManage_if.transfer_samples.max.nstackwords, _i.audManage_if.transfer_samples.nstackwords.group, 0
	.max_reduce _i.audManage_if.transfer_samples.fns, _i.audManage_if.transfer_samples.fns.group, 0
	.weak _i.audManage_if.__interface_init.maxchanends.group
	.max_reduce _i.audManage_if.__interface_init.max.maxchanends, _i.audManage_if.__interface_init.maxchanends.group, 0
	.weak _i.audManage_if.__interface_init.maxcores.group
	.max_reduce _i.audManage_if.__interface_init.max.maxcores, _i.audManage_if.__interface_init.maxcores.group, 0
	.weak _i.audManage_if.__interface_init.maxtimers.group
	.max_reduce _i.audManage_if.__interface_init.max.maxtimers, _i.audManage_if.__interface_init.maxtimers.group, 0
	.weak _i.audManage_if.__interface_init.nstackwords.group
	.globl _i.audManage_if.__interface_init.nstackwords.group
	.weak _i.audManage_if.__interface_init.fns.group
	.globl _i.audManage_if.__interface_init.fns.group
	.max_reduce _i.audManage_if.__interface_init.max.nstackwords, _i.audManage_if.__interface_init.nstackwords.group, 0
	.max_reduce _i.audManage_if.__interface_init.fns, _i.audManage_if.__interface_init.fns.group, 0
	.weak _i.audManage_if._client_call_y.maxchanends.group
	.add_to_set _i.audManage_if._client_call_y.maxchanends.group, (__interface_client_call_y_other.maxchanends + __interface_client_call_y_extra.maxchanends), __interface_client_call_y_other
	.max_reduce _i.audManage_if._client_call_y.max.maxchanends, _i.audManage_if._client_call_y.maxchanends.group, 0
	.weak _i.audManage_if._client_call_y.maxcores.group
	.add_to_set _i.audManage_if._client_call_y.maxcores.group, (__interface_client_call_y_other.maxcores + __interface_client_call_y_extra.maxcores), __interface_client_call_y_other
	.max_reduce _i.audManage_if._client_call_y.max.maxcores, _i.audManage_if._client_call_y.maxcores.group, 0
	.weak _i.audManage_if._client_call_y.maxtimers.group
	.add_to_set _i.audManage_if._client_call_y.maxtimers.group, (__interface_client_call_y_other.maxtimers + __interface_client_call_y_extra.maxtimers), __interface_client_call_y_other
	.max_reduce _i.audManage_if._client_call_y.max.maxtimers, _i.audManage_if._client_call_y.maxtimers.group, 0
	.weak _i.audManage_if._client_call_y.nstackwords.group
	.globl _i.audManage_if._client_call_y.nstackwords.group
	.weak _i.audManage_if._client_call_y.fns.group
	.globl _i.audManage_if._client_call_y.fns.group
	.add_to_set _i.audManage_if._client_call_y.nstackwords.group, (__interface_client_call_y_other.nstackwords + __interface_client_call_y_extra.nstackwords), __interface_client_call_y_other
	.add_to_set _i.audManage_if._client_call_y.fns.group, __interface_client_call_y_other, __interface_client_call_y_other
	.max_reduce _i.audManage_if._client_call_y.max.nstackwords, _i.audManage_if._client_call_y.nstackwords.group, 0
	.max_reduce _i.audManage_if._client_call_y.fns, _i.audManage_if._client_call_y.fns.group, 0
	.weak _i.i_dfu.HandleDfuRequest.maxchanends.group
	.max_reduce _i.i_dfu.HandleDfuRequest.max.maxchanends, _i.i_dfu.HandleDfuRequest.maxchanends.group, 0
	.weak _i.i_dfu.HandleDfuRequest.maxcores.group
	.max_reduce _i.i_dfu.HandleDfuRequest.max.maxcores, _i.i_dfu.HandleDfuRequest.maxcores.group, 0
	.weak _i.i_dfu.HandleDfuRequest.maxtimers.group
	.max_reduce _i.i_dfu.HandleDfuRequest.max.maxtimers, _i.i_dfu.HandleDfuRequest.maxtimers.group, 0
	.weak _i.i_dfu.HandleDfuRequest.nstackwords.group
	.globl _i.i_dfu.HandleDfuRequest.nstackwords.group
	.weak _i.i_dfu.HandleDfuRequest.fns.group
	.globl _i.i_dfu.HandleDfuRequest.fns.group
	.max_reduce _i.i_dfu.HandleDfuRequest.max.nstackwords, _i.i_dfu.HandleDfuRequest.nstackwords.group, 0
	.max_reduce _i.i_dfu.HandleDfuRequest.fns, _i.i_dfu.HandleDfuRequest.fns.group, 0
	.weak _i.i_dfu.finish.maxchanends.group
	.max_reduce _i.i_dfu.finish.max.maxchanends, _i.i_dfu.finish.maxchanends.group, 0
	.weak _i.i_dfu.finish.maxcores.group
	.max_reduce _i.i_dfu.finish.max.maxcores, _i.i_dfu.finish.maxcores.group, 0
	.weak _i.i_dfu.finish.maxtimers.group
	.max_reduce _i.i_dfu.finish.max.maxtimers, _i.i_dfu.finish.maxtimers.group, 0
	.weak _i.i_dfu.finish.nstackwords.group
	.globl _i.i_dfu.finish.nstackwords.group
	.weak _i.i_dfu.finish.fns.group
	.globl _i.i_dfu.finish.fns.group
	.max_reduce _i.i_dfu.finish.max.nstackwords, _i.i_dfu.finish.nstackwords.group, 0
	.max_reduce _i.i_dfu.finish.fns, _i.i_dfu.finish.fns.group, 0
	.weak _i.i_dfu.__interface_init.maxchanends.group
	.max_reduce _i.i_dfu.__interface_init.max.maxchanends, _i.i_dfu.__interface_init.maxchanends.group, 0
	.weak _i.i_dfu.__interface_init.maxcores.group
	.max_reduce _i.i_dfu.__interface_init.max.maxcores, _i.i_dfu.__interface_init.maxcores.group, 0
	.weak _i.i_dfu.__interface_init.maxtimers.group
	.max_reduce _i.i_dfu.__interface_init.max.maxtimers, _i.i_dfu.__interface_init.maxtimers.group, 0
	.weak _i.i_dfu.__interface_init.nstackwords.group
	.globl _i.i_dfu.__interface_init.nstackwords.group
	.weak _i.i_dfu.__interface_init.fns.group
	.globl _i.i_dfu.__interface_init.fns.group
	.max_reduce _i.i_dfu.__interface_init.max.nstackwords, _i.i_dfu.__interface_init.nstackwords.group, 0
	.max_reduce _i.i_dfu.__interface_init.fns, _i.i_dfu.__interface_init.fns.group, 0
	.weak _i.i_dfu._client_call_y.maxchanends.group
	.add_to_set _i.i_dfu._client_call_y.maxchanends.group, (__interface_client_call_y_other.maxchanends + __interface_client_call_y_extra.maxchanends), __interface_client_call_y_other
	.max_reduce _i.i_dfu._client_call_y.max.maxchanends, _i.i_dfu._client_call_y.maxchanends.group, 0
	.weak _i.i_dfu._client_call_y.maxcores.group
	.add_to_set _i.i_dfu._client_call_y.maxcores.group, (__interface_client_call_y_other.maxcores + __interface_client_call_y_extra.maxcores), __interface_client_call_y_other
	.max_reduce _i.i_dfu._client_call_y.max.maxcores, _i.i_dfu._client_call_y.maxcores.group, 0
	.weak _i.i_dfu._client_call_y.maxtimers.group
	.add_to_set _i.i_dfu._client_call_y.maxtimers.group, (__interface_client_call_y_other.maxtimers + __interface_client_call_y_extra.maxtimers), __interface_client_call_y_other
	.max_reduce _i.i_dfu._client_call_y.max.maxtimers, _i.i_dfu._client_call_y.maxtimers.group, 0
	.weak _i.i_dfu._client_call_y.nstackwords.group
	.globl _i.i_dfu._client_call_y.nstackwords.group
	.weak _i.i_dfu._client_call_y.fns.group
	.globl _i.i_dfu._client_call_y.fns.group
	.add_to_set _i.i_dfu._client_call_y.nstackwords.group, (__interface_client_call_y_other.nstackwords + __interface_client_call_y_extra.nstackwords), __interface_client_call_y_other
	.add_to_set _i.i_dfu._client_call_y.fns.group, __interface_client_call_y_other, __interface_client_call_y_other
	.max_reduce _i.i_dfu._client_call_y.max.nstackwords, _i.i_dfu._client_call_y.nstackwords.group, 0
	.max_reduce _i.i_dfu._client_call_y.fns, _i.i_dfu._client_call_y.fns.group, 0
	.weak _i.beclear_if.swap_buffers.maxchanends.group
	.max_reduce _i.beclear_if.swap_buffers.max.maxchanends, _i.beclear_if.swap_buffers.maxchanends.group, 0
	.weak _i.beclear_if.swap_buffers.maxcores.group
	.max_reduce _i.beclear_if.swap_buffers.max.maxcores, _i.beclear_if.swap_buffers.maxcores.group, 0
	.weak _i.beclear_if.swap_buffers.maxtimers.group
	.max_reduce _i.beclear_if.swap_buffers.max.maxtimers, _i.beclear_if.swap_buffers.maxtimers.group, 0
	.weak _i.beclear_if.swap_buffers.nstackwords.group
	.globl _i.beclear_if.swap_buffers.nstackwords.group
	.weak _i.beclear_if.swap_buffers.fns.group
	.globl _i.beclear_if.swap_buffers.fns.group
	.max_reduce _i.beclear_if.swap_buffers.max.nstackwords, _i.beclear_if.swap_buffers.nstackwords.group, 0
	.max_reduce _i.beclear_if.swap_buffers.fns, _i.beclear_if.swap_buffers.fns.group, 0
	.weak _i.beclear_if.transfer_samples.maxchanends.group
	.max_reduce _i.beclear_if.transfer_samples.max.maxchanends, _i.beclear_if.transfer_samples.maxchanends.group, 0
	.weak _i.beclear_if.transfer_samples.maxcores.group
	.max_reduce _i.beclear_if.transfer_samples.max.maxcores, _i.beclear_if.transfer_samples.maxcores.group, 0
	.weak _i.beclear_if.transfer_samples.maxtimers.group
	.max_reduce _i.beclear_if.transfer_samples.max.maxtimers, _i.beclear_if.transfer_samples.maxtimers.group, 0
	.weak _i.beclear_if.transfer_samples.nstackwords.group
	.globl _i.beclear_if.transfer_samples.nstackwords.group
	.weak _i.beclear_if.transfer_samples.fns.group
	.globl _i.beclear_if.transfer_samples.fns.group
	.max_reduce _i.beclear_if.transfer_samples.max.nstackwords, _i.beclear_if.transfer_samples.nstackwords.group, 0
	.max_reduce _i.beclear_if.transfer_samples.fns, _i.beclear_if.transfer_samples.fns.group, 0
	.weak _i.beclear_if.__interface_init.maxchanends.group
	.max_reduce _i.beclear_if.__interface_init.max.maxchanends, _i.beclear_if.__interface_init.maxchanends.group, 0
	.weak _i.beclear_if.__interface_init.maxcores.group
	.max_reduce _i.beclear_if.__interface_init.max.maxcores, _i.beclear_if.__interface_init.maxcores.group, 0
	.weak _i.beclear_if.__interface_init.maxtimers.group
	.max_reduce _i.beclear_if.__interface_init.max.maxtimers, _i.beclear_if.__interface_init.maxtimers.group, 0
	.weak _i.beclear_if.__interface_init.nstackwords.group
	.globl _i.beclear_if.__interface_init.nstackwords.group
	.weak _i.beclear_if.__interface_init.fns.group
	.globl _i.beclear_if.__interface_init.fns.group
	.max_reduce _i.beclear_if.__interface_init.max.nstackwords, _i.beclear_if.__interface_init.nstackwords.group, 0
	.max_reduce _i.beclear_if.__interface_init.fns, _i.beclear_if.__interface_init.fns.group, 0
	.weak _i.beclear_if._client_call_y.maxchanends.group
	.add_to_set _i.beclear_if._client_call_y.maxchanends.group, (__interface_client_call_y_other.maxchanends + __interface_client_call_y_extra.maxchanends), __interface_client_call_y_other
	.max_reduce _i.beclear_if._client_call_y.max.maxchanends, _i.beclear_if._client_call_y.maxchanends.group, 0
	.weak _i.beclear_if._client_call_y.maxcores.group
	.add_to_set _i.beclear_if._client_call_y.maxcores.group, (__interface_client_call_y_other.maxcores + __interface_client_call_y_extra.maxcores), __interface_client_call_y_other
	.max_reduce _i.beclear_if._client_call_y.max.maxcores, _i.beclear_if._client_call_y.maxcores.group, 0
	.weak _i.beclear_if._client_call_y.maxtimers.group
	.add_to_set _i.beclear_if._client_call_y.maxtimers.group, (__interface_client_call_y_other.maxtimers + __interface_client_call_y_extra.maxtimers), __interface_client_call_y_other
	.max_reduce _i.beclear_if._client_call_y.max.maxtimers, _i.beclear_if._client_call_y.maxtimers.group, 0
	.weak _i.beclear_if._client_call_y.nstackwords.group
	.globl _i.beclear_if._client_call_y.nstackwords.group
	.weak _i.beclear_if._client_call_y.fns.group
	.globl _i.beclear_if._client_call_y.fns.group
	.add_to_set _i.beclear_if._client_call_y.nstackwords.group, (__interface_client_call_y_other.nstackwords + __interface_client_call_y_extra.nstackwords), __interface_client_call_y_other
	.add_to_set _i.beclear_if._client_call_y.fns.group, __interface_client_call_y_other, __interface_client_call_y_other
	.max_reduce _i.beclear_if._client_call_y.max.nstackwords, _i.beclear_if._client_call_y.nstackwords.group, 0
	.max_reduce _i.beclear_if._client_call_y.fns, _i.beclear_if._client_call_y.fns.group, 0
	.weak _i.control.register_resources.maxchanends.group
	.max_reduce _i.control.register_resources.max.maxchanends, _i.control.register_resources.maxchanends.group, 0
	.weak _i.control.register_resources.maxcores.group
	.max_reduce _i.control.register_resources.max.maxcores, _i.control.register_resources.maxcores.group, 0
	.weak _i.control.register_resources.maxtimers.group
	.max_reduce _i.control.register_resources.max.maxtimers, _i.control.register_resources.maxtimers.group, 0
	.weak _i.control.register_resources.nstackwords.group
	.globl _i.control.register_resources.nstackwords.group
	.weak _i.control.register_resources.fns.group
	.globl _i.control.register_resources.fns.group
	.max_reduce _i.control.register_resources.max.nstackwords, _i.control.register_resources.nstackwords.group, 0
	.max_reduce _i.control.register_resources.fns, _i.control.register_resources.fns.group, 0
	.weak _i.control.write_command.maxchanends.group
	.max_reduce _i.control.write_command.max.maxchanends, _i.control.write_command.maxchanends.group, 0
	.weak _i.control.write_command.maxcores.group
	.max_reduce _i.control.write_command.max.maxcores, _i.control.write_command.maxcores.group, 0
	.weak _i.control.write_command.maxtimers.group
	.max_reduce _i.control.write_command.max.maxtimers, _i.control.write_command.maxtimers.group, 0
	.weak _i.control.write_command.nstackwords.group
	.globl _i.control.write_command.nstackwords.group
	.weak _i.control.write_command.fns.group
	.globl _i.control.write_command.fns.group
	.max_reduce _i.control.write_command.max.nstackwords, _i.control.write_command.nstackwords.group, 0
	.max_reduce _i.control.write_command.fns, _i.control.write_command.fns.group, 0
	.weak _i.control.read_command.maxchanends.group
	.max_reduce _i.control.read_command.max.maxchanends, _i.control.read_command.maxchanends.group, 0
	.weak _i.control.read_command.maxcores.group
	.max_reduce _i.control.read_command.max.maxcores, _i.control.read_command.maxcores.group, 0
	.weak _i.control.read_command.maxtimers.group
	.max_reduce _i.control.read_command.max.maxtimers, _i.control.read_command.maxtimers.group, 0
	.weak _i.control.read_command.nstackwords.group
	.globl _i.control.read_command.nstackwords.group
	.weak _i.control.read_command.fns.group
	.globl _i.control.read_command.fns.group
	.max_reduce _i.control.read_command.max.nstackwords, _i.control.read_command.nstackwords.group, 0
	.max_reduce _i.control.read_command.fns, _i.control.read_command.fns.group, 0
	.weak _i.control.__interface_init.maxchanends.group
	.max_reduce _i.control.__interface_init.max.maxchanends, _i.control.__interface_init.maxchanends.group, 0
	.weak _i.control.__interface_init.maxcores.group
	.max_reduce _i.control.__interface_init.max.maxcores, _i.control.__interface_init.maxcores.group, 0
	.weak _i.control.__interface_init.maxtimers.group
	.max_reduce _i.control.__interface_init.max.maxtimers, _i.control.__interface_init.maxtimers.group, 0
	.weak _i.control.__interface_init.nstackwords.group
	.globl _i.control.__interface_init.nstackwords.group
	.weak _i.control.__interface_init.fns.group
	.globl _i.control.__interface_init.fns.group
	.max_reduce _i.control.__interface_init.max.nstackwords, _i.control.__interface_init.nstackwords.group, 0
	.max_reduce _i.control.__interface_init.fns, _i.control.__interface_init.fns.group, 0
	.weak _i.control._client_call_y.maxchanends.group
	.add_to_set _i.control._client_call_y.maxchanends.group, (__interface_client_call_y_other.maxchanends + __interface_client_call_y_extra.maxchanends), __interface_client_call_y_other
	.max_reduce _i.control._client_call_y.max.maxchanends, _i.control._client_call_y.maxchanends.group, 0
	.weak _i.control._client_call_y.maxcores.group
	.add_to_set _i.control._client_call_y.maxcores.group, (__interface_client_call_y_other.maxcores + __interface_client_call_y_extra.maxcores), __interface_client_call_y_other
	.max_reduce _i.control._client_call_y.max.maxcores, _i.control._client_call_y.maxcores.group, 0
	.weak _i.control._client_call_y.maxtimers.group
	.add_to_set _i.control._client_call_y.maxtimers.group, (__interface_client_call_y_other.maxtimers + __interface_client_call_y_extra.maxtimers), __interface_client_call_y_other
	.max_reduce _i.control._client_call_y.max.maxtimers, _i.control._client_call_y.maxtimers.group, 0
	.weak _i.control._client_call_y.nstackwords.group
	.globl _i.control._client_call_y.nstackwords.group
	.weak _i.control._client_call_y.fns.group
	.globl _i.control._client_call_y.fns.group
	.add_to_set _i.control._client_call_y.nstackwords.group, (__interface_client_call_y_other.nstackwords + __interface_client_call_y_extra.nstackwords), __interface_client_call_y_other
	.add_to_set _i.control._client_call_y.fns.group, __interface_client_call_y_other, __interface_client_call_y_other
	.max_reduce _i.control._client_call_y.max.nstackwords, _i.control._client_call_y.nstackwords.group, 0
	.max_reduce _i.control._client_call_y.fns, _i.control._client_call_y.fns.group, 0
	.set usage.anon.0,0
	.set usage.anon.1,0
	.set usage.anon.2,0
	.set usage.anon.3,0
	.set usage.anon.4,0
	.set usage.anon.5,0
	.set usage.anon.6,0
	.set usage.anon.7,0
	.set usage.anon.8,0
	.set usage.anon.9,0
	.set usage.anon.10,0
	.set usage.anon.11,0
	.set usage.anon.12,0
	.set usage.anon.13,0
	.set usage.anon.14,0
	.call VendorRequests,control_process_usb_set_request
	.call VendorRequests,control_process_usb_get_request
	.call VendorRequests,XUD_GetBuffer
	.call VendorRequests,XUD_DoSetRequestStatus
	.call VendorRequests,XUD_DoGetRequest
	.call VendorRequests_Init,control_register_resources
	.call VendorRequests_Init,control_init
	.call usage.anon.14,usage.anon.13
	.call usage.anon.10,delay_ticks_longlong
	.call usage.anon.9,delay_ticks_longlong
	.call usage.anon.8,delay_ticks_longlong
	.set usage.anon.0.locnoside, 0
	.set usage.anon.1.locnoside, 0
	.set usage.anon.2.locnoside, 0
	.set usage.anon.3.locnoside, 0
	.set usage.anon.4.locnoside, 0
	.set usage.anon.5.locnoside, 0
	.set usage.anon.6.locnoside, 0
	.set usage.anon.7.locnoside, 0
	.set usage.anon.11.locnoside, 0
	.set usage.anon.14.locnoside, 0
	.set usage.anon.0.locnointerfaceaccess, 0
	.set usage.anon.1.locnointerfaceaccess, 0
	.set usage.anon.2.locnointerfaceaccess, 0
	.set usage.anon.3.locnointerfaceaccess, 0
	.set usage.anon.4.locnointerfaceaccess, 0
	.set usage.anon.5.locnointerfaceaccess, 0
	.set usage.anon.6.locnointerfaceaccess, 0
	.set usage.anon.7.locnointerfaceaccess, 0

                                        # End of file scope inline assembly
	.text
	.weak	_i.control._chan.read_command
	.align	4
	.type	_i.control._chan.read_command,@function
	.cc_top _i.control._chan.read_command.function,_i.control._chan.read_command
_i.control._chan.read_command:          # @_i.control._chan.read_command
	.cfi_startproc
	.issue_mode single
# BB#0:                                 # %allocas
	ENTSP_lu6 4
.Ltmp0:
	.cfi_def_cfa_offset 16
.Ltmp1:
	.cfi_offset 15, 0
	stw r4, sp[2]                   # 4-byte Folded Spill
.Ltmp2:
	.cfi_offset 4, -8
	#DEBUG_VALUE: _i.control._chan.read_command:dest <- R0
	#DEBUG_VALUE: _i.control._chan.read_command:param1 <- R1
	#DEBUG_VALUE: _i.control._chan.read_command:param2 <- R2
	#DEBUG_VALUE: _i.control._chan.read_command:param3 <- R3
	#DEBUG_VALUE: _i.control._chan.read_command:param4 <- [SP+20]
	ldw r11, sp[5]
	getr r4, 2
	setd res[r4], r0
	add r0, r4, 2
	out res[r4], r0
	outct res[r4], 2
	chkct res[r4], 1
	outt res[r4], r1
	outt res[r4], r2
	stw r3, sp[1]
	out res[r4], r11
	outct res[r4], 2
	ldaw r1, sp[1]
	mov r0, r4
	bl __interface_client_call
	int r0, res[r4]
	chkct res[r4], 1
	freer res[r4]
	ldw r4, sp[2]                   # 4-byte Folded Reload
	retsp 4
	# RETURN_REG_HOLDER
	.cc_bottom _i.control._chan.read_command.function
	.set	_i.control._chan.read_command.nstackwords,(__interface_client_call.nstackwords + 4)
	.globl	_i.control._chan.read_command.nstackwords
	.weak	_i.control._chan.read_command.nstackwords
	.set	_i.control._chan.read_command.maxcores,__interface_client_call.maxcores $M 1
	.globl	_i.control._chan.read_command.maxcores
	.weak	_i.control._chan.read_command.maxcores
	.set	_i.control._chan.read_command.maxtimers,__interface_client_call.maxtimers $M 0
	.globl	_i.control._chan.read_command.maxtimers
	.weak	_i.control._chan.read_command.maxtimers
	.set	_i.control._chan.read_command.maxchanends,(1 + __interface_client_call.maxchanends) $M 1
	.globl	_i.control._chan.read_command.maxchanends
	.weak	_i.control._chan.read_command.maxchanends
.Ltmp3:
	.size	_i.control._chan.read_command, .Ltmp3-_i.control._chan.read_command
	.cfi_endproc

	.weak	_i.control._chan.write_command
	.align	4
	.type	_i.control._chan.write_command,@function
	.cc_top _i.control._chan.write_command.function,_i.control._chan.write_command
_i.control._chan.write_command:         # @_i.control._chan.write_command
	.cfi_startproc
	.issue_mode single
# BB#0:                                 # %allocas
	ENTSP_lu6 4
.Ltmp4:
	.cfi_def_cfa_offset 16
.Ltmp5:
	.cfi_offset 15, 0
	stw r4, sp[2]                   # 4-byte Folded Spill
.Ltmp6:
	.cfi_offset 4, -8
	#DEBUG_VALUE: _i.control._chan.write_command:dest <- R0
	#DEBUG_VALUE: _i.control._chan.write_command:param1 <- R1
	#DEBUG_VALUE: _i.control._chan.write_command:param2 <- R2
	#DEBUG_VALUE: _i.control._chan.write_command:param3 <- R3
	#DEBUG_VALUE: _i.control._chan.write_command:param4 <- [SP+20]
	ldw r11, sp[5]
	getr r4, 2
	setd res[r4], r0
	add r0, r4, 1
	out res[r4], r0
	outct res[r4], 2
	chkct res[r4], 1
	outt res[r4], r1
	outt res[r4], r2
	stw r3, sp[1]
	out res[r4], r11
	outct res[r4], 2
	ldaw r1, sp[1]
	mov r0, r4
	bl __interface_client_call
	int r0, res[r4]
	chkct res[r4], 1
	freer res[r4]
	ldw r4, sp[2]                   # 4-byte Folded Reload
	retsp 4
	# RETURN_REG_HOLDER
	.cc_bottom _i.control._chan.write_command.function
	.set	_i.control._chan.write_command.nstackwords,(__interface_client_call.nstackwords + 4)
	.globl	_i.control._chan.write_command.nstackwords
	.weak	_i.control._chan.write_command.nstackwords
	.set	_i.control._chan.write_command.maxcores,__interface_client_call.maxcores $M 1
	.globl	_i.control._chan.write_command.maxcores
	.weak	_i.control._chan.write_command.maxcores
	.set	_i.control._chan.write_command.maxtimers,__interface_client_call.maxtimers $M 0
	.globl	_i.control._chan.write_command.maxtimers
	.weak	_i.control._chan.write_command.maxtimers
	.set	_i.control._chan.write_command.maxchanends,(1 + __interface_client_call.maxchanends) $M 1
	.globl	_i.control._chan.write_command.maxchanends
	.weak	_i.control._chan.write_command.maxchanends
.Ltmp7:
	.size	_i.control._chan.write_command, .Ltmp7-_i.control._chan.write_command
	.cfi_endproc

	.weak	_i.control._chan.register_resources
	.align	4
	.type	_i.control._chan.register_resources,@function
	.cc_top _i.control._chan.register_resources.function,_i.control._chan.register_resources
_i.control._chan.register_resources:    # @_i.control._chan.register_resources
	.cfi_startproc
	.issue_mode single
# BB#0:                                 # %allocas
	ENTSP_lu6 4
.Ltmp8:
	.cfi_def_cfa_offset 16
.Ltmp9:
	.cfi_offset 15, 0
	std r5, r4, sp[1]               # 4-byte Folded Spill
.Ltmp10:
	.cfi_offset 4, -8
.Ltmp11:
	.cfi_offset 5, -4
	#DEBUG_VALUE: _i.control._chan.register_resources:dest <- R0
	#DEBUG_VALUE: _i.control._chan.register_resources:param1 <- R1
	#DEBUG_VALUE: _i.control._chan.register_resources:param2 <- R2
	mov r4, r2
	#DEBUG_VALUE: _i.control._chan.register_resources:param2 <- R4
	getr r5, 2
	setd res[r5], r0
	out res[r5], r5
	outct res[r5], 2
	chkct res[r5], 1
	stw r1, sp[1]
	ldw r0, r4[0]
	out res[r5], r0
	outct res[r5], 2
	ldaw r1, sp[1]
	mov r0, r5
	bl __interface_client_call
	in r0, res[r5]
	stw r0, r4[0]
	chkct res[r5], 1
	freer res[r5]
	ldd r5, r4, sp[1]               # 4-byte Folded Reload
	retsp 4
	# RETURN_REG_HOLDER
	.cc_bottom _i.control._chan.register_resources.function
	.set	_i.control._chan.register_resources.nstackwords,(__interface_client_call.nstackwords + 4)
	.globl	_i.control._chan.register_resources.nstackwords
	.weak	_i.control._chan.register_resources.nstackwords
	.set	_i.control._chan.register_resources.maxcores,__interface_client_call.maxcores $M 1
	.globl	_i.control._chan.register_resources.maxcores
	.weak	_i.control._chan.register_resources.maxcores
	.set	_i.control._chan.register_resources.maxtimers,__interface_client_call.maxtimers $M 0
	.globl	_i.control._chan.register_resources.maxtimers
	.weak	_i.control._chan.register_resources.maxtimers
	.set	_i.control._chan.register_resources.maxchanends,(1 + __interface_client_call.maxchanends) $M 1
	.globl	_i.control._chan.register_resources.maxchanends
	.weak	_i.control._chan.register_resources.maxchanends
.Ltmp12:
	.size	_i.control._chan.register_resources, .Ltmp12-_i.control._chan.register_resources
	.cfi_endproc

	.weak	_i.control._chan_yield.read_command
	.align	4
	.type	_i.control._chan_yield.read_command,@function
	.cc_top _i.control._chan_yield.read_command.function,_i.control._chan_yield.read_command
_i.control._chan_yield.read_command:    # @_i.control._chan_yield.read_command
	.cfi_startproc
	.issue_mode single
# BB#0:                                 # %allocas
	ENTSP_lu6 4
.Ltmp13:
	.cfi_def_cfa_offset 16
.Ltmp14:
	.cfi_offset 15, 0
	std r5, r4, sp[1]               # 4-byte Folded Spill
.Ltmp15:
	.cfi_offset 4, -8
.Ltmp16:
	.cfi_offset 5, -4
	#DEBUG_VALUE: _i.control._chan_yield.read_command:s <- R0
	#DEBUG_VALUE: _i.control._chan_yield.read_command:param1 <- R1
	#DEBUG_VALUE: _i.control._chan_yield.read_command:param2 <- R2
	#DEBUG_VALUE: _i.control._chan_yield.read_command:param3 <- R3
	#DEBUG_VALUE: _i.control._chan_yield.read_command:param4 <- [SP+20]
	ldw r11, sp[5]
	ldw r5, r0[0]
	getr r4, 2
	setd res[r4], r5
	add r5, r4, 2
	out res[r4], r5
	outct res[r4], 2
	chkct res[r4], 1
	outt res[r4], r1
	outt res[r4], r2
	stw r3, sp[1]
	out res[r4], r11
	outct res[r4], 2
	ldw r2, r0[1]
	ldaw r1, sp[1]
	mov r0, r4
	bl __interface_client_call_y
	int r0, res[r4]
	chkct res[r4], 1
	freer res[r4]
	ldd r5, r4, sp[1]               # 4-byte Folded Reload
	retsp 4
	# RETURN_REG_HOLDER
	.cc_bottom _i.control._chan_yield.read_command.function
	.set	_i.control._chan_yield.read_command.nstackwords,((_i.control._client_call_y.max.nstackwords $M ($D __interface_client_call_y.nstackwords ? __interface_client_call_y.nstackwords $: _i.control._client_call_y.max.nstackwords)) + 4)
	.globl	_i.control._chan_yield.read_command.nstackwords
	.weak	_i.control._chan_yield.read_command.nstackwords
	.set	_i.control._chan_yield.read_command.maxcores,($D __interface_client_call_y.maxcores ? __interface_client_call_y.maxcores $: _i.control._client_call_y.max.maxcores) $M 1
	.globl	_i.control._chan_yield.read_command.maxcores
	.weak	_i.control._chan_yield.read_command.maxcores
	.set	_i.control._chan_yield.read_command.maxtimers,($D __interface_client_call_y.maxtimers ? __interface_client_call_y.maxtimers $: _i.control._client_call_y.max.maxtimers) $M 0
	.globl	_i.control._chan_yield.read_command.maxtimers
	.weak	_i.control._chan_yield.read_command.maxtimers
	.set	_i.control._chan_yield.read_command.maxchanends,(1 + ($D __interface_client_call_y.maxchanends ? __interface_client_call_y.maxchanends $: _i.control._client_call_y.max.maxchanends)) $M 1
	.globl	_i.control._chan_yield.read_command.maxchanends
	.weak	_i.control._chan_yield.read_command.maxchanends
.Ltmp17:
	.size	_i.control._chan_yield.read_command, .Ltmp17-_i.control._chan_yield.read_command
	.cfi_endproc

	.weak	_i.control._chan_yield.write_command
	.align	4
	.type	_i.control._chan_yield.write_command,@function
	.cc_top _i.control._chan_yield.write_command.function,_i.control._chan_yield.write_command
_i.control._chan_yield.write_command:   # @_i.control._chan_yield.write_command
	.cfi_startproc
	.issue_mode single
# BB#0:                                 # %allocas
	ENTSP_lu6 4
.Ltmp18:
	.cfi_def_cfa_offset 16
.Ltmp19:
	.cfi_offset 15, 0
	std r5, r4, sp[1]               # 4-byte Folded Spill
.Ltmp20:
	.cfi_offset 4, -8
.Ltmp21:
	.cfi_offset 5, -4
	#DEBUG_VALUE: _i.control._chan_yield.write_command:s <- R0
	#DEBUG_VALUE: _i.control._chan_yield.write_command:param1 <- R1
	#DEBUG_VALUE: _i.control._chan_yield.write_command:param2 <- R2
	#DEBUG_VALUE: _i.control._chan_yield.write_command:param3 <- R3
	#DEBUG_VALUE: _i.control._chan_yield.write_command:param4 <- [SP+20]
	ldw r11, sp[5]
	ldw r5, r0[0]
	getr r4, 2
	setd res[r4], r5
	add r5, r4, 1
	out res[r4], r5
	outct res[r4], 2
	chkct res[r4], 1
	outt res[r4], r1
	outt res[r4], r2
	stw r3, sp[1]
	out res[r4], r11
	outct res[r4], 2
	ldw r2, r0[1]
	ldaw r1, sp[1]
	mov r0, r4
	bl __interface_client_call_y
	int r0, res[r4]
	chkct res[r4], 1
	freer res[r4]
	ldd r5, r4, sp[1]               # 4-byte Folded Reload
	retsp 4
	# RETURN_REG_HOLDER
	.cc_bottom _i.control._chan_yield.write_command.function
	.set	_i.control._chan_yield.write_command.nstackwords,((_i.control._client_call_y.max.nstackwords $M ($D __interface_client_call_y.nstackwords ? __interface_client_call_y.nstackwords $: _i.control._client_call_y.max.nstackwords)) + 4)
	.globl	_i.control._chan_yield.write_command.nstackwords
	.weak	_i.control._chan_yield.write_command.nstackwords
	.set	_i.control._chan_yield.write_command.maxcores,($D __interface_client_call_y.maxcores ? __interface_client_call_y.maxcores $: _i.control._client_call_y.max.maxcores) $M 1
	.globl	_i.control._chan_yield.write_command.maxcores
	.weak	_i.control._chan_yield.write_command.maxcores
	.set	_i.control._chan_yield.write_command.maxtimers,($D __interface_client_call_y.maxtimers ? __interface_client_call_y.maxtimers $: _i.control._client_call_y.max.maxtimers) $M 0
	.globl	_i.control._chan_yield.write_command.maxtimers
	.weak	_i.control._chan_yield.write_command.maxtimers
	.set	_i.control._chan_yield.write_command.maxchanends,(1 + ($D __interface_client_call_y.maxchanends ? __interface_client_call_y.maxchanends $: _i.control._client_call_y.max.maxchanends)) $M 1
	.globl	_i.control._chan_yield.write_command.maxchanends
	.weak	_i.control._chan_yield.write_command.maxchanends
.Ltmp22:
	.size	_i.control._chan_yield.write_command, .Ltmp22-_i.control._chan_yield.write_command
	.cfi_endproc

	.weak	_i.control._chan_yield.register_resources
	.align	4
	.type	_i.control._chan_yield.register_resources,@function
	.cc_top _i.control._chan_yield.register_resources.function,_i.control._chan_yield.register_resources
_i.control._chan_yield.register_resources: # @_i.control._chan_yield.register_resources
	.cfi_startproc
	.issue_mode single
# BB#0:                                 # %allocas
	ENTSP_lu6 4
.Ltmp23:
	.cfi_def_cfa_offset 16
.Ltmp24:
	.cfi_offset 15, 0
	std r5, r4, sp[1]               # 4-byte Folded Spill
.Ltmp25:
	.cfi_offset 4, -8
.Ltmp26:
	.cfi_offset 5, -4
	#DEBUG_VALUE: _i.control._chan_yield.register_resources:s <- R0
	#DEBUG_VALUE: _i.control._chan_yield.register_resources:param1 <- R1
	#DEBUG_VALUE: _i.control._chan_yield.register_resources:param2 <- R2
	mov r4, r2
	#DEBUG_VALUE: _i.control._chan_yield.register_resources:param2 <- R4
	ldw r2, r0[0]
	getr r5, 2
	setd res[r5], r2
	out res[r5], r5
	outct res[r5], 2
	chkct res[r5], 1
	stw r1, sp[1]
	ldw r1, r4[0]
	out res[r5], r1
	outct res[r5], 2
	ldw r2, r0[1]
	ldaw r1, sp[1]
	mov r0, r5
	bl __interface_client_call_y
	in r0, res[r5]
	stw r0, r4[0]
	chkct res[r5], 1
	freer res[r5]
	ldd r5, r4, sp[1]               # 4-byte Folded Reload
	retsp 4
	# RETURN_REG_HOLDER
	.cc_bottom _i.control._chan_yield.register_resources.function
	.set	_i.control._chan_yield.register_resources.nstackwords,((_i.control._client_call_y.max.nstackwords $M ($D __interface_client_call_y.nstackwords ? __interface_client_call_y.nstackwords $: _i.control._client_call_y.max.nstackwords)) + 4)
	.globl	_i.control._chan_yield.register_resources.nstackwords
	.weak	_i.control._chan_yield.register_resources.nstackwords
	.set	_i.control._chan_yield.register_resources.maxcores,($D __interface_client_call_y.maxcores ? __interface_client_call_y.maxcores $: _i.control._client_call_y.max.maxcores) $M 1
	.globl	_i.control._chan_yield.register_resources.maxcores
	.weak	_i.control._chan_yield.register_resources.maxcores
	.set	_i.control._chan_yield.register_resources.maxtimers,($D __interface_client_call_y.maxtimers ? __interface_client_call_y.maxtimers $: _i.control._client_call_y.max.maxtimers) $M 0
	.globl	_i.control._chan_yield.register_resources.maxtimers
	.weak	_i.control._chan_yield.register_resources.maxtimers
	.set	_i.control._chan_yield.register_resources.maxchanends,(1 + ($D __interface_client_call_y.maxchanends ? __interface_client_call_y.maxchanends $: _i.control._client_call_y.max.maxchanends)) $M 1
	.globl	_i.control._chan_yield.register_resources.maxchanends
	.weak	_i.control._chan_yield.register_resources.maxchanends
.Ltmp27:
	.size	_i.control._chan_yield.register_resources, .Ltmp27-_i.control._chan_yield.register_resources
	.cfi_endproc

	.weak	_i.beclear_if._chan.transfer_samples
	.align	4
	.type	_i.beclear_if._chan.transfer_samples,@function
	.cc_top _i.beclear_if._chan.transfer_samples.function,_i.beclear_if._chan.transfer_samples
_i.beclear_if._chan.transfer_samples:   # @_i.beclear_if._chan.transfer_samples
	.cfi_startproc
	.issue_mode single
# BB#0:                                 # %allocas
	ENTSP_lu6 12
.Ltmp28:
	.cfi_def_cfa_offset 48
.Ltmp29:
	.cfi_offset 15, 0
	std r5, r4, sp[2]               # 4-byte Folded Spill
.Ltmp30:
	.cfi_offset 4, -32
.Ltmp31:
	.cfi_offset 5, -28
	std r7, r6, sp[3]               # 4-byte Folded Spill
.Ltmp32:
	.cfi_offset 6, -24
.Ltmp33:
	.cfi_offset 7, -20
	std r9, r8, sp[4]               # 4-byte Folded Spill
.Ltmp34:
	.cfi_offset 8, -16
.Ltmp35:
	.cfi_offset 9, -12
	stw r10, sp[10]                 # 4-byte Folded Spill
.Ltmp36:
	.cfi_offset 10, -8
	#DEBUG_VALUE: _i.beclear_if._chan.transfer_samples:dest <- R0
	#DEBUG_VALUE: _i.beclear_if._chan.transfer_samples:param1 <- R1
	#DEBUG_VALUE: _i.beclear_if._chan.transfer_samples:param2 <- R2
	#DEBUG_VALUE: _i.beclear_if._chan.transfer_samples:param3 <- R3
	mov r5, r3
	#DEBUG_VALUE: _i.beclear_if._chan.transfer_samples:param3 <- R5
	mov r6, r2
	#DEBUG_VALUE: _i.beclear_if._chan.transfer_samples:param2 <- R6
	mov r7, r1
	#DEBUG_VALUE: _i.beclear_if._chan.transfer_samples:param1 <- R7
	ldd r9, r8, sp[7]
	ldw r10, sp[13]
	getr r4, 2
	setd res[r4], r0
	add r0, r4, 1
	out res[r4], r0
	outct res[r4], 2
	ldc r1, 0
	mov r0, r4
	bl __interface_wait_and_yield
	chkct res[r4], 1
	out res[r4], r10
	stw r7, sp[1]
	out res[r4], r8
	stw r6, sp[2]
	out res[r4], r9
	stw r5, sp[3]
	outct res[r4], 2
	ldaw r1, sp[1]
	mov r0, r4
	bl __interface_client_call
	chkct res[r4], 1
	freer res[r4]
	ldw r10, sp[10]                 # 4-byte Folded Reload
	ldd r9, r8, sp[4]               # 4-byte Folded Reload
	ldd r7, r6, sp[3]               # 4-byte Folded Reload
	ldd r5, r4, sp[2]               # 4-byte Folded Reload
	retsp 12
	# RETURN_REG_HOLDER
	.cc_bottom _i.beclear_if._chan.transfer_samples.function
	.set	_i.beclear_if._chan.transfer_samples.nstackwords,((_i.beclear_if._client_call_y.max.nstackwords $M ($D __interface_wait_and_yield.nstackwords ? __interface_wait_and_yield.nstackwords $: _i.beclear_if._client_call_y.max.nstackwords) $M __interface_client_call.nstackwords) + 12)
	.globl	_i.beclear_if._chan.transfer_samples.nstackwords
	.weak	_i.beclear_if._chan.transfer_samples.nstackwords
	.set	_i.beclear_if._chan.transfer_samples.maxcores,__interface_client_call.maxcores $M ($D __interface_wait_and_yield.maxcores ? __interface_wait_and_yield.maxcores $: _i.beclear_if._client_call_y.max.maxcores) $M 1
	.globl	_i.beclear_if._chan.transfer_samples.maxcores
	.weak	_i.beclear_if._chan.transfer_samples.maxcores
	.set	_i.beclear_if._chan.transfer_samples.maxtimers,__interface_client_call.maxtimers $M ($D __interface_wait_and_yield.maxtimers ? __interface_wait_and_yield.maxtimers $: _i.beclear_if._client_call_y.max.maxtimers) $M 0
	.globl	_i.beclear_if._chan.transfer_samples.maxtimers
	.weak	_i.beclear_if._chan.transfer_samples.maxtimers
	.set	_i.beclear_if._chan.transfer_samples.maxchanends,(1 + __interface_client_call.maxchanends) $M (1 + ($D __interface_wait_and_yield.maxchanends ? __interface_wait_and_yield.maxchanends $: _i.beclear_if._client_call_y.max.maxchanends)) $M 1
	.globl	_i.beclear_if._chan.transfer_samples.maxchanends
	.weak	_i.beclear_if._chan.transfer_samples.maxchanends
.Ltmp37:
	.size	_i.beclear_if._chan.transfer_samples, .Ltmp37-_i.beclear_if._chan.transfer_samples
	.cfi_endproc

	.weak	_i.beclear_if._chan.swap_buffers
	.align	4
	.type	_i.beclear_if._chan.swap_buffers,@function
	.cc_top _i.beclear_if._chan.swap_buffers.function,_i.beclear_if._chan.swap_buffers
_i.beclear_if._chan.swap_buffers:       # @_i.beclear_if._chan.swap_buffers
	.cfi_startproc
	.issue_mode single
# BB#0:                                 # %allocas
	ENTSP_lu6 4
.Ltmp38:
	.cfi_def_cfa_offset 16
.Ltmp39:
	.cfi_offset 15, 0
	stw r4, sp[2]                   # 4-byte Folded Spill
.Ltmp40:
	.cfi_offset 4, -8
	#DEBUG_VALUE: _i.beclear_if._chan.swap_buffers:dest <- R0
	getr r4, 2
	setd res[r4], r0
	out res[r4], r4
	outct res[r4], 2
	ldc r1, 0
	mov r0, r4
	bl __interface_wait_and_yield
	in r0, res[r4]
	chkct res[r4], 1
	freer res[r4]
	ldw r4, sp[2]                   # 4-byte Folded Reload
	retsp 4
	# RETURN_REG_HOLDER
	.cc_bottom _i.beclear_if._chan.swap_buffers.function
	.set	_i.beclear_if._chan.swap_buffers.nstackwords,((_i.beclear_if._client_call_y.max.nstackwords $M ($D __interface_wait_and_yield.nstackwords ? __interface_wait_and_yield.nstackwords $: _i.beclear_if._client_call_y.max.nstackwords)) + 4)
	.globl	_i.beclear_if._chan.swap_buffers.nstackwords
	.weak	_i.beclear_if._chan.swap_buffers.nstackwords
	.set	_i.beclear_if._chan.swap_buffers.maxcores,($D __interface_wait_and_yield.maxcores ? __interface_wait_and_yield.maxcores $: _i.beclear_if._client_call_y.max.maxcores) $M 1
	.globl	_i.beclear_if._chan.swap_buffers.maxcores
	.weak	_i.beclear_if._chan.swap_buffers.maxcores
	.set	_i.beclear_if._chan.swap_buffers.maxtimers,($D __interface_wait_and_yield.maxtimers ? __interface_wait_and_yield.maxtimers $: _i.beclear_if._client_call_y.max.maxtimers) $M 0
	.globl	_i.beclear_if._chan.swap_buffers.maxtimers
	.weak	_i.beclear_if._chan.swap_buffers.maxtimers
	.set	_i.beclear_if._chan.swap_buffers.maxchanends,(1 + ($D __interface_wait_and_yield.maxchanends ? __interface_wait_and_yield.maxchanends $: _i.beclear_if._client_call_y.max.maxchanends)) $M 1
	.globl	_i.beclear_if._chan.swap_buffers.maxchanends
	.weak	_i.beclear_if._chan.swap_buffers.maxchanends
.Ltmp41:
	.size	_i.beclear_if._chan.swap_buffers, .Ltmp41-_i.beclear_if._chan.swap_buffers
	.cfi_endproc

	.weak	_i.beclear_if._chan_yield.transfer_samples
	.align	4
	.type	_i.beclear_if._chan_yield.transfer_samples,@function
	.cc_top _i.beclear_if._chan_yield.transfer_samples.function,_i.beclear_if._chan_yield.transfer_samples
_i.beclear_if._chan_yield.transfer_samples: # @_i.beclear_if._chan_yield.transfer_samples
	.cfi_startproc
	.issue_mode single
# BB#0:                                 # %allocas
	ENTSP_lu6 12
.Ltmp42:
	.cfi_def_cfa_offset 48
.Ltmp43:
	.cfi_offset 15, 0
	std r5, r4, sp[2]               # 4-byte Folded Spill
.Ltmp44:
	.cfi_offset 4, -32
.Ltmp45:
	.cfi_offset 5, -28
	std r7, r6, sp[3]               # 4-byte Folded Spill
.Ltmp46:
	.cfi_offset 6, -24
.Ltmp47:
	.cfi_offset 7, -20
	std r9, r8, sp[4]               # 4-byte Folded Spill
.Ltmp48:
	.cfi_offset 8, -16
.Ltmp49:
	.cfi_offset 9, -12
	stw r10, sp[10]                 # 4-byte Folded Spill
.Ltmp50:
	.cfi_offset 10, -8
	#DEBUG_VALUE: _i.beclear_if._chan_yield.transfer_samples:s <- R0
	#DEBUG_VALUE: _i.beclear_if._chan_yield.transfer_samples:param1 <- R1
	#DEBUG_VALUE: _i.beclear_if._chan_yield.transfer_samples:param2 <- R2
	#DEBUG_VALUE: _i.beclear_if._chan_yield.transfer_samples:param3 <- R3
	mov r5, r3
	#DEBUG_VALUE: _i.beclear_if._chan_yield.transfer_samples:param3 <- R5
	mov r6, r2
	#DEBUG_VALUE: _i.beclear_if._chan_yield.transfer_samples:param2 <- R6
	mov r7, r1
	#DEBUG_VALUE: _i.beclear_if._chan_yield.transfer_samples:param1 <- R7
	ldd r10, r9, sp[7]
	ldw r1, r0[0]
	getr r4, 2
	setd res[r4], r1
	add r1, r4, 1
	out res[r4], r1
	outct res[r4], 2
	ldw r8, r0[1]
	mov r0, r4
	mov r1, r8
	bl __interface_wait_and_yield
	chkct res[r4], 1
	ldw r0, sp[13]
	out res[r4], r0
	stw r7, sp[1]
	out res[r4], r9
	stw r6, sp[2]
	out res[r4], r10
	stw r5, sp[3]
	outct res[r4], 2
	ldaw r1, sp[1]
	mov r0, r4
	mov r2, r8
	bl __interface_client_call_y
	chkct res[r4], 1
	freer res[r4]
	ldw r10, sp[10]                 # 4-byte Folded Reload
	ldd r9, r8, sp[4]               # 4-byte Folded Reload
	ldd r7, r6, sp[3]               # 4-byte Folded Reload
	ldd r5, r4, sp[2]               # 4-byte Folded Reload
	retsp 12
	# RETURN_REG_HOLDER
	.cc_bottom _i.beclear_if._chan_yield.transfer_samples.function
	.set	_i.beclear_if._chan_yield.transfer_samples.nstackwords,((($D __interface_wait_and_yield.nstackwords ? __interface_wait_and_yield.nstackwords $: _i.beclear_if._client_call_y.max.nstackwords) $M _i.beclear_if._client_call_y.max.nstackwords $M ($D __interface_client_call_y.nstackwords ? __interface_client_call_y.nstackwords $: _i.beclear_if._client_call_y.max.nstackwords)) + 12)
	.globl	_i.beclear_if._chan_yield.transfer_samples.nstackwords
	.weak	_i.beclear_if._chan_yield.transfer_samples.nstackwords
	.set	_i.beclear_if._chan_yield.transfer_samples.maxcores,($D __interface_client_call_y.maxcores ? __interface_client_call_y.maxcores $: _i.beclear_if._client_call_y.max.maxcores) $M ($D __interface_wait_and_yield.maxcores ? __interface_wait_and_yield.maxcores $: _i.beclear_if._client_call_y.max.maxcores) $M 1
	.globl	_i.beclear_if._chan_yield.transfer_samples.maxcores
	.weak	_i.beclear_if._chan_yield.transfer_samples.maxcores
	.set	_i.beclear_if._chan_yield.transfer_samples.maxtimers,($D __interface_client_call_y.maxtimers ? __interface_client_call_y.maxtimers $: _i.beclear_if._client_call_y.max.maxtimers) $M ($D __interface_wait_and_yield.maxtimers ? __interface_wait_and_yield.maxtimers $: _i.beclear_if._client_call_y.max.maxtimers) $M 0
	.globl	_i.beclear_if._chan_yield.transfer_samples.maxtimers
	.weak	_i.beclear_if._chan_yield.transfer_samples.maxtimers
	.set	_i.beclear_if._chan_yield.transfer_samples.maxchanends,(1 + ($D __interface_client_call_y.maxchanends ? __interface_client_call_y.maxchanends $: _i.beclear_if._client_call_y.max.maxchanends)) $M (1 + ($D __interface_wait_and_yield.maxchanends ? __interface_wait_and_yield.maxchanends $: _i.beclear_if._client_call_y.max.maxchanends)) $M 1
	.globl	_i.beclear_if._chan_yield.transfer_samples.maxchanends
	.weak	_i.beclear_if._chan_yield.transfer_samples.maxchanends
.Ltmp51:
	.size	_i.beclear_if._chan_yield.transfer_samples, .Ltmp51-_i.beclear_if._chan_yield.transfer_samples
	.cfi_endproc

	.weak	_i.beclear_if._chan_yield.swap_buffers
	.align	4
	.type	_i.beclear_if._chan_yield.swap_buffers,@function
	.cc_top _i.beclear_if._chan_yield.swap_buffers.function,_i.beclear_if._chan_yield.swap_buffers
_i.beclear_if._chan_yield.swap_buffers: # @_i.beclear_if._chan_yield.swap_buffers
	.cfi_startproc
	.issue_mode single
# BB#0:                                 # %allocas
	ENTSP_lu6 4
.Ltmp52:
	.cfi_def_cfa_offset 16
.Ltmp53:
	.cfi_offset 15, 0
	std r5, r4, sp[1]               # 4-byte Folded Spill
.Ltmp54:
	.cfi_offset 4, -8
.Ltmp55:
	.cfi_offset 5, -4
	#DEBUG_VALUE: _i.beclear_if._chan_yield.swap_buffers:s <- R0
	ldw r1, r0[0]
	getr r4, 2
	setd res[r4], r1
	out res[r4], r4
	outct res[r4], 2
	ldw r5, r0[1]
	mov r0, r4
	mov r1, r5
	bl __interface_wait_and_yield
	ldc r1, 0
	mov r0, r4
	mov r2, r5
	bl __interface_client_call_y
	chkct res[r4], 1
	freer res[r4]
	ldd r5, r4, sp[1]               # 4-byte Folded Reload
	retsp 4
	# RETURN_REG_HOLDER
	.cc_bottom _i.beclear_if._chan_yield.swap_buffers.function
	.set	_i.beclear_if._chan_yield.swap_buffers.nstackwords,((($D __interface_wait_and_yield.nstackwords ? __interface_wait_and_yield.nstackwords $: _i.beclear_if._client_call_y.max.nstackwords) $M _i.beclear_if._client_call_y.max.nstackwords $M ($D __interface_client_call_y.nstackwords ? __interface_client_call_y.nstackwords $: _i.beclear_if._client_call_y.max.nstackwords)) + 4)
	.globl	_i.beclear_if._chan_yield.swap_buffers.nstackwords
	.weak	_i.beclear_if._chan_yield.swap_buffers.nstackwords
	.set	_i.beclear_if._chan_yield.swap_buffers.maxcores,($D __interface_client_call_y.maxcores ? __interface_client_call_y.maxcores $: _i.beclear_if._client_call_y.max.maxcores) $M ($D __interface_wait_and_yield.maxcores ? __interface_wait_and_yield.maxcores $: _i.beclear_if._client_call_y.max.maxcores) $M 1
	.globl	_i.beclear_if._chan_yield.swap_buffers.maxcores
	.weak	_i.beclear_if._chan_yield.swap_buffers.maxcores
	.set	_i.beclear_if._chan_yield.swap_buffers.maxtimers,($D __interface_client_call_y.maxtimers ? __interface_client_call_y.maxtimers $: _i.beclear_if._client_call_y.max.maxtimers) $M ($D __interface_wait_and_yield.maxtimers ? __interface_wait_and_yield.maxtimers $: _i.beclear_if._client_call_y.max.maxtimers) $M 0
	.globl	_i.beclear_if._chan_yield.swap_buffers.maxtimers
	.weak	_i.beclear_if._chan_yield.swap_buffers.maxtimers
	.set	_i.beclear_if._chan_yield.swap_buffers.maxchanends,(1 + ($D __interface_client_call_y.maxchanends ? __interface_client_call_y.maxchanends $: _i.beclear_if._client_call_y.max.maxchanends)) $M (1 + ($D __interface_wait_and_yield.maxchanends ? __interface_wait_and_yield.maxchanends $: _i.beclear_if._client_call_y.max.maxchanends)) $M 1
	.globl	_i.beclear_if._chan_yield.swap_buffers.maxchanends
	.weak	_i.beclear_if._chan_yield.swap_buffers.maxchanends
.Ltmp56:
	.size	_i.beclear_if._chan_yield.swap_buffers, .Ltmp56-_i.beclear_if._chan_yield.swap_buffers
	.cfi_endproc

	.weak	_i.i_dfu._chan.finish
	.align	4
	.type	_i.i_dfu._chan.finish,@function
	.cc_top _i.i_dfu._chan.finish.function,_i.i_dfu._chan.finish
_i.i_dfu._chan.finish:                  # @_i.i_dfu._chan.finish
	.cfi_startproc
	.issue_mode single
# BB#0:                                 # %allocas
	ENTSP_lu6 0
	#DEBUG_VALUE: _i.i_dfu._chan.finish:dest <- R0
	getr r1, 2
	setd res[r1], r0
	add r0, r1, 1
	out res[r1], r0
	outct res[r1], 2
	in r0, res[r1]
	chkct res[r1], 1
	freer res[r1]
	retsp 0
	# RETURN_REG_HOLDER
	.cc_bottom _i.i_dfu._chan.finish.function
	.set	_i.i_dfu._chan.finish.nstackwords,0
	.globl	_i.i_dfu._chan.finish.nstackwords
	.weak	_i.i_dfu._chan.finish.nstackwords
	.set	_i.i_dfu._chan.finish.maxcores,1
	.globl	_i.i_dfu._chan.finish.maxcores
	.weak	_i.i_dfu._chan.finish.maxcores
	.set	_i.i_dfu._chan.finish.maxtimers,0
	.globl	_i.i_dfu._chan.finish.maxtimers
	.weak	_i.i_dfu._chan.finish.maxtimers
	.set	_i.i_dfu._chan.finish.maxchanends,1
	.globl	_i.i_dfu._chan.finish.maxchanends
	.weak	_i.i_dfu._chan.finish.maxchanends
.Ltmp57:
	.size	_i.i_dfu._chan.finish, .Ltmp57-_i.i_dfu._chan.finish
	.cfi_endproc

	.weak	_i.i_dfu._chan.HandleDfuRequest
	.align	4
	.type	_i.i_dfu._chan.HandleDfuRequest,@function
	.cc_top _i.i_dfu._chan.HandleDfuRequest.function,_i.i_dfu._chan.HandleDfuRequest
_i.i_dfu._chan.HandleDfuRequest:        # @_i.i_dfu._chan.HandleDfuRequest
	.cfi_startproc
	.issue_mode single
# BB#0:                                 # %allocas
	ENTSP_lu6 6
.Ltmp58:
	.cfi_def_cfa_offset 24
.Ltmp59:
	.cfi_offset 15, 0
	std r5, r4, sp[2]               # 4-byte Folded Spill
.Ltmp60:
	.cfi_offset 4, -8
.Ltmp61:
	.cfi_offset 5, -4
	#DEBUG_VALUE: _i.i_dfu._chan.HandleDfuRequest:dest <- R0
	#DEBUG_VALUE: _i.i_dfu._chan.HandleDfuRequest:param1 <- R1
	#DEBUG_VALUE: _i.i_dfu._chan.HandleDfuRequest:param2 <- R2
	#DEBUG_VALUE: _i.i_dfu._chan.HandleDfuRequest:param3 <- R3
	#DEBUG_VALUE: _i.i_dfu._chan.HandleDfuRequest:param4 <- [SP+28]
	ldw r11, sp[7]
	ldw r5, sp[8]
	getr r4, 2
	setd res[r4], r0
	out res[r4], r4
	outct res[r4], 2
	chkct res[r4], 1
	stw r1, sp[2]
	out res[r4], r5
	stw r2, sp[3]
	out res[r4], r3
	out res[r4], r11
	outct res[r4], 2
	ldaw r1, sp[2]
	mov r0, r4
	bl __interface_client_call
	in r0, res[r4]
	in r1, res[r4]
	in r2, res[r4]
	in r3, res[r4]
	in r11, res[r4]
	chkct res[r4], 1
	freer res[r4]
	stw r11, sp[9]
	ldd r5, r4, sp[2]               # 4-byte Folded Reload
	retsp 6
	# RETURN_REG_HOLDER
	.cc_bottom _i.i_dfu._chan.HandleDfuRequest.function
	.set	_i.i_dfu._chan.HandleDfuRequest.nstackwords,(__interface_client_call.nstackwords + 6)
	.globl	_i.i_dfu._chan.HandleDfuRequest.nstackwords
	.weak	_i.i_dfu._chan.HandleDfuRequest.nstackwords
	.set	_i.i_dfu._chan.HandleDfuRequest.maxcores,__interface_client_call.maxcores $M 1
	.globl	_i.i_dfu._chan.HandleDfuRequest.maxcores
	.weak	_i.i_dfu._chan.HandleDfuRequest.maxcores
	.set	_i.i_dfu._chan.HandleDfuRequest.maxtimers,__interface_client_call.maxtimers $M 0
	.globl	_i.i_dfu._chan.HandleDfuRequest.maxtimers
	.weak	_i.i_dfu._chan.HandleDfuRequest.maxtimers
	.set	_i.i_dfu._chan.HandleDfuRequest.maxchanends,(1 + __interface_client_call.maxchanends) $M 1
	.globl	_i.i_dfu._chan.HandleDfuRequest.maxchanends
	.weak	_i.i_dfu._chan.HandleDfuRequest.maxchanends
.Ltmp62:
	.size	_i.i_dfu._chan.HandleDfuRequest, .Ltmp62-_i.i_dfu._chan.HandleDfuRequest
	.cfi_endproc

	.weak	_i.i_dfu._chan_yield.finish
	.align	4
	.type	_i.i_dfu._chan_yield.finish,@function
	.cc_top _i.i_dfu._chan_yield.finish.function,_i.i_dfu._chan_yield.finish
_i.i_dfu._chan_yield.finish:            # @_i.i_dfu._chan_yield.finish
	.cfi_startproc
	.issue_mode single
# BB#0:                                 # %allocas
	ENTSP_lu6 4
.Ltmp63:
	.cfi_def_cfa_offset 16
.Ltmp64:
	.cfi_offset 15, 0
	stw r4, sp[2]                   # 4-byte Folded Spill
.Ltmp65:
	.cfi_offset 4, -8
	#DEBUG_VALUE: _i.i_dfu._chan_yield.finish:s <- R0
	ldw r1, r0[0]
	getr r4, 2
	setd res[r4], r1
	add r1, r4, 1
	out res[r4], r1
	outct res[r4], 2
	ldw r2, r0[1]
	ldc r1, 0
	mov r0, r4
	bl __interface_client_call_y
	chkct res[r4], 1
	freer res[r4]
	ldw r4, sp[2]                   # 4-byte Folded Reload
	retsp 4
	# RETURN_REG_HOLDER
	.cc_bottom _i.i_dfu._chan_yield.finish.function
	.set	_i.i_dfu._chan_yield.finish.nstackwords,((_i.i_dfu._client_call_y.max.nstackwords $M ($D __interface_client_call_y.nstackwords ? __interface_client_call_y.nstackwords $: _i.i_dfu._client_call_y.max.nstackwords)) + 4)
	.globl	_i.i_dfu._chan_yield.finish.nstackwords
	.weak	_i.i_dfu._chan_yield.finish.nstackwords
	.set	_i.i_dfu._chan_yield.finish.maxcores,($D __interface_client_call_y.maxcores ? __interface_client_call_y.maxcores $: _i.i_dfu._client_call_y.max.maxcores) $M 1
	.globl	_i.i_dfu._chan_yield.finish.maxcores
	.weak	_i.i_dfu._chan_yield.finish.maxcores
	.set	_i.i_dfu._chan_yield.finish.maxtimers,($D __interface_client_call_y.maxtimers ? __interface_client_call_y.maxtimers $: _i.i_dfu._client_call_y.max.maxtimers) $M 0
	.globl	_i.i_dfu._chan_yield.finish.maxtimers
	.weak	_i.i_dfu._chan_yield.finish.maxtimers
	.set	_i.i_dfu._chan_yield.finish.maxchanends,(1 + ($D __interface_client_call_y.maxchanends ? __interface_client_call_y.maxchanends $: _i.i_dfu._client_call_y.max.maxchanends)) $M 1
	.globl	_i.i_dfu._chan_yield.finish.maxchanends
	.weak	_i.i_dfu._chan_yield.finish.maxchanends
.Ltmp66:
	.size	_i.i_dfu._chan_yield.finish, .Ltmp66-_i.i_dfu._chan_yield.finish
	.cfi_endproc

	.weak	_i.i_dfu._chan_yield.HandleDfuRequest
	.align	4
	.type	_i.i_dfu._chan_yield.HandleDfuRequest,@function
	.cc_top _i.i_dfu._chan_yield.HandleDfuRequest.function,_i.i_dfu._chan_yield.HandleDfuRequest
_i.i_dfu._chan_yield.HandleDfuRequest:  # @_i.i_dfu._chan_yield.HandleDfuRequest
	.cfi_startproc
	.issue_mode single
# BB#0:                                 # %allocas
	ENTSP_lu6 8
.Ltmp67:
	.cfi_def_cfa_offset 32
.Ltmp68:
	.cfi_offset 15, 0
	std r5, r4, sp[2]               # 4-byte Folded Spill
.Ltmp69:
	.cfi_offset 4, -16
.Ltmp70:
	.cfi_offset 5, -12
	stw r6, sp[6]                   # 4-byte Folded Spill
.Ltmp71:
	.cfi_offset 6, -8
	#DEBUG_VALUE: _i.i_dfu._chan_yield.HandleDfuRequest:s <- R0
	#DEBUG_VALUE: _i.i_dfu._chan_yield.HandleDfuRequest:param1 <- R1
	#DEBUG_VALUE: _i.i_dfu._chan_yield.HandleDfuRequest:param2 <- R2
	#DEBUG_VALUE: _i.i_dfu._chan_yield.HandleDfuRequest:param3 <- R3
	#DEBUG_VALUE: _i.i_dfu._chan_yield.HandleDfuRequest:param4 <- [SP+36]
	ldw r11, sp[9]
	ldw r5, sp[10]
	ldw r6, r0[0]
	getr r4, 2
	setd res[r4], r6
	out res[r4], r4
	outct res[r4], 2
	chkct res[r4], 1
	stw r1, sp[2]
	out res[r4], r5
	stw r2, sp[3]
	out res[r4], r3
	out res[r4], r11
	outct res[r4], 2
	ldw r2, r0[1]
	ldaw r1, sp[2]
	mov r0, r4
	bl __interface_client_call_y
	in r0, res[r4]
	in r1, res[r4]
	in r2, res[r4]
	in r3, res[r4]
	in r11, res[r4]
	chkct res[r4], 1
	freer res[r4]
	stw r11, sp[11]
	ldw r6, sp[6]                   # 4-byte Folded Reload
	ldd r5, r4, sp[2]               # 4-byte Folded Reload
	retsp 8
	# RETURN_REG_HOLDER
	.cc_bottom _i.i_dfu._chan_yield.HandleDfuRequest.function
	.set	_i.i_dfu._chan_yield.HandleDfuRequest.nstackwords,((_i.i_dfu._client_call_y.max.nstackwords $M ($D __interface_client_call_y.nstackwords ? __interface_client_call_y.nstackwords $: _i.i_dfu._client_call_y.max.nstackwords)) + 8)
	.globl	_i.i_dfu._chan_yield.HandleDfuRequest.nstackwords
	.weak	_i.i_dfu._chan_yield.HandleDfuRequest.nstackwords
	.set	_i.i_dfu._chan_yield.HandleDfuRequest.maxcores,($D __interface_client_call_y.maxcores ? __interface_client_call_y.maxcores $: _i.i_dfu._client_call_y.max.maxcores) $M 1
	.globl	_i.i_dfu._chan_yield.HandleDfuRequest.maxcores
	.weak	_i.i_dfu._chan_yield.HandleDfuRequest.maxcores
	.set	_i.i_dfu._chan_yield.HandleDfuRequest.maxtimers,($D __interface_client_call_y.maxtimers ? __interface_client_call_y.maxtimers $: _i.i_dfu._client_call_y.max.maxtimers) $M 0
	.globl	_i.i_dfu._chan_yield.HandleDfuRequest.maxtimers
	.weak	_i.i_dfu._chan_yield.HandleDfuRequest.maxtimers
	.set	_i.i_dfu._chan_yield.HandleDfuRequest.maxchanends,(1 + ($D __interface_client_call_y.maxchanends ? __interface_client_call_y.maxchanends $: _i.i_dfu._client_call_y.max.maxchanends)) $M 1
	.globl	_i.i_dfu._chan_yield.HandleDfuRequest.maxchanends
	.weak	_i.i_dfu._chan_yield.HandleDfuRequest.maxchanends
.Ltmp72:
	.size	_i.i_dfu._chan_yield.HandleDfuRequest, .Ltmp72-_i.i_dfu._chan_yield.HandleDfuRequest
	.cfi_endproc

	.weak	_i.audManage_if._chan.transfer_samples
	.align	4
	.type	_i.audManage_if._chan.transfer_samples,@function
	.cc_top _i.audManage_if._chan.transfer_samples.function,_i.audManage_if._chan.transfer_samples
_i.audManage_if._chan.transfer_samples: # @_i.audManage_if._chan.transfer_samples
	.cfi_startproc
	.issue_mode single
# BB#0:                                 # %allocas
	ENTSP_lu6 14
.Ltmp73:
	.cfi_def_cfa_offset 56
.Ltmp74:
	.cfi_offset 15, 0
	std r5, r4, sp[3]               # 4-byte Folded Spill
.Ltmp75:
	.cfi_offset 4, -32
.Ltmp76:
	.cfi_offset 5, -28
	std r7, r6, sp[4]               # 4-byte Folded Spill
.Ltmp77:
	.cfi_offset 6, -24
.Ltmp78:
	.cfi_offset 7, -20
	std r9, r8, sp[5]               # 4-byte Folded Spill
.Ltmp79:
	.cfi_offset 8, -16
.Ltmp80:
	.cfi_offset 9, -12
	stw r10, sp[12]                 # 4-byte Folded Spill
.Ltmp81:
	.cfi_offset 10, -8
	#DEBUG_VALUE: _i.audManage_if._chan.transfer_samples:dest <- R0
	#DEBUG_VALUE: _i.audManage_if._chan.transfer_samples:param1 <- R1
	#DEBUG_VALUE: _i.audManage_if._chan.transfer_samples:param2 <- R2
	#DEBUG_VALUE: _i.audManage_if._chan.transfer_samples:param3 <- R3
	#DEBUG_VALUE: _i.audManage_if._chan.transfer_samples:param4 <- [SP+60]
	stw r3, sp[1]                   # 4-byte Folded Spill
	#DEBUG_VALUE: _i.audManage_if._chan.transfer_samples:param3 <- [SP+4]
	mov r6, r2
	#DEBUG_VALUE: _i.audManage_if._chan.transfer_samples:param2 <- R6
	mov r7, r1
	#DEBUG_VALUE: _i.audManage_if._chan.transfer_samples:param1 <- R7
	ldd r10, r9, sp[9]
	ldd r4, r8, sp[8]
	ldc r1, 0
	stw r1, sp[4]
	stw r1, sp[3]
	stw r1, sp[2]
	getr r5, 2
	setd res[r5], r0
	add r0, r5, 1
	out res[r5], r0
	outct res[r5], 2
	mov r0, r5
	bl __interface_wait_and_yield
	chkct res[r5], 1
	out res[r5], r8
	stw r7, sp[2]
	out res[r5], r4
	stw r6, sp[3]
	out res[r5], r9
	ldw r0, sp[1]                   # 4-byte Folded Reload
	stw r0, sp[4]
	out res[r5], r10
	ldw r0, sp[15]
	stw r0, sp[5]
	outct res[r5], 2
	ldaw r1, sp[2]
	mov r0, r5
	bl __interface_client_call
	chkct res[r5], 1
	freer res[r5]
	ldw r10, sp[12]                 # 4-byte Folded Reload
	ldd r9, r8, sp[5]               # 4-byte Folded Reload
	ldd r7, r6, sp[4]               # 4-byte Folded Reload
	ldd r5, r4, sp[3]               # 4-byte Folded Reload
	retsp 14
	# RETURN_REG_HOLDER
	.cc_bottom _i.audManage_if._chan.transfer_samples.function
	.set	_i.audManage_if._chan.transfer_samples.nstackwords,((_i.audManage_if._client_call_y.max.nstackwords $M ($D __interface_wait_and_yield.nstackwords ? __interface_wait_and_yield.nstackwords $: _i.audManage_if._client_call_y.max.nstackwords) $M __interface_client_call.nstackwords) + 14)
	.globl	_i.audManage_if._chan.transfer_samples.nstackwords
	.weak	_i.audManage_if._chan.transfer_samples.nstackwords
	.set	_i.audManage_if._chan.transfer_samples.maxcores,__interface_client_call.maxcores $M ($D __interface_wait_and_yield.maxcores ? __interface_wait_and_yield.maxcores $: _i.audManage_if._client_call_y.max.maxcores) $M 1
	.globl	_i.audManage_if._chan.transfer_samples.maxcores
	.weak	_i.audManage_if._chan.transfer_samples.maxcores
	.set	_i.audManage_if._chan.transfer_samples.maxtimers,__interface_client_call.maxtimers $M ($D __interface_wait_and_yield.maxtimers ? __interface_wait_and_yield.maxtimers $: _i.audManage_if._client_call_y.max.maxtimers) $M 0
	.globl	_i.audManage_if._chan.transfer_samples.maxtimers
	.weak	_i.audManage_if._chan.transfer_samples.maxtimers
	.set	_i.audManage_if._chan.transfer_samples.maxchanends,(1 + __interface_client_call.maxchanends) $M (1 + ($D __interface_wait_and_yield.maxchanends ? __interface_wait_and_yield.maxchanends $: _i.audManage_if._client_call_y.max.maxchanends)) $M 1
	.globl	_i.audManage_if._chan.transfer_samples.maxchanends
	.weak	_i.audManage_if._chan.transfer_samples.maxchanends
.Ltmp82:
	.size	_i.audManage_if._chan.transfer_samples, .Ltmp82-_i.audManage_if._chan.transfer_samples
	.cfi_endproc

	.weak	_i.audManage_if._chan.transfer_buffers
	.align	4
	.type	_i.audManage_if._chan.transfer_buffers,@function
	.cc_top _i.audManage_if._chan.transfer_buffers.function,_i.audManage_if._chan.transfer_buffers
_i.audManage_if._chan.transfer_buffers: # @_i.audManage_if._chan.transfer_buffers
	.cfi_startproc
	.issue_mode single
# BB#0:                                 # %allocas
	ENTSP_lu6 8
.Ltmp83:
	.cfi_def_cfa_offset 32
.Ltmp84:
	.cfi_offset 15, 0
	std r5, r4, sp[1]               # 4-byte Folded Spill
.Ltmp85:
	.cfi_offset 4, -24
.Ltmp86:
	.cfi_offset 5, -20
	std r7, r6, sp[2]               # 4-byte Folded Spill
.Ltmp87:
	.cfi_offset 6, -16
.Ltmp88:
	.cfi_offset 7, -12
	stw r8, sp[6]                   # 4-byte Folded Spill
.Ltmp89:
	.cfi_offset 8, -8
	#DEBUG_VALUE: _i.audManage_if._chan.transfer_buffers:dest <- R0
	#DEBUG_VALUE: _i.audManage_if._chan.transfer_buffers:param1 <- R1
	#DEBUG_VALUE: _i.audManage_if._chan.transfer_buffers:param2 <- R2
	#DEBUG_VALUE: _i.audManage_if._chan.transfer_buffers:param3 <- R3
	#DEBUG_VALUE: _i.audManage_if._chan.transfer_buffers:param4 <- [SP+36]
	mov r5, r3
	#DEBUG_VALUE: _i.audManage_if._chan.transfer_buffers:param3 <- R5
	mov r6, r2
	#DEBUG_VALUE: _i.audManage_if._chan.transfer_buffers:param2 <- R6
	mov r7, r1
	#DEBUG_VALUE: _i.audManage_if._chan.transfer_buffers:param1 <- R7
	ldw r8, sp[9]
	getr r4, 2
	setd res[r4], r0
	out res[r4], r4
	outct res[r4], 2
	ldc r1, 0
	mov r0, r4
	bl __interface_wait_and_yield
	chkct res[r4], 1
	#APP
	#NO_APP
	out res[r4], r7
	#APP
	#NO_APP
	out res[r4], r6
	#APP
	#NO_APP
	out res[r4], r5
	#APP
	#NO_APP
	out res[r4], r8
	outct res[r4], 2
	in r0, res[r4]
	chkct res[r4], 1
	freer res[r4]
	ldw r8, sp[6]                   # 4-byte Folded Reload
	ldd r7, r6, sp[2]               # 4-byte Folded Reload
	ldd r5, r4, sp[1]               # 4-byte Folded Reload
	retsp 8
	# RETURN_REG_HOLDER
	.cc_bottom _i.audManage_if._chan.transfer_buffers.function
	.set	_i.audManage_if._chan.transfer_buffers.nstackwords,((_i.audManage_if._client_call_y.max.nstackwords $M ($D __interface_wait_and_yield.nstackwords ? __interface_wait_and_yield.nstackwords $: _i.audManage_if._client_call_y.max.nstackwords)) + 8)
	.globl	_i.audManage_if._chan.transfer_buffers.nstackwords
	.weak	_i.audManage_if._chan.transfer_buffers.nstackwords
	.set	_i.audManage_if._chan.transfer_buffers.maxcores,($D __interface_wait_and_yield.maxcores ? __interface_wait_and_yield.maxcores $: _i.audManage_if._client_call_y.max.maxcores) $M 1
	.globl	_i.audManage_if._chan.transfer_buffers.maxcores
	.weak	_i.audManage_if._chan.transfer_buffers.maxcores
	.set	_i.audManage_if._chan.transfer_buffers.maxtimers,($D __interface_wait_and_yield.maxtimers ? __interface_wait_and_yield.maxtimers $: _i.audManage_if._client_call_y.max.maxtimers) $M 0
	.globl	_i.audManage_if._chan.transfer_buffers.maxtimers
	.weak	_i.audManage_if._chan.transfer_buffers.maxtimers
	.set	_i.audManage_if._chan.transfer_buffers.maxchanends,(1 + ($D __interface_wait_and_yield.maxchanends ? __interface_wait_and_yield.maxchanends $: _i.audManage_if._client_call_y.max.maxchanends)) $M 1
	.globl	_i.audManage_if._chan.transfer_buffers.maxchanends
	.weak	_i.audManage_if._chan.transfer_buffers.maxchanends
.Ltmp90:
	.size	_i.audManage_if._chan.transfer_buffers, .Ltmp90-_i.audManage_if._chan.transfer_buffers
	.cfi_endproc

	.weak	_i.audManage_if._chan_yield.transfer_samples
	.align	4
	.type	_i.audManage_if._chan_yield.transfer_samples,@function
	.cc_top _i.audManage_if._chan_yield.transfer_samples.function,_i.audManage_if._chan_yield.transfer_samples
_i.audManage_if._chan_yield.transfer_samples: # @_i.audManage_if._chan_yield.transfer_samples
	.cfi_startproc
	.issue_mode single
# BB#0:                                 # %allocas
	ENTSP_lu6 16
.Ltmp91:
	.cfi_def_cfa_offset 64
.Ltmp92:
	.cfi_offset 15, 0
	std r5, r4, sp[4]               # 4-byte Folded Spill
.Ltmp93:
	.cfi_offset 4, -32
.Ltmp94:
	.cfi_offset 5, -28
	std r7, r6, sp[5]               # 4-byte Folded Spill
.Ltmp95:
	.cfi_offset 6, -24
.Ltmp96:
	.cfi_offset 7, -20
	std r9, r8, sp[6]               # 4-byte Folded Spill
.Ltmp97:
	.cfi_offset 8, -16
.Ltmp98:
	.cfi_offset 9, -12
	stw r10, sp[14]                 # 4-byte Folded Spill
.Ltmp99:
	.cfi_offset 10, -8
	#DEBUG_VALUE: _i.audManage_if._chan_yield.transfer_samples:s <- R0
	#DEBUG_VALUE: _i.audManage_if._chan_yield.transfer_samples:param1 <- R1
	#DEBUG_VALUE: _i.audManage_if._chan_yield.transfer_samples:param2 <- R2
	#DEBUG_VALUE: _i.audManage_if._chan_yield.transfer_samples:param3 <- R3
	#DEBUG_VALUE: _i.audManage_if._chan_yield.transfer_samples:param4 <- [SP+68]
	stw r3, sp[3]                   # 4-byte Folded Spill
	#DEBUG_VALUE: _i.audManage_if._chan_yield.transfer_samples:param3 <- [SP+12]
	stw r2, sp[2]                   # 4-byte Folded Spill
	#DEBUG_VALUE: _i.audManage_if._chan_yield.transfer_samples:param2 <- [SP+8]
	mov r7, r1
	#DEBUG_VALUE: _i.audManage_if._chan_yield.transfer_samples:param1 <- R7
	ldd r10, r9, sp[10]
	ldd r6, r4, sp[9]
	ldc r1, 0
	stw r1, sp[6]
	stw r1, sp[5]
	stw r1, sp[4]
	ldw r1, r0[0]
	getr r5, 2
	setd res[r5], r1
	add r1, r5, 1
	out res[r5], r1
	outct res[r5], 2
	ldw r8, r0[1]
	mov r0, r5
	mov r1, r8
	bl __interface_wait_and_yield
	chkct res[r5], 1
	out res[r5], r4
	stw r7, sp[4]
	out res[r5], r6
	ldw r0, sp[2]                   # 4-byte Folded Reload
	stw r0, sp[5]
	out res[r5], r9
	ldw r0, sp[3]                   # 4-byte Folded Reload
	stw r0, sp[6]
	out res[r5], r10
	ldw r0, sp[17]
	stw r0, sp[7]
	outct res[r5], 2
	ldaw r1, sp[4]
	mov r0, r5
	mov r2, r8
	bl __interface_client_call_y
	chkct res[r5], 1
	freer res[r5]
	ldw r10, sp[14]                 # 4-byte Folded Reload
	ldd r9, r8, sp[6]               # 4-byte Folded Reload
	ldd r7, r6, sp[5]               # 4-byte Folded Reload
	ldd r5, r4, sp[4]               # 4-byte Folded Reload
	retsp 16
	# RETURN_REG_HOLDER
	.cc_bottom _i.audManage_if._chan_yield.transfer_samples.function
	.set	_i.audManage_if._chan_yield.transfer_samples.nstackwords,((($D __interface_wait_and_yield.nstackwords ? __interface_wait_and_yield.nstackwords $: _i.audManage_if._client_call_y.max.nstackwords) $M _i.audManage_if._client_call_y.max.nstackwords $M ($D __interface_client_call_y.nstackwords ? __interface_client_call_y.nstackwords $: _i.audManage_if._client_call_y.max.nstackwords)) + 16)
	.globl	_i.audManage_if._chan_yield.transfer_samples.nstackwords
	.weak	_i.audManage_if._chan_yield.transfer_samples.nstackwords
	.set	_i.audManage_if._chan_yield.transfer_samples.maxcores,($D __interface_client_call_y.maxcores ? __interface_client_call_y.maxcores $: _i.audManage_if._client_call_y.max.maxcores) $M ($D __interface_wait_and_yield.maxcores ? __interface_wait_and_yield.maxcores $: _i.audManage_if._client_call_y.max.maxcores) $M 1
	.globl	_i.audManage_if._chan_yield.transfer_samples.maxcores
	.weak	_i.audManage_if._chan_yield.transfer_samples.maxcores
	.set	_i.audManage_if._chan_yield.transfer_samples.maxtimers,($D __interface_client_call_y.maxtimers ? __interface_client_call_y.maxtimers $: _i.audManage_if._client_call_y.max.maxtimers) $M ($D __interface_wait_and_yield.maxtimers ? __interface_wait_and_yield.maxtimers $: _i.audManage_if._client_call_y.max.maxtimers) $M 0
	.globl	_i.audManage_if._chan_yield.transfer_samples.maxtimers
	.weak	_i.audManage_if._chan_yield.transfer_samples.maxtimers
	.set	_i.audManage_if._chan_yield.transfer_samples.maxchanends,(1 + ($D __interface_client_call_y.maxchanends ? __interface_client_call_y.maxchanends $: _i.audManage_if._client_call_y.max.maxchanends)) $M (1 + ($D __interface_wait_and_yield.maxchanends ? __interface_wait_and_yield.maxchanends $: _i.audManage_if._client_call_y.max.maxchanends)) $M 1
	.globl	_i.audManage_if._chan_yield.transfer_samples.maxchanends
	.weak	_i.audManage_if._chan_yield.transfer_samples.maxchanends
.Ltmp100:
	.size	_i.audManage_if._chan_yield.transfer_samples, .Ltmp100-_i.audManage_if._chan_yield.transfer_samples
	.cfi_endproc

	.weak	_i.audManage_if._chan_yield.transfer_buffers
	.align	4
	.type	_i.audManage_if._chan_yield.transfer_buffers,@function
	.cc_top _i.audManage_if._chan_yield.transfer_buffers.function,_i.audManage_if._chan_yield.transfer_buffers
_i.audManage_if._chan_yield.transfer_buffers: # @_i.audManage_if._chan_yield.transfer_buffers
	.cfi_startproc
	.issue_mode single
# BB#0:                                 # %allocas
	ENTSP_lu6 8
.Ltmp101:
	.cfi_def_cfa_offset 32
.Ltmp102:
	.cfi_offset 15, 0
	std r5, r4, sp[1]               # 4-byte Folded Spill
.Ltmp103:
	.cfi_offset 4, -24
.Ltmp104:
	.cfi_offset 5, -20
	std r7, r6, sp[2]               # 4-byte Folded Spill
.Ltmp105:
	.cfi_offset 6, -16
.Ltmp106:
	.cfi_offset 7, -12
	std r9, r8, sp[3]               # 4-byte Folded Spill
.Ltmp107:
	.cfi_offset 8, -8
.Ltmp108:
	.cfi_offset 9, -4
	#DEBUG_VALUE: _i.audManage_if._chan_yield.transfer_buffers:s <- R0
	#DEBUG_VALUE: _i.audManage_if._chan_yield.transfer_buffers:param1 <- R1
	#DEBUG_VALUE: _i.audManage_if._chan_yield.transfer_buffers:param2 <- R2
	#DEBUG_VALUE: _i.audManage_if._chan_yield.transfer_buffers:param3 <- R3
	#DEBUG_VALUE: _i.audManage_if._chan_yield.transfer_buffers:param4 <- [SP+36]
	mov r5, r3
	#DEBUG_VALUE: _i.audManage_if._chan_yield.transfer_buffers:param3 <- R5
	mov r6, r2
	#DEBUG_VALUE: _i.audManage_if._chan_yield.transfer_buffers:param2 <- R6
	mov r7, r1
	#DEBUG_VALUE: _i.audManage_if._chan_yield.transfer_buffers:param1 <- R7
	ldw r9, sp[9]
	ldw r1, r0[0]
	getr r4, 2
	setd res[r4], r1
	out res[r4], r4
	outct res[r4], 2
	ldw r8, r0[1]
	mov r0, r4
	mov r1, r8
	bl __interface_wait_and_yield
	chkct res[r4], 1
	#APP
	#NO_APP
	out res[r4], r7
	#APP
	#NO_APP
	out res[r4], r6
	#APP
	#NO_APP
	out res[r4], r5
	#APP
	#NO_APP
	out res[r4], r9
	outct res[r4], 2
	ldc r1, 0
	mov r0, r4
	mov r2, r8
	bl __interface_client_call_y
	chkct res[r4], 1
	freer res[r4]
	ldd r9, r8, sp[3]               # 4-byte Folded Reload
	ldd r7, r6, sp[2]               # 4-byte Folded Reload
	ldd r5, r4, sp[1]               # 4-byte Folded Reload
	retsp 8
	# RETURN_REG_HOLDER
	.cc_bottom _i.audManage_if._chan_yield.transfer_buffers.function
	.set	_i.audManage_if._chan_yield.transfer_buffers.nstackwords,((($D __interface_wait_and_yield.nstackwords ? __interface_wait_and_yield.nstackwords $: _i.audManage_if._client_call_y.max.nstackwords) $M _i.audManage_if._client_call_y.max.nstackwords $M ($D __interface_client_call_y.nstackwords ? __interface_client_call_y.nstackwords $: _i.audManage_if._client_call_y.max.nstackwords)) + 8)
	.globl	_i.audManage_if._chan_yield.transfer_buffers.nstackwords
	.weak	_i.audManage_if._chan_yield.transfer_buffers.nstackwords
	.set	_i.audManage_if._chan_yield.transfer_buffers.maxcores,($D __interface_client_call_y.maxcores ? __interface_client_call_y.maxcores $: _i.audManage_if._client_call_y.max.maxcores) $M ($D __interface_wait_and_yield.maxcores ? __interface_wait_and_yield.maxcores $: _i.audManage_if._client_call_y.max.maxcores) $M 1
	.globl	_i.audManage_if._chan_yield.transfer_buffers.maxcores
	.weak	_i.audManage_if._chan_yield.transfer_buffers.maxcores
	.set	_i.audManage_if._chan_yield.transfer_buffers.maxtimers,($D __interface_client_call_y.maxtimers ? __interface_client_call_y.maxtimers $: _i.audManage_if._client_call_y.max.maxtimers) $M ($D __interface_wait_and_yield.maxtimers ? __interface_wait_and_yield.maxtimers $: _i.audManage_if._client_call_y.max.maxtimers) $M 0
	.globl	_i.audManage_if._chan_yield.transfer_buffers.maxtimers
	.weak	_i.audManage_if._chan_yield.transfer_buffers.maxtimers
	.set	_i.audManage_if._chan_yield.transfer_buffers.maxchanends,(1 + ($D __interface_client_call_y.maxchanends ? __interface_client_call_y.maxchanends $: _i.audManage_if._client_call_y.max.maxchanends)) $M (1 + ($D __interface_wait_and_yield.maxchanends ? __interface_wait_and_yield.maxchanends $: _i.audManage_if._client_call_y.max.maxchanends)) $M 1
	.globl	_i.audManage_if._chan_yield.transfer_buffers.maxchanends
	.weak	_i.audManage_if._chan_yield.transfer_buffers.maxchanends
.Ltmp109:
	.size	_i.audManage_if._chan_yield.transfer_buffers, .Ltmp109-_i.audManage_if._chan_yield.transfer_buffers
	.cfi_endproc

	.weak	_i.keyword_if._chan.buffer_ready
	.align	4
	.type	_i.keyword_if._chan.buffer_ready,@function
	.cc_top _i.keyword_if._chan.buffer_ready.function,_i.keyword_if._chan.buffer_ready
_i.keyword_if._chan.buffer_ready:       # @_i.keyword_if._chan.buffer_ready
	.cfi_startproc
	.issue_mode single
# BB#0:                                 # %allocas
	ENTSP_lu6 0
	#DEBUG_VALUE: _i.keyword_if._chan.buffer_ready:dest <- R0
	#DEBUG_VALUE: _i.keyword_if._chan.buffer_ready:param1 <- R1
	getr r2, 2
	setd res[r2], r0
	out res[r2], r2
	outct res[r2], 2
	chkct res[r2], 1
	out res[r2], r1
	outct res[r2], 2
	in r0, res[r2]
	in r0, res[r2]
	chkct res[r2], 1
	freer res[r2]
	retsp 0
	# RETURN_REG_HOLDER
	.cc_bottom _i.keyword_if._chan.buffer_ready.function
	.set	_i.keyword_if._chan.buffer_ready.nstackwords,0
	.globl	_i.keyword_if._chan.buffer_ready.nstackwords
	.weak	_i.keyword_if._chan.buffer_ready.nstackwords
	.set	_i.keyword_if._chan.buffer_ready.maxcores,1
	.globl	_i.keyword_if._chan.buffer_ready.maxcores
	.weak	_i.keyword_if._chan.buffer_ready.maxcores
	.set	_i.keyword_if._chan.buffer_ready.maxtimers,0
	.globl	_i.keyword_if._chan.buffer_ready.maxtimers
	.weak	_i.keyword_if._chan.buffer_ready.maxtimers
	.set	_i.keyword_if._chan.buffer_ready.maxchanends,1
	.globl	_i.keyword_if._chan.buffer_ready.maxchanends
	.weak	_i.keyword_if._chan.buffer_ready.maxchanends
.Ltmp110:
	.size	_i.keyword_if._chan.buffer_ready, .Ltmp110-_i.keyword_if._chan.buffer_ready
	.cfi_endproc

	.weak	_i.keyword_if._chan_yield.buffer_ready
	.align	4
	.type	_i.keyword_if._chan_yield.buffer_ready,@function
	.cc_top _i.keyword_if._chan_yield.buffer_ready.function,_i.keyword_if._chan_yield.buffer_ready
_i.keyword_if._chan_yield.buffer_ready: # @_i.keyword_if._chan_yield.buffer_ready
	.cfi_startproc
	.issue_mode single
# BB#0:                                 # %allocas
	ENTSP_lu6 4
.Ltmp111:
	.cfi_def_cfa_offset 16
.Ltmp112:
	.cfi_offset 15, 0
	stw r4, sp[2]                   # 4-byte Folded Spill
.Ltmp113:
	.cfi_offset 4, -8
	#DEBUG_VALUE: _i.keyword_if._chan_yield.buffer_ready:s <- R0
	#DEBUG_VALUE: _i.keyword_if._chan_yield.buffer_ready:param1 <- R1
	ldw r2, r0[0]
	getr r4, 2
	setd res[r4], r2
	out res[r4], r4
	outct res[r4], 2
	chkct res[r4], 1
	out res[r4], r1
	outct res[r4], 2
	ldw r2, r0[1]
	ldc r1, 0
	mov r0, r4
	bl __interface_client_call_y
	in r0, res[r4]
	chkct res[r4], 1
	freer res[r4]
	ldw r4, sp[2]                   # 4-byte Folded Reload
	retsp 4
	# RETURN_REG_HOLDER
	.cc_bottom _i.keyword_if._chan_yield.buffer_ready.function
	.set	_i.keyword_if._chan_yield.buffer_ready.nstackwords,((_i.keyword_if._client_call_y.max.nstackwords $M ($D __interface_client_call_y.nstackwords ? __interface_client_call_y.nstackwords $: _i.keyword_if._client_call_y.max.nstackwords)) + 4)
	.globl	_i.keyword_if._chan_yield.buffer_ready.nstackwords
	.weak	_i.keyword_if._chan_yield.buffer_ready.nstackwords
	.set	_i.keyword_if._chan_yield.buffer_ready.maxcores,($D __interface_client_call_y.maxcores ? __interface_client_call_y.maxcores $: _i.keyword_if._client_call_y.max.maxcores) $M 1
	.globl	_i.keyword_if._chan_yield.buffer_ready.maxcores
	.weak	_i.keyword_if._chan_yield.buffer_ready.maxcores
	.set	_i.keyword_if._chan_yield.buffer_ready.maxtimers,($D __interface_client_call_y.maxtimers ? __interface_client_call_y.maxtimers $: _i.keyword_if._client_call_y.max.maxtimers) $M 0
	.globl	_i.keyword_if._chan_yield.buffer_ready.maxtimers
	.weak	_i.keyword_if._chan_yield.buffer_ready.maxtimers
	.set	_i.keyword_if._chan_yield.buffer_ready.maxchanends,(1 + ($D __interface_client_call_y.maxchanends ? __interface_client_call_y.maxchanends $: _i.keyword_if._client_call_y.max.maxchanends)) $M 1
	.globl	_i.keyword_if._chan_yield.buffer_ready.maxchanends
	.weak	_i.keyword_if._chan_yield.buffer_ready.maxchanends
.Ltmp114:
	.size	_i.keyword_if._chan_yield.buffer_ready, .Ltmp114-_i.keyword_if._chan_yield.buffer_ready
	.cfi_endproc

	.weak	_i.i2c_master_if._chan.shutdown
	.align	4
	.type	_i.i2c_master_if._chan.shutdown,@function
	.cc_top _i.i2c_master_if._chan.shutdown.function,_i.i2c_master_if._chan.shutdown
_i.i2c_master_if._chan.shutdown:        # @_i.i2c_master_if._chan.shutdown
	.cfi_startproc
	.issue_mode single
# BB#0:                                 # %allocas
	ENTSP_lu6 4
.Ltmp115:
	.cfi_def_cfa_offset 16
.Ltmp116:
	.cfi_offset 15, 0
	stw r4, sp[2]                   # 4-byte Folded Spill
.Ltmp117:
	.cfi_offset 4, -8
	#DEBUG_VALUE: _i.i2c_master_if._chan.shutdown:dest <- R0
	getr r4, 2
	setd res[r4], r0
	add r0, r4, 3
	out res[r4], r0
	outct res[r4], 2
	ldc r1, 0
	mov r0, r4
	bl __interface_wait_and_yield
	in r0, res[r4]
	chkct res[r4], 1
	freer res[r4]
	ldw r4, sp[2]                   # 4-byte Folded Reload
	retsp 4
	# RETURN_REG_HOLDER
	.cc_bottom _i.i2c_master_if._chan.shutdown.function
	.set	_i.i2c_master_if._chan.shutdown.nstackwords,((_i.i2c_master_if._client_call_y.max.nstackwords $M ($D __interface_wait_and_yield.nstackwords ? __interface_wait_and_yield.nstackwords $: _i.i2c_master_if._client_call_y.max.nstackwords)) + 4)
	.globl	_i.i2c_master_if._chan.shutdown.nstackwords
	.weak	_i.i2c_master_if._chan.shutdown.nstackwords
	.set	_i.i2c_master_if._chan.shutdown.maxcores,($D __interface_wait_and_yield.maxcores ? __interface_wait_and_yield.maxcores $: _i.i2c_master_if._client_call_y.max.maxcores) $M 1
	.globl	_i.i2c_master_if._chan.shutdown.maxcores
	.weak	_i.i2c_master_if._chan.shutdown.maxcores
	.set	_i.i2c_master_if._chan.shutdown.maxtimers,($D __interface_wait_and_yield.maxtimers ? __interface_wait_and_yield.maxtimers $: _i.i2c_master_if._client_call_y.max.maxtimers) $M 0
	.globl	_i.i2c_master_if._chan.shutdown.maxtimers
	.weak	_i.i2c_master_if._chan.shutdown.maxtimers
	.set	_i.i2c_master_if._chan.shutdown.maxchanends,(1 + ($D __interface_wait_and_yield.maxchanends ? __interface_wait_and_yield.maxchanends $: _i.i2c_master_if._client_call_y.max.maxchanends)) $M 1
	.globl	_i.i2c_master_if._chan.shutdown.maxchanends
	.weak	_i.i2c_master_if._chan.shutdown.maxchanends
.Ltmp118:
	.size	_i.i2c_master_if._chan.shutdown, .Ltmp118-_i.i2c_master_if._chan.shutdown
	.cfi_endproc

	.weak	_i.i2c_master_if._chan.send_stop_bit
	.align	4
	.type	_i.i2c_master_if._chan.send_stop_bit,@function
	.cc_top _i.i2c_master_if._chan.send_stop_bit.function,_i.i2c_master_if._chan.send_stop_bit
_i.i2c_master_if._chan.send_stop_bit:   # @_i.i2c_master_if._chan.send_stop_bit
	.cfi_startproc
	.issue_mode single
# BB#0:                                 # %allocas
	ENTSP_lu6 4
.Ltmp119:
	.cfi_def_cfa_offset 16
.Ltmp120:
	.cfi_offset 15, 0
	stw r4, sp[2]                   # 4-byte Folded Spill
.Ltmp121:
	.cfi_offset 4, -8
	#DEBUG_VALUE: _i.i2c_master_if._chan.send_stop_bit:dest <- R0
	getr r4, 2
	setd res[r4], r0
	add r0, r4, 2
	out res[r4], r0
	outct res[r4], 2
	ldc r1, 0
	mov r0, r4
	bl __interface_wait_and_yield
	in r0, res[r4]
	chkct res[r4], 1
	freer res[r4]
	ldw r4, sp[2]                   # 4-byte Folded Reload
	retsp 4
	# RETURN_REG_HOLDER
	.cc_bottom _i.i2c_master_if._chan.send_stop_bit.function
	.set	_i.i2c_master_if._chan.send_stop_bit.nstackwords,((_i.i2c_master_if._client_call_y.max.nstackwords $M ($D __interface_wait_and_yield.nstackwords ? __interface_wait_and_yield.nstackwords $: _i.i2c_master_if._client_call_y.max.nstackwords)) + 4)
	.globl	_i.i2c_master_if._chan.send_stop_bit.nstackwords
	.weak	_i.i2c_master_if._chan.send_stop_bit.nstackwords
	.set	_i.i2c_master_if._chan.send_stop_bit.maxcores,($D __interface_wait_and_yield.maxcores ? __interface_wait_and_yield.maxcores $: _i.i2c_master_if._client_call_y.max.maxcores) $M 1
	.globl	_i.i2c_master_if._chan.send_stop_bit.maxcores
	.weak	_i.i2c_master_if._chan.send_stop_bit.maxcores
	.set	_i.i2c_master_if._chan.send_stop_bit.maxtimers,($D __interface_wait_and_yield.maxtimers ? __interface_wait_and_yield.maxtimers $: _i.i2c_master_if._client_call_y.max.maxtimers) $M 0
	.globl	_i.i2c_master_if._chan.send_stop_bit.maxtimers
	.weak	_i.i2c_master_if._chan.send_stop_bit.maxtimers
	.set	_i.i2c_master_if._chan.send_stop_bit.maxchanends,(1 + ($D __interface_wait_and_yield.maxchanends ? __interface_wait_and_yield.maxchanends $: _i.i2c_master_if._client_call_y.max.maxchanends)) $M 1
	.globl	_i.i2c_master_if._chan.send_stop_bit.maxchanends
	.weak	_i.i2c_master_if._chan.send_stop_bit.maxchanends
.Ltmp122:
	.size	_i.i2c_master_if._chan.send_stop_bit, .Ltmp122-_i.i2c_master_if._chan.send_stop_bit
	.cfi_endproc

	.weak	_i.i2c_master_if._chan.read
	.align	4
	.type	_i.i2c_master_if._chan.read,@function
	.cc_top _i.i2c_master_if._chan.read.function,_i.i2c_master_if._chan.read
_i.i2c_master_if._chan.read:            # @_i.i2c_master_if._chan.read
	.cfi_startproc
	.issue_mode single
# BB#0:                                 # %allocas
	ENTSP_lu6 8
.Ltmp123:
	.cfi_def_cfa_offset 32
.Ltmp124:
	.cfi_offset 15, 0
	std r5, r4, sp[1]               # 4-byte Folded Spill
.Ltmp125:
	.cfi_offset 4, -24
.Ltmp126:
	.cfi_offset 5, -20
	std r7, r6, sp[2]               # 4-byte Folded Spill
.Ltmp127:
	.cfi_offset 6, -16
.Ltmp128:
	.cfi_offset 7, -12
	stw r8, sp[6]                   # 4-byte Folded Spill
.Ltmp129:
	.cfi_offset 8, -8
	#DEBUG_VALUE: _i.i2c_master_if._chan.read:dest <- R0
	#DEBUG_VALUE: _i.i2c_master_if._chan.read:param1 <- R1
	#DEBUG_VALUE: _i.i2c_master_if._chan.read:param2 <- R2
	#DEBUG_VALUE: _i.i2c_master_if._chan.read:param3 <- R3
	#DEBUG_VALUE: _i.i2c_master_if._chan.read:param4 <- [SP+36]
	mov r5, r3
	#DEBUG_VALUE: _i.i2c_master_if._chan.read:param3 <- R5
	mov r6, r2
	#DEBUG_VALUE: _i.i2c_master_if._chan.read:param2 <- R6
	mov r7, r1
	#DEBUG_VALUE: _i.i2c_master_if._chan.read:param1 <- R7
	ldw r8, sp[9]
	getr r4, 2
	setd res[r4], r0
	add r0, r4, 1
	out res[r4], r0
	outct res[r4], 2
	ldc r1, 0
	mov r0, r4
	bl __interface_wait_and_yield
	chkct res[r4], 1
	outt res[r4], r7
	stw r6, sp[1]
	out res[r4], r5
	out res[r4], r8
	outct res[r4], 2
	ldaw r1, sp[1]
	mov r0, r4
	bl __interface_client_call
	in r0, res[r4]
	chkct res[r4], 1
	freer res[r4]
	ldw r8, sp[6]                   # 4-byte Folded Reload
	ldd r7, r6, sp[2]               # 4-byte Folded Reload
	ldd r5, r4, sp[1]               # 4-byte Folded Reload
	retsp 8
	# RETURN_REG_HOLDER
	.cc_bottom _i.i2c_master_if._chan.read.function
	.set	_i.i2c_master_if._chan.read.nstackwords,((_i.i2c_master_if._client_call_y.max.nstackwords $M ($D __interface_wait_and_yield.nstackwords ? __interface_wait_and_yield.nstackwords $: _i.i2c_master_if._client_call_y.max.nstackwords) $M __interface_client_call.nstackwords) + 8)
	.globl	_i.i2c_master_if._chan.read.nstackwords
	.weak	_i.i2c_master_if._chan.read.nstackwords
	.set	_i.i2c_master_if._chan.read.maxcores,__interface_client_call.maxcores $M ($D __interface_wait_and_yield.maxcores ? __interface_wait_and_yield.maxcores $: _i.i2c_master_if._client_call_y.max.maxcores) $M 1
	.globl	_i.i2c_master_if._chan.read.maxcores
	.weak	_i.i2c_master_if._chan.read.maxcores
	.set	_i.i2c_master_if._chan.read.maxtimers,__interface_client_call.maxtimers $M ($D __interface_wait_and_yield.maxtimers ? __interface_wait_and_yield.maxtimers $: _i.i2c_master_if._client_call_y.max.maxtimers) $M 0
	.globl	_i.i2c_master_if._chan.read.maxtimers
	.weak	_i.i2c_master_if._chan.read.maxtimers
	.set	_i.i2c_master_if._chan.read.maxchanends,(1 + __interface_client_call.maxchanends) $M (1 + ($D __interface_wait_and_yield.maxchanends ? __interface_wait_and_yield.maxchanends $: _i.i2c_master_if._client_call_y.max.maxchanends)) $M 1
	.globl	_i.i2c_master_if._chan.read.maxchanends
	.weak	_i.i2c_master_if._chan.read.maxchanends
.Ltmp130:
	.size	_i.i2c_master_if._chan.read, .Ltmp130-_i.i2c_master_if._chan.read
	.cfi_endproc

	.weak	_i.i2c_master_if._chan.write
	.align	4
	.type	_i.i2c_master_if._chan.write,@function
	.cc_top _i.i2c_master_if._chan.write.function,_i.i2c_master_if._chan.write
_i.i2c_master_if._chan.write:           # @_i.i2c_master_if._chan.write
	.cfi_startproc
	.issue_mode single
# BB#0:                                 # %allocas
	ENTSP_lu6 8
.Ltmp131:
	.cfi_def_cfa_offset 32
.Ltmp132:
	.cfi_offset 15, 0
	std r5, r4, sp[1]               # 4-byte Folded Spill
.Ltmp133:
	.cfi_offset 4, -24
.Ltmp134:
	.cfi_offset 5, -20
	std r7, r6, sp[2]               # 4-byte Folded Spill
.Ltmp135:
	.cfi_offset 6, -16
.Ltmp136:
	.cfi_offset 7, -12
	std r9, r8, sp[3]               # 4-byte Folded Spill
.Ltmp137:
	.cfi_offset 8, -8
.Ltmp138:
	.cfi_offset 9, -4
	#DEBUG_VALUE: _i.i2c_master_if._chan.write:dest <- R0
	#DEBUG_VALUE: _i.i2c_master_if._chan.write:param1 <- R1
	#DEBUG_VALUE: _i.i2c_master_if._chan.write:param2 <- R2
	#DEBUG_VALUE: _i.i2c_master_if._chan.write:param3 <- R3
	#DEBUG_VALUE: _i.i2c_master_if._chan.write:param4 <- [SP+36]
	#DEBUG_VALUE: _i.i2c_master_if._chan.write:param5 <- [SP+40]
	mov r5, r3
	#DEBUG_VALUE: _i.i2c_master_if._chan.write:param3 <- R5
	mov r6, r2
	#DEBUG_VALUE: _i.i2c_master_if._chan.write:param2 <- R6
	mov r7, r1
	#DEBUG_VALUE: _i.i2c_master_if._chan.write:param1 <- R7
	ldw r9, sp[10]
	ldw r8, sp[9]
	getr r4, 2
	setd res[r4], r0
	out res[r4], r4
	outct res[r4], 2
	ldc r1, 0
	mov r0, r4
	bl __interface_wait_and_yield
	chkct res[r4], 1
	outt res[r4], r7
	stw r6, sp[1]
	out res[r4], r5
	ldw r0, r8[0]
	out res[r4], r0
	out res[r4], r9
	outct res[r4], 2
	ldaw r1, sp[1]
	mov r0, r4
	bl __interface_client_call
	in r0, res[r4]
	stw r0, r8[0]
	in r0, res[r4]
	chkct res[r4], 1
	freer res[r4]
	ldd r9, r8, sp[3]               # 4-byte Folded Reload
	ldd r7, r6, sp[2]               # 4-byte Folded Reload
	ldd r5, r4, sp[1]               # 4-byte Folded Reload
	retsp 8
	# RETURN_REG_HOLDER
	.cc_bottom _i.i2c_master_if._chan.write.function
	.set	_i.i2c_master_if._chan.write.nstackwords,((_i.i2c_master_if._client_call_y.max.nstackwords $M ($D __interface_wait_and_yield.nstackwords ? __interface_wait_and_yield.nstackwords $: _i.i2c_master_if._client_call_y.max.nstackwords) $M __interface_client_call.nstackwords) + 8)
	.globl	_i.i2c_master_if._chan.write.nstackwords
	.weak	_i.i2c_master_if._chan.write.nstackwords
	.set	_i.i2c_master_if._chan.write.maxcores,__interface_client_call.maxcores $M ($D __interface_wait_and_yield.maxcores ? __interface_wait_and_yield.maxcores $: _i.i2c_master_if._client_call_y.max.maxcores) $M 1
	.globl	_i.i2c_master_if._chan.write.maxcores
	.weak	_i.i2c_master_if._chan.write.maxcores
	.set	_i.i2c_master_if._chan.write.maxtimers,__interface_client_call.maxtimers $M ($D __interface_wait_and_yield.maxtimers ? __interface_wait_and_yield.maxtimers $: _i.i2c_master_if._client_call_y.max.maxtimers) $M 0
	.globl	_i.i2c_master_if._chan.write.maxtimers
	.weak	_i.i2c_master_if._chan.write.maxtimers
	.set	_i.i2c_master_if._chan.write.maxchanends,(1 + __interface_client_call.maxchanends) $M (1 + ($D __interface_wait_and_yield.maxchanends ? __interface_wait_and_yield.maxchanends $: _i.i2c_master_if._client_call_y.max.maxchanends)) $M 1
	.globl	_i.i2c_master_if._chan.write.maxchanends
	.weak	_i.i2c_master_if._chan.write.maxchanends
.Ltmp139:
	.size	_i.i2c_master_if._chan.write, .Ltmp139-_i.i2c_master_if._chan.write
	.cfi_endproc

	.weak	_i.i2c_master_if._chan_yield.shutdown
	.align	4
	.type	_i.i2c_master_if._chan_yield.shutdown,@function
	.cc_top _i.i2c_master_if._chan_yield.shutdown.function,_i.i2c_master_if._chan_yield.shutdown
_i.i2c_master_if._chan_yield.shutdown:  # @_i.i2c_master_if._chan_yield.shutdown
	.cfi_startproc
	.issue_mode single
# BB#0:                                 # %allocas
	ENTSP_lu6 4
.Ltmp140:
	.cfi_def_cfa_offset 16
.Ltmp141:
	.cfi_offset 15, 0
	std r5, r4, sp[1]               # 4-byte Folded Spill
.Ltmp142:
	.cfi_offset 4, -8
.Ltmp143:
	.cfi_offset 5, -4
	#DEBUG_VALUE: _i.i2c_master_if._chan_yield.shutdown:s <- R0
	ldw r1, r0[0]
	getr r4, 2
	setd res[r4], r1
	add r1, r4, 3
	out res[r4], r1
	outct res[r4], 2
	ldw r5, r0[1]
	mov r0, r4
	mov r1, r5
	bl __interface_wait_and_yield
	ldc r1, 0
	mov r0, r4
	mov r2, r5
	bl __interface_client_call_y
	chkct res[r4], 1
	freer res[r4]
	ldd r5, r4, sp[1]               # 4-byte Folded Reload
	retsp 4
	# RETURN_REG_HOLDER
	.cc_bottom _i.i2c_master_if._chan_yield.shutdown.function
	.set	_i.i2c_master_if._chan_yield.shutdown.nstackwords,((($D __interface_wait_and_yield.nstackwords ? __interface_wait_and_yield.nstackwords $: _i.i2c_master_if._client_call_y.max.nstackwords) $M _i.i2c_master_if._client_call_y.max.nstackwords $M ($D __interface_client_call_y.nstackwords ? __interface_client_call_y.nstackwords $: _i.i2c_master_if._client_call_y.max.nstackwords)) + 4)
	.globl	_i.i2c_master_if._chan_yield.shutdown.nstackwords
	.weak	_i.i2c_master_if._chan_yield.shutdown.nstackwords
	.set	_i.i2c_master_if._chan_yield.shutdown.maxcores,($D __interface_client_call_y.maxcores ? __interface_client_call_y.maxcores $: _i.i2c_master_if._client_call_y.max.maxcores) $M ($D __interface_wait_and_yield.maxcores ? __interface_wait_and_yield.maxcores $: _i.i2c_master_if._client_call_y.max.maxcores) $M 1
	.globl	_i.i2c_master_if._chan_yield.shutdown.maxcores
	.weak	_i.i2c_master_if._chan_yield.shutdown.maxcores
	.set	_i.i2c_master_if._chan_yield.shutdown.maxtimers,($D __interface_client_call_y.maxtimers ? __interface_client_call_y.maxtimers $: _i.i2c_master_if._client_call_y.max.maxtimers) $M ($D __interface_wait_and_yield.maxtimers ? __interface_wait_and_yield.maxtimers $: _i.i2c_master_if._client_call_y.max.maxtimers) $M 0
	.globl	_i.i2c_master_if._chan_yield.shutdown.maxtimers
	.weak	_i.i2c_master_if._chan_yield.shutdown.maxtimers
	.set	_i.i2c_master_if._chan_yield.shutdown.maxchanends,(1 + ($D __interface_client_call_y.maxchanends ? __interface_client_call_y.maxchanends $: _i.i2c_master_if._client_call_y.max.maxchanends)) $M (1 + ($D __interface_wait_and_yield.maxchanends ? __interface_wait_and_yield.maxchanends $: _i.i2c_master_if._client_call_y.max.maxchanends)) $M 1
	.globl	_i.i2c_master_if._chan_yield.shutdown.maxchanends
	.weak	_i.i2c_master_if._chan_yield.shutdown.maxchanends
.Ltmp144:
	.size	_i.i2c_master_if._chan_yield.shutdown, .Ltmp144-_i.i2c_master_if._chan_yield.shutdown
	.cfi_endproc

	.weak	_i.i2c_master_if._chan_yield.send_stop_bit
	.align	4
	.type	_i.i2c_master_if._chan_yield.send_stop_bit,@function
	.cc_top _i.i2c_master_if._chan_yield.send_stop_bit.function,_i.i2c_master_if._chan_yield.send_stop_bit
_i.i2c_master_if._chan_yield.send_stop_bit: # @_i.i2c_master_if._chan_yield.send_stop_bit
	.cfi_startproc
	.issue_mode single
# BB#0:                                 # %allocas
	ENTSP_lu6 4
.Ltmp145:
	.cfi_def_cfa_offset 16
.Ltmp146:
	.cfi_offset 15, 0
	std r5, r4, sp[1]               # 4-byte Folded Spill
.Ltmp147:
	.cfi_offset 4, -8
.Ltmp148:
	.cfi_offset 5, -4
	#DEBUG_VALUE: _i.i2c_master_if._chan_yield.send_stop_bit:s <- R0
	ldw r1, r0[0]
	getr r4, 2
	setd res[r4], r1
	add r1, r4, 2
	out res[r4], r1
	outct res[r4], 2
	ldw r5, r0[1]
	mov r0, r4
	mov r1, r5
	bl __interface_wait_and_yield
	ldc r1, 0
	mov r0, r4
	mov r2, r5
	bl __interface_client_call_y
	chkct res[r4], 1
	freer res[r4]
	ldd r5, r4, sp[1]               # 4-byte Folded Reload
	retsp 4
	# RETURN_REG_HOLDER
	.cc_bottom _i.i2c_master_if._chan_yield.send_stop_bit.function
	.set	_i.i2c_master_if._chan_yield.send_stop_bit.nstackwords,((($D __interface_wait_and_yield.nstackwords ? __interface_wait_and_yield.nstackwords $: _i.i2c_master_if._client_call_y.max.nstackwords) $M _i.i2c_master_if._client_call_y.max.nstackwords $M ($D __interface_client_call_y.nstackwords ? __interface_client_call_y.nstackwords $: _i.i2c_master_if._client_call_y.max.nstackwords)) + 4)
	.globl	_i.i2c_master_if._chan_yield.send_stop_bit.nstackwords
	.weak	_i.i2c_master_if._chan_yield.send_stop_bit.nstackwords
	.set	_i.i2c_master_if._chan_yield.send_stop_bit.maxcores,($D __interface_client_call_y.maxcores ? __interface_client_call_y.maxcores $: _i.i2c_master_if._client_call_y.max.maxcores) $M ($D __interface_wait_and_yield.maxcores ? __interface_wait_and_yield.maxcores $: _i.i2c_master_if._client_call_y.max.maxcores) $M 1
	.globl	_i.i2c_master_if._chan_yield.send_stop_bit.maxcores
	.weak	_i.i2c_master_if._chan_yield.send_stop_bit.maxcores
	.set	_i.i2c_master_if._chan_yield.send_stop_bit.maxtimers,($D __interface_client_call_y.maxtimers ? __interface_client_call_y.maxtimers $: _i.i2c_master_if._client_call_y.max.maxtimers) $M ($D __interface_wait_and_yield.maxtimers ? __interface_wait_and_yield.maxtimers $: _i.i2c_master_if._client_call_y.max.maxtimers) $M 0
	.globl	_i.i2c_master_if._chan_yield.send_stop_bit.maxtimers
	.weak	_i.i2c_master_if._chan_yield.send_stop_bit.maxtimers
	.set	_i.i2c_master_if._chan_yield.send_stop_bit.maxchanends,(1 + ($D __interface_client_call_y.maxchanends ? __interface_client_call_y.maxchanends $: _i.i2c_master_if._client_call_y.max.maxchanends)) $M (1 + ($D __interface_wait_and_yield.maxchanends ? __interface_wait_and_yield.maxchanends $: _i.i2c_master_if._client_call_y.max.maxchanends)) $M 1
	.globl	_i.i2c_master_if._chan_yield.send_stop_bit.maxchanends
	.weak	_i.i2c_master_if._chan_yield.send_stop_bit.maxchanends
.Ltmp149:
	.size	_i.i2c_master_if._chan_yield.send_stop_bit, .Ltmp149-_i.i2c_master_if._chan_yield.send_stop_bit
	.cfi_endproc

	.weak	_i.i2c_master_if._chan_yield.read
	.align	4
	.type	_i.i2c_master_if._chan_yield.read,@function
	.cc_top _i.i2c_master_if._chan_yield.read.function,_i.i2c_master_if._chan_yield.read
_i.i2c_master_if._chan_yield.read:      # @_i.i2c_master_if._chan_yield.read
	.cfi_startproc
	.issue_mode single
# BB#0:                                 # %allocas
	ENTSP_lu6 8
.Ltmp150:
	.cfi_def_cfa_offset 32
.Ltmp151:
	.cfi_offset 15, 0
	std r5, r4, sp[1]               # 4-byte Folded Spill
.Ltmp152:
	.cfi_offset 4, -24
.Ltmp153:
	.cfi_offset 5, -20
	std r7, r6, sp[2]               # 4-byte Folded Spill
.Ltmp154:
	.cfi_offset 6, -16
.Ltmp155:
	.cfi_offset 7, -12
	std r9, r8, sp[3]               # 4-byte Folded Spill
.Ltmp156:
	.cfi_offset 8, -8
.Ltmp157:
	.cfi_offset 9, -4
	#DEBUG_VALUE: _i.i2c_master_if._chan_yield.read:s <- R0
	#DEBUG_VALUE: _i.i2c_master_if._chan_yield.read:param1 <- R1
	#DEBUG_VALUE: _i.i2c_master_if._chan_yield.read:param2 <- R2
	#DEBUG_VALUE: _i.i2c_master_if._chan_yield.read:param3 <- R3
	#DEBUG_VALUE: _i.i2c_master_if._chan_yield.read:param4 <- [SP+36]
	mov r5, r3
	#DEBUG_VALUE: _i.i2c_master_if._chan_yield.read:param3 <- R5
	mov r6, r2
	#DEBUG_VALUE: _i.i2c_master_if._chan_yield.read:param2 <- R6
	mov r7, r1
	#DEBUG_VALUE: _i.i2c_master_if._chan_yield.read:param1 <- R7
	ldw r9, sp[9]
	ldw r1, r0[0]
	getr r4, 2
	setd res[r4], r1
	add r1, r4, 1
	out res[r4], r1
	outct res[r4], 2
	ldw r8, r0[1]
	mov r0, r4
	mov r1, r8
	bl __interface_wait_and_yield
	chkct res[r4], 1
	outt res[r4], r7
	stw r6, sp[1]
	out res[r4], r5
	out res[r4], r9
	outct res[r4], 2
	ldaw r1, sp[1]
	mov r0, r4
	mov r2, r8
	bl __interface_client_call_y
	in r0, res[r4]
	chkct res[r4], 1
	freer res[r4]
	ldd r9, r8, sp[3]               # 4-byte Folded Reload
	ldd r7, r6, sp[2]               # 4-byte Folded Reload
	ldd r5, r4, sp[1]               # 4-byte Folded Reload
	retsp 8
	# RETURN_REG_HOLDER
	.cc_bottom _i.i2c_master_if._chan_yield.read.function
	.set	_i.i2c_master_if._chan_yield.read.nstackwords,((($D __interface_wait_and_yield.nstackwords ? __interface_wait_and_yield.nstackwords $: _i.i2c_master_if._client_call_y.max.nstackwords) $M _i.i2c_master_if._client_call_y.max.nstackwords $M ($D __interface_client_call_y.nstackwords ? __interface_client_call_y.nstackwords $: _i.i2c_master_if._client_call_y.max.nstackwords)) + 8)
	.globl	_i.i2c_master_if._chan_yield.read.nstackwords
	.weak	_i.i2c_master_if._chan_yield.read.nstackwords
	.set	_i.i2c_master_if._chan_yield.read.maxcores,($D __interface_client_call_y.maxcores ? __interface_client_call_y.maxcores $: _i.i2c_master_if._client_call_y.max.maxcores) $M ($D __interface_wait_and_yield.maxcores ? __interface_wait_and_yield.maxcores $: _i.i2c_master_if._client_call_y.max.maxcores) $M 1
	.globl	_i.i2c_master_if._chan_yield.read.maxcores
	.weak	_i.i2c_master_if._chan_yield.read.maxcores
	.set	_i.i2c_master_if._chan_yield.read.maxtimers,($D __interface_client_call_y.maxtimers ? __interface_client_call_y.maxtimers $: _i.i2c_master_if._client_call_y.max.maxtimers) $M ($D __interface_wait_and_yield.maxtimers ? __interface_wait_and_yield.maxtimers $: _i.i2c_master_if._client_call_y.max.maxtimers) $M 0
	.globl	_i.i2c_master_if._chan_yield.read.maxtimers
	.weak	_i.i2c_master_if._chan_yield.read.maxtimers
	.set	_i.i2c_master_if._chan_yield.read.maxchanends,(1 + ($D __interface_client_call_y.maxchanends ? __interface_client_call_y.maxchanends $: _i.i2c_master_if._client_call_y.max.maxchanends)) $M (1 + ($D __interface_wait_and_yield.maxchanends ? __interface_wait_and_yield.maxchanends $: _i.i2c_master_if._client_call_y.max.maxchanends)) $M 1
	.globl	_i.i2c_master_if._chan_yield.read.maxchanends
	.weak	_i.i2c_master_if._chan_yield.read.maxchanends
.Ltmp158:
	.size	_i.i2c_master_if._chan_yield.read, .Ltmp158-_i.i2c_master_if._chan_yield.read
	.cfi_endproc

	.weak	_i.i2c_master_if._chan_yield.write
	.align	4
	.type	_i.i2c_master_if._chan_yield.write,@function
	.cc_top _i.i2c_master_if._chan_yield.write.function,_i.i2c_master_if._chan_yield.write
_i.i2c_master_if._chan_yield.write:     # @_i.i2c_master_if._chan_yield.write
	.cfi_startproc
	.issue_mode single
# BB#0:                                 # %allocas
	ENTSP_lu6 10
.Ltmp159:
	.cfi_def_cfa_offset 40
.Ltmp160:
	.cfi_offset 15, 0
	std r5, r4, sp[1]               # 4-byte Folded Spill
.Ltmp161:
	.cfi_offset 4, -32
.Ltmp162:
	.cfi_offset 5, -28
	std r7, r6, sp[2]               # 4-byte Folded Spill
.Ltmp163:
	.cfi_offset 6, -24
.Ltmp164:
	.cfi_offset 7, -20
	std r9, r8, sp[3]               # 4-byte Folded Spill
.Ltmp165:
	.cfi_offset 8, -16
.Ltmp166:
	.cfi_offset 9, -12
	stw r10, sp[8]                  # 4-byte Folded Spill
.Ltmp167:
	.cfi_offset 10, -8
	#DEBUG_VALUE: _i.i2c_master_if._chan_yield.write:s <- R0
	#DEBUG_VALUE: _i.i2c_master_if._chan_yield.write:param1 <- R1
	#DEBUG_VALUE: _i.i2c_master_if._chan_yield.write:param2 <- R2
	#DEBUG_VALUE: _i.i2c_master_if._chan_yield.write:param3 <- R3
	#DEBUG_VALUE: _i.i2c_master_if._chan_yield.write:param4 <- [SP+44]
	#DEBUG_VALUE: _i.i2c_master_if._chan_yield.write:param5 <- [SP+48]
	mov r5, r3
	#DEBUG_VALUE: _i.i2c_master_if._chan_yield.write:param3 <- R5
	mov r6, r2
	#DEBUG_VALUE: _i.i2c_master_if._chan_yield.write:param2 <- R6
	mov r7, r1
	#DEBUG_VALUE: _i.i2c_master_if._chan_yield.write:param1 <- R7
	ldw r10, sp[12]
	ldw r9, sp[11]
	ldw r1, r0[0]
	getr r4, 2
	setd res[r4], r1
	out res[r4], r4
	outct res[r4], 2
	ldw r8, r0[1]
	mov r0, r4
	mov r1, r8
	bl __interface_wait_and_yield
	chkct res[r4], 1
	outt res[r4], r7
	stw r6, sp[1]
	out res[r4], r5
	ldw r0, r9[0]
	out res[r4], r0
	out res[r4], r10
	outct res[r4], 2
	ldaw r1, sp[1]
	mov r0, r4
	mov r2, r8
	bl __interface_client_call_y
	in r0, res[r4]
	stw r0, r9[0]
	in r0, res[r4]
	chkct res[r4], 1
	freer res[r4]
	ldw r10, sp[8]                  # 4-byte Folded Reload
	ldd r9, r8, sp[3]               # 4-byte Folded Reload
	ldd r7, r6, sp[2]               # 4-byte Folded Reload
	ldd r5, r4, sp[1]               # 4-byte Folded Reload
	retsp 10
	# RETURN_REG_HOLDER
	.cc_bottom _i.i2c_master_if._chan_yield.write.function
	.set	_i.i2c_master_if._chan_yield.write.nstackwords,((($D __interface_wait_and_yield.nstackwords ? __interface_wait_and_yield.nstackwords $: _i.i2c_master_if._client_call_y.max.nstackwords) $M _i.i2c_master_if._client_call_y.max.nstackwords $M ($D __interface_client_call_y.nstackwords ? __interface_client_call_y.nstackwords $: _i.i2c_master_if._client_call_y.max.nstackwords)) + 10)
	.globl	_i.i2c_master_if._chan_yield.write.nstackwords
	.weak	_i.i2c_master_if._chan_yield.write.nstackwords
	.set	_i.i2c_master_if._chan_yield.write.maxcores,($D __interface_client_call_y.maxcores ? __interface_client_call_y.maxcores $: _i.i2c_master_if._client_call_y.max.maxcores) $M ($D __interface_wait_and_yield.maxcores ? __interface_wait_and_yield.maxcores $: _i.i2c_master_if._client_call_y.max.maxcores) $M 1
	.globl	_i.i2c_master_if._chan_yield.write.maxcores
	.weak	_i.i2c_master_if._chan_yield.write.maxcores
	.set	_i.i2c_master_if._chan_yield.write.maxtimers,($D __interface_client_call_y.maxtimers ? __interface_client_call_y.maxtimers $: _i.i2c_master_if._client_call_y.max.maxtimers) $M ($D __interface_wait_and_yield.maxtimers ? __interface_wait_and_yield.maxtimers $: _i.i2c_master_if._client_call_y.max.maxtimers) $M 0
	.globl	_i.i2c_master_if._chan_yield.write.maxtimers
	.weak	_i.i2c_master_if._chan_yield.write.maxtimers
	.set	_i.i2c_master_if._chan_yield.write.maxchanends,(1 + ($D __interface_client_call_y.maxchanends ? __interface_client_call_y.maxchanends $: _i.i2c_master_if._client_call_y.max.maxchanends)) $M (1 + ($D __interface_wait_and_yield.maxchanends ? __interface_wait_and_yield.maxchanends $: _i.i2c_master_if._client_call_y.max.maxchanends)) $M 1
	.globl	_i.i2c_master_if._chan_yield.write.maxchanends
	.weak	_i.i2c_master_if._chan_yield.write.maxchanends
.Ltmp168:
	.size	_i.i2c_master_if._chan_yield.write, .Ltmp168-_i.i2c_master_if._chan_yield.write
	.cfi_endproc

	.weak	_i.i2c_master_async_if._chan.shutdown
	.align	4
	.type	_i.i2c_master_async_if._chan.shutdown,@function
	.cc_top _i.i2c_master_async_if._chan.shutdown.function,_i.i2c_master_async_if._chan.shutdown
_i.i2c_master_async_if._chan.shutdown:  # @_i.i2c_master_async_if._chan.shutdown
	.cfi_startproc
	.issue_mode single
# BB#0:                                 # %allocas
	ENTSP_lu6 4
.Ltmp169:
	.cfi_def_cfa_offset 16
.Ltmp170:
	.cfi_offset 15, 0
	stw r4, sp[2]                   # 4-byte Folded Spill
.Ltmp171:
	.cfi_offset 4, -8
	#DEBUG_VALUE: _i.i2c_master_async_if._chan.shutdown:dest <- R0
	getr r4, 2
	setd res[r4], r0
	add r0, r4, 5
	out res[r4], r0
	outct res[r4], 2
	ldc r1, 0
	mov r0, r4
	bl __interface_wait_and_yield
	in r0, res[r4]
	chkct res[r4], 1
	freer res[r4]
	ldw r4, sp[2]                   # 4-byte Folded Reload
	retsp 4
	# RETURN_REG_HOLDER
	.cc_bottom _i.i2c_master_async_if._chan.shutdown.function
	.set	_i.i2c_master_async_if._chan.shutdown.nstackwords,((_i.i2c_master_async_if._client_call_y.max.nstackwords $M ($D __interface_wait_and_yield.nstackwords ? __interface_wait_and_yield.nstackwords $: _i.i2c_master_async_if._client_call_y.max.nstackwords)) + 4)
	.globl	_i.i2c_master_async_if._chan.shutdown.nstackwords
	.weak	_i.i2c_master_async_if._chan.shutdown.nstackwords
	.set	_i.i2c_master_async_if._chan.shutdown.maxcores,($D __interface_wait_and_yield.maxcores ? __interface_wait_and_yield.maxcores $: _i.i2c_master_async_if._client_call_y.max.maxcores) $M 1
	.globl	_i.i2c_master_async_if._chan.shutdown.maxcores
	.weak	_i.i2c_master_async_if._chan.shutdown.maxcores
	.set	_i.i2c_master_async_if._chan.shutdown.maxtimers,($D __interface_wait_and_yield.maxtimers ? __interface_wait_and_yield.maxtimers $: _i.i2c_master_async_if._client_call_y.max.maxtimers) $M 0
	.globl	_i.i2c_master_async_if._chan.shutdown.maxtimers
	.weak	_i.i2c_master_async_if._chan.shutdown.maxtimers
	.set	_i.i2c_master_async_if._chan.shutdown.maxchanends,(1 + ($D __interface_wait_and_yield.maxchanends ? __interface_wait_and_yield.maxchanends $: _i.i2c_master_async_if._client_call_y.max.maxchanends)) $M 1
	.globl	_i.i2c_master_async_if._chan.shutdown.maxchanends
	.weak	_i.i2c_master_async_if._chan.shutdown.maxchanends
.Ltmp172:
	.size	_i.i2c_master_async_if._chan.shutdown, .Ltmp172-_i.i2c_master_async_if._chan.shutdown
	.cfi_endproc

	.weak	_i.i2c_master_async_if._chan.send_stop_bit
	.align	4
	.type	_i.i2c_master_async_if._chan.send_stop_bit,@function
	.cc_top _i.i2c_master_async_if._chan.send_stop_bit.function,_i.i2c_master_async_if._chan.send_stop_bit
_i.i2c_master_async_if._chan.send_stop_bit: # @_i.i2c_master_async_if._chan.send_stop_bit
	.cfi_startproc
	.issue_mode single
# BB#0:                                 # %allocas
	ENTSP_lu6 4
.Ltmp173:
	.cfi_def_cfa_offset 16
.Ltmp174:
	.cfi_offset 15, 0
	stw r4, sp[2]                   # 4-byte Folded Spill
.Ltmp175:
	.cfi_offset 4, -8
	#DEBUG_VALUE: _i.i2c_master_async_if._chan.send_stop_bit:dest <- R0
	getr r4, 2
	setd res[r4], r0
	add r0, r4, 4
	out res[r4], r0
	outct res[r4], 2
	ldc r1, 0
	mov r0, r4
	bl __interface_wait_and_yield
	in r0, res[r4]
	chkct res[r4], 1
	freer res[r4]
	ldw r4, sp[2]                   # 4-byte Folded Reload
	retsp 4
	# RETURN_REG_HOLDER
	.cc_bottom _i.i2c_master_async_if._chan.send_stop_bit.function
	.set	_i.i2c_master_async_if._chan.send_stop_bit.nstackwords,((_i.i2c_master_async_if._client_call_y.max.nstackwords $M ($D __interface_wait_and_yield.nstackwords ? __interface_wait_and_yield.nstackwords $: _i.i2c_master_async_if._client_call_y.max.nstackwords)) + 4)
	.globl	_i.i2c_master_async_if._chan.send_stop_bit.nstackwords
	.weak	_i.i2c_master_async_if._chan.send_stop_bit.nstackwords
	.set	_i.i2c_master_async_if._chan.send_stop_bit.maxcores,($D __interface_wait_and_yield.maxcores ? __interface_wait_and_yield.maxcores $: _i.i2c_master_async_if._client_call_y.max.maxcores) $M 1
	.globl	_i.i2c_master_async_if._chan.send_stop_bit.maxcores
	.weak	_i.i2c_master_async_if._chan.send_stop_bit.maxcores
	.set	_i.i2c_master_async_if._chan.send_stop_bit.maxtimers,($D __interface_wait_and_yield.maxtimers ? __interface_wait_and_yield.maxtimers $: _i.i2c_master_async_if._client_call_y.max.maxtimers) $M 0
	.globl	_i.i2c_master_async_if._chan.send_stop_bit.maxtimers
	.weak	_i.i2c_master_async_if._chan.send_stop_bit.maxtimers
	.set	_i.i2c_master_async_if._chan.send_stop_bit.maxchanends,(1 + ($D __interface_wait_and_yield.maxchanends ? __interface_wait_and_yield.maxchanends $: _i.i2c_master_async_if._client_call_y.max.maxchanends)) $M 1
	.globl	_i.i2c_master_async_if._chan.send_stop_bit.maxchanends
	.weak	_i.i2c_master_async_if._chan.send_stop_bit.maxchanends
.Ltmp176:
	.size	_i.i2c_master_async_if._chan.send_stop_bit, .Ltmp176-_i.i2c_master_async_if._chan.send_stop_bit
	.cfi_endproc

	.weak	_i.i2c_master_async_if._chan.get_read_data
	.align	4
	.type	_i.i2c_master_async_if._chan.get_read_data,@function
	.cc_top _i.i2c_master_async_if._chan.get_read_data.function,_i.i2c_master_async_if._chan.get_read_data
_i.i2c_master_async_if._chan.get_read_data: # @_i.i2c_master_async_if._chan.get_read_data
	.cfi_startproc
	.issue_mode single
# BB#0:                                 # %allocas
	ENTSP_lu6 6
.Ltmp177:
	.cfi_def_cfa_offset 24
.Ltmp178:
	.cfi_offset 15, 0
	std r5, r4, sp[1]               # 4-byte Folded Spill
.Ltmp179:
	.cfi_offset 4, -16
.Ltmp180:
	.cfi_offset 5, -12
	std r7, r6, sp[2]               # 4-byte Folded Spill
.Ltmp181:
	.cfi_offset 6, -8
.Ltmp182:
	.cfi_offset 7, -4
	#DEBUG_VALUE: _i.i2c_master_async_if._chan.get_read_data:dest <- R0
	#DEBUG_VALUE: _i.i2c_master_async_if._chan.get_read_data:clientNotifyFlag <- R1
	#DEBUG_VALUE: _i.i2c_master_async_if._chan.get_read_data:param2 <- R2
	#DEBUG_VALUE: _i.i2c_master_async_if._chan.get_read_data:param3 <- R3
	mov r4, r3
	#DEBUG_VALUE: _i.i2c_master_async_if._chan.get_read_data:param3 <- R4
	mov r5, r2
	#DEBUG_VALUE: _i.i2c_master_async_if._chan.get_read_data:param2 <- R5
	mov r6, r1
	#DEBUG_VALUE: _i.i2c_master_async_if._chan.get_read_data:clientNotifyFlag <- R6
	getr r7, 2
	setd res[r7], r0
	add r0, r7, 3
	out res[r7], r0
	outct res[r7], 2
	ldc r1, 0
	mov r0, r7
	bl __interface_wait_and_yield
	chkct res[r7], 1
	out res[r7], r6
	stw r5, sp[1]
	out res[r7], r4
	outct res[r7], 2
	ldaw r1, sp[1]
	mov r0, r7
	bl __interface_client_call
	in r0, res[r7]
	chkct res[r7], 1
	freer res[r7]
	ldd r7, r6, sp[2]               # 4-byte Folded Reload
	ldd r5, r4, sp[1]               # 4-byte Folded Reload
	retsp 6
	# RETURN_REG_HOLDER
	.cc_bottom _i.i2c_master_async_if._chan.get_read_data.function
	.set	_i.i2c_master_async_if._chan.get_read_data.nstackwords,((_i.i2c_master_async_if._client_call_y.max.nstackwords $M ($D __interface_wait_and_yield.nstackwords ? __interface_wait_and_yield.nstackwords $: _i.i2c_master_async_if._client_call_y.max.nstackwords) $M __interface_client_call.nstackwords) + 6)
	.globl	_i.i2c_master_async_if._chan.get_read_data.nstackwords
	.weak	_i.i2c_master_async_if._chan.get_read_data.nstackwords
	.set	_i.i2c_master_async_if._chan.get_read_data.maxcores,__interface_client_call.maxcores $M ($D __interface_wait_and_yield.maxcores ? __interface_wait_and_yield.maxcores $: _i.i2c_master_async_if._client_call_y.max.maxcores) $M 1
	.globl	_i.i2c_master_async_if._chan.get_read_data.maxcores
	.weak	_i.i2c_master_async_if._chan.get_read_data.maxcores
	.set	_i.i2c_master_async_if._chan.get_read_data.maxtimers,__interface_client_call.maxtimers $M ($D __interface_wait_and_yield.maxtimers ? __interface_wait_and_yield.maxtimers $: _i.i2c_master_async_if._client_call_y.max.maxtimers) $M 0
	.globl	_i.i2c_master_async_if._chan.get_read_data.maxtimers
	.weak	_i.i2c_master_async_if._chan.get_read_data.maxtimers
	.set	_i.i2c_master_async_if._chan.get_read_data.maxchanends,(1 + __interface_client_call.maxchanends) $M (1 + ($D __interface_wait_and_yield.maxchanends ? __interface_wait_and_yield.maxchanends $: _i.i2c_master_async_if._client_call_y.max.maxchanends)) $M 1
	.globl	_i.i2c_master_async_if._chan.get_read_data.maxchanends
	.weak	_i.i2c_master_async_if._chan.get_read_data.maxchanends
.Ltmp183:
	.size	_i.i2c_master_async_if._chan.get_read_data, .Ltmp183-_i.i2c_master_async_if._chan.get_read_data
	.cfi_endproc

	.weak	_i.i2c_master_async_if._chan.get_write_result
	.align	4
	.type	_i.i2c_master_async_if._chan.get_write_result,@function
	.cc_top _i.i2c_master_async_if._chan.get_write_result.function,_i.i2c_master_async_if._chan.get_write_result
_i.i2c_master_async_if._chan.get_write_result: # @_i.i2c_master_async_if._chan.get_write_result
	.cfi_startproc
	.issue_mode single
# BB#0:                                 # %allocas
	ENTSP_lu6 6
.Ltmp184:
	.cfi_def_cfa_offset 24
.Ltmp185:
	.cfi_offset 15, 0
	std r5, r4, sp[1]               # 4-byte Folded Spill
.Ltmp186:
	.cfi_offset 4, -16
.Ltmp187:
	.cfi_offset 5, -12
	stw r6, sp[4]                   # 4-byte Folded Spill
.Ltmp188:
	.cfi_offset 6, -8
	#DEBUG_VALUE: _i.i2c_master_async_if._chan.get_write_result:dest <- R0
	#DEBUG_VALUE: _i.i2c_master_async_if._chan.get_write_result:clientNotifyFlag <- R1
	#DEBUG_VALUE: _i.i2c_master_async_if._chan.get_write_result:param2 <- R2
	mov r4, r2
	#DEBUG_VALUE: _i.i2c_master_async_if._chan.get_write_result:param2 <- R4
	mov r5, r1
	#DEBUG_VALUE: _i.i2c_master_async_if._chan.get_write_result:clientNotifyFlag <- R5
	getr r6, 2
	setd res[r6], r0
	add r0, r6, 2
	out res[r6], r0
	outct res[r6], 2
	ldc r1, 0
	mov r0, r6
	bl __interface_wait_and_yield
	chkct res[r6], 1
	out res[r6], r5
	ldw r0, r4[0]
	out res[r6], r0
	outct res[r6], 2
	in r0, res[r6]
	in r0, res[r6]
	stw r0, r4[0]
	in r0, res[r6]
	chkct res[r6], 1
	freer res[r6]
	ldw r6, sp[4]                   # 4-byte Folded Reload
	ldd r5, r4, sp[1]               # 4-byte Folded Reload
	retsp 6
	# RETURN_REG_HOLDER
	.cc_bottom _i.i2c_master_async_if._chan.get_write_result.function
	.set	_i.i2c_master_async_if._chan.get_write_result.nstackwords,((_i.i2c_master_async_if._client_call_y.max.nstackwords $M ($D __interface_wait_and_yield.nstackwords ? __interface_wait_and_yield.nstackwords $: _i.i2c_master_async_if._client_call_y.max.nstackwords)) + 6)
	.globl	_i.i2c_master_async_if._chan.get_write_result.nstackwords
	.weak	_i.i2c_master_async_if._chan.get_write_result.nstackwords
	.set	_i.i2c_master_async_if._chan.get_write_result.maxcores,($D __interface_wait_and_yield.maxcores ? __interface_wait_and_yield.maxcores $: _i.i2c_master_async_if._client_call_y.max.maxcores) $M 1
	.globl	_i.i2c_master_async_if._chan.get_write_result.maxcores
	.weak	_i.i2c_master_async_if._chan.get_write_result.maxcores
	.set	_i.i2c_master_async_if._chan.get_write_result.maxtimers,($D __interface_wait_and_yield.maxtimers ? __interface_wait_and_yield.maxtimers $: _i.i2c_master_async_if._client_call_y.max.maxtimers) $M 0
	.globl	_i.i2c_master_async_if._chan.get_write_result.maxtimers
	.weak	_i.i2c_master_async_if._chan.get_write_result.maxtimers
	.set	_i.i2c_master_async_if._chan.get_write_result.maxchanends,(1 + ($D __interface_wait_and_yield.maxchanends ? __interface_wait_and_yield.maxchanends $: _i.i2c_master_async_if._client_call_y.max.maxchanends)) $M 1
	.globl	_i.i2c_master_async_if._chan.get_write_result.maxchanends
	.weak	_i.i2c_master_async_if._chan.get_write_result.maxchanends
.Ltmp189:
	.size	_i.i2c_master_async_if._chan.get_write_result, .Ltmp189-_i.i2c_master_async_if._chan.get_write_result
	.cfi_endproc

	.weak	_i.i2c_master_async_if._chan.read
	.align	4
	.type	_i.i2c_master_async_if._chan.read,@function
	.cc_top _i.i2c_master_async_if._chan.read.function,_i.i2c_master_async_if._chan.read
_i.i2c_master_async_if._chan.read:      # @_i.i2c_master_async_if._chan.read
	.cfi_startproc
	.issue_mode single
# BB#0:                                 # %allocas
	ENTSP_lu6 6
.Ltmp190:
	.cfi_def_cfa_offset 24
.Ltmp191:
	.cfi_offset 15, 0
	std r5, r4, sp[1]               # 4-byte Folded Spill
.Ltmp192:
	.cfi_offset 4, -16
.Ltmp193:
	.cfi_offset 5, -12
	std r7, r6, sp[2]               # 4-byte Folded Spill
.Ltmp194:
	.cfi_offset 6, -8
.Ltmp195:
	.cfi_offset 7, -4
	#DEBUG_VALUE: _i.i2c_master_async_if._chan.read:dest <- R0
	#DEBUG_VALUE: _i.i2c_master_async_if._chan.read:param1 <- R1
	#DEBUG_VALUE: _i.i2c_master_async_if._chan.read:param2 <- R2
	#DEBUG_VALUE: _i.i2c_master_async_if._chan.read:param3 <- R3
	mov r4, r3
	#DEBUG_VALUE: _i.i2c_master_async_if._chan.read:param3 <- R4
	mov r5, r2
	#DEBUG_VALUE: _i.i2c_master_async_if._chan.read:param2 <- R5
	mov r6, r1
	#DEBUG_VALUE: _i.i2c_master_async_if._chan.read:param1 <- R6
	getr r7, 2
	setd res[r7], r0
	add r0, r7, 1
	out res[r7], r0
	outct res[r7], 2
	ldc r1, 0
	mov r0, r7
	bl __interface_wait_and_yield
	chkct res[r7], 1
	outt res[r7], r6
	out res[r7], r5
	out res[r7], r4
	outct res[r7], 2
	in r0, res[r7]
	chkct res[r7], 1
	freer res[r7]
	ldd r7, r6, sp[2]               # 4-byte Folded Reload
	ldd r5, r4, sp[1]               # 4-byte Folded Reload
	retsp 6
	# RETURN_REG_HOLDER
	.cc_bottom _i.i2c_master_async_if._chan.read.function
	.set	_i.i2c_master_async_if._chan.read.nstackwords,((_i.i2c_master_async_if._client_call_y.max.nstackwords $M ($D __interface_wait_and_yield.nstackwords ? __interface_wait_and_yield.nstackwords $: _i.i2c_master_async_if._client_call_y.max.nstackwords)) + 6)
	.globl	_i.i2c_master_async_if._chan.read.nstackwords
	.weak	_i.i2c_master_async_if._chan.read.nstackwords
	.set	_i.i2c_master_async_if._chan.read.maxcores,($D __interface_wait_and_yield.maxcores ? __interface_wait_and_yield.maxcores $: _i.i2c_master_async_if._client_call_y.max.maxcores) $M 1
	.globl	_i.i2c_master_async_if._chan.read.maxcores
	.weak	_i.i2c_master_async_if._chan.read.maxcores
	.set	_i.i2c_master_async_if._chan.read.maxtimers,($D __interface_wait_and_yield.maxtimers ? __interface_wait_and_yield.maxtimers $: _i.i2c_master_async_if._client_call_y.max.maxtimers) $M 0
	.globl	_i.i2c_master_async_if._chan.read.maxtimers
	.weak	_i.i2c_master_async_if._chan.read.maxtimers
	.set	_i.i2c_master_async_if._chan.read.maxchanends,(1 + ($D __interface_wait_and_yield.maxchanends ? __interface_wait_and_yield.maxchanends $: _i.i2c_master_async_if._client_call_y.max.maxchanends)) $M 1
	.globl	_i.i2c_master_async_if._chan.read.maxchanends
	.weak	_i.i2c_master_async_if._chan.read.maxchanends
.Ltmp196:
	.size	_i.i2c_master_async_if._chan.read, .Ltmp196-_i.i2c_master_async_if._chan.read
	.cfi_endproc

	.weak	_i.i2c_master_async_if._chan.write
	.align	4
	.type	_i.i2c_master_async_if._chan.write,@function
	.cc_top _i.i2c_master_async_if._chan.write.function,_i.i2c_master_async_if._chan.write
_i.i2c_master_async_if._chan.write:     # @_i.i2c_master_async_if._chan.write
	.cfi_startproc
	.issue_mode single
# BB#0:                                 # %allocas
	ENTSP_lu6 8
.Ltmp197:
	.cfi_def_cfa_offset 32
.Ltmp198:
	.cfi_offset 15, 0
	std r5, r4, sp[1]               # 4-byte Folded Spill
.Ltmp199:
	.cfi_offset 4, -24
.Ltmp200:
	.cfi_offset 5, -20
	std r7, r6, sp[2]               # 4-byte Folded Spill
.Ltmp201:
	.cfi_offset 6, -16
.Ltmp202:
	.cfi_offset 7, -12
	stw r8, sp[6]                   # 4-byte Folded Spill
.Ltmp203:
	.cfi_offset 8, -8
	#DEBUG_VALUE: _i.i2c_master_async_if._chan.write:dest <- R0
	#DEBUG_VALUE: _i.i2c_master_async_if._chan.write:param1 <- R1
	#DEBUG_VALUE: _i.i2c_master_async_if._chan.write:param2 <- R2
	#DEBUG_VALUE: _i.i2c_master_async_if._chan.write:param3 <- R3
	#DEBUG_VALUE: _i.i2c_master_async_if._chan.write:param4 <- [SP+36]
	mov r4, r3
	#DEBUG_VALUE: _i.i2c_master_async_if._chan.write:param3 <- R4
	mov r5, r2
	#DEBUG_VALUE: _i.i2c_master_async_if._chan.write:param2 <- R5
	mov r6, r1
	#DEBUG_VALUE: _i.i2c_master_async_if._chan.write:param1 <- R6
	ldw r8, sp[9]
	getr r7, 2
	setd res[r7], r0
	out res[r7], r7
	outct res[r7], 2
	ldc r1, 0
	mov r0, r7
	bl __interface_wait_and_yield
	chkct res[r7], 1
	outt res[r7], r6
	stw r5, sp[1]
	out res[r7], r4
	out res[r7], r8
	outct res[r7], 2
	ldaw r1, sp[1]
	mov r0, r7
	bl __interface_client_call
	chkct res[r7], 1
	freer res[r7]
	ldw r8, sp[6]                   # 4-byte Folded Reload
	ldd r7, r6, sp[2]               # 4-byte Folded Reload
	ldd r5, r4, sp[1]               # 4-byte Folded Reload
	retsp 8
	# RETURN_REG_HOLDER
	.cc_bottom _i.i2c_master_async_if._chan.write.function
	.set	_i.i2c_master_async_if._chan.write.nstackwords,((_i.i2c_master_async_if._client_call_y.max.nstackwords $M ($D __interface_wait_and_yield.nstackwords ? __interface_wait_and_yield.nstackwords $: _i.i2c_master_async_if._client_call_y.max.nstackwords) $M __interface_client_call.nstackwords) + 8)
	.globl	_i.i2c_master_async_if._chan.write.nstackwords
	.weak	_i.i2c_master_async_if._chan.write.nstackwords
	.set	_i.i2c_master_async_if._chan.write.maxcores,__interface_client_call.maxcores $M ($D __interface_wait_and_yield.maxcores ? __interface_wait_and_yield.maxcores $: _i.i2c_master_async_if._client_call_y.max.maxcores) $M 1
	.globl	_i.i2c_master_async_if._chan.write.maxcores
	.weak	_i.i2c_master_async_if._chan.write.maxcores
	.set	_i.i2c_master_async_if._chan.write.maxtimers,__interface_client_call.maxtimers $M ($D __interface_wait_and_yield.maxtimers ? __interface_wait_and_yield.maxtimers $: _i.i2c_master_async_if._client_call_y.max.maxtimers) $M 0
	.globl	_i.i2c_master_async_if._chan.write.maxtimers
	.weak	_i.i2c_master_async_if._chan.write.maxtimers
	.set	_i.i2c_master_async_if._chan.write.maxchanends,(1 + __interface_client_call.maxchanends) $M (1 + ($D __interface_wait_and_yield.maxchanends ? __interface_wait_and_yield.maxchanends $: _i.i2c_master_async_if._client_call_y.max.maxchanends)) $M 1
	.globl	_i.i2c_master_async_if._chan.write.maxchanends
	.weak	_i.i2c_master_async_if._chan.write.maxchanends
.Ltmp204:
	.size	_i.i2c_master_async_if._chan.write, .Ltmp204-_i.i2c_master_async_if._chan.write
	.cfi_endproc

	.weak	_i.i2c_master_async_if._chan_yield.shutdown
	.align	4
	.type	_i.i2c_master_async_if._chan_yield.shutdown,@function
	.cc_top _i.i2c_master_async_if._chan_yield.shutdown.function,_i.i2c_master_async_if._chan_yield.shutdown
_i.i2c_master_async_if._chan_yield.shutdown: # @_i.i2c_master_async_if._chan_yield.shutdown
	.cfi_startproc
	.issue_mode single
# BB#0:                                 # %allocas
	ENTSP_lu6 4
.Ltmp205:
	.cfi_def_cfa_offset 16
.Ltmp206:
	.cfi_offset 15, 0
	std r5, r4, sp[1]               # 4-byte Folded Spill
.Ltmp207:
	.cfi_offset 4, -8
.Ltmp208:
	.cfi_offset 5, -4
	#DEBUG_VALUE: _i.i2c_master_async_if._chan_yield.shutdown:s <- R0
	ldw r1, r0[0]
	getr r4, 2
	setd res[r4], r1
	add r1, r4, 5
	out res[r4], r1
	outct res[r4], 2
	ldw r5, r0[1]
	mov r0, r4
	mov r1, r5
	bl __interface_wait_and_yield
	ldc r1, 0
	mov r0, r4
	mov r2, r5
	bl __interface_client_call_y
	chkct res[r4], 1
	freer res[r4]
	ldd r5, r4, sp[1]               # 4-byte Folded Reload
	retsp 4
	# RETURN_REG_HOLDER
	.cc_bottom _i.i2c_master_async_if._chan_yield.shutdown.function
	.set	_i.i2c_master_async_if._chan_yield.shutdown.nstackwords,((($D __interface_wait_and_yield.nstackwords ? __interface_wait_and_yield.nstackwords $: _i.i2c_master_async_if._client_call_y.max.nstackwords) $M _i.i2c_master_async_if._client_call_y.max.nstackwords $M ($D __interface_client_call_y.nstackwords ? __interface_client_call_y.nstackwords $: _i.i2c_master_async_if._client_call_y.max.nstackwords)) + 4)
	.globl	_i.i2c_master_async_if._chan_yield.shutdown.nstackwords
	.weak	_i.i2c_master_async_if._chan_yield.shutdown.nstackwords
	.set	_i.i2c_master_async_if._chan_yield.shutdown.maxcores,($D __interface_client_call_y.maxcores ? __interface_client_call_y.maxcores $: _i.i2c_master_async_if._client_call_y.max.maxcores) $M ($D __interface_wait_and_yield.maxcores ? __interface_wait_and_yield.maxcores $: _i.i2c_master_async_if._client_call_y.max.maxcores) $M 1
	.globl	_i.i2c_master_async_if._chan_yield.shutdown.maxcores
	.weak	_i.i2c_master_async_if._chan_yield.shutdown.maxcores
	.set	_i.i2c_master_async_if._chan_yield.shutdown.maxtimers,($D __interface_client_call_y.maxtimers ? __interface_client_call_y.maxtimers $: _i.i2c_master_async_if._client_call_y.max.maxtimers) $M ($D __interface_wait_and_yield.maxtimers ? __interface_wait_and_yield.maxtimers $: _i.i2c_master_async_if._client_call_y.max.maxtimers) $M 0
	.globl	_i.i2c_master_async_if._chan_yield.shutdown.maxtimers
	.weak	_i.i2c_master_async_if._chan_yield.shutdown.maxtimers
	.set	_i.i2c_master_async_if._chan_yield.shutdown.maxchanends,(1 + ($D __interface_client_call_y.maxchanends ? __interface_client_call_y.maxchanends $: _i.i2c_master_async_if._client_call_y.max.maxchanends)) $M (1 + ($D __interface_wait_and_yield.maxchanends ? __interface_wait_and_yield.maxchanends $: _i.i2c_master_async_if._client_call_y.max.maxchanends)) $M 1
	.globl	_i.i2c_master_async_if._chan_yield.shutdown.maxchanends
	.weak	_i.i2c_master_async_if._chan_yield.shutdown.maxchanends
.Ltmp209:
	.size	_i.i2c_master_async_if._chan_yield.shutdown, .Ltmp209-_i.i2c_master_async_if._chan_yield.shutdown
	.cfi_endproc

	.weak	_i.i2c_master_async_if._chan_yield.send_stop_bit
	.align	4
	.type	_i.i2c_master_async_if._chan_yield.send_stop_bit,@function
	.cc_top _i.i2c_master_async_if._chan_yield.send_stop_bit.function,_i.i2c_master_async_if._chan_yield.send_stop_bit
_i.i2c_master_async_if._chan_yield.send_stop_bit: # @_i.i2c_master_async_if._chan_yield.send_stop_bit
	.cfi_startproc
	.issue_mode single
# BB#0:                                 # %allocas
	ENTSP_lu6 4
.Ltmp210:
	.cfi_def_cfa_offset 16
.Ltmp211:
	.cfi_offset 15, 0
	std r5, r4, sp[1]               # 4-byte Folded Spill
.Ltmp212:
	.cfi_offset 4, -8
.Ltmp213:
	.cfi_offset 5, -4
	#DEBUG_VALUE: _i.i2c_master_async_if._chan_yield.send_stop_bit:s <- R0
	ldw r1, r0[0]
	getr r4, 2
	setd res[r4], r1
	add r1, r4, 4
	out res[r4], r1
	outct res[r4], 2
	ldw r5, r0[1]
	mov r0, r4
	mov r1, r5
	bl __interface_wait_and_yield
	ldc r1, 0
	mov r0, r4
	mov r2, r5
	bl __interface_client_call_y
	chkct res[r4], 1
	freer res[r4]
	ldd r5, r4, sp[1]               # 4-byte Folded Reload
	retsp 4
	# RETURN_REG_HOLDER
	.cc_bottom _i.i2c_master_async_if._chan_yield.send_stop_bit.function
	.set	_i.i2c_master_async_if._chan_yield.send_stop_bit.nstackwords,((($D __interface_wait_and_yield.nstackwords ? __interface_wait_and_yield.nstackwords $: _i.i2c_master_async_if._client_call_y.max.nstackwords) $M _i.i2c_master_async_if._client_call_y.max.nstackwords $M ($D __interface_client_call_y.nstackwords ? __interface_client_call_y.nstackwords $: _i.i2c_master_async_if._client_call_y.max.nstackwords)) + 4)
	.globl	_i.i2c_master_async_if._chan_yield.send_stop_bit.nstackwords
	.weak	_i.i2c_master_async_if._chan_yield.send_stop_bit.nstackwords
	.set	_i.i2c_master_async_if._chan_yield.send_stop_bit.maxcores,($D __interface_client_call_y.maxcores ? __interface_client_call_y.maxcores $: _i.i2c_master_async_if._client_call_y.max.maxcores) $M ($D __interface_wait_and_yield.maxcores ? __interface_wait_and_yield.maxcores $: _i.i2c_master_async_if._client_call_y.max.maxcores) $M 1
	.globl	_i.i2c_master_async_if._chan_yield.send_stop_bit.maxcores
	.weak	_i.i2c_master_async_if._chan_yield.send_stop_bit.maxcores
	.set	_i.i2c_master_async_if._chan_yield.send_stop_bit.maxtimers,($D __interface_client_call_y.maxtimers ? __interface_client_call_y.maxtimers $: _i.i2c_master_async_if._client_call_y.max.maxtimers) $M ($D __interface_wait_and_yield.maxtimers ? __interface_wait_and_yield.maxtimers $: _i.i2c_master_async_if._client_call_y.max.maxtimers) $M 0
	.globl	_i.i2c_master_async_if._chan_yield.send_stop_bit.maxtimers
	.weak	_i.i2c_master_async_if._chan_yield.send_stop_bit.maxtimers
	.set	_i.i2c_master_async_if._chan_yield.send_stop_bit.maxchanends,(1 + ($D __interface_client_call_y.maxchanends ? __interface_client_call_y.maxchanends $: _i.i2c_master_async_if._client_call_y.max.maxchanends)) $M (1 + ($D __interface_wait_and_yield.maxchanends ? __interface_wait_and_yield.maxchanends $: _i.i2c_master_async_if._client_call_y.max.maxchanends)) $M 1
	.globl	_i.i2c_master_async_if._chan_yield.send_stop_bit.maxchanends
	.weak	_i.i2c_master_async_if._chan_yield.send_stop_bit.maxchanends
.Ltmp214:
	.size	_i.i2c_master_async_if._chan_yield.send_stop_bit, .Ltmp214-_i.i2c_master_async_if._chan_yield.send_stop_bit
	.cfi_endproc

	.weak	_i.i2c_master_async_if._chan_yield.get_read_data
	.align	4
	.type	_i.i2c_master_async_if._chan_yield.get_read_data,@function
	.cc_top _i.i2c_master_async_if._chan_yield.get_read_data.function,_i.i2c_master_async_if._chan_yield.get_read_data
_i.i2c_master_async_if._chan_yield.get_read_data: # @_i.i2c_master_async_if._chan_yield.get_read_data
	.cfi_startproc
	.issue_mode single
# BB#0:                                 # %allocas
	ENTSP_lu6 8
.Ltmp215:
	.cfi_def_cfa_offset 32
.Ltmp216:
	.cfi_offset 15, 0
	std r5, r4, sp[1]               # 4-byte Folded Spill
.Ltmp217:
	.cfi_offset 4, -24
.Ltmp218:
	.cfi_offset 5, -20
	std r7, r6, sp[2]               # 4-byte Folded Spill
.Ltmp219:
	.cfi_offset 6, -16
.Ltmp220:
	.cfi_offset 7, -12
	stw r8, sp[6]                   # 4-byte Folded Spill
.Ltmp221:
	.cfi_offset 8, -8
	#DEBUG_VALUE: _i.i2c_master_async_if._chan_yield.get_read_data:s <- R0
	#DEBUG_VALUE: _i.i2c_master_async_if._chan_yield.get_read_data:clientNotifyFlag <- R1
	#DEBUG_VALUE: _i.i2c_master_async_if._chan_yield.get_read_data:param2 <- R2
	#DEBUG_VALUE: _i.i2c_master_async_if._chan_yield.get_read_data:param3 <- R3
	mov r5, r3
	#DEBUG_VALUE: _i.i2c_master_async_if._chan_yield.get_read_data:param3 <- R5
	mov r6, r2
	#DEBUG_VALUE: _i.i2c_master_async_if._chan_yield.get_read_data:param2 <- R6
	mov r7, r1
	#DEBUG_VALUE: _i.i2c_master_async_if._chan_yield.get_read_data:clientNotifyFlag <- R7
	ldw r1, r0[0]
	getr r4, 2
	setd res[r4], r1
	add r1, r4, 3
	out res[r4], r1
	outct res[r4], 2
	ldw r8, r0[1]
	mov r0, r4
	mov r1, r8
	bl __interface_wait_and_yield
	chkct res[r4], 1
	out res[r4], r7
	stw r6, sp[1]
	out res[r4], r5
	outct res[r4], 2
	ldaw r1, sp[1]
	mov r0, r4
	mov r2, r8
	bl __interface_client_call_y
	in r0, res[r4]
	chkct res[r4], 1
	freer res[r4]
	ldw r8, sp[6]                   # 4-byte Folded Reload
	ldd r7, r6, sp[2]               # 4-byte Folded Reload
	ldd r5, r4, sp[1]               # 4-byte Folded Reload
	retsp 8
	# RETURN_REG_HOLDER
	.cc_bottom _i.i2c_master_async_if._chan_yield.get_read_data.function
	.set	_i.i2c_master_async_if._chan_yield.get_read_data.nstackwords,((($D __interface_wait_and_yield.nstackwords ? __interface_wait_and_yield.nstackwords $: _i.i2c_master_async_if._client_call_y.max.nstackwords) $M _i.i2c_master_async_if._client_call_y.max.nstackwords $M ($D __interface_client_call_y.nstackwords ? __interface_client_call_y.nstackwords $: _i.i2c_master_async_if._client_call_y.max.nstackwords)) + 8)
	.globl	_i.i2c_master_async_if._chan_yield.get_read_data.nstackwords
	.weak	_i.i2c_master_async_if._chan_yield.get_read_data.nstackwords
	.set	_i.i2c_master_async_if._chan_yield.get_read_data.maxcores,($D __interface_client_call_y.maxcores ? __interface_client_call_y.maxcores $: _i.i2c_master_async_if._client_call_y.max.maxcores) $M ($D __interface_wait_and_yield.maxcores ? __interface_wait_and_yield.maxcores $: _i.i2c_master_async_if._client_call_y.max.maxcores) $M 1
	.globl	_i.i2c_master_async_if._chan_yield.get_read_data.maxcores
	.weak	_i.i2c_master_async_if._chan_yield.get_read_data.maxcores
	.set	_i.i2c_master_async_if._chan_yield.get_read_data.maxtimers,($D __interface_client_call_y.maxtimers ? __interface_client_call_y.maxtimers $: _i.i2c_master_async_if._client_call_y.max.maxtimers) $M ($D __interface_wait_and_yield.maxtimers ? __interface_wait_and_yield.maxtimers $: _i.i2c_master_async_if._client_call_y.max.maxtimers) $M 0
	.globl	_i.i2c_master_async_if._chan_yield.get_read_data.maxtimers
	.weak	_i.i2c_master_async_if._chan_yield.get_read_data.maxtimers
	.set	_i.i2c_master_async_if._chan_yield.get_read_data.maxchanends,(1 + ($D __interface_client_call_y.maxchanends ? __interface_client_call_y.maxchanends $: _i.i2c_master_async_if._client_call_y.max.maxchanends)) $M (1 + ($D __interface_wait_and_yield.maxchanends ? __interface_wait_and_yield.maxchanends $: _i.i2c_master_async_if._client_call_y.max.maxchanends)) $M 1
	.globl	_i.i2c_master_async_if._chan_yield.get_read_data.maxchanends
	.weak	_i.i2c_master_async_if._chan_yield.get_read_data.maxchanends
.Ltmp222:
	.size	_i.i2c_master_async_if._chan_yield.get_read_data, .Ltmp222-_i.i2c_master_async_if._chan_yield.get_read_data
	.cfi_endproc

	.weak	_i.i2c_master_async_if._chan_yield.get_write_result
	.align	4
	.type	_i.i2c_master_async_if._chan_yield.get_write_result,@function
	.cc_top _i.i2c_master_async_if._chan_yield.get_write_result.function,_i.i2c_master_async_if._chan_yield.get_write_result
_i.i2c_master_async_if._chan_yield.get_write_result: # @_i.i2c_master_async_if._chan_yield.get_write_result
	.cfi_startproc
	.issue_mode single
# BB#0:                                 # %allocas
	ENTSP_lu6 6
.Ltmp223:
	.cfi_def_cfa_offset 24
.Ltmp224:
	.cfi_offset 15, 0
	std r5, r4, sp[1]               # 4-byte Folded Spill
.Ltmp225:
	.cfi_offset 4, -16
.Ltmp226:
	.cfi_offset 5, -12
	std r7, r6, sp[2]               # 4-byte Folded Spill
.Ltmp227:
	.cfi_offset 6, -8
.Ltmp228:
	.cfi_offset 7, -4
	#DEBUG_VALUE: _i.i2c_master_async_if._chan_yield.get_write_result:s <- R0
	#DEBUG_VALUE: _i.i2c_master_async_if._chan_yield.get_write_result:clientNotifyFlag <- R1
	#DEBUG_VALUE: _i.i2c_master_async_if._chan_yield.get_write_result:param2 <- R2
	mov r4, r2
	#DEBUG_VALUE: _i.i2c_master_async_if._chan_yield.get_write_result:param2 <- R4
	mov r6, r1
	#DEBUG_VALUE: _i.i2c_master_async_if._chan_yield.get_write_result:clientNotifyFlag <- R6
	ldw r1, r0[0]
	getr r5, 2
	setd res[r5], r1
	add r1, r5, 2
	out res[r5], r1
	outct res[r5], 2
	ldw r7, r0[1]
	mov r0, r5
	mov r1, r7
	bl __interface_wait_and_yield
	chkct res[r5], 1
	out res[r5], r6
	ldw r0, r4[0]
	out res[r5], r0
	outct res[r5], 2
	ldc r1, 0
	mov r0, r5
	mov r2, r7
	bl __interface_client_call_y
	in r0, res[r5]
	stw r0, r4[0]
	in r0, res[r5]
	chkct res[r5], 1
	freer res[r5]
	ldd r7, r6, sp[2]               # 4-byte Folded Reload
	ldd r5, r4, sp[1]               # 4-byte Folded Reload
	retsp 6
	# RETURN_REG_HOLDER
	.cc_bottom _i.i2c_master_async_if._chan_yield.get_write_result.function
	.set	_i.i2c_master_async_if._chan_yield.get_write_result.nstackwords,((($D __interface_wait_and_yield.nstackwords ? __interface_wait_and_yield.nstackwords $: _i.i2c_master_async_if._client_call_y.max.nstackwords) $M _i.i2c_master_async_if._client_call_y.max.nstackwords $M ($D __interface_client_call_y.nstackwords ? __interface_client_call_y.nstackwords $: _i.i2c_master_async_if._client_call_y.max.nstackwords)) + 6)
	.globl	_i.i2c_master_async_if._chan_yield.get_write_result.nstackwords
	.weak	_i.i2c_master_async_if._chan_yield.get_write_result.nstackwords
	.set	_i.i2c_master_async_if._chan_yield.get_write_result.maxcores,($D __interface_client_call_y.maxcores ? __interface_client_call_y.maxcores $: _i.i2c_master_async_if._client_call_y.max.maxcores) $M ($D __interface_wait_and_yield.maxcores ? __interface_wait_and_yield.maxcores $: _i.i2c_master_async_if._client_call_y.max.maxcores) $M 1
	.globl	_i.i2c_master_async_if._chan_yield.get_write_result.maxcores
	.weak	_i.i2c_master_async_if._chan_yield.get_write_result.maxcores
	.set	_i.i2c_master_async_if._chan_yield.get_write_result.maxtimers,($D __interface_client_call_y.maxtimers ? __interface_client_call_y.maxtimers $: _i.i2c_master_async_if._client_call_y.max.maxtimers) $M ($D __interface_wait_and_yield.maxtimers ? __interface_wait_and_yield.maxtimers $: _i.i2c_master_async_if._client_call_y.max.maxtimers) $M 0
	.globl	_i.i2c_master_async_if._chan_yield.get_write_result.maxtimers
	.weak	_i.i2c_master_async_if._chan_yield.get_write_result.maxtimers
	.set	_i.i2c_master_async_if._chan_yield.get_write_result.maxchanends,(1 + ($D __interface_client_call_y.maxchanends ? __interface_client_call_y.maxchanends $: _i.i2c_master_async_if._client_call_y.max.maxchanends)) $M (1 + ($D __interface_wait_and_yield.maxchanends ? __interface_wait_and_yield.maxchanends $: _i.i2c_master_async_if._client_call_y.max.maxchanends)) $M 1
	.globl	_i.i2c_master_async_if._chan_yield.get_write_result.maxchanends
	.weak	_i.i2c_master_async_if._chan_yield.get_write_result.maxchanends
.Ltmp229:
	.size	_i.i2c_master_async_if._chan_yield.get_write_result, .Ltmp229-_i.i2c_master_async_if._chan_yield.get_write_result
	.cfi_endproc

	.weak	_i.i2c_master_async_if._chan_yield.read
	.align	4
	.type	_i.i2c_master_async_if._chan_yield.read,@function
	.cc_top _i.i2c_master_async_if._chan_yield.read.function,_i.i2c_master_async_if._chan_yield.read
_i.i2c_master_async_if._chan_yield.read: # @_i.i2c_master_async_if._chan_yield.read
	.cfi_startproc
	.issue_mode single
# BB#0:                                 # %allocas
	ENTSP_lu6 8
.Ltmp230:
	.cfi_def_cfa_offset 32
.Ltmp231:
	.cfi_offset 15, 0
	std r5, r4, sp[1]               # 4-byte Folded Spill
.Ltmp232:
	.cfi_offset 4, -24
.Ltmp233:
	.cfi_offset 5, -20
	std r7, r6, sp[2]               # 4-byte Folded Spill
.Ltmp234:
	.cfi_offset 6, -16
.Ltmp235:
	.cfi_offset 7, -12
	stw r8, sp[6]                   # 4-byte Folded Spill
.Ltmp236:
	.cfi_offset 8, -8
	#DEBUG_VALUE: _i.i2c_master_async_if._chan_yield.read:s <- R0
	#DEBUG_VALUE: _i.i2c_master_async_if._chan_yield.read:param1 <- R1
	#DEBUG_VALUE: _i.i2c_master_async_if._chan_yield.read:param2 <- R2
	#DEBUG_VALUE: _i.i2c_master_async_if._chan_yield.read:param3 <- R3
	mov r4, r3
	#DEBUG_VALUE: _i.i2c_master_async_if._chan_yield.read:param3 <- R4
	mov r5, r2
	#DEBUG_VALUE: _i.i2c_master_async_if._chan_yield.read:param2 <- R5
	mov r6, r1
	#DEBUG_VALUE: _i.i2c_master_async_if._chan_yield.read:param1 <- R6
	ldw r1, r0[0]
	getr r7, 2
	setd res[r7], r1
	add r1, r7, 1
	out res[r7], r1
	outct res[r7], 2
	ldw r8, r0[1]
	mov r0, r7
	mov r1, r8
	bl __interface_wait_and_yield
	chkct res[r7], 1
	outt res[r7], r6
	out res[r7], r5
	out res[r7], r4
	outct res[r7], 2
	ldc r1, 0
	mov r0, r7
	mov r2, r8
	bl __interface_client_call_y
	chkct res[r7], 1
	freer res[r7]
	ldw r8, sp[6]                   # 4-byte Folded Reload
	ldd r7, r6, sp[2]               # 4-byte Folded Reload
	ldd r5, r4, sp[1]               # 4-byte Folded Reload
	retsp 8
	# RETURN_REG_HOLDER
	.cc_bottom _i.i2c_master_async_if._chan_yield.read.function
	.set	_i.i2c_master_async_if._chan_yield.read.nstackwords,((($D __interface_wait_and_yield.nstackwords ? __interface_wait_and_yield.nstackwords $: _i.i2c_master_async_if._client_call_y.max.nstackwords) $M _i.i2c_master_async_if._client_call_y.max.nstackwords $M ($D __interface_client_call_y.nstackwords ? __interface_client_call_y.nstackwords $: _i.i2c_master_async_if._client_call_y.max.nstackwords)) + 8)
	.globl	_i.i2c_master_async_if._chan_yield.read.nstackwords
	.weak	_i.i2c_master_async_if._chan_yield.read.nstackwords
	.set	_i.i2c_master_async_if._chan_yield.read.maxcores,($D __interface_client_call_y.maxcores ? __interface_client_call_y.maxcores $: _i.i2c_master_async_if._client_call_y.max.maxcores) $M ($D __interface_wait_and_yield.maxcores ? __interface_wait_and_yield.maxcores $: _i.i2c_master_async_if._client_call_y.max.maxcores) $M 1
	.globl	_i.i2c_master_async_if._chan_yield.read.maxcores
	.weak	_i.i2c_master_async_if._chan_yield.read.maxcores
	.set	_i.i2c_master_async_if._chan_yield.read.maxtimers,($D __interface_client_call_y.maxtimers ? __interface_client_call_y.maxtimers $: _i.i2c_master_async_if._client_call_y.max.maxtimers) $M ($D __interface_wait_and_yield.maxtimers ? __interface_wait_and_yield.maxtimers $: _i.i2c_master_async_if._client_call_y.max.maxtimers) $M 0
	.globl	_i.i2c_master_async_if._chan_yield.read.maxtimers
	.weak	_i.i2c_master_async_if._chan_yield.read.maxtimers
	.set	_i.i2c_master_async_if._chan_yield.read.maxchanends,(1 + ($D __interface_client_call_y.maxchanends ? __interface_client_call_y.maxchanends $: _i.i2c_master_async_if._client_call_y.max.maxchanends)) $M (1 + ($D __interface_wait_and_yield.maxchanends ? __interface_wait_and_yield.maxchanends $: _i.i2c_master_async_if._client_call_y.max.maxchanends)) $M 1
	.globl	_i.i2c_master_async_if._chan_yield.read.maxchanends
	.weak	_i.i2c_master_async_if._chan_yield.read.maxchanends
.Ltmp237:
	.size	_i.i2c_master_async_if._chan_yield.read, .Ltmp237-_i.i2c_master_async_if._chan_yield.read
	.cfi_endproc

	.weak	_i.i2c_master_async_if._chan_yield.write
	.align	4
	.type	_i.i2c_master_async_if._chan_yield.write,@function
	.cc_top _i.i2c_master_async_if._chan_yield.write.function,_i.i2c_master_async_if._chan_yield.write
_i.i2c_master_async_if._chan_yield.write: # @_i.i2c_master_async_if._chan_yield.write
	.cfi_startproc
	.issue_mode single
# BB#0:                                 # %allocas
	ENTSP_lu6 8
.Ltmp238:
	.cfi_def_cfa_offset 32
.Ltmp239:
	.cfi_offset 15, 0
	std r5, r4, sp[1]               # 4-byte Folded Spill
.Ltmp240:
	.cfi_offset 4, -24
.Ltmp241:
	.cfi_offset 5, -20
	std r7, r6, sp[2]               # 4-byte Folded Spill
.Ltmp242:
	.cfi_offset 6, -16
.Ltmp243:
	.cfi_offset 7, -12
	std r9, r8, sp[3]               # 4-byte Folded Spill
.Ltmp244:
	.cfi_offset 8, -8
.Ltmp245:
	.cfi_offset 9, -4
	#DEBUG_VALUE: _i.i2c_master_async_if._chan_yield.write:s <- R0
	#DEBUG_VALUE: _i.i2c_master_async_if._chan_yield.write:param1 <- R1
	#DEBUG_VALUE: _i.i2c_master_async_if._chan_yield.write:param2 <- R2
	#DEBUG_VALUE: _i.i2c_master_async_if._chan_yield.write:param3 <- R3
	#DEBUG_VALUE: _i.i2c_master_async_if._chan_yield.write:param4 <- [SP+36]
	mov r4, r3
	#DEBUG_VALUE: _i.i2c_master_async_if._chan_yield.write:param3 <- R4
	mov r5, r2
	#DEBUG_VALUE: _i.i2c_master_async_if._chan_yield.write:param2 <- R5
	mov r6, r1
	#DEBUG_VALUE: _i.i2c_master_async_if._chan_yield.write:param1 <- R6
	ldw r9, sp[9]
	ldw r1, r0[0]
	getr r7, 2
	setd res[r7], r1
	out res[r7], r7
	outct res[r7], 2
	ldw r8, r0[1]
	mov r0, r7
	mov r1, r8
	bl __interface_wait_and_yield
	chkct res[r7], 1
	outt res[r7], r6
	stw r5, sp[1]
	out res[r7], r4
	out res[r7], r9
	outct res[r7], 2
	ldaw r1, sp[1]
	mov r0, r7
	mov r2, r8
	bl __interface_client_call_y
	chkct res[r7], 1
	freer res[r7]
	ldd r9, r8, sp[3]               # 4-byte Folded Reload
	ldd r7, r6, sp[2]               # 4-byte Folded Reload
	ldd r5, r4, sp[1]               # 4-byte Folded Reload
	retsp 8
	# RETURN_REG_HOLDER
	.cc_bottom _i.i2c_master_async_if._chan_yield.write.function
	.set	_i.i2c_master_async_if._chan_yield.write.nstackwords,((($D __interface_wait_and_yield.nstackwords ? __interface_wait_and_yield.nstackwords $: _i.i2c_master_async_if._client_call_y.max.nstackwords) $M _i.i2c_master_async_if._client_call_y.max.nstackwords $M ($D __interface_client_call_y.nstackwords ? __interface_client_call_y.nstackwords $: _i.i2c_master_async_if._client_call_y.max.nstackwords)) + 8)
	.globl	_i.i2c_master_async_if._chan_yield.write.nstackwords
	.weak	_i.i2c_master_async_if._chan_yield.write.nstackwords
	.set	_i.i2c_master_async_if._chan_yield.write.maxcores,($D __interface_client_call_y.maxcores ? __interface_client_call_y.maxcores $: _i.i2c_master_async_if._client_call_y.max.maxcores) $M ($D __interface_wait_and_yield.maxcores ? __interface_wait_and_yield.maxcores $: _i.i2c_master_async_if._client_call_y.max.maxcores) $M 1
	.globl	_i.i2c_master_async_if._chan_yield.write.maxcores
	.weak	_i.i2c_master_async_if._chan_yield.write.maxcores
	.set	_i.i2c_master_async_if._chan_yield.write.maxtimers,($D __interface_client_call_y.maxtimers ? __interface_client_call_y.maxtimers $: _i.i2c_master_async_if._client_call_y.max.maxtimers) $M ($D __interface_wait_and_yield.maxtimers ? __interface_wait_and_yield.maxtimers $: _i.i2c_master_async_if._client_call_y.max.maxtimers) $M 0
	.globl	_i.i2c_master_async_if._chan_yield.write.maxtimers
	.weak	_i.i2c_master_async_if._chan_yield.write.maxtimers
	.set	_i.i2c_master_async_if._chan_yield.write.maxchanends,(1 + ($D __interface_client_call_y.maxchanends ? __interface_client_call_y.maxchanends $: _i.i2c_master_async_if._client_call_y.max.maxchanends)) $M (1 + ($D __interface_wait_and_yield.maxchanends ? __interface_wait_and_yield.maxchanends $: _i.i2c_master_async_if._client_call_y.max.maxchanends)) $M 1
	.globl	_i.i2c_master_async_if._chan_yield.write.maxchanends
	.weak	_i.i2c_master_async_if._chan_yield.write.maxchanends
.Ltmp246:
	.size	_i.i2c_master_async_if._chan_yield.write, .Ltmp246-_i.i2c_master_async_if._chan_yield.write
	.cfi_endproc

	.weak	_i.i2c_slave_callback_if._chan.stop_bit
	.align	4
	.type	_i.i2c_slave_callback_if._chan.stop_bit,@function
	.cc_top _i.i2c_slave_callback_if._chan.stop_bit.function,_i.i2c_slave_callback_if._chan.stop_bit
_i.i2c_slave_callback_if._chan.stop_bit: # @_i.i2c_slave_callback_if._chan.stop_bit
	.cfi_startproc
	.issue_mode single
# BB#0:                                 # %allocas
	ENTSP_lu6 4
.Ltmp247:
	.cfi_def_cfa_offset 16
.Ltmp248:
	.cfi_offset 15, 0
	stw r4, sp[2]                   # 4-byte Folded Spill
.Ltmp249:
	.cfi_offset 4, -8
	#DEBUG_VALUE: _i.i2c_slave_callback_if._chan.stop_bit:dest <- R0
	getr r4, 2
	setd res[r4], r0
	add r0, r4, 8
	out res[r4], r0
	outct res[r4], 2
	ldc r1, 0
	mov r0, r4
	bl __interface_wait_and_yield
	in r0, res[r4]
	chkct res[r4], 1
	freer res[r4]
	ldw r4, sp[2]                   # 4-byte Folded Reload
	retsp 4
	# RETURN_REG_HOLDER
	.cc_bottom _i.i2c_slave_callback_if._chan.stop_bit.function
	.set	_i.i2c_slave_callback_if._chan.stop_bit.nstackwords,((_i.i2c_slave_callback_if._client_call_y.max.nstackwords $M ($D __interface_wait_and_yield.nstackwords ? __interface_wait_and_yield.nstackwords $: _i.i2c_slave_callback_if._client_call_y.max.nstackwords)) + 4)
	.globl	_i.i2c_slave_callback_if._chan.stop_bit.nstackwords
	.weak	_i.i2c_slave_callback_if._chan.stop_bit.nstackwords
	.set	_i.i2c_slave_callback_if._chan.stop_bit.maxcores,($D __interface_wait_and_yield.maxcores ? __interface_wait_and_yield.maxcores $: _i.i2c_slave_callback_if._client_call_y.max.maxcores) $M 1
	.globl	_i.i2c_slave_callback_if._chan.stop_bit.maxcores
	.weak	_i.i2c_slave_callback_if._chan.stop_bit.maxcores
	.set	_i.i2c_slave_callback_if._chan.stop_bit.maxtimers,($D __interface_wait_and_yield.maxtimers ? __interface_wait_and_yield.maxtimers $: _i.i2c_slave_callback_if._client_call_y.max.maxtimers) $M 0
	.globl	_i.i2c_slave_callback_if._chan.stop_bit.maxtimers
	.weak	_i.i2c_slave_callback_if._chan.stop_bit.maxtimers
	.set	_i.i2c_slave_callback_if._chan.stop_bit.maxchanends,(1 + ($D __interface_wait_and_yield.maxchanends ? __interface_wait_and_yield.maxchanends $: _i.i2c_slave_callback_if._client_call_y.max.maxchanends)) $M 1
	.globl	_i.i2c_slave_callback_if._chan.stop_bit.maxchanends
	.weak	_i.i2c_slave_callback_if._chan.stop_bit.maxchanends
.Ltmp250:
	.size	_i.i2c_slave_callback_if._chan.stop_bit, .Ltmp250-_i.i2c_slave_callback_if._chan.stop_bit
	.cfi_endproc

	.weak	_i.i2c_slave_callback_if._chan.master_sent_data
	.align	4
	.type	_i.i2c_slave_callback_if._chan.master_sent_data,@function
	.cc_top _i.i2c_slave_callback_if._chan.master_sent_data.function,_i.i2c_slave_callback_if._chan.master_sent_data
_i.i2c_slave_callback_if._chan.master_sent_data: # @_i.i2c_slave_callback_if._chan.master_sent_data
	.cfi_startproc
	.issue_mode single
# BB#0:                                 # %allocas
	ENTSP_lu6 4
.Ltmp251:
	.cfi_def_cfa_offset 16
.Ltmp252:
	.cfi_offset 15, 0
	std r5, r4, sp[1]               # 4-byte Folded Spill
.Ltmp253:
	.cfi_offset 4, -8
.Ltmp254:
	.cfi_offset 5, -4
	#DEBUG_VALUE: _i.i2c_slave_callback_if._chan.master_sent_data:dest <- R0
	#DEBUG_VALUE: _i.i2c_slave_callback_if._chan.master_sent_data:param1 <- R1
	mov r4, r1
	#DEBUG_VALUE: _i.i2c_slave_callback_if._chan.master_sent_data:param1 <- R4
	getr r5, 2
	setd res[r5], r0
	add r0, r5, 7
	out res[r5], r0
	outct res[r5], 2
	ldc r1, 0
	mov r0, r5
	bl __interface_wait_and_yield
	chkct res[r5], 1
	outt res[r5], r4
	outct res[r5], 2
	in r0, res[r5]
	in r0, res[r5]
	chkct res[r5], 1
	freer res[r5]
	ldd r5, r4, sp[1]               # 4-byte Folded Reload
	retsp 4
	# RETURN_REG_HOLDER
	.cc_bottom _i.i2c_slave_callback_if._chan.master_sent_data.function
	.set	_i.i2c_slave_callback_if._chan.master_sent_data.nstackwords,((_i.i2c_slave_callback_if._client_call_y.max.nstackwords $M ($D __interface_wait_and_yield.nstackwords ? __interface_wait_and_yield.nstackwords $: _i.i2c_slave_callback_if._client_call_y.max.nstackwords)) + 4)
	.globl	_i.i2c_slave_callback_if._chan.master_sent_data.nstackwords
	.weak	_i.i2c_slave_callback_if._chan.master_sent_data.nstackwords
	.set	_i.i2c_slave_callback_if._chan.master_sent_data.maxcores,($D __interface_wait_and_yield.maxcores ? __interface_wait_and_yield.maxcores $: _i.i2c_slave_callback_if._client_call_y.max.maxcores) $M 1
	.globl	_i.i2c_slave_callback_if._chan.master_sent_data.maxcores
	.weak	_i.i2c_slave_callback_if._chan.master_sent_data.maxcores
	.set	_i.i2c_slave_callback_if._chan.master_sent_data.maxtimers,($D __interface_wait_and_yield.maxtimers ? __interface_wait_and_yield.maxtimers $: _i.i2c_slave_callback_if._client_call_y.max.maxtimers) $M 0
	.globl	_i.i2c_slave_callback_if._chan.master_sent_data.maxtimers
	.weak	_i.i2c_slave_callback_if._chan.master_sent_data.maxtimers
	.set	_i.i2c_slave_callback_if._chan.master_sent_data.maxchanends,(1 + ($D __interface_wait_and_yield.maxchanends ? __interface_wait_and_yield.maxchanends $: _i.i2c_slave_callback_if._client_call_y.max.maxchanends)) $M 1
	.globl	_i.i2c_slave_callback_if._chan.master_sent_data.maxchanends
	.weak	_i.i2c_slave_callback_if._chan.master_sent_data.maxchanends
.Ltmp255:
	.size	_i.i2c_slave_callback_if._chan.master_sent_data, .Ltmp255-_i.i2c_slave_callback_if._chan.master_sent_data
	.cfi_endproc

	.weak	_i.i2c_slave_callback_if._chan.start_master_write
	.align	4
	.type	_i.i2c_slave_callback_if._chan.start_master_write,@function
	.cc_top _i.i2c_slave_callback_if._chan.start_master_write.function,_i.i2c_slave_callback_if._chan.start_master_write
_i.i2c_slave_callback_if._chan.start_master_write: # @_i.i2c_slave_callback_if._chan.start_master_write
	.cfi_startproc
	.issue_mode single
# BB#0:                                 # %allocas
	ENTSP_lu6 4
.Ltmp256:
	.cfi_def_cfa_offset 16
.Ltmp257:
	.cfi_offset 15, 0
	stw r4, sp[2]                   # 4-byte Folded Spill
.Ltmp258:
	.cfi_offset 4, -8
	#DEBUG_VALUE: _i.i2c_slave_callback_if._chan.start_master_write:dest <- R0
	getr r4, 2
	setd res[r4], r0
	add r0, r4, 6
	out res[r4], r0
	outct res[r4], 2
	ldc r1, 0
	mov r0, r4
	bl __interface_wait_and_yield
	in r0, res[r4]
	chkct res[r4], 1
	freer res[r4]
	ldw r4, sp[2]                   # 4-byte Folded Reload
	retsp 4
	# RETURN_REG_HOLDER
	.cc_bottom _i.i2c_slave_callback_if._chan.start_master_write.function
	.set	_i.i2c_slave_callback_if._chan.start_master_write.nstackwords,((_i.i2c_slave_callback_if._client_call_y.max.nstackwords $M ($D __interface_wait_and_yield.nstackwords ? __interface_wait_and_yield.nstackwords $: _i.i2c_slave_callback_if._client_call_y.max.nstackwords)) + 4)
	.globl	_i.i2c_slave_callback_if._chan.start_master_write.nstackwords
	.weak	_i.i2c_slave_callback_if._chan.start_master_write.nstackwords
	.set	_i.i2c_slave_callback_if._chan.start_master_write.maxcores,($D __interface_wait_and_yield.maxcores ? __interface_wait_and_yield.maxcores $: _i.i2c_slave_callback_if._client_call_y.max.maxcores) $M 1
	.globl	_i.i2c_slave_callback_if._chan.start_master_write.maxcores
	.weak	_i.i2c_slave_callback_if._chan.start_master_write.maxcores
	.set	_i.i2c_slave_callback_if._chan.start_master_write.maxtimers,($D __interface_wait_and_yield.maxtimers ? __interface_wait_and_yield.maxtimers $: _i.i2c_slave_callback_if._client_call_y.max.maxtimers) $M 0
	.globl	_i.i2c_slave_callback_if._chan.start_master_write.maxtimers
	.weak	_i.i2c_slave_callback_if._chan.start_master_write.maxtimers
	.set	_i.i2c_slave_callback_if._chan.start_master_write.maxchanends,(1 + ($D __interface_wait_and_yield.maxchanends ? __interface_wait_and_yield.maxchanends $: _i.i2c_slave_callback_if._client_call_y.max.maxchanends)) $M 1
	.globl	_i.i2c_slave_callback_if._chan.start_master_write.maxchanends
	.weak	_i.i2c_slave_callback_if._chan.start_master_write.maxchanends
.Ltmp259:
	.size	_i.i2c_slave_callback_if._chan.start_master_write, .Ltmp259-_i.i2c_slave_callback_if._chan.start_master_write
	.cfi_endproc

	.weak	_i.i2c_slave_callback_if._chan.master_requires_data
	.align	4
	.type	_i.i2c_slave_callback_if._chan.master_requires_data,@function
	.cc_top _i.i2c_slave_callback_if._chan.master_requires_data.function,_i.i2c_slave_callback_if._chan.master_requires_data
_i.i2c_slave_callback_if._chan.master_requires_data: # @_i.i2c_slave_callback_if._chan.master_requires_data
	.cfi_startproc
	.issue_mode single
# BB#0:                                 # %allocas
	ENTSP_lu6 4
.Ltmp260:
	.cfi_def_cfa_offset 16
.Ltmp261:
	.cfi_offset 15, 0
	stw r4, sp[2]                   # 4-byte Folded Spill
.Ltmp262:
	.cfi_offset 4, -8
	#DEBUG_VALUE: _i.i2c_slave_callback_if._chan.master_requires_data:dest <- R0
	getr r4, 2
	setd res[r4], r0
	add r0, r4, 5
	out res[r4], r0
	outct res[r4], 2
	ldc r1, 0
	mov r0, r4
	bl __interface_wait_and_yield
	in r0, res[r4]
	int r0, res[r4]
	chkct res[r4], 1
	freer res[r4]
	ldw r4, sp[2]                   # 4-byte Folded Reload
	retsp 4
	# RETURN_REG_HOLDER
	.cc_bottom _i.i2c_slave_callback_if._chan.master_requires_data.function
	.set	_i.i2c_slave_callback_if._chan.master_requires_data.nstackwords,((_i.i2c_slave_callback_if._client_call_y.max.nstackwords $M ($D __interface_wait_and_yield.nstackwords ? __interface_wait_and_yield.nstackwords $: _i.i2c_slave_callback_if._client_call_y.max.nstackwords)) + 4)
	.globl	_i.i2c_slave_callback_if._chan.master_requires_data.nstackwords
	.weak	_i.i2c_slave_callback_if._chan.master_requires_data.nstackwords
	.set	_i.i2c_slave_callback_if._chan.master_requires_data.maxcores,($D __interface_wait_and_yield.maxcores ? __interface_wait_and_yield.maxcores $: _i.i2c_slave_callback_if._client_call_y.max.maxcores) $M 1
	.globl	_i.i2c_slave_callback_if._chan.master_requires_data.maxcores
	.weak	_i.i2c_slave_callback_if._chan.master_requires_data.maxcores
	.set	_i.i2c_slave_callback_if._chan.master_requires_data.maxtimers,($D __interface_wait_and_yield.maxtimers ? __interface_wait_and_yield.maxtimers $: _i.i2c_slave_callback_if._client_call_y.max.maxtimers) $M 0
	.globl	_i.i2c_slave_callback_if._chan.master_requires_data.maxtimers
	.weak	_i.i2c_slave_callback_if._chan.master_requires_data.maxtimers
	.set	_i.i2c_slave_callback_if._chan.master_requires_data.maxchanends,(1 + ($D __interface_wait_and_yield.maxchanends ? __interface_wait_and_yield.maxchanends $: _i.i2c_slave_callback_if._client_call_y.max.maxchanends)) $M 1
	.globl	_i.i2c_slave_callback_if._chan.master_requires_data.maxchanends
	.weak	_i.i2c_slave_callback_if._chan.master_requires_data.maxchanends
.Ltmp263:
	.size	_i.i2c_slave_callback_if._chan.master_requires_data, .Ltmp263-_i.i2c_slave_callback_if._chan.master_requires_data
	.cfi_endproc

	.weak	_i.i2c_slave_callback_if._chan.start_master_read
	.align	4
	.type	_i.i2c_slave_callback_if._chan.start_master_read,@function
	.cc_top _i.i2c_slave_callback_if._chan.start_master_read.function,_i.i2c_slave_callback_if._chan.start_master_read
_i.i2c_slave_callback_if._chan.start_master_read: # @_i.i2c_slave_callback_if._chan.start_master_read
	.cfi_startproc
	.issue_mode single
# BB#0:                                 # %allocas
	ENTSP_lu6 4
.Ltmp264:
	.cfi_def_cfa_offset 16
.Ltmp265:
	.cfi_offset 15, 0
	stw r4, sp[2]                   # 4-byte Folded Spill
.Ltmp266:
	.cfi_offset 4, -8
	#DEBUG_VALUE: _i.i2c_slave_callback_if._chan.start_master_read:dest <- R0
	getr r4, 2
	setd res[r4], r0
	add r0, r4, 4
	out res[r4], r0
	outct res[r4], 2
	ldc r1, 0
	mov r0, r4
	bl __interface_wait_and_yield
	in r0, res[r4]
	chkct res[r4], 1
	freer res[r4]
	ldw r4, sp[2]                   # 4-byte Folded Reload
	retsp 4
	# RETURN_REG_HOLDER
	.cc_bottom _i.i2c_slave_callback_if._chan.start_master_read.function
	.set	_i.i2c_slave_callback_if._chan.start_master_read.nstackwords,((_i.i2c_slave_callback_if._client_call_y.max.nstackwords $M ($D __interface_wait_and_yield.nstackwords ? __interface_wait_and_yield.nstackwords $: _i.i2c_slave_callback_if._client_call_y.max.nstackwords)) + 4)
	.globl	_i.i2c_slave_callback_if._chan.start_master_read.nstackwords
	.weak	_i.i2c_slave_callback_if._chan.start_master_read.nstackwords
	.set	_i.i2c_slave_callback_if._chan.start_master_read.maxcores,($D __interface_wait_and_yield.maxcores ? __interface_wait_and_yield.maxcores $: _i.i2c_slave_callback_if._client_call_y.max.maxcores) $M 1
	.globl	_i.i2c_slave_callback_if._chan.start_master_read.maxcores
	.weak	_i.i2c_slave_callback_if._chan.start_master_read.maxcores
	.set	_i.i2c_slave_callback_if._chan.start_master_read.maxtimers,($D __interface_wait_and_yield.maxtimers ? __interface_wait_and_yield.maxtimers $: _i.i2c_slave_callback_if._client_call_y.max.maxtimers) $M 0
	.globl	_i.i2c_slave_callback_if._chan.start_master_read.maxtimers
	.weak	_i.i2c_slave_callback_if._chan.start_master_read.maxtimers
	.set	_i.i2c_slave_callback_if._chan.start_master_read.maxchanends,(1 + ($D __interface_wait_and_yield.maxchanends ? __interface_wait_and_yield.maxchanends $: _i.i2c_slave_callback_if._client_call_y.max.maxchanends)) $M 1
	.globl	_i.i2c_slave_callback_if._chan.start_master_read.maxchanends
	.weak	_i.i2c_slave_callback_if._chan.start_master_read.maxchanends
.Ltmp267:
	.size	_i.i2c_slave_callback_if._chan.start_master_read, .Ltmp267-_i.i2c_slave_callback_if._chan.start_master_read
	.cfi_endproc

	.weak	_i.i2c_slave_callback_if._chan.ack_write_request
	.align	4
	.type	_i.i2c_slave_callback_if._chan.ack_write_request,@function
	.cc_top _i.i2c_slave_callback_if._chan.ack_write_request.function,_i.i2c_slave_callback_if._chan.ack_write_request
_i.i2c_slave_callback_if._chan.ack_write_request: # @_i.i2c_slave_callback_if._chan.ack_write_request
	.cfi_startproc
	.issue_mode single
# BB#0:                                 # %allocas
	ENTSP_lu6 4
.Ltmp268:
	.cfi_def_cfa_offset 16
.Ltmp269:
	.cfi_offset 15, 0
	stw r4, sp[2]                   # 4-byte Folded Spill
.Ltmp270:
	.cfi_offset 4, -8
	#DEBUG_VALUE: _i.i2c_slave_callback_if._chan.ack_write_request:dest <- R0
	getr r4, 2
	setd res[r4], r0
	add r0, r4, 3
	out res[r4], r0
	outct res[r4], 2
	ldc r1, 0
	mov r0, r4
	bl __interface_wait_and_yield
	in r0, res[r4]
	in r0, res[r4]
	chkct res[r4], 1
	freer res[r4]
	ldw r4, sp[2]                   # 4-byte Folded Reload
	retsp 4
	# RETURN_REG_HOLDER
	.cc_bottom _i.i2c_slave_callback_if._chan.ack_write_request.function
	.set	_i.i2c_slave_callback_if._chan.ack_write_request.nstackwords,((_i.i2c_slave_callback_if._client_call_y.max.nstackwords $M ($D __interface_wait_and_yield.nstackwords ? __interface_wait_and_yield.nstackwords $: _i.i2c_slave_callback_if._client_call_y.max.nstackwords)) + 4)
	.globl	_i.i2c_slave_callback_if._chan.ack_write_request.nstackwords
	.weak	_i.i2c_slave_callback_if._chan.ack_write_request.nstackwords
	.set	_i.i2c_slave_callback_if._chan.ack_write_request.maxcores,($D __interface_wait_and_yield.maxcores ? __interface_wait_and_yield.maxcores $: _i.i2c_slave_callback_if._client_call_y.max.maxcores) $M 1
	.globl	_i.i2c_slave_callback_if._chan.ack_write_request.maxcores
	.weak	_i.i2c_slave_callback_if._chan.ack_write_request.maxcores
	.set	_i.i2c_slave_callback_if._chan.ack_write_request.maxtimers,($D __interface_wait_and_yield.maxtimers ? __interface_wait_and_yield.maxtimers $: _i.i2c_slave_callback_if._client_call_y.max.maxtimers) $M 0
	.globl	_i.i2c_slave_callback_if._chan.ack_write_request.maxtimers
	.weak	_i.i2c_slave_callback_if._chan.ack_write_request.maxtimers
	.set	_i.i2c_slave_callback_if._chan.ack_write_request.maxchanends,(1 + ($D __interface_wait_and_yield.maxchanends ? __interface_wait_and_yield.maxchanends $: _i.i2c_slave_callback_if._client_call_y.max.maxchanends)) $M 1
	.globl	_i.i2c_slave_callback_if._chan.ack_write_request.maxchanends
	.weak	_i.i2c_slave_callback_if._chan.ack_write_request.maxchanends
.Ltmp271:
	.size	_i.i2c_slave_callback_if._chan.ack_write_request, .Ltmp271-_i.i2c_slave_callback_if._chan.ack_write_request
	.cfi_endproc

	.weak	_i.i2c_slave_callback_if._chan.start_write_request
	.align	4
	.type	_i.i2c_slave_callback_if._chan.start_write_request,@function
	.cc_top _i.i2c_slave_callback_if._chan.start_write_request.function,_i.i2c_slave_callback_if._chan.start_write_request
_i.i2c_slave_callback_if._chan.start_write_request: # @_i.i2c_slave_callback_if._chan.start_write_request
	.cfi_startproc
	.issue_mode single
# BB#0:                                 # %allocas
	ENTSP_lu6 4
.Ltmp272:
	.cfi_def_cfa_offset 16
.Ltmp273:
	.cfi_offset 15, 0
	stw r4, sp[2]                   # 4-byte Folded Spill
.Ltmp274:
	.cfi_offset 4, -8
	#DEBUG_VALUE: _i.i2c_slave_callback_if._chan.start_write_request:dest <- R0
	getr r4, 2
	setd res[r4], r0
	add r0, r4, 2
	out res[r4], r0
	outct res[r4], 2
	ldc r1, 0
	mov r0, r4
	bl __interface_wait_and_yield
	in r0, res[r4]
	chkct res[r4], 1
	freer res[r4]
	ldw r4, sp[2]                   # 4-byte Folded Reload
	retsp 4
	# RETURN_REG_HOLDER
	.cc_bottom _i.i2c_slave_callback_if._chan.start_write_request.function
	.set	_i.i2c_slave_callback_if._chan.start_write_request.nstackwords,((_i.i2c_slave_callback_if._client_call_y.max.nstackwords $M ($D __interface_wait_and_yield.nstackwords ? __interface_wait_and_yield.nstackwords $: _i.i2c_slave_callback_if._client_call_y.max.nstackwords)) + 4)
	.globl	_i.i2c_slave_callback_if._chan.start_write_request.nstackwords
	.weak	_i.i2c_slave_callback_if._chan.start_write_request.nstackwords
	.set	_i.i2c_slave_callback_if._chan.start_write_request.maxcores,($D __interface_wait_and_yield.maxcores ? __interface_wait_and_yield.maxcores $: _i.i2c_slave_callback_if._client_call_y.max.maxcores) $M 1
	.globl	_i.i2c_slave_callback_if._chan.start_write_request.maxcores
	.weak	_i.i2c_slave_callback_if._chan.start_write_request.maxcores
	.set	_i.i2c_slave_callback_if._chan.start_write_request.maxtimers,($D __interface_wait_and_yield.maxtimers ? __interface_wait_and_yield.maxtimers $: _i.i2c_slave_callback_if._client_call_y.max.maxtimers) $M 0
	.globl	_i.i2c_slave_callback_if._chan.start_write_request.maxtimers
	.weak	_i.i2c_slave_callback_if._chan.start_write_request.maxtimers
	.set	_i.i2c_slave_callback_if._chan.start_write_request.maxchanends,(1 + ($D __interface_wait_and_yield.maxchanends ? __interface_wait_and_yield.maxchanends $: _i.i2c_slave_callback_if._client_call_y.max.maxchanends)) $M 1
	.globl	_i.i2c_slave_callback_if._chan.start_write_request.maxchanends
	.weak	_i.i2c_slave_callback_if._chan.start_write_request.maxchanends
.Ltmp275:
	.size	_i.i2c_slave_callback_if._chan.start_write_request, .Ltmp275-_i.i2c_slave_callback_if._chan.start_write_request
	.cfi_endproc

	.weak	_i.i2c_slave_callback_if._chan.ack_read_request
	.align	4
	.type	_i.i2c_slave_callback_if._chan.ack_read_request,@function
	.cc_top _i.i2c_slave_callback_if._chan.ack_read_request.function,_i.i2c_slave_callback_if._chan.ack_read_request
_i.i2c_slave_callback_if._chan.ack_read_request: # @_i.i2c_slave_callback_if._chan.ack_read_request
	.cfi_startproc
	.issue_mode single
# BB#0:                                 # %allocas
	ENTSP_lu6 4
.Ltmp276:
	.cfi_def_cfa_offset 16
.Ltmp277:
	.cfi_offset 15, 0
	stw r4, sp[2]                   # 4-byte Folded Spill
.Ltmp278:
	.cfi_offset 4, -8
	#DEBUG_VALUE: _i.i2c_slave_callback_if._chan.ack_read_request:dest <- R0
	getr r4, 2
	setd res[r4], r0
	add r0, r4, 1
	out res[r4], r0
	outct res[r4], 2
	ldc r1, 0
	mov r0, r4
	bl __interface_wait_and_yield
	in r0, res[r4]
	in r0, res[r4]
	chkct res[r4], 1
	freer res[r4]
	ldw r4, sp[2]                   # 4-byte Folded Reload
	retsp 4
	# RETURN_REG_HOLDER
	.cc_bottom _i.i2c_slave_callback_if._chan.ack_read_request.function
	.set	_i.i2c_slave_callback_if._chan.ack_read_request.nstackwords,((_i.i2c_slave_callback_if._client_call_y.max.nstackwords $M ($D __interface_wait_and_yield.nstackwords ? __interface_wait_and_yield.nstackwords $: _i.i2c_slave_callback_if._client_call_y.max.nstackwords)) + 4)
	.globl	_i.i2c_slave_callback_if._chan.ack_read_request.nstackwords
	.weak	_i.i2c_slave_callback_if._chan.ack_read_request.nstackwords
	.set	_i.i2c_slave_callback_if._chan.ack_read_request.maxcores,($D __interface_wait_and_yield.maxcores ? __interface_wait_and_yield.maxcores $: _i.i2c_slave_callback_if._client_call_y.max.maxcores) $M 1
	.globl	_i.i2c_slave_callback_if._chan.ack_read_request.maxcores
	.weak	_i.i2c_slave_callback_if._chan.ack_read_request.maxcores
	.set	_i.i2c_slave_callback_if._chan.ack_read_request.maxtimers,($D __interface_wait_and_yield.maxtimers ? __interface_wait_and_yield.maxtimers $: _i.i2c_slave_callback_if._client_call_y.max.maxtimers) $M 0
	.globl	_i.i2c_slave_callback_if._chan.ack_read_request.maxtimers
	.weak	_i.i2c_slave_callback_if._chan.ack_read_request.maxtimers
	.set	_i.i2c_slave_callback_if._chan.ack_read_request.maxchanends,(1 + ($D __interface_wait_and_yield.maxchanends ? __interface_wait_and_yield.maxchanends $: _i.i2c_slave_callback_if._client_call_y.max.maxchanends)) $M 1
	.globl	_i.i2c_slave_callback_if._chan.ack_read_request.maxchanends
	.weak	_i.i2c_slave_callback_if._chan.ack_read_request.maxchanends
.Ltmp279:
	.size	_i.i2c_slave_callback_if._chan.ack_read_request, .Ltmp279-_i.i2c_slave_callback_if._chan.ack_read_request
	.cfi_endproc

	.weak	_i.i2c_slave_callback_if._chan.start_read_request
	.align	4
	.type	_i.i2c_slave_callback_if._chan.start_read_request,@function
	.cc_top _i.i2c_slave_callback_if._chan.start_read_request.function,_i.i2c_slave_callback_if._chan.start_read_request
_i.i2c_slave_callback_if._chan.start_read_request: # @_i.i2c_slave_callback_if._chan.start_read_request
	.cfi_startproc
	.issue_mode single
# BB#0:                                 # %allocas
	ENTSP_lu6 4
.Ltmp280:
	.cfi_def_cfa_offset 16
.Ltmp281:
	.cfi_offset 15, 0
	stw r4, sp[2]                   # 4-byte Folded Spill
.Ltmp282:
	.cfi_offset 4, -8
	#DEBUG_VALUE: _i.i2c_slave_callback_if._chan.start_read_request:dest <- R0
	getr r4, 2
	setd res[r4], r0
	out res[r4], r4
	outct res[r4], 2
	ldc r1, 0
	mov r0, r4
	bl __interface_wait_and_yield
	in r0, res[r4]
	chkct res[r4], 1
	freer res[r4]
	ldw r4, sp[2]                   # 4-byte Folded Reload
	retsp 4
	# RETURN_REG_HOLDER
	.cc_bottom _i.i2c_slave_callback_if._chan.start_read_request.function
	.set	_i.i2c_slave_callback_if._chan.start_read_request.nstackwords,((_i.i2c_slave_callback_if._client_call_y.max.nstackwords $M ($D __interface_wait_and_yield.nstackwords ? __interface_wait_and_yield.nstackwords $: _i.i2c_slave_callback_if._client_call_y.max.nstackwords)) + 4)
	.globl	_i.i2c_slave_callback_if._chan.start_read_request.nstackwords
	.weak	_i.i2c_slave_callback_if._chan.start_read_request.nstackwords
	.set	_i.i2c_slave_callback_if._chan.start_read_request.maxcores,($D __interface_wait_and_yield.maxcores ? __interface_wait_and_yield.maxcores $: _i.i2c_slave_callback_if._client_call_y.max.maxcores) $M 1
	.globl	_i.i2c_slave_callback_if._chan.start_read_request.maxcores
	.weak	_i.i2c_slave_callback_if._chan.start_read_request.maxcores
	.set	_i.i2c_slave_callback_if._chan.start_read_request.maxtimers,($D __interface_wait_and_yield.maxtimers ? __interface_wait_and_yield.maxtimers $: _i.i2c_slave_callback_if._client_call_y.max.maxtimers) $M 0
	.globl	_i.i2c_slave_callback_if._chan.start_read_request.maxtimers
	.weak	_i.i2c_slave_callback_if._chan.start_read_request.maxtimers
	.set	_i.i2c_slave_callback_if._chan.start_read_request.maxchanends,(1 + ($D __interface_wait_and_yield.maxchanends ? __interface_wait_and_yield.maxchanends $: _i.i2c_slave_callback_if._client_call_y.max.maxchanends)) $M 1
	.globl	_i.i2c_slave_callback_if._chan.start_read_request.maxchanends
	.weak	_i.i2c_slave_callback_if._chan.start_read_request.maxchanends
.Ltmp283:
	.size	_i.i2c_slave_callback_if._chan.start_read_request, .Ltmp283-_i.i2c_slave_callback_if._chan.start_read_request
	.cfi_endproc

	.weak	_i.i2c_slave_callback_if._chan_yield.stop_bit
	.align	4
	.type	_i.i2c_slave_callback_if._chan_yield.stop_bit,@function
	.cc_top _i.i2c_slave_callback_if._chan_yield.stop_bit.function,_i.i2c_slave_callback_if._chan_yield.stop_bit
_i.i2c_slave_callback_if._chan_yield.stop_bit: # @_i.i2c_slave_callback_if._chan_yield.stop_bit
	.cfi_startproc
	.issue_mode single
# BB#0:                                 # %allocas
	ENTSP_lu6 4
.Ltmp284:
	.cfi_def_cfa_offset 16
.Ltmp285:
	.cfi_offset 15, 0
	std r5, r4, sp[1]               # 4-byte Folded Spill
.Ltmp286:
	.cfi_offset 4, -8
.Ltmp287:
	.cfi_offset 5, -4
	#DEBUG_VALUE: _i.i2c_slave_callback_if._chan_yield.stop_bit:s <- R0
	ldw r1, r0[0]
	getr r4, 2
	setd res[r4], r1
	add r1, r4, 8
	out res[r4], r1
	outct res[r4], 2
	ldw r5, r0[1]
	mov r0, r4
	mov r1, r5
	bl __interface_wait_and_yield
	ldc r1, 0
	mov r0, r4
	mov r2, r5
	bl __interface_client_call_y
	chkct res[r4], 1
	freer res[r4]
	ldd r5, r4, sp[1]               # 4-byte Folded Reload
	retsp 4
	# RETURN_REG_HOLDER
	.cc_bottom _i.i2c_slave_callback_if._chan_yield.stop_bit.function
	.set	_i.i2c_slave_callback_if._chan_yield.stop_bit.nstackwords,((($D __interface_wait_and_yield.nstackwords ? __interface_wait_and_yield.nstackwords $: _i.i2c_slave_callback_if._client_call_y.max.nstackwords) $M _i.i2c_slave_callback_if._client_call_y.max.nstackwords $M ($D __interface_client_call_y.nstackwords ? __interface_client_call_y.nstackwords $: _i.i2c_slave_callback_if._client_call_y.max.nstackwords)) + 4)
	.globl	_i.i2c_slave_callback_if._chan_yield.stop_bit.nstackwords
	.weak	_i.i2c_slave_callback_if._chan_yield.stop_bit.nstackwords
	.set	_i.i2c_slave_callback_if._chan_yield.stop_bit.maxcores,($D __interface_client_call_y.maxcores ? __interface_client_call_y.maxcores $: _i.i2c_slave_callback_if._client_call_y.max.maxcores) $M ($D __interface_wait_and_yield.maxcores ? __interface_wait_and_yield.maxcores $: _i.i2c_slave_callback_if._client_call_y.max.maxcores) $M 1
	.globl	_i.i2c_slave_callback_if._chan_yield.stop_bit.maxcores
	.weak	_i.i2c_slave_callback_if._chan_yield.stop_bit.maxcores
	.set	_i.i2c_slave_callback_if._chan_yield.stop_bit.maxtimers,($D __interface_client_call_y.maxtimers ? __interface_client_call_y.maxtimers $: _i.i2c_slave_callback_if._client_call_y.max.maxtimers) $M ($D __interface_wait_and_yield.maxtimers ? __interface_wait_and_yield.maxtimers $: _i.i2c_slave_callback_if._client_call_y.max.maxtimers) $M 0
	.globl	_i.i2c_slave_callback_if._chan_yield.stop_bit.maxtimers
	.weak	_i.i2c_slave_callback_if._chan_yield.stop_bit.maxtimers
	.set	_i.i2c_slave_callback_if._chan_yield.stop_bit.maxchanends,(1 + ($D __interface_client_call_y.maxchanends ? __interface_client_call_y.maxchanends $: _i.i2c_slave_callback_if._client_call_y.max.maxchanends)) $M (1 + ($D __interface_wait_and_yield.maxchanends ? __interface_wait_and_yield.maxchanends $: _i.i2c_slave_callback_if._client_call_y.max.maxchanends)) $M 1
	.globl	_i.i2c_slave_callback_if._chan_yield.stop_bit.maxchanends
	.weak	_i.i2c_slave_callback_if._chan_yield.stop_bit.maxchanends
.Ltmp288:
	.size	_i.i2c_slave_callback_if._chan_yield.stop_bit, .Ltmp288-_i.i2c_slave_callback_if._chan_yield.stop_bit
	.cfi_endproc

	.weak	_i.i2c_slave_callback_if._chan_yield.master_sent_data
	.align	4
	.type	_i.i2c_slave_callback_if._chan_yield.master_sent_data,@function
	.cc_top _i.i2c_slave_callback_if._chan_yield.master_sent_data.function,_i.i2c_slave_callback_if._chan_yield.master_sent_data
_i.i2c_slave_callback_if._chan_yield.master_sent_data: # @_i.i2c_slave_callback_if._chan_yield.master_sent_data
	.cfi_startproc
	.issue_mode single
# BB#0:                                 # %allocas
	ENTSP_lu6 6
.Ltmp289:
	.cfi_def_cfa_offset 24
.Ltmp290:
	.cfi_offset 15, 0
	std r5, r4, sp[1]               # 4-byte Folded Spill
.Ltmp291:
	.cfi_offset 4, -16
.Ltmp292:
	.cfi_offset 5, -12
	stw r6, sp[4]                   # 4-byte Folded Spill
.Ltmp293:
	.cfi_offset 6, -8
	#DEBUG_VALUE: _i.i2c_slave_callback_if._chan_yield.master_sent_data:s <- R0
	#DEBUG_VALUE: _i.i2c_slave_callback_if._chan_yield.master_sent_data:param1 <- R1
	mov r4, r1
	#DEBUG_VALUE: _i.i2c_slave_callback_if._chan_yield.master_sent_data:param1 <- R4
	ldw r1, r0[0]
	getr r5, 2
	setd res[r5], r1
	add r1, r5, 7
	out res[r5], r1
	outct res[r5], 2
	ldw r6, r0[1]
	mov r0, r5
	mov r1, r6
	bl __interface_wait_and_yield
	chkct res[r5], 1
	outt res[r5], r4
	outct res[r5], 2
	ldc r1, 0
	mov r0, r5
	mov r2, r6
	bl __interface_client_call_y
	in r0, res[r5]
	chkct res[r5], 1
	freer res[r5]
	ldw r6, sp[4]                   # 4-byte Folded Reload
	ldd r5, r4, sp[1]               # 4-byte Folded Reload
	retsp 6
	# RETURN_REG_HOLDER
	.cc_bottom _i.i2c_slave_callback_if._chan_yield.master_sent_data.function
	.set	_i.i2c_slave_callback_if._chan_yield.master_sent_data.nstackwords,((($D __interface_wait_and_yield.nstackwords ? __interface_wait_and_yield.nstackwords $: _i.i2c_slave_callback_if._client_call_y.max.nstackwords) $M _i.i2c_slave_callback_if._client_call_y.max.nstackwords $M ($D __interface_client_call_y.nstackwords ? __interface_client_call_y.nstackwords $: _i.i2c_slave_callback_if._client_call_y.max.nstackwords)) + 6)
	.globl	_i.i2c_slave_callback_if._chan_yield.master_sent_data.nstackwords
	.weak	_i.i2c_slave_callback_if._chan_yield.master_sent_data.nstackwords
	.set	_i.i2c_slave_callback_if._chan_yield.master_sent_data.maxcores,($D __interface_client_call_y.maxcores ? __interface_client_call_y.maxcores $: _i.i2c_slave_callback_if._client_call_y.max.maxcores) $M ($D __interface_wait_and_yield.maxcores ? __interface_wait_and_yield.maxcores $: _i.i2c_slave_callback_if._client_call_y.max.maxcores) $M 1
	.globl	_i.i2c_slave_callback_if._chan_yield.master_sent_data.maxcores
	.weak	_i.i2c_slave_callback_if._chan_yield.master_sent_data.maxcores
	.set	_i.i2c_slave_callback_if._chan_yield.master_sent_data.maxtimers,($D __interface_client_call_y.maxtimers ? __interface_client_call_y.maxtimers $: _i.i2c_slave_callback_if._client_call_y.max.maxtimers) $M ($D __interface_wait_and_yield.maxtimers ? __interface_wait_and_yield.maxtimers $: _i.i2c_slave_callback_if._client_call_y.max.maxtimers) $M 0
	.globl	_i.i2c_slave_callback_if._chan_yield.master_sent_data.maxtimers
	.weak	_i.i2c_slave_callback_if._chan_yield.master_sent_data.maxtimers
	.set	_i.i2c_slave_callback_if._chan_yield.master_sent_data.maxchanends,(1 + ($D __interface_client_call_y.maxchanends ? __interface_client_call_y.maxchanends $: _i.i2c_slave_callback_if._client_call_y.max.maxchanends)) $M (1 + ($D __interface_wait_and_yield.maxchanends ? __interface_wait_and_yield.maxchanends $: _i.i2c_slave_callback_if._client_call_y.max.maxchanends)) $M 1
	.globl	_i.i2c_slave_callback_if._chan_yield.master_sent_data.maxchanends
	.weak	_i.i2c_slave_callback_if._chan_yield.master_sent_data.maxchanends
.Ltmp294:
	.size	_i.i2c_slave_callback_if._chan_yield.master_sent_data, .Ltmp294-_i.i2c_slave_callback_if._chan_yield.master_sent_data
	.cfi_endproc

	.weak	_i.i2c_slave_callback_if._chan_yield.start_master_write
	.align	4
	.type	_i.i2c_slave_callback_if._chan_yield.start_master_write,@function
	.cc_top _i.i2c_slave_callback_if._chan_yield.start_master_write.function,_i.i2c_slave_callback_if._chan_yield.start_master_write
_i.i2c_slave_callback_if._chan_yield.start_master_write: # @_i.i2c_slave_callback_if._chan_yield.start_master_write
	.cfi_startproc
	.issue_mode single
# BB#0:                                 # %allocas
	ENTSP_lu6 4
.Ltmp295:
	.cfi_def_cfa_offset 16
.Ltmp296:
	.cfi_offset 15, 0
	std r5, r4, sp[1]               # 4-byte Folded Spill
.Ltmp297:
	.cfi_offset 4, -8
.Ltmp298:
	.cfi_offset 5, -4
	#DEBUG_VALUE: _i.i2c_slave_callback_if._chan_yield.start_master_write:s <- R0
	ldw r1, r0[0]
	getr r4, 2
	setd res[r4], r1
	add r1, r4, 6
	out res[r4], r1
	outct res[r4], 2
	ldw r5, r0[1]
	mov r0, r4
	mov r1, r5
	bl __interface_wait_and_yield
	ldc r1, 0
	mov r0, r4
	mov r2, r5
	bl __interface_client_call_y
	chkct res[r4], 1
	freer res[r4]
	ldd r5, r4, sp[1]               # 4-byte Folded Reload
	retsp 4
	# RETURN_REG_HOLDER
	.cc_bottom _i.i2c_slave_callback_if._chan_yield.start_master_write.function
	.set	_i.i2c_slave_callback_if._chan_yield.start_master_write.nstackwords,((($D __interface_wait_and_yield.nstackwords ? __interface_wait_and_yield.nstackwords $: _i.i2c_slave_callback_if._client_call_y.max.nstackwords) $M _i.i2c_slave_callback_if._client_call_y.max.nstackwords $M ($D __interface_client_call_y.nstackwords ? __interface_client_call_y.nstackwords $: _i.i2c_slave_callback_if._client_call_y.max.nstackwords)) + 4)
	.globl	_i.i2c_slave_callback_if._chan_yield.start_master_write.nstackwords
	.weak	_i.i2c_slave_callback_if._chan_yield.start_master_write.nstackwords
	.set	_i.i2c_slave_callback_if._chan_yield.start_master_write.maxcores,($D __interface_client_call_y.maxcores ? __interface_client_call_y.maxcores $: _i.i2c_slave_callback_if._client_call_y.max.maxcores) $M ($D __interface_wait_and_yield.maxcores ? __interface_wait_and_yield.maxcores $: _i.i2c_slave_callback_if._client_call_y.max.maxcores) $M 1
	.globl	_i.i2c_slave_callback_if._chan_yield.start_master_write.maxcores
	.weak	_i.i2c_slave_callback_if._chan_yield.start_master_write.maxcores
	.set	_i.i2c_slave_callback_if._chan_yield.start_master_write.maxtimers,($D __interface_client_call_y.maxtimers ? __interface_client_call_y.maxtimers $: _i.i2c_slave_callback_if._client_call_y.max.maxtimers) $M ($D __interface_wait_and_yield.maxtimers ? __interface_wait_and_yield.maxtimers $: _i.i2c_slave_callback_if._client_call_y.max.maxtimers) $M 0
	.globl	_i.i2c_slave_callback_if._chan_yield.start_master_write.maxtimers
	.weak	_i.i2c_slave_callback_if._chan_yield.start_master_write.maxtimers
	.set	_i.i2c_slave_callback_if._chan_yield.start_master_write.maxchanends,(1 + ($D __interface_client_call_y.maxchanends ? __interface_client_call_y.maxchanends $: _i.i2c_slave_callback_if._client_call_y.max.maxchanends)) $M (1 + ($D __interface_wait_and_yield.maxchanends ? __interface_wait_and_yield.maxchanends $: _i.i2c_slave_callback_if._client_call_y.max.maxchanends)) $M 1
	.globl	_i.i2c_slave_callback_if._chan_yield.start_master_write.maxchanends
	.weak	_i.i2c_slave_callback_if._chan_yield.start_master_write.maxchanends
.Ltmp299:
	.size	_i.i2c_slave_callback_if._chan_yield.start_master_write, .Ltmp299-_i.i2c_slave_callback_if._chan_yield.start_master_write
	.cfi_endproc

	.weak	_i.i2c_slave_callback_if._chan_yield.master_requires_data
	.align	4
	.type	_i.i2c_slave_callback_if._chan_yield.master_requires_data,@function
	.cc_top _i.i2c_slave_callback_if._chan_yield.master_requires_data.function,_i.i2c_slave_callback_if._chan_yield.master_requires_data
_i.i2c_slave_callback_if._chan_yield.master_requires_data: # @_i.i2c_slave_callback_if._chan_yield.master_requires_data
	.cfi_startproc
	.issue_mode single
# BB#0:                                 # %allocas
	ENTSP_lu6 4
.Ltmp300:
	.cfi_def_cfa_offset 16
.Ltmp301:
	.cfi_offset 15, 0
	std r5, r4, sp[1]               # 4-byte Folded Spill
.Ltmp302:
	.cfi_offset 4, -8
.Ltmp303:
	.cfi_offset 5, -4
	#DEBUG_VALUE: _i.i2c_slave_callback_if._chan_yield.master_requires_data:s <- R0
	ldw r1, r0[0]
	getr r4, 2
	setd res[r4], r1
	add r1, r4, 5
	out res[r4], r1
	outct res[r4], 2
	ldw r5, r0[1]
	mov r0, r4
	mov r1, r5
	bl __interface_wait_and_yield
	ldc r1, 0
	mov r0, r4
	mov r2, r5
	bl __interface_client_call_y
	int r0, res[r4]
	chkct res[r4], 1
	freer res[r4]
	ldd r5, r4, sp[1]               # 4-byte Folded Reload
	retsp 4
	# RETURN_REG_HOLDER
	.cc_bottom _i.i2c_slave_callback_if._chan_yield.master_requires_data.function
	.set	_i.i2c_slave_callback_if._chan_yield.master_requires_data.nstackwords,((($D __interface_wait_and_yield.nstackwords ? __interface_wait_and_yield.nstackwords $: _i.i2c_slave_callback_if._client_call_y.max.nstackwords) $M _i.i2c_slave_callback_if._client_call_y.max.nstackwords $M ($D __interface_client_call_y.nstackwords ? __interface_client_call_y.nstackwords $: _i.i2c_slave_callback_if._client_call_y.max.nstackwords)) + 4)
	.globl	_i.i2c_slave_callback_if._chan_yield.master_requires_data.nstackwords
	.weak	_i.i2c_slave_callback_if._chan_yield.master_requires_data.nstackwords
	.set	_i.i2c_slave_callback_if._chan_yield.master_requires_data.maxcores,($D __interface_client_call_y.maxcores ? __interface_client_call_y.maxcores $: _i.i2c_slave_callback_if._client_call_y.max.maxcores) $M ($D __interface_wait_and_yield.maxcores ? __interface_wait_and_yield.maxcores $: _i.i2c_slave_callback_if._client_call_y.max.maxcores) $M 1
	.globl	_i.i2c_slave_callback_if._chan_yield.master_requires_data.maxcores
	.weak	_i.i2c_slave_callback_if._chan_yield.master_requires_data.maxcores
	.set	_i.i2c_slave_callback_if._chan_yield.master_requires_data.maxtimers,($D __interface_client_call_y.maxtimers ? __interface_client_call_y.maxtimers $: _i.i2c_slave_callback_if._client_call_y.max.maxtimers) $M ($D __interface_wait_and_yield.maxtimers ? __interface_wait_and_yield.maxtimers $: _i.i2c_slave_callback_if._client_call_y.max.maxtimers) $M 0
	.globl	_i.i2c_slave_callback_if._chan_yield.master_requires_data.maxtimers
	.weak	_i.i2c_slave_callback_if._chan_yield.master_requires_data.maxtimers
	.set	_i.i2c_slave_callback_if._chan_yield.master_requires_data.maxchanends,(1 + ($D __interface_client_call_y.maxchanends ? __interface_client_call_y.maxchanends $: _i.i2c_slave_callback_if._client_call_y.max.maxchanends)) $M (1 + ($D __interface_wait_and_yield.maxchanends ? __interface_wait_and_yield.maxchanends $: _i.i2c_slave_callback_if._client_call_y.max.maxchanends)) $M 1
	.globl	_i.i2c_slave_callback_if._chan_yield.master_requires_data.maxchanends
	.weak	_i.i2c_slave_callback_if._chan_yield.master_requires_data.maxchanends
.Ltmp304:
	.size	_i.i2c_slave_callback_if._chan_yield.master_requires_data, .Ltmp304-_i.i2c_slave_callback_if._chan_yield.master_requires_data
	.cfi_endproc

	.weak	_i.i2c_slave_callback_if._chan_yield.start_master_read
	.align	4
	.type	_i.i2c_slave_callback_if._chan_yield.start_master_read,@function
	.cc_top _i.i2c_slave_callback_if._chan_yield.start_master_read.function,_i.i2c_slave_callback_if._chan_yield.start_master_read
_i.i2c_slave_callback_if._chan_yield.start_master_read: # @_i.i2c_slave_callback_if._chan_yield.start_master_read
	.cfi_startproc
	.issue_mode single
# BB#0:                                 # %allocas
	ENTSP_lu6 4
.Ltmp305:
	.cfi_def_cfa_offset 16
.Ltmp306:
	.cfi_offset 15, 0
	std r5, r4, sp[1]               # 4-byte Folded Spill
.Ltmp307:
	.cfi_offset 4, -8
.Ltmp308:
	.cfi_offset 5, -4
	#DEBUG_VALUE: _i.i2c_slave_callback_if._chan_yield.start_master_read:s <- R0
	ldw r1, r0[0]
	getr r4, 2
	setd res[r4], r1
	add r1, r4, 4
	out res[r4], r1
	outct res[r4], 2
	ldw r5, r0[1]
	mov r0, r4
	mov r1, r5
	bl __interface_wait_and_yield
	ldc r1, 0
	mov r0, r4
	mov r2, r5
	bl __interface_client_call_y
	chkct res[r4], 1
	freer res[r4]
	ldd r5, r4, sp[1]               # 4-byte Folded Reload
	retsp 4
	# RETURN_REG_HOLDER
	.cc_bottom _i.i2c_slave_callback_if._chan_yield.start_master_read.function
	.set	_i.i2c_slave_callback_if._chan_yield.start_master_read.nstackwords,((($D __interface_wait_and_yield.nstackwords ? __interface_wait_and_yield.nstackwords $: _i.i2c_slave_callback_if._client_call_y.max.nstackwords) $M _i.i2c_slave_callback_if._client_call_y.max.nstackwords $M ($D __interface_client_call_y.nstackwords ? __interface_client_call_y.nstackwords $: _i.i2c_slave_callback_if._client_call_y.max.nstackwords)) + 4)
	.globl	_i.i2c_slave_callback_if._chan_yield.start_master_read.nstackwords
	.weak	_i.i2c_slave_callback_if._chan_yield.start_master_read.nstackwords
	.set	_i.i2c_slave_callback_if._chan_yield.start_master_read.maxcores,($D __interface_client_call_y.maxcores ? __interface_client_call_y.maxcores $: _i.i2c_slave_callback_if._client_call_y.max.maxcores) $M ($D __interface_wait_and_yield.maxcores ? __interface_wait_and_yield.maxcores $: _i.i2c_slave_callback_if._client_call_y.max.maxcores) $M 1
	.globl	_i.i2c_slave_callback_if._chan_yield.start_master_read.maxcores
	.weak	_i.i2c_slave_callback_if._chan_yield.start_master_read.maxcores
	.set	_i.i2c_slave_callback_if._chan_yield.start_master_read.maxtimers,($D __interface_client_call_y.maxtimers ? __interface_client_call_y.maxtimers $: _i.i2c_slave_callback_if._client_call_y.max.maxtimers) $M ($D __interface_wait_and_yield.maxtimers ? __interface_wait_and_yield.maxtimers $: _i.i2c_slave_callback_if._client_call_y.max.maxtimers) $M 0
	.globl	_i.i2c_slave_callback_if._chan_yield.start_master_read.maxtimers
	.weak	_i.i2c_slave_callback_if._chan_yield.start_master_read.maxtimers
	.set	_i.i2c_slave_callback_if._chan_yield.start_master_read.maxchanends,(1 + ($D __interface_client_call_y.maxchanends ? __interface_client_call_y.maxchanends $: _i.i2c_slave_callback_if._client_call_y.max.maxchanends)) $M (1 + ($D __interface_wait_and_yield.maxchanends ? __interface_wait_and_yield.maxchanends $: _i.i2c_slave_callback_if._client_call_y.max.maxchanends)) $M 1
	.globl	_i.i2c_slave_callback_if._chan_yield.start_master_read.maxchanends
	.weak	_i.i2c_slave_callback_if._chan_yield.start_master_read.maxchanends
.Ltmp309:
	.size	_i.i2c_slave_callback_if._chan_yield.start_master_read, .Ltmp309-_i.i2c_slave_callback_if._chan_yield.start_master_read
	.cfi_endproc

	.weak	_i.i2c_slave_callback_if._chan_yield.ack_write_request
	.align	4
	.type	_i.i2c_slave_callback_if._chan_yield.ack_write_request,@function
	.cc_top _i.i2c_slave_callback_if._chan_yield.ack_write_request.function,_i.i2c_slave_callback_if._chan_yield.ack_write_request
_i.i2c_slave_callback_if._chan_yield.ack_write_request: # @_i.i2c_slave_callback_if._chan_yield.ack_write_request
	.cfi_startproc
	.issue_mode single
# BB#0:                                 # %allocas
	ENTSP_lu6 4
.Ltmp310:
	.cfi_def_cfa_offset 16
.Ltmp311:
	.cfi_offset 15, 0
	std r5, r4, sp[1]               # 4-byte Folded Spill
.Ltmp312:
	.cfi_offset 4, -8
.Ltmp313:
	.cfi_offset 5, -4
	#DEBUG_VALUE: _i.i2c_slave_callback_if._chan_yield.ack_write_request:s <- R0
	ldw r1, r0[0]
	getr r4, 2
	setd res[r4], r1
	add r1, r4, 3
	out res[r4], r1
	outct res[r4], 2
	ldw r5, r0[1]
	mov r0, r4
	mov r1, r5
	bl __interface_wait_and_yield
	ldc r1, 0
	mov r0, r4
	mov r2, r5
	bl __interface_client_call_y
	in r0, res[r4]
	chkct res[r4], 1
	freer res[r4]
	ldd r5, r4, sp[1]               # 4-byte Folded Reload
	retsp 4
	# RETURN_REG_HOLDER
	.cc_bottom _i.i2c_slave_callback_if._chan_yield.ack_write_request.function
	.set	_i.i2c_slave_callback_if._chan_yield.ack_write_request.nstackwords,((($D __interface_wait_and_yield.nstackwords ? __interface_wait_and_yield.nstackwords $: _i.i2c_slave_callback_if._client_call_y.max.nstackwords) $M _i.i2c_slave_callback_if._client_call_y.max.nstackwords $M ($D __interface_client_call_y.nstackwords ? __interface_client_call_y.nstackwords $: _i.i2c_slave_callback_if._client_call_y.max.nstackwords)) + 4)
	.globl	_i.i2c_slave_callback_if._chan_yield.ack_write_request.nstackwords
	.weak	_i.i2c_slave_callback_if._chan_yield.ack_write_request.nstackwords
	.set	_i.i2c_slave_callback_if._chan_yield.ack_write_request.maxcores,($D __interface_client_call_y.maxcores ? __interface_client_call_y.maxcores $: _i.i2c_slave_callback_if._client_call_y.max.maxcores) $M ($D __interface_wait_and_yield.maxcores ? __interface_wait_and_yield.maxcores $: _i.i2c_slave_callback_if._client_call_y.max.maxcores) $M 1
	.globl	_i.i2c_slave_callback_if._chan_yield.ack_write_request.maxcores
	.weak	_i.i2c_slave_callback_if._chan_yield.ack_write_request.maxcores
	.set	_i.i2c_slave_callback_if._chan_yield.ack_write_request.maxtimers,($D __interface_client_call_y.maxtimers ? __interface_client_call_y.maxtimers $: _i.i2c_slave_callback_if._client_call_y.max.maxtimers) $M ($D __interface_wait_and_yield.maxtimers ? __interface_wait_and_yield.maxtimers $: _i.i2c_slave_callback_if._client_call_y.max.maxtimers) $M 0
	.globl	_i.i2c_slave_callback_if._chan_yield.ack_write_request.maxtimers
	.weak	_i.i2c_slave_callback_if._chan_yield.ack_write_request.maxtimers
	.set	_i.i2c_slave_callback_if._chan_yield.ack_write_request.maxchanends,(1 + ($D __interface_client_call_y.maxchanends ? __interface_client_call_y.maxchanends $: _i.i2c_slave_callback_if._client_call_y.max.maxchanends)) $M (1 + ($D __interface_wait_and_yield.maxchanends ? __interface_wait_and_yield.maxchanends $: _i.i2c_slave_callback_if._client_call_y.max.maxchanends)) $M 1
	.globl	_i.i2c_slave_callback_if._chan_yield.ack_write_request.maxchanends
	.weak	_i.i2c_slave_callback_if._chan_yield.ack_write_request.maxchanends
.Ltmp314:
	.size	_i.i2c_slave_callback_if._chan_yield.ack_write_request, .Ltmp314-_i.i2c_slave_callback_if._chan_yield.ack_write_request
	.cfi_endproc

	.weak	_i.i2c_slave_callback_if._chan_yield.start_write_request
	.align	4
	.type	_i.i2c_slave_callback_if._chan_yield.start_write_request,@function
	.cc_top _i.i2c_slave_callback_if._chan_yield.start_write_request.function,_i.i2c_slave_callback_if._chan_yield.start_write_request
_i.i2c_slave_callback_if._chan_yield.start_write_request: # @_i.i2c_slave_callback_if._chan_yield.start_write_request
	.cfi_startproc
	.issue_mode single
# BB#0:                                 # %allocas
	ENTSP_lu6 4
.Ltmp315:
	.cfi_def_cfa_offset 16
.Ltmp316:
	.cfi_offset 15, 0
	std r5, r4, sp[1]               # 4-byte Folded Spill
.Ltmp317:
	.cfi_offset 4, -8
.Ltmp318:
	.cfi_offset 5, -4
	#DEBUG_VALUE: _i.i2c_slave_callback_if._chan_yield.start_write_request:s <- R0
	ldw r1, r0[0]
	getr r4, 2
	setd res[r4], r1
	add r1, r4, 2
	out res[r4], r1
	outct res[r4], 2
	ldw r5, r0[1]
	mov r0, r4
	mov r1, r5
	bl __interface_wait_and_yield
	ldc r1, 0
	mov r0, r4
	mov r2, r5
	bl __interface_client_call_y
	chkct res[r4], 1
	freer res[r4]
	ldd r5, r4, sp[1]               # 4-byte Folded Reload
	retsp 4
	# RETURN_REG_HOLDER
	.cc_bottom _i.i2c_slave_callback_if._chan_yield.start_write_request.function
	.set	_i.i2c_slave_callback_if._chan_yield.start_write_request.nstackwords,((($D __interface_wait_and_yield.nstackwords ? __interface_wait_and_yield.nstackwords $: _i.i2c_slave_callback_if._client_call_y.max.nstackwords) $M _i.i2c_slave_callback_if._client_call_y.max.nstackwords $M ($D __interface_client_call_y.nstackwords ? __interface_client_call_y.nstackwords $: _i.i2c_slave_callback_if._client_call_y.max.nstackwords)) + 4)
	.globl	_i.i2c_slave_callback_if._chan_yield.start_write_request.nstackwords
	.weak	_i.i2c_slave_callback_if._chan_yield.start_write_request.nstackwords
	.set	_i.i2c_slave_callback_if._chan_yield.start_write_request.maxcores,($D __interface_client_call_y.maxcores ? __interface_client_call_y.maxcores $: _i.i2c_slave_callback_if._client_call_y.max.maxcores) $M ($D __interface_wait_and_yield.maxcores ? __interface_wait_and_yield.maxcores $: _i.i2c_slave_callback_if._client_call_y.max.maxcores) $M 1
	.globl	_i.i2c_slave_callback_if._chan_yield.start_write_request.maxcores
	.weak	_i.i2c_slave_callback_if._chan_yield.start_write_request.maxcores
	.set	_i.i2c_slave_callback_if._chan_yield.start_write_request.maxtimers,($D __interface_client_call_y.maxtimers ? __interface_client_call_y.maxtimers $: _i.i2c_slave_callback_if._client_call_y.max.maxtimers) $M ($D __interface_wait_and_yield.maxtimers ? __interface_wait_and_yield.maxtimers $: _i.i2c_slave_callback_if._client_call_y.max.maxtimers) $M 0
	.globl	_i.i2c_slave_callback_if._chan_yield.start_write_request.maxtimers
	.weak	_i.i2c_slave_callback_if._chan_yield.start_write_request.maxtimers
	.set	_i.i2c_slave_callback_if._chan_yield.start_write_request.maxchanends,(1 + ($D __interface_client_call_y.maxchanends ? __interface_client_call_y.maxchanends $: _i.i2c_slave_callback_if._client_call_y.max.maxchanends)) $M (1 + ($D __interface_wait_and_yield.maxchanends ? __interface_wait_and_yield.maxchanends $: _i.i2c_slave_callback_if._client_call_y.max.maxchanends)) $M 1
	.globl	_i.i2c_slave_callback_if._chan_yield.start_write_request.maxchanends
	.weak	_i.i2c_slave_callback_if._chan_yield.start_write_request.maxchanends
.Ltmp319:
	.size	_i.i2c_slave_callback_if._chan_yield.start_write_request, .Ltmp319-_i.i2c_slave_callback_if._chan_yield.start_write_request
	.cfi_endproc

	.weak	_i.i2c_slave_callback_if._chan_yield.ack_read_request
	.align	4
	.type	_i.i2c_slave_callback_if._chan_yield.ack_read_request,@function
	.cc_top _i.i2c_slave_callback_if._chan_yield.ack_read_request.function,_i.i2c_slave_callback_if._chan_yield.ack_read_request
_i.i2c_slave_callback_if._chan_yield.ack_read_request: # @_i.i2c_slave_callback_if._chan_yield.ack_read_request
	.cfi_startproc
	.issue_mode single
# BB#0:                                 # %allocas
	ENTSP_lu6 4
.Ltmp320:
	.cfi_def_cfa_offset 16
.Ltmp321:
	.cfi_offset 15, 0
	std r5, r4, sp[1]               # 4-byte Folded Spill
.Ltmp322:
	.cfi_offset 4, -8
.Ltmp323:
	.cfi_offset 5, -4
	#DEBUG_VALUE: _i.i2c_slave_callback_if._chan_yield.ack_read_request:s <- R0
	ldw r1, r0[0]
	getr r4, 2
	setd res[r4], r1
	add r1, r4, 1
	out res[r4], r1
	outct res[r4], 2
	ldw r5, r0[1]
	mov r0, r4
	mov r1, r5
	bl __interface_wait_and_yield
	ldc r1, 0
	mov r0, r4
	mov r2, r5
	bl __interface_client_call_y
	in r0, res[r4]
	chkct res[r4], 1
	freer res[r4]
	ldd r5, r4, sp[1]               # 4-byte Folded Reload
	retsp 4
	# RETURN_REG_HOLDER
	.cc_bottom _i.i2c_slave_callback_if._chan_yield.ack_read_request.function
	.set	_i.i2c_slave_callback_if._chan_yield.ack_read_request.nstackwords,((($D __interface_wait_and_yield.nstackwords ? __interface_wait_and_yield.nstackwords $: _i.i2c_slave_callback_if._client_call_y.max.nstackwords) $M _i.i2c_slave_callback_if._client_call_y.max.nstackwords $M ($D __interface_client_call_y.nstackwords ? __interface_client_call_y.nstackwords $: _i.i2c_slave_callback_if._client_call_y.max.nstackwords)) + 4)
	.globl	_i.i2c_slave_callback_if._chan_yield.ack_read_request.nstackwords
	.weak	_i.i2c_slave_callback_if._chan_yield.ack_read_request.nstackwords
	.set	_i.i2c_slave_callback_if._chan_yield.ack_read_request.maxcores,($D __interface_client_call_y.maxcores ? __interface_client_call_y.maxcores $: _i.i2c_slave_callback_if._client_call_y.max.maxcores) $M ($D __interface_wait_and_yield.maxcores ? __interface_wait_and_yield.maxcores $: _i.i2c_slave_callback_if._client_call_y.max.maxcores) $M 1
	.globl	_i.i2c_slave_callback_if._chan_yield.ack_read_request.maxcores
	.weak	_i.i2c_slave_callback_if._chan_yield.ack_read_request.maxcores
	.set	_i.i2c_slave_callback_if._chan_yield.ack_read_request.maxtimers,($D __interface_client_call_y.maxtimers ? __interface_client_call_y.maxtimers $: _i.i2c_slave_callback_if._client_call_y.max.maxtimers) $M ($D __interface_wait_and_yield.maxtimers ? __interface_wait_and_yield.maxtimers $: _i.i2c_slave_callback_if._client_call_y.max.maxtimers) $M 0
	.globl	_i.i2c_slave_callback_if._chan_yield.ack_read_request.maxtimers
	.weak	_i.i2c_slave_callback_if._chan_yield.ack_read_request.maxtimers
	.set	_i.i2c_slave_callback_if._chan_yield.ack_read_request.maxchanends,(1 + ($D __interface_client_call_y.maxchanends ? __interface_client_call_y.maxchanends $: _i.i2c_slave_callback_if._client_call_y.max.maxchanends)) $M (1 + ($D __interface_wait_and_yield.maxchanends ? __interface_wait_and_yield.maxchanends $: _i.i2c_slave_callback_if._client_call_y.max.maxchanends)) $M 1
	.globl	_i.i2c_slave_callback_if._chan_yield.ack_read_request.maxchanends
	.weak	_i.i2c_slave_callback_if._chan_yield.ack_read_request.maxchanends
.Ltmp324:
	.size	_i.i2c_slave_callback_if._chan_yield.ack_read_request, .Ltmp324-_i.i2c_slave_callback_if._chan_yield.ack_read_request
	.cfi_endproc

	.weak	_i.i2c_slave_callback_if._chan_yield.start_read_request
	.align	4
	.type	_i.i2c_slave_callback_if._chan_yield.start_read_request,@function
	.cc_top _i.i2c_slave_callback_if._chan_yield.start_read_request.function,_i.i2c_slave_callback_if._chan_yield.start_read_request
_i.i2c_slave_callback_if._chan_yield.start_read_request: # @_i.i2c_slave_callback_if._chan_yield.start_read_request
	.cfi_startproc
	.issue_mode single
# BB#0:                                 # %allocas
	ENTSP_lu6 4
.Ltmp325:
	.cfi_def_cfa_offset 16
.Ltmp326:
	.cfi_offset 15, 0
	std r5, r4, sp[1]               # 4-byte Folded Spill
.Ltmp327:
	.cfi_offset 4, -8
.Ltmp328:
	.cfi_offset 5, -4
	#DEBUG_VALUE: _i.i2c_slave_callback_if._chan_yield.start_read_request:s <- R0
	ldw r1, r0[0]
	getr r4, 2
	setd res[r4], r1
	out res[r4], r4
	outct res[r4], 2
	ldw r5, r0[1]
	mov r0, r4
	mov r1, r5
	bl __interface_wait_and_yield
	ldc r1, 0
	mov r0, r4
	mov r2, r5
	bl __interface_client_call_y
	chkct res[r4], 1
	freer res[r4]
	ldd r5, r4, sp[1]               # 4-byte Folded Reload
	retsp 4
	# RETURN_REG_HOLDER
	.cc_bottom _i.i2c_slave_callback_if._chan_yield.start_read_request.function
	.set	_i.i2c_slave_callback_if._chan_yield.start_read_request.nstackwords,((($D __interface_wait_and_yield.nstackwords ? __interface_wait_and_yield.nstackwords $: _i.i2c_slave_callback_if._client_call_y.max.nstackwords) $M _i.i2c_slave_callback_if._client_call_y.max.nstackwords $M ($D __interface_client_call_y.nstackwords ? __interface_client_call_y.nstackwords $: _i.i2c_slave_callback_if._client_call_y.max.nstackwords)) + 4)
	.globl	_i.i2c_slave_callback_if._chan_yield.start_read_request.nstackwords
	.weak	_i.i2c_slave_callback_if._chan_yield.start_read_request.nstackwords
	.set	_i.i2c_slave_callback_if._chan_yield.start_read_request.maxcores,($D __interface_client_call_y.maxcores ? __interface_client_call_y.maxcores $: _i.i2c_slave_callback_if._client_call_y.max.maxcores) $M ($D __interface_wait_and_yield.maxcores ? __interface_wait_and_yield.maxcores $: _i.i2c_slave_callback_if._client_call_y.max.maxcores) $M 1
	.globl	_i.i2c_slave_callback_if._chan_yield.start_read_request.maxcores
	.weak	_i.i2c_slave_callback_if._chan_yield.start_read_request.maxcores
	.set	_i.i2c_slave_callback_if._chan_yield.start_read_request.maxtimers,($D __interface_client_call_y.maxtimers ? __interface_client_call_y.maxtimers $: _i.i2c_slave_callback_if._client_call_y.max.maxtimers) $M ($D __interface_wait_and_yield.maxtimers ? __interface_wait_and_yield.maxtimers $: _i.i2c_slave_callback_if._client_call_y.max.maxtimers) $M 0
	.globl	_i.i2c_slave_callback_if._chan_yield.start_read_request.maxtimers
	.weak	_i.i2c_slave_callback_if._chan_yield.start_read_request.maxtimers
	.set	_i.i2c_slave_callback_if._chan_yield.start_read_request.maxchanends,(1 + ($D __interface_client_call_y.maxchanends ? __interface_client_call_y.maxchanends $: _i.i2c_slave_callback_if._client_call_y.max.maxchanends)) $M (1 + ($D __interface_wait_and_yield.maxchanends ? __interface_wait_and_yield.maxchanends $: _i.i2c_slave_callback_if._client_call_y.max.maxchanends)) $M 1
	.globl	_i.i2c_slave_callback_if._chan_yield.start_read_request.maxchanends
	.weak	_i.i2c_slave_callback_if._chan_yield.start_read_request.maxchanends
.Ltmp329:
	.size	_i.i2c_slave_callback_if._chan_yield.start_read_request, .Ltmp329-_i.i2c_slave_callback_if._chan_yield.start_read_request
	.cfi_endproc

	.globl	VendorRequests
	.align	4
	.type	VendorRequests,@function
	.cc_top VendorRequests.function,VendorRequests
VendorRequests:                         # @VendorRequests
.Lfunc_begin58:
	.loc	3 23 0                  # C:/Users/user/workspace/module_vocalfusion/src/vendorrequests.xc:23:0
	.cfi_startproc
	.issue_mode single
# BB#0:                                 # %allocas
.Lxtalabel0:
	ENTSP_lu6 526
.Ltmp330:
	.cfi_def_cfa_offset 2104
.Ltmp331:
	.cfi_offset 15, 0
	stw r4, sp[518]                 # 4-byte Folded Spill
	stw r5, sp[519]                 # 4-byte Folded Spill
.Ltmp332:
	.cfi_offset 4, -32
.Ltmp333:
	.cfi_offset 5, -28
	stw r6, sp[520]                 # 4-byte Folded Spill
	stw r7, sp[521]                 # 4-byte Folded Spill
.Ltmp334:
	.cfi_offset 6, -24
.Ltmp335:
	.cfi_offset 7, -20
	stw r8, sp[522]                 # 4-byte Folded Spill
	stw r9, sp[523]                 # 4-byte Folded Spill
.Ltmp336:
	.cfi_offset 8, -16
.Ltmp337:
	.cfi_offset 9, -12
	stw r10, sp[524]                # 4-byte Folded Spill
.Ltmp338:
	.cfi_offset 10, -8
	#DEBUG_VALUE: VendorRequests:ep0_out <- R0
	#DEBUG_VALUE: VendorRequests:ep0_in <- R1
	#DEBUG_VALUE: VendorRequests:sp <- R2
	#DEBUG_VALUE: VendorRequests:i_control <- R3
	mov r5, r3
.Ltmp339:
	#DEBUG_VALUE: VendorRequests:i_control <- R5
	mov r7, r2
.Ltmp340:
	#DEBUG_VALUE: VendorRequests:sp <- R7
	mov r4, r1
.Ltmp341:
	#DEBUG_VALUE: VendorRequests:ep0_in <- R4
	mov r6, r0
.Ltmp342:
	#DEBUG_VALUE: result <- 1
	#DEBUG_VALUE: VendorRequests:ep0_out <- R6
	ldc r0, 2
	.loc	3 28 0 prologue_end     # C:/Users/user/workspace/module_vocalfusion/src/vendorrequests.xc:28:0
.Ltmp343:
	ld8u r0, r7[r0]
	.loc	3 28 0                  # C:/Users/user/workspace/module_vocalfusion/src/vendorrequests.xc:28:0
	shl r0, r0, 7
	mkmsk r9, 1
	.loc	3 28 0                  # C:/Users/user/workspace/module_vocalfusion/src/vendorrequests.xc:28:0
	ld8u r1, r7[r9]
	.loc	3 28 0                  # C:/Users/user/workspace/module_vocalfusion/src/vendorrequests.xc:28:0
	shl r1, r1, 5
	.loc	3 28 0                  # C:/Users/user/workspace/module_vocalfusion/src/vendorrequests.xc:28:0
	or r0, r1, r0
	.loc	3 28 0                  # C:/Users/user/workspace/module_vocalfusion/src/vendorrequests.xc:28:0
	ldc r10, 0
	ld8u r1, r7[r10]
	.loc	3 28 0                  # C:/Users/user/workspace/module_vocalfusion/src/vendorrequests.xc:28:0
	or r0, r0, r1
	ldc r1, 64
	.loc	3 28 0                  # C:/Users/user/workspace/module_vocalfusion/src/vendorrequests.xc:28:0
	eq r1, r0, r1
	bf r1, .LBB58_1
.Ltmp344:
# BB#4:                                 # %switchcase
.Lxtalabel1:
	#DEBUG_VALUE: VendorRequests:ep0_out <- R6
	#DEBUG_VALUE: VendorRequests:ep0_in <- R4
	#DEBUG_VALUE: VendorRequests:sp <- R7
	#DEBUG_VALUE: VendorRequests:i_control <- R5
	#DEBUG_VALUE: result <- 1
	ldaw r1, sp[6]
	ldaw r2, sp[5]
.Ltmp345:
	#DEBUG_VALUE: len <- [R2+0]
	ldc r8, 2048
	.loc	3 30 0                  # C:/Users/user/workspace/module_vocalfusion/src/vendorrequests.xc:30:0
	mov r0, r6
	mov r3, r8
.Lxta.call_labels0:
	bl XUD_GetBuffer
.Ltmp346:
	#DEBUG_VALUE: result <- R0
	bt r0, .LBB58_3
.Ltmp347:
# BB#5:                                 # %iftrue
.Lxtalabel2:
	#DEBUG_VALUE: VendorRequests:ep0_in <- R4
	#DEBUG_VALUE: VendorRequests:sp <- R7
	#DEBUG_VALUE: VendorRequests:i_control <- R5
	.loc	3 32 9                  # C:/Users/user/workspace/module_vocalfusion/src/vendorrequests.xc:32:9
	add r0, r7, 6
	.loc	3 32 9                  # C:/Users/user/workspace/module_vocalfusion/src/vendorrequests.xc:32:9
	add r1, r7, 4
	.loc	3 32 9                  # C:/Users/user/workspace/module_vocalfusion/src/vendorrequests.xc:32:9
	add r2, r7, 8
	.loc	3 32 9                  # C:/Users/user/workspace/module_vocalfusion/src/vendorrequests.xc:32:9
	ld16s r2, r2[r10]
	ld16s r1, r1[r10]
	ld16s r0, r0[r10]
	mkmsk r3, 2
	std r3, r8, sp[1]
	zext r0, 16
	zext r1, 16
	zext r2, 16
	stw r5, sp[1]
	ldaw r3, sp[6]
.Lxta.call_labels1:
	bl _Scontrol_process_usb_set_request_0
	mov r1, r0
	mov r0, r9
	bt r1, .LBB58_3
.Ltmp348:
# BB#6:                                 # %iftrue12
.Lxtalabel3:
	#DEBUG_VALUE: VendorRequests:ep0_in <- R4
	.loc	3 36 0                  # C:/Users/user/workspace/module_vocalfusion/src/vendorrequests.xc:36:0
	mov r0, r4
.Lxta.call_labels2:
	bl XUD_DoSetRequestStatus
.Ltmp349:
	#DEBUG_VALUE: result <- R0
	bu .LBB58_3
.Ltmp350:
.LBB58_1:                               # %allocas
.Lxtalabel4:
	#DEBUG_VALUE: VendorRequests:ep0_out <- R6
	#DEBUG_VALUE: VendorRequests:ep0_in <- R4
	#DEBUG_VALUE: VendorRequests:sp <- R7
	#DEBUG_VALUE: VendorRequests:i_control <- R5
	ldc r1, 192
	eq r0, r0, r1
	bf r0, .LBB58_2
.Ltmp351:
# BB#7:                                 # %switchcase10
.Lxtalabel5:
	#DEBUG_VALUE: VendorRequests:ep0_out <- R6
	#DEBUG_VALUE: VendorRequests:ep0_in <- R4
	#DEBUG_VALUE: VendorRequests:sp <- R7
	#DEBUG_VALUE: VendorRequests:i_control <- R5
	.loc	3 47 7                  # C:/Users/user/workspace/module_vocalfusion/src/vendorrequests.xc:47:7
	add r0, r7, 6
	.loc	3 47 7                  # C:/Users/user/workspace/module_vocalfusion/src/vendorrequests.xc:47:7
	add r1, r7, 4
	.loc	3 47 7                  # C:/Users/user/workspace/module_vocalfusion/src/vendorrequests.xc:47:7
	add r2, r7, 8
	.loc	3 47 7                  # C:/Users/user/workspace/module_vocalfusion/src/vendorrequests.xc:47:7
	ld16s r7, r2[r10]
.Ltmp352:
	zext r7, 16
	.loc	3 47 7                  # C:/Users/user/workspace/module_vocalfusion/src/vendorrequests.xc:47:7
	ld16s r1, r1[r10]
	ld16s r0, r0[r10]
	mkmsk r2, 2
	ldc r8, 2048
	std r2, r8, sp[1]
	zext r0, 16
	zext r1, 16
	stw r5, sp[1]
	ldaw r3, sp[6]
	mov r2, r7
.Lxta.call_labels3:
	bl _Scontrol_process_usb_get_request_0
	mov r1, r0
	mov r0, r9
	bt r1, .LBB58_3
.Ltmp353:
# BB#8:                                 # %iftrue21
.Lxtalabel6:
	#DEBUG_VALUE: VendorRequests:ep0_out <- R6
	#DEBUG_VALUE: VendorRequests:ep0_in <- R4
	.loc	3 48 0                  # C:/Users/user/workspace/module_vocalfusion/src/vendorrequests.xc:48:0
	stw r7, sp[5]
	.loc	3 49 0                  # C:/Users/user/workspace/module_vocalfusion/src/vendorrequests.xc:49:0
	stw r8, sp[2]
	stw r7, sp[1]
	ldaw r2, sp[6]
	mov r0, r6
	mov r1, r4
	mov r3, r7
.Lxta.call_labels4:
	bl XUD_DoGetRequest
.Ltmp354:
	#DEBUG_VALUE: result <- R0
	bu .LBB58_3
.Ltmp355:
.LBB58_2:
	mov r0, r9
.LBB58_3:                               # %switchdone
.Lxtalabel7:
	ldw r10, sp[524]                # 4-byte Folded Reload
	ldw r8, sp[522]                 # 4-byte Folded Reload
	ldw r9, sp[523]                 # 4-byte Folded Reload
	ldw r6, sp[520]                 # 4-byte Folded Reload
	ldw r7, sp[521]                 # 4-byte Folded Reload
	ldw r4, sp[518]                 # 4-byte Folded Reload
	ldw r5, sp[519]                 # 4-byte Folded Reload
	retsp 526
	# RETURN_REG_HOLDER
	.cc_bottom VendorRequests.function
	.set	VendorRequests.nstackwords,((XUD_GetBuffer.nstackwords $M _Scontrol_process_usb_set_request_0.nstackwords $M XUD_DoSetRequestStatus.nstackwords $M _Scontrol_process_usb_get_request_0.nstackwords $M XUD_DoGetRequest.nstackwords) + 526)
	.globl	VendorRequests.nstackwords
	.set	VendorRequests.maxcores,XUD_DoGetRequest.maxcores $M XUD_DoSetRequestStatus.maxcores $M XUD_GetBuffer.maxcores $M _Scontrol_process_usb_get_request_0.maxcores $M _Scontrol_process_usb_set_request_0.maxcores $M 1
	.globl	VendorRequests.maxcores
	.set	VendorRequests.maxtimers,XUD_DoGetRequest.maxtimers $M XUD_DoSetRequestStatus.maxtimers $M XUD_GetBuffer.maxtimers $M _Scontrol_process_usb_get_request_0.maxtimers $M _Scontrol_process_usb_set_request_0.maxtimers $M 0
	.globl	VendorRequests.maxtimers
	.set	VendorRequests.maxchanends,XUD_DoGetRequest.maxchanends $M XUD_DoSetRequestStatus.maxchanends $M XUD_GetBuffer.maxchanends $M _Scontrol_process_usb_get_request_0.maxchanends $M _Scontrol_process_usb_set_request_0.maxchanends $M 0
	.globl	VendorRequests.maxchanends
.Ltmp356:
	.size	VendorRequests, .Ltmp356-VendorRequests
.Lfunc_end58:
	.cfi_endproc

	.globl	VendorRequests_Init
	.align	4
	.type	VendorRequests_Init,@function
	.cc_top VendorRequests_Init.function,VendorRequests_Init
VendorRequests_Init:                    # @VendorRequests_Init
.Lfunc_begin59:
	.loc	3 17 0                  # C:/Users/user/workspace/module_vocalfusion/src/vendorrequests.xc:17:0
	.cfi_startproc
	.issue_mode single
# BB#0:                                 # %allocas
.Lxtalabel8:
	ENTSP_lu6 4
.Ltmp357:
	.cfi_def_cfa_offset 16
.Ltmp358:
	.cfi_offset 15, 0
	stw r4, sp[2]                   # 4-byte Folded Spill
.Ltmp359:
	.cfi_offset 4, -8
	#DEBUG_VALUE: VendorRequests_Init:i_control <- R0
	mov r4, r0
.Ltmp360:
	#DEBUG_VALUE: VendorRequests_Init:i_control <- R4
	.loc	3 18 0 prologue_end     # C:/Users/user/workspace/module_vocalfusion/src/vendorrequests.xc:18:0
.Lxta.call_labels5:
	bl control_init
	.loc	3 19 0                  # C:/Users/user/workspace/module_vocalfusion/src/vendorrequests.xc:19:0
	mov r0, r4
.Ltmp361:
	#DEBUG_VALUE: VendorRequests_Init:i_control <- R0
.Lxta.call_labels6:
	bl _Scontrol_register_resources_0
.Ltmp362:
	ldw r4, sp[2]                   # 4-byte Folded Reload
	retsp 4
	# RETURN_REG_HOLDER
.Ltmp363:
	.cc_bottom VendorRequests_Init.function
	.set	VendorRequests_Init.nstackwords,((control_init.nstackwords $M _Scontrol_register_resources_0.nstackwords) + 4)
	.globl	VendorRequests_Init.nstackwords
	.set	VendorRequests_Init.maxcores,_Scontrol_register_resources_0.maxcores $M control_init.maxcores $M 1
	.globl	VendorRequests_Init.maxcores
	.set	VendorRequests_Init.maxtimers,_Scontrol_register_resources_0.maxtimers $M control_init.maxtimers $M 0
	.globl	VendorRequests_Init.maxtimers
	.set	VendorRequests_Init.maxchanends,_Scontrol_register_resources_0.maxchanends $M control_init.maxchanends $M 0
	.globl	VendorRequests_Init.maxchanends
.Ltmp364:
	.size	VendorRequests_Init, .Ltmp364-VendorRequests_Init
.Lfunc_end59:
	.cfi_endproc

.Ldebug_end0:
	.file	4 "C:\\Program Files (x86)\\XMOS\\xTIMEcomposer\\Community_14.3.3\\target/include\\timer.h"
	.section	.xtacalltable,"",@progbits
.Lentries_start0:
	.long	.Lentries_end1-.Lentries_start0
	.long	0
	.ascii	"C:\\Users\\user\\workspace\\app_vf_spk_base\\.build_1i1o2_lin33_48k_usbctl_farenddsp"
	.byte	0
.cc_top cc_0,.Lxta.call_labels5
	.ascii	"C:/Users/user/workspace/module_vocalfusion/src/vendorrequests.xc"
	.byte	0
	.long	18
	.long	.Lxta.call_labels5
.cc_bottom cc_0
.cc_top cc_1,.Lxta.call_labels6
	.ascii	"C:/Users/user/workspace/module_vocalfusion/src/vendorrequests.xc"
	.byte	0
	.long	19
	.long	.Lxta.call_labels6
.cc_bottom cc_1
.cc_top cc_2,.Lxta.call_labels0
	.ascii	"C:/Users/user/workspace/module_vocalfusion/src/vendorrequests.xc"
	.byte	0
	.long	30
	.long	.Lxta.call_labels0
.cc_bottom cc_2
.cc_top cc_3,.Lxta.call_labels1
	.ascii	"C:/Users/user/workspace/module_vocalfusion/src/vendorrequests.xc"
	.byte	0
	.long	32
	.long	.Lxta.call_labels1
.cc_bottom cc_3
.cc_top cc_4,.Lxta.call_labels2
	.ascii	"C:/Users/user/workspace/module_vocalfusion/src/vendorrequests.xc"
	.byte	0
	.long	36
	.long	.Lxta.call_labels2
.cc_bottom cc_4
.cc_top cc_5,.Lxta.call_labels3
	.ascii	"C:/Users/user/workspace/module_vocalfusion/src/vendorrequests.xc"
	.byte	0
	.long	47
	.long	.Lxta.call_labels3
.cc_bottom cc_5
.cc_top cc_6,.Lxta.call_labels4
	.ascii	"C:/Users/user/workspace/module_vocalfusion/src/vendorrequests.xc"
	.byte	0
	.long	49
	.long	.Lxta.call_labels4
.cc_bottom cc_6
.Lentries_end1:
	.section	.xtalabeltable,"",@progbits
.Lentries_start2:
	.long	.Lentries_end3-.Lentries_start2
	.long	0
	.ascii	"C:\\Users\\user\\workspace\\app_vf_spk_base\\.build_1i1o2_lin33_48k_usbctl_farenddsp"
	.byte	0
.cc_top cc_7,.Lxtalabel8
	.ascii	"C:/Users/user/workspace/module_vocalfusion/src/vendorrequests.xc"
	.byte	0
	.long	17
	.long	20
	.long	.Lxtalabel8
.cc_bottom cc_7
.cc_top cc_8,.Lxtalabel0
	.ascii	"C:/Users/user/workspace/module_vocalfusion/src/vendorrequests.xc"
	.byte	0
	.long	23
	.long	26
	.long	.Lxtalabel0
.cc_bottom cc_8
.cc_top cc_9,.Lxtalabel4
	.ascii	"C:/Users/user/workspace/module_vocalfusion/src/vendorrequests.xc"
	.byte	0
	.long	23
	.long	26
	.long	.Lxtalabel4
.cc_bottom cc_9
.cc_top cc_10,.Lxtalabel0
	.ascii	"C:/Users/user/workspace/module_vocalfusion/src/vendorrequests.xc"
	.byte	0
	.long	28
	.long	29
	.long	.Lxtalabel0
.cc_bottom cc_10
.cc_top cc_11,.Lxtalabel4
	.ascii	"C:/Users/user/workspace/module_vocalfusion/src/vendorrequests.xc"
	.byte	0
	.long	28
	.long	29
	.long	.Lxtalabel4
.cc_bottom cc_11
.cc_top cc_12,.Lxtalabel1
	.ascii	"C:/Users/user/workspace/module_vocalfusion/src/vendorrequests.xc"
	.byte	0
	.long	30
	.long	31
	.long	.Lxtalabel1
.cc_bottom cc_12
.cc_top cc_13,.Lxtalabel2
	.ascii	"C:/Users/user/workspace/module_vocalfusion/src/vendorrequests.xc"
	.byte	0
	.long	32
	.long	32
	.long	.Lxtalabel2
.cc_bottom cc_13
.cc_top cc_14,.Lxtalabel3
	.ascii	"C:/Users/user/workspace/module_vocalfusion/src/vendorrequests.xc"
	.byte	0
	.long	36
	.long	37
	.long	.Lxtalabel3
.cc_bottom cc_14
.cc_top cc_15,.Lxtalabel2
	.ascii	"C:/Users/user/workspace/module_vocalfusion/src/vendorrequests.xc"
	.byte	0
	.long	38
	.long	39
	.long	.Lxtalabel2
.cc_bottom cc_15
.cc_top cc_16,.Lxtalabel5
	.ascii	"C:/Users/user/workspace/module_vocalfusion/src/vendorrequests.xc"
	.byte	0
	.long	47
	.long	47
	.long	.Lxtalabel5
.cc_bottom cc_16
.cc_top cc_17,.Lxtalabel6
	.ascii	"C:/Users/user/workspace/module_vocalfusion/src/vendorrequests.xc"
	.byte	0
	.long	48
	.long	49
	.long	.Lxtalabel6
.cc_bottom cc_17
.cc_top cc_18,.Lxtalabel6
	.ascii	"C:/Users/user/workspace/module_vocalfusion/src/vendorrequests.xc"
	.byte	0
	.long	51
	.long	51
	.long	.Lxtalabel6
.cc_bottom cc_18
.cc_top cc_19,.Lxtalabel5
	.ascii	"C:/Users/user/workspace/module_vocalfusion/src/vendorrequests.xc"
	.byte	0
	.long	52
	.long	53
	.long	.Lxtalabel5
.cc_bottom cc_19
.cc_top cc_20,.Lxtalabel7
	.ascii	"C:/Users/user/workspace/module_vocalfusion/src/vendorrequests.xc"
	.byte	0
	.long	56
	.long	57
	.long	.Lxtalabel7
.cc_bottom cc_20
.Lentries_end3:
	.section	.trap_info,"",@progbits
.Ltrap_info_entries_start0:
	.long	.Ltrap_info_entries_end0-.Ltrap_info_entries_start0
	.long	1
.Ltrap_info_entries_end0: