	.text
	.file	"dsp_statistics.c"
	.section	.cp.rodata.cst4,"aMc",@progbits,4
	.cc_top .LCPI0_0.data,.LCPI0_0
	.align	4
	.type	.LCPI0_0,@object
	.size	.LCPI0_0, 4
.LCPI0_0:
	.long	4294967292
	.cc_bottom .LCPI0_0.data
	.text
	.globl	dsp_vector_abs_sum
	.align	4
	.type	dsp_vector_abs_sum,@function
	.cc_top dsp_vector_abs_sum.function,dsp_vector_abs_sum
dsp_vector_abs_sum:
.Lfunc_begin0:
	.file	1 "C:/Users/user/workspace/lib_dsp/src\\dsp_statistics.c"
	.loc	1 14 0
	.cfi_startproc
	.issue_mode dual
	{
		nop
		dualentsp 10
	}
.Ltmp0:
	.cfi_def_cfa_offset 40
.Ltmp1:
	.cfi_offset 15, 0
	std r5, r4, sp[1]
.Ltmp2:
	.cfi_offset 4, -32
.Ltmp3:
	.cfi_offset 5, -28
	std r7, r6, sp[2]
.Ltmp4:
	.cfi_offset 6, -24
.Ltmp5:
	.cfi_offset 7, -20
	std r9, r8, sp[3]
.Ltmp6:
	.cfi_offset 8, -16
.Ltmp7:
	.cfi_offset 9, -12
.Ltmp8:
	.cfi_offset 10, -8
.Ltmp9:
	{
		ldc r3, 4
		stw r10, sp[8]
	}
	.loc	1 17 5 prologue_end
.Ltmp10:
	{
		lss r3, r1, r3
		nop
	}
	bt r3, .LBB0_1
.Ltmp11:
	{
		mkmsk r3, 1
		nop
	}
	.loc	1 21 9
.Ltmp12:
	{
		shl r5, r3, r2
		sub r11, r1, 4
	}
	{
		nop
		stw r11, sp[1]
	}
	ldw r3, cp[.LCPI0_0]
.Ltmp13:
	.loc	1 17 5
	{
		and r7, r11, r3
		nop
	}
	ldaw r3, r0[r7]
	ldaw r3, r3[4]
.Ltmp14:
	{
		ldc r3, 0
		stw r3, sp[0]
	}
	{
		mkmsk r8, 2
		mov r11, r3
	}
.Ltmp15:
.LBB0_3:
	.loc	1 19 9
	#APP
	ldd r9,r10,r0[0]
	#NO_APP
	ashr r6, r9, 32
	{
		add r9, r9, r6
		nop
	}
	ashr r4, r10, 32
	{
		add r10, r10, r4
		nop
	}
	.loc	1 20 13
.Ltmp16:
	xor r4, r10, r4
.Ltmp17:
	.loc	1 20 36
	xor r6, r9, r6
.Ltmp18:
	.loc	1 21 9
	#APP
	maccs r11,r3,r4,r5
	#NO_APP
	.loc	1 22 9
	#APP
	maccs r11,r3,r6,r5
	#NO_APP
	.loc	1 23 9
	#APP
	ldd r4,r6,r0[1]
	#NO_APP
	ashr r9, r4, 32
	{
		add r4, r4, r9
		nop
	}
	ashr r10, r6, 32
	{
		add r6, r6, r10
		nop
	}
	.loc	1 24 13
.Ltmp19:
	xor r6, r6, r10
.Ltmp20:
	.loc	1 24 36
	xor r4, r4, r9
.Ltmp21:
	.loc	1 25 9
	#APP
	maccs r11,r3,r6,r5
	#NO_APP
	.loc	1 26 9
	#APP
	maccs r11,r3,r4,r5
	#NO_APP
	.loc	1 27 9
	{
		sub r1, r1, 4
		nop
	}
	.loc	1 27 29
	ldaw r0, r0[4]
.Ltmp22:
	.loc	1 17 5
	{
		lss r4, r8, r1
		nop
	}
	.loc	1 17 5
	bt r4, .LBB0_3
.Ltmp23:
	{
		nop
		ldw r0, sp[1]
	}
.Ltmp24:
	.loc	1 17 5
	{
		sub r1, r0, r7
		ldw r0, sp[0]
	}
.Ltmp25:
	bu .LBB0_5
.LBB0_1:
.Ltmp26:
	{
		ldc r3, 0
		nop
	}
	{
		mov r11, r3
		nop
	}
.Ltmp27:
.LBB0_5:
	.loc	1 29 5
	{
		eq r4, r1, 1
		nop
	}
	bt r4, .LBB0_10
	{
		eq r4, r1, 2
		nop
	}
	bf r4, .LBB0_7
	.loc	1 41 9
.Ltmp28:
	#APP
	ldd r0,r1,r0[0]
	#NO_APP
	ashr r4, r0, 32
	{
		add r0, r0, r4
		nop
	}
	ashr r5, r1, 32
	{
		add r1, r1, r5
		nop
	}
	.loc	1 42 13
.Ltmp29:
	xor r1, r1, r5
.Ltmp30:
	.loc	1 42 36
	xor r0, r0, r4
	{
		mkmsk r4, 1
		nop
	}
.Ltmp31:
	.loc	1 43 9
	{
		shl r4, r4, r2
		nop
	}
	.loc	1 43 9
	#APP
	maccs r11,r3,r1,r4
	#NO_APP
	.loc	1 44 9
	#APP
	maccs r11,r3,r0,r4
	#NO_APP
	bu .LBB0_11
.LBB0_10:
	{
		nop
		ldw r0, r0[0]
	}
.Ltmp32:
	.loc	1 48 9
	ashr r1, r0, 32
	{
		add r0, r0, r1
		nop
	}
.Ltmp33:
	.loc	1 48 37
	xor r0, r0, r1
	{
		mkmsk r1, 1
		nop
	}
.Ltmp34:
	.loc	1 49 9
	{
		shl r1, r1, r2
		nop
	}
	.loc	1 49 9
	#APP
	maccs r11,r3,r0,r1
	#NO_APP
	bu .LBB0_11
.LBB0_7:
	{
		eq r1, r1, 3
		nop
	}
	bf r1, .LBB0_11
	.loc	1 32 9
	#APP
	ldd r1,r4,r0[0]
	#NO_APP
	ashr r5, r1, 32
	{
		add r1, r1, r5
		nop
	}
	ashr r6, r4, 32
	{
		add r4, r4, r6
		nop
	}
	.loc	1 33 13
.Ltmp35:
	xor r4, r4, r6
.Ltmp36:
	.loc	1 33 36
	xor r1, r1, r5
	{
		mkmsk r5, 1
		nop
	}
.Ltmp37:
	.loc	1 34 9
	{
		shl r5, r5, r2
		nop
	}
	.loc	1 34 9
	#APP
	maccs r11,r3,r4,r5
	#NO_APP
	.loc	1 35 9
	#APP
	maccs r11,r3,r1,r5
	#NO_APP
	{
		nop
		ldw r0, r0[2]
	}
.Ltmp38:
	.loc	1 36 9
	ashr r1, r0, 32
	{
		add r0, r0, r1
		nop
	}
.Ltmp39:
	.loc	1 36 37
	xor r0, r0, r1
.Ltmp40:
	.loc	1 37 9
	#APP
	maccs r11,r3,r0,r5
	#NO_APP
.Ltmp41:
.LBB0_11:
	.loc	1 52 5
	#APP
	lsats r11,r3,r2
	#NO_APP
	.loc	1 53 5
	#APP
	lextract r0,r11,r3,r2,32
	#NO_APP
.Ltmp42:
	{
		nop
		ldw r10, sp[8]
	}
	.loc	1 54 5
	ldd r9, r8, sp[3]
	ldd r7, r6, sp[2]
	ldd r5, r4, sp[1]
	{
		nop
		retsp 10
	}
	# RETURN_REG_HOLDER
.Ltmp43:
	.cc_bottom dsp_vector_abs_sum.function
	.set	dsp_vector_abs_sum.nstackwords,10
	.globl	dsp_vector_abs_sum.nstackwords
	.set	dsp_vector_abs_sum.maxcores,1
	.globl	dsp_vector_abs_sum.maxcores
	.set	dsp_vector_abs_sum.maxtimers,0
	.globl	dsp_vector_abs_sum.maxtimers
	.set	dsp_vector_abs_sum.maxchanends,0
	.globl	dsp_vector_abs_sum.maxchanends
.Ltmp44:
	.size	dsp_vector_abs_sum, .Ltmp44-dsp_vector_abs_sum
.Lfunc_end0:
	.cfi_endproc

	.globl	dsp_vector_mean
	.align	4
	.type	dsp_vector_mean,@function
	.cc_top dsp_vector_mean.function,dsp_vector_mean
dsp_vector_mean:
.Lfunc_begin1:
	.loc	1 62 0
	.cfi_startproc
	.issue_mode dual
	{
		nop
		dualentsp 4
	}
.Ltmp45:
	.cfi_def_cfa_offset 16
.Ltmp46:
	.cfi_offset 15, 0
	std r5, r4, sp[1]
.Ltmp47:
	.cfi_offset 4, -8
.Ltmp48:
	.cfi_offset 5, -4
.Ltmp49:
	{
		mov r4, r2
		mov r5, r1
	}
.Ltmp50:
	.loc	1 63 26 prologue_end
	bl dsp_vector_abs_sum
.Ltmp51:
	.loc	1 64 12
	{
		shl r1, r5, r4
		mov r2, r4
	}
	.loc	1 64 12
	bl dsp_math_divide
.Ltmp52:
	.loc	1 64 12
	ldd r5, r4, sp[1]
	{
		nop
		retsp 4
	}
	# RETURN_REG_HOLDER
.Ltmp53:
	.cc_bottom dsp_vector_mean.function
	.set	dsp_vector_mean.nstackwords,((dsp_vector_abs_sum.nstackwords $M dsp_math_divide.nstackwords) + 4)
	.globl	dsp_vector_mean.nstackwords
	.set	dsp_vector_mean.maxcores,dsp_math_divide.maxcores $M dsp_vector_abs_sum.maxcores $M 1
	.globl	dsp_vector_mean.maxcores
	.set	dsp_vector_mean.maxtimers,dsp_math_divide.maxtimers $M dsp_vector_abs_sum.maxtimers $M 0
	.globl	dsp_vector_mean.maxtimers
	.set	dsp_vector_mean.maxchanends,dsp_math_divide.maxchanends $M dsp_vector_abs_sum.maxchanends $M 0
	.globl	dsp_vector_mean.maxchanends
.Ltmp54:
	.size	dsp_vector_mean, .Ltmp54-dsp_vector_mean
.Lfunc_end1:
	.cfi_endproc

	.section	.cp.rodata.cst4,"aMc",@progbits,4
	.cc_top .LCPI2_0.data,.LCPI2_0
	.align	4
	.type	.LCPI2_0,@object
	.size	.LCPI2_0, 4
.LCPI2_0:
	.long	4294967292
	.cc_bottom .LCPI2_0.data
	.text
	.globl	dsp_vector_power
	.align	4
	.type	dsp_vector_power,@function
	.cc_top dsp_vector_power.function,dsp_vector_power
dsp_vector_power:
.Lfunc_begin2:
	.loc	1 72 0
	.cfi_startproc
	.issue_mode dual
	{
		nop
		dualentsp 0
	}
	{
		extsp 6
		nop
	}
.Ltmp55:
	.cfi_def_cfa_offset 24
	std r5, r4, sp[0]
.Ltmp56:
	.cfi_offset 4, -24
.Ltmp57:
	.cfi_offset 5, -20
	std r7, r6, sp[1]
.Ltmp58:
	.cfi_offset 6, -16
.Ltmp59:
	.cfi_offset 7, -12
	std r9, r8, sp[2]
.Ltmp60:
	.cfi_offset 8, -8
.Ltmp61:
	.cfi_offset 9, -4
.Ltmp62:
	{
		mov r3, r1
		nop
	}
.Ltmp63:
.LBB2_1:
	{
		mov r11, r3
		nop
	}
	.loc	1 76 29 prologue_end
.Ltmp64:
	{
		shr r3, r11, 1
		nop
	}
.Ltmp65:
	.loc	1 76 5
	bt r11, .LBB2_1
.Ltmp66:
	{
		ldc r3, 4
		nop
	}
	.loc	1 77 5
	{
		lss r3, r1, r3
		nop
	}
	bt r3, .LBB2_3
.Ltmp67:
	.loc	1 77 5
	{
		sub r4, r1, 4
		nop
	}
	ldw r3, cp[.LCPI2_0]
	.loc	1 77 5
	{
		and r6, r4, r3
		nop
	}
	ldaw r3, r0[r6]
	ldaw r5, r3[4]
.Ltmp68:
	{
		ldc r3, 0
		mkmsk r7, 2
	}
	{
		mov r11, r3
		nop
	}
.Ltmp69:
.LBB2_5:
	.loc	1 79 9
	#APP
	ldd r9,r8,r0[0]
	#NO_APP
	.loc	1 80 9
	#APP
	maccs r11,r3,r8,r8
	#NO_APP
	.loc	1 81 9
	#APP
	maccs r11,r3,r9,r9
	#NO_APP
	.loc	1 82 9
	#APP
	ldd r9,r8,r0[1]
	#NO_APP
	.loc	1 83 9
	#APP
	maccs r11,r3,r8,r8
	#NO_APP
	.loc	1 84 9
	#APP
	maccs r11,r3,r9,r9
	#NO_APP
	.loc	1 85 9
	{
		sub r1, r1, 4
		nop
	}
	.loc	1 85 29
	ldaw r0, r0[4]
.Ltmp70:
	.loc	1 77 5
	{
		lss r8, r7, r1
		nop
	}
	.loc	1 77 5
	bt r8, .LBB2_5
.Ltmp71:
	.loc	1 77 5
	{
		sub r1, r4, r6
		mov r0, r5
	}
.Ltmp72:
	bu .LBB2_7
.LBB2_3:
.Ltmp73:
	{
		ldc r3, 0
		nop
	}
	{
		mov r11, r3
		nop
	}
.Ltmp74:
.LBB2_7:
	.loc	1 87 5
	{
		eq r4, r1, 1
		nop
	}
	bt r4, .LBB2_12
	{
		eq r4, r1, 2
		nop
	}
	bf r4, .LBB2_9
	.loc	1 98 9
.Ltmp75:
	#APP
	ldd r1,r0,r0[0]
	#NO_APP
	.loc	1 99 9
	#APP
	maccs r11,r3,r0,r0
	#NO_APP
	.loc	1 100 9
	#APP
	maccs r11,r3,r1,r1
	#NO_APP
	bu .LBB2_13
.LBB2_12:
	{
		nop
		ldw r0, r0[0]
	}
.Ltmp76:
	.loc	1 105 9
	#APP
	maccs r11,r3,r0,r0
	#NO_APP
	bu .LBB2_13
.Ltmp77:
.LBB2_9:
	{
		eq r1, r1, 3
		nop
	}
	bf r1, .LBB2_13
	.loc	1 90 9
	#APP
	ldd r4,r1,r0[0]
	#NO_APP
	.loc	1 91 9
	#APP
	maccs r11,r3,r1,r1
	#NO_APP
	.loc	1 92 9
	#APP
	maccs r11,r3,r4,r4
	#NO_APP
	{
		nop
		ldw r0, r0[2]
	}
.Ltmp78:
	.loc	1 94 9
	#APP
	maccs r11,r3,r0,r0
	#NO_APP
.Ltmp79:
.LBB2_13:
	.loc	1 108 5
	#APP
	lsats r11,r3,r2
	#NO_APP
	.loc	1 109 5
	#APP
	lextract r0,r11,r3,r2,32
	#NO_APP
.Ltmp80:
	.loc	1 110 5
	ldd r9, r8, sp[2]
	ldd r7, r6, sp[1]
	ldd r5, r4, sp[0]
	{
		ldaw sp, sp[6]
		nop
	}
	{
		nop
		retsp 0
	}
	# RETURN_REG_HOLDER
.Ltmp81:
	.cc_bottom dsp_vector_power.function
	.set	dsp_vector_power.nstackwords,6
	.globl	dsp_vector_power.nstackwords
	.set	dsp_vector_power.maxcores,1
	.globl	dsp_vector_power.maxcores
	.set	dsp_vector_power.maxtimers,0
	.globl	dsp_vector_power.maxtimers
	.set	dsp_vector_power.maxchanends,0
	.globl	dsp_vector_power.maxchanends
.Ltmp82:
	.size	dsp_vector_power, .Ltmp82-dsp_vector_power
.Lfunc_end2:
	.cfi_endproc

	.globl	dsp_vector_rms
	.align	4
	.type	dsp_vector_rms,@function
	.cc_top dsp_vector_rms.function,dsp_vector_rms
dsp_vector_rms:
.Lfunc_begin3:
	.loc	1 119 0
	.cfi_startproc
	.issue_mode dual
	{
		nop
		dualentsp 4
	}
.Ltmp83:
	.cfi_def_cfa_offset 16
.Ltmp84:
	.cfi_offset 15, 0
	std r5, r4, sp[1]
.Ltmp85:
	.cfi_offset 4, -8
.Ltmp86:
	.cfi_offset 5, -4
.Ltmp87:
	{
		mov r4, r2
		mov r5, r1
	}
.Ltmp88:
	.loc	1 120 27 prologue_end
	bl dsp_vector_power
.Ltmp89:
	.loc	1 121 27
	{
		shl r1, r5, r4
		mov r2, r4
	}
	.loc	1 121 27
	bl dsp_math_divide
.Ltmp90:
	.loc	1 122 27
	bl dsp_math_sqrt
.Ltmp91:
	.loc	1 123 5
	ldd r5, r4, sp[1]
	{
		nop
		retsp 4
	}
	# RETURN_REG_HOLDER
.Ltmp92:
	.cc_bottom dsp_vector_rms.function
	.set	dsp_vector_rms.nstackwords,((dsp_vector_power.nstackwords $M dsp_math_divide.nstackwords $M dsp_math_sqrt.nstackwords) + 4)
	.globl	dsp_vector_rms.nstackwords
	.set	dsp_vector_rms.maxcores,dsp_math_divide.maxcores $M dsp_math_sqrt.maxcores $M dsp_vector_power.maxcores $M 1
	.globl	dsp_vector_rms.maxcores
	.set	dsp_vector_rms.maxtimers,dsp_math_divide.maxtimers $M dsp_math_sqrt.maxtimers $M dsp_vector_power.maxtimers $M 0
	.globl	dsp_vector_rms.maxtimers
	.set	dsp_vector_rms.maxchanends,dsp_math_divide.maxchanends $M dsp_math_sqrt.maxchanends $M dsp_vector_power.maxchanends $M 0
	.globl	dsp_vector_rms.maxchanends
.Ltmp93:
	.size	dsp_vector_rms, .Ltmp93-dsp_vector_rms
.Lfunc_end3:
	.cfi_endproc

	.section	.cp.rodata.cst4,"aMc",@progbits,4
	.cc_top .LCPI4_0.data,.LCPI4_0
	.align	4
	.type	.LCPI4_0,@object
	.size	.LCPI4_0, 4
.LCPI4_0:
	.long	4294967292
	.cc_bottom .LCPI4_0.data
	.text
	.globl	dsp_vector_dotprod
	.align	4
	.type	dsp_vector_dotprod,@function
	.cc_top dsp_vector_dotprod.function,dsp_vector_dotprod
dsp_vector_dotprod:
.Lfunc_begin4:
	.loc	1 133 0
	.cfi_startproc
	.issue_mode dual
	{
		nop
		dualentsp 12
	}
.Ltmp94:
	.cfi_def_cfa_offset 48
.Ltmp95:
	.cfi_offset 15, 0
	std r5, r4, sp[2]
.Ltmp96:
	.cfi_offset 4, -32
.Ltmp97:
	.cfi_offset 5, -28
	std r7, r6, sp[3]
.Ltmp98:
	.cfi_offset 6, -24
.Ltmp99:
	.cfi_offset 7, -20
	std r9, r8, sp[4]
.Ltmp100:
	.cfi_offset 8, -16
.Ltmp101:
	.cfi_offset 9, -12
.Ltmp102:
	.cfi_offset 10, -8
.Ltmp103:
	{
		sub r11, r3, 1
		stw r10, sp[10]
	}
	{
		mkmsk r4, 1
		nop
	}
.Ltmp104:
	.loc	1 135 5 prologue_end
	{
		shl r11, r4, r11
		ldc r4, 4
	}
.Ltmp105:
	.loc	1 137 5
	{
		lss r4, r2, r4
		nop
	}
	bt r4, .LBB4_1
.Ltmp106:
	{
		sub r3, r2, 4
		stw r3, sp[3]
	}
	{
		nop
		stw r3, sp[2]
	}
	ldw r4, cp[.LCPI4_0]
	.loc	1 137 5
	{
		and r3, r3, r4
		nop
	}
	.loc	1 137 5
	{
		add r8, r3, 4
		stw r3, sp[0]
	}
	ldaw r3, r0[r8]
.Ltmp107:
	{
		ldc r4, 0
		stw r3, sp[1]
	}
	{
		mkmsk r9, 2
		mov r10, r1
	}
.Ltmp108:
.LBB4_3:
	.loc	1 139 9
	#APP
	ldd r6,r5,r0[0]
	#NO_APP
	.loc	1 140 9
	#APP
	ldd r7,r3,r10[0]
	#NO_APP
	.loc	1 141 9
	#APP
	maccs r4,r11,r5,r3
	#NO_APP
	.loc	1 142 9
	#APP
	maccs r4,r11,r6,r7
	#NO_APP
	.loc	1 143 9
	#APP
	ldd r3,r5,r0[1]
	#NO_APP
	.loc	1 144 9
	#APP
	ldd r6,r7,r10[1]
	#NO_APP
	.loc	1 145 9
	#APP
	maccs r4,r11,r5,r7
	#NO_APP
	.loc	1 146 9
	#APP
	maccs r4,r11,r3,r6
	#NO_APP
	.loc	1 147 9
	{
		sub r2, r2, 4
		nop
	}
	.loc	1 147 29
	ldaw r0, r0[4]
	.loc	1 147 50
	ldaw r10, r10[4]
.Ltmp109:
	.loc	1 137 5
	{
		lss r3, r9, r2
		nop
	}
	.loc	1 137 5
	bt r3, .LBB4_3
.Ltmp110:
	ldaw r1, r1[r8]
.Ltmp111:
	{
		nop
		ldw r0, sp[2]
	}
	{
		nop
		ldw r2, sp[0]
	}
.Ltmp112:
	.loc	1 137 5
	{
		sub r2, r0, r2
		ldw r0, sp[1]
	}
.Ltmp113:
	{
		nop
		ldw r3, sp[3]
	}
.Ltmp114:
	bu .LBB4_5
.Ltmp115:
.LBB4_1:
	{
		ldc r4, 0
		nop
	}
.Ltmp116:
.LBB4_5:
	.loc	1 149 5
	{
		eq r5, r2, 1
		nop
	}
	bt r5, .LBB4_10
.Ltmp117:
	{
		eq r5, r2, 2
		nop
	}
	bf r5, .LBB4_7
.Ltmp118:
	.loc	1 160 9
	#APP
	ldd r2,r0,r0[0]
	#NO_APP
	.loc	1 161 9
	#APP
	ldd r5,r1,r1[0]
	#NO_APP
	.loc	1 162 9
	#APP
	maccs r4,r11,r0,r1
	#NO_APP
	.loc	1 163 9
	#APP
	maccs r4,r11,r2,r5
	#NO_APP
	bu .LBB4_11
.Ltmp119:
.LBB4_10:
	{
		nop
		ldw r0, r0[0]
	}
.Ltmp120:
	{
		nop
		ldw r1, r1[0]
	}
.Ltmp121:
	.loc	1 167 9
	#APP
	maccs r4,r11,r0,r1
	#NO_APP
	bu .LBB4_11
.Ltmp122:
.LBB4_7:
	{
		eq r2, r2, 3
		nop
	}
	bf r2, .LBB4_11
.Ltmp123:
	.loc	1 152 9
	#APP
	ldd r7,r2,r0[0]
	#NO_APP
	.loc	1 153 9
	#APP
	ldd r6,r5,r1[0]
	#NO_APP
	.loc	1 154 9
	#APP
	maccs r4,r11,r2,r5
	#NO_APP
	.loc	1 155 9
	#APP
	maccs r4,r11,r7,r6
	#NO_APP
	{
		nop
		ldw r0, r0[2]
	}
.Ltmp124:
	{
		nop
		ldw r1, r1[2]
	}
.Ltmp125:
	.loc	1 157 9
	#APP
	maccs r4,r11,r0,r1
	#NO_APP
.Ltmp126:
.LBB4_11:
	.loc	1 171 5
	#APP
	lsats r4,r11,r3
	#NO_APP
	.loc	1 172 5
	#APP
	lextract r0,r4,r11,r3,32
	#NO_APP
.Ltmp127:
	{
		nop
		ldw r10, sp[10]
	}
	.loc	1 173 5
	ldd r9, r8, sp[4]
	ldd r7, r6, sp[3]
	ldd r5, r4, sp[2]
	{
		nop
		retsp 12
	}
	# RETURN_REG_HOLDER
.Ltmp128:
	.cc_bottom dsp_vector_dotprod.function
	.set	dsp_vector_dotprod.nstackwords,12
	.globl	dsp_vector_dotprod.nstackwords
	.set	dsp_vector_dotprod.maxcores,1
	.globl	dsp_vector_dotprod.maxcores
	.set	dsp_vector_dotprod.maxtimers,0
	.globl	dsp_vector_dotprod.maxtimers
	.set	dsp_vector_dotprod.maxchanends,0
	.globl	dsp_vector_dotprod.maxchanends
.Ltmp129:
	.size	dsp_vector_dotprod, .Ltmp129-dsp_vector_dotprod
.Lfunc_end4:
	.cfi_endproc

.Ldebug_end0:
	.file	2 "C:\\Program Files (x86)\\XMOS\\xTIMEcomposer\\Community_14.3.3\\target/include\\stdint.h"
	.section	.trap_info,"",@progbits
.Ltrap_info_entries_start0:
	.long	.Ltrap_info_entries_end0-.Ltrap_info_entries_start0
	.long	1
.Ltrap_info_entries_end0: