	.text
	.file	"C:/Users/user/workspace/lib_dsp/src/fft/dsp_fft_real.xc"
                                        # Start of file scope inline assembly
	.inline_definition dsp_math_cos
	.inline_definition dsp_math_sinh
	.inline_definition dsp_math_cosh
	.inline_definition atanl
	.inline_definition cosl
	.inline_definition sinl
	.inline_definition tanl
	.inline_definition tanhl
	.inline_definition frexpl
	.inline_definition modfl
	.inline_definition ceill
	.inline_definition fabsl
	.inline_definition floorl
	.inline_definition log1pl
	.inline_definition expm1l
	.inline_definition acosl
	.inline_definition asinl
	.inline_definition atan2l
	.inline_definition coshl
	.inline_definition sinhl
	.inline_definition expl
	.inline_definition ldexpl
	.inline_definition logl
	.inline_definition log10l
	.inline_definition log2
	.inline_definition log2f
	.inline_definition log2l
	.inline_definition powl
	.inline_definition sqrtl
	.inline_definition fmodl
	.inline_definition hypotl
	.inline_definition copysignl
	.inline_definition nanl
	.inline_definition ilogbl
	.inline_definition logbl
	.inline_definition asinhl
	.inline_definition cbrtl
	.inline_definition nextafterl
	.inline_definition nexttoward
	.inline_definition nexttowardf
	.inline_definition nexttowardl
	.inline_definition rintl
	.inline_definition scalbnl
	.inline_definition exp2l
	.inline_definition scalblnl
	.inline_definition tgammal
	.inline_definition nearbyintl
	.inline_definition lrintl
	.inline_definition llrintl
	.inline_definition roundl
	.inline_definition lroundl
	.inline_definition llroundl
	.inline_definition truncl
	.inline_definition remquol
	.inline_definition fdiml
	.inline_definition fmaxl
	.inline_definition fminl
	.inline_definition fmal
	.inline_definition acoshl
	.inline_definition atanhl
	.inline_definition remainderl
	.inline_definition lgammal
	.inline_definition erfl
	.inline_definition erfcl
	.set usage.anon.0,0
	.set usage.anon.1,0
	.set usage.anon.2,0
	.set usage.anon.3,0
	.set usage.anon.4,0
	.set usage.anon.5,0
	.set usage.anon.6,0
	.set usage.anon.7,0
	.set usage.anon.8,0
	.set usage.anon.9,0
	.set usage.anon.10,0
	.set usage.anon.11,0
	.set usage.anon.12,0
	.set usage.anon.13,0
	.set usage.anon.14,0
	.set usage.anon.15,0
	.set usage.anon.16,0
	.set usage.anon.17,0
	.set usage.anon.18,0
	.set usage.anon.19,0
	.set usage.anon.20,0
	.set usage.anon.21,0
	.set usage.anon.22,0
	.set usage.anon.23,0
	.set usage.anon.24,0
	.set usage.anon.25,0
	.set usage.anon.26,0
	.set usage.anon.27,0
	.set usage.anon.28,0
	.set usage.anon.29,0
	.set usage.anon.30,0
	.set usage.anon.31,0
	.set usage.anon.32,0
	.set usage.anon.33,0
	.set usage.anon.34,0
	.set usage.anon.35,0
	.set usage.anon.36,0
	.set usage.anon.37,0
	.set usage.anon.38,0
	.set usage.anon.39,0
	.set usage.anon.40,0
	.set usage.anon.41,0
	.set usage.anon.42,0
	.set usage.anon.43,0
	.set usage.anon.44,0
	.set usage.anon.45,0
	.set usage.anon.46,0
	.set usage.anon.47,0
	.set usage.anon.48,0
	.set usage.anon.49,0
	.set usage.anon.50,0
	.set usage.anon.51,0
	.set usage.anon.52,0
	.set usage.anon.53,0
	.set usage.anon.54,0
	.set usage.anon.55,0
	.set usage.anon.56,0
	.set usage.anon.57,0
	.set usage.anon.58,0
	.set usage.anon.59,0
	.set usage.anon.60,0
	.set usage.anon.61,0
	.set usage.anon.62,0
	.set usage.anon.63,0
	.set usage.anon.64,0
	.set usage.anon.65,0
	.call dsp_fft_bit_reverse_and_inverse_real,dsp_fft_real_fix_inverse_xs2
	.call dsp_fft_bit_reverse_and_inverse_real,dsp_fft_inverse
	.call dsp_fft_bit_reverse_and_inverse_real,dsp_fft_bit_reverse
	.call dsp_fft_bit_reverse_and_forward_real,dsp_fft_real_fix_forward_xs2
	.call dsp_fft_bit_reverse_and_forward_real,dsp_fft_forward
	.call dsp_fft_bit_reverse_and_forward_real,dsp_fft_bit_reverse
	.call dsp_fft_real_fix_inverse,usage.anon.65
	.call dsp_fft_real_fix_inverse,usage.anon.64
	.call dsp_fft_real_fix_forward,usage.anon.65
	.call dsp_fft_real_fix_forward,usage.anon.64
	.call usage.anon.63,erfc
	.call usage.anon.62,erf
	.call usage.anon.61,lgamma
	.call usage.anon.60,remainder
	.call usage.anon.59,atanh
	.call usage.anon.58,acosh
	.call usage.anon.57,fma
	.call usage.anon.56,fmin
	.call usage.anon.55,fmax
	.call usage.anon.54,fdim
	.call usage.anon.53,remquo
	.call usage.anon.52,usage.anon.52
	.call usage.anon.51,llround
	.call usage.anon.50,lround
	.call usage.anon.49,round
	.call usage.anon.48,llrint
	.call usage.anon.47,lrint
	.call usage.anon.46,nearbyint
	.call usage.anon.45,tgamma
	.call usage.anon.44,scalbln
	.call usage.anon.43,exp2
	.call usage.anon.42,scalbn
	.call usage.anon.41,rint
	.call usage.anon.40,usage.anon.37
	.call usage.anon.39,nextafterf
	.call usage.anon.38,nextafter
	.call usage.anon.37,nextafter
	.call usage.anon.36,cbrt
	.call usage.anon.35,asinh
	.call usage.anon.34,logb
	.call usage.anon.33,ilogb
	.call usage.anon.32,nan
	.call usage.anon.31,copysign
	.call usage.anon.30,hypot
	.call usage.anon.29,fmod
	.call usage.anon.28,sqrt
	.call usage.anon.27,pow
	.call usage.anon.26,log
	.call usage.anon.25,logf
	.call usage.anon.24,log
	.call usage.anon.23,log10
	.call usage.anon.22,log
	.call usage.anon.21,ldexp
	.call usage.anon.20,exp
	.call usage.anon.19,sinh
	.call usage.anon.18,cosh
	.call usage.anon.17,atan2
	.call usage.anon.16,asin
	.call usage.anon.15,acos
	.call usage.anon.14,expm1
	.call usage.anon.13,log1p
	.call usage.anon.12,floor
	.call usage.anon.11,fabs
	.call usage.anon.10,ceil
	.call usage.anon.9,modf
	.call usage.anon.8,frexp
	.call usage.anon.7,tanh
	.call usage.anon.6,tan
	.call usage.anon.5,sin
	.call usage.anon.4,cos
	.call usage.anon.3,atan
	.call usage.anon.2,dsp_math_sinh_
	.call usage.anon.1,dsp_math_sinh_
	.call usage.anon.0,dsp_math_sin
	.set dsp_fft_real_fix_forward.locnoside, 0
	.set dsp_fft_real_fix_inverse.locnoside, 0
	.set dsp_fft_bit_reverse_and_forward_real.locnoside, 0
	.set dsp_fft_bit_reverse_and_inverse_real.locnoside, 0

                                        # End of file scope inline assembly
	.section	.cp.rodata.cst4,"aMc",@progbits,4
	.cc_top .LCPI0_0.data,.LCPI0_0
	.align	4
	.type	.LCPI0_0,@object
	.size	.LCPI0_0, 4
.LCPI0_0:
	.long	536870911               # 0x1fffffff
	.cc_bottom .LCPI0_0.data
	.text
	.globl	dsp_fft_bit_reverse_and_forward_real
	.align	4
	.type	dsp_fft_bit_reverse_and_forward_real,@function
	.cc_top dsp_fft_bit_reverse_and_forward_real.function,dsp_fft_bit_reverse_and_forward_real
dsp_fft_bit_reverse_and_forward_real:   # @dsp_fft_bit_reverse_and_forward_real
.Lfunc_begin0:
	.file	1 "C:/Users/user/workspace/lib_dsp/src/fft\\dsp_fft_real.xc"
	.loc	1 79 0                  # C:/Users/user/workspace/lib_dsp/src/fft/dsp_fft_real.xc:79:0
	.cfi_startproc
	.issue_mode dual
# BB#0:                                 # %allocas
.Lxtalabel0:
	{
		nop
		dualentsp 10
	}
.Ltmp0:
	.cfi_def_cfa_offset 40
.Ltmp1:
	.cfi_offset 15, 0
	std r5, r4, sp[1]               # 4-byte Folded Spill
.Ltmp2:
	.cfi_offset 4, -32
.Ltmp3:
	.cfi_offset 5, -28
	std r7, r6, sp[2]               # 4-byte Folded Spill
.Ltmp4:
	.cfi_offset 6, -24
.Ltmp5:
	.cfi_offset 7, -20
	std r9, r8, sp[3]               # 4-byte Folded Spill
.Ltmp6:
	.cfi_offset 8, -16
.Ltmp7:
	.cfi_offset 9, -12
.Ltmp8:
	.cfi_offset 10, -8
	#DEBUG_VALUE: dsp_fft_bit_reverse_and_forward_real:pts <- R0
	#DEBUG_VALUE: dsp_fft_bit_reverse_and_forward_real:N <- R1
	#DEBUG_VALUE: dsp_fft_bit_reverse_and_forward_real:sine <- R2
	#DEBUG_VALUE: dsp_fft_bit_reverse_and_forward_real:sin2 <- R3
.Ltmp9:
	#DEBUG_VALUE: dsp_fft_bit_reverse_and_forward_real:sin2 <- R4
	{
		mov r4, r3
		stw r10, sp[8]
	}
.Ltmp10:
	#DEBUG_VALUE: dsp_fft_bit_reverse_and_forward_real:sine <- R5
	#DEBUG_VALUE: dsp_fft_bit_reverse_and_forward_real:pts <- R6
	{
		mov r5, r2
		mov r6, r0
	}
.Ltmp11:
	ldd r10, r9, sp[6]
	{
		nop
		ldw r0, sp[11]
	}
	.loc	1 81 0 prologue_end     # C:/Users/user/workspace/lib_dsp/src/fft/dsp_fft_real.xc:81:0
.Ltmp12:
	{
		shr r0, r0, 1
		nop
	}
	ldw r2, cp[.LCPI0_0]
	.loc	1 81 0                  # C:/Users/user/workspace/lib_dsp/src/fft/dsp_fft_real.xc:81:0
	{
		and r7, r0, r2
		shr r8, r1, 1
	}
	.loc	1 81 0                  # C:/Users/user/workspace/lib_dsp/src/fft/dsp_fft_real.xc:81:0
	{
		mov r0, r6
		mov r1, r8
	}
.Ltmp13:
	{
		mov r2, r7
		nop
	}
.Lxta.call_labels0:
	bl dsp_fft_bit_reverse
	.loc	1 82 0                  # C:/Users/user/workspace/lib_dsp/src/fft/dsp_fft_real.xc:82:0
	{
		mov r0, r6
		stw r9, sp[1]
	}
.Ltmp14:
	#DEBUG_VALUE: dsp_fft_bit_reverse_and_forward_real:sine <- R2
	{
		mov r1, r8
		mov r2, r5
	}
.Ltmp15:
	{
		mov r3, r7
		nop
	}
.Lxta.call_labels1:
	bl dsp_fft_forward
	.loc	1 83 0                  # C:/Users/user/workspace/lib_dsp/src/fft/dsp_fft_real.xc:83:0
	{
		mov r0, r6
		stw r10, sp[1]
	}
.Ltmp16:
	#DEBUG_VALUE: dsp_fft_bit_reverse_and_forward_real:sin2 <- R2
	{
		mov r1, r8
		mov r2, r4
	}
.Ltmp17:
	{
		mov r3, r7
		nop
	}
.Lxta.call_labels2:
	bl dsp_fft_real_fix_forward_xs2
	{
		nop
		ldw r10, sp[8]
	}
	ldd r9, r8, sp[3]               # 4-byte Folded Reload
	ldd r7, r6, sp[2]               # 4-byte Folded Reload
	ldd r5, r4, sp[1]               # 4-byte Folded Reload
	{
		nop
		retsp 10
	}
	# RETURN_REG_HOLDER
.Ltmp18:
	.cc_bottom dsp_fft_bit_reverse_and_forward_real.function
	.set	dsp_fft_bit_reverse_and_forward_real.nstackwords,((dsp_fft_bit_reverse.nstackwords $M dsp_fft_forward.nstackwords $M dsp_fft_real_fix_forward_xs2.nstackwords) + 10)
	.globl	dsp_fft_bit_reverse_and_forward_real.nstackwords
	.set	dsp_fft_bit_reverse_and_forward_real.maxcores,dsp_fft_bit_reverse.maxcores $M dsp_fft_forward.maxcores $M dsp_fft_real_fix_forward_xs2.maxcores $M 1
	.globl	dsp_fft_bit_reverse_and_forward_real.maxcores
	.set	dsp_fft_bit_reverse_and_forward_real.maxtimers,dsp_fft_bit_reverse.maxtimers $M dsp_fft_forward.maxtimers $M dsp_fft_real_fix_forward_xs2.maxtimers $M 0
	.globl	dsp_fft_bit_reverse_and_forward_real.maxtimers
	.set	dsp_fft_bit_reverse_and_forward_real.maxchanends,dsp_fft_bit_reverse.maxchanends $M dsp_fft_forward.maxchanends $M dsp_fft_real_fix_forward_xs2.maxchanends $M 0
	.globl	dsp_fft_bit_reverse_and_forward_real.maxchanends
.Ltmp19:
	.size	dsp_fft_bit_reverse_and_forward_real, .Ltmp19-dsp_fft_bit_reverse_and_forward_real
.Lfunc_end0:
	.cfi_endproc

	.section	.cp.rodata.cst4,"aMc",@progbits,4
	.cc_top .LCPI1_0.data,.LCPI1_0
	.align	4
	.type	.LCPI1_0,@object
	.size	.LCPI1_0, 4
.LCPI1_0:
	.long	536870911               # 0x1fffffff
	.cc_bottom .LCPI1_0.data
	.text
	.globl	dsp_fft_bit_reverse_and_inverse_real
	.align	4
	.type	dsp_fft_bit_reverse_and_inverse_real,@function
	.cc_top dsp_fft_bit_reverse_and_inverse_real.function,dsp_fft_bit_reverse_and_inverse_real
dsp_fft_bit_reverse_and_inverse_real:   # @dsp_fft_bit_reverse_and_inverse_real
.Lfunc_begin1:
	.loc	1 90 0                  # C:/Users/user/workspace/lib_dsp/src/fft/dsp_fft_real.xc:90:0
	.cfi_startproc
	.issue_mode dual
# BB#0:                                 # %allocas
.Lxtalabel1:
	{
		nop
		dualentsp 8
	}
.Ltmp20:
	.cfi_def_cfa_offset 32
.Ltmp21:
	.cfi_offset 15, 0
	std r5, r4, sp[1]               # 4-byte Folded Spill
.Ltmp22:
	.cfi_offset 4, -24
.Ltmp23:
	.cfi_offset 5, -20
	std r7, r6, sp[2]               # 4-byte Folded Spill
.Ltmp24:
	.cfi_offset 6, -16
.Ltmp25:
	.cfi_offset 7, -12
.Ltmp26:
	.cfi_offset 8, -8
	#DEBUG_VALUE: dsp_fft_bit_reverse_and_inverse_real:pts <- R0
	#DEBUG_VALUE: dsp_fft_bit_reverse_and_inverse_real:N <- R1
	#DEBUG_VALUE: dsp_fft_bit_reverse_and_inverse_real:sine <- R2
	#DEBUG_VALUE: dsp_fft_bit_reverse_and_inverse_real:sin2 <- R3
.Ltmp27:
	#DEBUG_VALUE: dsp_fft_bit_reverse_and_inverse_real:sine <- R4
	{
		mov r4, r2
		stw r8, sp[6]
	}
.Ltmp28:
	{
		mov r5, r0
		nop
	}
.Ltmp29:
	#DEBUG_VALUE: dsp_fft_bit_reverse_and_inverse_real:pts <- R5
	ldd r0, r8, sp[5]
	{
		nop
		ldw r2, sp[9]
	}
	.loc	1 92 0 prologue_end     # C:/Users/user/workspace/lib_dsp/src/fft/dsp_fft_real.xc:92:0
.Ltmp30:
	{
		shr r2, r2, 1
		nop
	}
	ldw r11, cp[.LCPI1_0]
	.loc	1 92 0                  # C:/Users/user/workspace/lib_dsp/src/fft/dsp_fft_real.xc:92:0
	{
		and r6, r2, r11
		shr r7, r1, 1
	}
	.loc	1 92 0                  # C:/Users/user/workspace/lib_dsp/src/fft/dsp_fft_real.xc:92:0
	{
		mov r0, r5
		stw r0, sp[1]
	}
.Ltmp31:
	#DEBUG_VALUE: dsp_fft_bit_reverse_and_inverse_real:sin2 <- R2
	{
		mov r1, r7
		mov r2, r3
	}
.Ltmp32:
	{
		mov r3, r6
		nop
	}
.Lxta.call_labels3:
	bl dsp_fft_real_fix_inverse_xs2
	.loc	1 93 0                  # C:/Users/user/workspace/lib_dsp/src/fft/dsp_fft_real.xc:93:0
	{
		mov r0, r5
		mov r1, r7
	}
	{
		mov r2, r6
		nop
	}
.Lxta.call_labels4:
	bl dsp_fft_bit_reverse
	.loc	1 94 0                  # C:/Users/user/workspace/lib_dsp/src/fft/dsp_fft_real.xc:94:0
	{
		mov r0, r5
		stw r8, sp[1]
	}
.Ltmp33:
	#DEBUG_VALUE: dsp_fft_bit_reverse_and_inverse_real:sine <- R2
	{
		mov r1, r7
		mov r2, r4
	}
.Ltmp34:
	{
		mov r3, r6
		nop
	}
.Lxta.call_labels5:
	bl dsp_fft_inverse
	{
		nop
		ldw r8, sp[6]
	}
	ldd r7, r6, sp[2]               # 4-byte Folded Reload
	ldd r5, r4, sp[1]               # 4-byte Folded Reload
.Ltmp35:
	{
		nop
		retsp 8
	}
	# RETURN_REG_HOLDER
.Ltmp36:
	.cc_bottom dsp_fft_bit_reverse_and_inverse_real.function
	.set	dsp_fft_bit_reverse_and_inverse_real.nstackwords,((dsp_fft_real_fix_inverse_xs2.nstackwords $M dsp_fft_bit_reverse.nstackwords $M dsp_fft_inverse.nstackwords) + 8)
	.globl	dsp_fft_bit_reverse_and_inverse_real.nstackwords
	.set	dsp_fft_bit_reverse_and_inverse_real.maxcores,dsp_fft_bit_reverse.maxcores $M dsp_fft_inverse.maxcores $M dsp_fft_real_fix_inverse_xs2.maxcores $M 1
	.globl	dsp_fft_bit_reverse_and_inverse_real.maxcores
	.set	dsp_fft_bit_reverse_and_inverse_real.maxtimers,dsp_fft_bit_reverse.maxtimers $M dsp_fft_inverse.maxtimers $M dsp_fft_real_fix_inverse_xs2.maxtimers $M 0
	.globl	dsp_fft_bit_reverse_and_inverse_real.maxtimers
	.set	dsp_fft_bit_reverse_and_inverse_real.maxchanends,dsp_fft_bit_reverse.maxchanends $M dsp_fft_inverse.maxchanends $M dsp_fft_real_fix_inverse_xs2.maxchanends $M 0
	.globl	dsp_fft_bit_reverse_and_inverse_real.maxchanends
.Ltmp37:
	.size	dsp_fft_bit_reverse_and_inverse_real, .Ltmp37-dsp_fft_bit_reverse_and_inverse_real
.Lfunc_end1:
	.cfi_endproc

	.section	.cp.rodata.cst4,"aMc",@progbits,4
	.cc_top .LCPI2_0.data,.LCPI2_0
	.align	4
	.type	.LCPI2_0,@object
	.size	.LCPI2_0, 4
.LCPI2_0:
	.long	1073741824              # 0x40000000
	.cc_bottom .LCPI2_0.data
	.cc_top .LCPI2_1.data,.LCPI2_1
	.align	4
	.type	.LCPI2_1,@object
	.size	.LCPI2_1, 4
.LCPI2_1:
	.long	3221225472              # 0xc0000000
	.cc_bottom .LCPI2_1.data
	.text
	.globl	dsp_fft_real_fix_forward
	.align	4
	.type	dsp_fft_real_fix_forward,@function
	.cc_top dsp_fft_real_fix_forward.function,dsp_fft_real_fix_forward
dsp_fft_real_fix_forward:               # @dsp_fft_real_fix_forward
.Lfunc_begin2:
	.loc	1 20 0                  # C:/Users/user/workspace/lib_dsp/src/fft/dsp_fft_real.xc:20:0
	.cfi_startproc
	.issue_mode dual
# BB#0:                                 # %allocas
.Lxtalabel2:
	{
		nop
		dualentsp 26
	}
.Ltmp38:
	.cfi_def_cfa_offset 104
.Ltmp39:
	.cfi_offset 15, 0
	std r5, r4, sp[9]               # 4-byte Folded Spill
.Ltmp40:
	.cfi_offset 4, -32
.Ltmp41:
	.cfi_offset 5, -28
	std r7, r6, sp[10]              # 4-byte Folded Spill
.Ltmp42:
	.cfi_offset 6, -24
.Ltmp43:
	.cfi_offset 7, -20
	std r9, r8, sp[11]              # 4-byte Folded Spill
.Ltmp44:
	.cfi_offset 8, -16
.Ltmp45:
	.cfi_offset 9, -12
	{
		nop
		stw r10, sp[24]
	}
.Ltmp46:
	.cfi_offset 10, -8
	#DEBUG_VALUE: dsp_fft_real_fix_forward:pts <- R0
	#DEBUG_VALUE: dsp_fft_real_fix_forward:N <- R1
	#DEBUG_VALUE: dsp_fft_real_fix_forward:sine <- R2
	{
		nop
		stw r2, sp[2]
	}
.Ltmp47:
	#DEBUG_VALUE: shift <- 32
	#DEBUG_VALUE: dsp_fft_real_fix_forward:sine <- [SP+8]
	{
		ldc r5, 0
		stw r0, sp[12]
	}
	.loc	1 23 0 prologue_end     # C:/Users/user/workspace/lib_dsp/src/fft/dsp_fft_real.xc:23:0
.Ltmp48:
	#APP
	ldd r11, r2, r0[r5]
	#NO_APP
	.loc	1 24 0                  # C:/Users/user/workspace/lib_dsp/src/fft/dsp_fft_real.xc:24:0
	{
		sub r3, r2, r11
		nop
	}
	.loc	1 24 0                  # C:/Users/user/workspace/lib_dsp/src/fft/dsp_fft_real.xc:24:0
	ashr r3, r3, 1
	.loc	1 24 0                  # C:/Users/user/workspace/lib_dsp/src/fft/dsp_fft_real.xc:24:0
	{
		add r2, r11, r2
		nop
	}
	.loc	1 24 0                  # C:/Users/user/workspace/lib_dsp/src/fft/dsp_fft_real.xc:24:0
	ashr r2, r2, 1
	.loc	1 24 0                  # C:/Users/user/workspace/lib_dsp/src/fft/dsp_fft_real.xc:24:0
	#APP
	std r3, r2, r0[r5]
	#NO_APP
.Ltmp49:
	#DEBUG_VALUE: k <- 1
	#DEBUG_VALUE: dsp_fft_real_fix_forward:pts <- R2
	{
		mov r2, r0
		shr r0, r1, 1
	}
.Ltmp50:
	{
		nop
		stw r0, sp[1]
	}
	bf r0, .LBB2_3
.Ltmp51:
# BB#1:                                 # %LoopBody.preheader
	#DEBUG_VALUE: dsp_fft_real_fix_forward:pts <- R2
	#DEBUG_VALUE: dsp_fft_real_fix_forward:N <- R1
	#DEBUG_VALUE: dsp_fft_real_fix_forward:sine <- [SP+8]
	#DEBUG_VALUE: shift <- 32
	#DEBUG_VALUE: k <- 1
	{
		mkmsk r0, 5
		ldw r3, sp[27]
	}
	.loc	1 12 5                  # C:/Users/user/workspace/lib_dsp/src/fft/dsp_fft_real.xc:12:5
.Ltmp52:
	{
		shr r0, r1, r0
		nop
	}
	{
		add r0, r1, r0
		nop
	}
	ashr r0, r0, 1
.Ltmp53:
	.loc	1 26 0                  # C:/Users/user/workspace/lib_dsp/src/fft/dsp_fft_real.xc:26:0
	{
		sub r11, r0, 1
		sub r1, r1, 1
	}
.Ltmp54:
	{
		mkmsk r7, 1
		nop
	}
.Ltmp55:
.LBB2_2:                                # %LoopBody
                                        # =>This Inner Loop Header: Depth=1
.Lxtalabel3:
	#DEBUG_VALUE: dsp_fft_real_fix_forward:pts <- R2
	#DEBUG_VALUE: dsp_fft_real_fix_forward:sine <- [SP+8]
	#DEBUG_VALUE: shift <- 32
	#DEBUG_VALUE: k <- 1
	#DEBUG_VALUE: cos_1:i <- R7
	#DEBUG_VALUE: sin_1:N <- 0
	.loc	1 8 5                   # C:/Users/user/workspace/lib_dsp/src/fft/dsp_fft_real.xc:8:5
	{
		lsu r0, r7, r3
		nop
	}
.Ltmp56:
	.loc	1 28 0                  # C:/Users/user/workspace/lib_dsp/src/fft/dsp_fft_real.xc:28:0
.Ltrap_info0:
	{
		ecallf r0
		nop
	}
	#DEBUG_VALUE: dsp_fft_real_fix_forward:pts <- R2
	#DEBUG_VALUE: dsp_fft_real_fix_forward:sine <- [SP+8]
	#DEBUG_VALUE: shift <- 32
	#DEBUG_VALUE: k <- 1
	#DEBUG_VALUE: cos_1:i <- R7
.Ltmp57:
	#DEBUG_VALUE: cos_1:sine <- [SP+8]
	.loc	1 12 5                  # C:/Users/user/workspace/lib_dsp/src/fft/dsp_fft_real.xc:12:5
	{
		lsu r0, r11, r3
		nop
	}
.Ltmp58:
	.loc	1 30 0                  # C:/Users/user/workspace/lib_dsp/src/fft/dsp_fft_real.xc:30:0
.Ltrap_info1:
	{
		ecallf r0
		nop
	}
	#DEBUG_VALUE: dsp_fft_real_fix_forward:pts <- R2
	#DEBUG_VALUE: dsp_fft_real_fix_forward:sine <- [SP+8]
	#DEBUG_VALUE: shift <- 32
	#DEBUG_VALUE: k <- 1
	#DEBUG_VALUE: cos_1:i <- R7
	#DEBUG_VALUE: cos_1:sine <- [SP+8]
.Ltmp59:
	.loc	1 26 0                  # C:/Users/user/workspace/lib_dsp/src/fft/dsp_fft_real.xc:26:0
	#APP
	ldd r3, r0, r2[r7]
	#NO_APP
	{
		nop
		stw r3, sp[15]
	}
	{
		nop
		stw r0, sp[16]
	}
	.loc	1 27 0                  # C:/Users/user/workspace/lib_dsp/src/fft/dsp_fft_real.xc:27:0
	#APP
	ldd r2, r0, r2[r1]
	#NO_APP
.Ltmp60:
	{
		nop
		stw r2, sp[14]
	}
	{
		nop
		stw r0, sp[5]
	}
.Ltmp61:
	#DEBUG_VALUE: dsp_fft_real_fix_forward:pts <- [SP+48]
	{
		nop
		ldw r2, sp[2]
	}
.Ltmp62:
	#DEBUG_VALUE: cos_1:sine <- R2
	#DEBUG_VALUE: dsp_fft_real_fix_forward:sine <- R2
	{
		nop
		ldw r0, r2[r7]
	}
	.loc	1 28 0                  # C:/Users/user/workspace/lib_dsp/src/fft/dsp_fft_real.xc:28:0
.Ltmp63:
	ashr r0, r0, 1
.Ltmp64:
	#DEBUG_VALUE: si <- R0
	ldw r3, cp[.LCPI2_0]
	{
		mov r4, r3
		nop
	}
	.loc	1 29 0                  # C:/Users/user/workspace/lib_dsp/src/fft/dsp_fft_real.xc:29:0
.Ltmp65:
	{
		sub r6, r4, r0
		nop
	}
.Ltmp66:
	#DEBUG_VALUE: Ark <- R6
	{
		nop
		stw r6, sp[13]
	}
	{
		nop
		ldw r2, r2[r11]
	}
.Ltmp67:
	#DEBUG_VALUE: cos_1:sine <- [SP+8]
	#DEBUG_VALUE: dsp_fft_real_fix_forward:sine <- [SP+8]
	.loc	1 30 0                  # C:/Users/user/workspace/lib_dsp/src/fft/dsp_fft_real.xc:30:0
	ashr r3, r2, 1
.Ltmp68:
	#DEBUG_VALUE: Bik <- R3
	#DEBUG_VALUE: Brk <- R10
	.loc	1 31 0                  # C:/Users/user/workspace/lib_dsp/src/fft/dsp_fft_real.xc:31:0
	{
		add r10, r0, r4
		stw r3, sp[7]
	}
.Ltmp69:
	#DEBUG_VALUE: nBik <- [SP+24]
	.loc	1 32 0                  # C:/Users/user/workspace/lib_dsp/src/fft/dsp_fft_real.xc:32:0
	{
		neg r4, r3
		stw r10, sp[9]
	}
	{
		nop
		stw r4, sp[6]
	}
	ldw r8, cp[.LCPI2_1]
	.loc	1 33 0                  # C:/Users/user/workspace/lib_dsp/src/fft/dsp_fft_real.xc:33:0
.Ltmp70:
	{
		sub r0, r8, r0
		nop
	}
.Ltmp71:
	#DEBUG_VALUE: nBrk <- undef
	{
		nop
		stw r0, sp[17]
	}
	{
		mov r1, r5
		stw r1, sp[10]
	}
	.loc	1 34 0                  # C:/Users/user/workspace/lib_dsp/src/fft/dsp_fft_real.xc:34:0
.Ltmp72:
	{
		mov r9, r1
		ldw r0, sp[16]
	}
	maccs r5, r9, r6, r0
.Ltmp73:
	#DEBUG_VALUE: Ark <- [SP+52]
	.loc	1 34 0                  # C:/Users/user/workspace/lib_dsp/src/fft/dsp_fft_real.xc:34:0
	ashr r0, r2, 32
	{
		nop
		stw r0, sp[4]
	}
	{
		nop
		ldw r0, sp[15]
	}
	.loc	1 34 0                  # C:/Users/user/workspace/lib_dsp/src/fft/dsp_fft_real.xc:34:0
	ashr r4, r0, 32
	{
		nop
		ldw r2, sp[14]
	}
	.loc	1 34 0                  # C:/Users/user/workspace/lib_dsp/src/fft/dsp_fft_real.xc:34:0
	ashr r8, r2, 32
	{
		nop
		stw r11, sp[11]
	}
	ladd r11, r2, r2, r0, r1
	{
		mov r6, r0
		nop
	}
	ladd r11, r0, r8, r4, r11
	{
		nop
		stw r0, sp[8]
	}
	{
		nop
		ldw r11, sp[4]
	}
	mul r11, r11, r2
.Ltmp74:
	#DEBUG_VALUE: Bik <- R4
	{
		mov r4, r3
		stw r11, sp[4]
	}
.Ltmp75:
	mul r8, r4, r0
	{
		nop
		ldw r3, sp[5]
	}
	.loc	1 34 0                  # C:/Users/user/workspace/lib_dsp/src/fft/dsp_fft_real.xc:34:0
	maccs r5, r9, r10, r3
.Ltmp76:
	#DEBUG_VALUE: Brk <- [SP+36]
	.loc	1 34 0                  # C:/Users/user/workspace/lib_dsp/src/fft/dsp_fft_real.xc:34:0
	maccu r5, r9, r4, r2
.Ltmp77:
	#DEBUG_VALUE: Bik <- R11
	{
		mov r11, r4
		add r5, r5, r8
	}
.Ltmp78:
	{
		nop
		ldw r0, sp[4]
	}
	{
		add r0, r5, r0
		nop
	}
	.loc	1 36 0                  # C:/Users/user/workspace/lib_dsp/src/fft/dsp_fft_real.xc:36:0
.Ltmp79:
	{
		mov r5, r1
		stw r0, sp[4]
	}
.Ltmp80:
	#DEBUG_VALUE: Ark <- R0
	{
		mov r8, r1
		ldw r0, sp[13]
	}
.Ltmp81:
	maccs r5, r8, r0, r6
	{
		nop
		ldw r4, sp[6]
	}
.Ltmp82:
	#DEBUG_VALUE: nBik <- R4
	.loc	1 36 0                  # C:/Users/user/workspace/lib_dsp/src/fft/dsp_fft_real.xc:36:0
	ashr r6, r4, 32
	{
		nop
		stw r6, sp[3]
	}
.Ltmp83:
	#DEBUG_VALUE: nBrk <- [SP+68]
	{
		nop
		ldw r6, sp[14]
	}
	{
		nop
		ldw r9, sp[17]
	}
	.loc	1 36 0                  # C:/Users/user/workspace/lib_dsp/src/fft/dsp_fft_real.xc:36:0
	maccs r5, r8, r9, r6
	{
		nop
		ldw r10, sp[16]
	}
	.loc	1 36 0                  # C:/Users/user/workspace/lib_dsp/src/fft/dsp_fft_real.xc:36:0
	maccs r5, r8, r4, r10
	.loc	1 36 0                  # C:/Users/user/workspace/lib_dsp/src/fft/dsp_fft_real.xc:36:0
	maccs r5, r8, r11, r3
.Ltmp84:
	#DEBUG_VALUE: Bik <- [SP+28]
	{
		nop
		ldw r11, sp[12]
	}
	{
		nop
		ldw r8, sp[4]
	}
	.loc	1 38 0                  # C:/Users/user/workspace/lib_dsp/src/fft/dsp_fft_real.xc:38:0
	#APP
	std r5, r8, r11[r7]
	#NO_APP
	.loc	1 39 0                  # C:/Users/user/workspace/lib_dsp/src/fft/dsp_fft_real.xc:39:0
.Ltmp85:
	{
		mov r11, r1
		mov r5, r1
	}
	maccs r11, r5, r0, r3
.Ltmp86:
	#DEBUG_VALUE: Ark <- [SP+52]
	{
		nop
		ldw r0, sp[3]
	}
	mul r8, r0, r2
	{
		nop
		ldw r0, sp[8]
	}
	mul r0, r4, r0
	{
		nop
		ldw r9, sp[9]
	}
	.loc	1 39 0                  # C:/Users/user/workspace/lib_dsp/src/fft/dsp_fft_real.xc:39:0
	maccs r11, r5, r9, r10
	.loc	1 39 0                  # C:/Users/user/workspace/lib_dsp/src/fft/dsp_fft_real.xc:39:0
	maccu r11, r5, r4, r2
	{
		add r0, r11, r0
		nop
	}
	{
		add r0, r0, r8
		mov r2, r1
	}
	.loc	1 41 0                  # C:/Users/user/workspace/lib_dsp/src/fft/dsp_fft_real.xc:41:0
.Ltmp87:
	{
		mov r11, r1
		mov r5, r1
	}
	{
		nop
		ldw r1, sp[10]
	}
	{
		nop
		ldw r8, sp[13]
	}
	maccs r2, r11, r8, r6
	{
		nop
		ldw r6, sp[17]
	}
	{
		nop
		ldw r8, sp[15]
	}
	.loc	1 41 0                  # C:/Users/user/workspace/lib_dsp/src/fft/dsp_fft_real.xc:41:0
	maccs r2, r11, r6, r8
	{
		nop
		ldw r6, sp[7]
	}
	.loc	1 41 0                  # C:/Users/user/workspace/lib_dsp/src/fft/dsp_fft_real.xc:41:0
	maccs r2, r11, r6, r3
	.loc	1 41 0                  # C:/Users/user/workspace/lib_dsp/src/fft/dsp_fft_real.xc:41:0
	maccs r2, r11, r4, r10
	{
		nop
		ldw r11, sp[11]
	}
	{
		nop
		ldw r3, sp[12]
	}
.Ltmp88:
	#DEBUG_VALUE: dsp_fft_real_fix_forward:pts <- R3
	.loc	1 43 0                  # C:/Users/user/workspace/lib_dsp/src/fft/dsp_fft_real.xc:43:0
	#APP
	std r2, r0, r3[r1]
	#NO_APP
.Ltmp89:
	#DEBUG_VALUE: dsp_fft_real_fix_forward:pts <- R2
	#DEBUG_VALUE: k <- R7
	{
		mov r2, r3
		add r7, r7, 1
	}
.Ltmp90:
	.loc	1 25 0                  # C:/Users/user/workspace/lib_dsp/src/fft/dsp_fft_real.xc:25:0
	{
		sub r11, r11, 1
		sub r1, r1, 1
	}
.Lxta.loop_labels0:
	# LOOPMARKER 0
	{
		nop
		ldw r0, sp[1]
	}
	.loc	1 25 0                  # C:/Users/user/workspace/lib_dsp/src/fft/dsp_fft_real.xc:25:0
	{
		lsu r0, r0, r7
		ldw r3, sp[27]
	}
	bf r0, .LBB2_2
.Ltmp91:
.LBB2_3:                                # %return
.Lxtalabel4:
	{
		nop
		ldw r10, sp[24]
	}
	ldd r9, r8, sp[11]              # 4-byte Folded Reload
	ldd r7, r6, sp[10]              # 4-byte Folded Reload
	ldd r5, r4, sp[9]               # 4-byte Folded Reload
	{
		nop
		retsp 26
	}
	# RETURN_REG_HOLDER
	.cc_bottom dsp_fft_real_fix_forward.function
	.set	dsp_fft_real_fix_forward.nstackwords,26
	.globl	dsp_fft_real_fix_forward.nstackwords
	.set	dsp_fft_real_fix_forward.maxcores,1
	.globl	dsp_fft_real_fix_forward.maxcores
	.set	dsp_fft_real_fix_forward.maxtimers,0
	.globl	dsp_fft_real_fix_forward.maxtimers
	.set	dsp_fft_real_fix_forward.maxchanends,0
	.globl	dsp_fft_real_fix_forward.maxchanends
.Ltmp92:
	.size	dsp_fft_real_fix_forward, .Ltmp92-dsp_fft_real_fix_forward
.Lfunc_end2:
	.cfi_endproc

	.section	.cp.rodata.cst4,"aMc",@progbits,4
	.cc_top .LCPI3_0.data,.LCPI3_0
	.align	4
	.type	.LCPI3_0,@object
	.size	.LCPI3_0, 4
.LCPI3_0:
	.long	1073741824              # 0x40000000
	.cc_bottom .LCPI3_0.data
	.cc_top .LCPI3_1.data,.LCPI3_1
	.align	4
	.type	.LCPI3_1,@object
	.size	.LCPI3_1, 4
.LCPI3_1:
	.long	3221225472              # 0xc0000000
	.cc_bottom .LCPI3_1.data
	.text
	.globl	dsp_fft_real_fix_inverse
	.align	4
	.type	dsp_fft_real_fix_inverse,@function
	.cc_top dsp_fft_real_fix_inverse.function,dsp_fft_real_fix_inverse
dsp_fft_real_fix_inverse:               # @dsp_fft_real_fix_inverse
.Lfunc_begin3:
	.loc	1 48 0                  # C:/Users/user/workspace/lib_dsp/src/fft/dsp_fft_real.xc:48:0
	.cfi_startproc
	.issue_mode dual
# BB#0:                                 # %allocas
.Lxtalabel5:
	{
		nop
		dualentsp 26
	}
.Ltmp93:
	.cfi_def_cfa_offset 104
.Ltmp94:
	.cfi_offset 15, 0
	std r5, r4, sp[9]               # 4-byte Folded Spill
.Ltmp95:
	.cfi_offset 4, -32
.Ltmp96:
	.cfi_offset 5, -28
	std r7, r6, sp[10]              # 4-byte Folded Spill
.Ltmp97:
	.cfi_offset 6, -24
.Ltmp98:
	.cfi_offset 7, -20
	std r9, r8, sp[11]              # 4-byte Folded Spill
.Ltmp99:
	.cfi_offset 8, -16
.Ltmp100:
	.cfi_offset 9, -12
	{
		nop
		stw r10, sp[24]
	}
.Ltmp101:
	.cfi_offset 10, -8
	#DEBUG_VALUE: dsp_fft_real_fix_inverse:pts <- R0
	#DEBUG_VALUE: dsp_fft_real_fix_inverse:N <- R1
	#DEBUG_VALUE: dsp_fft_real_fix_inverse:sine <- R2
	{
		nop
		stw r2, sp[2]
	}
.Ltmp102:
	#DEBUG_VALUE: shift <- 30
	#DEBUG_VALUE: dsp_fft_real_fix_inverse:sine <- [SP+8]
	{
		ldc r4, 0
		stw r0, sp[11]
	}
	.loc	1 51 0 prologue_end     # C:/Users/user/workspace/lib_dsp/src/fft/dsp_fft_real.xc:51:0
.Ltmp103:
	#APP
	ldd r11, r2, r0[r4]
	#NO_APP
	.loc	1 52 0                  # C:/Users/user/workspace/lib_dsp/src/fft/dsp_fft_real.xc:52:0
	{
		sub r3, r2, r11
		add r2, r11, r2
	}
	.loc	1 52 0                  # C:/Users/user/workspace/lib_dsp/src/fft/dsp_fft_real.xc:52:0
	#APP
	std r3, r2, r0[r4]
	#NO_APP
.Ltmp104:
	#DEBUG_VALUE: k <- 1
	#DEBUG_VALUE: dsp_fft_real_fix_inverse:pts <- R2
	{
		mov r2, r0
		shr r0, r1, 1
	}
.Ltmp105:
	{
		nop
		stw r0, sp[1]
	}
	bf r0, .LBB3_3
.Ltmp106:
# BB#1:                                 # %LoopBody.preheader
	#DEBUG_VALUE: dsp_fft_real_fix_inverse:pts <- R2
	#DEBUG_VALUE: dsp_fft_real_fix_inverse:N <- R1
	#DEBUG_VALUE: dsp_fft_real_fix_inverse:sine <- [SP+8]
	#DEBUG_VALUE: shift <- 30
	#DEBUG_VALUE: k <- 1
	{
		mkmsk r0, 5
		ldw r3, sp[27]
	}
	.loc	1 12 5                  # C:/Users/user/workspace/lib_dsp/src/fft/dsp_fft_real.xc:12:5
.Ltmp107:
	{
		shr r0, r1, r0
		nop
	}
	{
		add r0, r1, r0
		nop
	}
	ashr r0, r0, 1
.Ltmp108:
	.loc	1 54 0                  # C:/Users/user/workspace/lib_dsp/src/fft/dsp_fft_real.xc:54:0
	{
		sub r11, r0, 1
		sub r1, r1, 1
	}
.Ltmp109:
	{
		mkmsk r4, 1
		nop
	}
.Ltmp110:
.LBB3_2:                                # %LoopBody
                                        # =>This Inner Loop Header: Depth=1
.Lxtalabel6:
	#DEBUG_VALUE: dsp_fft_real_fix_inverse:pts <- R2
	#DEBUG_VALUE: dsp_fft_real_fix_inverse:sine <- [SP+8]
	#DEBUG_VALUE: shift <- 30
	#DEBUG_VALUE: k <- 1
	#DEBUG_VALUE: cos_1:i <- R4
	#DEBUG_VALUE: sin_1:N <- 0
	.loc	1 8 5                   # C:/Users/user/workspace/lib_dsp/src/fft/dsp_fft_real.xc:8:5
	{
		lsu r0, r4, r3
		nop
	}
.Ltmp111:
	.loc	1 56 0                  # C:/Users/user/workspace/lib_dsp/src/fft/dsp_fft_real.xc:56:0
.Ltrap_info2:
	{
		ecallf r0
		nop
	}
	#DEBUG_VALUE: dsp_fft_real_fix_inverse:pts <- R2
	#DEBUG_VALUE: dsp_fft_real_fix_inverse:sine <- [SP+8]
	#DEBUG_VALUE: shift <- 30
	#DEBUG_VALUE: k <- 1
	#DEBUG_VALUE: cos_1:i <- R4
.Ltmp112:
	#DEBUG_VALUE: cos_1:sine <- [SP+8]
	.loc	1 12 5                  # C:/Users/user/workspace/lib_dsp/src/fft/dsp_fft_real.xc:12:5
	{
		lsu r0, r11, r3
		nop
	}
.Ltmp113:
	.loc	1 58 0                  # C:/Users/user/workspace/lib_dsp/src/fft/dsp_fft_real.xc:58:0
.Ltrap_info3:
	{
		ecallf r0
		nop
	}
	#DEBUG_VALUE: dsp_fft_real_fix_inverse:pts <- R2
	#DEBUG_VALUE: dsp_fft_real_fix_inverse:sine <- [SP+8]
	#DEBUG_VALUE: shift <- 30
	#DEBUG_VALUE: k <- 1
	#DEBUG_VALUE: cos_1:i <- R4
	#DEBUG_VALUE: cos_1:sine <- [SP+8]
	{
		nop
		stw r4, sp[17]
	}
.Ltmp114:
	#DEBUG_VALUE: cos_1:i <- [SP+68]
	{
		nop
		ldw r0, sp[17]
	}
.Ltmp115:
	.loc	1 54 0                  # C:/Users/user/workspace/lib_dsp/src/fft/dsp_fft_real.xc:54:0
	#APP
	ldd r4, r7, r2[r0]
	#NO_APP
	{
		nop
		stw r7, sp[6]
	}
	{
		nop
		stw r4, sp[16]
	}
	.loc	1 55 0                  # C:/Users/user/workspace/lib_dsp/src/fft/dsp_fft_real.xc:55:0
	#APP
	ldd r2, r0, r2[r1]
	#NO_APP
.Ltmp116:
	{
		nop
		stw r2, sp[12]
	}
	{
		nop
		stw r0, sp[13]
	}
.Ltmp117:
	#DEBUG_VALUE: dsp_fft_real_fix_inverse:pts <- [SP+44]
	{
		nop
		ldw r3, sp[2]
	}
.Ltmp118:
	#DEBUG_VALUE: cos_1:sine <- R3
	#DEBUG_VALUE: dsp_fft_real_fix_inverse:sine <- R3
	{
		nop
		ldw r0, sp[17]
	}
	{
		nop
		ldw r0, r3[r0]
	}
	.loc	1 56 0                  # C:/Users/user/workspace/lib_dsp/src/fft/dsp_fft_real.xc:56:0
.Ltmp119:
	ashr r0, r0, 1
.Ltmp120:
	#DEBUG_VALUE: si <- R0
	ldw r2, cp[.LCPI3_0]
	{
		mov r5, r2
		nop
	}
	.loc	1 57 0                  # C:/Users/user/workspace/lib_dsp/src/fft/dsp_fft_real.xc:57:0
.Ltmp121:
	{
		sub r2, r5, r0
		nop
	}
.Ltmp122:
	#DEBUG_VALUE: Ark <- R2
	{
		nop
		stw r2, sp[4]
	}
	{
		nop
		ldw r3, r3[r11]
	}
.Ltmp123:
	#DEBUG_VALUE: cos_1:sine <- [SP+8]
	#DEBUG_VALUE: dsp_fft_real_fix_inverse:sine <- [SP+8]
	.loc	1 58 0                  # C:/Users/user/workspace/lib_dsp/src/fft/dsp_fft_real.xc:58:0
	{
		neg r3, r3
		nop
	}
	.loc	1 58 0                  # C:/Users/user/workspace/lib_dsp/src/fft/dsp_fft_real.xc:58:0
	ashr r6, r3, 1
.Ltmp124:
	#DEBUG_VALUE: Bik <- R6
	#DEBUG_VALUE: Brk <- R9
	.loc	1 59 0                  # C:/Users/user/workspace/lib_dsp/src/fft/dsp_fft_real.xc:59:0
	{
		add r9, r0, r5
		stw r6, sp[14]
	}
.Ltmp125:
	#DEBUG_VALUE: nBik <- [SP+20]
	.loc	1 60 0                  # C:/Users/user/workspace/lib_dsp/src/fft/dsp_fft_real.xc:60:0
	{
		neg r5, r6
		stw r9, sp[8]
	}
	{
		nop
		stw r5, sp[5]
	}
	ldw r5, cp[.LCPI3_1]
	.loc	1 61 0                  # C:/Users/user/workspace/lib_dsp/src/fft/dsp_fft_real.xc:61:0
.Ltmp126:
	{
		sub r0, r5, r0
		nop
	}
.Ltmp127:
	#DEBUG_VALUE: nBrk <- undef
	{
		nop
		stw r0, sp[15]
	}
	{
		ldc r1, 0
		stw r1, sp[9]
	}
	.loc	1 62 0                  # C:/Users/user/workspace/lib_dsp/src/fft/dsp_fft_real.xc:62:0
.Ltmp128:
	{
		mov r5, r1
		mov r10, r1
	}
	maccs r5, r10, r2, r7
.Ltmp129:
	#DEBUG_VALUE: Ark <- [SP+16]
	.loc	1 62 0                  # C:/Users/user/workspace/lib_dsp/src/fft/dsp_fft_real.xc:62:0
	ashr r8, r3, 32
	.loc	1 62 0                  # C:/Users/user/workspace/lib_dsp/src/fft/dsp_fft_real.xc:62:0
	ashr r7, r4, 32
	{
		nop
		ldw r0, sp[12]
	}
	.loc	1 62 0                  # C:/Users/user/workspace/lib_dsp/src/fft/dsp_fft_real.xc:62:0
	ashr r2, r0, 32
	{
		nop
		stw r11, sp[10]
	}
	ladd r11, r3, r0, r4, r1
	ladd r11, r0, r2, r7, r11
	{
		nop
		stw r0, sp[7]
	}
	mul r11, r8, r3
	mul r4, r6, r0
	{
		nop
		ldw r0, sp[13]
	}
	.loc	1 62 0                  # C:/Users/user/workspace/lib_dsp/src/fft/dsp_fft_real.xc:62:0
	maccs r5, r10, r9, r0
.Ltmp130:
	#DEBUG_VALUE: Brk <- [SP+32]
	.loc	1 62 0                  # C:/Users/user/workspace/lib_dsp/src/fft/dsp_fft_real.xc:62:0
	maccu r5, r10, r6, r3
.Ltmp131:
	#DEBUG_VALUE: Bik <- undef
	{
		add r4, r5, r4
		nop
	}
	{
		add r11, r4, r11
		ldc r8, 30
	}
	.loc	1 62 0                  # C:/Users/user/workspace/lib_dsp/src/fft/dsp_fft_real.xc:62:0
	{
		shr r4, r10, r8
		shl r11, r11, 2
	}
	{
		or r10, r4, r11
		mov r4, r1
	}
.Ltmp132:
	#DEBUG_VALUE: Ark <- R9
	.loc	1 64 0                  # C:/Users/user/workspace/lib_dsp/src/fft/dsp_fft_real.xc:64:0
	{
		mov r5, r1
		ldw r9, sp[4]
	}
.Ltmp133:
	{
		nop
		ldw r2, sp[16]
	}
	maccs r4, r5, r9, r2
	{
		nop
		ldw r7, sp[5]
	}
.Ltmp134:
	#DEBUG_VALUE: nBik <- R7
	.loc	1 64 0                  # C:/Users/user/workspace/lib_dsp/src/fft/dsp_fft_real.xc:64:0
	ashr r2, r7, 32
	{
		nop
		stw r2, sp[3]
	}
.Ltmp135:
	#DEBUG_VALUE: nBrk <- [SP+60]
	{
		nop
		ldw r2, sp[12]
	}
	{
		nop
		ldw r6, sp[15]
	}
	.loc	1 64 0                  # C:/Users/user/workspace/lib_dsp/src/fft/dsp_fft_real.xc:64:0
	maccs r4, r5, r6, r2
	{
		nop
		ldw r6, sp[6]
	}
	.loc	1 64 0                  # C:/Users/user/workspace/lib_dsp/src/fft/dsp_fft_real.xc:64:0
	maccs r4, r5, r7, r6
.Ltmp136:
	#DEBUG_VALUE: Bik <- [SP+56]
	{
		nop
		ldw r11, sp[14]
	}
	.loc	1 64 0                  # C:/Users/user/workspace/lib_dsp/src/fft/dsp_fft_real.xc:64:0
	maccs r4, r5, r11, r0
	.loc	1 64 0                  # C:/Users/user/workspace/lib_dsp/src/fft/dsp_fft_real.xc:64:0
	{
		shr r5, r5, r8
		shl r4, r4, 2
	}
	{
		or r4, r5, r4
		ldw r5, sp[17]
	}
	{
		nop
		ldw r11, sp[11]
	}
	.loc	1 66 0                  # C:/Users/user/workspace/lib_dsp/src/fft/dsp_fft_real.xc:66:0
	#APP
	std r4, r10, r11[r5]
	#NO_APP
	.loc	1 67 0                  # C:/Users/user/workspace/lib_dsp/src/fft/dsp_fft_real.xc:67:0
.Ltmp137:
	{
		mov r11, r1
		mov r4, r1
	}
	maccs r11, r4, r9, r0
	{
		nop
		ldw r0, sp[3]
	}
	mul r5, r0, r3
	{
		nop
		ldw r0, sp[7]
	}
	mul r0, r7, r0
	{
		nop
		ldw r10, sp[8]
	}
	.loc	1 67 0                  # C:/Users/user/workspace/lib_dsp/src/fft/dsp_fft_real.xc:67:0
	maccs r11, r4, r10, r6
	.loc	1 67 0                  # C:/Users/user/workspace/lib_dsp/src/fft/dsp_fft_real.xc:67:0
	maccu r11, r4, r7, r3
	{
		add r0, r11, r0
		nop
	}
	{
		add r0, r0, r5
		shr r3, r4, r8
	}
.Ltmp138:
	#DEBUG_VALUE: cos_1:i <- R4
	{
		shl r0, r0, 2
		ldw r4, sp[17]
	}
.Ltmp139:
	.loc	1 67 0                  # C:/Users/user/workspace/lib_dsp/src/fft/dsp_fft_real.xc:67:0
	{
		or r0, r3, r0
		mov r3, r1
	}
	.loc	1 69 0                  # C:/Users/user/workspace/lib_dsp/src/fft/dsp_fft_real.xc:69:0
.Ltmp140:
	{
		mov r11, r1
		ldw r1, sp[9]
	}
	maccs r3, r11, r9, r2
	{
		nop
		ldw r5, sp[16]
	}
	{
		nop
		ldw r2, sp[15]
	}
	.loc	1 69 0                  # C:/Users/user/workspace/lib_dsp/src/fft/dsp_fft_real.xc:69:0
	maccs r3, r11, r2, r5
	{
		nop
		ldw r2, sp[14]
	}
	{
		nop
		ldw r5, sp[13]
	}
	.loc	1 69 0                  # C:/Users/user/workspace/lib_dsp/src/fft/dsp_fft_real.xc:69:0
	maccs r3, r11, r2, r5
	.loc	1 69 0                  # C:/Users/user/workspace/lib_dsp/src/fft/dsp_fft_real.xc:69:0
	maccs r3, r11, r7, r6
	.loc	1 69 0                  # C:/Users/user/workspace/lib_dsp/src/fft/dsp_fft_real.xc:69:0
	{
		shr r2, r11, r8
		ldw r11, sp[10]
	}
	{
		shl r3, r3, 2
		nop
	}
.Ltmp141:
	#DEBUG_VALUE: dsp_fft_real_fix_inverse:pts <- R3
	{
		or r2, r2, r3
		ldw r3, sp[11]
	}
.Ltmp142:
	.loc	1 71 0                  # C:/Users/user/workspace/lib_dsp/src/fft/dsp_fft_real.xc:71:0
	#APP
	std r2, r0, r3[r1]
	#NO_APP
.Ltmp143:
	#DEBUG_VALUE: dsp_fft_real_fix_inverse:pts <- R2
	#DEBUG_VALUE: k <- R4
	{
		mov r2, r3
		add r4, r4, 1
	}
.Ltmp144:
	.loc	1 53 0                  # C:/Users/user/workspace/lib_dsp/src/fft/dsp_fft_real.xc:53:0
	{
		sub r11, r11, 1
		sub r1, r1, 1
	}
.Lxta.loop_labels1:
	# LOOPMARKER 0
	{
		nop
		ldw r0, sp[1]
	}
	.loc	1 53 0                  # C:/Users/user/workspace/lib_dsp/src/fft/dsp_fft_real.xc:53:0
	{
		lsu r0, r0, r4
		ldw r3, sp[27]
	}
	bf r0, .LBB3_2
.Ltmp145:
.LBB3_3:                                # %return
.Lxtalabel7:
	{
		nop
		ldw r10, sp[24]
	}
	ldd r9, r8, sp[11]              # 4-byte Folded Reload
	ldd r7, r6, sp[10]              # 4-byte Folded Reload
	ldd r5, r4, sp[9]               # 4-byte Folded Reload
	{
		nop
		retsp 26
	}
	# RETURN_REG_HOLDER
	.cc_bottom dsp_fft_real_fix_inverse.function
	.set	dsp_fft_real_fix_inverse.nstackwords,26
	.globl	dsp_fft_real_fix_inverse.nstackwords
	.set	dsp_fft_real_fix_inverse.maxcores,1
	.globl	dsp_fft_real_fix_inverse.maxcores
	.set	dsp_fft_real_fix_inverse.maxtimers,0
	.globl	dsp_fft_real_fix_inverse.maxtimers
	.set	dsp_fft_real_fix_inverse.maxchanends,0
	.globl	dsp_fft_real_fix_inverse.maxchanends
.Ltmp146:
	.size	dsp_fft_real_fix_inverse, .Ltmp146-dsp_fft_real_fix_inverse
.Lfunc_end3:
	.cfi_endproc

.Ldebug_end0:
	.file	2 "C:/Users/user/workspace/lib_dsp/api\\dsp_math.h"
	.file	3 "C:\\Program Files (x86)\\XMOS\\xTIMEcomposer\\Community_14.3.3\\target/include\\math.h"
	.section	.xtacalltable,"",@progbits
.Lentries_start0:
	.long	.Lentries_end1-.Lentries_start0
	.long	0
	.ascii	"C:\\Users\\user\\workspace\\app_vf_spk_base\\.build_1i1o2_lin33_48k_xscopectl_farenddsp"
	.byte	0
.cc_top cc_0,.Lxta.call_labels0
	.ascii	"C:/Users/user/workspace/lib_dsp/src/fft/dsp_fft_real.xc"
	.byte	0
	.long	81
	.long	.Lxta.call_labels0
.cc_bottom cc_0
.cc_top cc_1,.Lxta.call_labels1
	.ascii	"C:/Users/user/workspace/lib_dsp/src/fft/dsp_fft_real.xc"
	.byte	0
	.long	82
	.long	.Lxta.call_labels1
.cc_bottom cc_1
.cc_top cc_2,.Lxta.call_labels2
	.ascii	"C:/Users/user/workspace/lib_dsp/src/fft/dsp_fft_real.xc"
	.byte	0
	.long	83
	.long	.Lxta.call_labels2
.cc_bottom cc_2
.cc_top cc_3,.Lxta.call_labels3
	.ascii	"C:/Users/user/workspace/lib_dsp/src/fft/dsp_fft_real.xc"
	.byte	0
	.long	92
	.long	.Lxta.call_labels3
.cc_bottom cc_3
.cc_top cc_4,.Lxta.call_labels4
	.ascii	"C:/Users/user/workspace/lib_dsp/src/fft/dsp_fft_real.xc"
	.byte	0
	.long	93
	.long	.Lxta.call_labels4
.cc_bottom cc_4
.cc_top cc_5,.Lxta.call_labels5
	.ascii	"C:/Users/user/workspace/lib_dsp/src/fft/dsp_fft_real.xc"
	.byte	0
	.long	94
	.long	.Lxta.call_labels5
.cc_bottom cc_5
.Lentries_end1:
	.section	.xtalabeltable,"",@progbits
.Lentries_start2:
	.long	.Lentries_end3-.Lentries_start2
	.long	0
	.ascii	"C:\\Users\\user\\workspace\\app_vf_spk_base\\.build_1i1o2_lin33_48k_xscopectl_farenddsp"
	.byte	0
.cc_top cc_6,.Lxtalabel3
	.ascii	"C:/Users/user/workspace/lib_dsp/src/fft/dsp_fft_real.xc"
	.byte	0
	.long	8
	.long	9
	.long	.Lxtalabel3
.cc_bottom cc_6
.cc_top cc_7,.Lxtalabel6
	.ascii	"C:/Users/user/workspace/lib_dsp/src/fft/dsp_fft_real.xc"
	.byte	0
	.long	8
	.long	9
	.long	.Lxtalabel6
.cc_bottom cc_7
.cc_top cc_8,.Lxtalabel2
	.ascii	"C:/Users/user/workspace/lib_dsp/src/fft/dsp_fft_real.xc"
	.byte	0
	.long	21
	.long	25
	.long	.Lxtalabel2
.cc_bottom cc_8
.cc_top cc_9,.Lxtalabel3
	.ascii	"C:/Users/user/workspace/lib_dsp/src/fft/dsp_fft_real.xc"
	.byte	0
	.long	26
	.long	44
	.long	.Lxtalabel3
.cc_bottom cc_9
.cc_top cc_10,.Lxtalabel4
	.ascii	"C:/Users/user/workspace/lib_dsp/src/fft/dsp_fft_real.xc"
	.byte	0
	.long	45
	.long	45
	.long	.Lxtalabel4
.cc_bottom cc_10
.cc_top cc_11,.Lxtalabel5
	.ascii	"C:/Users/user/workspace/lib_dsp/src/fft/dsp_fft_real.xc"
	.byte	0
	.long	49
	.long	53
	.long	.Lxtalabel5
.cc_bottom cc_11
.cc_top cc_12,.Lxtalabel6
	.ascii	"C:/Users/user/workspace/lib_dsp/src/fft/dsp_fft_real.xc"
	.byte	0
	.long	54
	.long	72
	.long	.Lxtalabel6
.cc_bottom cc_12
.cc_top cc_13,.Lxtalabel7
	.ascii	"C:/Users/user/workspace/lib_dsp/src/fft/dsp_fft_real.xc"
	.byte	0
	.long	73
	.long	73
	.long	.Lxtalabel7
.cc_bottom cc_13
.cc_top cc_14,.Lxtalabel0
	.ascii	"C:/Users/user/workspace/lib_dsp/src/fft/dsp_fft_real.xc"
	.byte	0
	.long	81
	.long	84
	.long	.Lxtalabel0
.cc_bottom cc_14
.cc_top cc_15,.Lxtalabel1
	.ascii	"C:/Users/user/workspace/lib_dsp/src/fft/dsp_fft_real.xc"
	.byte	0
	.long	92
	.long	95
	.long	.Lxtalabel1
.cc_bottom cc_15
.Lentries_end3:
	.section	.xtalooplabeltable,"",@progbits
.Lentries_start4:
	.long	.Lentries_end5-.Lentries_start4
	.long	0
	.ascii	"C:\\Users\\user\\workspace\\app_vf_spk_base\\.build_1i1o2_lin33_48k_xscopectl_farenddsp"
	.byte	0
.cc_top cc_16,.Lxta.loop_labels0
	.ascii	"C:/Users/user/workspace/lib_dsp/src/fft/dsp_fft_real.xc"
	.byte	0
	.long	26
	.long	44
	.long	.Lxta.loop_labels0
.cc_bottom cc_16
.cc_top cc_17,.Lxta.loop_labels1
	.ascii	"C:/Users/user/workspace/lib_dsp/src/fft/dsp_fft_real.xc"
	.byte	0
	.long	54
	.long	72
	.long	.Lxta.loop_labels1
.cc_bottom cc_17
.Lentries_end5:
	.section	.trap_info,"",@progbits
.Ltrap_info_entries_start0:
	.long	.Ltrap_info_entries_end0-.Ltrap_info_entries_start0
	.long	1
	.section	.trap_info_str,"MS",@progbits
.Ltrap_info_str0:
.asciiz"C:/Users/user/workspace/lib_dsp/src/fft/dsp_fft_real.xc:8:12: error: out of bounds array access\n    return sine[i];\n           ^~~~~~~\n"
	.section	.trap_info,"",@progbits
.cc_top cc_trapinfo_0,.Ltrap_info0
	.long	.Ltrap_info0
	.long	.Ltrap_info_str0
.cc_bottom cc_trapinfo_0
	.section	.trap_info_str,"MS",@progbits
.Ltrap_info_str1:
.asciiz"C:/Users/user/workspace/lib_dsp/src/fft/dsp_fft_real.xc:12:12: error: out of bounds array access\n    return sine[N/2-i];\n           ^~~~~~~~~~~\n"
	.section	.trap_info,"",@progbits
.cc_top cc_trapinfo_1,.Ltrap_info1
	.long	.Ltrap_info1
	.long	.Ltrap_info_str1
.cc_bottom cc_trapinfo_1
	.section	.trap_info_str,"MS",@progbits
.Ltrap_info_str2:
.asciiz"C:/Users/user/workspace/lib_dsp/src/fft/dsp_fft_real.xc:8:12: error: out of bounds array access\n    return sine[i];\n           ^~~~~~~\n"
	.section	.trap_info,"",@progbits
.cc_top cc_trapinfo_2,.Ltrap_info2
	.long	.Ltrap_info2
	.long	.Ltrap_info_str2
.cc_bottom cc_trapinfo_2
	.section	.trap_info_str,"MS",@progbits
.Ltrap_info_str3:
.asciiz"C:/Users/user/workspace/lib_dsp/src/fft/dsp_fft_real.xc:12:12: error: out of bounds array access\n    return sine[N/2-i];\n           ^~~~~~~~~~~\n"
	.section	.trap_info,"",@progbits
.cc_top cc_trapinfo_3,.Ltrap_info3
	.long	.Ltrap_info3
	.long	.Ltrap_info_str3
.cc_bottom cc_trapinfo_3
.Ltrap_info_entries_end0: