	.text
	.file	"C:/Users/user/workspace/lib_dsp/src/fft/dsp_fft.xc"
                                        # Start of file scope inline assembly
	.inline_definition delay_seconds
	.inline_definition delay_milliseconds
	.inline_definition delay_microseconds
	.set usage.anon.0,0
	.set usage.anon.1,0
	.set usage.anon.2,0
	.call dsp_fft_long_to_short,dsp_fft_long_to_short_xs2
	.call dsp_fft_short_to_long,dsp_fft_short_to_long_xs2
	.call dsp_fft_merge_spectra,dsp_fft_merge_spectra_xs2
	.call dsp_fft_split_spectrum,dsp_fft_split_spectrum_xs2
	.call dsp_fft_inverse,dsp_fft_inverse_xs2
	.call dsp_fft_forward,dsp_fft_forward_xs2
	.call usage.anon.2,delay_ticks_longlong
	.call usage.anon.1,delay_ticks_longlong
	.call usage.anon.0,delay_ticks_longlong
	.set dsp_fft_forward_xs1.locnoside, 0
	.set dsp_fft_inverse_xs1.locnoside, 0
	.set dsp_fft_forward.locnoside, 0
	.set dsp_fft_inverse.locnoside, 0
	.set dsp_fft_split_spectrum.locnoside, 0
	.set dsp_fft_merge_spectra.locnoside, 0
	.set dsp_fft_short_to_long.locnoside, 0
	.set dsp_fft_long_to_short.locnoside, 0

                                        # End of file scope inline assembly
	.text
	.globl	dsp_fft_split_spectrum
	.align	4
	.type	dsp_fft_split_spectrum,@function
	.cc_top dsp_fft_split_spectrum.function,dsp_fft_split_spectrum
dsp_fft_split_spectrum:                 # @dsp_fft_split_spectrum
.Lfunc_begin0:
	.file	1 "C:/Users/user/workspace/lib_dsp/src/fft\\dsp_fft.xc"
	.loc	1 202 0                 # C:/Users/user/workspace/lib_dsp/src/fft/dsp_fft.xc:202:0
	.cfi_startproc
	.issue_mode dual
# BB#0:                                 # %allocas
.Lxtalabel0:
	{
		nop
		dualentsp 2
	}
.Ltmp0:
	.cfi_def_cfa_offset 8
.Ltmp1:
	.cfi_offset 15, 0
	#DEBUG_VALUE: dsp_fft_split_spectrum:pts <- R0
	#DEBUG_VALUE: dsp_fft_split_spectrum:N <- R1
	.loc	1 204 0 prologue_end    # C:/Users/user/workspace/lib_dsp/src/fft/dsp_fft.xc:204:0
.Ltmp2:
.Lxta.call_labels0:
	bl dsp_fft_split_spectrum_xs2
.Ltmp3:
	{
		nop
		retsp 2
	}
	# RETURN_REG_HOLDER
.Ltmp4:
	.cc_bottom dsp_fft_split_spectrum.function
	.set	dsp_fft_split_spectrum.nstackwords,(dsp_fft_split_spectrum_xs2.nstackwords + 2)
	.globl	dsp_fft_split_spectrum.nstackwords
	.set	dsp_fft_split_spectrum.maxcores,dsp_fft_split_spectrum_xs2.maxcores $M 1
	.globl	dsp_fft_split_spectrum.maxcores
	.set	dsp_fft_split_spectrum.maxtimers,dsp_fft_split_spectrum_xs2.maxtimers $M 0
	.globl	dsp_fft_split_spectrum.maxtimers
	.set	dsp_fft_split_spectrum.maxchanends,dsp_fft_split_spectrum_xs2.maxchanends $M 0
	.globl	dsp_fft_split_spectrum.maxchanends
.Ltmp5:
	.size	dsp_fft_split_spectrum, .Ltmp5-dsp_fft_split_spectrum
.Lfunc_end0:
	.cfi_endproc

	.globl	dsp_fft_merge_spectra
	.align	4
	.type	dsp_fft_merge_spectra,@function
	.cc_top dsp_fft_merge_spectra.function,dsp_fft_merge_spectra
dsp_fft_merge_spectra:                  # @dsp_fft_merge_spectra
.Lfunc_begin1:
	.loc	1 235 0                 # C:/Users/user/workspace/lib_dsp/src/fft/dsp_fft.xc:235:0
	.cfi_startproc
	.issue_mode dual
# BB#0:                                 # %allocas
.Lxtalabel1:
	{
		nop
		dualentsp 2
	}
.Ltmp6:
	.cfi_def_cfa_offset 8
.Ltmp7:
	.cfi_offset 15, 0
	#DEBUG_VALUE: dsp_fft_merge_spectra:pts <- R0
	#DEBUG_VALUE: dsp_fft_merge_spectra:N <- R1
	.loc	1 237 0 prologue_end    # C:/Users/user/workspace/lib_dsp/src/fft/dsp_fft.xc:237:0
.Ltmp8:
.Lxta.call_labels1:
	bl dsp_fft_merge_spectra_xs2
.Ltmp9:
	{
		nop
		retsp 2
	}
	# RETURN_REG_HOLDER
.Ltmp10:
	.cc_bottom dsp_fft_merge_spectra.function
	.set	dsp_fft_merge_spectra.nstackwords,(dsp_fft_merge_spectra_xs2.nstackwords + 2)
	.globl	dsp_fft_merge_spectra.nstackwords
	.set	dsp_fft_merge_spectra.maxcores,dsp_fft_merge_spectra_xs2.maxcores $M 1
	.globl	dsp_fft_merge_spectra.maxcores
	.set	dsp_fft_merge_spectra.maxtimers,dsp_fft_merge_spectra_xs2.maxtimers $M 0
	.globl	dsp_fft_merge_spectra.maxtimers
	.set	dsp_fft_merge_spectra.maxchanends,dsp_fft_merge_spectra_xs2.maxchanends $M 0
	.globl	dsp_fft_merge_spectra.maxchanends
.Ltmp11:
	.size	dsp_fft_merge_spectra, .Ltmp11-dsp_fft_merge_spectra
.Lfunc_end1:
	.cfi_endproc

	.globl	dsp_fft_short_to_long
	.align	4
	.type	dsp_fft_short_to_long,@function
	.cc_top dsp_fft_short_to_long.function,dsp_fft_short_to_long
dsp_fft_short_to_long:                  # @dsp_fft_short_to_long
.Lfunc_begin2:
	.loc	1 265 0                 # C:/Users/user/workspace/lib_dsp/src/fft/dsp_fft.xc:265:0
	.cfi_startproc
	.issue_mode dual
# BB#0:                                 # %allocas
.Lxtalabel2:
	{
		nop
		dualentsp 2
	}
.Ltmp12:
	.cfi_def_cfa_offset 8
.Ltmp13:
	.cfi_offset 15, 0
	#DEBUG_VALUE: dsp_fft_short_to_long:s <- R0
	#DEBUG_VALUE: dsp_fft_short_to_long:l <- R1
	#DEBUG_VALUE: dsp_fft_short_to_long:N <- R2
	{
		nop
		ldw r11, sp[3]
	}
	{
		nop
		stw r11, sp[1]
	}
	.loc	1 267 0 prologue_end    # C:/Users/user/workspace/lib_dsp/src/fft/dsp_fft.xc:267:0
.Ltmp14:
.Lxta.call_labels2:
	bl dsp_fft_short_to_long_xs2
.Ltmp15:
	{
		nop
		retsp 2
	}
	# RETURN_REG_HOLDER
.Ltmp16:
	.cc_bottom dsp_fft_short_to_long.function
	.set	dsp_fft_short_to_long.nstackwords,(dsp_fft_short_to_long_xs2.nstackwords + 2)
	.globl	dsp_fft_short_to_long.nstackwords
	.set	dsp_fft_short_to_long.maxcores,dsp_fft_short_to_long_xs2.maxcores $M 1
	.globl	dsp_fft_short_to_long.maxcores
	.set	dsp_fft_short_to_long.maxtimers,dsp_fft_short_to_long_xs2.maxtimers $M 0
	.globl	dsp_fft_short_to_long.maxtimers
	.set	dsp_fft_short_to_long.maxchanends,dsp_fft_short_to_long_xs2.maxchanends $M 0
	.globl	dsp_fft_short_to_long.maxchanends
.Ltmp17:
	.size	dsp_fft_short_to_long, .Ltmp17-dsp_fft_short_to_long
.Lfunc_end2:
	.cfi_endproc

	.globl	dsp_fft_long_to_short
	.align	4
	.type	dsp_fft_long_to_short,@function
	.cc_top dsp_fft_long_to_short.function,dsp_fft_long_to_short
dsp_fft_long_to_short:                  # @dsp_fft_long_to_short
.Lfunc_begin3:
	.loc	1 276 0                 # C:/Users/user/workspace/lib_dsp/src/fft/dsp_fft.xc:276:0
	.cfi_startproc
	.issue_mode dual
# BB#0:                                 # %allocas
.Lxtalabel3:
	{
		nop
		dualentsp 2
	}
.Ltmp18:
	.cfi_def_cfa_offset 8
.Ltmp19:
	.cfi_offset 15, 0
	#DEBUG_VALUE: dsp_fft_long_to_short:l <- R0
	#DEBUG_VALUE: dsp_fft_long_to_short:s <- R1
	#DEBUG_VALUE: dsp_fft_long_to_short:N <- R2
	{
		nop
		ldw r11, sp[3]
	}
	{
		nop
		stw r11, sp[1]
	}
	.loc	1 278 0 prologue_end    # C:/Users/user/workspace/lib_dsp/src/fft/dsp_fft.xc:278:0
.Ltmp20:
.Lxta.call_labels3:
	bl dsp_fft_long_to_short_xs2
.Ltmp21:
	{
		nop
		retsp 2
	}
	# RETURN_REG_HOLDER
.Ltmp22:
	.cc_bottom dsp_fft_long_to_short.function
	.set	dsp_fft_long_to_short.nstackwords,(dsp_fft_long_to_short_xs2.nstackwords + 2)
	.globl	dsp_fft_long_to_short.nstackwords
	.set	dsp_fft_long_to_short.maxcores,dsp_fft_long_to_short_xs2.maxcores $M 1
	.globl	dsp_fft_long_to_short.maxcores
	.set	dsp_fft_long_to_short.maxtimers,dsp_fft_long_to_short_xs2.maxtimers $M 0
	.globl	dsp_fft_long_to_short.maxtimers
	.set	dsp_fft_long_to_short.maxchanends,dsp_fft_long_to_short_xs2.maxchanends $M 0
	.globl	dsp_fft_long_to_short.maxchanends
.Ltmp23:
	.size	dsp_fft_long_to_short, .Ltmp23-dsp_fft_long_to_short
.Lfunc_end3:
	.cfi_endproc

	.globl	dsp_fft_forward
	.align	4
	.type	dsp_fft_forward,@function
	.cc_top dsp_fft_forward.function,dsp_fft_forward
dsp_fft_forward:                        # @dsp_fft_forward
.Lfunc_begin4:
	.loc	1 182 0                 # C:/Users/user/workspace/lib_dsp/src/fft/dsp_fft.xc:182:0
	.cfi_startproc
	.issue_mode dual
# BB#0:                                 # %allocas
.Lxtalabel4:
	{
		nop
		dualentsp 2
	}
.Ltmp24:
	.cfi_def_cfa_offset 8
.Ltmp25:
	.cfi_offset 15, 0
	#DEBUG_VALUE: dsp_fft_forward:pts <- R0
	#DEBUG_VALUE: dsp_fft_forward:N <- R1
	#DEBUG_VALUE: dsp_fft_forward:sine <- R2
	{
		nop
		ldw r11, sp[3]
	}
	{
		nop
		stw r11, sp[1]
	}
	.loc	1 184 0 prologue_end    # C:/Users/user/workspace/lib_dsp/src/fft/dsp_fft.xc:184:0
.Ltmp26:
.Lxta.call_labels4:
	bl dsp_fft_forward_xs2
.Ltmp27:
	{
		nop
		retsp 2
	}
	# RETURN_REG_HOLDER
.Ltmp28:
	.cc_bottom dsp_fft_forward.function
	.set	dsp_fft_forward.nstackwords,(dsp_fft_forward_xs2.nstackwords + 2)
	.globl	dsp_fft_forward.nstackwords
	.set	dsp_fft_forward.maxcores,dsp_fft_forward_xs2.maxcores $M 1
	.globl	dsp_fft_forward.maxcores
	.set	dsp_fft_forward.maxtimers,dsp_fft_forward_xs2.maxtimers $M 0
	.globl	dsp_fft_forward.maxtimers
	.set	dsp_fft_forward.maxchanends,dsp_fft_forward_xs2.maxchanends $M 0
	.globl	dsp_fft_forward.maxchanends
.Ltmp29:
	.size	dsp_fft_forward, .Ltmp29-dsp_fft_forward
.Lfunc_end4:
	.cfi_endproc

	.globl	dsp_fft_inverse
	.align	4
	.type	dsp_fft_inverse,@function
	.cc_top dsp_fft_inverse.function,dsp_fft_inverse
dsp_fft_inverse:                        # @dsp_fft_inverse
.Lfunc_begin5:
	.loc	1 193 0                 # C:/Users/user/workspace/lib_dsp/src/fft/dsp_fft.xc:193:0
	.cfi_startproc
	.issue_mode dual
# BB#0:                                 # %allocas
.Lxtalabel5:
	{
		nop
		dualentsp 2
	}
.Ltmp30:
	.cfi_def_cfa_offset 8
.Ltmp31:
	.cfi_offset 15, 0
	#DEBUG_VALUE: dsp_fft_inverse:pts <- R0
	#DEBUG_VALUE: dsp_fft_inverse:N <- R1
	#DEBUG_VALUE: dsp_fft_inverse:sine <- R2
	{
		nop
		ldw r11, sp[3]
	}
	{
		nop
		stw r11, sp[1]
	}
	.loc	1 195 0 prologue_end    # C:/Users/user/workspace/lib_dsp/src/fft/dsp_fft.xc:195:0
.Ltmp32:
.Lxta.call_labels5:
	bl dsp_fft_inverse_xs2
.Ltmp33:
	{
		nop
		retsp 2
	}
	# RETURN_REG_HOLDER
.Ltmp34:
	.cc_bottom dsp_fft_inverse.function
	.set	dsp_fft_inverse.nstackwords,(dsp_fft_inverse_xs2.nstackwords + 2)
	.globl	dsp_fft_inverse.nstackwords
	.set	dsp_fft_inverse.maxcores,dsp_fft_inverse_xs2.maxcores $M 1
	.globl	dsp_fft_inverse.maxcores
	.set	dsp_fft_inverse.maxtimers,dsp_fft_inverse_xs2.maxtimers $M 0
	.globl	dsp_fft_inverse.maxtimers
	.set	dsp_fft_inverse.maxchanends,dsp_fft_inverse_xs2.maxchanends $M 0
	.globl	dsp_fft_inverse.maxchanends
.Ltmp35:
	.size	dsp_fft_inverse, .Ltmp35-dsp_fft_inverse
.Lfunc_end5:
	.cfi_endproc

	.section	.cp.rodata.cst4,"aMc",@progbits,4
	.cc_top .LCPI6_0.data,.LCPI6_0
	.align	4
	.type	.LCPI6_0,@object
	.size	.LCPI6_0, 4
.LCPI6_0:
	.long	2147483648              # 0x80000000
	.cc_bottom .LCPI6_0.data
	.text
	.globl	dsp_fft_forward_xs1
	.align	4
	.type	dsp_fft_forward_xs1,@function
	.cc_top dsp_fft_forward_xs1.function,dsp_fft_forward_xs1
dsp_fft_forward_xs1:                    # @dsp_fft_forward_xs1
.Lfunc_begin6:
	.loc	1 34 0                  # C:/Users/user/workspace/lib_dsp/src/fft/dsp_fft.xc:34:0
	.cfi_startproc
	.issue_mode dual
# BB#0:                                 # %allocas
.Lxtalabel6:
	{
		nop
		dualentsp 30
	}
.Ltmp36:
	.cfi_def_cfa_offset 120
.Ltmp37:
	.cfi_offset 15, 0
	std r5, r4, sp[11]              # 4-byte Folded Spill
.Ltmp38:
	.cfi_offset 4, -32
.Ltmp39:
	.cfi_offset 5, -28
	{
		nop
		stw r6, sp[24]
	}
	{
		nop
		stw r7, sp[25]
	}
.Ltmp40:
	.cfi_offset 6, -24
.Ltmp41:
	.cfi_offset 7, -20
	{
		nop
		stw r8, sp[26]
	}
	{
		nop
		stw r9, sp[27]
	}
.Ltmp42:
	.cfi_offset 8, -16
.Ltmp43:
	.cfi_offset 9, -12
	{
		nop
		stw r10, sp[28]
	}
.Ltmp44:
	.cfi_offset 10, -8
	#DEBUG_VALUE: dsp_fft_forward_xs1:pts <- R0
	#DEBUG_VALUE: dsp_fft_forward_xs1:N <- R1
	#DEBUG_VALUE: dsp_fft_forward_xs1:sine <- R2
	{
		nop
		stw r2, sp[8]
	}
.Ltmp45:
	#DEBUG_VALUE: dsp_fft_forward_xs1:sine <- [SP+32]
	#DEBUG_VALUE: step <- 2
	#DEBUG_VALUE: dsp_fft_forward_xs1:pts <- [SP+4]
	{
		ldc r5, 2
		stw r0, sp[1]
	}
	.loc	1 36 0 prologue_end     # C:/Users/user/workspace/lib_dsp/src/fft/dsp_fft.xc:36:0
.Ltmp46:
	{
		lsu r0, r1, r5
		nop
	}
	bt r0, .LBB6_15
.Ltmp47:
# BB#1:                                 # %LoopBody.preheader
	#DEBUG_VALUE: dsp_fft_forward_xs1:pts <- [SP+4]
	#DEBUG_VALUE: dsp_fft_forward_xs1:N <- R1
	#DEBUG_VALUE: dsp_fft_forward_xs1:sine <- [SP+32]
	#DEBUG_VALUE: step <- 2
	{
		mov r2, r1
		nop
	}
.Ltmp48:
	#DEBUG_VALUE: dsp_fft_forward_xs1:N <- R2
	.loc	1 35 0                  # C:/Users/user/workspace/lib_dsp/src/fft/dsp_fft.xc:35:0
	{
		clz r0, r2
		stw r2, sp[3]
	}
	{
		ldc r1, 30
		nop
	}
	.loc	1 35 0                  # C:/Users/user/workspace/lib_dsp/src/fft/dsp_fft.xc:35:0
	{
		sub r0, r1, r0
		nop
	}
.Ltmp49:
	#DEBUG_VALUE: shift <- [SP+36]
	.loc	1 69 0                  # C:/Users/user/workspace/lib_dsp/src/fft/dsp_fft.xc:69:0
	{
		shr r0, r2, 2
		stw r0, sp[9]
	}
.Ltmp50:
	#DEBUG_VALUE: dsp_fft_forward_xs1:N <- [SP+12]
	{
		ldc r9, 0
		stw r0, sp[7]
	}
	ldw r7, cp[.LCPI6_0]
.Ltmp51:
.LBB6_2:                                # %LoopBody
                                        # =>This Loop Header: Depth=1
                                        #     Child Loop BB6_4 Depth 2
                                        #       Child Loop BB6_6 Depth 3
                                        #     Child Loop BB6_10 Depth 2
                                        #       Child Loop BB6_12 Depth 3
.Lxtalabel7:
	#DEBUG_VALUE: dsp_fft_forward_xs1:pts <- [SP+4]
	#DEBUG_VALUE: dsp_fft_forward_xs1:N <- [SP+12]
	#DEBUG_VALUE: dsp_fft_forward_xs1:sine <- [SP+32]
	#DEBUG_VALUE: step <- 2
	#DEBUG_VALUE: step2 <- R1
	.loc	1 37 0                  # C:/Users/user/workspace/lib_dsp/src/fft/dsp_fft.xc:37:0
	{
		shr r1, r5, 1
		stw r5, sp[18]
	}
.Ltmp52:
	#DEBUG_VALUE: k <- 0
	#DEBUG_VALUE: step4 <- R0
	.loc	1 38 0                  # C:/Users/user/workspace/lib_dsp/src/fft/dsp_fft.xc:38:0
	{
		shr r0, r5, 2
		stw r1, sp[2]
	}
.Ltmp53:
	#DEBUG_VALUE: step2 <- [SP+8]
	#DEBUG_VALUE: k <- R1
	.loc	1 40 0                  # C:/Users/user/workspace/lib_dsp/src/fft/dsp_fft.xc:40:0
	{
		zext r1, 1
		stw r0, sp[4]
	}
.Ltmp54:
	.loc	1 40 0                  # C:/Users/user/workspace/lib_dsp/src/fft/dsp_fft.xc:40:0
	{
		add r0, r1, r0
		stw r1, sp[10]
	}
	{
		nop
		stw r0, sp[6]
	}
.Ltmp55:
	#DEBUG_VALUE: k <- [SP+40]
	#DEBUG_VALUE: step4 <- [SP+16]
	bf r0, .LBB6_8
.Ltmp56:
# BB#3:                                 # %LoopBody15.preheader
                                        #   in Loop: Header=BB6_2 Depth=1
	#DEBUG_VALUE: dsp_fft_forward_xs1:pts <- [SP+4]
	#DEBUG_VALUE: dsp_fft_forward_xs1:N <- [SP+12]
	#DEBUG_VALUE: dsp_fft_forward_xs1:sine <- [SP+32]
	#DEBUG_VALUE: step <- 2
	#DEBUG_VALUE: step2 <- [SP+8]
	#DEBUG_VALUE: step4 <- [SP+16]
	#DEBUG_VALUE: k <- [SP+40]
	{
		nop
		ldw r0, sp[3]
	}
.Ltmp57:
	#DEBUG_VALUE: dsp_fft_forward_xs1:N <- R0
	.loc	1 43 0                  # C:/Users/user/workspace/lib_dsp/src/fft/dsp_fft.xc:43:0
	{
		sub r1, r0, r5
		nop
	}
.Ltmp58:
	.loc	1 41 0                  # C:/Users/user/workspace/lib_dsp/src/fft/dsp_fft.xc:41:0
	{
		shl r11, r1, 3
		stw r1, sp[5]
	}
	.loc	1 41 0                  # C:/Users/user/workspace/lib_dsp/src/fft/dsp_fft.xc:41:0
	{
		shl r1, r5, 3
		stw r11, sp[15]
	}
	{
		neg r1, r1
		nop
	}
	{
		nop
		stw r1, sp[14]
	}
	{
		nop
		ldw r1, sp[2]
	}
	.loc	1 41 0                  # C:/Users/user/workspace/lib_dsp/src/fft/dsp_fft.xc:41:0
	{
		add r2, r0, r1
		nop
	}
.Ltmp59:
	#DEBUG_VALUE: dsp_fft_forward_xs1:N <- [SP+12]
	.loc	1 41 0                  # C:/Users/user/workspace/lib_dsp/src/fft/dsp_fft.xc:41:0
	{
		sub r2, r2, r5
		nop
	}
	.loc	1 41 0                  # C:/Users/user/workspace/lib_dsp/src/fft/dsp_fft.xc:41:0
	{
		shl r1, r2, 3
		nop
	}
	{
		nop
		stw r1, sp[13]
	}
	{
		nop
		ldw r0, sp[1]
	}
	{
		mov r2, r9
		stw r0, sp[12]
	}
.Ltmp60:
.LBB6_4:                                # %LoopBody15
                                        #   Parent Loop BB6_2 Depth=1
                                        # =>  This Loop Header: Depth=2
                                        #       Child Loop BB6_6 Depth 3
.Lxtalabel8:
	#DEBUG_VALUE: dsp_fft_forward_xs1:pts <- [SP+4]
	#DEBUG_VALUE: dsp_fft_forward_xs1:N <- [SP+12]
	#DEBUG_VALUE: dsp_fft_forward_xs1:sine <- [SP+32]
	#DEBUG_VALUE: step <- 2
	#DEBUG_VALUE: step2 <- [SP+8]
	#DEBUG_VALUE: step4 <- [SP+16]
	#DEBUG_VALUE: k <- [SP+40]
	{
		nop
		stw r2, sp[11]
	}
	{
		nop
		ldw r0, sp[5]
	}
	.loc	1 43 0                  # C:/Users/user/workspace/lib_dsp/src/fft/dsp_fft.xc:43:0
.Ltmp61:
	{
		add r10, r0, r2
		nop
	}
.Ltmp62:
	#DEBUG_VALUE: block <- R10
	.loc	1 43 0                  # C:/Users/user/workspace/lib_dsp/src/fft/dsp_fft.xc:43:0
	ashr r2, r10, 32
	bt r2, .LBB6_7
.Ltmp63:
# BB#5:                                 # %LoopBody39.preheader
                                        #   in Loop: Header=BB6_4 Depth=2
	#DEBUG_VALUE: dsp_fft_forward_xs1:pts <- [SP+4]
	#DEBUG_VALUE: dsp_fft_forward_xs1:N <- [SP+12]
	#DEBUG_VALUE: dsp_fft_forward_xs1:sine <- [SP+32]
	#DEBUG_VALUE: step <- 2
	#DEBUG_VALUE: step2 <- [SP+8]
	#DEBUG_VALUE: step4 <- [SP+16]
	#DEBUG_VALUE: k <- [SP+40]
	#DEBUG_VALUE: block <- R10
	{
		nop
		ldw r0, sp[9]
	}
	{
		nop
		ldw r2, sp[11]
	}
	.loc	1 41 0                  # C:/Users/user/workspace/lib_dsp/src/fft/dsp_fft.xc:41:0
	{
		shl r3, r2, r0
		ldw r0, sp[7]
	}
.Ltmp64:
	#DEBUG_VALUE: dsp_fft_forward_xs1:sine <- R0
	.loc	1 41 0                  # C:/Users/user/workspace/lib_dsp/src/fft/dsp_fft.xc:41:0
	{
		sub r2, r0, r3
		ldw r0, sp[8]
	}
.Ltmp65:
	{
		nop
		ldw r6, r0[r2]
	}
.Ltmp66:
	#DEBUG_VALUE: rRe <- R6
	{
		nop
		ldw r0, r0[r3]
	}
.Ltmp67:
	#DEBUG_VALUE: rIm <- R0
	#DEBUG_VALUE: dsp_fft_forward_xs1:sine <- [SP+32]
	.loc	1 55 0                  # C:/Users/user/workspace/lib_dsp/src/fft/dsp_fft.xc:55:0
	{
		neg r0, r0
		stw r0, sp[17]
	}
.Ltmp68:
	{
		nop
		stw r0, sp[16]
	}
.Ltmp69:
	#DEBUG_VALUE: rIm <- [SP+68]
	{
		nop
		ldw r4, sp[12]
	}
.Ltmp70:
.LBB6_6:                                # %LoopBody39
                                        #   Parent Loop BB6_2 Depth=1
                                        #     Parent Loop BB6_4 Depth=2
                                        # =>    This Inner Loop Header: Depth=3
.Lxtalabel9:
	#DEBUG_VALUE: dsp_fft_forward_xs1:pts <- [SP+4]
	#DEBUG_VALUE: dsp_fft_forward_xs1:N <- [SP+12]
	#DEBUG_VALUE: dsp_fft_forward_xs1:sine <- [SP+32]
	#DEBUG_VALUE: step <- 2
	#DEBUG_VALUE: step2 <- [SP+8]
	#DEBUG_VALUE: step4 <- [SP+16]
	#DEBUG_VALUE: k <- [SP+40]
	#DEBUG_VALUE: rRe <- R6
	#DEBUG_VALUE: rIm <- [SP+68]
	{
		add r3, r4, r11
		nop
	}
	{
		nop
		ldw r0, r3[0]
	}
.Ltmp71:
	#DEBUG_VALUE: tRe <- [SP+84]
	{
		nop
		stw r0, sp[21]
	}
	{
		nop
		ldw r0, r3[1]
	}
.Ltmp72:
	#DEBUG_VALUE: tIm <- [SP+80]
	{
		add r11, r4, r1
		stw r0, sp[20]
	}
	{
		nop
		ldw r1, r11[0]
	}
.Ltmp73:
	#DEBUG_VALUE: tRe2 <- R1
	{
		nop
		ldw r5, r11[1]
	}
.Ltmp74:
	#DEBUG_VALUE: tIm2 <- R5
	{
		mov r0, r7
		stw r5, sp[19]
	}
	.loc	1 52 0                  # C:/Users/user/workspace/lib_dsp/src/fft/dsp_fft.xc:52:0
	{
		mov r8, r9
		nop
	}
	#APP
	maccs r8, r7, r1, r6
	#NO_APP
	{
		nop
		ldw r2, sp[17]
	}
	.loc	1 53 0                  # C:/Users/user/workspace/lib_dsp/src/fft/dsp_fft.xc:53:0
	#APP
	maccs r8, r7, r5, r2
	#NO_APP
.Ltmp75:
	#DEBUG_VALUE: tIm2 <- [SP+76]
	.loc	1 55 0                  # C:/Users/user/workspace/lib_dsp/src/fft/dsp_fft.xc:55:0
	{
		mov r7, r0
		mov r2, r9
	}
	{
		nop
		ldw r5, sp[16]
	}
	#APP
	maccs r9, r7, r1, r5
	#NO_APP
	{
		nop
		ldw r0, sp[19]
	}
	.loc	1 56 0                  # C:/Users/user/workspace/lib_dsp/src/fft/dsp_fft.xc:56:0
	#APP
	maccs r9, r7, r0, r6
	#NO_APP
	{
		nop
		ldw r0, sp[21]
	}
	.loc	1 58 0                  # C:/Users/user/workspace/lib_dsp/src/fft/dsp_fft.xc:58:0
	ashr r0, r0, 1
.Ltmp76:
	#DEBUG_VALUE: tRe <- R0
	{
		nop
		ldw r1, sp[20]
	}
.Ltmp77:
	.loc	1 59 0                  # C:/Users/user/workspace/lib_dsp/src/fft/dsp_fft.xc:59:0
	ashr r1, r1, 1
.Ltmp78:
	#DEBUG_VALUE: tIm <- R1
	{
		add r5, r8, r0
		ldw r7, sp[14]
	}
	.loc	1 60 0                  # C:/Users/user/workspace/lib_dsp/src/fft/dsp_fft.xc:60:0
	{
		add r5, r9, r1
		stw r5, r3[0]
	}
	{
		nop
		stw r5, r3[1]
	}
	{
		sub r0, r0, r8
		ldw r5, sp[18]
	}
.Ltmp79:
	.loc	1 62 0                  # C:/Users/user/workspace/lib_dsp/src/fft/dsp_fft.xc:62:0
	{
		sub r0, r1, r9
		stw r0, r11[0]
	}
	{
		mov r9, r2
		ldw r1, sp[13]
	}
.Ltmp80:
	{
		nop
		stw r0, r11[1]
	}
.Ltmp81:
	#DEBUG_VALUE: block <- R10
	{
		sub r10, r10, r5
		ldw r11, sp[15]
	}
.Ltmp82:
	.loc	1 43 0                  # C:/Users/user/workspace/lib_dsp/src/fft/dsp_fft.xc:43:0
	{
		add r4, r4, r7
		nop
	}
	ldw r7, cp[.LCPI6_0]
.Lxta.loop_labels0:
	# LOOPMARKER 0
	.loc	1 43 0                  # C:/Users/user/workspace/lib_dsp/src/fft/dsp_fft.xc:43:0
	ashr r0, r10, 32
	bf r0, .LBB6_6
.Ltmp83:
.LBB6_7:                                # %LoopIncrement17
                                        #   in Loop: Header=BB6_4 Depth=2
.Lxtalabel10:
	#DEBUG_VALUE: dsp_fft_forward_xs1:pts <- [SP+4]
	#DEBUG_VALUE: dsp_fft_forward_xs1:N <- [SP+12]
	#DEBUG_VALUE: dsp_fft_forward_xs1:sine <- [SP+32]
	#DEBUG_VALUE: step <- 2
	#DEBUG_VALUE: step2 <- [SP+8]
	#DEBUG_VALUE: step4 <- [SP+16]
	#DEBUG_VALUE: k <- [SP+40]
	{
		nop
		ldw r2, sp[11]
	}
.Ltmp84:
	#DEBUG_VALUE: k <- R2
	.loc	1 40 0                  # C:/Users/user/workspace/lib_dsp/src/fft/dsp_fft.xc:40:0
	{
		add r2, r2, 1
		ldw r0, sp[12]
	}
.Ltmp85:
	.loc	1 40 0                  # C:/Users/user/workspace/lib_dsp/src/fft/dsp_fft.xc:40:0
	{
		add r0, r0, 8
		nop
	}
	{
		nop
		stw r0, sp[12]
	}
	{
		nop
		ldw r0, sp[6]
	}
	.loc	1 40 0                  # C:/Users/user/workspace/lib_dsp/src/fft/dsp_fft.xc:40:0
	{
		lsu r0, r2, r0
		nop
	}
.Lxta.loop_labels1:
	# LOOPMARKER 1
	bt r0, .LBB6_4
.Ltmp86:
.LBB6_8:                                # %ifdone7
                                        #   in Loop: Header=BB6_2 Depth=1
.Lxtalabel11:
	#DEBUG_VALUE: dsp_fft_forward_xs1:pts <- [SP+4]
	#DEBUG_VALUE: dsp_fft_forward_xs1:N <- [SP+12]
	#DEBUG_VALUE: dsp_fft_forward_xs1:sine <- [SP+32]
	#DEBUG_VALUE: step <- 2
	#DEBUG_VALUE: step2 <- [SP+8]
	#DEBUG_VALUE: step4 <- [SP+16]
	#DEBUG_VALUE: k <- [SP+40]
	{
		mov r4, r7
		mov r1, r9
	}
	{
		nop
		ldw r0, sp[4]
	}
	{
		nop
		ldw r11, sp[10]
	}
.Ltmp87:
	#DEBUG_VALUE: k <- R11
	.loc	1 67 0                  # C:/Users/user/workspace/lib_dsp/src/fft/dsp_fft.xc:67:0
	{
		lsu r0, r11, r0
		nop
	}
	bf r0, .LBB6_14
.Ltmp88:
# BB#9:                                 # %LoopBody125.preheader
                                        #   in Loop: Header=BB6_2 Depth=1
	#DEBUG_VALUE: dsp_fft_forward_xs1:pts <- [SP+4]
	#DEBUG_VALUE: dsp_fft_forward_xs1:N <- [SP+12]
	#DEBUG_VALUE: dsp_fft_forward_xs1:sine <- [SP+32]
	#DEBUG_VALUE: step <- 2
	#DEBUG_VALUE: step2 <- [SP+8]
	#DEBUG_VALUE: step4 <- [SP+16]
	#DEBUG_VALUE: k <- R11
	{
		nop
		ldw r1, sp[3]
	}
.Ltmp89:
	#DEBUG_VALUE: dsp_fft_forward_xs1:N <- R1
	#DEBUG_VALUE: step4 <- R2
	.loc	1 70 0                  # C:/Users/user/workspace/lib_dsp/src/fft/dsp_fft.xc:70:0
	{
		sub r0, r1, r5
		ldw r2, sp[4]
	}
.Ltmp90:
	.loc	1 70 0                  # C:/Users/user/workspace/lib_dsp/src/fft/dsp_fft.xc:70:0
	{
		add r0, r0, r2
		nop
	}
.Ltmp91:
	#DEBUG_VALUE: step4 <- [SP+16]
	#DEBUG_VALUE: dsp_fft_forward_xs1:N <- [SP+12]
	.loc	1 68 0                  # C:/Users/user/workspace/lib_dsp/src/fft/dsp_fft.xc:68:0
	{
		add r1, r1, r2
		stw r0, sp[13]
	}
	{
		nop
		ldw r6, sp[2]
	}
.Ltmp92:
	#DEBUG_VALUE: step2 <- R6
	{
		mov r2, r6
		nop
	}
	{
		zext r2, 1
		nop
	}
	.loc	1 68 0                  # C:/Users/user/workspace/lib_dsp/src/fft/dsp_fft.xc:68:0
	{
		add r0, r1, r2
		nop
	}
	.loc	1 68 0                  # C:/Users/user/workspace/lib_dsp/src/fft/dsp_fft.xc:68:0
	{
		sub r0, r0, r5
		nop
	}
	.loc	1 68 0                  # C:/Users/user/workspace/lib_dsp/src/fft/dsp_fft.xc:68:0
	{
		shl r8, r0, 3
		nop
	}
	.loc	1 68 0                  # C:/Users/user/workspace/lib_dsp/src/fft/dsp_fft.xc:68:0
	{
		shl r0, r5, 3
		stw r8, sp[15]
	}
	{
		neg r9, r0
		add r1, r1, r6
	}
	.loc	1 68 0                  # C:/Users/user/workspace/lib_dsp/src/fft/dsp_fft.xc:68:0
	{
		add r1, r1, r2
		nop
	}
	.loc	1 68 0                  # C:/Users/user/workspace/lib_dsp/src/fft/dsp_fft.xc:68:0
	{
		sub r1, r1, r5
		nop
	}
	.loc	1 68 0                  # C:/Users/user/workspace/lib_dsp/src/fft/dsp_fft.xc:68:0
	{
		shl r6, r1, 3
		nop
	}
.Ltmp93:
	{
		nop
		stw r6, sp[16]
	}
	{
		nop
		ldw r0, sp[1]
	}
	{
		nop
		stw r0, sp[14]
	}
.Ltmp94:
.LBB6_10:                               # %LoopBody125
                                        #   Parent Loop BB6_2 Depth=1
                                        # =>  This Loop Header: Depth=2
                                        #       Child Loop BB6_12 Depth 3
.Lxtalabel12:
	#DEBUG_VALUE: dsp_fft_forward_xs1:pts <- [SP+4]
	#DEBUG_VALUE: dsp_fft_forward_xs1:N <- [SP+12]
	#DEBUG_VALUE: dsp_fft_forward_xs1:sine <- [SP+32]
	#DEBUG_VALUE: step <- 2
	#DEBUG_VALUE: step4 <- [SP+16]
	{
		nop
		stw r11, sp[10]
	}
	{
		nop
		ldw r0, sp[13]
	}
	.loc	1 70 0                  # C:/Users/user/workspace/lib_dsp/src/fft/dsp_fft.xc:70:0
.Ltmp95:
	{
		add r11, r0, r11
		nop
	}
.Ltmp96:
	#DEBUG_VALUE: block <- R11
	.loc	1 70 0                  # C:/Users/user/workspace/lib_dsp/src/fft/dsp_fft.xc:70:0
	ashr r2, r11, 32
	bt r2, .LBB6_13
.Ltmp97:
# BB#11:                                # %LoopBody158.preheader
                                        #   in Loop: Header=BB6_10 Depth=2
	#DEBUG_VALUE: dsp_fft_forward_xs1:pts <- [SP+4]
	#DEBUG_VALUE: dsp_fft_forward_xs1:N <- [SP+12]
	#DEBUG_VALUE: dsp_fft_forward_xs1:sine <- [SP+32]
	#DEBUG_VALUE: step <- 2
	#DEBUG_VALUE: step4 <- [SP+16]
	#DEBUG_VALUE: block <- R11
	{
		nop
		ldw r0, sp[9]
	}
	{
		nop
		ldw r1, sp[10]
	}
.Ltmp98:
	#DEBUG_VALUE: dsp_fft_forward_xs1:sine <- R0
	.loc	1 68 0                  # C:/Users/user/workspace/lib_dsp/src/fft/dsp_fft.xc:68:0
	{
		shl r3, r1, r0
		ldw r0, sp[8]
	}
.Ltmp99:
	{
		nop
		ldw r2, r0[r3]
	}
.Ltmp100:
	#DEBUG_VALUE: rRe <- R2
	.loc	1 68 0                  # C:/Users/user/workspace/lib_dsp/src/fft/dsp_fft.xc:68:0
	{
		neg r2, r2
		ldw r1, sp[7]
	}
.Ltmp101:
	.loc	1 69 0                  # C:/Users/user/workspace/lib_dsp/src/fft/dsp_fft.xc:69:0
	{
		sub r3, r1, r3
		nop
	}
	{
		nop
		ldw r0, r0[r3]
	}
.Ltmp102:
	#DEBUG_VALUE: rIm <- R0
	#DEBUG_VALUE: dsp_fft_forward_xs1:sine <- [SP+32]
	.loc	1 82 0                  # C:/Users/user/workspace/lib_dsp/src/fft/dsp_fft.xc:82:0
	{
		neg r0, r0
		stw r0, sp[19]
	}
.Ltmp103:
	{
		nop
		stw r0, sp[17]
	}
.Ltmp104:
	#DEBUG_VALUE: rIm <- [SP+76]
	{
		nop
		ldw r7, sp[14]
	}
.Ltmp105:
.LBB6_12:                               # %LoopBody158
                                        #   Parent Loop BB6_2 Depth=1
                                        #     Parent Loop BB6_10 Depth=2
                                        # =>    This Inner Loop Header: Depth=3
.Lxtalabel13:
	#DEBUG_VALUE: dsp_fft_forward_xs1:pts <- [SP+4]
	#DEBUG_VALUE: dsp_fft_forward_xs1:N <- [SP+12]
	#DEBUG_VALUE: dsp_fft_forward_xs1:sine <- [SP+32]
	#DEBUG_VALUE: step <- 2
	#DEBUG_VALUE: step4 <- [SP+16]
	#DEBUG_VALUE: rRe <- R2
	#DEBUG_VALUE: rIm <- [SP+76]
	{
		add r3, r7, r8
		nop
	}
	{
		nop
		ldw r0, r3[0]
	}
.Ltmp106:
	#DEBUG_VALUE: tRe <- [SP+84]
	{
		nop
		stw r0, sp[21]
	}
	{
		nop
		ldw r0, r3[1]
	}
.Ltmp107:
	#DEBUG_VALUE: tIm <- [SP+80]
	{
		add r10, r7, r6
		stw r0, sp[20]
	}
.Ltmp108:
	#DEBUG_VALUE: tRe2 <- R9
	{
		mov r5, r9
		ldw r9, r10[0]
	}
.Ltmp109:
	#DEBUG_VALUE: tIm2 <- R0
	.loc	1 74 0                  # C:/Users/user/workspace/lib_dsp/src/fft/dsp_fft.xc:74:0
	{
		mov r1, r4
		ldw r0, r10[1]
	}
.Ltmp110:
	{
		ldc r4, 0
		nop
	}
	.loc	1 79 0                  # C:/Users/user/workspace/lib_dsp/src/fft/dsp_fft.xc:79:0
.Ltmp111:
	{
		mov r8, r4
		nop
	}
	#APP
	maccs r8, r1, r9, r2
	#NO_APP
	{
		nop
		ldw r6, sp[19]
	}
	.loc	1 80 0                  # C:/Users/user/workspace/lib_dsp/src/fft/dsp_fft.xc:80:0
	#APP
	maccs r8, r1, r0, r6
	#NO_APP
	ldw r1, cp[.LCPI6_0]
	{
		nop
		ldw r6, sp[17]
	}
	.loc	1 82 0                  # C:/Users/user/workspace/lib_dsp/src/fft/dsp_fft.xc:82:0
	#APP
	maccs r4, r1, r9, r6
	#NO_APP
	{
		mov r9, r5
		nop
	}
	.loc	1 83 0                  # C:/Users/user/workspace/lib_dsp/src/fft/dsp_fft.xc:83:0
	#APP
	maccs r4, r1, r0, r2
	#NO_APP
	{
		nop
		ldw r0, sp[21]
	}
	.loc	1 85 0                  # C:/Users/user/workspace/lib_dsp/src/fft/dsp_fft.xc:85:0
	ashr r0, r0, 1
.Ltmp112:
	#DEBUG_VALUE: tRe <- R0
	{
		nop
		ldw r1, sp[20]
	}
	.loc	1 86 0                  # C:/Users/user/workspace/lib_dsp/src/fft/dsp_fft.xc:86:0
	ashr r1, r1, 1
.Ltmp113:
	#DEBUG_VALUE: tIm <- R1
	.loc	1 87 0                  # C:/Users/user/workspace/lib_dsp/src/fft/dsp_fft.xc:87:0
	{
		add r5, r8, r0
		nop
	}
	.loc	1 87 0                  # C:/Users/user/workspace/lib_dsp/src/fft/dsp_fft.xc:87:0
	{
		add r5, r4, r1
		stw r5, r3[0]
	}
	{
		nop
		stw r5, r3[1]
	}
	{
		sub r0, r0, r8
		ldw r5, sp[18]
	}
.Ltmp114:
	{
		nop
		ldw r8, sp[15]
	}
	{
		nop
		ldw r6, sp[16]
	}
	.loc	1 89 0                  # C:/Users/user/workspace/lib_dsp/src/fft/dsp_fft.xc:89:0
	{
		sub r0, r1, r4
		stw r0, r10[0]
	}
	ldw r4, cp[.LCPI6_0]
.Ltmp115:
	#DEBUG_VALUE: block <- R11
	.loc	1 90 0                  # C:/Users/user/workspace/lib_dsp/src/fft/dsp_fft.xc:90:0
	{
		sub r11, r11, r5
		stw r0, r10[1]
	}
.Ltmp116:
	.loc	1 70 0                  # C:/Users/user/workspace/lib_dsp/src/fft/dsp_fft.xc:70:0
	{
		add r7, r7, r9
		nop
	}
.Lxta.loop_labels2:
	# LOOPMARKER 2
	.loc	1 70 0                  # C:/Users/user/workspace/lib_dsp/src/fft/dsp_fft.xc:70:0
	ashr r0, r11, 32
	bf r0, .LBB6_12
.Ltmp117:
.LBB6_13:                               # %LoopIncrement127
                                        #   in Loop: Header=BB6_10 Depth=2
.Lxtalabel14:
	#DEBUG_VALUE: dsp_fft_forward_xs1:pts <- [SP+4]
	#DEBUG_VALUE: dsp_fft_forward_xs1:N <- [SP+12]
	#DEBUG_VALUE: dsp_fft_forward_xs1:sine <- [SP+32]
	#DEBUG_VALUE: step <- 2
	#DEBUG_VALUE: step4 <- [SP+16]
	{
		ldc r1, 0
		ldw r11, sp[10]
	}
.Ltmp118:
	#DEBUG_VALUE: k <- R11
	.loc	1 67 0                  # C:/Users/user/workspace/lib_dsp/src/fft/dsp_fft.xc:67:0
	{
		add r11, r11, 1
		ldw r0, sp[14]
	}
.Ltmp119:
	.loc	1 67 0                  # C:/Users/user/workspace/lib_dsp/src/fft/dsp_fft.xc:67:0
	{
		add r0, r0, 8
		nop
	}
	{
		nop
		stw r0, sp[14]
	}
	{
		nop
		ldw r0, sp[4]
	}
	.loc	1 67 0                  # C:/Users/user/workspace/lib_dsp/src/fft/dsp_fft.xc:67:0
	{
		lsu r0, r11, r0
		nop
	}
.Lxta.loop_labels3:
	# LOOPMARKER 3
	bt r0, .LBB6_10
.Ltmp120:
.LBB6_14:                               # %LoopIncrement
                                        #   in Loop: Header=BB6_2 Depth=1
.Lxtalabel15:
	#DEBUG_VALUE: dsp_fft_forward_xs1:pts <- [SP+4]
	#DEBUG_VALUE: dsp_fft_forward_xs1:N <- [SP+12]
	#DEBUG_VALUE: dsp_fft_forward_xs1:sine <- [SP+32]
	#DEBUG_VALUE: step <- 2
	#DEBUG_VALUE: step <- R5
	.loc	1 36 0                  # C:/Users/user/workspace/lib_dsp/src/fft/dsp_fft.xc:36:0
	{
		shl r5, r5, 1
		ldw r0, sp[9]
	}
.Ltmp121:
	.loc	1 36 0                  # C:/Users/user/workspace/lib_dsp/src/fft/dsp_fft.xc:36:0
	{
		sub r0, r0, 1
		nop
	}
.Ltmp122:
	#DEBUG_VALUE: shift <- [SP+36]
	{
		nop
		stw r0, sp[9]
	}
.Lxta.loop_labels4:
	# LOOPMARKER 4
	{
		nop
		ldw r0, sp[3]
	}
	.loc	1 36 0                  # C:/Users/user/workspace/lib_dsp/src/fft/dsp_fft.xc:36:0
	{
		lsu r0, r0, r5
		mov r9, r1
	}
	{
		mov r7, r4
		nop
	}
	bf r0, .LBB6_2
.Ltmp123:
.LBB6_15:                               # %return
.Lxtalabel16:
	{
		nop
		ldw r10, sp[28]
	}
	{
		nop
		ldw r8, sp[26]
	}
	{
		nop
		ldw r9, sp[27]
	}
	{
		nop
		ldw r6, sp[24]
	}
	{
		nop
		ldw r7, sp[25]
	}
	ldd r5, r4, sp[11]              # 4-byte Folded Reload
	{
		nop
		retsp 30
	}
	# RETURN_REG_HOLDER
	.cc_bottom dsp_fft_forward_xs1.function
	.set	dsp_fft_forward_xs1.nstackwords,30
	.globl	dsp_fft_forward_xs1.nstackwords
	.set	dsp_fft_forward_xs1.maxcores,1
	.globl	dsp_fft_forward_xs1.maxcores
	.set	dsp_fft_forward_xs1.maxtimers,0
	.globl	dsp_fft_forward_xs1.maxtimers
	.set	dsp_fft_forward_xs1.maxchanends,0
	.globl	dsp_fft_forward_xs1.maxchanends
.Ltmp124:
	.size	dsp_fft_forward_xs1, .Ltmp124-dsp_fft_forward_xs1
.Lfunc_end6:
	.cfi_endproc

	.section	.cp.rodata.cst4,"aMc",@progbits,4
	.cc_top .LCPI7_0.data,.LCPI7_0
	.align	4
	.type	.LCPI7_0,@object
	.size	.LCPI7_0, 4
.LCPI7_0:
	.long	4294967288              # 0xfffffff8
	.cc_bottom .LCPI7_0.data
	.cc_top .LCPI7_1.data,.LCPI7_1
	.align	4
	.type	.LCPI7_1,@object
	.size	.LCPI7_1, 4
.LCPI7_1:
	.long	2147483648              # 0x80000000
	.cc_bottom .LCPI7_1.data
	.text
	.globl	dsp_fft_inverse_xs1
	.align	4
	.type	dsp_fft_inverse_xs1,@function
	.cc_top dsp_fft_inverse_xs1.function,dsp_fft_inverse_xs1
dsp_fft_inverse_xs1:                    # @dsp_fft_inverse_xs1
.Lfunc_begin7:
	.loc	1 102 0                 # C:/Users/user/workspace/lib_dsp/src/fft/dsp_fft.xc:102:0
	.cfi_startproc
	.issue_mode dual
# BB#0:                                 # %allocas
.Lxtalabel17:
	{
		nop
		dualentsp 28
	}
.Ltmp125:
	.cfi_def_cfa_offset 112
.Ltmp126:
	.cfi_offset 15, 0
	std r5, r4, sp[10]              # 4-byte Folded Spill
.Ltmp127:
	.cfi_offset 4, -32
.Ltmp128:
	.cfi_offset 5, -28
	std r7, r6, sp[11]              # 4-byte Folded Spill
.Ltmp129:
	.cfi_offset 6, -24
.Ltmp130:
	.cfi_offset 7, -20
	{
		nop
		stw r8, sp[24]
	}
	{
		nop
		stw r9, sp[25]
	}
.Ltmp131:
	.cfi_offset 8, -16
.Ltmp132:
	.cfi_offset 9, -12
	{
		nop
		stw r10, sp[26]
	}
.Ltmp133:
	.cfi_offset 10, -8
	#DEBUG_VALUE: dsp_fft_inverse_xs1:pts <- R0
	#DEBUG_VALUE: dsp_fft_inverse_xs1:N <- R1
	#DEBUG_VALUE: dsp_fft_inverse_xs1:sine <- R2
	{
		nop
		stw r2, sp[4]
	}
.Ltmp134:
	#DEBUG_VALUE: dsp_fft_inverse_xs1:sine <- [SP+16]
	#DEBUG_VALUE: step <- 2
	#DEBUG_VALUE: dsp_fft_inverse_xs1:pts <- [SP+4]
	{
		ldc r3, 2
		stw r0, sp[1]
	}
	.loc	1 104 0 prologue_end    # C:/Users/user/workspace/lib_dsp/src/fft/dsp_fft.xc:104:0
.Ltmp135:
	{
		lsu r0, r1, r3
		nop
	}
	bt r0, .LBB7_15
.Ltmp136:
# BB#1:                                 # %LoopBody.preheader
	#DEBUG_VALUE: dsp_fft_inverse_xs1:pts <- [SP+4]
	#DEBUG_VALUE: dsp_fft_inverse_xs1:N <- R1
	#DEBUG_VALUE: dsp_fft_inverse_xs1:sine <- [SP+16]
	#DEBUG_VALUE: step <- 2
	{
		mov r2, r1
		nop
	}
.Ltmp137:
	#DEBUG_VALUE: dsp_fft_inverse_xs1:N <- R2
	.loc	1 103 0                 # C:/Users/user/workspace/lib_dsp/src/fft/dsp_fft.xc:103:0
	{
		clz r0, r2
		stw r2, sp[8]
	}
	{
		ldc r1, 30
		nop
	}
	.loc	1 103 0                 # C:/Users/user/workspace/lib_dsp/src/fft/dsp_fft.xc:103:0
	{
		sub r0, r1, r0
		nop
	}
.Ltmp138:
	#DEBUG_VALUE: shift <- [SP+24]
	.loc	1 133 0                 # C:/Users/user/workspace/lib_dsp/src/fft/dsp_fft.xc:133:0
	{
		shr r0, r2, 2
		stw r0, sp[6]
	}
.Ltmp139:
	#DEBUG_VALUE: dsp_fft_inverse_xs1:N <- [SP+32]
	{
		ldc r2, 0
		stw r0, sp[3]
	}
	ldw r9, cp[.LCPI7_1]
.Ltmp140:
.LBB7_2:                                # %LoopBody
                                        # =>This Loop Header: Depth=1
                                        #     Child Loop BB7_4 Depth 2
                                        #       Child Loop BB7_6 Depth 3
                                        #     Child Loop BB7_10 Depth 2
                                        #       Child Loop BB7_12 Depth 3
.Lxtalabel18:
	#DEBUG_VALUE: dsp_fft_inverse_xs1:pts <- [SP+4]
	#DEBUG_VALUE: dsp_fft_inverse_xs1:N <- [SP+32]
	#DEBUG_VALUE: dsp_fft_inverse_xs1:sine <- [SP+16]
	#DEBUG_VALUE: step <- 2
	#DEBUG_VALUE: step2 <- R1
	.loc	1 105 0                 # C:/Users/user/workspace/lib_dsp/src/fft/dsp_fft.xc:105:0
	{
		shr r1, r3, 1
		stw r3, sp[17]
	}
.Ltmp141:
	#DEBUG_VALUE: k <- 0
	#DEBUG_VALUE: step4 <- R0
	.loc	1 106 0                 # C:/Users/user/workspace/lib_dsp/src/fft/dsp_fft.xc:106:0
	{
		shr r0, r3, 2
		stw r1, sp[2]
	}
.Ltmp142:
	#DEBUG_VALUE: step2 <- [SP+8]
	#DEBUG_VALUE: k <- R1
	.loc	1 108 0                 # C:/Users/user/workspace/lib_dsp/src/fft/dsp_fft.xc:108:0
	{
		zext r1, 1
		stw r0, sp[5]
	}
.Ltmp143:
	.loc	1 108 0                 # C:/Users/user/workspace/lib_dsp/src/fft/dsp_fft.xc:108:0
	{
		add r0, r1, r0
		stw r1, sp[9]
	}
	{
		nop
		stw r0, sp[7]
	}
.Ltmp144:
	#DEBUG_VALUE: k <- [SP+36]
	#DEBUG_VALUE: step4 <- [SP+20]
	bf r0, .LBB7_8
.Ltmp145:
# BB#3:                                 # %LoopBody15.preheader
                                        #   in Loop: Header=BB7_2 Depth=1
	#DEBUG_VALUE: dsp_fft_inverse_xs1:pts <- [SP+4]
	#DEBUG_VALUE: dsp_fft_inverse_xs1:N <- [SP+32]
	#DEBUG_VALUE: dsp_fft_inverse_xs1:sine <- [SP+16]
	#DEBUG_VALUE: step <- 2
	#DEBUG_VALUE: step2 <- [SP+8]
	#DEBUG_VALUE: step4 <- [SP+20]
	#DEBUG_VALUE: k <- [SP+36]
	.loc	1 109 0                 # C:/Users/user/workspace/lib_dsp/src/fft/dsp_fft.xc:109:0
	{
		shl r0, r3, 3
		nop
	}
	.loc	1 109 0                 # C:/Users/user/workspace/lib_dsp/src/fft/dsp_fft.xc:109:0
	{
		shl r1, r3, 2
		stw r0, sp[13]
	}
	ldw r0, cp[.LCPI7_0]
	.loc	1 109 0                 # C:/Users/user/workspace/lib_dsp/src/fft/dsp_fft.xc:109:0
	{
		and r4, r1, r0
		nop
	}
	{
		nop
		stw r4, sp[12]
	}
	{
		nop
		ldw r0, sp[1]
	}
	{
		mov r1, r2
		stw r0, sp[11]
	}
.Ltmp146:
.LBB7_4:                                # %LoopBody15
                                        #   Parent Loop BB7_2 Depth=1
                                        # =>  This Loop Header: Depth=2
                                        #       Child Loop BB7_6 Depth 3
.Lxtalabel19:
	#DEBUG_VALUE: dsp_fft_inverse_xs1:pts <- [SP+4]
	#DEBUG_VALUE: dsp_fft_inverse_xs1:N <- [SP+32]
	#DEBUG_VALUE: dsp_fft_inverse_xs1:sine <- [SP+16]
	#DEBUG_VALUE: step <- 2
	#DEBUG_VALUE: step2 <- [SP+8]
	#DEBUG_VALUE: step4 <- [SP+20]
	#DEBUG_VALUE: k <- [SP+36]
	#DEBUG_VALUE: block <- R1
	{
		nop
		stw r1, sp[10]
	}
	{
		nop
		ldw r0, sp[8]
	}
	.loc	1 111 0                 # C:/Users/user/workspace/lib_dsp/src/fft/dsp_fft.xc:111:0
.Ltmp147:
	{
		add r0, r1, r0
		nop
	}
.Ltmp148:
	#DEBUG_VALUE: block <- [SP+40]
	.loc	1 111 0                 # C:/Users/user/workspace/lib_dsp/src/fft/dsp_fft.xc:111:0
	{
		lsu r1, r1, r0
		stw r0, sp[16]
	}
	bf r1, .LBB7_7
.Ltmp149:
# BB#5:                                 # %LoopBody38.preheader
                                        #   in Loop: Header=BB7_4 Depth=2
	#DEBUG_VALUE: dsp_fft_inverse_xs1:pts <- [SP+4]
	#DEBUG_VALUE: dsp_fft_inverse_xs1:N <- [SP+32]
	#DEBUG_VALUE: dsp_fft_inverse_xs1:sine <- [SP+16]
	#DEBUG_VALUE: step <- 2
	#DEBUG_VALUE: step2 <- [SP+8]
	#DEBUG_VALUE: step4 <- [SP+20]
	#DEBUG_VALUE: k <- [SP+36]
	#DEBUG_VALUE: block <- [SP+40]
	{
		nop
		ldw r0, sp[6]
	}
	{
		nop
		ldw r3, sp[10]
	}
.Ltmp150:
	#DEBUG_VALUE: block <- R3
	.loc	1 109 0                 # C:/Users/user/workspace/lib_dsp/src/fft/dsp_fft.xc:109:0
	{
		shl r1, r3, r0
		ldw r0, sp[3]
	}
	{
		mov r11, r2
		sub r2, r0, r1
	}
	{
		nop
		ldw r0, sp[4]
	}
.Ltmp151:
	#DEBUG_VALUE: dsp_fft_inverse_xs1:sine <- R0
	#DEBUG_VALUE: rRe <- R7
	.loc	1 109 0                 # C:/Users/user/workspace/lib_dsp/src/fft/dsp_fft.xc:109:0
	{
		mov r2, r11
		ldw r7, r0[r2]
	}
.Ltmp152:
	{
		nop
		ldw r0, r0[r1]
	}
.Ltmp153:
	#DEBUG_VALUE: rIm <- R0
	#DEBUG_VALUE: dsp_fft_inverse_xs1:sine <- [SP+16]
	.loc	1 120 0                 # C:/Users/user/workspace/lib_dsp/src/fft/dsp_fft.xc:120:0
	{
		neg r0, r0
		stw r0, sp[15]
	}
.Ltmp154:
	{
		nop
		stw r0, sp[14]
	}
.Ltmp155:
	#DEBUG_VALUE: rIm <- [SP+60]
	#DEBUG_VALUE: block <- [SP+40]
	{
		mov r10, r3
		ldw r8, sp[11]
	}
.Ltmp156:
.LBB7_6:                                # %LoopBody38
                                        #   Parent Loop BB7_2 Depth=1
                                        #     Parent Loop BB7_4 Depth=2
                                        # =>    This Inner Loop Header: Depth=3
.Lxtalabel20:
	#DEBUG_VALUE: dsp_fft_inverse_xs1:pts <- [SP+4]
	#DEBUG_VALUE: dsp_fft_inverse_xs1:N <- [SP+32]
	#DEBUG_VALUE: dsp_fft_inverse_xs1:sine <- [SP+16]
	#DEBUG_VALUE: step <- 2
	#DEBUG_VALUE: step2 <- [SP+8]
	#DEBUG_VALUE: step4 <- [SP+20]
	#DEBUG_VALUE: k <- [SP+36]
	#DEBUG_VALUE: block <- [SP+40]
	#DEBUG_VALUE: rRe <- R7
	#DEBUG_VALUE: rIm <- [SP+60]
	{
		nop
		ldw r0, r8[0]
	}
.Ltmp157:
	#DEBUG_VALUE: tRe <- [SP+72]
	{
		nop
		stw r0, sp[18]
	}
	{
		nop
		ldw r0, r8[1]
	}
.Ltmp158:
	#DEBUG_VALUE: tIm <- [SP+76]
	{
		add r3, r8, r4
		stw r0, sp[19]
	}
	{
		nop
		ldw r6, r3[0]
	}
.Ltmp159:
	#DEBUG_VALUE: tRe2 <- R6
	#DEBUG_VALUE: tIm2 <- R0
	.loc	1 115 0                 # C:/Users/user/workspace/lib_dsp/src/fft/dsp_fft.xc:115:0
	{
		mov r4, r2
		ldw r0, r3[1]
	}
.Ltmp160:
	.loc	1 119 0                 # C:/Users/user/workspace/lib_dsp/src/fft/dsp_fft.xc:119:0
	{
		mov r11, r9
		nop
	}
	#APP
	maccs r4, r11, r6, r7
	#NO_APP
	{
		nop
		ldw r1, sp[14]
	}
	.loc	1 120 0                 # C:/Users/user/workspace/lib_dsp/src/fft/dsp_fft.xc:120:0
	#APP
	maccs r4, r11, r0, r1
	#NO_APP
	.loc	1 122 0                 # C:/Users/user/workspace/lib_dsp/src/fft/dsp_fft.xc:122:0
	{
		mov r11, r2
		mov r1, r2
	}
	{
		mov r2, r9
		ldw r5, sp[15]
	}
	#APP
	maccs r11, r2, r6, r5
	#NO_APP
	.loc	1 123 0                 # C:/Users/user/workspace/lib_dsp/src/fft/dsp_fft.xc:123:0
	#APP
	maccs r11, r2, r0, r7
	#NO_APP
.Ltmp161:
	#DEBUG_VALUE: tRe <- R1
	{
		mov r2, r1
		ldw r1, sp[18]
	}
.Ltmp162:
	.loc	1 125 0                 # C:/Users/user/workspace/lib_dsp/src/fft/dsp_fft.xc:125:0
	lda16 r0, r1[r4]
	{
		nop
		stw r0, r8[0]
	}
	{
		nop
		ldw r6, sp[19]
	}
.Ltmp163:
	#DEBUG_VALUE: tIm <- R6
	.loc	1 126 0                 # C:/Users/user/workspace/lib_dsp/src/fft/dsp_fft.xc:126:0
	lda16 r0, r6[r11]
	{
		nop
		stw r0, r8[1]
	}
	.loc	1 127 0                 # C:/Users/user/workspace/lib_dsp/src/fft/dsp_fft.xc:127:0
	lda16 r0, r1[-r4]
	{
		nop
		ldw r5, sp[16]
	}
	{
		nop
		ldw r4, sp[12]
	}
	{
		nop
		ldw r1, sp[13]
	}
	{
		nop
		stw r0, r3[0]
	}
	.loc	1 128 0                 # C:/Users/user/workspace/lib_dsp/src/fft/dsp_fft.xc:128:0
	lda16 r0, r6[-r11]
	{
		nop
		stw r0, r3[1]
	}
	{
		nop
		ldw r3, sp[17]
	}
.Ltmp164:
	#DEBUG_VALUE: block <- R10
	.loc	1 111 0                 # C:/Users/user/workspace/lib_dsp/src/fft/dsp_fft.xc:111:0
	{
		add r10, r10, r3
		add r8, r8, r1
	}
.Ltmp165:
	.loc	1 111 0                 # C:/Users/user/workspace/lib_dsp/src/fft/dsp_fft.xc:111:0
	{
		lsu r0, r10, r5
		nop
	}
.Lxta.loop_labels5:
	# LOOPMARKER 0
	bt r0, .LBB7_6
.Ltmp166:
.LBB7_7:                                # %LoopIncrement17
                                        #   in Loop: Header=BB7_4 Depth=2
.Lxtalabel21:
	#DEBUG_VALUE: dsp_fft_inverse_xs1:pts <- [SP+4]
	#DEBUG_VALUE: dsp_fft_inverse_xs1:N <- [SP+32]
	#DEBUG_VALUE: dsp_fft_inverse_xs1:sine <- [SP+16]
	#DEBUG_VALUE: step <- 2
	#DEBUG_VALUE: step2 <- [SP+8]
	#DEBUG_VALUE: step4 <- [SP+20]
	#DEBUG_VALUE: k <- [SP+36]
	{
		nop
		ldw r1, sp[10]
	}
.Ltmp167:
	#DEBUG_VALUE: k <- R1
	.loc	1 108 0                 # C:/Users/user/workspace/lib_dsp/src/fft/dsp_fft.xc:108:0
	{
		add r1, r1, 1
		ldw r0, sp[11]
	}
.Ltmp168:
	.loc	1 108 0                 # C:/Users/user/workspace/lib_dsp/src/fft/dsp_fft.xc:108:0
	{
		add r0, r0, 8
		nop
	}
	{
		nop
		stw r0, sp[11]
	}
	{
		nop
		ldw r0, sp[7]
	}
	.loc	1 108 0                 # C:/Users/user/workspace/lib_dsp/src/fft/dsp_fft.xc:108:0
	{
		lsu r0, r1, r0
		nop
	}
.Lxta.loop_labels6:
	# LOOPMARKER 1
	bt r0, .LBB7_4
.Ltmp169:
.LBB7_8:                                # %ifdone7
                                        #   in Loop: Header=BB7_2 Depth=1
.Lxtalabel22:
	#DEBUG_VALUE: dsp_fft_inverse_xs1:pts <- [SP+4]
	#DEBUG_VALUE: dsp_fft_inverse_xs1:N <- [SP+32]
	#DEBUG_VALUE: dsp_fft_inverse_xs1:sine <- [SP+16]
	#DEBUG_VALUE: step <- 2
	#DEBUG_VALUE: step2 <- [SP+8]
	#DEBUG_VALUE: step4 <- [SP+20]
	#DEBUG_VALUE: k <- [SP+36]
	{
		mov r4, r9
		ldw r0, sp[5]
	}
	{
		nop
		ldw r5, sp[2]
	}
.Ltmp170:
	#DEBUG_VALUE: step2 <- R5
	.loc	1 131 0                 # C:/Users/user/workspace/lib_dsp/src/fft/dsp_fft.xc:131:0
	{
		sub r0, r5, r0
		nop
	}
	{
		nop
		stw r0, sp[7]
	}
	{
		nop
		ldw r11, sp[9]
	}
.Ltmp171:
	#DEBUG_VALUE: k <- R11
	.loc	1 131 0                 # C:/Users/user/workspace/lib_dsp/src/fft/dsp_fft.xc:131:0
	{
		lsu r0, r11, r0
		nop
	}
	bf r0, .LBB7_14
.Ltmp172:
# BB#9:                                 # %LoopBody127.preheader
                                        #   in Loop: Header=BB7_2 Depth=1
	#DEBUG_VALUE: dsp_fft_inverse_xs1:pts <- [SP+4]
	#DEBUG_VALUE: dsp_fft_inverse_xs1:N <- [SP+32]
	#DEBUG_VALUE: dsp_fft_inverse_xs1:sine <- [SP+16]
	#DEBUG_VALUE: step <- 2
	#DEBUG_VALUE: step2 <- R5
	#DEBUG_VALUE: step4 <- [SP+20]
	#DEBUG_VALUE: k <- R11
	{
		nop
		ldw r1, sp[5]
	}
.Ltmp173:
	#DEBUG_VALUE: step4 <- R1
	.loc	1 132 0                 # C:/Users/user/workspace/lib_dsp/src/fft/dsp_fft.xc:132:0
	{
		add r0, r1, r5
		zext r5, 1
	}
.Ltmp174:
	.loc	1 132 0                 # C:/Users/user/workspace/lib_dsp/src/fft/dsp_fft.xc:132:0
	{
		add r1, r1, r5
		nop
	}
.Ltmp175:
	#DEBUG_VALUE: step4 <- [SP+20]
	.loc	1 132 0                 # C:/Users/user/workspace/lib_dsp/src/fft/dsp_fft.xc:132:0
	{
		shl r1, r1, 3
		nop
	}
	.loc	1 132 0                 # C:/Users/user/workspace/lib_dsp/src/fft/dsp_fft.xc:132:0
	{
		shl r1, r3, 3
		stw r1, sp[13]
	}
	.loc	1 132 0                 # C:/Users/user/workspace/lib_dsp/src/fft/dsp_fft.xc:132:0
	{
		add r0, r0, r5
		stw r1, sp[12]
	}
	.loc	1 132 0                 # C:/Users/user/workspace/lib_dsp/src/fft/dsp_fft.xc:132:0
	{
		shl r7, r0, 3
		nop
	}
	{
		nop
		stw r7, sp[11]
	}
	{
		nop
		ldw r0, sp[1]
	}
	{
		nop
		stw r0, sp[10]
	}
.Ltmp176:
.LBB7_10:                               # %LoopBody127
                                        #   Parent Loop BB7_2 Depth=1
                                        # =>  This Loop Header: Depth=2
                                        #       Child Loop BB7_12 Depth 3
.Lxtalabel23:
	#DEBUG_VALUE: dsp_fft_inverse_xs1:pts <- [SP+4]
	#DEBUG_VALUE: dsp_fft_inverse_xs1:N <- [SP+32]
	#DEBUG_VALUE: dsp_fft_inverse_xs1:sine <- [SP+16]
	#DEBUG_VALUE: step <- 2
	#DEBUG_VALUE: step4 <- [SP+20]
	{
		nop
		stw r11, sp[9]
	}
	{
		nop
		ldw r0, sp[5]
	}
.Ltmp177:
	#DEBUG_VALUE: block <- R11
	.loc	1 134 0                 # C:/Users/user/workspace/lib_dsp/src/fft/dsp_fft.xc:134:0
	{
		add r11, r11, r0
		ldw r0, sp[8]
	}
.Ltmp178:
	.loc	1 134 0                 # C:/Users/user/workspace/lib_dsp/src/fft/dsp_fft.xc:134:0
	{
		add r0, r11, r0
		nop
	}
	.loc	1 134 0                 # C:/Users/user/workspace/lib_dsp/src/fft/dsp_fft.xc:134:0
	{
		lsu r0, r11, r0
		stw r0, sp[16]
	}
	{
		mov r1, r4
		nop
	}
	bf r0, .LBB7_13
.Ltmp179:
# BB#11:                                # %LoopBody161.preheader
                                        #   in Loop: Header=BB7_10 Depth=2
	#DEBUG_VALUE: dsp_fft_inverse_xs1:pts <- [SP+4]
	#DEBUG_VALUE: dsp_fft_inverse_xs1:N <- [SP+32]
	#DEBUG_VALUE: dsp_fft_inverse_xs1:sine <- [SP+16]
	#DEBUG_VALUE: step <- 2
	#DEBUG_VALUE: step4 <- [SP+20]
	#DEBUG_VALUE: block <- R11
	.loc	1 132 0                 # C:/Users/user/workspace/lib_dsp/src/fft/dsp_fft.xc:132:0
	{
		mov r4, r1
		ldw r0, sp[6]
	}
	{
		nop
		ldw r1, sp[9]
	}
	{
		shl r0, r1, r0
		mov r3, r2
	}
	{
		nop
		ldw r2, sp[4]
	}
.Ltmp180:
	#DEBUG_VALUE: dsp_fft_inverse_xs1:sine <- R2
	{
		nop
		ldw r1, r2[r0]
	}
.Ltmp181:
	#DEBUG_VALUE: rRe <- R9
	.loc	1 132 0                 # C:/Users/user/workspace/lib_dsp/src/fft/dsp_fft.xc:132:0
	{
		neg r9, r1
		ldw r1, sp[3]
	}
.Ltmp182:
	.loc	1 133 0                 # C:/Users/user/workspace/lib_dsp/src/fft/dsp_fft.xc:133:0
	{
		sub r0, r1, r0
		mov r1, r4
	}
	{
		nop
		ldw r0, r2[r0]
	}
.Ltmp183:
	#DEBUG_VALUE: rIm <- R0
	#DEBUG_VALUE: dsp_fft_inverse_xs1:sine <- [SP+16]
	{
		mov r2, r3
		stw r0, sp[15]
	}
	.loc	1 143 0                 # C:/Users/user/workspace/lib_dsp/src/fft/dsp_fft.xc:143:0
.Ltmp184:
	{
		neg r0, r0
		nop
	}
.Ltmp185:
	{
		nop
		stw r0, sp[14]
	}
.Ltmp186:
	#DEBUG_VALUE: rIm <- [SP+60]
	{
		nop
		ldw r8, sp[10]
	}
.Ltmp187:
.LBB7_12:                               # %LoopBody161
                                        #   Parent Loop BB7_2 Depth=1
                                        #     Parent Loop BB7_10 Depth=2
                                        # =>    This Inner Loop Header: Depth=3
.Lxtalabel24:
	#DEBUG_VALUE: dsp_fft_inverse_xs1:pts <- [SP+4]
	#DEBUG_VALUE: dsp_fft_inverse_xs1:N <- [SP+32]
	#DEBUG_VALUE: dsp_fft_inverse_xs1:sine <- [SP+16]
	#DEBUG_VALUE: step <- 2
	#DEBUG_VALUE: step4 <- [SP+20]
	#DEBUG_VALUE: rRe <- R9
	#DEBUG_VALUE: rIm <- [SP+60]
	{
		nop
		ldw r0, sp[13]
	}
	{
		add r5, r8, r0
		nop
	}
	{
		nop
		ldw r0, r5[0]
	}
.Ltmp188:
	#DEBUG_VALUE: tRe <- [SP+72]
	{
		nop
		stw r0, sp[18]
	}
	{
		nop
		ldw r0, r5[1]
	}
.Ltmp189:
	#DEBUG_VALUE: tIm <- [SP+76]
	{
		add r10, r8, r7
		stw r0, sp[19]
	}
	{
		nop
		ldw r6, r10[0]
	}
.Ltmp190:
	#DEBUG_VALUE: tRe2 <- R6
	#DEBUG_VALUE: tIm2 <- R4
	.loc	1 138 0                 # C:/Users/user/workspace/lib_dsp/src/fft/dsp_fft.xc:138:0
	{
		mov r7, r2
		ldw r4, r10[1]
	}
.Ltmp191:
	{
		mov r3, r1
		nop
	}
	.loc	1 142 0                 # C:/Users/user/workspace/lib_dsp/src/fft/dsp_fft.xc:142:0
.Ltmp192:
	#APP
	maccs r7, r1, r6, r9
	#NO_APP
	{
		nop
		ldw r0, sp[14]
	}
	.loc	1 143 0                 # C:/Users/user/workspace/lib_dsp/src/fft/dsp_fft.xc:143:0
	#APP
	maccs r7, r1, r4, r0
	#NO_APP
	.loc	1 145 0                 # C:/Users/user/workspace/lib_dsp/src/fft/dsp_fft.xc:145:0
	{
		mov r1, r2
		mov r2, r3
	}
	{
		nop
		ldw r0, sp[15]
	}
	#APP
	maccs r1, r2, r6, r0
	#NO_APP
	.loc	1 146 0                 # C:/Users/user/workspace/lib_dsp/src/fft/dsp_fft.xc:146:0
	#APP
	maccs r1, r2, r4, r9
	#NO_APP
	{
		nop
		ldw r0, sp[18]
	}
.Ltmp193:
	#DEBUG_VALUE: tRe <- R0
	.loc	1 148 0                 # C:/Users/user/workspace/lib_dsp/src/fft/dsp_fft.xc:148:0
	lda16 r2, r0[r7]
	{
		nop
		stw r2, r5[0]
	}
	{
		nop
		ldw r6, sp[19]
	}
.Ltmp194:
	#DEBUG_VALUE: tIm <- R6
	.loc	1 149 0                 # C:/Users/user/workspace/lib_dsp/src/fft/dsp_fft.xc:149:0
	lda16 r2, r6[r1]
	{
		nop
		stw r2, r5[1]
	}
	{
		ldc r2, 0
		ldw r5, sp[16]
	}
	.loc	1 150 0                 # C:/Users/user/workspace/lib_dsp/src/fft/dsp_fft.xc:150:0
	lda16 r0, r0[-r7]
.Ltmp195:
	{
		nop
		ldw r7, sp[11]
	}
	{
		nop
		ldw r4, sp[12]
	}
	{
		nop
		stw r0, r10[0]
	}
	.loc	1 151 0                 # C:/Users/user/workspace/lib_dsp/src/fft/dsp_fft.xc:151:0
	lda16 r0, r6[-r1]
	{
		mov r1, r3
		ldw r3, sp[17]
	}
.Ltmp196:
	#DEBUG_VALUE: block <- R11
	.loc	1 151 0                 # C:/Users/user/workspace/lib_dsp/src/fft/dsp_fft.xc:151:0
	{
		add r11, r11, r3
		stw r0, r10[1]
	}
.Ltmp197:
	.loc	1 134 0                 # C:/Users/user/workspace/lib_dsp/src/fft/dsp_fft.xc:134:0
	{
		add r8, r8, r4
		lsu r0, r11, r5
	}
.Lxta.loop_labels7:
	# LOOPMARKER 2
	bt r0, .LBB7_12
.Ltmp198:
.LBB7_13:                               # %LoopIncrement129
                                        #   in Loop: Header=BB7_10 Depth=2
.Lxtalabel25:
	#DEBUG_VALUE: dsp_fft_inverse_xs1:pts <- [SP+4]
	#DEBUG_VALUE: dsp_fft_inverse_xs1:N <- [SP+32]
	#DEBUG_VALUE: dsp_fft_inverse_xs1:sine <- [SP+16]
	#DEBUG_VALUE: step <- 2
	#DEBUG_VALUE: step4 <- [SP+20]
	{
		mov r4, r1
		ldw r11, sp[9]
	}
.Ltmp199:
	#DEBUG_VALUE: k <- R11
	.loc	1 131 0                 # C:/Users/user/workspace/lib_dsp/src/fft/dsp_fft.xc:131:0
	{
		add r11, r11, 1
		ldw r0, sp[10]
	}
.Ltmp200:
	.loc	1 131 0                 # C:/Users/user/workspace/lib_dsp/src/fft/dsp_fft.xc:131:0
	{
		add r0, r0, 8
		nop
	}
	{
		nop
		stw r0, sp[10]
	}
	{
		nop
		ldw r0, sp[7]
	}
	.loc	1 131 0                 # C:/Users/user/workspace/lib_dsp/src/fft/dsp_fft.xc:131:0
	{
		lsu r0, r11, r0
		nop
	}
.Lxta.loop_labels8:
	# LOOPMARKER 3
	bt r0, .LBB7_10
.Ltmp201:
.LBB7_14:                               # %LoopIncrement
                                        #   in Loop: Header=BB7_2 Depth=1
.Lxtalabel26:
	#DEBUG_VALUE: dsp_fft_inverse_xs1:pts <- [SP+4]
	#DEBUG_VALUE: dsp_fft_inverse_xs1:N <- [SP+32]
	#DEBUG_VALUE: dsp_fft_inverse_xs1:sine <- [SP+16]
	#DEBUG_VALUE: step <- 2
	#DEBUG_VALUE: step <- R3
	.loc	1 104 0                 # C:/Users/user/workspace/lib_dsp/src/fft/dsp_fft.xc:104:0
	{
		shl r3, r3, 1
		ldw r0, sp[6]
	}
.Ltmp202:
	.loc	1 104 0                 # C:/Users/user/workspace/lib_dsp/src/fft/dsp_fft.xc:104:0
	{
		sub r0, r0, 1
		nop
	}
.Ltmp203:
	#DEBUG_VALUE: shift <- [SP+24]
	{
		nop
		stw r0, sp[6]
	}
.Lxta.loop_labels9:
	# LOOPMARKER 4
	{
		nop
		ldw r0, sp[8]
	}
	.loc	1 104 0                 # C:/Users/user/workspace/lib_dsp/src/fft/dsp_fft.xc:104:0
	{
		lsu r0, r0, r3
		mov r9, r4
	}
	bf r0, .LBB7_2
.Ltmp204:
.LBB7_15:                               # %return
.Lxtalabel27:
	{
		nop
		ldw r10, sp[26]
	}
	{
		nop
		ldw r8, sp[24]
	}
	{
		nop
		ldw r9, sp[25]
	}
	ldd r7, r6, sp[11]              # 4-byte Folded Reload
	ldd r5, r4, sp[10]              # 4-byte Folded Reload
	{
		nop
		retsp 28
	}
	# RETURN_REG_HOLDER
	.cc_bottom dsp_fft_inverse_xs1.function
	.set	dsp_fft_inverse_xs1.nstackwords,28
	.globl	dsp_fft_inverse_xs1.nstackwords
	.set	dsp_fft_inverse_xs1.maxcores,1
	.globl	dsp_fft_inverse_xs1.maxcores
	.set	dsp_fft_inverse_xs1.maxtimers,0
	.globl	dsp_fft_inverse_xs1.maxtimers
	.set	dsp_fft_inverse_xs1.maxchanends,0
	.globl	dsp_fft_inverse_xs1.maxchanends
.Ltmp205:
	.size	dsp_fft_inverse_xs1, .Ltmp205-dsp_fft_inverse_xs1
.Lfunc_end7:
	.cfi_endproc

.Ldebug_end0:
	.file	2 "C:\\Program Files (x86)\\XMOS\\xTIMEcomposer\\Community_14.3.3\\target/include\\timer.h"
	.section	.xtacalltable,"",@progbits
.Lentries_start0:
	.long	.Lentries_end1-.Lentries_start0
	.long	0
	.ascii	"C:\\Users\\user\\workspace\\app_vf_spk_base\\.build_1i1o2_lin33_48k_xscopectl_farenddsp"
	.byte	0
.cc_top cc_0,.Lxta.call_labels4
	.ascii	"C:/Users/user/workspace/lib_dsp/src/fft/dsp_fft.xc"
	.byte	0
	.long	184
	.long	.Lxta.call_labels4
.cc_bottom cc_0
.cc_top cc_1,.Lxta.call_labels5
	.ascii	"C:/Users/user/workspace/lib_dsp/src/fft/dsp_fft.xc"
	.byte	0
	.long	195
	.long	.Lxta.call_labels5
.cc_bottom cc_1
.cc_top cc_2,.Lxta.call_labels0
	.ascii	"C:/Users/user/workspace/lib_dsp/src/fft/dsp_fft.xc"
	.byte	0
	.long	204
	.long	.Lxta.call_labels0
.cc_bottom cc_2
.cc_top cc_3,.Lxta.call_labels1
	.ascii	"C:/Users/user/workspace/lib_dsp/src/fft/dsp_fft.xc"
	.byte	0
	.long	237
	.long	.Lxta.call_labels1
.cc_bottom cc_3
.cc_top cc_4,.Lxta.call_labels2
	.ascii	"C:/Users/user/workspace/lib_dsp/src/fft/dsp_fft.xc"
	.byte	0
	.long	267
	.long	.Lxta.call_labels2
.cc_bottom cc_4
.cc_top cc_5,.Lxta.call_labels3
	.ascii	"C:/Users/user/workspace/lib_dsp/src/fft/dsp_fft.xc"
	.byte	0
	.long	278
	.long	.Lxta.call_labels3
.cc_bottom cc_5
.Lentries_end1:
	.section	.xtalabeltable,"",@progbits
.Lentries_start2:
	.long	.Lentries_end3-.Lentries_start2
	.long	0
	.ascii	"C:\\Users\\user\\workspace\\app_vf_spk_base\\.build_1i1o2_lin33_48k_xscopectl_farenddsp"
	.byte	0
.cc_top cc_6,.Lxtalabel6
	.ascii	"C:/Users/user/workspace/lib_dsp/src/fft/dsp_fft.xc"
	.byte	0
	.long	34
	.long	36
	.long	.Lxtalabel6
.cc_bottom cc_6
.cc_top cc_7,.Lxtalabel7
	.ascii	"C:/Users/user/workspace/lib_dsp/src/fft/dsp_fft.xc"
	.byte	0
	.long	37
	.long	40
	.long	.Lxtalabel7
.cc_bottom cc_7
.cc_top cc_8,.Lxtalabel8
	.ascii	"C:/Users/user/workspace/lib_dsp/src/fft/dsp_fft.xc"
	.byte	0
	.long	41
	.long	43
	.long	.Lxtalabel8
.cc_bottom cc_8
.cc_top cc_9,.Lxtalabel9
	.ascii	"C:/Users/user/workspace/lib_dsp/src/fft/dsp_fft.xc"
	.byte	0
	.long	44
	.long	47
	.long	.Lxtalabel9
.cc_bottom cc_9
.cc_top cc_10,.Lxtalabel9
	.ascii	"C:/Users/user/workspace/lib_dsp/src/fft/dsp_fft.xc"
	.byte	0
	.long	49
	.long	63
	.long	.Lxtalabel9
.cc_bottom cc_10
.cc_top cc_11,.Lxtalabel9
	.ascii	"C:/Users/user/workspace/lib_dsp/src/fft/dsp_fft.xc"
	.byte	0
	.long	65
	.long	65
	.long	.Lxtalabel9
.cc_bottom cc_11
.cc_top cc_12,.Lxtalabel10
	.ascii	"C:/Users/user/workspace/lib_dsp/src/fft/dsp_fft.xc"
	.byte	0
	.long	66
	.long	66
	.long	.Lxtalabel10
.cc_bottom cc_12
.cc_top cc_13,.Lxtalabel11
	.ascii	"C:/Users/user/workspace/lib_dsp/src/fft/dsp_fft.xc"
	.byte	0
	.long	67
	.long	67
	.long	.Lxtalabel11
.cc_bottom cc_13
.cc_top cc_14,.Lxtalabel12
	.ascii	"C:/Users/user/workspace/lib_dsp/src/fft/dsp_fft.xc"
	.byte	0
	.long	68
	.long	70
	.long	.Lxtalabel12
.cc_bottom cc_14
.cc_top cc_15,.Lxtalabel13
	.ascii	"C:/Users/user/workspace/lib_dsp/src/fft/dsp_fft.xc"
	.byte	0
	.long	71
	.long	74
	.long	.Lxtalabel13
.cc_bottom cc_15
.cc_top cc_16,.Lxtalabel13
	.ascii	"C:/Users/user/workspace/lib_dsp/src/fft/dsp_fft.xc"
	.byte	0
	.long	76
	.long	90
	.long	.Lxtalabel13
.cc_bottom cc_16
.cc_top cc_17,.Lxtalabel13
	.ascii	"C:/Users/user/workspace/lib_dsp/src/fft/dsp_fft.xc"
	.byte	0
	.long	92
	.long	92
	.long	.Lxtalabel13
.cc_bottom cc_17
.cc_top cc_18,.Lxtalabel14
	.ascii	"C:/Users/user/workspace/lib_dsp/src/fft/dsp_fft.xc"
	.byte	0
	.long	93
	.long	93
	.long	.Lxtalabel14
.cc_bottom cc_18
.cc_top cc_19,.Lxtalabel15
	.ascii	"C:/Users/user/workspace/lib_dsp/src/fft/dsp_fft.xc"
	.byte	0
	.long	94
	.long	94
	.long	.Lxtalabel15
.cc_bottom cc_19
.cc_top cc_20,.Lxtalabel16
	.ascii	"C:/Users/user/workspace/lib_dsp/src/fft/dsp_fft.xc"
	.byte	0
	.long	95
	.long	95
	.long	.Lxtalabel16
.cc_bottom cc_20
.cc_top cc_21,.Lxtalabel17
	.ascii	"C:/Users/user/workspace/lib_dsp/src/fft/dsp_fft.xc"
	.byte	0
	.long	102
	.long	104
	.long	.Lxtalabel17
.cc_bottom cc_21
.cc_top cc_22,.Lxtalabel18
	.ascii	"C:/Users/user/workspace/lib_dsp/src/fft/dsp_fft.xc"
	.byte	0
	.long	105
	.long	108
	.long	.Lxtalabel18
.cc_bottom cc_22
.cc_top cc_23,.Lxtalabel19
	.ascii	"C:/Users/user/workspace/lib_dsp/src/fft/dsp_fft.xc"
	.byte	0
	.long	109
	.long	111
	.long	.Lxtalabel19
.cc_bottom cc_23
.cc_top cc_24,.Lxtalabel20
	.ascii	"C:/Users/user/workspace/lib_dsp/src/fft/dsp_fft.xc"
	.byte	0
	.long	112
	.long	129
	.long	.Lxtalabel20
.cc_bottom cc_24
.cc_top cc_25,.Lxtalabel21
	.ascii	"C:/Users/user/workspace/lib_dsp/src/fft/dsp_fft.xc"
	.byte	0
	.long	130
	.long	130
	.long	.Lxtalabel21
.cc_bottom cc_25
.cc_top cc_26,.Lxtalabel22
	.ascii	"C:/Users/user/workspace/lib_dsp/src/fft/dsp_fft.xc"
	.byte	0
	.long	131
	.long	131
	.long	.Lxtalabel22
.cc_bottom cc_26
.cc_top cc_27,.Lxtalabel23
	.ascii	"C:/Users/user/workspace/lib_dsp/src/fft/dsp_fft.xc"
	.byte	0
	.long	132
	.long	134
	.long	.Lxtalabel23
.cc_bottom cc_27
.cc_top cc_28,.Lxtalabel24
	.ascii	"C:/Users/user/workspace/lib_dsp/src/fft/dsp_fft.xc"
	.byte	0
	.long	135
	.long	152
	.long	.Lxtalabel24
.cc_bottom cc_28
.cc_top cc_29,.Lxtalabel25
	.ascii	"C:/Users/user/workspace/lib_dsp/src/fft/dsp_fft.xc"
	.byte	0
	.long	153
	.long	153
	.long	.Lxtalabel25
.cc_bottom cc_29
.cc_top cc_30,.Lxtalabel26
	.ascii	"C:/Users/user/workspace/lib_dsp/src/fft/dsp_fft.xc"
	.byte	0
	.long	154
	.long	154
	.long	.Lxtalabel26
.cc_bottom cc_30
.cc_top cc_31,.Lxtalabel27
	.ascii	"C:/Users/user/workspace/lib_dsp/src/fft/dsp_fft.xc"
	.byte	0
	.long	155
	.long	155
	.long	.Lxtalabel27
.cc_bottom cc_31
.cc_top cc_32,.Lxtalabel4
	.ascii	"C:/Users/user/workspace/lib_dsp/src/fft/dsp_fft.xc"
	.byte	0
	.long	184
	.long	184
	.long	.Lxtalabel4
.cc_bottom cc_32
.cc_top cc_33,.Lxtalabel4
	.ascii	"C:/Users/user/workspace/lib_dsp/src/fft/dsp_fft.xc"
	.byte	0
	.long	188
	.long	188
	.long	.Lxtalabel4
.cc_bottom cc_33
.cc_top cc_34,.Lxtalabel5
	.ascii	"C:/Users/user/workspace/lib_dsp/src/fft/dsp_fft.xc"
	.byte	0
	.long	195
	.long	195
	.long	.Lxtalabel5
.cc_bottom cc_34
.cc_top cc_35,.Lxtalabel5
	.ascii	"C:/Users/user/workspace/lib_dsp/src/fft/dsp_fft.xc"
	.byte	0
	.long	199
	.long	199
	.long	.Lxtalabel5
.cc_bottom cc_35
.cc_top cc_36,.Lxtalabel0
	.ascii	"C:/Users/user/workspace/lib_dsp/src/fft/dsp_fft.xc"
	.byte	0
	.long	204
	.long	204
	.long	.Lxtalabel0
.cc_bottom cc_36
.cc_top cc_37,.Lxtalabel0
	.ascii	"C:/Users/user/workspace/lib_dsp/src/fft/dsp_fft.xc"
	.byte	0
	.long	233
	.long	233
	.long	.Lxtalabel0
.cc_bottom cc_37
.cc_top cc_38,.Lxtalabel1
	.ascii	"C:/Users/user/workspace/lib_dsp/src/fft/dsp_fft.xc"
	.byte	0
	.long	237
	.long	237
	.long	.Lxtalabel1
.cc_bottom cc_38
.cc_top cc_39,.Lxtalabel1
	.ascii	"C:/Users/user/workspace/lib_dsp/src/fft/dsp_fft.xc"
	.byte	0
	.long	263
	.long	263
	.long	.Lxtalabel1
.cc_bottom cc_39
.cc_top cc_40,.Lxtalabel2
	.ascii	"C:/Users/user/workspace/lib_dsp/src/fft/dsp_fft.xc"
	.byte	0
	.long	267
	.long	267
	.long	.Lxtalabel2
.cc_bottom cc_40
.cc_top cc_41,.Lxtalabel2
	.ascii	"C:/Users/user/workspace/lib_dsp/src/fft/dsp_fft.xc"
	.byte	0
	.long	274
	.long	274
	.long	.Lxtalabel2
.cc_bottom cc_41
.cc_top cc_42,.Lxtalabel3
	.ascii	"C:/Users/user/workspace/lib_dsp/src/fft/dsp_fft.xc"
	.byte	0
	.long	278
	.long	278
	.long	.Lxtalabel3
.cc_bottom cc_42
.cc_top cc_43,.Lxtalabel3
	.ascii	"C:/Users/user/workspace/lib_dsp/src/fft/dsp_fft.xc"
	.byte	0
	.long	285
	.long	285
	.long	.Lxtalabel3
.cc_bottom cc_43
.Lentries_end3:
	.section	.xtalooplabeltable,"",@progbits
.Lentries_start4:
	.long	.Lentries_end5-.Lentries_start4
	.long	0
	.ascii	"C:\\Users\\user\\workspace\\app_vf_spk_base\\.build_1i1o2_lin33_48k_xscopectl_farenddsp"
	.byte	0
.cc_top cc_44,.Lxta.loop_labels4
	.ascii	"C:/Users/user/workspace/lib_dsp/src/fft/dsp_fft.xc"
	.byte	0
	.long	37
	.long	40
	.long	.Lxta.loop_labels4
.cc_bottom cc_44
.cc_top cc_45,.Lxta.loop_labels1
	.ascii	"C:/Users/user/workspace/lib_dsp/src/fft/dsp_fft.xc"
	.byte	0
	.long	41
	.long	43
	.long	.Lxta.loop_labels1
.cc_bottom cc_45
.cc_top cc_46,.Lxta.loop_labels0
	.ascii	"C:/Users/user/workspace/lib_dsp/src/fft/dsp_fft.xc"
	.byte	0
	.long	44
	.long	47
	.long	.Lxta.loop_labels0
.cc_bottom cc_46
.cc_top cc_47,.Lxta.loop_labels0
	.ascii	"C:/Users/user/workspace/lib_dsp/src/fft/dsp_fft.xc"
	.byte	0
	.long	49
	.long	63
	.long	.Lxta.loop_labels0
.cc_bottom cc_47
.cc_top cc_48,.Lxta.loop_labels0
	.ascii	"C:/Users/user/workspace/lib_dsp/src/fft/dsp_fft.xc"
	.byte	0
	.long	65
	.long	65
	.long	.Lxta.loop_labels0
.cc_bottom cc_48
.cc_top cc_49,.Lxta.loop_labels1
	.ascii	"C:/Users/user/workspace/lib_dsp/src/fft/dsp_fft.xc"
	.byte	0
	.long	66
	.long	66
	.long	.Lxta.loop_labels1
.cc_bottom cc_49
.cc_top cc_50,.Lxta.loop_labels4
	.ascii	"C:/Users/user/workspace/lib_dsp/src/fft/dsp_fft.xc"
	.byte	0
	.long	67
	.long	67
	.long	.Lxta.loop_labels4
.cc_bottom cc_50
.cc_top cc_51,.Lxta.loop_labels3
	.ascii	"C:/Users/user/workspace/lib_dsp/src/fft/dsp_fft.xc"
	.byte	0
	.long	68
	.long	70
	.long	.Lxta.loop_labels3
.cc_bottom cc_51
.cc_top cc_52,.Lxta.loop_labels2
	.ascii	"C:/Users/user/workspace/lib_dsp/src/fft/dsp_fft.xc"
	.byte	0
	.long	71
	.long	74
	.long	.Lxta.loop_labels2
.cc_bottom cc_52
.cc_top cc_53,.Lxta.loop_labels2
	.ascii	"C:/Users/user/workspace/lib_dsp/src/fft/dsp_fft.xc"
	.byte	0
	.long	76
	.long	90
	.long	.Lxta.loop_labels2
.cc_bottom cc_53
.cc_top cc_54,.Lxta.loop_labels2
	.ascii	"C:/Users/user/workspace/lib_dsp/src/fft/dsp_fft.xc"
	.byte	0
	.long	92
	.long	92
	.long	.Lxta.loop_labels2
.cc_bottom cc_54
.cc_top cc_55,.Lxta.loop_labels3
	.ascii	"C:/Users/user/workspace/lib_dsp/src/fft/dsp_fft.xc"
	.byte	0
	.long	93
	.long	93
	.long	.Lxta.loop_labels3
.cc_bottom cc_55
.cc_top cc_56,.Lxta.loop_labels4
	.ascii	"C:/Users/user/workspace/lib_dsp/src/fft/dsp_fft.xc"
	.byte	0
	.long	94
	.long	94
	.long	.Lxta.loop_labels4
.cc_bottom cc_56
.cc_top cc_57,.Lxta.loop_labels9
	.ascii	"C:/Users/user/workspace/lib_dsp/src/fft/dsp_fft.xc"
	.byte	0
	.long	105
	.long	108
	.long	.Lxta.loop_labels9
.cc_bottom cc_57
.cc_top cc_58,.Lxta.loop_labels6
	.ascii	"C:/Users/user/workspace/lib_dsp/src/fft/dsp_fft.xc"
	.byte	0
	.long	109
	.long	111
	.long	.Lxta.loop_labels6
.cc_bottom cc_58
.cc_top cc_59,.Lxta.loop_labels5
	.ascii	"C:/Users/user/workspace/lib_dsp/src/fft/dsp_fft.xc"
	.byte	0
	.long	112
	.long	129
	.long	.Lxta.loop_labels5
.cc_bottom cc_59
.cc_top cc_60,.Lxta.loop_labels6
	.ascii	"C:/Users/user/workspace/lib_dsp/src/fft/dsp_fft.xc"
	.byte	0
	.long	130
	.long	130
	.long	.Lxta.loop_labels6
.cc_bottom cc_60
.cc_top cc_61,.Lxta.loop_labels9
	.ascii	"C:/Users/user/workspace/lib_dsp/src/fft/dsp_fft.xc"
	.byte	0
	.long	131
	.long	131
	.long	.Lxta.loop_labels9
.cc_bottom cc_61
.cc_top cc_62,.Lxta.loop_labels8
	.ascii	"C:/Users/user/workspace/lib_dsp/src/fft/dsp_fft.xc"
	.byte	0
	.long	132
	.long	134
	.long	.Lxta.loop_labels8
.cc_bottom cc_62
.cc_top cc_63,.Lxta.loop_labels7
	.ascii	"C:/Users/user/workspace/lib_dsp/src/fft/dsp_fft.xc"
	.byte	0
	.long	135
	.long	152
	.long	.Lxta.loop_labels7
.cc_bottom cc_63
.cc_top cc_64,.Lxta.loop_labels8
	.ascii	"C:/Users/user/workspace/lib_dsp/src/fft/dsp_fft.xc"
	.byte	0
	.long	153
	.long	153
	.long	.Lxta.loop_labels8
.cc_bottom cc_64
.cc_top cc_65,.Lxta.loop_labels9
	.ascii	"C:/Users/user/workspace/lib_dsp/src/fft/dsp_fft.xc"
	.byte	0
	.long	154
	.long	154
	.long	.Lxta.loop_labels9
.cc_bottom cc_65
.Lentries_end5:
	.section	.trap_info,"",@progbits
.Ltrap_info_entries_start0:
	.long	.Ltrap_info_entries_end0-.Ltrap_info_entries_start0
	.long	1
.Ltrap_info_entries_end0: