	.text
	.file	"dsp_matrix.c"
	.text
	.globl	dsp_matrix_negate
	.align	4
	.type	dsp_matrix_negate,@function
	.cc_top dsp_matrix_negate.function,dsp_matrix_negate
dsp_matrix_negate:
.Lfunc_begin0:
	.file	1 "C:/Users/user/workspace/lib_dsp/src\\dsp_matrix.c"
	.loc	1 17 0
	.cfi_startproc
	.issue_mode dual
	{
		nop
		dualentsp 2
	}
.Ltmp0:
	.cfi_def_cfa_offset 8
.Ltmp1:
	.cfi_offset 15, 0
	.loc	1 18 5 prologue_end
.Ltmp2:
	mul r2, r3, r2
.Ltmp3:
	.loc	1 18 5
	bl dsp_vector_negate
.Ltmp4:
	{
		nop
		retsp 2
	}
	.loc	1 19 1
	# RETURN_REG_HOLDER
.Ltmp5:
	.cc_bottom dsp_matrix_negate.function
	.set	dsp_matrix_negate.nstackwords,(dsp_vector_negate.nstackwords + 2)
	.globl	dsp_matrix_negate.nstackwords
	.set	dsp_matrix_negate.maxcores,dsp_vector_negate.maxcores $M 1
	.globl	dsp_matrix_negate.maxcores
	.set	dsp_matrix_negate.maxtimers,dsp_vector_negate.maxtimers $M 0
	.globl	dsp_matrix_negate.maxtimers
	.set	dsp_matrix_negate.maxchanends,dsp_vector_negate.maxchanends $M 0
	.globl	dsp_matrix_negate.maxchanends
.Ltmp6:
	.size	dsp_matrix_negate, .Ltmp6-dsp_matrix_negate
.Lfunc_end0:
	.cfi_endproc

	.globl	dsp_matrix_adds
	.align	4
	.type	dsp_matrix_adds,@function
	.cc_top dsp_matrix_adds.function,dsp_matrix_adds
dsp_matrix_adds:
.Lfunc_begin1:
	.loc	1 30 0
	.cfi_startproc
	.issue_mode dual
	{
		nop
		dualentsp 2
	}
.Ltmp7:
	.cfi_def_cfa_offset 8
.Ltmp8:
	.cfi_offset 15, 0
	{
		nop
		ldw r11, sp[3]
	}
	.loc	1 31 5 prologue_end
.Ltmp9:
	mul r3, r11, r3
.Ltmp10:
	.loc	1 31 5
	bl dsp_vector_adds
.Ltmp11:
	{
		nop
		retsp 2
	}
.Ltmp12:
	.loc	1 38 1
	# RETURN_REG_HOLDER
.Ltmp13:
	.cc_bottom dsp_matrix_adds.function
	.set	dsp_matrix_adds.nstackwords,(dsp_vector_adds.nstackwords + 2)
	.globl	dsp_matrix_adds.nstackwords
	.set	dsp_matrix_adds.maxcores,dsp_vector_adds.maxcores $M 1
	.globl	dsp_matrix_adds.maxcores
	.set	dsp_matrix_adds.maxtimers,dsp_vector_adds.maxtimers $M 0
	.globl	dsp_matrix_adds.maxtimers
	.set	dsp_matrix_adds.maxchanends,dsp_vector_adds.maxchanends $M 0
	.globl	dsp_matrix_adds.maxchanends
.Ltmp14:
	.size	dsp_matrix_adds, .Ltmp14-dsp_matrix_adds
.Lfunc_end1:
	.cfi_endproc

	.globl	dsp_matrix_muls
	.align	4
	.type	dsp_matrix_muls,@function
	.cc_top dsp_matrix_muls.function,dsp_matrix_muls
dsp_matrix_muls:
.Lfunc_begin2:
	.loc	1 50 0
	.cfi_startproc
	.issue_mode dual
	{
		nop
		dualentsp 4
	}
.Ltmp15:
	.cfi_def_cfa_offset 16
.Ltmp16:
	.cfi_offset 15, 0
	{
		nop
		stw r4, sp[2]
	}
.Ltmp17:
	.cfi_offset 4, -8
	{
		nop
		ldw r11, sp[6]
	}
	{
		nop
		ldw r4, sp[5]
	}
	.loc	1 51 5 prologue_end
.Ltmp18:
	mul r3, r4, r3
.Ltmp19:
	{
		nop
		stw r11, sp[1]
	}
	.loc	1 51 5
	bl dsp_vector_muls
.Ltmp20:
	{
		nop
		ldw r4, sp[2]
	}
	{
		nop
		retsp 4
	}
.Ltmp21:
	.loc	1 59 1
	# RETURN_REG_HOLDER
.Ltmp22:
	.cc_bottom dsp_matrix_muls.function
	.set	dsp_matrix_muls.nstackwords,(dsp_vector_muls.nstackwords + 4)
	.globl	dsp_matrix_muls.nstackwords
	.set	dsp_matrix_muls.maxcores,dsp_vector_muls.maxcores $M 1
	.globl	dsp_matrix_muls.maxcores
	.set	dsp_matrix_muls.maxtimers,dsp_vector_muls.maxtimers $M 0
	.globl	dsp_matrix_muls.maxtimers
	.set	dsp_matrix_muls.maxchanends,dsp_vector_muls.maxchanends $M 0
	.globl	dsp_matrix_muls.maxchanends
.Ltmp23:
	.size	dsp_matrix_muls, .Ltmp23-dsp_matrix_muls
.Lfunc_end2:
	.cfi_endproc

	.globl	dsp_matrix_addm
	.align	4
	.type	dsp_matrix_addm,@function
	.cc_top dsp_matrix_addm.function,dsp_matrix_addm
dsp_matrix_addm:
.Lfunc_begin3:
	.loc	1 70 0
	.cfi_startproc
	.issue_mode dual
	{
		nop
		dualentsp 2
	}
.Ltmp24:
	.cfi_def_cfa_offset 8
.Ltmp25:
	.cfi_offset 15, 0
	{
		nop
		ldw r11, sp[3]
	}
	.loc	1 71 5 prologue_end
.Ltmp26:
	mul r3, r11, r3
.Ltmp27:
	.loc	1 71 5
	bl dsp_vector_addv
.Ltmp28:
	{
		nop
		retsp 2
	}
.Ltmp29:
	.loc	1 78 1
	# RETURN_REG_HOLDER
.Ltmp30:
	.cc_bottom dsp_matrix_addm.function
	.set	dsp_matrix_addm.nstackwords,(dsp_vector_addv.nstackwords + 2)
	.globl	dsp_matrix_addm.nstackwords
	.set	dsp_matrix_addm.maxcores,dsp_vector_addv.maxcores $M 1
	.globl	dsp_matrix_addm.maxcores
	.set	dsp_matrix_addm.maxtimers,dsp_vector_addv.maxtimers $M 0
	.globl	dsp_matrix_addm.maxtimers
	.set	dsp_matrix_addm.maxchanends,dsp_vector_addv.maxchanends $M 0
	.globl	dsp_matrix_addm.maxchanends
.Ltmp31:
	.size	dsp_matrix_addm, .Ltmp31-dsp_matrix_addm
.Lfunc_end3:
	.cfi_endproc

	.globl	dsp_matrix_subm
	.align	4
	.type	dsp_matrix_subm,@function
	.cc_top dsp_matrix_subm.function,dsp_matrix_subm
dsp_matrix_subm:
.Lfunc_begin4:
	.loc	1 89 0
	.cfi_startproc
	.issue_mode dual
	{
		nop
		dualentsp 2
	}
.Ltmp32:
	.cfi_def_cfa_offset 8
.Ltmp33:
	.cfi_offset 15, 0
	{
		nop
		ldw r11, sp[3]
	}
	.loc	1 90 5 prologue_end
.Ltmp34:
	mul r3, r11, r3
.Ltmp35:
	.loc	1 90 5
	bl dsp_vector_subv
.Ltmp36:
	{
		nop
		retsp 2
	}
.Ltmp37:
	.loc	1 97 1
	# RETURN_REG_HOLDER
.Ltmp38:
	.cc_bottom dsp_matrix_subm.function
	.set	dsp_matrix_subm.nstackwords,(dsp_vector_subv.nstackwords + 2)
	.globl	dsp_matrix_subm.nstackwords
	.set	dsp_matrix_subm.maxcores,dsp_vector_subv.maxcores $M 1
	.globl	dsp_matrix_subm.maxcores
	.set	dsp_matrix_subm.maxtimers,dsp_vector_subv.maxtimers $M 0
	.globl	dsp_matrix_subm.maxtimers
	.set	dsp_matrix_subm.maxchanends,dsp_vector_subv.maxchanends $M 0
	.globl	dsp_matrix_subm.maxchanends
.Ltmp39:
	.size	dsp_matrix_subm, .Ltmp39-dsp_matrix_subm
.Lfunc_end4:
	.cfi_endproc

	.globl	dsp_matrix_mulm
	.align	4
	.type	dsp_matrix_mulm,@function
	.cc_top dsp_matrix_mulm.function,dsp_matrix_mulm
dsp_matrix_mulm:
.Lfunc_begin5:
	.loc	1 111 0
	.cfi_startproc
	.issue_mode dual
	{
		nop
		dualentsp 20
	}
.Ltmp40:
	.cfi_def_cfa_offset 80
.Ltmp41:
	.cfi_offset 15, 0
	std r5, r4, sp[6]
.Ltmp42:
	.cfi_offset 4, -32
.Ltmp43:
	.cfi_offset 5, -28
	std r7, r6, sp[7]
.Ltmp44:
	.cfi_offset 6, -24
.Ltmp45:
	.cfi_offset 7, -20
	std r9, r8, sp[8]
.Ltmp46:
	.cfi_offset 8, -16
.Ltmp47:
	.cfi_offset 9, -12
	{
		nop
		stw r10, sp[18]
	}
.Ltmp48:
	.cfi_offset 10, -8
	{
		nop
		stw r2, sp[7]
	}
.Ltmp49:
	{
		nop
		stw r1, sp[6]
	}
.Ltmp50:
	{
		nop
		stw r0, sp[0]
	}
.Ltmp51:
	ldd r1, r0, sp[11]
	{
		nop
		stw r1, sp[11]
	}
	{
		mkmsk r0, 1
		stw r0, sp[9]
	}
	.loc	1 114 5 prologue_end
.Ltmp52:
	{
		lss r0, r3, r0
		nop
	}
	bt r0, .LBB5_10
.Ltmp53:
	{
		nop
		ldw r2, sp[21]
	}
	{
		nop
		ldw r0, sp[11]
	}
	.loc	1 135 21
.Ltmp54:
	{
		sub r0, r0, 1
		mkmsk r1, 1
	}
	.loc	1 135 21
	{
		shl r0, r1, r0
		nop
	}
.Ltmp55:
	{
		nop
		stw r0, sp[10]
	}
	{
		nop
		ldw r0, sp[9]
	}
	.loc	1 136 13
.Ltmp56:
	ashr r8, r0, 1
.Ltmp57:
	.loc	1 114 5
	{
		sub r0, r2, 1
		nop
	}
	.loc	1 114 5
	{
		sub r0, r3, 1
		stw r0, sp[5]
	}
	.loc	1 114 5
	{
		shl r0, r2, 2
		stw r0, sp[2]
	}
.Ltmp58:
	{
		ldc r11, 0
		stw r0, sp[1]
	}
	{
		nop
		ldw r0, sp[7]
	}
	{
		mov r0, r11
		stw r0, sp[4]
	}
.Ltmp59:
.LBB5_2:
	{
		mkmsk r0, 1
		stw r0, sp[3]
	}
	{
		nop
		ldw r1, sp[21]
	}
	.loc	1 123 9
.Ltmp60:
	{
		lss r0, r1, r0
		nop
	}
	bt r0, .LBB5_9
.Ltmp61:
	{
		lss r3, r11, r8
		ldw r0, sp[4]
	}
	{
		nop
		ldw r2, sp[21]
	}
	bf r3, .LBB5_8
.Ltmp62:
	{
		nop
		ldw r0, sp[9]
	}
	{
		nop
		ldw r2, sp[3]
	}
	.loc	1 119 9
	mul r0, r2, r0
	{
		nop
		ldw r1, sp[0]
	}
	.loc	1 119 9
	ldaw r3, r1[r0]
.Ltmp63:
	{
		nop
		ldw r0, sp[21]
	}
	.loc	1 146 13
.Ltmp64:
	mul r0, r2, r0
	{
		mov r0, r11
		stw r0, sp[8]
	}
.Ltmp65:
.LBB5_7:
	{
		mov r6, r0
		ldw r0, sp[9]
	}
	.loc	1 130 13
	mul r0, r6, r0
	{
		nop
		ldw r1, sp[6]
	}
	.loc	1 130 13
	ldaw r2, r1[r0]
.Ltmp66:
	{
		mov r0, r11
		mov r5, r11
	}
	{
		mov r10, r11
		ldw r7, sp[10]
	}
.Ltmp67:
.LBB5_5:
	.loc	1 139 17
	#APP
	ldd r9,r1,r3[r0]
	#NO_APP
	.loc	1 140 17
	#APP
	ldd r4,r11,r2[r0]
	#NO_APP
	.loc	1 142 17
	#APP
	maccs r5,r7,r1,r11
	#NO_APP
	.loc	1 143 17
	#APP
	maccs r5,r7,r9,r4
	#NO_APP
.Ltmp68:
	.loc	1 136 56
	{
		add r0, r0, 1
		nop
	}
.Ltmp69:
	.loc	1 136 13
	{
		eq r1, r8, r0
		nop
	}
	.loc	1 136 13
	bf r1, .LBB5_5
.Ltmp70:
	{
		nop
		ldw r0, sp[11]
	}
	.loc	1 145 13
	#APP
	lextract r0,r5,r7,r0,32
	#NO_APP
.Ltmp71:
	{
		nop
		ldw r1, sp[8]
	}
	.loc	1 146 13
	{
		add r2, r6, r1
		ldw r1, sp[7]
	}
	.loc	1 146 13
	stw r0, r1[r2]
.Ltmp72:
	.loc	1 123 43
	{
		add r0, r6, 1
		ldw r1, sp[5]
	}
.Ltmp73:
	.loc	1 123 9
	{
		eq r2, r6, r1
		mov r11, r10
	}
	bf r2, .LBB5_7
	bu .LBB5_9
.Ltmp74:
.LBB5_8:
	{
		nop
		ldw r1, sp[11]
	}
	{
		nop
		ldw r3, sp[10]
	}
	.loc	1 145 13
.Ltmp75:
	#APP
	lextract r1,r11,r3,r1,32
	#NO_APP
.Ltmp76:
	.loc	1 146 13
	{
		sub r2, r2, 1
		stw r1, r0[0]
	}
.Ltmp77:
	.loc	1 123 9
	{
		add r0, r0, 4
		nop
	}
	bt r2, .LBB5_8
.Ltmp78:
.LBB5_9:
	{
		nop
		ldw r3, sp[3]
	}
.Ltmp79:
	.loc	1 114 39
	{
		add r0, r3, 1
		ldw r1, sp[1]
	}
.Ltmp80:
	{
		nop
		ldw r2, sp[4]
	}
	.loc	1 114 5
	{
		add r2, r2, r1
		nop
	}
	{
		nop
		stw r2, sp[4]
	}
	{
		nop
		ldw r1, sp[2]
	}
	.loc	1 114 5
	{
		eq r1, r3, r1
		nop
	}
	bf r1, .LBB5_2
.Ltmp81:
.LBB5_10:
	{
		nop
		ldw r10, sp[18]
	}
	.loc	1 149 1
	ldd r9, r8, sp[8]
	ldd r7, r6, sp[7]
	ldd r5, r4, sp[6]
	{
		nop
		retsp 20
	}
	# RETURN_REG_HOLDER
.Ltmp82:
	.cc_bottom dsp_matrix_mulm.function
	.set	dsp_matrix_mulm.nstackwords,20
	.globl	dsp_matrix_mulm.nstackwords
	.set	dsp_matrix_mulm.maxcores,1
	.globl	dsp_matrix_mulm.maxcores
	.set	dsp_matrix_mulm.maxtimers,0
	.globl	dsp_matrix_mulm.maxtimers
	.set	dsp_matrix_mulm.maxchanends,0
	.globl	dsp_matrix_mulm.maxchanends
.Ltmp83:
	.size	dsp_matrix_mulm, .Ltmp83-dsp_matrix_mulm
.Lfunc_end5:
	.cfi_endproc

	.globl	dsp_matrix_transpose
	.align	4
	.type	dsp_matrix_transpose,@function
	.cc_top dsp_matrix_transpose.function,dsp_matrix_transpose
dsp_matrix_transpose:
.Lfunc_begin6:
	.loc	1 160 0
	.cfi_startproc
	.issue_mode dual
	{
		nop
		dualentsp 0
	}
	{
		extsp 6
		nop
	}
.Ltmp84:
	.cfi_def_cfa_offset 24
	std r5, r4, sp[0]
.Ltmp85:
	.cfi_offset 4, -24
.Ltmp86:
	.cfi_offset 5, -20
	std r7, r6, sp[1]
.Ltmp87:
	.cfi_offset 6, -16
.Ltmp88:
	.cfi_offset 7, -12
.Ltmp89:
	.cfi_offset 8, -8
.Ltmp90:
	{
		mkmsk r11, 1
		stw r8, sp[4]
	}
	.loc	1 162 5 prologue_end
.Ltmp91:
	{
		lss r4, r2, r11
		nop
	}
	bt r4, .LBB6_7
.Ltmp92:
	{
		lss r11, r3, r11
		nop
	}
	bt r11, .LBB6_6
.Ltmp93:
	.loc	1 162 5
	{
		sub r2, r2, 1
		shl r11, r3, 2
	}
.Ltmp94:
	{
		ldc r5, 0
		nop
	}
.Ltmp95:
.LBB6_5:
	{
		mov r4, r5
		mov r5, r0
	}
	{
		mov r6, r1
		mov r7, r3
	}
.Ltmp96:
.LBB6_3:
	{
		nop
		ldw r8, r5[0]
	}
	.loc	1 166 13
.Ltmp97:
	stw r8, r6[r4]
.Ltmp98:
	.loc	1 164 9
	{
		sub r7, r7, 1
		add r6, r6, r11
	}
	.loc	1 164 9
	{
		add r5, r5, 4
		nop
	}
	.loc	1 164 9
	bt r7, .LBB6_3
.Ltmp99:
	.loc	1 162 40
	{
		add r5, r4, 1
		add r0, r0, r11
	}
.Ltmp100:
	.loc	1 162 5
	{
		eq r4, r4, r2
		nop
	}
	bf r4, .LBB6_5
	bu .LBB6_7
.Ltmp101:
.LBB6_6:
	.loc	1 162 5
	{
		sub r2, r2, 1
		nop
	}
	bt r2, .LBB6_6
.Ltmp102:
.LBB6_7:
	{
		nop
		ldw r8, sp[4]
	}
	.loc	1 169 1
	ldd r7, r6, sp[1]
	ldd r5, r4, sp[0]
	{
		ldaw sp, sp[6]
		nop
	}
.Ltmp103:
	{
		nop
		retsp 0
	}
	# RETURN_REG_HOLDER
.Ltmp104:
	.cc_bottom dsp_matrix_transpose.function
	.set	dsp_matrix_transpose.nstackwords,6
	.globl	dsp_matrix_transpose.nstackwords
	.set	dsp_matrix_transpose.maxcores,1
	.globl	dsp_matrix_transpose.maxcores
	.set	dsp_matrix_transpose.maxtimers,0
	.globl	dsp_matrix_transpose.maxtimers
	.set	dsp_matrix_transpose.maxchanends,0
	.globl	dsp_matrix_transpose.maxchanends
.Ltmp105:
	.size	dsp_matrix_transpose, .Ltmp105-dsp_matrix_transpose
.Lfunc_end6:
	.cfi_endproc

.Ldebug_end0:
	.file	2 "C:\\Program Files (x86)\\XMOS\\xTIMEcomposer\\Community_14.3.3\\target/include\\stdint.h"
	.section	.trap_info,"",@progbits
.Ltrap_info_entries_start0:
	.long	.Ltrap_info_entries_end0-.Ltrap_info_entries_start0
	.long	1
.Ltrap_info_entries_end0: