	.text
	.file	"endpoint0.c"
	.section	.cp.rodata.cst4,"aMc",@progbits,4
	.cc_top .LCPI0_0.data,.LCPI0_0
	.align	4
	.type	.LCPI0_0,@object
	.size	.LCPI0_0, 4
.LCPI0_0:
	.long	305419896
	.cc_bottom .LCPI0_0.data
	.cc_top .LCPI0_1.data,.LCPI0_1
	.align	4
	.type	.LCPI0_1,@object
	.size	.LCPI0_1, 4
.LCPI0_1:
	.long	50000000
	.cc_bottom .LCPI0_1.data
	.cc_top .LCPI0_2.data,.LCPI0_2
	.align	4
	.type	.LCPI0_2,@object
	.size	.LCPI0_2, 4
.LCPI0_2:
	.long	5000000
	.cc_bottom .LCPI0_2.data
	.text
	.globl	Endpoint0
	.align	4
	.type	Endpoint0,@function
	.cc_top Endpoint0.function,Endpoint0
Endpoint0:
.Lfunc_begin0:
	.loc	4 207 0
	.cfi_startproc
	.issue_mode single
	ENTSP_lu6 28
.Ltmp0:
	.cfi_def_cfa_offset 112
.Ltmp1:
	.cfi_offset 15, 0
	std r5, r4, sp[10]
.Ltmp2:
	.cfi_offset 4, -32
.Ltmp3:
	.cfi_offset 5, -28
	std r7, r6, sp[11]
.Ltmp4:
	.cfi_offset 6, -24
.Ltmp5:
	.cfi_offset 7, -20
	stw r8, sp[24]
	stw r9, sp[25]
.Ltmp6:
	.cfi_offset 8, -16
.Ltmp7:
	.cfi_offset 9, -12
	stw r10, sp[26]
.Ltmp8:
	.cfi_offset 10, -8
	stw r3, sp[13]
.Ltmp9:
	mov r5, r2
.Ltmp10:
	mov r4, r1
.Ltmp11:
	ldw r1, sp[30]
	ldw r2, sp[31]
	.loc	4 209 22 prologue_end
.Ltmp12:
	stw r2, sp[12]
	bl XUD_InitEp
.Ltmp13:
	mov r6, r0
.Ltmp14:
	.loc	4 210 22
	mov r0, r4
.Ltmp15:
	bl XUD_InitEp
.Ltmp16:
	mov r9, r0
.Ltmp17:
	.loc	4 210 22
	stw r9, sp[16]
	.loc	4 227 5
	bl VendorRequests_Init
	ldc r7, 0
	.loc	4 289 9
.Ltmp18:
	mov r0, r7
	bl DFUReportResetState
	bf r0, .LBB0_2
.Ltmp19:
	ldc r0, 4
	.loc	4 292 9
.Ltmp20:
	#APP
	out res[r5], r0
	#NO_APP
	ldw r0, cp[.LCPI0_0]
	.loc	4 293 9
	#APP
	out res[r5], r0
	#NO_APP
	mkmsk r0, 1
	.loc	4 295 9
	stw r0, dp[DFU_mode_active]
.Ltmp21:
.LBB0_2:
	ldaw r8, sp[17]
	ldc r0, 2
	.loc	4 309 13
.Ltmp22:
	or r4, r8, r0
	stw r4, sp[14]
	ldc r10, 8160
	bu .LBB0_3
.Ltmp23:
.LBB0_57:
	.loc	4 302 31
	ldw r9, sp[16]
.Ltmp24:
.LBB0_3:
	.loc	4 302 31
	mov r0, r6
	mov r1, r9
	mov r2, r8
	bl USB_GetSetupPacket
	mov r9, r0
.Ltmp25:
	bt r9, .LBB0_47
.Ltmp26:
	.loc	4 309 13
	ld8u r0, r4[r7]
	.loc	4 309 13
	shl r0, r0, 7
	.loc	4 309 13
	ldw r2, sp[17]
	.loc	4 309 13
	mov r1, r2
	zext r1, 8
	.loc	4 309 13
	or r0, r0, r1
	.loc	4 309 13
	shr r1, r2, 3
	.loc	4 309 13
	and r1, r1, r10
	.loc	4 309 13
	or r1, r0, r1
	shr r0, r2, 24
	ldc r2, 160
	.loc	4 309 13
	lss r2, r2, r1
	bt r2, .LBB0_20
.Ltmp27:
	ldc r2, 32
	lss r2, r2, r1
	bt r2, .LBB0_14
.Ltmp28:
	bt r1, .LBB0_7
.Ltmp29:
	.loc	4 503 21
	eq r0, r0, 9
	bf r0, .LBB0_48
.Ltmp30:
	mkmsk r0, 1
	.loc	4 512 33
.Ltmp31:
	bl UserHostActive
	bu .LBB0_48
.Ltmp32:
.LBB0_20:
	ldc r2, 161
	eq r2, r1, r2
	bt r2, .LBB0_34
.Ltmp33:
	ldc r0, 162
	bu .LBB0_16
.Ltmp34:
.LBB0_14:
	ldc r2, 33
	eq r2, r1, r2
	bf r2, .LBB0_15
.Ltmp35:
.LBB0_34:
	mov r10, r5
.Ltmp36:
	.loc	4 549 25
	add r1, r8, 6
	.loc	4 549 25
	ld16s r5, r1[r7]
	.loc	4 549 25
	mov r4, r5
	zext r4, 8
.Ltmp37:
	.loc	4 557 29
	ldw r1, dp[DFU_mode_active]
	.loc	4 557 29
	mov r2, r7
	bt r1, .LBB0_36
.Ltmp38:
	mkmsk r2, 2
.Ltmp39:
.LBB0_36:
	.loc	4 549 25
	zext r5, 16
.Ltmp40:
	.loc	4 562 29
	eq r2, r4, r2
.Ltmp41:
	mkmsk r9, 1
	bf r2, .LBB0_42
.Ltmp42:
	.loc	4 564 29
	stw r7, sp[15]
	add r0, r0, 11
	bt r1, .LBB0_40
.Ltmp43:
	zext r0, 8
	ldc r1, 2
	lsu r0, r0, r1
	bt r0, .LBB0_40
.Ltmp44:
	ldc r0, 4
	.loc	4 572 33
.Ltmp45:
	#APP
	out res[r10], r0
	#NO_APP
	ldw r0, cp[.LCPI0_0]
	.loc	4 573 33
	#APP
	out res[r10], r0
	#NO_APP
	mkmsk r0, 1
	.loc	4 575 12
	#APP
	chkct res[r10], r0
	#NO_APP
.Ltmp46:
.LBB0_40:
	ldaw r0, dp[g_interfaceAlt]
	.loc	4 579 38
	ld8u r0, r0[r5]
.Ltmp47:
	.loc	4 579 38
	ldw r1, sp[12]
	ldaw r2, sp[15]
	std r2, r1, sp[1]
	stw r0, sp[1]
.Ltmp48:
	mov r0, r6
	ldaw r1, sp[16]
	mov r2, r8
	mov r3, r7
	bl DFUDeviceRequests
	mov r9, r0
.Ltmp49:
	.loc	4 581 32
	ldw r0, sp[15]
	bf r0, .LBB0_42
.Ltmp50:
	ldw r0, cp[.LCPI0_1]
	.loc	4 583 33
.Ltmp51:
	bl DFUDelay
	.loc	4 584 33
	mov r0, r10
	bl device_reboot
.Ltmp52:
.LBB0_42:
	ldc r0, 254
	.loc	4 592 28
.Ltmp53:
	and r0, r5, r0
	.loc	4 592 28
	eq r0, r0, 0
	eq r0, r0, 0
	.loc	4 592 28
	eq r1, r4, 2
	eq r1, r1, 0
	.loc	4 592 28
	and r1, r1, r0
	ldw r0, dp[DFU_mode_active]
	mov r5, r10
.Ltmp54:
	.loc	4 592 28
	bt r1, .LBB0_43
.Ltmp55:
	ldw r4, sp[14]
	ldc r10, 8160
	bt r0, .LBB0_47
.Ltmp56:
	.loc	4 610 38
	ldw r1, sp[16]
	ldw r0, sp[29]
	.loc	4 610 38
	stw r0, sp[2]
	ldw r0, sp[13]
	stw r0, sp[1]
	mov r0, r6
	mov r2, r8
	mov r3, r5
	bl AudioClassRequests_1
	bu .LBB0_46
.Ltmp57:
.LBB0_7:
	eq r1, r1, 1
	bf r1, .LBB0_48
.Ltmp58:
	.loc	4 314 24
	eq r0, r0, 11
	bf r0, .LBB0_48
.Ltmp59:
	.loc	4 413 29
	add r0, r8, 6
	.loc	4 413 29
	ld16s r0, r0[r7]
	.loc	4 413 29
	sub r0, r0, 1
	zext r0, 16
	mkmsk r1, 1
	.loc	4 413 29
	lsu r0, r1, r0
	bt r0, .LBB0_48
.Ltmp60:
	.loc	4 416 32
	ldw r0, sp[18]
	shr r1, r0, 16
	.loc	4 416 32
	zext r0, 16
	bf r0, .LBB0_22
.Ltmp61:
	mkmsk r0, 1
	ldaw r1, dp[g_interfaceAlt]
	.loc	4 416 32
	ld8u r0, r1[r0]
	bt r0, .LBB0_48
.Ltmp62:
	ldc r0, 2
	ldaw r1, dp[g_interfaceAlt]
	.loc	4 416 32
	ld8u r0, r1[r0]
	bt r0, .LBB0_48
.Ltmp63:
	.loc	4 419 33
	bl UserAudioStreamStart
	bu .LBB0_48
.Ltmp64:
.LBB0_15:
	ldc r0, 34
.Ltmp65:
.LBB0_16:
	eq r0, r1, r0
	bf r0, .LBB0_48
.Ltmp66:
	ldc r0, 6
	.loc	4 529 25
.Ltmp67:
	ld8u r0, r8[r0]
	.loc	4 531 29
.Ltmp68:
	eq r1, r0, 1
	bt r1, .LBB0_19
.Ltmp69:
	ldc r1, 130
	eq r0, r0, r1
	bf r0, .LBB0_48
.Ltmp70:
.LBB0_19:
	.loc	4 539 38
	ldw r1, sp[16]
	ldw r0, sp[29]
	.loc	4 539 38
	stw r0, sp[2]
	ldw r0, sp[13]
	stw r0, sp[1]
	mov r0, r6
	mov r2, r8
	mov r3, r5
	bl AudioEndpointRequests_1
.Ltmp71:
.LBB0_46:
	.loc	4 610 38
	mov r9, r0
.Ltmp72:
	bu .LBB0_47
.Ltmp73:
.LBB0_43:
	ldw r4, sp[14]
	ldc r10, 8160
.LBB0_47:
.Ltmp74:
	.loc	4 634 16
	eq r0, r9, 1
	bf r0, .LBB0_53
	bu .LBB0_48
.Ltmp75:
.LBB0_22:
	.loc	4 421 37
	eq r2, r1, 1
	bf r2, .LBB0_27
.Ltmp76:
	bt r0, .LBB0_27
.Ltmp77:
	mkmsk r2, 1
	ldaw r3, dp[g_interfaceAlt]
	.loc	4 421 37
	ld8u r2, r3[r2]
	bf r2, .LBB0_27
.Ltmp78:
	ldc r2, 2
	ldaw r3, dp[g_interfaceAlt]
	.loc	4 421 37
	ld8u r2, r3[r2]
	bf r2, .LBB0_26
.Ltmp79:
.LBB0_27:
	.loc	4 426 37
	eq r1, r1, 2
	bf r1, .LBB0_48
.Ltmp80:
	bt r0, .LBB0_48
.Ltmp81:
	ldc r0, 2
	ldaw r1, dp[g_interfaceAlt]
	.loc	4 426 37
	ld8u r0, r1[r0]
	bf r0, .LBB0_48
.Ltmp82:
	mkmsk r0, 1
	ldaw r1, dp[g_interfaceAlt]
	.loc	4 426 37
	ld8u r0, r1[r0]
	bt r0, .LBB0_48
.Ltmp83:
	.loc	4 429 33
	bl UserAudioStreamStop
	bu .LBB0_48
.Ltmp84:
.LBB0_26:
	.loc	4 424 33
	bl UserAudioStreamStop
.Ltmp85:
.LBB0_48:
	.loc	4 639 26
	ldw r1, sp[16]
	.loc	4 639 26
	mov r0, r6
	mov r2, r8
	bl VendorRequests
	mov r9, r0
.Ltmp86:
	.loc	4 643 12
	eq r0, r9, 1
	bf r0, .LBB0_53
.Ltmp87:
	.loc	4 646 17
	ldw r2, dp[DFU_mode_active]
	.loc	4 761 26
.Ltmp88:
	ldw r1, sp[16]
	.loc	4 761 26
	ldw r0, dp[g_curUsbSpeed]
.Ltmp89:
	.loc	4 646 17
	bf r2, .LBB0_50
.Ltmp90:
	ldc r2, 12
	.loc	4 761 26
.Ltmp91:
	std r8, r2, sp[4]
.Ltmp92:
	.loc	4 741 27
	ldaw r2, dp[g_strTable]
.Ltmp93:
	.loc	4 761 26
	std r2, r7, sp[3]
	ldc r2, 27
	std r7, r2, sp[1]
	stw r0, sp[10]
	std r7, r7, sp[2]
	ldaw r0, dp[DFUcfgDesc]
	stw r0, sp[1]
	mov r0, r6
	ldaw r2, dp[DFUdevDesc]
	ldc r3, 18
	bu .LBB0_52
.Ltmp94:
.LBB0_50:
	ldc r2, 12
	.loc	4 741 27
.Ltmp95:
	std r8, r2, sp[4]
	ldaw r2, dp[g_strTable]
	ldc r3, 213
	std r2, r3, sp[3]
	ldaw r2, dp[cfgDesc_Audio1]
	ldc r3, 18
	std r2, r3, sp[2]
	ldaw r2, dp[devDesc_Audio1]
	std r2, r7, sp[1]
	stw r0, sp[10]
	stw r7, sp[1]
	mov r0, r6
	mov r2, r7
	mov r3, r7
.Ltmp96:
.LBB0_52:
	.loc	4 761 26
	bl USB_StandardRequests
	mov r9, r0
.Ltmp97:
.LBB0_53:
	mkmsk r0, 32
	.loc	4 771 13
.Ltmp98:
	eq r0, r9, r0
	bf r0, .LBB0_57
.Ltmp99:
	.loc	4 776 29
	mov r0, r6
	ldaw r1, sp[16]
	bl XUD_ResetEndpoint
	.loc	4 776 29
	stw r0, dp[g_curUsbSpeed]
	.loc	4 778 13
	ldaw r0, dp[g_currentConfig]
	st8 r7, r0[r7]
	.loc	4 779 13
	stw r7, dp[g_curStreamAlt_Out]
	.loc	4 780 13
	stw r7, dp[g_curStreamAlt_In]
	.loc	4 783 17
.Ltmp100:
	mov r0, r7
	bl DFUReportResetState
	.loc	4 785 21
.Ltmp101:
	ldw r1, dp[DFU_mode_active]
.Ltmp102:
	.loc	4 783 17
	bf r0, .LBB0_58
.Ltmp103:
	bt r1, .LBB0_57
.Ltmp104:
	mkmsk r0, 1
	.loc	4 787 21
.Ltmp105:
	stw r0, dp[DFU_mode_active]
	bu .LBB0_57
.Ltmp106:
.LBB0_58:
	bf r1, .LBB0_57
.Ltmp107:
	.loc	4 794 21
	stw r7, dp[DFU_mode_active]
	ldw r0, cp[.LCPI0_2]
	.loc	4 797 21
	bl DFUDelay
	.loc	4 798 21
	mov r0, r5
	bl device_reboot
.Ltmp108:
	.loc	4 302 31
	ldw r9, sp[16]
	bu .LBB0_3
.Ltmp109:
	.cc_bottom Endpoint0.function
	.set	Endpoint0.nstackwords,((XUD_InitEp.nstackwords $M VendorRequests_Init.nstackwords $M USB_GetSetupPacket.nstackwords $M UserHostActive.nstackwords $M VendorRequests.nstackwords $M USB_StandardRequests.nstackwords $M XUD_ResetEndpoint.nstackwords $M DFUReportResetState.nstackwords $M UserAudioStreamStop.nstackwords $M UserAudioStreamStart.nstackwords $M DFUDeviceRequests.nstackwords $M AudioClassRequests_1.nstackwords $M DFUDelay.nstackwords $M device_reboot.nstackwords $M AudioEndpointRequests_1.nstackwords) + 28)
	.globl	Endpoint0.nstackwords
	.set	Endpoint0.maxcores,AudioClassRequests_1.maxcores $M AudioEndpointRequests_1.maxcores $M DFUDelay.maxcores $M DFUDeviceRequests.maxcores $M DFUReportResetState.maxcores $M USB_GetSetupPacket.maxcores $M USB_StandardRequests.maxcores $M UserAudioStreamStart.maxcores $M UserAudioStreamStop.maxcores $M UserHostActive.maxcores $M VendorRequests.maxcores $M XUD_InitEp.maxcores $M XUD_ResetEndpoint.maxcores $M device_reboot.maxcores $M 1
	.globl	Endpoint0.maxcores
	.set	Endpoint0.maxtimers,AudioClassRequests_1.maxtimers $M AudioEndpointRequests_1.maxtimers $M DFUDelay.maxtimers $M DFUDeviceRequests.maxtimers $M DFUReportResetState.maxtimers $M USB_GetSetupPacket.maxtimers $M USB_StandardRequests.maxtimers $M UserAudioStreamStart.maxtimers $M UserAudioStreamStop.maxtimers $M UserHostActive.maxtimers $M VendorRequests.maxtimers $M XUD_InitEp.maxtimers $M XUD_ResetEndpoint.maxtimers $M device_reboot.maxtimers $M 0
	.globl	Endpoint0.maxtimers
	.set	Endpoint0.maxchanends,AudioClassRequests_1.maxchanends $M AudioEndpointRequests_1.maxchanends $M DFUDelay.maxchanends $M DFUDeviceRequests.maxchanends $M DFUReportResetState.maxchanends $M USB_GetSetupPacket.maxchanends $M USB_StandardRequests.maxchanends $M UserAudioStreamStart.maxchanends $M UserAudioStreamStop.maxchanends $M UserHostActive.maxchanends $M VendorRequests.maxchanends $M XUD_InitEp.maxchanends $M XUD_ResetEndpoint.maxchanends $M device_reboot.maxchanends $M 0
	.globl	Endpoint0.maxchanends
.Ltmp110:
	.size	Endpoint0, .Ltmp110-Endpoint0
.Lfunc_end0:
	.cfi_endproc

	.section	.cp.rodata.string,"aMSc",@progbits
	.cc_top .L.str.data,.L.str
	.align	4
	.type	.L.str,@object
	.size	.L.str, 3
.L.str:
.asciiz"\t\004"
	.space	1
	.cc_bottom .L.str.data
	.cc_top .L.str1.data,.L.str1
	.align	4
	.type	.L.str1,@object
	.size	.L.str1, 5
.L.str1:
.asciiz"XMOS"
	.cc_bottom .L.str1.data
	.cc_top .L.str2.data,.L.str2
	.align	4
	.type	.L.str2,@object
	.size	.L.str2, 1
.L.str2:
	.space	1
	.space	3
	.cc_bottom .L.str2.data
	.cc_top .L.str3.data,.L.str3
	.align	4
	.type	.L.str3,@object
	.size	.L.str3, 30
.L.str3:
.asciiz"XMOS VocalFusion Spk (UAC1.0)"
	.cc_bottom .L.str3.data
	.cc_top .L.str4.data,.L.str4
	.align	4
	.type	.L.str4,@object
	.size	.L.str4, 31
.L.str4:
.asciiz"XMOS VocalFusion Spk (UAC1.0) "
	.cc_bottom .L.str4.data
	.cc_top .L.str5.data,.L.str5
	.align	4
	.type	.L.str5,@object
	.size	.L.str5, 9
.L.str5:
.asciiz"XMOS DFU"
	.cc_bottom .L.str5.data
	.cc_top .L.str6.data,.L.str6
	.align	4
	.type	.L.str6,@object
	.size	.L.str6, 11
.L.str6:
.asciiz"Analogue 1"
	.cc_bottom .L.str6.data
	.cc_top .L.str7.data,.L.str7
	.align	4
	.type	.L.str7,@object
	.size	.L.str7, 11
.L.str7:
.asciiz"Analogue 2"
	.cc_bottom .L.str7.data
	.section	.dp.data,"awd",@progbits
	.cc_top g_strTable.data,g_strTable
	.globl	g_strTable
	.align	8
	.type	g_strTable,@object
	.size	g_strTable, 48
g_strTable:
	.long	.L.str
	.long	.L.str1
	.long	.L.str2
	.long	.L.str3
	.long	.L.str4
	.long	.L.str4
	.long	.L.str4
	.long	.L.str4
	.long	.L.str5
	.long	.L.str6
	.long	.L.str7
	.long	.L.str2
	.cc_bottom g_strTable.data
	.cc_top devDesc_Audio1.data,devDesc_Audio1
	.globl	devDesc_Audio1
	.align	8
	.type	devDesc_Audio1,@object
	.size	devDesc_Audio1, 18
devDesc_Audio1:
	.byte	18
	.byte	1
	.short	512
	.byte	0
	.byte	0
	.byte	0
	.byte	64
	.short	8369
	.short	17
	.short	274
	.byte	1
	.byte	3
	.byte	0
	.byte	1
	.cc_bottom devDesc_Audio1.data
	.cc_top devQualDesc_Audio2.data,devQualDesc_Audio2
	.globl	devQualDesc_Audio2.globound
devQualDesc_Audio2.globound = 10
	.globl	devQualDesc_Audio2
	.align	8
	.type	devQualDesc_Audio2,@object
	.size	devQualDesc_Audio2, 10
devQualDesc_Audio2:
.asciiz"\n\006\000\002\357\002\001@\001"
	.cc_bottom devQualDesc_Audio2.data
	.cc_top devQualDesc_Audio1.data,devQualDesc_Audio1
	.globl	devQualDesc_Audio1.globound
devQualDesc_Audio1.globound = 10
	.globl	devQualDesc_Audio1
	.align	8
	.type	devQualDesc_Audio1,@object
	.size	devQualDesc_Audio1, 10
devQualDesc_Audio1:
.asciiz"\n\006\000\002\000\000\000@\001"
	.cc_bottom devQualDesc_Audio1.data
	.cc_top devQualDesc_Null.data,devQualDesc_Null
	.globl	devQualDesc_Null.globound
devQualDesc_Null.globound = 10
	.globl	devQualDesc_Null
	.align	8
	.type	devQualDesc_Null,@object
	.size	devQualDesc_Null, 10
devQualDesc_Null:
.asciiz"\n\006\000\002\000\000\000@\001"
	.cc_bottom devQualDesc_Null.data
	.cc_top cfgDesc_Null.data,cfgDesc_Null
	.globl	cfgDesc_Null.globound
cfgDesc_Null.globound = 19
	.globl	cfgDesc_Null
	.align	8
	.type	cfgDesc_Null,@object
	.size	cfgDesc_Null, 19
cfgDesc_Null:
	.ascii	"\t\002\022\000\001\001\000\200\372\t\004\000\000\000\000\000\000\000\t"
	.cc_bottom cfgDesc_Null.data
	.section	.cp.rodata.4,"ac",@progbits
	.cc_top num_freqs_a1.data,num_freqs_a1
	.globl	num_freqs_a1
	.align	4
	.type	num_freqs_a1,@object
	.size	num_freqs_a1, 4
num_freqs_a1:
	.long	3
	.cc_bottom num_freqs_a1.data
	.section	.dp.data,"awd",@progbits
	.cc_top cfgDesc_Audio1.data,cfgDesc_Audio1
	.globl	cfgDesc_Audio1.globound
cfgDesc_Audio1.globound = 213
	.globl	cfgDesc_Audio1
	.align	8
	.type	cfgDesc_Audio1,@object
	.size	cfgDesc_Audio1, 213
cfgDesc_Audio1:
	.ascii	"\t\002\325\000\004\001\000\200\372\t\004\000\000\000\001\001\000\003\n$\001\000\0014\000\002\001\002\f$\002\001\001\001\000\002\003\000\t\006\t$\003\006\001\003\000\001\000\f$\002\002\001\002\000\001\003\000\013\007\t$\003\007\001\001\001\002\000\t\004\001\000\000\001\002\000\004\t\004\001\001\002\001\002\000\004\007$\001\001\001\001\000\021$\002\001\002\003\030\003\200\273\000\200\273\000\200\273\000\t\005\001\005&\001\001\000\201\007%\001\001\002\000\000\t\005\201\001\003\000\001\004\000\t\004\002\000\000\001\002\000\005\t\004\002\001\001\001\002\000\005\007$\001\007\001\001\000\021$\002\001\001\002\020\003\200\273\000\200\273\000\200\273\000\t\005\202\005b\000\001\000\000\007%\001\001\000\000\000\t\004\003\000\000\376\001\001\b\t!\007\372\000@\000\020\001"
	.cc_bottom cfgDesc_Audio1.data
	.cc_top DFUdevDesc.data,DFUdevDesc
	.globl	DFUdevDesc.globound
DFUdevDesc.globound = 18
	.globl	DFUdevDesc
	.align	8
	.type	DFUdevDesc,@object
	.size	DFUdevDesc, 18
DFUdevDesc:
	.ascii	"\022\001\000\002\000\000\000@\261 \021\000\022\001\001\003\000\001"
	.cc_bottom DFUdevDesc.data
	.cc_top DFUcfgDesc.data,DFUcfgDesc
	.globl	DFUcfgDesc.globound
DFUcfgDesc.globound = 27
	.globl	DFUcfgDesc
	.align	8
	.type	DFUcfgDesc,@object
	.size	DFUcfgDesc, 27
DFUcfgDesc:
	.ascii	"\t\002\033\000\001\001\000\3002\t\004\000\000\000\376\001\002\000\t!\007\372\000@\000\020\001"
	.cc_bottom DFUcfgDesc.data
	.section	.dp.bss.4,"awd",@nobits
	.cc_top DFU_mode_active.data,DFU_mode_active
	.globl	DFU_mode_active
	.align	4
	.type	DFU_mode_active,@object
	.size	DFU_mode_active, 4
DFU_mode_active:
	.long	0
	.cc_bottom DFU_mode_active.data
	.cc_top g_curStreamAlt_Out.data,g_curStreamAlt_Out
	.globl	g_curStreamAlt_Out
	.align	4
	.type	g_curStreamAlt_Out,@object
	.size	g_curStreamAlt_Out, 4
g_curStreamAlt_Out:
	.long	0
	.cc_bottom g_curStreamAlt_Out.data
	.cc_top g_curStreamAlt_In.data,g_curStreamAlt_In
	.globl	g_curStreamAlt_In
	.align	4
	.type	g_curStreamAlt_In,@object
	.size	g_curStreamAlt_In, 4
g_curStreamAlt_In:
	.long	0
	.cc_bottom g_curStreamAlt_In.data
	.cc_top g_curUsbSpeed.data,g_curUsbSpeed
	.globl	g_curUsbSpeed
	.align	4
	.type	g_curUsbSpeed,@object
	.size	g_curUsbSpeed, 4
g_curUsbSpeed:
	.long	0
	.cc_bottom g_curUsbSpeed.data
	.section	.cp.rodata,"ac",@progbits
	.cc_top g_subSlot_Out_HS.data,g_subSlot_Out_HS
	.globl	g_subSlot_Out_HS.globound
g_subSlot_Out_HS.globound = 2
	.globl	g_subSlot_Out_HS
	.align	8
	.type	g_subSlot_Out_HS,@object
	.size	g_subSlot_Out_HS, 8
g_subSlot_Out_HS:
	.long	4
	.long	2
	.cc_bottom g_subSlot_Out_HS.data
	.cc_top g_subSlot_Out_FS.data,g_subSlot_Out_FS
	.globl	g_subSlot_Out_FS.globound
g_subSlot_Out_FS.globound = 2
	.globl	g_subSlot_Out_FS
	.align	8
	.type	g_subSlot_Out_FS,@object
	.size	g_subSlot_Out_FS, 8
g_subSlot_Out_FS:
	.long	3
	.long	2
	.cc_bottom g_subSlot_Out_FS.data
	.cc_top g_subSlot_In_HS.data,g_subSlot_In_HS
	.globl	g_subSlot_In_HS.globound
g_subSlot_In_HS.globound = 1
	.globl	g_subSlot_In_HS
	.align	8
	.type	g_subSlot_In_HS,@object
	.size	g_subSlot_In_HS, 4
g_subSlot_In_HS:
	.long	2
	.cc_bottom g_subSlot_In_HS.data
	.cc_top g_subSlot_In_FS.data,g_subSlot_In_FS
	.globl	g_subSlot_In_FS.globound
g_subSlot_In_FS.globound = 1
	.globl	g_subSlot_In_FS
	.align	8
	.type	g_subSlot_In_FS,@object
	.size	g_subSlot_In_FS, 4
g_subSlot_In_FS:
	.long	2
	.cc_bottom g_subSlot_In_FS.data
	.cc_top g_sampRes_Out_HS.data,g_sampRes_Out_HS
	.globl	g_sampRes_Out_HS.globound
g_sampRes_Out_HS.globound = 2
	.globl	g_sampRes_Out_HS
	.align	8
	.type	g_sampRes_Out_HS,@object
	.size	g_sampRes_Out_HS, 8
g_sampRes_Out_HS:
	.long	24
	.long	16
	.cc_bottom g_sampRes_Out_HS.data
	.cc_top g_sampRes_Out_FS.data,g_sampRes_Out_FS
	.globl	g_sampRes_Out_FS.globound
g_sampRes_Out_FS.globound = 2
	.globl	g_sampRes_Out_FS
	.align	8
	.type	g_sampRes_Out_FS,@object
	.size	g_sampRes_Out_FS, 8
g_sampRes_Out_FS:
	.long	24
	.long	16
	.cc_bottom g_sampRes_Out_FS.data
	.cc_top g_sampRes_In_HS.data,g_sampRes_In_HS
	.globl	g_sampRes_In_HS.globound
g_sampRes_In_HS.globound = 1
	.globl	g_sampRes_In_HS
	.align	8
	.type	g_sampRes_In_HS,@object
	.size	g_sampRes_In_HS, 4
g_sampRes_In_HS:
	.long	16
	.cc_bottom g_sampRes_In_HS.data
	.cc_top g_sampRes_In_FS.data,g_sampRes_In_FS
	.globl	g_sampRes_In_FS.globound
g_sampRes_In_FS.globound = 1
	.globl	g_sampRes_In_FS
	.align	8
	.type	g_sampRes_In_FS,@object
	.size	g_sampRes_In_FS, 4
g_sampRes_In_FS:
	.long	16
	.cc_bottom g_sampRes_In_FS.data
	.cc_top g_dataFormat_Out.data,g_dataFormat_Out
	.globl	g_dataFormat_Out.globound
g_dataFormat_Out.globound = 2
	.globl	g_dataFormat_Out
	.align	8
	.type	g_dataFormat_Out,@object
	.size	g_dataFormat_Out, 8
g_dataFormat_Out:
	.long	1
	.long	1
	.cc_bottom g_dataFormat_Out.data
	.cc_top g_dataFormat_In.data,g_dataFormat_In
	.globl	g_dataFormat_In.globound
g_dataFormat_In.globound = 1
	.globl	g_dataFormat_In
	.align	8
	.type	g_dataFormat_In,@object
	.size	g_dataFormat_In, 4
g_dataFormat_In:
	.long	1
	.cc_bottom g_dataFormat_In.data
	.cc_top g_chanCount_In_HS.data,g_chanCount_In_HS
	.globl	g_chanCount_In_HS.globound
g_chanCount_In_HS.globound = 1
	.globl	g_chanCount_In_HS
	.align	8
	.type	g_chanCount_In_HS,@object
	.size	g_chanCount_In_HS, 4
g_chanCount_In_HS:
	.long	1
	.cc_bottom g_chanCount_In_HS.data
	.section	.dp.bss,"awd",@nobits
	.cc_top volsOut.data,volsOut
	.globl	volsOut.globound
volsOut.globound = 3
	.globl	volsOut
	.align	8
	.type	volsOut,@object
	.size	volsOut, 12
volsOut:
	.space	12
	.cc_bottom volsOut.data
	.cc_top mutesOut.data,mutesOut
	.globl	mutesOut.globound
mutesOut.globound = 3
	.globl	mutesOut
	.align	8
	.type	mutesOut,@object
	.size	mutesOut, 12
mutesOut:
	.space	12
	.cc_bottom mutesOut.data
	.cc_top volsIn.data,volsIn
	.globl	volsIn.globound
volsIn.globound = 2
	.globl	volsIn
	.align	8
	.type	volsIn,@object
	.size	volsIn, 8
volsIn:
	.space	8
	.cc_bottom volsIn.data
	.cc_top mutesIn.data,mutesIn
	.globl	mutesIn.globound
mutesIn.globound = 2
	.globl	mutesIn
	.align	8
	.type	mutesIn,@object
	.size	mutesIn, 8
mutesIn:
	.space	8
	.cc_bottom mutesIn.data
	.section	.cp.rodata.4,"ac",@progbits
.Ldebug_end0:
	.section	.cp.rodata,"ac",@progbits
.Ldebug_end1:
	.section	.dp.bss.4,"awd",@nobits
.Ldebug_end2:
	.section	.dp.bss,"awd",@nobits
.Ldebug_end3:
	.section	.dp.data,"awd",@progbits
.Ldebug_end4:
	.text
.Ldebug_end5:
	.file	8 "C:\\Program Files (x86)\\XMOS\\xTIMEcomposer\\Community_14.3.3\\target/include\\xccompat.h"
	.file	9 "C:/Users/user/workspace/module_usb_shared/src\\usb_std_requests.h"
	.section	.trap_info,"",@progbits
.Ltrap_info_entries_start0:
	.long	.Ltrap_info_entries_end0-.Ltrap_info_entries_start0
	.long	1
.Ltrap_info_entries_end0: