	.text
	.file	"C:/Users/user/workspace/lib_i2c/src/i2c_master.xc"
                                        # Start of file scope inline assembly
	.inline_definition __i_i2c_master_if_read_reg
	.inline_definition __i_i2c_master_if_write_reg
	.inline_definition __i_i2c_master_if_read_reg8_addr16
	.inline_definition __i_i2c_master_if_write_reg8_addr16
	.inline_definition __i_i2c_master_if_read_reg16
	.inline_definition __i_i2c_master_if_write_reg16
	.inline_definition __i_i2c_master_if_read_reg16_addr8
	.inline_definition __i_i2c_master_if_write_reg16_addr8
	.inline_definition delay_seconds
	.inline_definition delay_milliseconds
	.inline_definition delay_microseconds
	.set i2c_master.select.0.enable.savedstate,42
	.globl i2c_master.select.0.enable.savedstate
	.set i2c_master.select.0.enable.cases.maxtimers,0 $M i2c_master.select.0.case.0.maxtimers
	.globl i2c_master.select.0.enable.cases.maxtimers
	.set i2c_master.select.0.enable.cases.maxcores,0 $M i2c_master.select.0.case.0.maxcores
	.globl i2c_master.select.0.enable.cases.maxcores
	.set i2c_master.select.0.enable.cases.maxchanends,0 $M i2c_master.select.0.case.0.maxchanends
	.globl i2c_master.select.0.enable.cases.maxchanends
	.set i2c_master.select.0.enable.cases,0
	.globl i2c_master.select.0.enable.cases
	.set i2c_master.select.0.enable.cases.nstackwords, 0 $M (i2c_master.select.0.case.0.nstackwords)
	.globl i2c_master.select.0.enable.cases.nstackwords
	.set i2c_master.dynalloc_maxchanends, 0
	.globl i2c_master.dynalloc_maxchanends
	.set i2c_master.dynalloc_maxcores, 0
	.globl i2c_master.dynalloc_maxcores
	.set i2c_master.dynalloc_maxtimers, 0
	.globl i2c_master.dynalloc_maxtimers
	.set i2c_master.init.0.savedstate,42
	.globl i2c_master.init.0.savedstate
	.set i2c_master.select.yield.enable.savedstate,42
	.globl i2c_master.select.yield.enable.savedstate
	.set i2c_master.select.yield.enable.cases.maxtimers,0 $M i2c_master.select.yield.case.0.maxtimers
	.globl i2c_master.select.yield.enable.cases.maxtimers
	.set i2c_master.select.yield.enable.cases.maxcores,0 $M i2c_master.select.yield.case.0.maxcores
	.globl i2c_master.select.yield.enable.cases.maxcores
	.set i2c_master.select.yield.enable.cases.maxchanends,0 $M i2c_master.select.yield.case.0.maxchanends
	.globl i2c_master.select.yield.enable.cases.maxchanends
	.set i2c_master.select.yield.enable.cases,0
	.globl i2c_master.select.yield.enable.cases
	.set i2c_master.select.yield.enable.cases.nstackwords, 0 $M (i2c_master.select.yield.case.0.nstackwords)
	.globl i2c_master.select.yield.enable.cases.nstackwords
	.set i2c_master.select.enable.savedstate,42
	.globl i2c_master.select.enable.savedstate
	.set i2c_master.select.enable.cases.maxtimers,0 $M i2c_master.select.case.0.maxtimers
	.globl i2c_master.select.enable.cases.maxtimers
	.set i2c_master.select.enable.cases.maxcores,0 $M i2c_master.select.case.0.maxcores
	.globl i2c_master.select.enable.cases.maxcores
	.set i2c_master.select.enable.cases.maxchanends,0 $M i2c_master.select.case.0.maxchanends
	.globl i2c_master.select.enable.cases.maxchanends
	.set i2c_master.select.enable.cases,0
	.globl i2c_master.select.enable.cases
	.set i2c_master.select.enable.cases.nstackwords, 0 $M (i2c_master.select.case.0.nstackwords)
	.globl i2c_master.select.enable.cases.nstackwords
	.set _Si2c_master_0.select.0.enable.savedstate,40
	.globl _Si2c_master_0.select.0.enable.savedstate
	.set _Si2c_master_0.select.0.enable.cases.maxtimers,0
	.globl _Si2c_master_0.select.0.enable.cases.maxtimers
	.set _Si2c_master_0.select.0.enable.cases.maxcores,0
	.globl _Si2c_master_0.select.0.enable.cases.maxcores
	.set _Si2c_master_0.select.0.enable.cases.maxchanends,0
	.globl _Si2c_master_0.select.0.enable.cases.maxchanends
	.set _Si2c_master_0.select.0.enable.cases,0
	.globl _Si2c_master_0.select.0.enable.cases
	.set _Si2c_master_0.select.0.enable.cases.nstackwords, 0
	.globl _Si2c_master_0.select.0.enable.cases.nstackwords
	.set _Si2c_master_0.dynalloc_maxchanends, 0
	.globl _Si2c_master_0.dynalloc_maxchanends
	.set _Si2c_master_0.dynalloc_maxcores, 0
	.globl _Si2c_master_0.dynalloc_maxcores
	.set _Si2c_master_0.dynalloc_maxtimers, 0
	.globl _Si2c_master_0.dynalloc_maxtimers
	.set _Si2c_master_0.init.0.savedstate,40
	.globl _Si2c_master_0.init.0.savedstate
	.set _Si2c_master_0.select.yield.enable.savedstate,40
	.globl _Si2c_master_0.select.yield.enable.savedstate
	.set _Si2c_master_0.select.yield.enable.cases.maxtimers,0
	.globl _Si2c_master_0.select.yield.enable.cases.maxtimers
	.set _Si2c_master_0.select.yield.enable.cases.maxcores,0
	.globl _Si2c_master_0.select.yield.enable.cases.maxcores
	.set _Si2c_master_0.select.yield.enable.cases.maxchanends,0
	.globl _Si2c_master_0.select.yield.enable.cases.maxchanends
	.set _Si2c_master_0.select.yield.enable.cases,0
	.globl _Si2c_master_0.select.yield.enable.cases
	.set _Si2c_master_0.select.yield.enable.cases.nstackwords, 0
	.globl _Si2c_master_0.select.yield.enable.cases.nstackwords
	.set _Si2c_master_0.select.enable.savedstate,40
	.globl _Si2c_master_0.select.enable.savedstate
	.set _Si2c_master_0.select.enable.cases.maxtimers,0
	.globl _Si2c_master_0.select.enable.cases.maxtimers
	.set _Si2c_master_0.select.enable.cases.maxcores,0
	.globl _Si2c_master_0.select.enable.cases.maxcores
	.set _Si2c_master_0.select.enable.cases.maxchanends,0
	.globl _Si2c_master_0.select.enable.cases.maxchanends
	.set _Si2c_master_0.select.enable.cases,0
	.globl _Si2c_master_0.select.enable.cases
	.set _Si2c_master_0.select.enable.cases.nstackwords, 0
	.globl _Si2c_master_0.select.enable.cases.nstackwords
	.weak _i.i2c_slave_callback_if.start_read_request.maxchanends.group
	.max_reduce _i.i2c_slave_callback_if.start_read_request.max.maxchanends, _i.i2c_slave_callback_if.start_read_request.maxchanends.group, 0
	.weak _i.i2c_slave_callback_if.start_read_request.maxcores.group
	.max_reduce _i.i2c_slave_callback_if.start_read_request.max.maxcores, _i.i2c_slave_callback_if.start_read_request.maxcores.group, 0
	.weak _i.i2c_slave_callback_if.start_read_request.maxtimers.group
	.max_reduce _i.i2c_slave_callback_if.start_read_request.max.maxtimers, _i.i2c_slave_callback_if.start_read_request.maxtimers.group, 0
	.weak _i.i2c_slave_callback_if.start_read_request.nstackwords.group
	.globl _i.i2c_slave_callback_if.start_read_request.nstackwords.group
	.weak _i.i2c_slave_callback_if.start_read_request.fns.group
	.globl _i.i2c_slave_callback_if.start_read_request.fns.group
	.max_reduce _i.i2c_slave_callback_if.start_read_request.max.nstackwords, _i.i2c_slave_callback_if.start_read_request.nstackwords.group, 0
	.max_reduce _i.i2c_slave_callback_if.start_read_request.fns, _i.i2c_slave_callback_if.start_read_request.fns.group, 0
	.weak _i.i2c_slave_callback_if.ack_read_request.maxchanends.group
	.max_reduce _i.i2c_slave_callback_if.ack_read_request.max.maxchanends, _i.i2c_slave_callback_if.ack_read_request.maxchanends.group, 0
	.weak _i.i2c_slave_callback_if.ack_read_request.maxcores.group
	.max_reduce _i.i2c_slave_callback_if.ack_read_request.max.maxcores, _i.i2c_slave_callback_if.ack_read_request.maxcores.group, 0
	.weak _i.i2c_slave_callback_if.ack_read_request.maxtimers.group
	.max_reduce _i.i2c_slave_callback_if.ack_read_request.max.maxtimers, _i.i2c_slave_callback_if.ack_read_request.maxtimers.group, 0
	.weak _i.i2c_slave_callback_if.ack_read_request.nstackwords.group
	.globl _i.i2c_slave_callback_if.ack_read_request.nstackwords.group
	.weak _i.i2c_slave_callback_if.ack_read_request.fns.group
	.globl _i.i2c_slave_callback_if.ack_read_request.fns.group
	.max_reduce _i.i2c_slave_callback_if.ack_read_request.max.nstackwords, _i.i2c_slave_callback_if.ack_read_request.nstackwords.group, 0
	.max_reduce _i.i2c_slave_callback_if.ack_read_request.fns, _i.i2c_slave_callback_if.ack_read_request.fns.group, 0
	.weak _i.i2c_slave_callback_if.start_write_request.maxchanends.group
	.max_reduce _i.i2c_slave_callback_if.start_write_request.max.maxchanends, _i.i2c_slave_callback_if.start_write_request.maxchanends.group, 0
	.weak _i.i2c_slave_callback_if.start_write_request.maxcores.group
	.max_reduce _i.i2c_slave_callback_if.start_write_request.max.maxcores, _i.i2c_slave_callback_if.start_write_request.maxcores.group, 0
	.weak _i.i2c_slave_callback_if.start_write_request.maxtimers.group
	.max_reduce _i.i2c_slave_callback_if.start_write_request.max.maxtimers, _i.i2c_slave_callback_if.start_write_request.maxtimers.group, 0
	.weak _i.i2c_slave_callback_if.start_write_request.nstackwords.group
	.globl _i.i2c_slave_callback_if.start_write_request.nstackwords.group
	.weak _i.i2c_slave_callback_if.start_write_request.fns.group
	.globl _i.i2c_slave_callback_if.start_write_request.fns.group
	.max_reduce _i.i2c_slave_callback_if.start_write_request.max.nstackwords, _i.i2c_slave_callback_if.start_write_request.nstackwords.group, 0
	.max_reduce _i.i2c_slave_callback_if.start_write_request.fns, _i.i2c_slave_callback_if.start_write_request.fns.group, 0
	.weak _i.i2c_slave_callback_if.ack_write_request.maxchanends.group
	.max_reduce _i.i2c_slave_callback_if.ack_write_request.max.maxchanends, _i.i2c_slave_callback_if.ack_write_request.maxchanends.group, 0
	.weak _i.i2c_slave_callback_if.ack_write_request.maxcores.group
	.max_reduce _i.i2c_slave_callback_if.ack_write_request.max.maxcores, _i.i2c_slave_callback_if.ack_write_request.maxcores.group, 0
	.weak _i.i2c_slave_callback_if.ack_write_request.maxtimers.group
	.max_reduce _i.i2c_slave_callback_if.ack_write_request.max.maxtimers, _i.i2c_slave_callback_if.ack_write_request.maxtimers.group, 0
	.weak _i.i2c_slave_callback_if.ack_write_request.nstackwords.group
	.globl _i.i2c_slave_callback_if.ack_write_request.nstackwords.group
	.weak _i.i2c_slave_callback_if.ack_write_request.fns.group
	.globl _i.i2c_slave_callback_if.ack_write_request.fns.group
	.max_reduce _i.i2c_slave_callback_if.ack_write_request.max.nstackwords, _i.i2c_slave_callback_if.ack_write_request.nstackwords.group, 0
	.max_reduce _i.i2c_slave_callback_if.ack_write_request.fns, _i.i2c_slave_callback_if.ack_write_request.fns.group, 0
	.weak _i.i2c_slave_callback_if.start_master_read.maxchanends.group
	.max_reduce _i.i2c_slave_callback_if.start_master_read.max.maxchanends, _i.i2c_slave_callback_if.start_master_read.maxchanends.group, 0
	.weak _i.i2c_slave_callback_if.start_master_read.maxcores.group
	.max_reduce _i.i2c_slave_callback_if.start_master_read.max.maxcores, _i.i2c_slave_callback_if.start_master_read.maxcores.group, 0
	.weak _i.i2c_slave_callback_if.start_master_read.maxtimers.group
	.max_reduce _i.i2c_slave_callback_if.start_master_read.max.maxtimers, _i.i2c_slave_callback_if.start_master_read.maxtimers.group, 0
	.weak _i.i2c_slave_callback_if.start_master_read.nstackwords.group
	.globl _i.i2c_slave_callback_if.start_master_read.nstackwords.group
	.weak _i.i2c_slave_callback_if.start_master_read.fns.group
	.globl _i.i2c_slave_callback_if.start_master_read.fns.group
	.max_reduce _i.i2c_slave_callback_if.start_master_read.max.nstackwords, _i.i2c_slave_callback_if.start_master_read.nstackwords.group, 0
	.max_reduce _i.i2c_slave_callback_if.start_master_read.fns, _i.i2c_slave_callback_if.start_master_read.fns.group, 0
	.weak _i.i2c_slave_callback_if.master_requires_data.maxchanends.group
	.max_reduce _i.i2c_slave_callback_if.master_requires_data.max.maxchanends, _i.i2c_slave_callback_if.master_requires_data.maxchanends.group, 0
	.weak _i.i2c_slave_callback_if.master_requires_data.maxcores.group
	.max_reduce _i.i2c_slave_callback_if.master_requires_data.max.maxcores, _i.i2c_slave_callback_if.master_requires_data.maxcores.group, 0
	.weak _i.i2c_slave_callback_if.master_requires_data.maxtimers.group
	.max_reduce _i.i2c_slave_callback_if.master_requires_data.max.maxtimers, _i.i2c_slave_callback_if.master_requires_data.maxtimers.group, 0
	.weak _i.i2c_slave_callback_if.master_requires_data.nstackwords.group
	.globl _i.i2c_slave_callback_if.master_requires_data.nstackwords.group
	.weak _i.i2c_slave_callback_if.master_requires_data.fns.group
	.globl _i.i2c_slave_callback_if.master_requires_data.fns.group
	.max_reduce _i.i2c_slave_callback_if.master_requires_data.max.nstackwords, _i.i2c_slave_callback_if.master_requires_data.nstackwords.group, 0
	.max_reduce _i.i2c_slave_callback_if.master_requires_data.fns, _i.i2c_slave_callback_if.master_requires_data.fns.group, 0
	.weak _i.i2c_slave_callback_if.start_master_write.maxchanends.group
	.max_reduce _i.i2c_slave_callback_if.start_master_write.max.maxchanends, _i.i2c_slave_callback_if.start_master_write.maxchanends.group, 0
	.weak _i.i2c_slave_callback_if.start_master_write.maxcores.group
	.max_reduce _i.i2c_slave_callback_if.start_master_write.max.maxcores, _i.i2c_slave_callback_if.start_master_write.maxcores.group, 0
	.weak _i.i2c_slave_callback_if.start_master_write.maxtimers.group
	.max_reduce _i.i2c_slave_callback_if.start_master_write.max.maxtimers, _i.i2c_slave_callback_if.start_master_write.maxtimers.group, 0
	.weak _i.i2c_slave_callback_if.start_master_write.nstackwords.group
	.globl _i.i2c_slave_callback_if.start_master_write.nstackwords.group
	.weak _i.i2c_slave_callback_if.start_master_write.fns.group
	.globl _i.i2c_slave_callback_if.start_master_write.fns.group
	.max_reduce _i.i2c_slave_callback_if.start_master_write.max.nstackwords, _i.i2c_slave_callback_if.start_master_write.nstackwords.group, 0
	.max_reduce _i.i2c_slave_callback_if.start_master_write.fns, _i.i2c_slave_callback_if.start_master_write.fns.group, 0
	.weak _i.i2c_slave_callback_if.master_sent_data.maxchanends.group
	.max_reduce _i.i2c_slave_callback_if.master_sent_data.max.maxchanends, _i.i2c_slave_callback_if.master_sent_data.maxchanends.group, 0
	.weak _i.i2c_slave_callback_if.master_sent_data.maxcores.group
	.max_reduce _i.i2c_slave_callback_if.master_sent_data.max.maxcores, _i.i2c_slave_callback_if.master_sent_data.maxcores.group, 0
	.weak _i.i2c_slave_callback_if.master_sent_data.maxtimers.group
	.max_reduce _i.i2c_slave_callback_if.master_sent_data.max.maxtimers, _i.i2c_slave_callback_if.master_sent_data.maxtimers.group, 0
	.weak _i.i2c_slave_callback_if.master_sent_data.nstackwords.group
	.globl _i.i2c_slave_callback_if.master_sent_data.nstackwords.group
	.weak _i.i2c_slave_callback_if.master_sent_data.fns.group
	.globl _i.i2c_slave_callback_if.master_sent_data.fns.group
	.max_reduce _i.i2c_slave_callback_if.master_sent_data.max.nstackwords, _i.i2c_slave_callback_if.master_sent_data.nstackwords.group, 0
	.max_reduce _i.i2c_slave_callback_if.master_sent_data.fns, _i.i2c_slave_callback_if.master_sent_data.fns.group, 0
	.weak _i.i2c_slave_callback_if.stop_bit.maxchanends.group
	.max_reduce _i.i2c_slave_callback_if.stop_bit.max.maxchanends, _i.i2c_slave_callback_if.stop_bit.maxchanends.group, 0
	.weak _i.i2c_slave_callback_if.stop_bit.maxcores.group
	.max_reduce _i.i2c_slave_callback_if.stop_bit.max.maxcores, _i.i2c_slave_callback_if.stop_bit.maxcores.group, 0
	.weak _i.i2c_slave_callback_if.stop_bit.maxtimers.group
	.max_reduce _i.i2c_slave_callback_if.stop_bit.max.maxtimers, _i.i2c_slave_callback_if.stop_bit.maxtimers.group, 0
	.weak _i.i2c_slave_callback_if.stop_bit.nstackwords.group
	.globl _i.i2c_slave_callback_if.stop_bit.nstackwords.group
	.weak _i.i2c_slave_callback_if.stop_bit.fns.group
	.globl _i.i2c_slave_callback_if.stop_bit.fns.group
	.max_reduce _i.i2c_slave_callback_if.stop_bit.max.nstackwords, _i.i2c_slave_callback_if.stop_bit.nstackwords.group, 0
	.max_reduce _i.i2c_slave_callback_if.stop_bit.fns, _i.i2c_slave_callback_if.stop_bit.fns.group, 0
	.weak _i.i2c_slave_callback_if.__interface_init.maxchanends.group
	.max_reduce _i.i2c_slave_callback_if.__interface_init.max.maxchanends, _i.i2c_slave_callback_if.__interface_init.maxchanends.group, 0
	.weak _i.i2c_slave_callback_if.__interface_init.maxcores.group
	.max_reduce _i.i2c_slave_callback_if.__interface_init.max.maxcores, _i.i2c_slave_callback_if.__interface_init.maxcores.group, 0
	.weak _i.i2c_slave_callback_if.__interface_init.maxtimers.group
	.max_reduce _i.i2c_slave_callback_if.__interface_init.max.maxtimers, _i.i2c_slave_callback_if.__interface_init.maxtimers.group, 0
	.weak _i.i2c_slave_callback_if.__interface_init.nstackwords.group
	.globl _i.i2c_slave_callback_if.__interface_init.nstackwords.group
	.weak _i.i2c_slave_callback_if.__interface_init.fns.group
	.globl _i.i2c_slave_callback_if.__interface_init.fns.group
	.max_reduce _i.i2c_slave_callback_if.__interface_init.max.nstackwords, _i.i2c_slave_callback_if.__interface_init.nstackwords.group, 0
	.max_reduce _i.i2c_slave_callback_if.__interface_init.fns, _i.i2c_slave_callback_if.__interface_init.fns.group, 0
	.weak _i.i2c_slave_callback_if._client_call_y.maxchanends.group
	.add_to_set _i.i2c_slave_callback_if._client_call_y.maxchanends.group, (__interface_client_call_y_other.maxchanends + __interface_client_call_y_extra.maxchanends), __interface_client_call_y_other
	.max_reduce _i.i2c_slave_callback_if._client_call_y.max.maxchanends, _i.i2c_slave_callback_if._client_call_y.maxchanends.group, 0
	.weak _i.i2c_slave_callback_if._client_call_y.maxcores.group
	.add_to_set _i.i2c_slave_callback_if._client_call_y.maxcores.group, (__interface_client_call_y_other.maxcores + __interface_client_call_y_extra.maxcores), __interface_client_call_y_other
	.max_reduce _i.i2c_slave_callback_if._client_call_y.max.maxcores, _i.i2c_slave_callback_if._client_call_y.maxcores.group, 0
	.weak _i.i2c_slave_callback_if._client_call_y.maxtimers.group
	.add_to_set _i.i2c_slave_callback_if._client_call_y.maxtimers.group, (__interface_client_call_y_other.maxtimers + __interface_client_call_y_extra.maxtimers), __interface_client_call_y_other
	.max_reduce _i.i2c_slave_callback_if._client_call_y.max.maxtimers, _i.i2c_slave_callback_if._client_call_y.maxtimers.group, 0
	.weak _i.i2c_slave_callback_if._client_call_y.nstackwords.group
	.globl _i.i2c_slave_callback_if._client_call_y.nstackwords.group
	.weak _i.i2c_slave_callback_if._client_call_y.fns.group
	.globl _i.i2c_slave_callback_if._client_call_y.fns.group
	.add_to_set _i.i2c_slave_callback_if._client_call_y.nstackwords.group, (__interface_client_call_y_other.nstackwords + __interface_client_call_y_extra.nstackwords), __interface_client_call_y_other
	.add_to_set _i.i2c_slave_callback_if._client_call_y.fns.group, __interface_client_call_y_other, __interface_client_call_y_other
	.max_reduce _i.i2c_slave_callback_if._client_call_y.max.nstackwords, _i.i2c_slave_callback_if._client_call_y.nstackwords.group, 0
	.max_reduce _i.i2c_slave_callback_if._client_call_y.fns, _i.i2c_slave_callback_if._client_call_y.fns.group, 0
	.weak _i.i2c_master_async_if.write.maxchanends.group
	.max_reduce _i.i2c_master_async_if.write.max.maxchanends, _i.i2c_master_async_if.write.maxchanends.group, 0
	.weak _i.i2c_master_async_if.write.maxcores.group
	.max_reduce _i.i2c_master_async_if.write.max.maxcores, _i.i2c_master_async_if.write.maxcores.group, 0
	.weak _i.i2c_master_async_if.write.maxtimers.group
	.max_reduce _i.i2c_master_async_if.write.max.maxtimers, _i.i2c_master_async_if.write.maxtimers.group, 0
	.weak _i.i2c_master_async_if.write.nstackwords.group
	.globl _i.i2c_master_async_if.write.nstackwords.group
	.weak _i.i2c_master_async_if.write.fns.group
	.globl _i.i2c_master_async_if.write.fns.group
	.max_reduce _i.i2c_master_async_if.write.max.nstackwords, _i.i2c_master_async_if.write.nstackwords.group, 0
	.max_reduce _i.i2c_master_async_if.write.fns, _i.i2c_master_async_if.write.fns.group, 0
	.weak _i.i2c_master_async_if.read.maxchanends.group
	.max_reduce _i.i2c_master_async_if.read.max.maxchanends, _i.i2c_master_async_if.read.maxchanends.group, 0
	.weak _i.i2c_master_async_if.read.maxcores.group
	.max_reduce _i.i2c_master_async_if.read.max.maxcores, _i.i2c_master_async_if.read.maxcores.group, 0
	.weak _i.i2c_master_async_if.read.maxtimers.group
	.max_reduce _i.i2c_master_async_if.read.max.maxtimers, _i.i2c_master_async_if.read.maxtimers.group, 0
	.weak _i.i2c_master_async_if.read.nstackwords.group
	.globl _i.i2c_master_async_if.read.nstackwords.group
	.weak _i.i2c_master_async_if.read.fns.group
	.globl _i.i2c_master_async_if.read.fns.group
	.max_reduce _i.i2c_master_async_if.read.max.nstackwords, _i.i2c_master_async_if.read.nstackwords.group, 0
	.max_reduce _i.i2c_master_async_if.read.fns, _i.i2c_master_async_if.read.fns.group, 0
	.weak _i.i2c_master_async_if.get_write_result.maxchanends.group
	.max_reduce _i.i2c_master_async_if.get_write_result.max.maxchanends, _i.i2c_master_async_if.get_write_result.maxchanends.group, 0
	.weak _i.i2c_master_async_if.get_write_result.maxcores.group
	.max_reduce _i.i2c_master_async_if.get_write_result.max.maxcores, _i.i2c_master_async_if.get_write_result.maxcores.group, 0
	.weak _i.i2c_master_async_if.get_write_result.maxtimers.group
	.max_reduce _i.i2c_master_async_if.get_write_result.max.maxtimers, _i.i2c_master_async_if.get_write_result.maxtimers.group, 0
	.weak _i.i2c_master_async_if.get_write_result.nstackwords.group
	.globl _i.i2c_master_async_if.get_write_result.nstackwords.group
	.weak _i.i2c_master_async_if.get_write_result.fns.group
	.globl _i.i2c_master_async_if.get_write_result.fns.group
	.max_reduce _i.i2c_master_async_if.get_write_result.max.nstackwords, _i.i2c_master_async_if.get_write_result.nstackwords.group, 0
	.max_reduce _i.i2c_master_async_if.get_write_result.fns, _i.i2c_master_async_if.get_write_result.fns.group, 0
	.weak _i.i2c_master_async_if.get_read_data.maxchanends.group
	.max_reduce _i.i2c_master_async_if.get_read_data.max.maxchanends, _i.i2c_master_async_if.get_read_data.maxchanends.group, 0
	.weak _i.i2c_master_async_if.get_read_data.maxcores.group
	.max_reduce _i.i2c_master_async_if.get_read_data.max.maxcores, _i.i2c_master_async_if.get_read_data.maxcores.group, 0
	.weak _i.i2c_master_async_if.get_read_data.maxtimers.group
	.max_reduce _i.i2c_master_async_if.get_read_data.max.maxtimers, _i.i2c_master_async_if.get_read_data.maxtimers.group, 0
	.weak _i.i2c_master_async_if.get_read_data.nstackwords.group
	.globl _i.i2c_master_async_if.get_read_data.nstackwords.group
	.weak _i.i2c_master_async_if.get_read_data.fns.group
	.globl _i.i2c_master_async_if.get_read_data.fns.group
	.max_reduce _i.i2c_master_async_if.get_read_data.max.nstackwords, _i.i2c_master_async_if.get_read_data.nstackwords.group, 0
	.max_reduce _i.i2c_master_async_if.get_read_data.fns, _i.i2c_master_async_if.get_read_data.fns.group, 0
	.weak _i.i2c_master_async_if.send_stop_bit.maxchanends.group
	.max_reduce _i.i2c_master_async_if.send_stop_bit.max.maxchanends, _i.i2c_master_async_if.send_stop_bit.maxchanends.group, 0
	.weak _i.i2c_master_async_if.send_stop_bit.maxcores.group
	.max_reduce _i.i2c_master_async_if.send_stop_bit.max.maxcores, _i.i2c_master_async_if.send_stop_bit.maxcores.group, 0
	.weak _i.i2c_master_async_if.send_stop_bit.maxtimers.group
	.max_reduce _i.i2c_master_async_if.send_stop_bit.max.maxtimers, _i.i2c_master_async_if.send_stop_bit.maxtimers.group, 0
	.weak _i.i2c_master_async_if.send_stop_bit.nstackwords.group
	.globl _i.i2c_master_async_if.send_stop_bit.nstackwords.group
	.weak _i.i2c_master_async_if.send_stop_bit.fns.group
	.globl _i.i2c_master_async_if.send_stop_bit.fns.group
	.max_reduce _i.i2c_master_async_if.send_stop_bit.max.nstackwords, _i.i2c_master_async_if.send_stop_bit.nstackwords.group, 0
	.max_reduce _i.i2c_master_async_if.send_stop_bit.fns, _i.i2c_master_async_if.send_stop_bit.fns.group, 0
	.weak _i.i2c_master_async_if.shutdown.maxchanends.group
	.max_reduce _i.i2c_master_async_if.shutdown.max.maxchanends, _i.i2c_master_async_if.shutdown.maxchanends.group, 0
	.weak _i.i2c_master_async_if.shutdown.maxcores.group
	.max_reduce _i.i2c_master_async_if.shutdown.max.maxcores, _i.i2c_master_async_if.shutdown.maxcores.group, 0
	.weak _i.i2c_master_async_if.shutdown.maxtimers.group
	.max_reduce _i.i2c_master_async_if.shutdown.max.maxtimers, _i.i2c_master_async_if.shutdown.maxtimers.group, 0
	.weak _i.i2c_master_async_if.shutdown.nstackwords.group
	.globl _i.i2c_master_async_if.shutdown.nstackwords.group
	.weak _i.i2c_master_async_if.shutdown.fns.group
	.globl _i.i2c_master_async_if.shutdown.fns.group
	.max_reduce _i.i2c_master_async_if.shutdown.max.nstackwords, _i.i2c_master_async_if.shutdown.nstackwords.group, 0
	.max_reduce _i.i2c_master_async_if.shutdown.fns, _i.i2c_master_async_if.shutdown.fns.group, 0
	.weak _i.i2c_master_async_if.__interface_init.maxchanends.group
	.max_reduce _i.i2c_master_async_if.__interface_init.max.maxchanends, _i.i2c_master_async_if.__interface_init.maxchanends.group, 0
	.weak _i.i2c_master_async_if.__interface_init.maxcores.group
	.max_reduce _i.i2c_master_async_if.__interface_init.max.maxcores, _i.i2c_master_async_if.__interface_init.maxcores.group, 0
	.weak _i.i2c_master_async_if.__interface_init.maxtimers.group
	.max_reduce _i.i2c_master_async_if.__interface_init.max.maxtimers, _i.i2c_master_async_if.__interface_init.maxtimers.group, 0
	.weak _i.i2c_master_async_if.__interface_init.nstackwords.group
	.globl _i.i2c_master_async_if.__interface_init.nstackwords.group
	.weak _i.i2c_master_async_if.__interface_init.fns.group
	.globl _i.i2c_master_async_if.__interface_init.fns.group
	.max_reduce _i.i2c_master_async_if.__interface_init.max.nstackwords, _i.i2c_master_async_if.__interface_init.nstackwords.group, 0
	.max_reduce _i.i2c_master_async_if.__interface_init.fns, _i.i2c_master_async_if.__interface_init.fns.group, 0
	.weak _i.i2c_master_async_if._client_call_y.maxchanends.group
	.add_to_set _i.i2c_master_async_if._client_call_y.maxchanends.group, (__interface_client_call_y_other.maxchanends + __interface_client_call_y_extra.maxchanends), __interface_client_call_y_other
	.max_reduce _i.i2c_master_async_if._client_call_y.max.maxchanends, _i.i2c_master_async_if._client_call_y.maxchanends.group, 0
	.weak _i.i2c_master_async_if._client_call_y.maxcores.group
	.add_to_set _i.i2c_master_async_if._client_call_y.maxcores.group, (__interface_client_call_y_other.maxcores + __interface_client_call_y_extra.maxcores), __interface_client_call_y_other
	.max_reduce _i.i2c_master_async_if._client_call_y.max.maxcores, _i.i2c_master_async_if._client_call_y.maxcores.group, 0
	.weak _i.i2c_master_async_if._client_call_y.maxtimers.group
	.add_to_set _i.i2c_master_async_if._client_call_y.maxtimers.group, (__interface_client_call_y_other.maxtimers + __interface_client_call_y_extra.maxtimers), __interface_client_call_y_other
	.max_reduce _i.i2c_master_async_if._client_call_y.max.maxtimers, _i.i2c_master_async_if._client_call_y.maxtimers.group, 0
	.weak _i.i2c_master_async_if._client_call_y.nstackwords.group
	.globl _i.i2c_master_async_if._client_call_y.nstackwords.group
	.weak _i.i2c_master_async_if._client_call_y.fns.group
	.globl _i.i2c_master_async_if._client_call_y.fns.group
	.add_to_set _i.i2c_master_async_if._client_call_y.nstackwords.group, (__interface_client_call_y_other.nstackwords + __interface_client_call_y_extra.nstackwords), __interface_client_call_y_other
	.add_to_set _i.i2c_master_async_if._client_call_y.fns.group, __interface_client_call_y_other, __interface_client_call_y_other
	.max_reduce _i.i2c_master_async_if._client_call_y.max.nstackwords, _i.i2c_master_async_if._client_call_y.nstackwords.group, 0
	.max_reduce _i.i2c_master_async_if._client_call_y.fns, _i.i2c_master_async_if._client_call_y.fns.group, 0
	.weak _i.i2c_master_if.write.maxchanends.group
	.max_reduce _i.i2c_master_if.write.max.maxchanends, _i.i2c_master_if.write.maxchanends.group, 0
	.weak _i.i2c_master_if.write.maxcores.group
	.max_reduce _i.i2c_master_if.write.max.maxcores, _i.i2c_master_if.write.maxcores.group, 0
	.weak _i.i2c_master_if.write.maxtimers.group
	.max_reduce _i.i2c_master_if.write.max.maxtimers, _i.i2c_master_if.write.maxtimers.group, 0
	.weak _i.i2c_master_if.write.nstackwords.group
	.globl _i.i2c_master_if.write.nstackwords.group
	.weak _i.i2c_master_if.write.fns.group
	.globl _i.i2c_master_if.write.fns.group
	.max_reduce _i.i2c_master_if.write.max.nstackwords, _i.i2c_master_if.write.nstackwords.group, 0
	.max_reduce _i.i2c_master_if.write.fns, _i.i2c_master_if.write.fns.group, 0
	.weak _i.i2c_master_if.read.maxchanends.group
	.max_reduce _i.i2c_master_if.read.max.maxchanends, _i.i2c_master_if.read.maxchanends.group, 0
	.weak _i.i2c_master_if.read.maxcores.group
	.max_reduce _i.i2c_master_if.read.max.maxcores, _i.i2c_master_if.read.maxcores.group, 0
	.weak _i.i2c_master_if.read.maxtimers.group
	.max_reduce _i.i2c_master_if.read.max.maxtimers, _i.i2c_master_if.read.maxtimers.group, 0
	.weak _i.i2c_master_if.read.nstackwords.group
	.globl _i.i2c_master_if.read.nstackwords.group
	.weak _i.i2c_master_if.read.fns.group
	.globl _i.i2c_master_if.read.fns.group
	.max_reduce _i.i2c_master_if.read.max.nstackwords, _i.i2c_master_if.read.nstackwords.group, 0
	.max_reduce _i.i2c_master_if.read.fns, _i.i2c_master_if.read.fns.group, 0
	.weak _i.i2c_master_if.send_stop_bit.maxchanends.group
	.max_reduce _i.i2c_master_if.send_stop_bit.max.maxchanends, _i.i2c_master_if.send_stop_bit.maxchanends.group, 0
	.weak _i.i2c_master_if.send_stop_bit.maxcores.group
	.max_reduce _i.i2c_master_if.send_stop_bit.max.maxcores, _i.i2c_master_if.send_stop_bit.maxcores.group, 0
	.weak _i.i2c_master_if.send_stop_bit.maxtimers.group
	.max_reduce _i.i2c_master_if.send_stop_bit.max.maxtimers, _i.i2c_master_if.send_stop_bit.maxtimers.group, 0
	.weak _i.i2c_master_if.send_stop_bit.nstackwords.group
	.globl _i.i2c_master_if.send_stop_bit.nstackwords.group
	.weak _i.i2c_master_if.send_stop_bit.fns.group
	.globl _i.i2c_master_if.send_stop_bit.fns.group
	.max_reduce _i.i2c_master_if.send_stop_bit.max.nstackwords, _i.i2c_master_if.send_stop_bit.nstackwords.group, 0
	.max_reduce _i.i2c_master_if.send_stop_bit.fns, _i.i2c_master_if.send_stop_bit.fns.group, 0
	.weak _i.i2c_master_if.shutdown.maxchanends.group
	.max_reduce _i.i2c_master_if.shutdown.max.maxchanends, _i.i2c_master_if.shutdown.maxchanends.group, 0
	.weak _i.i2c_master_if.shutdown.maxcores.group
	.max_reduce _i.i2c_master_if.shutdown.max.maxcores, _i.i2c_master_if.shutdown.maxcores.group, 0
	.weak _i.i2c_master_if.shutdown.maxtimers.group
	.max_reduce _i.i2c_master_if.shutdown.max.maxtimers, _i.i2c_master_if.shutdown.maxtimers.group, 0
	.weak _i.i2c_master_if.shutdown.nstackwords.group
	.globl _i.i2c_master_if.shutdown.nstackwords.group
	.weak _i.i2c_master_if.shutdown.fns.group
	.globl _i.i2c_master_if.shutdown.fns.group
	.max_reduce _i.i2c_master_if.shutdown.max.nstackwords, _i.i2c_master_if.shutdown.nstackwords.group, 0
	.max_reduce _i.i2c_master_if.shutdown.fns, _i.i2c_master_if.shutdown.fns.group, 0
	.weak _i.i2c_master_if.__interface_init.maxchanends.group
	.max_reduce _i.i2c_master_if.__interface_init.max.maxchanends, _i.i2c_master_if.__interface_init.maxchanends.group, 0
	.weak _i.i2c_master_if.__interface_init.maxcores.group
	.max_reduce _i.i2c_master_if.__interface_init.max.maxcores, _i.i2c_master_if.__interface_init.maxcores.group, 0
	.weak _i.i2c_master_if.__interface_init.maxtimers.group
	.max_reduce _i.i2c_master_if.__interface_init.max.maxtimers, _i.i2c_master_if.__interface_init.maxtimers.group, 0
	.weak _i.i2c_master_if.__interface_init.nstackwords.group
	.globl _i.i2c_master_if.__interface_init.nstackwords.group
	.weak _i.i2c_master_if.__interface_init.fns.group
	.globl _i.i2c_master_if.__interface_init.fns.group
	.max_reduce _i.i2c_master_if.__interface_init.max.nstackwords, _i.i2c_master_if.__interface_init.nstackwords.group, 0
	.max_reduce _i.i2c_master_if.__interface_init.fns, _i.i2c_master_if.__interface_init.fns.group, 0
	.weak _i.i2c_master_if._client_call_y.maxchanends.group
	.add_to_set _i.i2c_master_if._client_call_y.maxchanends.group, (__interface_client_call_y_other.maxchanends + __interface_client_call_y_extra.maxchanends), __interface_client_call_y_other
	.max_reduce _i.i2c_master_if._client_call_y.max.maxchanends, _i.i2c_master_if._client_call_y.maxchanends.group, 0
	.weak _i.i2c_master_if._client_call_y.maxcores.group
	.add_to_set _i.i2c_master_if._client_call_y.maxcores.group, (__interface_client_call_y_other.maxcores + __interface_client_call_y_extra.maxcores), __interface_client_call_y_other
	.max_reduce _i.i2c_master_if._client_call_y.max.maxcores, _i.i2c_master_if._client_call_y.maxcores.group, 0
	.weak _i.i2c_master_if._client_call_y.maxtimers.group
	.add_to_set _i.i2c_master_if._client_call_y.maxtimers.group, (__interface_client_call_y_other.maxtimers + __interface_client_call_y_extra.maxtimers), __interface_client_call_y_other
	.max_reduce _i.i2c_master_if._client_call_y.max.maxtimers, _i.i2c_master_if._client_call_y.maxtimers.group, 0
	.weak _i.i2c_master_if._client_call_y.nstackwords.group
	.globl _i.i2c_master_if._client_call_y.nstackwords.group
	.weak _i.i2c_master_if._client_call_y.fns.group
	.globl _i.i2c_master_if._client_call_y.fns.group
	.add_to_set _i.i2c_master_if._client_call_y.nstackwords.group, (__interface_client_call_y_other.nstackwords + __interface_client_call_y_extra.nstackwords), __interface_client_call_y_other
	.add_to_set _i.i2c_master_if._client_call_y.fns.group, __interface_client_call_y_other, __interface_client_call_y_other
	.max_reduce _i.i2c_master_if._client_call_y.max.nstackwords, _i.i2c_master_if._client_call_y.nstackwords.group, 0
	.max_reduce _i.i2c_master_if._client_call_y.fns, _i.i2c_master_if._client_call_y.fns.group, 0
	.set usage.anon.0,0
	.set usage.anon.1,0
	.set usage.anon.2,0
	.set usage.anon.3,0
	.set usage.anon.4,0
	.set usage.anon.5,0
	.set usage.anon.6,0
	.set usage.anon.7,0
	.set usage.anon.8,0
	.set usage.anon.9,0
	.set usage.anon.10,0
	.set usage.anon.11,0
	.set usage.anon.12,0
	.set usage.anon.13,0
	.set usage.anon.14,0
	.set usage.anon.15,0
	.set usage.anon.16,0
	.call i2c_master,usage.anon.16
	.call i2c_master,usage.anon.15
	.call i2c_master,usage.anon.14
	.call i2c_master,usage.anon.12
	.call i2c_master,usage.anon.11
	.call usage.anon.16,usage.anon.13
	.call usage.anon.16,usage.anon.12
	.call usage.anon.15,usage.anon.11
	.call usage.anon.15,delay_ticks
	.call usage.anon.14,delay_ticks
	.call usage.anon.13,usage.anon.12
	.call usage.anon.12,usage.anon.11
	.call usage.anon.10,delay_ticks_longlong
	.call usage.anon.9,delay_ticks_longlong
	.call usage.anon.8,delay_ticks_longlong
	.set usage.anon.0.locnoside, 0
	.set usage.anon.1.locnoside, 0
	.set usage.anon.2.locnoside, 0
	.set usage.anon.3.locnoside, 0
	.set usage.anon.4.locnoside, 0
	.set usage.anon.5.locnoside, 0
	.set usage.anon.6.locnoside, 0
	.set usage.anon.7.locnoside, 0
	.set usage.anon.11.locnoside, 0
	.set usage.anon.12.locnoside, 0
	.set usage.anon.13.locnoside, 0
	.set usage.anon.14.locnoside, 0
	.set usage.anon.15.locnoside, 0
	.set usage.anon.16.locnoside, 0
	.set i2c_master.locnoside, 0
	.set usage.anon.0.locnointerfaceaccess, 0
	.set usage.anon.1.locnointerfaceaccess, 0
	.set usage.anon.2.locnointerfaceaccess, 0
	.set usage.anon.3.locnointerfaceaccess, 0
	.set usage.anon.4.locnointerfaceaccess, 0
	.set usage.anon.5.locnointerfaceaccess, 0
	.set usage.anon.6.locnointerfaceaccess, 0
	.set usage.anon.7.locnointerfaceaccess, 0
	.set i2c_master.locnointerfaceaccess, 0
	.assert 1,usage.anon.16.actnonotificationselect,"C:/Users/user/workspace/lib_i2c/src/i2c_master.xc:175:15: error: call to function `tx8\' which selects on a notification in a combinable function select case\n        ack = tx8(p_scl, p_sda, buf[j], bit_time, fall_time);\n              ^~~~~~~~~~~~~~~~~~~~~~~~~~~~~~~~~~~~~~~~~~~~~~"
	.assert 1,usage.anon.15.actnonotificationselect,"C:/Users/user/workspace/lib_i2c/src/i2c_master.xc:194:7: error: call to function `stop_bit\' which selects on a notification in a combinable function select case\n      stop_bit(p_scl, p_sda, bit_time, fall_time);\n      ^~~~~~~~~~~~~~~~~~~~~~~~~~~~~~~~~~~~~~~~~~~"
	.assert 1,usage.anon.14.actnonotificationselect,"C:/Users/user/workspace/lib_i2c/src/i2c_master.xc:168:19: error: call to function `start_bit\' which selects on a notification in a combinable function select case\n      fall_time = start_bit(p_scl, p_sda, bit_time);\n                  ^~~~~~~~~~~~~~~~~~~~~~~~~~~~~~~~~"
	.assert 1,usage.anon.12.actnonotificationselect,"C:/Users/user/workspace/lib_i2c/src/i2c_master.xc:130:24: error: call to function `high_pulse_sample\' which selects on a notification in a combinable function select case\n            int temp = high_pulse_sample(p_scl, p_sda, bit_time, fall_time);\n                       ^~~~~~~~~~~~~~~~~~~~~~~~~~~~~~~~~~~~~~~~~~~~~~~~~~~~"
	.assert 1,usage.anon.11.actnonotificationselect,"C:/Users/user/workspace/lib_i2c/src/i2c_master.xc:144:11: error: call to function `release_clock_and_wait\' which selects on a notification in a combinable function select case\n          release_clock_and_wait(p_scl, fall_time, bit_time + 1);\n          ^~~~~~~~~~~~~~~~~~~~~~~~~~~~~~~~~~~~~~~~~~~~~~~~~~~~~~"

                                        # End of file scope inline assembly
	.text
	.globl	_i.i2c_master_if.i2c_master._c0.shutdown
	.align	4
	.type	_i.i2c_master_if.i2c_master._c0.shutdown,@function
	.cc_top _i.i2c_master_if.i2c_master._c0.shutdown.function,_i.i2c_master_if.i2c_master._c0.shutdown
_i.i2c_master_if.i2c_master._c0.shutdown: # @_i.i2c_master_if.i2c_master._c0.shutdown
	.cfi_startproc
	.issue_mode single
# BB#0:                                 # %allocas
	ENTSP_lu6 0
	#DEBUG_VALUE: _i.i2c_master_if.i2c_master._c0.shutdown:p <- R0
	ldw r0, r0[0]
.LBB0_1:                                # %LoopTest
                                        # =>This Inner Loop Header: Depth=1
	ldw r1, r0[0]
	bf r1, .LBB0_1
# BB#2:                                 # %ifdone
	ldc r1, 0
	stw r1, r0[0]
	retsp 0
	# RETURN_REG_HOLDER
	.cc_bottom _i.i2c_master_if.i2c_master._c0.shutdown.function
	.set	_i.i2c_master_if.i2c_master._c0.shutdown.nstackwords,0
	.globl	_i.i2c_master_if.i2c_master._c0.shutdown.nstackwords
	.set	_i.i2c_master_if.i2c_master._c0.shutdown.maxcores,1
	.globl	_i.i2c_master_if.i2c_master._c0.shutdown.maxcores
	.set	_i.i2c_master_if.i2c_master._c0.shutdown.maxtimers,0
	.globl	_i.i2c_master_if.i2c_master._c0.shutdown.maxtimers
	.set	_i.i2c_master_if.i2c_master._c0.shutdown.maxchanends,0
	.globl	_i.i2c_master_if.i2c_master._c0.shutdown.maxchanends
.Ltmp0:
	.size	_i.i2c_master_if.i2c_master._c0.shutdown, .Ltmp0-_i.i2c_master_if.i2c_master._c0.shutdown
	.cfi_endproc

	.globl	_i.i2c_master_if.i2c_master._c0.send_stop_bit
	.align	4
	.type	_i.i2c_master_if.i2c_master._c0.send_stop_bit,@function
	.cc_top _i.i2c_master_if.i2c_master._c0.send_stop_bit.function,_i.i2c_master_if.i2c_master._c0.send_stop_bit
_i.i2c_master_if.i2c_master._c0.send_stop_bit: # @_i.i2c_master_if.i2c_master._c0.send_stop_bit
.Lfunc_begin1:
	.loc	2 190 0                 # C:/Users/user/workspace/lib_i2c/src/i2c_master.xc:190:0
	.cfi_startproc
	.issue_mode single
# BB#0:                                 # %allocas
	ENTSP_lu6 4
.Ltmp1:
	.cfi_def_cfa_offset 16
.Ltmp2:
	.cfi_offset 15, 0
	stw r4, sp[2]                   # 4-byte Folded Spill
.Ltmp3:
	.cfi_offset 4, -8
	#DEBUG_VALUE: _i.i2c_master_if.i2c_master._c0.send_stop_bit:p <- R0
	ldw r4, r0[0]
.Ltmp4:
.LBB1_1:                                # %LoopTest
                                        # =>This Inner Loop Header: Depth=1
	ldw r0, r4[0]
	bf r0, .LBB1_1
# BB#2:                                 # %ifdone
	ldc r0, 0
	stw r0, r4[0]
	.loc	2 193 0 prologue_end    # C:/Users/user/workspace/lib_i2c/src/i2c_master.xc:193:0
.Ltmp5:
	gettime r3
.Ltmp6:
	#DEBUG_VALUE: fall_time <- R3
	.loc	2 194 0                 # C:/Users/user/workspace/lib_i2c/src/i2c_master.xc:194:0
	ldw r0, r4[8]
	.loc	2 194 0                 # C:/Users/user/workspace/lib_i2c/src/i2c_master.xc:194:0
	ldw r1, r4[9]
	.loc	2 194 0                 # C:/Users/user/workspace/lib_i2c/src/i2c_master.xc:194:0
	ldw r2, r4[11]
	.loc	2 194 0                 # C:/Users/user/workspace/lib_i2c/src/i2c_master.xc:194:0
.Lxta.call_labels0:
	bl stop_bit
.Ltmp7:
	ldc r0, 48
	.loc	2 195 0                 # C:/Users/user/workspace/lib_i2c/src/i2c_master.xc:195:0
	add r0, r4, r0
	mkmsk r1, 32
	.loc	2 195 0                 # C:/Users/user/workspace/lib_i2c/src/i2c_master.xc:195:0
	stw r1, r0[0]
	mkmsk r0, 1
	stw r0, r4[0]
	ldw r4, sp[2]                   # 4-byte Folded Reload
	retsp 4
	# RETURN_REG_HOLDER
.Ltmp8:
	.cc_bottom _i.i2c_master_if.i2c_master._c0.send_stop_bit.function
	.set	_i.i2c_master_if.i2c_master._c0.send_stop_bit.nstackwords,(stop_bit.nstackwords + 4)
	.globl	_i.i2c_master_if.i2c_master._c0.send_stop_bit.nstackwords
	.set	_i.i2c_master_if.i2c_master._c0.send_stop_bit.maxcores,stop_bit.maxcores $M 1
	.globl	_i.i2c_master_if.i2c_master._c0.send_stop_bit.maxcores
	.set	_i.i2c_master_if.i2c_master._c0.send_stop_bit.maxtimers,stop_bit.maxtimers $M 0
	.globl	_i.i2c_master_if.i2c_master._c0.send_stop_bit.maxtimers
	.set	_i.i2c_master_if.i2c_master._c0.send_stop_bit.maxchanends,stop_bit.maxchanends $M 0
	.globl	_i.i2c_master_if.i2c_master._c0.send_stop_bit.maxchanends
.Ltmp9:
	.size	_i.i2c_master_if.i2c_master._c0.send_stop_bit, .Ltmp9-_i.i2c_master_if.i2c_master._c0.send_stop_bit
.Lfunc_end1:
	.cfi_endproc

	.section	.cp.rodata.cst4,"aMc",@progbits,4
	.cc_top .LCPI2_0.data,.LCPI2_0
	.align	4
	.type	.LCPI2_0,@object
	.size	.LCPI2_0, 4
.LCPI2_0:
	.long	4294967288              # 0xfffffff8
	.cc_bottom .LCPI2_0.data
	.text
	.globl	_i.i2c_master_if.i2c_master._c0.read
	.align	4
	.type	_i.i2c_master_if.i2c_master._c0.read,@function
	.cc_top _i.i2c_master_if.i2c_master._c0.read.function,_i.i2c_master_if.i2c_master._c0.read
_i.i2c_master_if.i2c_master._c0.read:   # @_i.i2c_master_if.i2c_master._c0.read
.Lfunc_begin2:
	.loc	2 116 0                 # C:/Users/user/workspace/lib_i2c/src/i2c_master.xc:116:0
	.cfi_startproc
	.issue_mode single
# BB#0:                                 # %allocas
	ENTSP_lu6 16
.Ltmp10:
	.cfi_def_cfa_offset 64
.Ltmp11:
	.cfi_offset 15, 0
	std r5, r4, sp[4]               # 4-byte Folded Spill
.Ltmp12:
	.cfi_offset 4, -32
.Ltmp13:
	.cfi_offset 5, -28
	std r7, r6, sp[5]               # 4-byte Folded Spill
.Ltmp14:
	.cfi_offset 6, -24
.Ltmp15:
	.cfi_offset 7, -20
	std r9, r8, sp[6]               # 4-byte Folded Spill
.Ltmp16:
	.cfi_offset 8, -16
.Ltmp17:
	.cfi_offset 9, -12
	stw r10, sp[14]                 # 4-byte Folded Spill
.Ltmp18:
	.cfi_offset 10, -8
	#DEBUG_VALUE: _i.i2c_master_if.i2c_master._c0.read:p <- R0
	#DEBUG_VALUE: _i.i2c_master_if.i2c_master._c0.read:device <- R1
	#DEBUG_VALUE: _i.i2c_master_if.i2c_master._c0.read:buf <- R2
	#DEBUG_VALUE: _i.i2c_master_if.i2c_master._c0.read:m <- R3
	stw r3, sp[6]                   # 4-byte Folded Spill
.Ltmp19:
	#DEBUG_VALUE: _i.i2c_master_if.i2c_master._c0.read:m <- [SP+24]
	stw r2, sp[5]                   # 4-byte Folded Spill
.Ltmp20:
	#DEBUG_VALUE: _i.i2c_master_if.i2c_master._c0.read:buf <- [SP+20]
	mov r8, r1
.Ltmp21:
	#DEBUG_VALUE: _i.i2c_master_if.i2c_master._c0.read:device <- undef
	#DEBUG_VALUE: _i.i2c_master_if.i2c_master._c0.read:device <- R8
	ldw r9, r0[0]
	ldw r6, r0[1]
.Ltmp22:
.LBB2_1:                                # %allocas
                                        # =>This Inner Loop Header: Depth=1
	ldw r0, r9[0]
	bf r0, .LBB2_1
# BB#2:                                 # %ifdone
.Ltmp23:
	#DEBUG_VALUE: _i.i2c_master_if.i2c_master._c0.read:device <- undef
	#DEBUG_VALUE: _i.i2c_master_if.i2c_master._c0.read:buf <- [SP+20]
	#DEBUG_VALUE: _i.i2c_master_if.i2c_master._c0.read:m <- [SP+24]
	ldw r0, r9[7]
	eq r0, r0, 1
	bt r0, .LBB2_3
.Ltmp24:
# BB#14:                                # %lhsfalse
	#DEBUG_VALUE: _i.i2c_master_if.i2c_master._c0.read:device <- undef
	#DEBUG_VALUE: _i.i2c_master_if.i2c_master._c0.read:buf <- [SP+20]
	#DEBUG_VALUE: _i.i2c_master_if.i2c_master._c0.read:m <- [SP+24]
	ldc r0, 48
	add r4, r9, r0
	ldw r0, r4[0]
	mkmsk r5, 32
	bu .LBB2_18
.Ltmp25:
.LBB2_17:                               # %lhsfalse51
                                        #   in Loop: Header=BB2_18 Depth=1
	#DEBUG_VALUE: _i.i2c_master_if.i2c_master._c0.read:device <- undef
	#DEBUG_VALUE: _i.i2c_master_if.i2c_master._c0.read:buf <- [SP+20]
	#DEBUG_VALUE: _i.i2c_master_if.i2c_master._c0.read:m <- [SP+24]
	ldw r0, r4[0]
.Ltmp26:
.LBB2_18:                               # %lhsfalse51
                                        # =>This Inner Loop Header: Depth=1
	eq r1, r0, r5
	bt r1, .LBB2_3
# BB#15:                                # %lhsfalse
                                        #   in Loop: Header=BB2_18 Depth=1
	#DEBUG_VALUE: _i.i2c_master_if.i2c_master._c0.read:device <- undef
.Ltmp27:
	#DEBUG_VALUE: _i.i2c_master_if.i2c_master._c0.read:buf <- [SP+20]
	#DEBUG_VALUE: _i.i2c_master_if.i2c_master._c0.read:m <- [SP+24]
	eq r0, r6, r0
	bt r0, .LBB2_3
.Ltmp28:
# BB#16:                                # %LoopBody42
                                        #   in Loop: Header=BB2_18 Depth=1
	#DEBUG_VALUE: _i.i2c_master_if.i2c_master._c0.read:device <- undef
	#DEBUG_VALUE: _i.i2c_master_if.i2c_master._c0.read:buf <- [SP+20]
	#DEBUG_VALUE: _i.i2c_master_if.i2c_master._c0.read:m <- [SP+24]
	mov r0, r6
	bl __interface_yield_once
	ldw r0, r9[7]
	eq r0, r0, 1
	bf r0, .LBB2_17
.Ltmp29:
.LBB2_3:                                # %ifdone19
	#DEBUG_VALUE: _i.i2c_master_if.i2c_master._c0.read:device <- undef
	#DEBUG_VALUE: _i.i2c_master_if.i2c_master._c0.read:buf <- [SP+20]
	#DEBUG_VALUE: _i.i2c_master_if.i2c_master._c0.read:m <- [SP+24]
	stw r6, sp[2]                   # 4-byte Folded Spill
	#DEBUG_VALUE: _i.i2c_master_if.i2c_master._c0.read:send_stop_bit <- undef
	ldc r10, 0
	stw r10, r9[0]
	.loc	2 122 0 prologue_end    # C:/Users/user/workspace/lib_i2c/src/i2c_master.xc:122:0
.Ltmp30:
	ldw r0, r9[8]
	.loc	2 122 0                 # C:/Users/user/workspace/lib_i2c/src/i2c_master.xc:122:0
	ldw r1, r9[9]
	.loc	2 122 0                 # C:/Users/user/workspace/lib_i2c/src/i2c_master.xc:122:0
	ldw r2, r9[11]
	.loc	2 122 0                 # C:/Users/user/workspace/lib_i2c/src/i2c_master.xc:122:0
.Lxta.call_labels1:
	bl start_bit
.Ltmp31:
	#DEBUG_VALUE: fall_time <- R0
	.loc	2 122 0                 # C:/Users/user/workspace/lib_i2c/src/i2c_master.xc:122:0
	stw r0, sp[7]
	.loc	2 123 0                 # C:/Users/user/workspace/lib_i2c/src/i2c_master.xc:123:0
	ldw r0, r9[8]
.Ltmp32:
	.loc	2 123 0                 # C:/Users/user/workspace/lib_i2c/src/i2c_master.xc:123:0
	ldw r1, r9[9]
	.loc	2 123 0                 # C:/Users/user/workspace/lib_i2c/src/i2c_master.xc:123:0
	shl r2, r8, 1
	mkmsk r3, 1
	.loc	2 123 0                 # C:/Users/user/workspace/lib_i2c/src/i2c_master.xc:123:0
	or r2, r2, r3
	.loc	2 123 0                 # C:/Users/user/workspace/lib_i2c/src/i2c_master.xc:123:0
	ldw r3, r9[11]
	ldaw r11, sp[7]
.Ltmp33:
	#DEBUG_VALUE: fall_time <- [R11+0]
	.loc	2 123 0                 # C:/Users/user/workspace/lib_i2c/src/i2c_master.xc:123:0
	stw r11, sp[1]
.Lxta.call_labels2:
	bl tx8
.Ltmp34:
	#DEBUG_VALUE: ack <- R0
	.loc	2 125 7                 # C:/Users/user/workspace/lib_i2c/src/i2c_master.xc:125:7
	eq r0, r0, 0
.Ltmp35:
	#DEBUG_VALUE: j <- 0
	.loc	2 125 7                 # C:/Users/user/workspace/lib_i2c/src/i2c_master.xc:125:7
	stw r0, sp[3]                   # 4-byte Folded Spill
	ldw r0, sp[6]                   # 4-byte Folded Reload
	bf r0, .LBB2_11
.Ltmp36:
# BB#4:                                 # %ifdone19
	#DEBUG_VALUE: _i.i2c_master_if.i2c_master._c0.read:device <- undef
	#DEBUG_VALUE: _i.i2c_master_if.i2c_master._c0.read:buf <- [SP+20]
	#DEBUG_VALUE: _i.i2c_master_if.i2c_master._c0.read:m <- [SP+24]
	#DEBUG_VALUE: _i.i2c_master_if.i2c_master._c0.read:send_stop_bit <- undef
	.loc	2 125 7                 # C:/Users/user/workspace/lib_i2c/src/i2c_master.xc:125:7
	ldw r0, sp[3]                   # 4-byte Folded Reload
	eq r0, r0, 0
	bt r0, .LBB2_11
.Ltmp37:
# BB#5:                                 # %LoopBody98.preheader
	#DEBUG_VALUE: _i.i2c_master_if.i2c_master._c0.read:device <- undef
	#DEBUG_VALUE: _i.i2c_master_if.i2c_master._c0.read:buf <- [SP+20]
	#DEBUG_VALUE: _i.i2c_master_if.i2c_master._c0.read:m <- [SP+24]
	#DEBUG_VALUE: _i.i2c_master_if.i2c_master._c0.read:send_stop_bit <- undef
	.loc	2 135 0                 # C:/Users/user/workspace/lib_i2c/src/i2c_master.xc:135:0
	get r11, id
	.loc	2 135 0                 # C:/Users/user/workspace/lib_i2c/src/i2c_master.xc:135:0
	ldaw r0, dp[__timers]
	.loc	2 135 0                 # C:/Users/user/workspace/lib_i2c/src/i2c_master.xc:135:0
	ldw r4, r0[r11]
	.loc	2 137 11                # C:/Users/user/workspace/lib_i2c/src/i2c_master.xc:137:11
.Ltmp38:
	ldw r0, sp[6]                   # 4-byte Folded Reload
	sub r0, r0, 1
	stw r0, sp[4]                   # 4-byte Folded Spill
	ldaw r8, sp[7]
	ldc r6, 510
	mov r7, r10
.Ltmp39:
.LBB2_6:                                # %LoopBody98
                                        # =>This Loop Header: Depth=1
                                        #     Child Loop BB2_7 Depth 2
.Lxtalabel0:
	#DEBUG_VALUE: _i.i2c_master_if.i2c_master._c0.read:device <- undef
	#DEBUG_VALUE: _i.i2c_master_if.i2c_master._c0.read:buf <- [SP+20]
	#DEBUG_VALUE: _i.i2c_master_if.i2c_master._c0.read:m <- [SP+24]
	#DEBUG_VALUE: _i.i2c_master_if.i2c_master._c0.read:send_stop_bit <- undef
	#DEBUG_VALUE: data <- 0
	#DEBUG_VALUE: i <- 8
	ldw r5, cp[.LCPI2_0]
.Ltmp40:
.LBB2_7:                                # %LoopBody107
                                        #   Parent Loop BB2_6 Depth=1
                                        # =>  This Inner Loop Header: Depth=2
.Lxtalabel1:
	#DEBUG_VALUE: _i.i2c_master_if.i2c_master._c0.read:device <- undef
	#DEBUG_VALUE: _i.i2c_master_if.i2c_master._c0.read:buf <- [SP+20]
	#DEBUG_VALUE: _i.i2c_master_if.i2c_master._c0.read:m <- [SP+24]
	#DEBUG_VALUE: _i.i2c_master_if.i2c_master._c0.read:send_stop_bit <- undef
	#DEBUG_VALUE: data <- 0
	#DEBUG_VALUE: i <- 8
	.loc	2 130 0                 # C:/Users/user/workspace/lib_i2c/src/i2c_master.xc:130:0
	ldw r0, r9[8]
	.loc	2 130 0                 # C:/Users/user/workspace/lib_i2c/src/i2c_master.xc:130:0
	ldw r1, r9[9]
	.loc	2 130 0                 # C:/Users/user/workspace/lib_i2c/src/i2c_master.xc:130:0
	ldw r2, r9[11]
.Ltmp41:
	#DEBUG_VALUE: fall_time <- [R8+0]
	.loc	2 130 0                 # C:/Users/user/workspace/lib_i2c/src/i2c_master.xc:130:0
	mov r3, r8
.Lxta.call_labels3:
	bl high_pulse_sample
.Ltmp42:
	#DEBUG_VALUE: temp <- R0
	.loc	2 131 0                 # C:/Users/user/workspace/lib_i2c/src/i2c_master.xc:131:0
	shl r1, r10, 1
	.loc	2 131 0                 # C:/Users/user/workspace/lib_i2c/src/i2c_master.xc:131:0
	and r1, r1, r6
	.loc	2 131 0                 # C:/Users/user/workspace/lib_i2c/src/i2c_master.xc:131:0
	or r10, r0, r1
.Ltmp43:
	.loc	2 129 0                 # C:/Users/user/workspace/lib_i2c/src/i2c_master.xc:129:0
	add r5, r5, 1
.xtaloop 8
	# LOOPMARKER 1
.Lxta.loop_labels0:
	# LOOPMARKER 0
	bt r5, .LBB2_7
.Ltmp44:
# BB#8:                                 # %afterboundcheck
                                        #   in Loop: Header=BB2_6 Depth=1
.Lxtalabel2:
	#DEBUG_VALUE: _i.i2c_master_if.i2c_master._c0.read:device <- undef
	#DEBUG_VALUE: _i.i2c_master_if.i2c_master._c0.read:buf <- [SP+20]
	#DEBUG_VALUE: _i.i2c_master_if.i2c_master._c0.read:m <- [SP+24]
	#DEBUG_VALUE: _i.i2c_master_if.i2c_master._c0.read:send_stop_bit <- undef
	#DEBUG_VALUE: fall_time <- [R8+0]
	#DEBUG_VALUE: data <- 0
	.loc	2 133 0                 # C:/Users/user/workspace/lib_i2c/src/i2c_master.xc:133:0
	ldw r0, sp[5]                   # 4-byte Folded Reload
	st8 r10, r0[r7]
	.loc	2 135 0                 # C:/Users/user/workspace/lib_i2c/src/i2c_master.xc:135:0
	ldw r0, sp[7]
	.loc	2 135 0                 # C:/Users/user/workspace/lib_i2c/src/i2c_master.xc:135:0
	ldw r1, r9[11]
	.loc	2 135 0                 # C:/Users/user/workspace/lib_i2c/src/i2c_master.xc:135:0
	shr r2, r1, 2
	.loc	2 135 0                 # C:/Users/user/workspace/lib_i2c/src/i2c_master.xc:135:0
	add r2, r2, r0
	.loc	2 135 0                 # C:/Users/user/workspace/lib_i2c/src/i2c_master.xc:135:0
	setd res[r4], r2
	.loc	2 135 0                 # C:/Users/user/workspace/lib_i2c/src/i2c_master.xc:135:0
	setc res[r4], 9
	.loc	2 135 0                 # C:/Users/user/workspace/lib_i2c/src/i2c_master.xc:135:0
.Ltmp45:
.Lxta.endpoint_labels0:
	in r2, res[r4]
	.loc	2 138 0                 # C:/Users/user/workspace/lib_i2c/src/i2c_master.xc:138:0
	ldw r2, r9[9]
	.loc	2 137 11                # C:/Users/user/workspace/lib_i2c/src/i2c_master.xc:137:11
	ldw r3, sp[4]                   # 4-byte Folded Reload
	eq r3, r7, r3
	bf r3, .LBB2_19
.Ltmp46:
# BB#9:                                 # %iftrue133
                                        #   in Loop: Header=BB2_6 Depth=1
.Lxtalabel3:
	#DEBUG_VALUE: _i.i2c_master_if.i2c_master._c0.read:device <- undef
	#DEBUG_VALUE: _i.i2c_master_if.i2c_master._c0.read:buf <- [SP+20]
	#DEBUG_VALUE: _i.i2c_master_if.i2c_master._c0.read:m <- [SP+24]
	#DEBUG_VALUE: _i.i2c_master_if.i2c_master._c0.read:send_stop_bit <- undef
	#DEBUG_VALUE: fall_time <- [R8+0]
	#DEBUG_VALUE: data <- 0
	.loc	2 138 0                 # C:/Users/user/workspace/lib_i2c/src/i2c_master.xc:138:0
	setc res[r2], 1
	.loc	2 138 0                 # C:/Users/user/workspace/lib_i2c/src/i2c_master.xc:138:0
.Ltmp47:
.Lxta.endpoint_labels1:
	in r2, res[r2]
	ldc r10, 0
	bu .LBB2_10
.Ltmp48:
.LBB2_19:                               # %iffalse141
                                        #   in Loop: Header=BB2_6 Depth=1
.Lxtalabel4:
	#DEBUG_VALUE: _i.i2c_master_if.i2c_master._c0.read:device <- undef
	#DEBUG_VALUE: _i.i2c_master_if.i2c_master._c0.read:buf <- [SP+20]
	#DEBUG_VALUE: _i.i2c_master_if.i2c_master._c0.read:m <- [SP+24]
	#DEBUG_VALUE: _i.i2c_master_if.i2c_master._c0.read:send_stop_bit <- undef
	#DEBUG_VALUE: fall_time <- [R8+0]
	#DEBUG_VALUE: data <- 0
	ldc r10, 0
	.loc	2 140 23                # C:/Users/user/workspace/lib_i2c/src/i2c_master.xc:140:23
.Lxta.endpoint_labels2:
	out res[r2], r10
.Ltmp49:
.LBB2_10:                               # %ifdone134
                                        #   in Loop: Header=BB2_6 Depth=1
.Lxtalabel5:
	#DEBUG_VALUE: _i.i2c_master_if.i2c_master._c0.read:device <- undef
	#DEBUG_VALUE: _i.i2c_master_if.i2c_master._c0.read:buf <- [SP+20]
	#DEBUG_VALUE: _i.i2c_master_if.i2c_master._c0.read:m <- [SP+24]
	#DEBUG_VALUE: _i.i2c_master_if.i2c_master._c0.read:send_stop_bit <- undef
	#DEBUG_VALUE: fall_time <- [R8+0]
	#DEBUG_VALUE: data <- 0
	.loc	2 143 0                 # C:/Users/user/workspace/lib_i2c/src/i2c_master.xc:143:0
	shr r2, r1, 1
	.loc	2 143 0                 # C:/Users/user/workspace/lib_i2c/src/i2c_master.xc:143:0
	add r2, r2, r0
	.loc	2 143 0                 # C:/Users/user/workspace/lib_i2c/src/i2c_master.xc:143:0
	shr r3, r1, 5
	.loc	2 143 0                 # C:/Users/user/workspace/lib_i2c/src/i2c_master.xc:143:0
	add r2, r2, r3
	.loc	2 143 0                 # C:/Users/user/workspace/lib_i2c/src/i2c_master.xc:143:0
	setd res[r4], r2
	.loc	2 143 0                 # C:/Users/user/workspace/lib_i2c/src/i2c_master.xc:143:0
	setc res[r4], 9
	.loc	2 143 0                 # C:/Users/user/workspace/lib_i2c/src/i2c_master.xc:143:0
.Ltmp50:
.Lxta.endpoint_labels3:
	in r2, res[r4]
	.loc	2 144 0                 # C:/Users/user/workspace/lib_i2c/src/i2c_master.xc:144:0
	ldw r2, r9[8]
.Ltmp51:
	#DEBUG_VALUE: release_clock_and_wait:i2c_scl <- R2
	.loc	2 144 0                 # C:/Users/user/workspace/lib_i2c/src/i2c_master.xc:144:0
	add r1, r1, 1
.Ltmp52:
	#DEBUG_VALUE: release_clock_and_wait:delay <- R1
	mkmsk r3, 1
	.loc	2 18 0                  # C:/Users/user/workspace/lib_i2c/src/i2c_master.xc:18:0
.Ltmp53:
	setd res[r2], r3
	.loc	2 18 0                  # C:/Users/user/workspace/lib_i2c/src/i2c_master.xc:18:0
	setc res[r2], 17
	.loc	2 18 0                  # C:/Users/user/workspace/lib_i2c/src/i2c_master.xc:18:0
.Ltmp54:
.Lxta.endpoint_labels4:
	in r2, res[r2]
.Ltmp55:
	.loc	2 19 0                  # C:/Users/user/workspace/lib_i2c/src/i2c_master.xc:19:0
	add r0, r0, r1
	.loc	2 19 0                  # C:/Users/user/workspace/lib_i2c/src/i2c_master.xc:19:0
	setd res[r4], r0
	.loc	2 19 0                  # C:/Users/user/workspace/lib_i2c/src/i2c_master.xc:19:0
	setc res[r4], 9
	.loc	2 19 0                  # C:/Users/user/workspace/lib_i2c/src/i2c_master.xc:19:0
.Lxta.endpoint_labels5:
	in r0, res[r4]
.Ltmp56:
	#DEBUG_VALUE: time <- R0
	.loc	2 21 0                  # C:/Users/user/workspace/lib_i2c/src/i2c_master.xc:21:0
	sub r0, r0, r1
.Ltmp57:
	.loc	2 21 0                  # C:/Users/user/workspace/lib_i2c/src/i2c_master.xc:21:0
	stw r0, sp[7]
.Ltmp58:
	.loc	2 145 21                # C:/Users/user/workspace/lib_i2c/src/i2c_master.xc:145:21
	ldw r1, r9[8]
.Ltmp59:
	.loc	2 145 21                # C:/Users/user/workspace/lib_i2c/src/i2c_master.xc:145:21
.Lxta.endpoint_labels6:
	out res[r1], r10
	.loc	2 146 0                 # C:/Users/user/workspace/lib_i2c/src/i2c_master.xc:146:0
	ldw r1, r9[9]
	.loc	2 146 0                 # C:/Users/user/workspace/lib_i2c/src/i2c_master.xc:146:0
	setc res[r1], 1
	.loc	2 146 0                 # C:/Users/user/workspace/lib_i2c/src/i2c_master.xc:146:0
.Ltmp60:
.Lxta.endpoint_labels7:
	in r1, res[r1]
	.loc	2 147 0                 # C:/Users/user/workspace/lib_i2c/src/i2c_master.xc:147:0
	ldw r1, r9[11]
	.loc	2 147 0                 # C:/Users/user/workspace/lib_i2c/src/i2c_master.xc:147:0
	add r0, r1, r0
.Ltmp61:
	#DEBUG_VALUE: fall_time <- R0
	.loc	2 147 0                 # C:/Users/user/workspace/lib_i2c/src/i2c_master.xc:147:0
	stw r0, sp[7]
.Ltmp62:
	.loc	2 126 0                 # C:/Users/user/workspace/lib_i2c/src/i2c_master.xc:126:0
	add r7, r7, 1
.Ltmp63:
	#DEBUG_VALUE: j <- R7
	.loc	2 126 0                 # C:/Users/user/workspace/lib_i2c/src/i2c_master.xc:126:0
	ldw r0, sp[6]                   # 4-byte Folded Reload
.Ltmp64:
	lsu r0, r7, r0
.Lxta.loop_labels1:
	# LOOPMARKER 2
	bt r0, .LBB2_6
.Ltmp65:
.LBB2_11:                               # %ifdone88
.Lxtalabel6:
	#DEBUG_VALUE: _i.i2c_master_if.i2c_master._c0.read:device <- undef
	#DEBUG_VALUE: _i.i2c_master_if.i2c_master._c0.read:send_stop_bit <- undef
	ldw r1, sp[2]                   # 4-byte Folded Reload
	ldw r0, sp[17]
	bf r0, .LBB2_13
# BB#12:                                # %iftrue179
.Lxtalabel7:
	#DEBUG_VALUE: _i.i2c_master_if.i2c_master._c0.read:device <- undef
	.loc	2 151 0                 # C:/Users/user/workspace/lib_i2c/src/i2c_master.xc:151:0
	ldw r0, r9[8]
	.loc	2 151 0                 # C:/Users/user/workspace/lib_i2c/src/i2c_master.xc:151:0
	ldw r1, r9[9]
	.loc	2 151 0                 # C:/Users/user/workspace/lib_i2c/src/i2c_master.xc:151:0
	ldw r2, r9[11]
	.loc	2 151 0                 # C:/Users/user/workspace/lib_i2c/src/i2c_master.xc:151:0
	ldw r3, sp[7]
	.loc	2 151 0                 # C:/Users/user/workspace/lib_i2c/src/i2c_master.xc:151:0
.Lxta.call_labels4:
	bl stop_bit
	mkmsk r1, 32
.LBB2_13:                               # %ifdone180
.Lxtalabel8:
	#DEBUG_VALUE: _i.i2c_master_if.i2c_master._c0.read:device <- undef
	ldc r0, 48
	.loc	2 155 0                 # C:/Users/user/workspace/lib_i2c/src/i2c_master.xc:155:0
	add r0, r9, r0
	stw r1, r0[0]
	mkmsk r0, 1
	stw r0, r9[0]
	ldw r0, sp[3]                   # 4-byte Folded Reload
	ldw r10, sp[14]                 # 4-byte Folded Reload
	ldd r9, r8, sp[6]               # 4-byte Folded Reload
	ldd r7, r6, sp[5]               # 4-byte Folded Reload
	ldd r5, r4, sp[4]               # 4-byte Folded Reload
	retsp 16
	# RETURN_REG_HOLDER
.Ltmp66:
	.cc_bottom _i.i2c_master_if.i2c_master._c0.read.function
	.set	_i.i2c_master_if.i2c_master._c0.read.nstackwords,((start_bit.nstackwords $M tx8.nstackwords $M stop_bit.nstackwords $M high_pulse_sample.nstackwords $M _i.i2c_master_if._client_call_y.max.nstackwords $M ($D __interface_yield_once.nstackwords ? __interface_yield_once.nstackwords $: _i.i2c_master_if._client_call_y.max.nstackwords)) + 16)
	.globl	_i.i2c_master_if.i2c_master._c0.read.nstackwords
	.set	_i.i2c_master_if.i2c_master._c0.read.maxcores,($D __interface_yield_once.maxcores ? __interface_yield_once.maxcores $: _i.i2c_master_if._client_call_y.max.maxcores) $M high_pulse_sample.maxcores $M start_bit.maxcores $M stop_bit.maxcores $M tx8.maxcores $M 1
	.globl	_i.i2c_master_if.i2c_master._c0.read.maxcores
	.set	_i.i2c_master_if.i2c_master._c0.read.maxtimers,($D __interface_yield_once.maxtimers ? __interface_yield_once.maxtimers $: _i.i2c_master_if._client_call_y.max.maxtimers) $M high_pulse_sample.maxtimers $M start_bit.maxtimers $M stop_bit.maxtimers $M tx8.maxtimers $M 0
	.globl	_i.i2c_master_if.i2c_master._c0.read.maxtimers
	.set	_i.i2c_master_if.i2c_master._c0.read.maxchanends,($D __interface_yield_once.maxchanends ? __interface_yield_once.maxchanends $: _i.i2c_master_if._client_call_y.max.maxchanends) $M high_pulse_sample.maxchanends $M start_bit.maxchanends $M stop_bit.maxchanends $M tx8.maxchanends $M 0
	.globl	_i.i2c_master_if.i2c_master._c0.read.maxchanends
.Ltmp67:
	.size	_i.i2c_master_if.i2c_master._c0.read, .Ltmp67-_i.i2c_master_if.i2c_master._c0.read
.Lfunc_end2:
	.cfi_endproc

	.globl	_i.i2c_master_if.i2c_master._c0.write
	.align	4
	.type	_i.i2c_master_if.i2c_master._c0.write,@function
	.cc_top _i.i2c_master_if.i2c_master._c0.write.function,_i.i2c_master_if.i2c_master._c0.write
_i.i2c_master_if.i2c_master._c0.write:  # @_i.i2c_master_if.i2c_master._c0.write
.Lfunc_begin3:
	.loc	2 161 0                 # C:/Users/user/workspace/lib_i2c/src/i2c_master.xc:161:0
	.cfi_startproc
	.issue_mode single
# BB#0:                                 # %allocas
	ENTSP_lu6 12
.Ltmp68:
	.cfi_def_cfa_offset 48
.Ltmp69:
	.cfi_offset 15, 0
	std r5, r4, sp[2]               # 4-byte Folded Spill
.Ltmp70:
	.cfi_offset 4, -32
.Ltmp71:
	.cfi_offset 5, -28
	std r7, r6, sp[3]               # 4-byte Folded Spill
.Ltmp72:
	.cfi_offset 6, -24
.Ltmp73:
	.cfi_offset 7, -20
	std r9, r8, sp[4]               # 4-byte Folded Spill
.Ltmp74:
	.cfi_offset 8, -16
.Ltmp75:
	.cfi_offset 9, -12
	stw r10, sp[10]                 # 4-byte Folded Spill
.Ltmp76:
	.cfi_offset 10, -8
	#DEBUG_VALUE: _i.i2c_master_if.i2c_master._c0.write:p <- R0
	#DEBUG_VALUE: _i.i2c_master_if.i2c_master._c0.write:device <- R1
	#DEBUG_VALUE: _i.i2c_master_if.i2c_master._c0.write:buf <- R2
	#DEBUG_VALUE: _i.i2c_master_if.i2c_master._c0.write:n <- R3
	mov r5, r3
.Ltmp77:
	#DEBUG_VALUE: _i.i2c_master_if.i2c_master._c0.write:n <- R5
	mov r6, r2
.Ltmp78:
	#DEBUG_VALUE: _i.i2c_master_if.i2c_master._c0.write:buf <- R6
	mov r7, r1
.Ltmp79:
	#DEBUG_VALUE: _i.i2c_master_if.i2c_master._c0.write:device <- undef
	#DEBUG_VALUE: _i.i2c_master_if.i2c_master._c0.write:device <- R7
	ldw r8, r0[0]
	ldw r4, r0[1]
.Ltmp80:
.LBB3_1:                                # %allocas
                                        # =>This Inner Loop Header: Depth=1
	ldw r0, r8[0]
	bf r0, .LBB3_1
# BB#2:                                 # %ifdone
.Ltmp81:
	#DEBUG_VALUE: _i.i2c_master_if.i2c_master._c0.write:device <- undef
	#DEBUG_VALUE: _i.i2c_master_if.i2c_master._c0.write:buf <- R6
	#DEBUG_VALUE: _i.i2c_master_if.i2c_master._c0.write:n <- R5
	ldw r0, r8[7]
	eq r0, r0, 1
	bt r0, .LBB3_3
.Ltmp82:
# BB#9:                                 # %lhsfalse
	#DEBUG_VALUE: _i.i2c_master_if.i2c_master._c0.write:device <- undef
	#DEBUG_VALUE: _i.i2c_master_if.i2c_master._c0.write:buf <- R6
	#DEBUG_VALUE: _i.i2c_master_if.i2c_master._c0.write:n <- R5
	ldc r0, 48
	add r9, r8, r0
	ldw r0, r9[0]
	mkmsk r10, 32
	bu .LBB3_13
.Ltmp83:
.LBB3_12:                               # %lhsfalse51
                                        #   in Loop: Header=BB3_13 Depth=1
	#DEBUG_VALUE: _i.i2c_master_if.i2c_master._c0.write:device <- undef
	#DEBUG_VALUE: _i.i2c_master_if.i2c_master._c0.write:buf <- R6
	#DEBUG_VALUE: _i.i2c_master_if.i2c_master._c0.write:n <- R5
	ldw r0, r9[0]
.Ltmp84:
.LBB3_13:                               # %lhsfalse51
                                        # =>This Inner Loop Header: Depth=1
	eq r1, r0, r10
	bt r1, .LBB3_3
# BB#10:                                # %lhsfalse
                                        #   in Loop: Header=BB3_13 Depth=1
	#DEBUG_VALUE: _i.i2c_master_if.i2c_master._c0.write:device <- undef
.Ltmp85:
	#DEBUG_VALUE: _i.i2c_master_if.i2c_master._c0.write:buf <- R6
	#DEBUG_VALUE: _i.i2c_master_if.i2c_master._c0.write:n <- R5
	eq r0, r4, r0
	bt r0, .LBB3_3
.Ltmp86:
# BB#11:                                # %LoopBody42
                                        #   in Loop: Header=BB3_13 Depth=1
	#DEBUG_VALUE: _i.i2c_master_if.i2c_master._c0.write:device <- undef
	#DEBUG_VALUE: _i.i2c_master_if.i2c_master._c0.write:buf <- R6
	#DEBUG_VALUE: _i.i2c_master_if.i2c_master._c0.write:n <- R5
	mov r0, r4
	bl __interface_yield_once
	ldw r0, r8[7]
	eq r0, r0, 1
	bf r0, .LBB3_12
.Ltmp87:
.LBB3_3:                                # %ifdone19
	#DEBUG_VALUE: _i.i2c_master_if.i2c_master._c0.write:device <- undef
	#DEBUG_VALUE: _i.i2c_master_if.i2c_master._c0.write:buf <- R6
	#DEBUG_VALUE: _i.i2c_master_if.i2c_master._c0.write:n <- R5
	#DEBUG_VALUE: _i.i2c_master_if.i2c_master._c0.write:send_stop_bit <- undef
	ldc r9, 0
	stw r9, r8[0]
.Ltmp88:
	#DEBUG_VALUE: ack <- 0
	.loc	2 168 0 prologue_end    # C:/Users/user/workspace/lib_i2c/src/i2c_master.xc:168:0
	ldw r0, r8[8]
	.loc	2 168 0                 # C:/Users/user/workspace/lib_i2c/src/i2c_master.xc:168:0
	ldw r1, r8[9]
	.loc	2 168 0                 # C:/Users/user/workspace/lib_i2c/src/i2c_master.xc:168:0
	ldw r2, r8[11]
	.loc	2 168 0                 # C:/Users/user/workspace/lib_i2c/src/i2c_master.xc:168:0
.Lxta.call_labels5:
	bl start_bit
.Ltmp89:
	#DEBUG_VALUE: fall_time <- R0
	.loc	2 168 0                 # C:/Users/user/workspace/lib_i2c/src/i2c_master.xc:168:0
	stw r0, sp[3]
	.loc	2 169 0                 # C:/Users/user/workspace/lib_i2c/src/i2c_master.xc:169:0
	ldw r0, r8[8]
.Ltmp90:
	.loc	2 169 0                 # C:/Users/user/workspace/lib_i2c/src/i2c_master.xc:169:0
	ldw r1, r8[9]
	.loc	2 169 0                 # C:/Users/user/workspace/lib_i2c/src/i2c_master.xc:169:0
	shl r2, r7, 1
	.loc	2 169 0                 # C:/Users/user/workspace/lib_i2c/src/i2c_master.xc:169:0
	ldw r3, r8[11]
	ldaw r10, sp[3]
.Ltmp91:
	#DEBUG_VALUE: fall_time <- [R10+0]
	.loc	2 169 0                 # C:/Users/user/workspace/lib_i2c/src/i2c_master.xc:169:0
	stw r10, sp[1]
.Lxta.call_labels6:
	bl tx8
	mov r7, r0
.Ltmp92:
	#DEBUG_VALUE: j <- 0
	#DEBUG_VALUE: ack <- R7
	bf r5, .LBB3_6
.Ltmp93:
.LBB3_4:                                # %LoopBody92
                                        # =>This Inner Loop Header: Depth=1
.Lxtalabel9:
	#DEBUG_VALUE: _i.i2c_master_if.i2c_master._c0.write:device <- undef
	#DEBUG_VALUE: _i.i2c_master_if.i2c_master._c0.write:buf <- R6
	#DEBUG_VALUE: _i.i2c_master_if.i2c_master._c0.write:n <- R5
	#DEBUG_VALUE: _i.i2c_master_if.i2c_master._c0.write:send_stop_bit <- undef
	bt r7, .LBB3_6
.Ltmp94:
# BB#5:                                 # %afterboundcheck
                                        #   in Loop: Header=BB3_4 Depth=1
.Lxtalabel10:
	#DEBUG_VALUE: _i.i2c_master_if.i2c_master._c0.write:device <- undef
	#DEBUG_VALUE: _i.i2c_master_if.i2c_master._c0.write:buf <- R6
	#DEBUG_VALUE: _i.i2c_master_if.i2c_master._c0.write:n <- R5
	#DEBUG_VALUE: _i.i2c_master_if.i2c_master._c0.write:send_stop_bit <- undef
	.loc	2 175 0                 # C:/Users/user/workspace/lib_i2c/src/i2c_master.xc:175:0
	ldw r1, r8[9]
	.loc	2 175 0                 # C:/Users/user/workspace/lib_i2c/src/i2c_master.xc:175:0
	ldw r0, r8[8]
	.loc	2 175 0                 # C:/Users/user/workspace/lib_i2c/src/i2c_master.xc:175:0
	ld8u r2, r6[r9]
	.loc	2 175 0                 # C:/Users/user/workspace/lib_i2c/src/i2c_master.xc:175:0
	ldw r3, r8[11]
.Ltmp95:
	#DEBUG_VALUE: fall_time <- [R10+0]
	.loc	2 175 0                 # C:/Users/user/workspace/lib_i2c/src/i2c_master.xc:175:0
	stw r10, sp[1]
.Lxta.call_labels7:
	bl tx8
	mov r7, r0
.Ltmp96:
	#DEBUG_VALUE: ack <- R7
	.loc	2 171 0                 # C:/Users/user/workspace/lib_i2c/src/i2c_master.xc:171:0
	add r9, r9, 1
.Ltmp97:
	#DEBUG_VALUE: j <- R9
	.loc	2 171 0                 # C:/Users/user/workspace/lib_i2c/src/i2c_master.xc:171:0
	lsu r0, r9, r5
.Lxta.loop_labels2:
	# LOOPMARKER 0
	bt r0, .LBB3_4
.Ltmp98:
.LBB3_6:                                # %ifdone87
.Lxtalabel11:
	#DEBUG_VALUE: _i.i2c_master_if.i2c_master._c0.write:device <- undef
	#DEBUG_VALUE: _i.i2c_master_if.i2c_master._c0.write:send_stop_bit <- undef
	#DEBUG_VALUE: j <- 0
	ldw r5, sp[13]
	#DEBUG_VALUE: _i.i2c_master_if.i2c_master._c0.write:num_bytes_sent <- R5
	ldw r0, sp[14]
	bf r0, .LBB3_14
.Ltmp99:
# BB#7:                                 # %iftrue114
.Lxtalabel12:
	#DEBUG_VALUE: _i.i2c_master_if.i2c_master._c0.write:device <- undef
	#DEBUG_VALUE: j <- 0
	#DEBUG_VALUE: _i.i2c_master_if.i2c_master._c0.write:num_bytes_sent <- R5
	.loc	2 178 0                 # C:/Users/user/workspace/lib_i2c/src/i2c_master.xc:178:0
	ldw r0, r8[8]
	.loc	2 178 0                 # C:/Users/user/workspace/lib_i2c/src/i2c_master.xc:178:0
	ldw r1, r8[9]
	.loc	2 178 0                 # C:/Users/user/workspace/lib_i2c/src/i2c_master.xc:178:0
	ldw r2, r8[11]
	.loc	2 178 0                 # C:/Users/user/workspace/lib_i2c/src/i2c_master.xc:178:0
	ldw r3, sp[3]
	.loc	2 178 0                 # C:/Users/user/workspace/lib_i2c/src/i2c_master.xc:178:0
.Lxta.call_labels8:
	bl stop_bit
	mkmsk r4, 32
	bu .LBB3_8
.Ltmp100:
.LBB3_14:                               # %iffalse117
.Lxtalabel13:
	#DEBUG_VALUE: _i.i2c_master_if.i2c_master._c0.write:device <- undef
	#DEBUG_VALUE: j <- 0
	#DEBUG_VALUE: _i.i2c_master_if.i2c_master._c0.write:num_bytes_sent <- R5
	.loc	2 183 0                 # C:/Users/user/workspace/lib_i2c/src/i2c_master.xc:183:0
	get r11, id
	.loc	2 183 0                 # C:/Users/user/workspace/lib_i2c/src/i2c_master.xc:183:0
	ldaw r0, dp[__timers]
	.loc	2 183 0                 # C:/Users/user/workspace/lib_i2c/src/i2c_master.xc:183:0
	ldw r0, r0[r11]
	.loc	2 183 0                 # C:/Users/user/workspace/lib_i2c/src/i2c_master.xc:183:0
	ldw r1, sp[3]
	.loc	2 183 0                 # C:/Users/user/workspace/lib_i2c/src/i2c_master.xc:183:0
	ldw r2, r8[11]
	.loc	2 183 0                 # C:/Users/user/workspace/lib_i2c/src/i2c_master.xc:183:0
	shr r2, r2, 1
	.loc	2 183 0                 # C:/Users/user/workspace/lib_i2c/src/i2c_master.xc:183:0
	add r1, r2, r1
	.loc	2 183 0                 # C:/Users/user/workspace/lib_i2c/src/i2c_master.xc:183:0
	setd res[r0], r1
	.loc	2 183 0                 # C:/Users/user/workspace/lib_i2c/src/i2c_master.xc:183:0
	setc res[r0], 9
	.loc	2 183 0                 # C:/Users/user/workspace/lib_i2c/src/i2c_master.xc:183:0
.Ltmp101:
.Lxta.endpoint_labels8:
	in r0, res[r0]
.Ltmp102:
.LBB3_8:                                # %ifdone115
.Lxtalabel14:
	#DEBUG_VALUE: _i.i2c_master_if.i2c_master._c0.write:device <- undef
	#DEBUG_VALUE: j <- 0
	#DEBUG_VALUE: _i.i2c_master_if.i2c_master._c0.write:num_bytes_sent <- R5
	ldc r0, 48
	.loc	2 184 0                 # C:/Users/user/workspace/lib_i2c/src/i2c_master.xc:184:0
	add r0, r8, r0
	stw r4, r0[0]
.Ltmp103:
	.loc	2 186 0                 # C:/Users/user/workspace/lib_i2c/src/i2c_master.xc:186:0
	stw r9, r5[0]
	.loc	2 187 0                 # C:/Users/user/workspace/lib_i2c/src/i2c_master.xc:187:0
	eq r0, r7, 0
	mkmsk r1, 1
	stw r1, r8[0]
	ldw r10, sp[10]                 # 4-byte Folded Reload
	ldd r9, r8, sp[4]               # 4-byte Folded Reload
	ldd r7, r6, sp[3]               # 4-byte Folded Reload
	ldd r5, r4, sp[2]               # 4-byte Folded Reload
.Ltmp104:
	retsp 12
	# RETURN_REG_HOLDER
.Ltmp105:
	.cc_bottom _i.i2c_master_if.i2c_master._c0.write.function
	.set	_i.i2c_master_if.i2c_master._c0.write.nstackwords,((start_bit.nstackwords $M stop_bit.nstackwords $M tx8.nstackwords $M _i.i2c_master_if._client_call_y.max.nstackwords $M ($D __interface_yield_once.nstackwords ? __interface_yield_once.nstackwords $: _i.i2c_master_if._client_call_y.max.nstackwords)) + 12)
	.globl	_i.i2c_master_if.i2c_master._c0.write.nstackwords
	.set	_i.i2c_master_if.i2c_master._c0.write.maxcores,($D __interface_yield_once.maxcores ? __interface_yield_once.maxcores $: _i.i2c_master_if._client_call_y.max.maxcores) $M start_bit.maxcores $M stop_bit.maxcores $M tx8.maxcores $M 1
	.globl	_i.i2c_master_if.i2c_master._c0.write.maxcores
	.set	_i.i2c_master_if.i2c_master._c0.write.maxtimers,($D __interface_yield_once.maxtimers ? __interface_yield_once.maxtimers $: _i.i2c_master_if._client_call_y.max.maxtimers) $M start_bit.maxtimers $M stop_bit.maxtimers $M tx8.maxtimers $M 0
	.globl	_i.i2c_master_if.i2c_master._c0.write.maxtimers
	.set	_i.i2c_master_if.i2c_master._c0.write.maxchanends,($D __interface_yield_once.maxchanends ? __interface_yield_once.maxchanends $: _i.i2c_master_if._client_call_y.max.maxchanends) $M start_bit.maxchanends $M stop_bit.maxchanends $M tx8.maxchanends $M 0
	.globl	_i.i2c_master_if.i2c_master._c0.write.maxchanends
.Ltmp106:
	.size	_i.i2c_master_if.i2c_master._c0.write, .Ltmp106-_i.i2c_master_if.i2c_master._c0.write
.Lfunc_end3:
	.cfi_endproc

	.globl	_i.i2c_master_if.i2c_master.0.shutdown
	.align	4
	.type	_i.i2c_master_if.i2c_master.0.shutdown,@function
	.cc_top _i.i2c_master_if.i2c_master.0.shutdown.function,_i.i2c_master_if.i2c_master.0.shutdown
_i.i2c_master_if.i2c_master.0.shutdown: # @_i.i2c_master_if.i2c_master.0.shutdown
	.cfi_startproc
	.issue_mode single
# BB#0:                                 # %allocas
	ENTSP_lu6 4
.Ltmp107:
	.cfi_def_cfa_offset 16
.Ltmp108:
	.cfi_offset 15, 0
	std r5, r4, sp[1]               # 4-byte Folded Spill
.Ltmp109:
	.cfi_offset 4, -8
.Ltmp110:
	.cfi_offset 5, -4
	#DEBUG_VALUE: _i.i2c_master_if.i2c_master.0.shutdown:p <- R0
	ldw r5, r0[0]
.LBB4_1:                                # %LoopTest
                                        # =>This Inner Loop Header: Depth=1
	ldw r0, r5[0]
	bf r0, .LBB4_1
# BB#2:                                 # %ifdone
	add r4, r5, 8
	mov r0, r4
	bl __lock_fair_acquire
	ldc r0, 0
	stw r0, r5[0]
	mov r0, r4
	bl __lock_fair_release
	ldw r0, r5[4]
	add r0, r0, 1
	stw r0, r5[4]
	ldd r5, r4, sp[1]               # 4-byte Folded Reload
	retsp 4
	# RETURN_REG_HOLDER
	.cc_bottom _i.i2c_master_if.i2c_master.0.shutdown.function
	.set	_i.i2c_master_if.i2c_master.0.shutdown.nstackwords,((__lock_fair_acquire.nstackwords $M __lock_fair_release.nstackwords) + 4)
	.globl	_i.i2c_master_if.i2c_master.0.shutdown.nstackwords
	.set	_i.i2c_master_if.i2c_master.0.shutdown.maxcores,__lock_fair_acquire.maxcores $M __lock_fair_release.maxcores $M 1
	.globl	_i.i2c_master_if.i2c_master.0.shutdown.maxcores
	.set	_i.i2c_master_if.i2c_master.0.shutdown.maxtimers,__lock_fair_acquire.maxtimers $M __lock_fair_release.maxtimers $M 0
	.globl	_i.i2c_master_if.i2c_master.0.shutdown.maxtimers
	.set	_i.i2c_master_if.i2c_master.0.shutdown.maxchanends,__lock_fair_acquire.maxchanends $M __lock_fair_release.maxchanends $M 0
	.globl	_i.i2c_master_if.i2c_master.0.shutdown.maxchanends
.Ltmp111:
	.size	_i.i2c_master_if.i2c_master.0.shutdown, .Ltmp111-_i.i2c_master_if.i2c_master.0.shutdown
	.cfi_endproc

	.globl	_i.i2c_master_if.i2c_master.0.send_stop_bit
	.align	4
	.type	_i.i2c_master_if.i2c_master.0.send_stop_bit,@function
	.cc_top _i.i2c_master_if.i2c_master.0.send_stop_bit.function,_i.i2c_master_if.i2c_master.0.send_stop_bit
_i.i2c_master_if.i2c_master.0.send_stop_bit: # @_i.i2c_master_if.i2c_master.0.send_stop_bit
.Lfunc_begin5:
	.loc	2 190 0                 # C:/Users/user/workspace/lib_i2c/src/i2c_master.xc:190:0
	.cfi_startproc
	.issue_mode single
# BB#0:                                 # %allocas
	ENTSP_lu6 4
.Ltmp112:
	.cfi_def_cfa_offset 16
.Ltmp113:
	.cfi_offset 15, 0
	std r5, r4, sp[1]               # 4-byte Folded Spill
.Ltmp114:
	.cfi_offset 4, -8
.Ltmp115:
	.cfi_offset 5, -4
	#DEBUG_VALUE: _i.i2c_master_if.i2c_master.0.send_stop_bit:p <- R0
	ldw r5, r0[0]
.Ltmp116:
.LBB5_1:                                # %LoopTest
                                        # =>This Inner Loop Header: Depth=1
	ldw r0, r5[0]
	bf r0, .LBB5_1
# BB#2:                                 # %ifdone
	add r4, r5, 8
	mov r0, r4
	bl __lock_fair_acquire
	.loc	2 193 0 prologue_end    # C:/Users/user/workspace/lib_i2c/src/i2c_master.xc:193:0
.Ltmp117:
	gettime r3
.Ltmp118:
	#DEBUG_VALUE: fall_time <- R3
	.loc	2 194 0                 # C:/Users/user/workspace/lib_i2c/src/i2c_master.xc:194:0
	ldw r0, r5[8]
	.loc	2 194 0                 # C:/Users/user/workspace/lib_i2c/src/i2c_master.xc:194:0
	ldw r1, r5[9]
	.loc	2 194 0                 # C:/Users/user/workspace/lib_i2c/src/i2c_master.xc:194:0
	ldw r2, r5[11]
	.loc	2 194 0                 # C:/Users/user/workspace/lib_i2c/src/i2c_master.xc:194:0
.Lxta.call_labels9:
	bl stop_bit
.Ltmp119:
	ldc r0, 48
	.loc	2 195 0                 # C:/Users/user/workspace/lib_i2c/src/i2c_master.xc:195:0
	add r0, r5, r0
	mkmsk r1, 32
	.loc	2 195 0                 # C:/Users/user/workspace/lib_i2c/src/i2c_master.xc:195:0
	stw r1, r0[0]
	clre
	mov r0, r4
	bl __lock_fair_release
	ldw r0, r5[4]
	add r0, r0, 1
	stw r0, r5[4]
	ldd r5, r4, sp[1]               # 4-byte Folded Reload
	retsp 4
	# RETURN_REG_HOLDER
.Ltmp120:
	.cc_bottom _i.i2c_master_if.i2c_master.0.send_stop_bit.function
	.set	_i.i2c_master_if.i2c_master.0.send_stop_bit.nstackwords,((__lock_fair_acquire.nstackwords $M stop_bit.nstackwords $M __lock_fair_release.nstackwords) + 4)
	.globl	_i.i2c_master_if.i2c_master.0.send_stop_bit.nstackwords
	.set	_i.i2c_master_if.i2c_master.0.send_stop_bit.maxcores,__lock_fair_acquire.maxcores $M __lock_fair_release.maxcores $M stop_bit.maxcores $M 1
	.globl	_i.i2c_master_if.i2c_master.0.send_stop_bit.maxcores
	.set	_i.i2c_master_if.i2c_master.0.send_stop_bit.maxtimers,__lock_fair_acquire.maxtimers $M __lock_fair_release.maxtimers $M stop_bit.maxtimers $M 0
	.globl	_i.i2c_master_if.i2c_master.0.send_stop_bit.maxtimers
	.set	_i.i2c_master_if.i2c_master.0.send_stop_bit.maxchanends,__lock_fair_acquire.maxchanends $M __lock_fair_release.maxchanends $M stop_bit.maxchanends $M 0
	.globl	_i.i2c_master_if.i2c_master.0.send_stop_bit.maxchanends
.Ltmp121:
	.size	_i.i2c_master_if.i2c_master.0.send_stop_bit, .Ltmp121-_i.i2c_master_if.i2c_master.0.send_stop_bit
.Lfunc_end5:
	.cfi_endproc

	.section	.cp.rodata.cst4,"aMc",@progbits,4
	.cc_top .LCPI6_0.data,.LCPI6_0
	.align	4
	.type	.LCPI6_0,@object
	.size	.LCPI6_0, 4
.LCPI6_0:
	.long	4294967288              # 0xfffffff8
	.cc_bottom .LCPI6_0.data
	.text
	.globl	_i.i2c_master_if.i2c_master.0.read
	.align	4
	.type	_i.i2c_master_if.i2c_master.0.read,@function
	.cc_top _i.i2c_master_if.i2c_master.0.read.function,_i.i2c_master_if.i2c_master.0.read
_i.i2c_master_if.i2c_master.0.read:     # @_i.i2c_master_if.i2c_master.0.read
.Lfunc_begin6:
	.loc	2 116 0                 # C:/Users/user/workspace/lib_i2c/src/i2c_master.xc:116:0
	.cfi_startproc
	.issue_mode single
# BB#0:                                 # %allocas
	ENTSP_lu6 18
.Ltmp122:
	.cfi_def_cfa_offset 72
.Ltmp123:
	.cfi_offset 15, 0
	std r5, r4, sp[5]               # 4-byte Folded Spill
.Ltmp124:
	.cfi_offset 4, -32
.Ltmp125:
	.cfi_offset 5, -28
	std r7, r6, sp[6]               # 4-byte Folded Spill
.Ltmp126:
	.cfi_offset 6, -24
.Ltmp127:
	.cfi_offset 7, -20
	std r9, r8, sp[7]               # 4-byte Folded Spill
.Ltmp128:
	.cfi_offset 8, -16
.Ltmp129:
	.cfi_offset 9, -12
	stw r10, sp[16]                 # 4-byte Folded Spill
.Ltmp130:
	.cfi_offset 10, -8
	#DEBUG_VALUE: _i.i2c_master_if.i2c_master.0.read:p <- R0
	#DEBUG_VALUE: _i.i2c_master_if.i2c_master.0.read:device <- R1
	#DEBUG_VALUE: _i.i2c_master_if.i2c_master.0.read:buf <- R2
	#DEBUG_VALUE: _i.i2c_master_if.i2c_master.0.read:m <- R3
	stw r3, sp[8]                   # 4-byte Folded Spill
.Ltmp131:
	#DEBUG_VALUE: _i.i2c_master_if.i2c_master.0.read:m <- [SP+32]
	stw r2, sp[7]                   # 4-byte Folded Spill
.Ltmp132:
	#DEBUG_VALUE: _i.i2c_master_if.i2c_master.0.read:buf <- [SP+28]
	stw r1, sp[6]                   # 4-byte Folded Spill
.Ltmp133:
	#DEBUG_VALUE: _i.i2c_master_if.i2c_master.0.read:device <- undef
	#DEBUG_VALUE: _i.i2c_master_if.i2c_master.0.read:device <- [SP+24]
	ldw r10, r0[0]
	ldw r7, r0[1]
.Ltmp134:
.LBB6_1:                                # %allocas
                                        # =>This Inner Loop Header: Depth=1
	ldw r0, r10[0]
	bf r0, .LBB6_1
# BB#2:                                 # %ifdone
.Ltmp135:
	#DEBUG_VALUE: _i.i2c_master_if.i2c_master.0.read:device <- undef
	#DEBUG_VALUE: _i.i2c_master_if.i2c_master.0.read:buf <- [SP+28]
	#DEBUG_VALUE: _i.i2c_master_if.i2c_master.0.read:m <- [SP+32]
	add r6, r10, 8
	mov r0, r6
	bl __lock_fair_acquire
	ldw r0, r10[7]
	eq r0, r0, 1
	bt r0, .LBB6_3
.Ltmp136:
# BB#14:                                # %lhsfalse
	#DEBUG_VALUE: _i.i2c_master_if.i2c_master.0.read:device <- undef
	#DEBUG_VALUE: _i.i2c_master_if.i2c_master.0.read:buf <- [SP+28]
	#DEBUG_VALUE: _i.i2c_master_if.i2c_master.0.read:m <- [SP+32]
	ldc r0, 48
	add r4, r10, r0
	ldw r0, r4[0]
	mkmsk r5, 32
	eq r1, r0, r5
	bt r1, .LBB6_3
.Ltmp137:
# BB#15:                                # %lhsfalse
	#DEBUG_VALUE: _i.i2c_master_if.i2c_master.0.read:device <- undef
	#DEBUG_VALUE: _i.i2c_master_if.i2c_master.0.read:buf <- [SP+28]
	#DEBUG_VALUE: _i.i2c_master_if.i2c_master.0.read:m <- [SP+32]
	eq r0, r7, r0
	bt r0, .LBB6_3
.Ltmp138:
# BB#16:                                # %lhsfalse53.thread
	#DEBUG_VALUE: _i.i2c_master_if.i2c_master.0.read:device <- undef
	#DEBUG_VALUE: _i.i2c_master_if.i2c_master.0.read:buf <- [SP+28]
	#DEBUG_VALUE: _i.i2c_master_if.i2c_master.0.read:m <- [SP+32]
	ldaw r8, r10[4]
.Ltmp139:
.LBB6_17:                               # %LoopBody77
                                        # =>This Inner Loop Header: Depth=1
	#DEBUG_VALUE: _i.i2c_master_if.i2c_master.0.read:device <- undef
	#DEBUG_VALUE: _i.i2c_master_if.i2c_master.0.read:buf <- [SP+28]
	#DEBUG_VALUE: _i.i2c_master_if.i2c_master.0.read:m <- [SP+32]
	ldw r9, r10[4]
	mov r0, r6
	bl __lock_fair_release
	mov r0, r8
	mov r1, r9
	bl __wait_until_gt
	mov r0, r6
	bl __lock_fair_acquire
	ldw r0, r10[7]
	eq r0, r0, 1
	bt r0, .LBB6_3
.Ltmp140:
# BB#18:                                # %lhsfalse94
                                        #   in Loop: Header=BB6_17 Depth=1
	#DEBUG_VALUE: _i.i2c_master_if.i2c_master.0.read:device <- undef
	#DEBUG_VALUE: _i.i2c_master_if.i2c_master.0.read:buf <- [SP+28]
	#DEBUG_VALUE: _i.i2c_master_if.i2c_master.0.read:m <- [SP+32]
	ldw r0, r4[0]
	eq r1, r0, r5
	bt r1, .LBB6_3
.Ltmp141:
# BB#19:                                # %lhsfalse94
                                        #   in Loop: Header=BB6_17 Depth=1
	#DEBUG_VALUE: _i.i2c_master_if.i2c_master.0.read:device <- undef
	#DEBUG_VALUE: _i.i2c_master_if.i2c_master.0.read:buf <- [SP+28]
	#DEBUG_VALUE: _i.i2c_master_if.i2c_master.0.read:m <- [SP+32]
	eq r0, r7, r0
	bf r0, .LBB6_17
.Ltmp142:
.LBB6_3:                                # %ifdone21
	#DEBUG_VALUE: _i.i2c_master_if.i2c_master.0.read:device <- undef
	#DEBUG_VALUE: _i.i2c_master_if.i2c_master.0.read:buf <- [SP+28]
	#DEBUG_VALUE: _i.i2c_master_if.i2c_master.0.read:m <- [SP+32]
	stw r7, sp[3]                   # 4-byte Folded Spill
	stw r6, sp[4]                   # 4-byte Folded Spill
	#DEBUG_VALUE: _i.i2c_master_if.i2c_master.0.read:send_stop_bit <- undef
	.loc	2 122 0 prologue_end    # C:/Users/user/workspace/lib_i2c/src/i2c_master.xc:122:0
.Ltmp143:
	ldw r0, r10[8]
	.loc	2 122 0                 # C:/Users/user/workspace/lib_i2c/src/i2c_master.xc:122:0
	ldw r1, r10[9]
	.loc	2 122 0                 # C:/Users/user/workspace/lib_i2c/src/i2c_master.xc:122:0
	ldw r2, r10[11]
	.loc	2 122 0                 # C:/Users/user/workspace/lib_i2c/src/i2c_master.xc:122:0
.Lxta.call_labels10:
	bl start_bit
.Ltmp144:
	#DEBUG_VALUE: fall_time <- R0
	.loc	2 122 0                 # C:/Users/user/workspace/lib_i2c/src/i2c_master.xc:122:0
	stw r0, sp[9]
	.loc	2 123 0                 # C:/Users/user/workspace/lib_i2c/src/i2c_master.xc:123:0
	ldw r0, r10[8]
.Ltmp145:
	.loc	2 123 0                 # C:/Users/user/workspace/lib_i2c/src/i2c_master.xc:123:0
	ldw r1, r10[9]
	.loc	2 123 0                 # C:/Users/user/workspace/lib_i2c/src/i2c_master.xc:123:0
	ldw r2, sp[6]                   # 4-byte Folded Reload
	shl r2, r2, 1
	mkmsk r3, 1
	.loc	2 123 0                 # C:/Users/user/workspace/lib_i2c/src/i2c_master.xc:123:0
	or r2, r2, r3
	.loc	2 123 0                 # C:/Users/user/workspace/lib_i2c/src/i2c_master.xc:123:0
	ldw r3, r10[11]
	ldaw r11, sp[9]
.Ltmp146:
	#DEBUG_VALUE: fall_time <- [R11+0]
	.loc	2 123 0                 # C:/Users/user/workspace/lib_i2c/src/i2c_master.xc:123:0
	stw r11, sp[1]
.Lxta.call_labels11:
	bl tx8
.Ltmp147:
	#DEBUG_VALUE: ack <- R0
	.loc	2 125 7                 # C:/Users/user/workspace/lib_i2c/src/i2c_master.xc:125:7
	eq r0, r0, 0
.Ltmp148:
	#DEBUG_VALUE: j <- 0
	.loc	2 125 7                 # C:/Users/user/workspace/lib_i2c/src/i2c_master.xc:125:7
	stw r0, sp[5]                   # 4-byte Folded Spill
	ldw r0, sp[8]                   # 4-byte Folded Reload
	bf r0, .LBB6_11
.Ltmp149:
# BB#4:                                 # %ifdone21
	#DEBUG_VALUE: _i.i2c_master_if.i2c_master.0.read:device <- undef
	#DEBUG_VALUE: _i.i2c_master_if.i2c_master.0.read:buf <- [SP+28]
	#DEBUG_VALUE: _i.i2c_master_if.i2c_master.0.read:m <- [SP+32]
	#DEBUG_VALUE: _i.i2c_master_if.i2c_master.0.read:send_stop_bit <- undef
	.loc	2 125 7                 # C:/Users/user/workspace/lib_i2c/src/i2c_master.xc:125:7
	ldw r0, sp[5]                   # 4-byte Folded Reload
	eq r0, r0, 0
	bt r0, .LBB6_11
.Ltmp150:
# BB#5:                                 # %LoopBody139.preheader
	#DEBUG_VALUE: _i.i2c_master_if.i2c_master.0.read:device <- undef
	#DEBUG_VALUE: _i.i2c_master_if.i2c_master.0.read:buf <- [SP+28]
	#DEBUG_VALUE: _i.i2c_master_if.i2c_master.0.read:m <- [SP+32]
	#DEBUG_VALUE: _i.i2c_master_if.i2c_master.0.read:send_stop_bit <- undef
	.loc	2 135 0                 # C:/Users/user/workspace/lib_i2c/src/i2c_master.xc:135:0
	get r11, id
	.loc	2 135 0                 # C:/Users/user/workspace/lib_i2c/src/i2c_master.xc:135:0
	ldaw r0, dp[__timers]
	.loc	2 135 0                 # C:/Users/user/workspace/lib_i2c/src/i2c_master.xc:135:0
	ldw r7, r0[r11]
	.loc	2 137 11                # C:/Users/user/workspace/lib_i2c/src/i2c_master.xc:137:11
.Ltmp151:
	ldw r0, sp[8]                   # 4-byte Folded Reload
	sub r0, r0, 1
	stw r0, sp[6]                   # 4-byte Folded Spill
	ldc r11, 0
	ldaw r8, sp[9]
	ldc r6, 510
	mov r9, r11
.Ltmp152:
.LBB6_6:                                # %LoopBody139
                                        # =>This Loop Header: Depth=1
                                        #     Child Loop BB6_7 Depth 2
.Lxtalabel15:
	#DEBUG_VALUE: _i.i2c_master_if.i2c_master.0.read:device <- undef
	#DEBUG_VALUE: _i.i2c_master_if.i2c_master.0.read:buf <- [SP+28]
	#DEBUG_VALUE: _i.i2c_master_if.i2c_master.0.read:m <- [SP+32]
	#DEBUG_VALUE: _i.i2c_master_if.i2c_master.0.read:send_stop_bit <- undef
	#DEBUG_VALUE: data <- 0
	#DEBUG_VALUE: i <- 8
	ldw r4, cp[.LCPI6_0]
	mov r5, r11
.Ltmp153:
.LBB6_7:                                # %LoopBody148
                                        #   Parent Loop BB6_6 Depth=1
                                        # =>  This Inner Loop Header: Depth=2
.Lxtalabel16:
	#DEBUG_VALUE: _i.i2c_master_if.i2c_master.0.read:device <- undef
	#DEBUG_VALUE: _i.i2c_master_if.i2c_master.0.read:buf <- [SP+28]
	#DEBUG_VALUE: _i.i2c_master_if.i2c_master.0.read:m <- [SP+32]
	#DEBUG_VALUE: _i.i2c_master_if.i2c_master.0.read:send_stop_bit <- undef
	#DEBUG_VALUE: data <- 0
	#DEBUG_VALUE: i <- 8
	.loc	2 130 0                 # C:/Users/user/workspace/lib_i2c/src/i2c_master.xc:130:0
	ldw r0, r10[8]
	.loc	2 130 0                 # C:/Users/user/workspace/lib_i2c/src/i2c_master.xc:130:0
	ldw r1, r10[9]
	.loc	2 130 0                 # C:/Users/user/workspace/lib_i2c/src/i2c_master.xc:130:0
	ldw r2, r10[11]
.Ltmp154:
	#DEBUG_VALUE: fall_time <- [R8+0]
	.loc	2 130 0                 # C:/Users/user/workspace/lib_i2c/src/i2c_master.xc:130:0
	mov r3, r8
.Lxta.call_labels12:
	bl high_pulse_sample
.Ltmp155:
	#DEBUG_VALUE: temp <- R0
	.loc	2 131 0                 # C:/Users/user/workspace/lib_i2c/src/i2c_master.xc:131:0
	shl r1, r5, 1
	.loc	2 131 0                 # C:/Users/user/workspace/lib_i2c/src/i2c_master.xc:131:0
	and r1, r1, r6
	.loc	2 131 0                 # C:/Users/user/workspace/lib_i2c/src/i2c_master.xc:131:0
	or r5, r0, r1
.Ltmp156:
	.loc	2 129 0                 # C:/Users/user/workspace/lib_i2c/src/i2c_master.xc:129:0
	add r4, r4, 1
.xtaloop 8
	# LOOPMARKER 1
.Lxta.loop_labels3:
	# LOOPMARKER 0
	bt r4, .LBB6_7
.Ltmp157:
# BB#8:                                 # %afterboundcheck
                                        #   in Loop: Header=BB6_6 Depth=1
.Lxtalabel17:
	#DEBUG_VALUE: _i.i2c_master_if.i2c_master.0.read:device <- undef
	#DEBUG_VALUE: _i.i2c_master_if.i2c_master.0.read:buf <- [SP+28]
	#DEBUG_VALUE: _i.i2c_master_if.i2c_master.0.read:m <- [SP+32]
	#DEBUG_VALUE: _i.i2c_master_if.i2c_master.0.read:send_stop_bit <- undef
	#DEBUG_VALUE: fall_time <- [R8+0]
	#DEBUG_VALUE: data <- 0
	.loc	2 133 0                 # C:/Users/user/workspace/lib_i2c/src/i2c_master.xc:133:0
	ldw r0, sp[7]                   # 4-byte Folded Reload
	st8 r5, r0[r9]
	.loc	2 135 0                 # C:/Users/user/workspace/lib_i2c/src/i2c_master.xc:135:0
	ldw r0, sp[9]
	.loc	2 135 0                 # C:/Users/user/workspace/lib_i2c/src/i2c_master.xc:135:0
	ldw r1, r10[11]
	.loc	2 135 0                 # C:/Users/user/workspace/lib_i2c/src/i2c_master.xc:135:0
	shr r2, r1, 2
	.loc	2 135 0                 # C:/Users/user/workspace/lib_i2c/src/i2c_master.xc:135:0
	add r2, r2, r0
	.loc	2 135 0                 # C:/Users/user/workspace/lib_i2c/src/i2c_master.xc:135:0
	setd res[r7], r2
	.loc	2 135 0                 # C:/Users/user/workspace/lib_i2c/src/i2c_master.xc:135:0
	setc res[r7], 9
	.loc	2 135 0                 # C:/Users/user/workspace/lib_i2c/src/i2c_master.xc:135:0
.Ltmp158:
.Lxta.endpoint_labels9:
	in r2, res[r7]
	.loc	2 138 0                 # C:/Users/user/workspace/lib_i2c/src/i2c_master.xc:138:0
	ldw r2, r10[9]
	.loc	2 137 11                # C:/Users/user/workspace/lib_i2c/src/i2c_master.xc:137:11
	ldw r3, sp[6]                   # 4-byte Folded Reload
	eq r3, r9, r3
	bf r3, .LBB6_20
.Ltmp159:
# BB#9:                                 # %iftrue174
                                        #   in Loop: Header=BB6_6 Depth=1
.Lxtalabel18:
	#DEBUG_VALUE: _i.i2c_master_if.i2c_master.0.read:device <- undef
	#DEBUG_VALUE: _i.i2c_master_if.i2c_master.0.read:buf <- [SP+28]
	#DEBUG_VALUE: _i.i2c_master_if.i2c_master.0.read:m <- [SP+32]
	#DEBUG_VALUE: _i.i2c_master_if.i2c_master.0.read:send_stop_bit <- undef
	#DEBUG_VALUE: fall_time <- [R8+0]
	#DEBUG_VALUE: data <- 0
	.loc	2 138 0                 # C:/Users/user/workspace/lib_i2c/src/i2c_master.xc:138:0
	setc res[r2], 1
	.loc	2 138 0                 # C:/Users/user/workspace/lib_i2c/src/i2c_master.xc:138:0
.Ltmp160:
.Lxta.endpoint_labels10:
	in r2, res[r2]
	ldc r11, 0
	bu .LBB6_10
.Ltmp161:
.LBB6_20:                               # %iffalse182
                                        #   in Loop: Header=BB6_6 Depth=1
.Lxtalabel19:
	#DEBUG_VALUE: _i.i2c_master_if.i2c_master.0.read:device <- undef
	#DEBUG_VALUE: _i.i2c_master_if.i2c_master.0.read:buf <- [SP+28]
	#DEBUG_VALUE: _i.i2c_master_if.i2c_master.0.read:m <- [SP+32]
	#DEBUG_VALUE: _i.i2c_master_if.i2c_master.0.read:send_stop_bit <- undef
	#DEBUG_VALUE: fall_time <- [R8+0]
	#DEBUG_VALUE: data <- 0
	ldc r11, 0
	.loc	2 140 23                # C:/Users/user/workspace/lib_i2c/src/i2c_master.xc:140:23
.Lxta.endpoint_labels11:
	out res[r2], r11
.Ltmp162:
.LBB6_10:                               # %ifdone175
                                        #   in Loop: Header=BB6_6 Depth=1
.Lxtalabel20:
	#DEBUG_VALUE: _i.i2c_master_if.i2c_master.0.read:device <- undef
	#DEBUG_VALUE: _i.i2c_master_if.i2c_master.0.read:buf <- [SP+28]
	#DEBUG_VALUE: _i.i2c_master_if.i2c_master.0.read:m <- [SP+32]
	#DEBUG_VALUE: _i.i2c_master_if.i2c_master.0.read:send_stop_bit <- undef
	#DEBUG_VALUE: fall_time <- [R8+0]
	#DEBUG_VALUE: data <- 0
	.loc	2 143 0                 # C:/Users/user/workspace/lib_i2c/src/i2c_master.xc:143:0
	shr r2, r1, 1
	.loc	2 143 0                 # C:/Users/user/workspace/lib_i2c/src/i2c_master.xc:143:0
	add r2, r2, r0
	.loc	2 143 0                 # C:/Users/user/workspace/lib_i2c/src/i2c_master.xc:143:0
	shr r3, r1, 5
	.loc	2 143 0                 # C:/Users/user/workspace/lib_i2c/src/i2c_master.xc:143:0
	add r2, r2, r3
	.loc	2 143 0                 # C:/Users/user/workspace/lib_i2c/src/i2c_master.xc:143:0
	setd res[r7], r2
	.loc	2 143 0                 # C:/Users/user/workspace/lib_i2c/src/i2c_master.xc:143:0
	setc res[r7], 9
	.loc	2 143 0                 # C:/Users/user/workspace/lib_i2c/src/i2c_master.xc:143:0
.Ltmp163:
.Lxta.endpoint_labels12:
	in r2, res[r7]
	.loc	2 144 0                 # C:/Users/user/workspace/lib_i2c/src/i2c_master.xc:144:0
	ldw r2, r10[8]
.Ltmp164:
	#DEBUG_VALUE: release_clock_and_wait:i2c_scl <- R2
	.loc	2 144 0                 # C:/Users/user/workspace/lib_i2c/src/i2c_master.xc:144:0
	add r1, r1, 1
.Ltmp165:
	#DEBUG_VALUE: release_clock_and_wait:delay <- R1
	mkmsk r3, 1
	.loc	2 18 0                  # C:/Users/user/workspace/lib_i2c/src/i2c_master.xc:18:0
.Ltmp166:
	setd res[r2], r3
	.loc	2 18 0                  # C:/Users/user/workspace/lib_i2c/src/i2c_master.xc:18:0
	setc res[r2], 17
	.loc	2 18 0                  # C:/Users/user/workspace/lib_i2c/src/i2c_master.xc:18:0
.Ltmp167:
.Lxta.endpoint_labels13:
	in r2, res[r2]
.Ltmp168:
	.loc	2 19 0                  # C:/Users/user/workspace/lib_i2c/src/i2c_master.xc:19:0
	add r0, r0, r1
	.loc	2 19 0                  # C:/Users/user/workspace/lib_i2c/src/i2c_master.xc:19:0
	setd res[r7], r0
	.loc	2 19 0                  # C:/Users/user/workspace/lib_i2c/src/i2c_master.xc:19:0
	setc res[r7], 9
	.loc	2 19 0                  # C:/Users/user/workspace/lib_i2c/src/i2c_master.xc:19:0
.Lxta.endpoint_labels14:
	in r0, res[r7]
.Ltmp169:
	#DEBUG_VALUE: time <- R0
	.loc	2 21 0                  # C:/Users/user/workspace/lib_i2c/src/i2c_master.xc:21:0
	sub r0, r0, r1
.Ltmp170:
	.loc	2 21 0                  # C:/Users/user/workspace/lib_i2c/src/i2c_master.xc:21:0
	stw r0, sp[9]
.Ltmp171:
	.loc	2 145 21                # C:/Users/user/workspace/lib_i2c/src/i2c_master.xc:145:21
	ldw r1, r10[8]
.Ltmp172:
	.loc	2 145 21                # C:/Users/user/workspace/lib_i2c/src/i2c_master.xc:145:21
.Lxta.endpoint_labels15:
	out res[r1], r11
	.loc	2 146 0                 # C:/Users/user/workspace/lib_i2c/src/i2c_master.xc:146:0
	ldw r1, r10[9]
	.loc	2 146 0                 # C:/Users/user/workspace/lib_i2c/src/i2c_master.xc:146:0
	setc res[r1], 1
	.loc	2 146 0                 # C:/Users/user/workspace/lib_i2c/src/i2c_master.xc:146:0
.Ltmp173:
.Lxta.endpoint_labels16:
	in r1, res[r1]
	.loc	2 147 0                 # C:/Users/user/workspace/lib_i2c/src/i2c_master.xc:147:0
	ldw r1, r10[11]
	.loc	2 147 0                 # C:/Users/user/workspace/lib_i2c/src/i2c_master.xc:147:0
	add r0, r1, r0
.Ltmp174:
	#DEBUG_VALUE: fall_time <- R0
	.loc	2 147 0                 # C:/Users/user/workspace/lib_i2c/src/i2c_master.xc:147:0
	stw r0, sp[9]
.Ltmp175:
	.loc	2 126 0                 # C:/Users/user/workspace/lib_i2c/src/i2c_master.xc:126:0
	add r9, r9, 1
.Ltmp176:
	#DEBUG_VALUE: j <- R9
	.loc	2 126 0                 # C:/Users/user/workspace/lib_i2c/src/i2c_master.xc:126:0
	ldw r0, sp[8]                   # 4-byte Folded Reload
.Ltmp177:
	lsu r0, r9, r0
.Lxta.loop_labels4:
	# LOOPMARKER 2
	bt r0, .LBB6_6
.Ltmp178:
.LBB6_11:                               # %ifdone129
.Lxtalabel21:
	#DEBUG_VALUE: _i.i2c_master_if.i2c_master.0.read:device <- undef
	#DEBUG_VALUE: _i.i2c_master_if.i2c_master.0.read:send_stop_bit <- undef
	ldw r1, sp[3]                   # 4-byte Folded Reload
	ldw r0, sp[19]
	bf r0, .LBB6_13
# BB#12:                                # %iftrue220
.Lxtalabel22:
	#DEBUG_VALUE: _i.i2c_master_if.i2c_master.0.read:device <- undef
	.loc	2 151 0                 # C:/Users/user/workspace/lib_i2c/src/i2c_master.xc:151:0
	ldw r0, r10[8]
	.loc	2 151 0                 # C:/Users/user/workspace/lib_i2c/src/i2c_master.xc:151:0
	ldw r1, r10[9]
	.loc	2 151 0                 # C:/Users/user/workspace/lib_i2c/src/i2c_master.xc:151:0
	ldw r2, r10[11]
	.loc	2 151 0                 # C:/Users/user/workspace/lib_i2c/src/i2c_master.xc:151:0
	ldw r3, sp[9]
	.loc	2 151 0                 # C:/Users/user/workspace/lib_i2c/src/i2c_master.xc:151:0
.Lxta.call_labels13:
	bl stop_bit
	mkmsk r1, 32
.LBB6_13:                               # %ifdone221
.Lxtalabel23:
	#DEBUG_VALUE: _i.i2c_master_if.i2c_master.0.read:device <- undef
	ldc r0, 48
	.loc	2 155 0                 # C:/Users/user/workspace/lib_i2c/src/i2c_master.xc:155:0
	add r0, r10, r0
	stw r1, r0[0]
	clre
	ldw r0, sp[4]                   # 4-byte Folded Reload
	bl __lock_fair_release
	ldw r0, r10[4]
	add r0, r0, 1
	stw r0, r10[4]
	ldw r0, sp[5]                   # 4-byte Folded Reload
	ldw r10, sp[16]                 # 4-byte Folded Reload
	ldd r9, r8, sp[7]               # 4-byte Folded Reload
	ldd r7, r6, sp[6]               # 4-byte Folded Reload
	ldd r5, r4, sp[5]               # 4-byte Folded Reload
	retsp 18
	# RETURN_REG_HOLDER
.Ltmp179:
	.cc_bottom _i.i2c_master_if.i2c_master.0.read.function
	.set	_i.i2c_master_if.i2c_master.0.read.nstackwords,((start_bit.nstackwords $M tx8.nstackwords $M stop_bit.nstackwords $M high_pulse_sample.nstackwords $M __lock_fair_release.nstackwords $M __wait_until_gt.nstackwords $M __lock_fair_acquire.nstackwords) + 18)
	.globl	_i.i2c_master_if.i2c_master.0.read.nstackwords
	.set	_i.i2c_master_if.i2c_master.0.read.maxcores,__lock_fair_acquire.maxcores $M __lock_fair_release.maxcores $M __wait_until_gt.maxcores $M high_pulse_sample.maxcores $M start_bit.maxcores $M stop_bit.maxcores $M tx8.maxcores $M 1
	.globl	_i.i2c_master_if.i2c_master.0.read.maxcores
	.set	_i.i2c_master_if.i2c_master.0.read.maxtimers,__lock_fair_acquire.maxtimers $M __lock_fair_release.maxtimers $M __wait_until_gt.maxtimers $M high_pulse_sample.maxtimers $M start_bit.maxtimers $M stop_bit.maxtimers $M tx8.maxtimers $M 0
	.globl	_i.i2c_master_if.i2c_master.0.read.maxtimers
	.set	_i.i2c_master_if.i2c_master.0.read.maxchanends,__lock_fair_acquire.maxchanends $M __lock_fair_release.maxchanends $M __wait_until_gt.maxchanends $M high_pulse_sample.maxchanends $M start_bit.maxchanends $M stop_bit.maxchanends $M tx8.maxchanends $M 0
	.globl	_i.i2c_master_if.i2c_master.0.read.maxchanends
.Ltmp180:
	.size	_i.i2c_master_if.i2c_master.0.read, .Ltmp180-_i.i2c_master_if.i2c_master.0.read
.Lfunc_end6:
	.cfi_endproc

	.globl	_i.i2c_master_if.i2c_master.0.write
	.align	4
	.type	_i.i2c_master_if.i2c_master.0.write,@function
	.cc_top _i.i2c_master_if.i2c_master.0.write.function,_i.i2c_master_if.i2c_master.0.write
_i.i2c_master_if.i2c_master.0.write:    # @_i.i2c_master_if.i2c_master.0.write
.Lfunc_begin7:
	.loc	2 161 0                 # C:/Users/user/workspace/lib_i2c/src/i2c_master.xc:161:0
	.cfi_startproc
	.issue_mode single
# BB#0:                                 # %allocas
	ENTSP_lu6 14
.Ltmp181:
	.cfi_def_cfa_offset 56
.Ltmp182:
	.cfi_offset 15, 0
	std r5, r4, sp[3]               # 4-byte Folded Spill
.Ltmp183:
	.cfi_offset 4, -32
.Ltmp184:
	.cfi_offset 5, -28
	std r7, r6, sp[4]               # 4-byte Folded Spill
.Ltmp185:
	.cfi_offset 6, -24
.Ltmp186:
	.cfi_offset 7, -20
	std r9, r8, sp[5]               # 4-byte Folded Spill
.Ltmp187:
	.cfi_offset 8, -16
.Ltmp188:
	.cfi_offset 9, -12
	stw r10, sp[12]                 # 4-byte Folded Spill
.Ltmp189:
	.cfi_offset 10, -8
	#DEBUG_VALUE: _i.i2c_master_if.i2c_master.0.write:p <- R0
	#DEBUG_VALUE: _i.i2c_master_if.i2c_master.0.write:device <- R1
	#DEBUG_VALUE: _i.i2c_master_if.i2c_master.0.write:buf <- R2
	#DEBUG_VALUE: _i.i2c_master_if.i2c_master.0.write:n <- R3
	mov r5, r3
.Ltmp190:
	#DEBUG_VALUE: _i.i2c_master_if.i2c_master.0.write:n <- R5
	stw r2, sp[3]                   # 4-byte Folded Spill
.Ltmp191:
	#DEBUG_VALUE: _i.i2c_master_if.i2c_master.0.write:buf <- [SP+12]
	stw r1, sp[4]                   # 4-byte Folded Spill
.Ltmp192:
	#DEBUG_VALUE: _i.i2c_master_if.i2c_master.0.write:device <- undef
	#DEBUG_VALUE: _i.i2c_master_if.i2c_master.0.write:device <- [SP+16]
	ldw r10, r0[0]
	ldw r9, r0[1]
.Ltmp193:
.LBB7_1:                                # %allocas
                                        # =>This Inner Loop Header: Depth=1
	ldw r0, r10[0]
	bf r0, .LBB7_1
# BB#2:                                 # %ifdone
.Ltmp194:
	#DEBUG_VALUE: _i.i2c_master_if.i2c_master.0.write:device <- undef
	#DEBUG_VALUE: _i.i2c_master_if.i2c_master.0.write:buf <- [SP+12]
	#DEBUG_VALUE: _i.i2c_master_if.i2c_master.0.write:n <- R5
	add r0, r10, 8
	mov r6, r0
	bl __lock_fair_acquire
	ldw r0, r10[7]
	eq r0, r0, 1
	bt r0, .LBB7_3
.Ltmp195:
# BB#10:                                # %lhsfalse
	#DEBUG_VALUE: _i.i2c_master_if.i2c_master.0.write:device <- undef
	#DEBUG_VALUE: _i.i2c_master_if.i2c_master.0.write:buf <- [SP+12]
	#DEBUG_VALUE: _i.i2c_master_if.i2c_master.0.write:n <- R5
	ldc r0, 48
	add r7, r10, r0
	ldw r0, r7[0]
	mkmsk r1, 32
	eq r1, r0, r1
	bt r1, .LBB7_3
.Ltmp196:
# BB#11:                                # %lhsfalse
	#DEBUG_VALUE: _i.i2c_master_if.i2c_master.0.write:device <- undef
	#DEBUG_VALUE: _i.i2c_master_if.i2c_master.0.write:buf <- [SP+12]
	#DEBUG_VALUE: _i.i2c_master_if.i2c_master.0.write:n <- R5
	eq r0, r9, r0
	bt r0, .LBB7_3
.Ltmp197:
# BB#12:                                # %lhsfalse53.thread
	#DEBUG_VALUE: _i.i2c_master_if.i2c_master.0.write:device <- undef
	#DEBUG_VALUE: _i.i2c_master_if.i2c_master.0.write:buf <- [SP+12]
	#DEBUG_VALUE: _i.i2c_master_if.i2c_master.0.write:n <- R5
	ldaw r8, r10[4]
.Ltmp198:
.LBB7_13:                               # %LoopBody77
                                        # =>This Inner Loop Header: Depth=1
	#DEBUG_VALUE: _i.i2c_master_if.i2c_master.0.write:device <- undef
	#DEBUG_VALUE: _i.i2c_master_if.i2c_master.0.write:buf <- [SP+12]
	#DEBUG_VALUE: _i.i2c_master_if.i2c_master.0.write:n <- R5
	mov r4, r9
	ldw r9, r10[4]
	mov r0, r6
	bl __lock_fair_release
	mov r0, r8
	mov r1, r9
	mov r9, r4
	bl __wait_until_gt
	mov r0, r6
	bl __lock_fair_acquire
	ldw r0, r10[7]
	eq r0, r0, 1
	bt r0, .LBB7_3
.Ltmp199:
# BB#14:                                # %lhsfalse94
                                        #   in Loop: Header=BB7_13 Depth=1
	#DEBUG_VALUE: _i.i2c_master_if.i2c_master.0.write:device <- undef
	#DEBUG_VALUE: _i.i2c_master_if.i2c_master.0.write:buf <- [SP+12]
	#DEBUG_VALUE: _i.i2c_master_if.i2c_master.0.write:n <- R5
	ldw r0, r7[0]
	mkmsk r1, 32
	eq r1, r0, r1
	bt r1, .LBB7_3
.Ltmp200:
# BB#15:                                # %lhsfalse94
                                        #   in Loop: Header=BB7_13 Depth=1
	#DEBUG_VALUE: _i.i2c_master_if.i2c_master.0.write:device <- undef
	#DEBUG_VALUE: _i.i2c_master_if.i2c_master.0.write:buf <- [SP+12]
	#DEBUG_VALUE: _i.i2c_master_if.i2c_master.0.write:n <- R5
	eq r0, r9, r0
	bf r0, .LBB7_13
.Ltmp201:
.LBB7_3:                                # %ifdone21
	#DEBUG_VALUE: _i.i2c_master_if.i2c_master.0.write:device <- undef
	#DEBUG_VALUE: _i.i2c_master_if.i2c_master.0.write:buf <- [SP+12]
	#DEBUG_VALUE: _i.i2c_master_if.i2c_master.0.write:n <- R5
	stw r9, sp[2]                   # 4-byte Folded Spill
.Ltmp202:
	#DEBUG_VALUE: ack <- 0
	#DEBUG_VALUE: _i.i2c_master_if.i2c_master.0.write:send_stop_bit <- undef
	.loc	2 168 0 prologue_end    # C:/Users/user/workspace/lib_i2c/src/i2c_master.xc:168:0
	ldw r0, r10[8]
	.loc	2 168 0                 # C:/Users/user/workspace/lib_i2c/src/i2c_master.xc:168:0
	ldw r1, r10[9]
	.loc	2 168 0                 # C:/Users/user/workspace/lib_i2c/src/i2c_master.xc:168:0
	ldw r2, r10[11]
	.loc	2 168 0                 # C:/Users/user/workspace/lib_i2c/src/i2c_master.xc:168:0
.Lxta.call_labels14:
	bl start_bit
.Ltmp203:
	#DEBUG_VALUE: fall_time <- R0
	.loc	2 168 0                 # C:/Users/user/workspace/lib_i2c/src/i2c_master.xc:168:0
	stw r0, sp[5]
	.loc	2 169 0                 # C:/Users/user/workspace/lib_i2c/src/i2c_master.xc:169:0
	ldw r0, r10[8]
.Ltmp204:
	.loc	2 169 0                 # C:/Users/user/workspace/lib_i2c/src/i2c_master.xc:169:0
	ldw r1, r10[9]
	.loc	2 169 0                 # C:/Users/user/workspace/lib_i2c/src/i2c_master.xc:169:0
	ldw r2, sp[4]                   # 4-byte Folded Reload
	shl r2, r2, 1
	.loc	2 169 0                 # C:/Users/user/workspace/lib_i2c/src/i2c_master.xc:169:0
	ldw r3, r10[11]
	ldaw r9, sp[5]
.Ltmp205:
	#DEBUG_VALUE: fall_time <- [R9+0]
	.loc	2 169 0                 # C:/Users/user/workspace/lib_i2c/src/i2c_master.xc:169:0
	stw r9, sp[1]
.Lxta.call_labels15:
	bl tx8
	mov r7, r0
.Ltmp206:
	#DEBUG_VALUE: j <- 0
	#DEBUG_VALUE: ack <- R7
	ldc r8, 0
	bf r5, .LBB7_7
.Ltmp207:
# BB#4:
	#DEBUG_VALUE: _i.i2c_master_if.i2c_master.0.write:device <- undef
	#DEBUG_VALUE: _i.i2c_master_if.i2c_master.0.write:buf <- [SP+12]
	#DEBUG_VALUE: _i.i2c_master_if.i2c_master.0.write:n <- R5
	#DEBUG_VALUE: _i.i2c_master_if.i2c_master.0.write:send_stop_bit <- undef
	ldw r4, sp[3]                   # 4-byte Folded Reload
.Ltmp208:
	#DEBUG_VALUE: _i.i2c_master_if.i2c_master.0.write:buf <- R4
.LBB7_5:                                # %LoopBody133
                                        # =>This Inner Loop Header: Depth=1
.Lxtalabel24:
	#DEBUG_VALUE: _i.i2c_master_if.i2c_master.0.write:device <- undef
	#DEBUG_VALUE: _i.i2c_master_if.i2c_master.0.write:buf <- R4
	#DEBUG_VALUE: _i.i2c_master_if.i2c_master.0.write:n <- R5
	#DEBUG_VALUE: _i.i2c_master_if.i2c_master.0.write:send_stop_bit <- undef
	bt r7, .LBB7_7
.Ltmp209:
# BB#6:                                 # %afterboundcheck
                                        #   in Loop: Header=BB7_5 Depth=1
.Lxtalabel25:
	#DEBUG_VALUE: _i.i2c_master_if.i2c_master.0.write:device <- undef
	#DEBUG_VALUE: _i.i2c_master_if.i2c_master.0.write:buf <- R4
	#DEBUG_VALUE: _i.i2c_master_if.i2c_master.0.write:n <- R5
	#DEBUG_VALUE: _i.i2c_master_if.i2c_master.0.write:send_stop_bit <- undef
	.loc	2 175 0                 # C:/Users/user/workspace/lib_i2c/src/i2c_master.xc:175:0
	ldw r1, r10[9]
	.loc	2 175 0                 # C:/Users/user/workspace/lib_i2c/src/i2c_master.xc:175:0
	ldw r0, r10[8]
	.loc	2 175 0                 # C:/Users/user/workspace/lib_i2c/src/i2c_master.xc:175:0
	ld8u r2, r4[r8]
	.loc	2 175 0                 # C:/Users/user/workspace/lib_i2c/src/i2c_master.xc:175:0
	ldw r3, r10[11]
.Ltmp210:
	#DEBUG_VALUE: fall_time <- [R9+0]
	.loc	2 175 0                 # C:/Users/user/workspace/lib_i2c/src/i2c_master.xc:175:0
	stw r9, sp[1]
.Lxta.call_labels16:
	bl tx8
	mov r7, r0
.Ltmp211:
	#DEBUG_VALUE: ack <- R7
	.loc	2 171 0                 # C:/Users/user/workspace/lib_i2c/src/i2c_master.xc:171:0
	add r8, r8, 1
.Ltmp212:
	#DEBUG_VALUE: j <- R8
	.loc	2 171 0                 # C:/Users/user/workspace/lib_i2c/src/i2c_master.xc:171:0
	lsu r0, r8, r5
.Lxta.loop_labels5:
	# LOOPMARKER 0
	bt r0, .LBB7_5
.Ltmp213:
.LBB7_7:                                # %ifdone128
.Lxtalabel26:
	#DEBUG_VALUE: _i.i2c_master_if.i2c_master.0.write:device <- undef
	#DEBUG_VALUE: _i.i2c_master_if.i2c_master.0.write:send_stop_bit <- undef
	#DEBUG_VALUE: j <- 0
	ldw r5, sp[15]
	#DEBUG_VALUE: _i.i2c_master_if.i2c_master.0.write:num_bytes_sent <- R5
	ldw r0, sp[16]
	bf r0, .LBB7_16
.Ltmp214:
# BB#8:                                 # %iftrue155
.Lxtalabel27:
	#DEBUG_VALUE: _i.i2c_master_if.i2c_master.0.write:device <- undef
	#DEBUG_VALUE: j <- 0
	#DEBUG_VALUE: _i.i2c_master_if.i2c_master.0.write:num_bytes_sent <- R5
	.loc	2 178 0                 # C:/Users/user/workspace/lib_i2c/src/i2c_master.xc:178:0
	ldw r0, r10[8]
	.loc	2 178 0                 # C:/Users/user/workspace/lib_i2c/src/i2c_master.xc:178:0
	ldw r1, r10[9]
	.loc	2 178 0                 # C:/Users/user/workspace/lib_i2c/src/i2c_master.xc:178:0
	ldw r2, r10[11]
	.loc	2 178 0                 # C:/Users/user/workspace/lib_i2c/src/i2c_master.xc:178:0
	ldw r3, sp[5]
	.loc	2 178 0                 # C:/Users/user/workspace/lib_i2c/src/i2c_master.xc:178:0
.Lxta.call_labels17:
	bl stop_bit
	mkmsk r1, 32
	bu .LBB7_9
.Ltmp215:
.LBB7_16:                               # %iffalse158
.Lxtalabel28:
	#DEBUG_VALUE: _i.i2c_master_if.i2c_master.0.write:device <- undef
	#DEBUG_VALUE: j <- 0
	#DEBUG_VALUE: _i.i2c_master_if.i2c_master.0.write:num_bytes_sent <- R5
	.loc	2 183 0                 # C:/Users/user/workspace/lib_i2c/src/i2c_master.xc:183:0
	get r11, id
	.loc	2 183 0                 # C:/Users/user/workspace/lib_i2c/src/i2c_master.xc:183:0
	ldaw r0, dp[__timers]
	.loc	2 183 0                 # C:/Users/user/workspace/lib_i2c/src/i2c_master.xc:183:0
	ldw r0, r0[r11]
	.loc	2 183 0                 # C:/Users/user/workspace/lib_i2c/src/i2c_master.xc:183:0
	ldw r1, sp[5]
	.loc	2 183 0                 # C:/Users/user/workspace/lib_i2c/src/i2c_master.xc:183:0
	ldw r2, r10[11]
	.loc	2 183 0                 # C:/Users/user/workspace/lib_i2c/src/i2c_master.xc:183:0
	shr r2, r2, 1
	.loc	2 183 0                 # C:/Users/user/workspace/lib_i2c/src/i2c_master.xc:183:0
	add r1, r2, r1
	.loc	2 183 0                 # C:/Users/user/workspace/lib_i2c/src/i2c_master.xc:183:0
	setd res[r0], r1
	.loc	2 183 0                 # C:/Users/user/workspace/lib_i2c/src/i2c_master.xc:183:0
	setc res[r0], 9
	.loc	2 183 0                 # C:/Users/user/workspace/lib_i2c/src/i2c_master.xc:183:0
.Ltmp216:
.Lxta.endpoint_labels17:
	in r0, res[r0]
	ldw r1, sp[2]                   # 4-byte Folded Reload
.Ltmp217:
.LBB7_9:                                # %ifdone156
.Lxtalabel29:
	#DEBUG_VALUE: _i.i2c_master_if.i2c_master.0.write:device <- undef
	#DEBUG_VALUE: j <- 0
	#DEBUG_VALUE: _i.i2c_master_if.i2c_master.0.write:num_bytes_sent <- R5
	ldc r0, 48
	.loc	2 184 0                 # C:/Users/user/workspace/lib_i2c/src/i2c_master.xc:184:0
	add r0, r10, r0
	stw r1, r0[0]
.Ltmp218:
	.loc	2 186 0                 # C:/Users/user/workspace/lib_i2c/src/i2c_master.xc:186:0
	stw r8, r5[0]
	.loc	2 187 0                 # C:/Users/user/workspace/lib_i2c/src/i2c_master.xc:187:0
	eq r5, r7, 0
.Ltmp219:
	clre
	mov r0, r6
	bl __lock_fair_release
	ldw r0, r10[4]
	add r0, r0, 1
	stw r0, r10[4]
	mov r0, r5
	ldw r10, sp[12]                 # 4-byte Folded Reload
	ldd r9, r8, sp[5]               # 4-byte Folded Reload
	ldd r7, r6, sp[4]               # 4-byte Folded Reload
	ldd r5, r4, sp[3]               # 4-byte Folded Reload
	retsp 14
	# RETURN_REG_HOLDER
.Ltmp220:
	.cc_bottom _i.i2c_master_if.i2c_master.0.write.function
	.set	_i.i2c_master_if.i2c_master.0.write.nstackwords,((start_bit.nstackwords $M stop_bit.nstackwords $M tx8.nstackwords $M __lock_fair_release.nstackwords $M __wait_until_gt.nstackwords $M __lock_fair_acquire.nstackwords) + 14)
	.globl	_i.i2c_master_if.i2c_master.0.write.nstackwords
	.set	_i.i2c_master_if.i2c_master.0.write.maxcores,__lock_fair_acquire.maxcores $M __lock_fair_release.maxcores $M __wait_until_gt.maxcores $M start_bit.maxcores $M stop_bit.maxcores $M tx8.maxcores $M 1
	.globl	_i.i2c_master_if.i2c_master.0.write.maxcores
	.set	_i.i2c_master_if.i2c_master.0.write.maxtimers,__lock_fair_acquire.maxtimers $M __lock_fair_release.maxtimers $M __wait_until_gt.maxtimers $M start_bit.maxtimers $M stop_bit.maxtimers $M tx8.maxtimers $M 0
	.globl	_i.i2c_master_if.i2c_master.0.write.maxtimers
	.set	_i.i2c_master_if.i2c_master.0.write.maxchanends,__lock_fair_acquire.maxchanends $M __lock_fair_release.maxchanends $M __wait_until_gt.maxchanends $M start_bit.maxchanends $M stop_bit.maxchanends $M tx8.maxchanends $M 0
	.globl	_i.i2c_master_if.i2c_master.0.write.maxchanends
.Ltmp221:
	.size	_i.i2c_master_if.i2c_master.0.write, .Ltmp221-_i.i2c_master_if.i2c_master.0.write
.Lfunc_end7:
	.cfi_endproc

	.globl	_i.i2c_master_if._Si2c_master_0._c0.shutdown
	.align	4
	.type	_i.i2c_master_if._Si2c_master_0._c0.shutdown,@function
	.cc_top _i.i2c_master_if._Si2c_master_0._c0.shutdown.function,_i.i2c_master_if._Si2c_master_0._c0.shutdown
_i.i2c_master_if._Si2c_master_0._c0.shutdown: # @_i.i2c_master_if._Si2c_master_0._c0.shutdown
	.cfi_startproc
	.issue_mode single
# BB#0:                                 # %allocas
	ENTSP_lu6 0
	#DEBUG_VALUE: _i.i2c_master_if._Si2c_master_0._c0.shutdown:p <- R0
	ldw r0, r0[0]
.LBB8_1:                                # %LoopTest
                                        # =>This Inner Loop Header: Depth=1
	ldw r1, r0[0]
	bf r1, .LBB8_1
# BB#2:                                 # %ifdone
	ldc r1, 0
	stw r1, r0[0]
	retsp 0
	# RETURN_REG_HOLDER
	.cc_bottom _i.i2c_master_if._Si2c_master_0._c0.shutdown.function
	.set	_i.i2c_master_if._Si2c_master_0._c0.shutdown.nstackwords,0
	.globl	_i.i2c_master_if._Si2c_master_0._c0.shutdown.nstackwords
	.set	_i.i2c_master_if._Si2c_master_0._c0.shutdown.maxcores,1
	.globl	_i.i2c_master_if._Si2c_master_0._c0.shutdown.maxcores
	.set	_i.i2c_master_if._Si2c_master_0._c0.shutdown.maxtimers,0
	.globl	_i.i2c_master_if._Si2c_master_0._c0.shutdown.maxtimers
	.set	_i.i2c_master_if._Si2c_master_0._c0.shutdown.maxchanends,0
	.globl	_i.i2c_master_if._Si2c_master_0._c0.shutdown.maxchanends
.Ltmp222:
	.size	_i.i2c_master_if._Si2c_master_0._c0.shutdown, .Ltmp222-_i.i2c_master_if._Si2c_master_0._c0.shutdown
	.cfi_endproc

	.globl	_i.i2c_master_if._Si2c_master_0._c0.send_stop_bit
	.align	4
	.type	_i.i2c_master_if._Si2c_master_0._c0.send_stop_bit,@function
	.cc_top _i.i2c_master_if._Si2c_master_0._c0.send_stop_bit.function,_i.i2c_master_if._Si2c_master_0._c0.send_stop_bit
_i.i2c_master_if._Si2c_master_0._c0.send_stop_bit: # @_i.i2c_master_if._Si2c_master_0._c0.send_stop_bit
.Lfunc_begin9:
	.loc	2 190 0                 # C:/Users/user/workspace/lib_i2c/src/i2c_master.xc:190:0
	.cfi_startproc
	.issue_mode single
# BB#0:                                 # %allocas
	ENTSP_lu6 4
.Ltmp223:
	.cfi_def_cfa_offset 16
.Ltmp224:
	.cfi_offset 15, 0
	stw r4, sp[2]                   # 4-byte Folded Spill
.Ltmp225:
	.cfi_offset 4, -8
	#DEBUG_VALUE: _i.i2c_master_if._Si2c_master_0._c0.send_stop_bit:p <- R0
	ldw r4, r0[0]
.Ltmp226:
.LBB9_1:                                # %LoopTest
                                        # =>This Inner Loop Header: Depth=1
	ldw r0, r4[0]
	bf r0, .LBB9_1
# BB#2:                                 # %ifdone
	ldc r0, 0
	stw r0, r4[0]
	.loc	2 193 0 prologue_end    # C:/Users/user/workspace/lib_i2c/src/i2c_master.xc:193:0
.Ltmp227:
	gettime r3
.Ltmp228:
	#DEBUG_VALUE: fall_time <- R3
	.loc	2 194 0                 # C:/Users/user/workspace/lib_i2c/src/i2c_master.xc:194:0
	ldw r0, r4[6]
	.loc	2 194 0                 # C:/Users/user/workspace/lib_i2c/src/i2c_master.xc:194:0
	ldw r1, r4[7]
	.loc	2 194 0                 # C:/Users/user/workspace/lib_i2c/src/i2c_master.xc:194:0
	ldw r2, r4[9]
	.loc	2 194 0                 # C:/Users/user/workspace/lib_i2c/src/i2c_master.xc:194:0
.Lxta.call_labels18:
	bl stop_bit
.Ltmp229:
	mkmsk r0, 32
	.loc	2 195 0                 # C:/Users/user/workspace/lib_i2c/src/i2c_master.xc:195:0
	stw r0, r4[10]
	mkmsk r0, 1
	stw r0, r4[0]
	ldw r4, sp[2]                   # 4-byte Folded Reload
	retsp 4
	# RETURN_REG_HOLDER
.Ltmp230:
	.cc_bottom _i.i2c_master_if._Si2c_master_0._c0.send_stop_bit.function
	.set	_i.i2c_master_if._Si2c_master_0._c0.send_stop_bit.nstackwords,(stop_bit.nstackwords + 4)
	.globl	_i.i2c_master_if._Si2c_master_0._c0.send_stop_bit.nstackwords
	.set	_i.i2c_master_if._Si2c_master_0._c0.send_stop_bit.maxcores,stop_bit.maxcores $M 1
	.globl	_i.i2c_master_if._Si2c_master_0._c0.send_stop_bit.maxcores
	.set	_i.i2c_master_if._Si2c_master_0._c0.send_stop_bit.maxtimers,stop_bit.maxtimers $M 0
	.globl	_i.i2c_master_if._Si2c_master_0._c0.send_stop_bit.maxtimers
	.set	_i.i2c_master_if._Si2c_master_0._c0.send_stop_bit.maxchanends,stop_bit.maxchanends $M 0
	.globl	_i.i2c_master_if._Si2c_master_0._c0.send_stop_bit.maxchanends
.Ltmp231:
	.size	_i.i2c_master_if._Si2c_master_0._c0.send_stop_bit, .Ltmp231-_i.i2c_master_if._Si2c_master_0._c0.send_stop_bit
.Lfunc_end9:
	.cfi_endproc

	.section	.cp.rodata.cst4,"aMc",@progbits,4
	.cc_top .LCPI10_0.data,.LCPI10_0
	.align	4
	.type	.LCPI10_0,@object
	.size	.LCPI10_0, 4
.LCPI10_0:
	.long	4294967288              # 0xfffffff8
	.cc_bottom .LCPI10_0.data
	.text
	.globl	_i.i2c_master_if._Si2c_master_0._c0.read
	.align	4
	.type	_i.i2c_master_if._Si2c_master_0._c0.read,@function
	.cc_top _i.i2c_master_if._Si2c_master_0._c0.read.function,_i.i2c_master_if._Si2c_master_0._c0.read
_i.i2c_master_if._Si2c_master_0._c0.read: # @_i.i2c_master_if._Si2c_master_0._c0.read
.Lfunc_begin10:
	.loc	2 116 0                 # C:/Users/user/workspace/lib_i2c/src/i2c_master.xc:116:0
	.cfi_startproc
	.issue_mode single
# BB#0:                                 # %allocas
	ENTSP_lu6 16
.Ltmp232:
	.cfi_def_cfa_offset 64
.Ltmp233:
	.cfi_offset 15, 0
	std r5, r4, sp[4]               # 4-byte Folded Spill
.Ltmp234:
	.cfi_offset 4, -32
.Ltmp235:
	.cfi_offset 5, -28
	std r7, r6, sp[5]               # 4-byte Folded Spill
.Ltmp236:
	.cfi_offset 6, -24
.Ltmp237:
	.cfi_offset 7, -20
	std r9, r8, sp[6]               # 4-byte Folded Spill
.Ltmp238:
	.cfi_offset 8, -16
.Ltmp239:
	.cfi_offset 9, -12
	stw r10, sp[14]                 # 4-byte Folded Spill
.Ltmp240:
	.cfi_offset 10, -8
	#DEBUG_VALUE: _i.i2c_master_if._Si2c_master_0._c0.read:p <- R0
	#DEBUG_VALUE: _i.i2c_master_if._Si2c_master_0._c0.read:device <- R1
	#DEBUG_VALUE: _i.i2c_master_if._Si2c_master_0._c0.read:buf <- R2
	#DEBUG_VALUE: _i.i2c_master_if._Si2c_master_0._c0.read:m <- R3
	stw r3, sp[6]                   # 4-byte Folded Spill
.Ltmp241:
	#DEBUG_VALUE: _i.i2c_master_if._Si2c_master_0._c0.read:m <- [SP+24]
	stw r2, sp[5]                   # 4-byte Folded Spill
.Ltmp242:
	#DEBUG_VALUE: _i.i2c_master_if._Si2c_master_0._c0.read:buf <- [SP+20]
	mov r6, r1
.Ltmp243:
	#DEBUG_VALUE: _i.i2c_master_if._Si2c_master_0._c0.read:device <- undef
	#DEBUG_VALUE: _i.i2c_master_if._Si2c_master_0._c0.read:device <- R6
	ldw r8, r0[0]
	ldw r0, r0[1]
.Ltmp244:
	stw r0, sp[2]                   # 4-byte Folded Spill
.Ltmp245:
.LBB10_1:                               # %LoopTest
                                        # =>This Inner Loop Header: Depth=1
	#DEBUG_VALUE: _i.i2c_master_if._Si2c_master_0._c0.read:device <- undef
	#DEBUG_VALUE: _i.i2c_master_if._Si2c_master_0._c0.read:buf <- [SP+20]
	#DEBUG_VALUE: _i.i2c_master_if._Si2c_master_0._c0.read:m <- [SP+24]
	ldw r0, r8[0]
	bf r0, .LBB10_1
.Ltmp246:
# BB#2:                                 # %expdone
	#DEBUG_VALUE: _i.i2c_master_if._Si2c_master_0._c0.read:device <- undef
	#DEBUG_VALUE: _i.i2c_master_if._Si2c_master_0._c0.read:buf <- [SP+20]
	#DEBUG_VALUE: _i.i2c_master_if._Si2c_master_0._c0.read:m <- [SP+24]
	#DEBUG_VALUE: _i.i2c_master_if._Si2c_master_0._c0.read:send_stop_bit <- undef
	ldc r10, 0
	stw r10, r8[0]
	.loc	2 122 0 prologue_end    # C:/Users/user/workspace/lib_i2c/src/i2c_master.xc:122:0
.Ltmp247:
	ldw r0, r8[6]
	.loc	2 122 0                 # C:/Users/user/workspace/lib_i2c/src/i2c_master.xc:122:0
	ldw r1, r8[7]
	.loc	2 122 0                 # C:/Users/user/workspace/lib_i2c/src/i2c_master.xc:122:0
	ldw r2, r8[9]
	.loc	2 122 0                 # C:/Users/user/workspace/lib_i2c/src/i2c_master.xc:122:0
.Lxta.call_labels19:
	bl start_bit
.Ltmp248:
	#DEBUG_VALUE: fall_time <- R0
	.loc	2 122 0                 # C:/Users/user/workspace/lib_i2c/src/i2c_master.xc:122:0
	stw r0, sp[7]
	.loc	2 123 0                 # C:/Users/user/workspace/lib_i2c/src/i2c_master.xc:123:0
	ldw r0, r8[6]
.Ltmp249:
	.loc	2 123 0                 # C:/Users/user/workspace/lib_i2c/src/i2c_master.xc:123:0
	ldw r1, r8[7]
	.loc	2 123 0                 # C:/Users/user/workspace/lib_i2c/src/i2c_master.xc:123:0
	shl r2, r6, 1
	mkmsk r3, 1
	.loc	2 123 0                 # C:/Users/user/workspace/lib_i2c/src/i2c_master.xc:123:0
	or r2, r2, r3
	.loc	2 123 0                 # C:/Users/user/workspace/lib_i2c/src/i2c_master.xc:123:0
	ldw r3, r8[9]
	ldaw r11, sp[7]
.Ltmp250:
	#DEBUG_VALUE: fall_time <- [R11+0]
	.loc	2 123 0                 # C:/Users/user/workspace/lib_i2c/src/i2c_master.xc:123:0
	stw r11, sp[1]
.Lxta.call_labels20:
	bl tx8
.Ltmp251:
	#DEBUG_VALUE: ack <- R0
	.loc	2 125 7                 # C:/Users/user/workspace/lib_i2c/src/i2c_master.xc:125:7
	eq r0, r0, 0
.Ltmp252:
	#DEBUG_VALUE: j <- 0
	.loc	2 125 7                 # C:/Users/user/workspace/lib_i2c/src/i2c_master.xc:125:7
	stw r0, sp[3]                   # 4-byte Folded Spill
	ldw r0, sp[6]                   # 4-byte Folded Reload
	bf r0, .LBB10_10
.Ltmp253:
# BB#3:                                 # %expdone
	#DEBUG_VALUE: _i.i2c_master_if._Si2c_master_0._c0.read:device <- undef
	#DEBUG_VALUE: _i.i2c_master_if._Si2c_master_0._c0.read:buf <- [SP+20]
	#DEBUG_VALUE: _i.i2c_master_if._Si2c_master_0._c0.read:m <- [SP+24]
	#DEBUG_VALUE: _i.i2c_master_if._Si2c_master_0._c0.read:send_stop_bit <- undef
	.loc	2 125 7                 # C:/Users/user/workspace/lib_i2c/src/i2c_master.xc:125:7
	ldw r0, sp[3]                   # 4-byte Folded Reload
	eq r0, r0, 0
	bt r0, .LBB10_10
.Ltmp254:
# BB#4:                                 # %LoopBody96.preheader
	#DEBUG_VALUE: _i.i2c_master_if._Si2c_master_0._c0.read:device <- undef
	#DEBUG_VALUE: _i.i2c_master_if._Si2c_master_0._c0.read:buf <- [SP+20]
	#DEBUG_VALUE: _i.i2c_master_if._Si2c_master_0._c0.read:m <- [SP+24]
	#DEBUG_VALUE: _i.i2c_master_if._Si2c_master_0._c0.read:send_stop_bit <- undef
	.loc	2 135 0                 # C:/Users/user/workspace/lib_i2c/src/i2c_master.xc:135:0
	get r11, id
	.loc	2 135 0                 # C:/Users/user/workspace/lib_i2c/src/i2c_master.xc:135:0
	ldaw r0, dp[__timers]
	.loc	2 135 0                 # C:/Users/user/workspace/lib_i2c/src/i2c_master.xc:135:0
	ldw r6, r0[r11]
	.loc	2 137 11                # C:/Users/user/workspace/lib_i2c/src/i2c_master.xc:137:11
.Ltmp255:
	ldw r0, sp[6]                   # 4-byte Folded Reload
	sub r0, r0, 1
	stw r0, sp[4]                   # 4-byte Folded Spill
	ldaw r7, sp[7]
	ldc r5, 510
	mov r9, r10
.Ltmp256:
.LBB10_5:                               # %LoopBody96
                                        # =>This Loop Header: Depth=1
                                        #     Child Loop BB10_6 Depth 2
.Lxtalabel30:
	#DEBUG_VALUE: _i.i2c_master_if._Si2c_master_0._c0.read:device <- undef
	#DEBUG_VALUE: _i.i2c_master_if._Si2c_master_0._c0.read:buf <- [SP+20]
	#DEBUG_VALUE: _i.i2c_master_if._Si2c_master_0._c0.read:m <- [SP+24]
	#DEBUG_VALUE: _i.i2c_master_if._Si2c_master_0._c0.read:send_stop_bit <- undef
	#DEBUG_VALUE: data <- 0
	#DEBUG_VALUE: i <- 8
	ldw r4, cp[.LCPI10_0]
.Ltmp257:
.LBB10_6:                               # %LoopBody105
                                        #   Parent Loop BB10_5 Depth=1
                                        # =>  This Inner Loop Header: Depth=2
.Lxtalabel31:
	#DEBUG_VALUE: _i.i2c_master_if._Si2c_master_0._c0.read:device <- undef
	#DEBUG_VALUE: _i.i2c_master_if._Si2c_master_0._c0.read:buf <- [SP+20]
	#DEBUG_VALUE: _i.i2c_master_if._Si2c_master_0._c0.read:m <- [SP+24]
	#DEBUG_VALUE: _i.i2c_master_if._Si2c_master_0._c0.read:send_stop_bit <- undef
	#DEBUG_VALUE: data <- 0
	#DEBUG_VALUE: i <- 8
	.loc	2 130 0                 # C:/Users/user/workspace/lib_i2c/src/i2c_master.xc:130:0
	ldw r0, r8[6]
	.loc	2 130 0                 # C:/Users/user/workspace/lib_i2c/src/i2c_master.xc:130:0
	ldw r1, r8[7]
	.loc	2 130 0                 # C:/Users/user/workspace/lib_i2c/src/i2c_master.xc:130:0
	ldw r2, r8[9]
.Ltmp258:
	#DEBUG_VALUE: fall_time <- [R7+0]
	.loc	2 130 0                 # C:/Users/user/workspace/lib_i2c/src/i2c_master.xc:130:0
	mov r3, r7
.Lxta.call_labels21:
	bl high_pulse_sample
.Ltmp259:
	#DEBUG_VALUE: temp <- R0
	.loc	2 131 0                 # C:/Users/user/workspace/lib_i2c/src/i2c_master.xc:131:0
	shl r1, r10, 1
	.loc	2 131 0                 # C:/Users/user/workspace/lib_i2c/src/i2c_master.xc:131:0
	and r1, r1, r5
	.loc	2 131 0                 # C:/Users/user/workspace/lib_i2c/src/i2c_master.xc:131:0
	or r10, r0, r1
.Ltmp260:
	.loc	2 129 0                 # C:/Users/user/workspace/lib_i2c/src/i2c_master.xc:129:0
	add r4, r4, 1
.xtaloop 8
	# LOOPMARKER 1
.Lxta.loop_labels6:
	# LOOPMARKER 0
	.loc	2 129 0                 # C:/Users/user/workspace/lib_i2c/src/i2c_master.xc:129:0
	bt r4, .LBB10_6
.Ltmp261:
# BB#7:                                 # %afterboundcheck
                                        #   in Loop: Header=BB10_5 Depth=1
.Lxtalabel32:
	#DEBUG_VALUE: _i.i2c_master_if._Si2c_master_0._c0.read:device <- undef
	#DEBUG_VALUE: _i.i2c_master_if._Si2c_master_0._c0.read:buf <- [SP+20]
	#DEBUG_VALUE: _i.i2c_master_if._Si2c_master_0._c0.read:m <- [SP+24]
	#DEBUG_VALUE: _i.i2c_master_if._Si2c_master_0._c0.read:send_stop_bit <- undef
	#DEBUG_VALUE: fall_time <- [R7+0]
	#DEBUG_VALUE: data <- 0
	.loc	2 133 0                 # C:/Users/user/workspace/lib_i2c/src/i2c_master.xc:133:0
	ldw r0, sp[5]                   # 4-byte Folded Reload
	st8 r10, r0[r9]
	.loc	2 135 0                 # C:/Users/user/workspace/lib_i2c/src/i2c_master.xc:135:0
	ldw r0, sp[7]
	.loc	2 135 0                 # C:/Users/user/workspace/lib_i2c/src/i2c_master.xc:135:0
	ldw r1, r8[9]
	.loc	2 135 0                 # C:/Users/user/workspace/lib_i2c/src/i2c_master.xc:135:0
	shr r2, r1, 2
	.loc	2 135 0                 # C:/Users/user/workspace/lib_i2c/src/i2c_master.xc:135:0
	add r2, r2, r0
	.loc	2 135 0                 # C:/Users/user/workspace/lib_i2c/src/i2c_master.xc:135:0
	setd res[r6], r2
	.loc	2 135 0                 # C:/Users/user/workspace/lib_i2c/src/i2c_master.xc:135:0
	setc res[r6], 9
	.loc	2 135 0                 # C:/Users/user/workspace/lib_i2c/src/i2c_master.xc:135:0
.Ltmp262:
.Lxta.endpoint_labels18:
	in r2, res[r6]
	.loc	2 138 0                 # C:/Users/user/workspace/lib_i2c/src/i2c_master.xc:138:0
	ldw r2, r8[7]
	.loc	2 137 11                # C:/Users/user/workspace/lib_i2c/src/i2c_master.xc:137:11
	ldw r3, sp[4]                   # 4-byte Folded Reload
	eq r3, r9, r3
	bf r3, .LBB10_13
.Ltmp263:
# BB#8:                                 # %iftrue131
                                        #   in Loop: Header=BB10_5 Depth=1
.Lxtalabel33:
	#DEBUG_VALUE: _i.i2c_master_if._Si2c_master_0._c0.read:device <- undef
	#DEBUG_VALUE: _i.i2c_master_if._Si2c_master_0._c0.read:buf <- [SP+20]
	#DEBUG_VALUE: _i.i2c_master_if._Si2c_master_0._c0.read:m <- [SP+24]
	#DEBUG_VALUE: _i.i2c_master_if._Si2c_master_0._c0.read:send_stop_bit <- undef
	#DEBUG_VALUE: fall_time <- [R7+0]
	#DEBUG_VALUE: data <- 0
	.loc	2 138 0                 # C:/Users/user/workspace/lib_i2c/src/i2c_master.xc:138:0
	setc res[r2], 1
	.loc	2 138 0                 # C:/Users/user/workspace/lib_i2c/src/i2c_master.xc:138:0
.Ltmp264:
.Lxta.endpoint_labels19:
	in r2, res[r2]
	ldc r10, 0
	bu .LBB10_9
.Ltmp265:
.LBB10_13:                              # %iffalse139
                                        #   in Loop: Header=BB10_5 Depth=1
.Lxtalabel34:
	#DEBUG_VALUE: _i.i2c_master_if._Si2c_master_0._c0.read:device <- undef
	#DEBUG_VALUE: _i.i2c_master_if._Si2c_master_0._c0.read:buf <- [SP+20]
	#DEBUG_VALUE: _i.i2c_master_if._Si2c_master_0._c0.read:m <- [SP+24]
	#DEBUG_VALUE: _i.i2c_master_if._Si2c_master_0._c0.read:send_stop_bit <- undef
	#DEBUG_VALUE: fall_time <- [R7+0]
	#DEBUG_VALUE: data <- 0
	ldc r10, 0
	.loc	2 140 23                # C:/Users/user/workspace/lib_i2c/src/i2c_master.xc:140:23
.Lxta.endpoint_labels20:
	out res[r2], r10
.Ltmp266:
.LBB10_9:                               # %ifdone132
                                        #   in Loop: Header=BB10_5 Depth=1
.Lxtalabel35:
	#DEBUG_VALUE: _i.i2c_master_if._Si2c_master_0._c0.read:device <- undef
	#DEBUG_VALUE: _i.i2c_master_if._Si2c_master_0._c0.read:buf <- [SP+20]
	#DEBUG_VALUE: _i.i2c_master_if._Si2c_master_0._c0.read:m <- [SP+24]
	#DEBUG_VALUE: _i.i2c_master_if._Si2c_master_0._c0.read:send_stop_bit <- undef
	#DEBUG_VALUE: fall_time <- [R7+0]
	#DEBUG_VALUE: data <- 0
	.loc	2 143 0                 # C:/Users/user/workspace/lib_i2c/src/i2c_master.xc:143:0
	shr r2, r1, 1
	.loc	2 143 0                 # C:/Users/user/workspace/lib_i2c/src/i2c_master.xc:143:0
	add r2, r2, r0
	.loc	2 143 0                 # C:/Users/user/workspace/lib_i2c/src/i2c_master.xc:143:0
	shr r3, r1, 5
	.loc	2 143 0                 # C:/Users/user/workspace/lib_i2c/src/i2c_master.xc:143:0
	add r2, r2, r3
	.loc	2 143 0                 # C:/Users/user/workspace/lib_i2c/src/i2c_master.xc:143:0
	setd res[r6], r2
	.loc	2 143 0                 # C:/Users/user/workspace/lib_i2c/src/i2c_master.xc:143:0
	setc res[r6], 9
	.loc	2 143 0                 # C:/Users/user/workspace/lib_i2c/src/i2c_master.xc:143:0
.Ltmp267:
.Lxta.endpoint_labels21:
	in r2, res[r6]
	.loc	2 144 0                 # C:/Users/user/workspace/lib_i2c/src/i2c_master.xc:144:0
	ldw r2, r8[6]
.Ltmp268:
	#DEBUG_VALUE: release_clock_and_wait:i2c_scl <- R2
	.loc	2 144 0                 # C:/Users/user/workspace/lib_i2c/src/i2c_master.xc:144:0
	add r1, r1, 1
.Ltmp269:
	#DEBUG_VALUE: release_clock_and_wait:delay <- R1
	mkmsk r3, 1
	.loc	2 18 0                  # C:/Users/user/workspace/lib_i2c/src/i2c_master.xc:18:0
.Ltmp270:
	setd res[r2], r3
	.loc	2 18 0                  # C:/Users/user/workspace/lib_i2c/src/i2c_master.xc:18:0
	setc res[r2], 17
	.loc	2 18 0                  # C:/Users/user/workspace/lib_i2c/src/i2c_master.xc:18:0
.Ltmp271:
.Lxta.endpoint_labels22:
	in r2, res[r2]
.Ltmp272:
	.loc	2 19 0                  # C:/Users/user/workspace/lib_i2c/src/i2c_master.xc:19:0
	add r0, r0, r1
	.loc	2 19 0                  # C:/Users/user/workspace/lib_i2c/src/i2c_master.xc:19:0
	setd res[r6], r0
	.loc	2 19 0                  # C:/Users/user/workspace/lib_i2c/src/i2c_master.xc:19:0
	setc res[r6], 9
	.loc	2 19 0                  # C:/Users/user/workspace/lib_i2c/src/i2c_master.xc:19:0
.Lxta.endpoint_labels23:
	in r0, res[r6]
.Ltmp273:
	#DEBUG_VALUE: time <- R0
	.loc	2 21 0                  # C:/Users/user/workspace/lib_i2c/src/i2c_master.xc:21:0
	sub r0, r0, r1
.Ltmp274:
	.loc	2 21 0                  # C:/Users/user/workspace/lib_i2c/src/i2c_master.xc:21:0
	stw r0, sp[7]
.Ltmp275:
	.loc	2 145 21                # C:/Users/user/workspace/lib_i2c/src/i2c_master.xc:145:21
	ldw r1, r8[6]
.Ltmp276:
	.loc	2 145 21                # C:/Users/user/workspace/lib_i2c/src/i2c_master.xc:145:21
.Lxta.endpoint_labels24:
	out res[r1], r10
	.loc	2 146 0                 # C:/Users/user/workspace/lib_i2c/src/i2c_master.xc:146:0
	ldw r1, r8[7]
	.loc	2 146 0                 # C:/Users/user/workspace/lib_i2c/src/i2c_master.xc:146:0
	setc res[r1], 1
	.loc	2 146 0                 # C:/Users/user/workspace/lib_i2c/src/i2c_master.xc:146:0
.Ltmp277:
.Lxta.endpoint_labels25:
	in r1, res[r1]
	.loc	2 147 0                 # C:/Users/user/workspace/lib_i2c/src/i2c_master.xc:147:0
	ldw r1, r8[9]
	.loc	2 147 0                 # C:/Users/user/workspace/lib_i2c/src/i2c_master.xc:147:0
	add r0, r1, r0
.Ltmp278:
	#DEBUG_VALUE: fall_time <- R0
	.loc	2 147 0                 # C:/Users/user/workspace/lib_i2c/src/i2c_master.xc:147:0
	stw r0, sp[7]
.Ltmp279:
	.loc	2 126 0                 # C:/Users/user/workspace/lib_i2c/src/i2c_master.xc:126:0
	add r9, r9, 1
.Ltmp280:
	#DEBUG_VALUE: j <- R9
	.loc	2 126 0                 # C:/Users/user/workspace/lib_i2c/src/i2c_master.xc:126:0
	ldw r0, sp[6]                   # 4-byte Folded Reload
.Ltmp281:
	lsu r0, r9, r0
.Lxta.loop_labels7:
	# LOOPMARKER 2
	bt r0, .LBB10_5
.Ltmp282:
.LBB10_10:                              # %ifdone86
.Lxtalabel36:
	#DEBUG_VALUE: _i.i2c_master_if._Si2c_master_0._c0.read:device <- undef
	#DEBUG_VALUE: _i.i2c_master_if._Si2c_master_0._c0.read:send_stop_bit <- undef
	ldw r0, sp[2]                   # 4-byte Folded Reload
	ldw r1, sp[17]
	bf r1, .LBB10_12
# BB#11:                                # %iftrue177
.Lxtalabel37:
	#DEBUG_VALUE: _i.i2c_master_if._Si2c_master_0._c0.read:device <- undef
	.loc	2 151 0                 # C:/Users/user/workspace/lib_i2c/src/i2c_master.xc:151:0
	ldw r0, r8[6]
	.loc	2 151 0                 # C:/Users/user/workspace/lib_i2c/src/i2c_master.xc:151:0
	ldw r1, r8[7]
	.loc	2 151 0                 # C:/Users/user/workspace/lib_i2c/src/i2c_master.xc:151:0
	ldw r2, r8[9]
	.loc	2 151 0                 # C:/Users/user/workspace/lib_i2c/src/i2c_master.xc:151:0
	ldw r3, sp[7]
	.loc	2 151 0                 # C:/Users/user/workspace/lib_i2c/src/i2c_master.xc:151:0
.Lxta.call_labels22:
	bl stop_bit
	mkmsk r0, 32
.Ltmp283:
.LBB10_12:                              # %ifdone178
.Lxtalabel38:
	#DEBUG_VALUE: _i.i2c_master_if._Si2c_master_0._c0.read:device <- undef
	stw r0, r8[10]
	mkmsk r0, 1
	stw r0, r8[0]
	ldw r0, sp[3]                   # 4-byte Folded Reload
	ldw r10, sp[14]                 # 4-byte Folded Reload
	ldd r9, r8, sp[6]               # 4-byte Folded Reload
	ldd r7, r6, sp[5]               # 4-byte Folded Reload
	ldd r5, r4, sp[4]               # 4-byte Folded Reload
	retsp 16
	# RETURN_REG_HOLDER
	.cc_bottom _i.i2c_master_if._Si2c_master_0._c0.read.function
	.set	_i.i2c_master_if._Si2c_master_0._c0.read.nstackwords,((start_bit.nstackwords $M tx8.nstackwords $M stop_bit.nstackwords $M high_pulse_sample.nstackwords) + 16)
	.globl	_i.i2c_master_if._Si2c_master_0._c0.read.nstackwords
	.set	_i.i2c_master_if._Si2c_master_0._c0.read.maxcores,high_pulse_sample.maxcores $M start_bit.maxcores $M stop_bit.maxcores $M tx8.maxcores $M 1
	.globl	_i.i2c_master_if._Si2c_master_0._c0.read.maxcores
	.set	_i.i2c_master_if._Si2c_master_0._c0.read.maxtimers,high_pulse_sample.maxtimers $M start_bit.maxtimers $M stop_bit.maxtimers $M tx8.maxtimers $M 0
	.globl	_i.i2c_master_if._Si2c_master_0._c0.read.maxtimers
	.set	_i.i2c_master_if._Si2c_master_0._c0.read.maxchanends,high_pulse_sample.maxchanends $M start_bit.maxchanends $M stop_bit.maxchanends $M tx8.maxchanends $M 0
	.globl	_i.i2c_master_if._Si2c_master_0._c0.read.maxchanends
.Ltmp284:
	.size	_i.i2c_master_if._Si2c_master_0._c0.read, .Ltmp284-_i.i2c_master_if._Si2c_master_0._c0.read
.Lfunc_end10:
	.cfi_endproc

	.globl	_i.i2c_master_if._Si2c_master_0._c0.write
	.align	4
	.type	_i.i2c_master_if._Si2c_master_0._c0.write,@function
	.cc_top _i.i2c_master_if._Si2c_master_0._c0.write.function,_i.i2c_master_if._Si2c_master_0._c0.write
_i.i2c_master_if._Si2c_master_0._c0.write: # @_i.i2c_master_if._Si2c_master_0._c0.write
.Lfunc_begin11:
	.loc	2 161 0                 # C:/Users/user/workspace/lib_i2c/src/i2c_master.xc:161:0
	.cfi_startproc
	.issue_mode single
# BB#0:                                 # %allocas
	ENTSP_lu6 12
.Ltmp285:
	.cfi_def_cfa_offset 48
.Ltmp286:
	.cfi_offset 15, 0
	std r5, r4, sp[2]               # 4-byte Folded Spill
.Ltmp287:
	.cfi_offset 4, -32
.Ltmp288:
	.cfi_offset 5, -28
	std r7, r6, sp[3]               # 4-byte Folded Spill
.Ltmp289:
	.cfi_offset 6, -24
.Ltmp290:
	.cfi_offset 7, -20
	std r9, r8, sp[4]               # 4-byte Folded Spill
.Ltmp291:
	.cfi_offset 8, -16
.Ltmp292:
	.cfi_offset 9, -12
	stw r10, sp[10]                 # 4-byte Folded Spill
.Ltmp293:
	.cfi_offset 10, -8
	#DEBUG_VALUE: _i.i2c_master_if._Si2c_master_0._c0.write:p <- R0
	#DEBUG_VALUE: _i.i2c_master_if._Si2c_master_0._c0.write:device <- R1
	#DEBUG_VALUE: _i.i2c_master_if._Si2c_master_0._c0.write:buf <- R2
	#DEBUG_VALUE: _i.i2c_master_if._Si2c_master_0._c0.write:n <- R3
	mov r4, r3
.Ltmp294:
	#DEBUG_VALUE: _i.i2c_master_if._Si2c_master_0._c0.write:n <- R4
	mov r5, r2
.Ltmp295:
	#DEBUG_VALUE: _i.i2c_master_if._Si2c_master_0._c0.write:buf <- R5
	mov r6, r1
.Ltmp296:
	#DEBUG_VALUE: _i.i2c_master_if._Si2c_master_0._c0.write:device <- undef
	#DEBUG_VALUE: _i.i2c_master_if._Si2c_master_0._c0.write:device <- R6
	ldw r7, r0[0]
	ldw r8, r0[1]
.Ltmp297:
.LBB11_1:                               # %LoopTest
                                        # =>This Inner Loop Header: Depth=1
	#DEBUG_VALUE: _i.i2c_master_if._Si2c_master_0._c0.write:device <- undef
	#DEBUG_VALUE: _i.i2c_master_if._Si2c_master_0._c0.write:buf <- R5
	#DEBUG_VALUE: _i.i2c_master_if._Si2c_master_0._c0.write:n <- R4
	ldw r0, r7[0]
	bf r0, .LBB11_1
.Ltmp298:
# BB#2:                                 # %expdone
	#DEBUG_VALUE: _i.i2c_master_if._Si2c_master_0._c0.write:device <- undef
	#DEBUG_VALUE: _i.i2c_master_if._Si2c_master_0._c0.write:buf <- R5
	#DEBUG_VALUE: _i.i2c_master_if._Si2c_master_0._c0.write:n <- R4
	#DEBUG_VALUE: _i.i2c_master_if._Si2c_master_0._c0.write:send_stop_bit <- undef
	ldc r9, 0
	stw r9, r7[0]
.Ltmp299:
	#DEBUG_VALUE: ack <- 0
	.loc	2 168 0 prologue_end    # C:/Users/user/workspace/lib_i2c/src/i2c_master.xc:168:0
	ldw r0, r7[6]
	.loc	2 168 0                 # C:/Users/user/workspace/lib_i2c/src/i2c_master.xc:168:0
	ldw r1, r7[7]
	.loc	2 168 0                 # C:/Users/user/workspace/lib_i2c/src/i2c_master.xc:168:0
	ldw r2, r7[9]
	.loc	2 168 0                 # C:/Users/user/workspace/lib_i2c/src/i2c_master.xc:168:0
.Lxta.call_labels23:
	bl start_bit
.Ltmp300:
	#DEBUG_VALUE: fall_time <- R0
	.loc	2 168 0                 # C:/Users/user/workspace/lib_i2c/src/i2c_master.xc:168:0
	stw r0, sp[3]
	.loc	2 169 0                 # C:/Users/user/workspace/lib_i2c/src/i2c_master.xc:169:0
	ldw r0, r7[6]
.Ltmp301:
	.loc	2 169 0                 # C:/Users/user/workspace/lib_i2c/src/i2c_master.xc:169:0
	ldw r1, r7[7]
	.loc	2 169 0                 # C:/Users/user/workspace/lib_i2c/src/i2c_master.xc:169:0
	shl r2, r6, 1
	.loc	2 169 0                 # C:/Users/user/workspace/lib_i2c/src/i2c_master.xc:169:0
	ldw r3, r7[9]
	ldaw r10, sp[3]
.Ltmp302:
	#DEBUG_VALUE: fall_time <- [R10+0]
	.loc	2 169 0                 # C:/Users/user/workspace/lib_i2c/src/i2c_master.xc:169:0
	stw r10, sp[1]
.Lxta.call_labels24:
	bl tx8
	mov r6, r0
.Ltmp303:
	#DEBUG_VALUE: j <- 0
	#DEBUG_VALUE: ack <- R6
	bf r4, .LBB11_3
.Ltmp304:
.LBB11_6:                               # %LoopBody90
                                        # =>This Inner Loop Header: Depth=1
.Lxtalabel39:
	#DEBUG_VALUE: _i.i2c_master_if._Si2c_master_0._c0.write:device <- undef
	#DEBUG_VALUE: _i.i2c_master_if._Si2c_master_0._c0.write:buf <- R5
	#DEBUG_VALUE: _i.i2c_master_if._Si2c_master_0._c0.write:n <- R4
	#DEBUG_VALUE: _i.i2c_master_if._Si2c_master_0._c0.write:send_stop_bit <- undef
	bt r6, .LBB11_3
.Ltmp305:
# BB#7:                                 # %afterboundcheck
                                        #   in Loop: Header=BB11_6 Depth=1
.Lxtalabel40:
	#DEBUG_VALUE: _i.i2c_master_if._Si2c_master_0._c0.write:device <- undef
	#DEBUG_VALUE: _i.i2c_master_if._Si2c_master_0._c0.write:buf <- R5
	#DEBUG_VALUE: _i.i2c_master_if._Si2c_master_0._c0.write:n <- R4
	#DEBUG_VALUE: _i.i2c_master_if._Si2c_master_0._c0.write:send_stop_bit <- undef
	.loc	2 175 0                 # C:/Users/user/workspace/lib_i2c/src/i2c_master.xc:175:0
	ldw r1, r7[7]
	.loc	2 175 0                 # C:/Users/user/workspace/lib_i2c/src/i2c_master.xc:175:0
	ldw r0, r7[6]
	.loc	2 175 0                 # C:/Users/user/workspace/lib_i2c/src/i2c_master.xc:175:0
	ld8u r2, r5[r9]
	.loc	2 175 0                 # C:/Users/user/workspace/lib_i2c/src/i2c_master.xc:175:0
	ldw r3, r7[9]
.Ltmp306:
	#DEBUG_VALUE: fall_time <- [R10+0]
	.loc	2 175 0                 # C:/Users/user/workspace/lib_i2c/src/i2c_master.xc:175:0
	stw r10, sp[1]
.Lxta.call_labels25:
	bl tx8
	mov r6, r0
.Ltmp307:
	#DEBUG_VALUE: ack <- R6
	.loc	2 171 0                 # C:/Users/user/workspace/lib_i2c/src/i2c_master.xc:171:0
	add r9, r9, 1
.Ltmp308:
	#DEBUG_VALUE: j <- R9
	.loc	2 171 0                 # C:/Users/user/workspace/lib_i2c/src/i2c_master.xc:171:0
	lsu r0, r9, r4
.Lxta.loop_labels8:
	# LOOPMARKER 0
	bt r0, .LBB11_6
.Ltmp309:
.LBB11_3:                               # %ifdone85
.Lxtalabel41:
	#DEBUG_VALUE: _i.i2c_master_if._Si2c_master_0._c0.write:device <- undef
	#DEBUG_VALUE: _i.i2c_master_if._Si2c_master_0._c0.write:send_stop_bit <- undef
	#DEBUG_VALUE: j <- 0
	ldw r4, sp[13]
	#DEBUG_VALUE: _i.i2c_master_if._Si2c_master_0._c0.write:num_bytes_sent <- R4
	ldw r0, sp[14]
	.loc	2 177 7                 # C:/Users/user/workspace/lib_i2c/src/i2c_master.xc:177:7
	bf r0, .LBB11_8
.Ltmp310:
# BB#4:                                 # %iftrue112
.Lxtalabel42:
	#DEBUG_VALUE: _i.i2c_master_if._Si2c_master_0._c0.write:device <- undef
	#DEBUG_VALUE: j <- 0
	#DEBUG_VALUE: _i.i2c_master_if._Si2c_master_0._c0.write:num_bytes_sent <- R4
	.loc	2 178 0                 # C:/Users/user/workspace/lib_i2c/src/i2c_master.xc:178:0
	ldw r0, r7[6]
	.loc	2 178 0                 # C:/Users/user/workspace/lib_i2c/src/i2c_master.xc:178:0
	ldw r1, r7[7]
	.loc	2 178 0                 # C:/Users/user/workspace/lib_i2c/src/i2c_master.xc:178:0
	ldw r2, r7[9]
	.loc	2 178 0                 # C:/Users/user/workspace/lib_i2c/src/i2c_master.xc:178:0
	ldw r3, sp[3]
	.loc	2 178 0                 # C:/Users/user/workspace/lib_i2c/src/i2c_master.xc:178:0
.Lxta.call_labels26:
	bl stop_bit
	mkmsk r8, 32
	bu .LBB11_5
.Ltmp311:
.LBB11_8:                               # %iffalse115
.Lxtalabel43:
	#DEBUG_VALUE: _i.i2c_master_if._Si2c_master_0._c0.write:device <- undef
	#DEBUG_VALUE: j <- 0
	#DEBUG_VALUE: _i.i2c_master_if._Si2c_master_0._c0.write:num_bytes_sent <- R4
	.loc	2 183 0                 # C:/Users/user/workspace/lib_i2c/src/i2c_master.xc:183:0
	get r11, id
	.loc	2 183 0                 # C:/Users/user/workspace/lib_i2c/src/i2c_master.xc:183:0
	ldaw r0, dp[__timers]
	.loc	2 183 0                 # C:/Users/user/workspace/lib_i2c/src/i2c_master.xc:183:0
	ldw r0, r0[r11]
	.loc	2 183 0                 # C:/Users/user/workspace/lib_i2c/src/i2c_master.xc:183:0
	ldw r1, sp[3]
	.loc	2 183 0                 # C:/Users/user/workspace/lib_i2c/src/i2c_master.xc:183:0
	ldw r2, r7[9]
	.loc	2 183 0                 # C:/Users/user/workspace/lib_i2c/src/i2c_master.xc:183:0
	shr r2, r2, 1
	.loc	2 183 0                 # C:/Users/user/workspace/lib_i2c/src/i2c_master.xc:183:0
	add r1, r2, r1
	.loc	2 183 0                 # C:/Users/user/workspace/lib_i2c/src/i2c_master.xc:183:0
	setd res[r0], r1
	.loc	2 183 0                 # C:/Users/user/workspace/lib_i2c/src/i2c_master.xc:183:0
	setc res[r0], 9
	.loc	2 183 0                 # C:/Users/user/workspace/lib_i2c/src/i2c_master.xc:183:0
.Ltmp312:
.Lxta.endpoint_labels26:
	in r0, res[r0]
.Ltmp313:
.LBB11_5:                               # %ifdone113
.Lxtalabel44:
	#DEBUG_VALUE: _i.i2c_master_if._Si2c_master_0._c0.write:device <- undef
	#DEBUG_VALUE: j <- 0
	#DEBUG_VALUE: _i.i2c_master_if._Si2c_master_0._c0.write:num_bytes_sent <- R4
	stw r8, r7[10]
	.loc	2 186 0                 # C:/Users/user/workspace/lib_i2c/src/i2c_master.xc:186:0
	stw r9, r4[0]
	.loc	2 187 0                 # C:/Users/user/workspace/lib_i2c/src/i2c_master.xc:187:0
	eq r0, r6, 0
	mkmsk r1, 1
	stw r1, r7[0]
	ldw r10, sp[10]                 # 4-byte Folded Reload
	ldd r9, r8, sp[4]               # 4-byte Folded Reload
	ldd r7, r6, sp[3]               # 4-byte Folded Reload
	ldd r5, r4, sp[2]               # 4-byte Folded Reload
.Ltmp314:
	retsp 12
	# RETURN_REG_HOLDER
.Ltmp315:
	.cc_bottom _i.i2c_master_if._Si2c_master_0._c0.write.function
	.set	_i.i2c_master_if._Si2c_master_0._c0.write.nstackwords,((start_bit.nstackwords $M stop_bit.nstackwords $M tx8.nstackwords) + 12)
	.globl	_i.i2c_master_if._Si2c_master_0._c0.write.nstackwords
	.set	_i.i2c_master_if._Si2c_master_0._c0.write.maxcores,start_bit.maxcores $M stop_bit.maxcores $M tx8.maxcores $M 1
	.globl	_i.i2c_master_if._Si2c_master_0._c0.write.maxcores
	.set	_i.i2c_master_if._Si2c_master_0._c0.write.maxtimers,start_bit.maxtimers $M stop_bit.maxtimers $M tx8.maxtimers $M 0
	.globl	_i.i2c_master_if._Si2c_master_0._c0.write.maxtimers
	.set	_i.i2c_master_if._Si2c_master_0._c0.write.maxchanends,start_bit.maxchanends $M stop_bit.maxchanends $M tx8.maxchanends $M 0
	.globl	_i.i2c_master_if._Si2c_master_0._c0.write.maxchanends
.Ltmp316:
	.size	_i.i2c_master_if._Si2c_master_0._c0.write, .Ltmp316-_i.i2c_master_if._Si2c_master_0._c0.write
.Lfunc_end11:
	.cfi_endproc

	.globl	_i.i2c_master_if._Si2c_master_0.0.shutdown
	.align	4
	.type	_i.i2c_master_if._Si2c_master_0.0.shutdown,@function
	.cc_top _i.i2c_master_if._Si2c_master_0.0.shutdown.function,_i.i2c_master_if._Si2c_master_0.0.shutdown
_i.i2c_master_if._Si2c_master_0.0.shutdown: # @_i.i2c_master_if._Si2c_master_0.0.shutdown
	.cfi_startproc
	.issue_mode single
# BB#0:                                 # %allocas
	ENTSP_lu6 0
	#DEBUG_VALUE: _i.i2c_master_if._Si2c_master_0.0.shutdown:p <- R0
	ldw r0, r0[0]
.LBB12_1:                               # %LoopTest
                                        # =>This Inner Loop Header: Depth=1
	ldw r1, r0[0]
	bf r1, .LBB12_1
# BB#2:                                 # %ifdone
	ldc r1, 0
	stw r1, r0[0]
	retsp 0
	# RETURN_REG_HOLDER
	.cc_bottom _i.i2c_master_if._Si2c_master_0.0.shutdown.function
	.set	_i.i2c_master_if._Si2c_master_0.0.shutdown.nstackwords,0
	.globl	_i.i2c_master_if._Si2c_master_0.0.shutdown.nstackwords
	.set	_i.i2c_master_if._Si2c_master_0.0.shutdown.maxcores,1
	.globl	_i.i2c_master_if._Si2c_master_0.0.shutdown.maxcores
	.set	_i.i2c_master_if._Si2c_master_0.0.shutdown.maxtimers,0
	.globl	_i.i2c_master_if._Si2c_master_0.0.shutdown.maxtimers
	.set	_i.i2c_master_if._Si2c_master_0.0.shutdown.maxchanends,0
	.globl	_i.i2c_master_if._Si2c_master_0.0.shutdown.maxchanends
.Ltmp317:
	.size	_i.i2c_master_if._Si2c_master_0.0.shutdown, .Ltmp317-_i.i2c_master_if._Si2c_master_0.0.shutdown
	.cfi_endproc

	.globl	_i.i2c_master_if._Si2c_master_0.0.send_stop_bit
	.align	4
	.type	_i.i2c_master_if._Si2c_master_0.0.send_stop_bit,@function
	.cc_top _i.i2c_master_if._Si2c_master_0.0.send_stop_bit.function,_i.i2c_master_if._Si2c_master_0.0.send_stop_bit
_i.i2c_master_if._Si2c_master_0.0.send_stop_bit: # @_i.i2c_master_if._Si2c_master_0.0.send_stop_bit
.Lfunc_begin13:
	.loc	2 190 0                 # C:/Users/user/workspace/lib_i2c/src/i2c_master.xc:190:0
	.cfi_startproc
	.issue_mode single
# BB#0:                                 # %allocas
	ENTSP_lu6 4
.Ltmp318:
	.cfi_def_cfa_offset 16
.Ltmp319:
	.cfi_offset 15, 0
	stw r4, sp[2]                   # 4-byte Folded Spill
.Ltmp320:
	.cfi_offset 4, -8
	#DEBUG_VALUE: _i.i2c_master_if._Si2c_master_0.0.send_stop_bit:p <- R0
	ldw r4, r0[0]
.Ltmp321:
.LBB13_1:                               # %LoopTest
                                        # =>This Inner Loop Header: Depth=1
	ldw r0, r4[0]
	bf r0, .LBB13_1
# BB#2:                                 # %ifdone
	.loc	2 193 0 prologue_end    # C:/Users/user/workspace/lib_i2c/src/i2c_master.xc:193:0
.Ltmp322:
	gettime r3
.Ltmp323:
	#DEBUG_VALUE: fall_time <- R3
	.loc	2 194 0                 # C:/Users/user/workspace/lib_i2c/src/i2c_master.xc:194:0
	ldw r0, r4[6]
	.loc	2 194 0                 # C:/Users/user/workspace/lib_i2c/src/i2c_master.xc:194:0
	ldw r1, r4[7]
	.loc	2 194 0                 # C:/Users/user/workspace/lib_i2c/src/i2c_master.xc:194:0
	ldw r2, r4[9]
	.loc	2 194 0                 # C:/Users/user/workspace/lib_i2c/src/i2c_master.xc:194:0
.Lxta.call_labels27:
	bl stop_bit
.Ltmp324:
	mkmsk r0, 32
	.loc	2 195 0                 # C:/Users/user/workspace/lib_i2c/src/i2c_master.xc:195:0
	stw r0, r4[10]
	clre
	ldw r4, sp[2]                   # 4-byte Folded Reload
	retsp 4
	# RETURN_REG_HOLDER
.Ltmp325:
	.cc_bottom _i.i2c_master_if._Si2c_master_0.0.send_stop_bit.function
	.set	_i.i2c_master_if._Si2c_master_0.0.send_stop_bit.nstackwords,(stop_bit.nstackwords + 4)
	.globl	_i.i2c_master_if._Si2c_master_0.0.send_stop_bit.nstackwords
	.set	_i.i2c_master_if._Si2c_master_0.0.send_stop_bit.maxcores,stop_bit.maxcores $M 1
	.globl	_i.i2c_master_if._Si2c_master_0.0.send_stop_bit.maxcores
	.set	_i.i2c_master_if._Si2c_master_0.0.send_stop_bit.maxtimers,stop_bit.maxtimers $M 0
	.globl	_i.i2c_master_if._Si2c_master_0.0.send_stop_bit.maxtimers
	.set	_i.i2c_master_if._Si2c_master_0.0.send_stop_bit.maxchanends,stop_bit.maxchanends $M 0
	.globl	_i.i2c_master_if._Si2c_master_0.0.send_stop_bit.maxchanends
.Ltmp326:
	.size	_i.i2c_master_if._Si2c_master_0.0.send_stop_bit, .Ltmp326-_i.i2c_master_if._Si2c_master_0.0.send_stop_bit
.Lfunc_end13:
	.cfi_endproc

	.section	.cp.rodata.cst4,"aMc",@progbits,4
	.cc_top .LCPI14_0.data,.LCPI14_0
	.align	4
	.type	.LCPI14_0,@object
	.size	.LCPI14_0, 4
.LCPI14_0:
	.long	4294967288              # 0xfffffff8
	.cc_bottom .LCPI14_0.data
	.text
	.globl	_i.i2c_master_if._Si2c_master_0.0.read
	.align	4
	.type	_i.i2c_master_if._Si2c_master_0.0.read,@function
	.cc_top _i.i2c_master_if._Si2c_master_0.0.read.function,_i.i2c_master_if._Si2c_master_0.0.read
_i.i2c_master_if._Si2c_master_0.0.read: # @_i.i2c_master_if._Si2c_master_0.0.read
.Lfunc_begin14:
	.loc	2 116 0                 # C:/Users/user/workspace/lib_i2c/src/i2c_master.xc:116:0
	.cfi_startproc
	.issue_mode single
# BB#0:                                 # %allocas
	ENTSP_lu6 16
.Ltmp327:
	.cfi_def_cfa_offset 64
.Ltmp328:
	.cfi_offset 15, 0
	std r5, r4, sp[4]               # 4-byte Folded Spill
.Ltmp329:
	.cfi_offset 4, -32
.Ltmp330:
	.cfi_offset 5, -28
	std r7, r6, sp[5]               # 4-byte Folded Spill
.Ltmp331:
	.cfi_offset 6, -24
.Ltmp332:
	.cfi_offset 7, -20
	std r9, r8, sp[6]               # 4-byte Folded Spill
.Ltmp333:
	.cfi_offset 8, -16
.Ltmp334:
	.cfi_offset 9, -12
	stw r10, sp[14]                 # 4-byte Folded Spill
.Ltmp335:
	.cfi_offset 10, -8
	#DEBUG_VALUE: _i.i2c_master_if._Si2c_master_0.0.read:p <- R0
	#DEBUG_VALUE: _i.i2c_master_if._Si2c_master_0.0.read:device <- R1
	#DEBUG_VALUE: _i.i2c_master_if._Si2c_master_0.0.read:buf <- R2
	#DEBUG_VALUE: _i.i2c_master_if._Si2c_master_0.0.read:m <- R3
	stw r3, sp[6]                   # 4-byte Folded Spill
.Ltmp336:
	#DEBUG_VALUE: _i.i2c_master_if._Si2c_master_0.0.read:m <- [SP+24]
	stw r2, sp[5]                   # 4-byte Folded Spill
.Ltmp337:
	#DEBUG_VALUE: _i.i2c_master_if._Si2c_master_0.0.read:buf <- [SP+20]
	mov r6, r1
.Ltmp338:
	#DEBUG_VALUE: _i.i2c_master_if._Si2c_master_0.0.read:device <- undef
	#DEBUG_VALUE: _i.i2c_master_if._Si2c_master_0.0.read:device <- R6
	ldw r8, r0[0]
	ldw r0, r0[1]
.Ltmp339:
	stw r0, sp[2]                   # 4-byte Folded Spill
.Ltmp340:
.LBB14_1:                               # %LoopTest
                                        # =>This Inner Loop Header: Depth=1
	#DEBUG_VALUE: _i.i2c_master_if._Si2c_master_0.0.read:device <- undef
	#DEBUG_VALUE: _i.i2c_master_if._Si2c_master_0.0.read:buf <- [SP+20]
	#DEBUG_VALUE: _i.i2c_master_if._Si2c_master_0.0.read:m <- [SP+24]
	ldw r0, r8[0]
	bf r0, .LBB14_1
.Ltmp341:
# BB#2:                                 # %expdone
	#DEBUG_VALUE: _i.i2c_master_if._Si2c_master_0.0.read:device <- undef
	#DEBUG_VALUE: _i.i2c_master_if._Si2c_master_0.0.read:buf <- [SP+20]
	#DEBUG_VALUE: _i.i2c_master_if._Si2c_master_0.0.read:m <- [SP+24]
	#DEBUG_VALUE: _i.i2c_master_if._Si2c_master_0.0.read:send_stop_bit <- undef
	.loc	2 122 0 prologue_end    # C:/Users/user/workspace/lib_i2c/src/i2c_master.xc:122:0
	ldw r0, r8[6]
	.loc	2 122 0                 # C:/Users/user/workspace/lib_i2c/src/i2c_master.xc:122:0
	ldw r1, r8[7]
	.loc	2 122 0                 # C:/Users/user/workspace/lib_i2c/src/i2c_master.xc:122:0
	ldw r2, r8[9]
	.loc	2 122 0                 # C:/Users/user/workspace/lib_i2c/src/i2c_master.xc:122:0
.Lxta.call_labels28:
	bl start_bit
.Ltmp342:
	#DEBUG_VALUE: fall_time <- R0
	.loc	2 122 0                 # C:/Users/user/workspace/lib_i2c/src/i2c_master.xc:122:0
	stw r0, sp[7]
	.loc	2 123 0                 # C:/Users/user/workspace/lib_i2c/src/i2c_master.xc:123:0
	ldw r0, r8[6]
.Ltmp343:
	.loc	2 123 0                 # C:/Users/user/workspace/lib_i2c/src/i2c_master.xc:123:0
	ldw r1, r8[7]
	.loc	2 123 0                 # C:/Users/user/workspace/lib_i2c/src/i2c_master.xc:123:0
	shl r2, r6, 1
	mkmsk r3, 1
	.loc	2 123 0                 # C:/Users/user/workspace/lib_i2c/src/i2c_master.xc:123:0
	or r2, r2, r3
	.loc	2 123 0                 # C:/Users/user/workspace/lib_i2c/src/i2c_master.xc:123:0
	ldw r3, r8[9]
	ldaw r11, sp[7]
.Ltmp344:
	#DEBUG_VALUE: fall_time <- [R11+0]
	.loc	2 123 0                 # C:/Users/user/workspace/lib_i2c/src/i2c_master.xc:123:0
	stw r11, sp[1]
.Lxta.call_labels29:
	bl tx8
.Ltmp345:
	#DEBUG_VALUE: ack <- R0
	.loc	2 125 7                 # C:/Users/user/workspace/lib_i2c/src/i2c_master.xc:125:7
	eq r0, r0, 0
.Ltmp346:
	#DEBUG_VALUE: j <- 0
	.loc	2 125 7                 # C:/Users/user/workspace/lib_i2c/src/i2c_master.xc:125:7
	stw r0, sp[3]                   # 4-byte Folded Spill
	ldw r0, sp[6]                   # 4-byte Folded Reload
	bf r0, .LBB14_10
.Ltmp347:
# BB#3:                                 # %expdone
	#DEBUG_VALUE: _i.i2c_master_if._Si2c_master_0.0.read:device <- undef
	#DEBUG_VALUE: _i.i2c_master_if._Si2c_master_0.0.read:buf <- [SP+20]
	#DEBUG_VALUE: _i.i2c_master_if._Si2c_master_0.0.read:m <- [SP+24]
	#DEBUG_VALUE: _i.i2c_master_if._Si2c_master_0.0.read:send_stop_bit <- undef
	.loc	2 125 7                 # C:/Users/user/workspace/lib_i2c/src/i2c_master.xc:125:7
	ldw r0, sp[3]                   # 4-byte Folded Reload
	eq r0, r0, 0
	bt r0, .LBB14_10
.Ltmp348:
# BB#4:                                 # %LoopBody66.preheader
	#DEBUG_VALUE: _i.i2c_master_if._Si2c_master_0.0.read:device <- undef
	#DEBUG_VALUE: _i.i2c_master_if._Si2c_master_0.0.read:buf <- [SP+20]
	#DEBUG_VALUE: _i.i2c_master_if._Si2c_master_0.0.read:m <- [SP+24]
	#DEBUG_VALUE: _i.i2c_master_if._Si2c_master_0.0.read:send_stop_bit <- undef
	.loc	2 135 0                 # C:/Users/user/workspace/lib_i2c/src/i2c_master.xc:135:0
	get r11, id
	.loc	2 135 0                 # C:/Users/user/workspace/lib_i2c/src/i2c_master.xc:135:0
	ldaw r0, dp[__timers]
	.loc	2 135 0                 # C:/Users/user/workspace/lib_i2c/src/i2c_master.xc:135:0
	ldw r9, r0[r11]
	.loc	2 137 11                # C:/Users/user/workspace/lib_i2c/src/i2c_master.xc:137:11
.Ltmp349:
	ldw r0, sp[6]                   # 4-byte Folded Reload
	sub r0, r0, 1
	stw r0, sp[4]                   # 4-byte Folded Spill
	ldc r11, 0
	ldaw r7, sp[7]
	ldc r5, 510
	mov r10, r11
.Ltmp350:
.LBB14_5:                               # %LoopBody66
                                        # =>This Loop Header: Depth=1
                                        #     Child Loop BB14_6 Depth 2
.Lxtalabel45:
	#DEBUG_VALUE: _i.i2c_master_if._Si2c_master_0.0.read:device <- undef
	#DEBUG_VALUE: _i.i2c_master_if._Si2c_master_0.0.read:buf <- [SP+20]
	#DEBUG_VALUE: _i.i2c_master_if._Si2c_master_0.0.read:m <- [SP+24]
	#DEBUG_VALUE: _i.i2c_master_if._Si2c_master_0.0.read:send_stop_bit <- undef
	#DEBUG_VALUE: data <- 0
	#DEBUG_VALUE: i <- 8
	ldw r6, cp[.LCPI14_0]
	mov r4, r11
.Ltmp351:
.LBB14_6:                               # %LoopBody75
                                        #   Parent Loop BB14_5 Depth=1
                                        # =>  This Inner Loop Header: Depth=2
.Lxtalabel46:
	#DEBUG_VALUE: _i.i2c_master_if._Si2c_master_0.0.read:device <- undef
	#DEBUG_VALUE: _i.i2c_master_if._Si2c_master_0.0.read:buf <- [SP+20]
	#DEBUG_VALUE: _i.i2c_master_if._Si2c_master_0.0.read:m <- [SP+24]
	#DEBUG_VALUE: _i.i2c_master_if._Si2c_master_0.0.read:send_stop_bit <- undef
	#DEBUG_VALUE: data <- 0
	#DEBUG_VALUE: i <- 8
	.loc	2 130 0                 # C:/Users/user/workspace/lib_i2c/src/i2c_master.xc:130:0
	ldw r0, r8[6]
	.loc	2 130 0                 # C:/Users/user/workspace/lib_i2c/src/i2c_master.xc:130:0
	ldw r1, r8[7]
	.loc	2 130 0                 # C:/Users/user/workspace/lib_i2c/src/i2c_master.xc:130:0
	ldw r2, r8[9]
.Ltmp352:
	#DEBUG_VALUE: fall_time <- [R7+0]
	.loc	2 130 0                 # C:/Users/user/workspace/lib_i2c/src/i2c_master.xc:130:0
	mov r3, r7
.Lxta.call_labels30:
	bl high_pulse_sample
.Ltmp353:
	#DEBUG_VALUE: temp <- R0
	.loc	2 131 0                 # C:/Users/user/workspace/lib_i2c/src/i2c_master.xc:131:0
	shl r1, r4, 1
	.loc	2 131 0                 # C:/Users/user/workspace/lib_i2c/src/i2c_master.xc:131:0
	and r1, r1, r5
	.loc	2 131 0                 # C:/Users/user/workspace/lib_i2c/src/i2c_master.xc:131:0
	or r4, r0, r1
.Ltmp354:
	.loc	2 129 0                 # C:/Users/user/workspace/lib_i2c/src/i2c_master.xc:129:0
	add r6, r6, 1
.xtaloop 8
	# LOOPMARKER 1
.Lxta.loop_labels9:
	# LOOPMARKER 0
	.loc	2 129 0                 # C:/Users/user/workspace/lib_i2c/src/i2c_master.xc:129:0
	bt r6, .LBB14_6
.Ltmp355:
# BB#7:                                 # %afterboundcheck
                                        #   in Loop: Header=BB14_5 Depth=1
.Lxtalabel47:
	#DEBUG_VALUE: _i.i2c_master_if._Si2c_master_0.0.read:device <- undef
	#DEBUG_VALUE: _i.i2c_master_if._Si2c_master_0.0.read:buf <- [SP+20]
	#DEBUG_VALUE: _i.i2c_master_if._Si2c_master_0.0.read:m <- [SP+24]
	#DEBUG_VALUE: _i.i2c_master_if._Si2c_master_0.0.read:send_stop_bit <- undef
	#DEBUG_VALUE: fall_time <- [R7+0]
	#DEBUG_VALUE: data <- 0
	.loc	2 133 0                 # C:/Users/user/workspace/lib_i2c/src/i2c_master.xc:133:0
	ldw r0, sp[5]                   # 4-byte Folded Reload
	st8 r4, r0[r10]
	.loc	2 135 0                 # C:/Users/user/workspace/lib_i2c/src/i2c_master.xc:135:0
	ldw r0, sp[7]
	.loc	2 135 0                 # C:/Users/user/workspace/lib_i2c/src/i2c_master.xc:135:0
	ldw r1, r8[9]
	.loc	2 135 0                 # C:/Users/user/workspace/lib_i2c/src/i2c_master.xc:135:0
	shr r2, r1, 2
	.loc	2 135 0                 # C:/Users/user/workspace/lib_i2c/src/i2c_master.xc:135:0
	add r2, r2, r0
	.loc	2 135 0                 # C:/Users/user/workspace/lib_i2c/src/i2c_master.xc:135:0
	setd res[r9], r2
	.loc	2 135 0                 # C:/Users/user/workspace/lib_i2c/src/i2c_master.xc:135:0
	setc res[r9], 9
	.loc	2 135 0                 # C:/Users/user/workspace/lib_i2c/src/i2c_master.xc:135:0
.Ltmp356:
.Lxta.endpoint_labels27:
	in r2, res[r9]
	.loc	2 138 0                 # C:/Users/user/workspace/lib_i2c/src/i2c_master.xc:138:0
	ldw r2, r8[7]
	.loc	2 137 11                # C:/Users/user/workspace/lib_i2c/src/i2c_master.xc:137:11
	ldw r3, sp[4]                   # 4-byte Folded Reload
	eq r3, r10, r3
	bf r3, .LBB14_13
.Ltmp357:
# BB#8:                                 # %iftrue101
                                        #   in Loop: Header=BB14_5 Depth=1
.Lxtalabel48:
	#DEBUG_VALUE: _i.i2c_master_if._Si2c_master_0.0.read:device <- undef
	#DEBUG_VALUE: _i.i2c_master_if._Si2c_master_0.0.read:buf <- [SP+20]
	#DEBUG_VALUE: _i.i2c_master_if._Si2c_master_0.0.read:m <- [SP+24]
	#DEBUG_VALUE: _i.i2c_master_if._Si2c_master_0.0.read:send_stop_bit <- undef
	#DEBUG_VALUE: fall_time <- [R7+0]
	#DEBUG_VALUE: data <- 0
	.loc	2 138 0                 # C:/Users/user/workspace/lib_i2c/src/i2c_master.xc:138:0
	setc res[r2], 1
	.loc	2 138 0                 # C:/Users/user/workspace/lib_i2c/src/i2c_master.xc:138:0
.Ltmp358:
.Lxta.endpoint_labels28:
	in r2, res[r2]
	ldc r11, 0
	bu .LBB14_9
.Ltmp359:
.LBB14_13:                              # %iffalse109
                                        #   in Loop: Header=BB14_5 Depth=1
.Lxtalabel49:
	#DEBUG_VALUE: _i.i2c_master_if._Si2c_master_0.0.read:device <- undef
	#DEBUG_VALUE: _i.i2c_master_if._Si2c_master_0.0.read:buf <- [SP+20]
	#DEBUG_VALUE: _i.i2c_master_if._Si2c_master_0.0.read:m <- [SP+24]
	#DEBUG_VALUE: _i.i2c_master_if._Si2c_master_0.0.read:send_stop_bit <- undef
	#DEBUG_VALUE: fall_time <- [R7+0]
	#DEBUG_VALUE: data <- 0
	ldc r11, 0
	.loc	2 140 23                # C:/Users/user/workspace/lib_i2c/src/i2c_master.xc:140:23
.Lxta.endpoint_labels29:
	out res[r2], r11
.Ltmp360:
.LBB14_9:                               # %ifdone102
                                        #   in Loop: Header=BB14_5 Depth=1
.Lxtalabel50:
	#DEBUG_VALUE: _i.i2c_master_if._Si2c_master_0.0.read:device <- undef
	#DEBUG_VALUE: _i.i2c_master_if._Si2c_master_0.0.read:buf <- [SP+20]
	#DEBUG_VALUE: _i.i2c_master_if._Si2c_master_0.0.read:m <- [SP+24]
	#DEBUG_VALUE: _i.i2c_master_if._Si2c_master_0.0.read:send_stop_bit <- undef
	#DEBUG_VALUE: fall_time <- [R7+0]
	#DEBUG_VALUE: data <- 0
	.loc	2 143 0                 # C:/Users/user/workspace/lib_i2c/src/i2c_master.xc:143:0
	shr r2, r1, 1
	.loc	2 143 0                 # C:/Users/user/workspace/lib_i2c/src/i2c_master.xc:143:0
	add r2, r2, r0
	.loc	2 143 0                 # C:/Users/user/workspace/lib_i2c/src/i2c_master.xc:143:0
	shr r3, r1, 5
	.loc	2 143 0                 # C:/Users/user/workspace/lib_i2c/src/i2c_master.xc:143:0
	add r2, r2, r3
	.loc	2 143 0                 # C:/Users/user/workspace/lib_i2c/src/i2c_master.xc:143:0
	setd res[r9], r2
	.loc	2 143 0                 # C:/Users/user/workspace/lib_i2c/src/i2c_master.xc:143:0
	setc res[r9], 9
	.loc	2 143 0                 # C:/Users/user/workspace/lib_i2c/src/i2c_master.xc:143:0
.Ltmp361:
.Lxta.endpoint_labels30:
	in r2, res[r9]
	.loc	2 144 0                 # C:/Users/user/workspace/lib_i2c/src/i2c_master.xc:144:0
	ldw r2, r8[6]
.Ltmp362:
	#DEBUG_VALUE: release_clock_and_wait:i2c_scl <- R2
	.loc	2 144 0                 # C:/Users/user/workspace/lib_i2c/src/i2c_master.xc:144:0
	add r1, r1, 1
.Ltmp363:
	#DEBUG_VALUE: release_clock_and_wait:delay <- R1
	mkmsk r3, 1
	.loc	2 18 0                  # C:/Users/user/workspace/lib_i2c/src/i2c_master.xc:18:0
.Ltmp364:
	setd res[r2], r3
	.loc	2 18 0                  # C:/Users/user/workspace/lib_i2c/src/i2c_master.xc:18:0
	setc res[r2], 17
	.loc	2 18 0                  # C:/Users/user/workspace/lib_i2c/src/i2c_master.xc:18:0
.Ltmp365:
.Lxta.endpoint_labels31:
	in r2, res[r2]
.Ltmp366:
	.loc	2 19 0                  # C:/Users/user/workspace/lib_i2c/src/i2c_master.xc:19:0
	add r0, r0, r1
	.loc	2 19 0                  # C:/Users/user/workspace/lib_i2c/src/i2c_master.xc:19:0
	setd res[r9], r0
	.loc	2 19 0                  # C:/Users/user/workspace/lib_i2c/src/i2c_master.xc:19:0
	setc res[r9], 9
	.loc	2 19 0                  # C:/Users/user/workspace/lib_i2c/src/i2c_master.xc:19:0
.Lxta.endpoint_labels32:
	in r0, res[r9]
.Ltmp367:
	#DEBUG_VALUE: time <- R0
	.loc	2 21 0                  # C:/Users/user/workspace/lib_i2c/src/i2c_master.xc:21:0
	sub r0, r0, r1
.Ltmp368:
	.loc	2 21 0                  # C:/Users/user/workspace/lib_i2c/src/i2c_master.xc:21:0
	stw r0, sp[7]
.Ltmp369:
	.loc	2 145 21                # C:/Users/user/workspace/lib_i2c/src/i2c_master.xc:145:21
	ldw r1, r8[6]
.Ltmp370:
	.loc	2 145 21                # C:/Users/user/workspace/lib_i2c/src/i2c_master.xc:145:21
.Lxta.endpoint_labels33:
	out res[r1], r11
	.loc	2 146 0                 # C:/Users/user/workspace/lib_i2c/src/i2c_master.xc:146:0
	ldw r1, r8[7]
	.loc	2 146 0                 # C:/Users/user/workspace/lib_i2c/src/i2c_master.xc:146:0
	setc res[r1], 1
	.loc	2 146 0                 # C:/Users/user/workspace/lib_i2c/src/i2c_master.xc:146:0
.Ltmp371:
.Lxta.endpoint_labels34:
	in r1, res[r1]
	.loc	2 147 0                 # C:/Users/user/workspace/lib_i2c/src/i2c_master.xc:147:0
	ldw r1, r8[9]
	.loc	2 147 0                 # C:/Users/user/workspace/lib_i2c/src/i2c_master.xc:147:0
	add r0, r1, r0
.Ltmp372:
	#DEBUG_VALUE: fall_time <- R0
	.loc	2 147 0                 # C:/Users/user/workspace/lib_i2c/src/i2c_master.xc:147:0
	stw r0, sp[7]
.Ltmp373:
	.loc	2 126 0                 # C:/Users/user/workspace/lib_i2c/src/i2c_master.xc:126:0
	add r10, r10, 1
.Ltmp374:
	#DEBUG_VALUE: j <- R10
	.loc	2 126 0                 # C:/Users/user/workspace/lib_i2c/src/i2c_master.xc:126:0
	ldw r0, sp[6]                   # 4-byte Folded Reload
.Ltmp375:
	lsu r0, r10, r0
.Lxta.loop_labels10:
	# LOOPMARKER 2
	bt r0, .LBB14_5
.Ltmp376:
.LBB14_10:                              # %ifdone56
.Lxtalabel51:
	#DEBUG_VALUE: _i.i2c_master_if._Si2c_master_0.0.read:device <- undef
	#DEBUG_VALUE: _i.i2c_master_if._Si2c_master_0.0.read:send_stop_bit <- undef
	ldw r0, sp[2]                   # 4-byte Folded Reload
	ldw r1, sp[17]
	bf r1, .LBB14_12
# BB#11:                                # %iftrue147
.Lxtalabel52:
	#DEBUG_VALUE: _i.i2c_master_if._Si2c_master_0.0.read:device <- undef
	.loc	2 151 0                 # C:/Users/user/workspace/lib_i2c/src/i2c_master.xc:151:0
	ldw r0, r8[6]
	.loc	2 151 0                 # C:/Users/user/workspace/lib_i2c/src/i2c_master.xc:151:0
	ldw r1, r8[7]
	.loc	2 151 0                 # C:/Users/user/workspace/lib_i2c/src/i2c_master.xc:151:0
	ldw r2, r8[9]
	.loc	2 151 0                 # C:/Users/user/workspace/lib_i2c/src/i2c_master.xc:151:0
	ldw r3, sp[7]
	.loc	2 151 0                 # C:/Users/user/workspace/lib_i2c/src/i2c_master.xc:151:0
.Lxta.call_labels31:
	bl stop_bit
	mkmsk r0, 32
.Ltmp377:
.LBB14_12:                              # %ifdone148
.Lxtalabel53:
	#DEBUG_VALUE: _i.i2c_master_if._Si2c_master_0.0.read:device <- undef
	stw r0, r8[10]
	clre
	ldw r0, sp[3]                   # 4-byte Folded Reload
	ldw r10, sp[14]                 # 4-byte Folded Reload
	ldd r9, r8, sp[6]               # 4-byte Folded Reload
	ldd r7, r6, sp[5]               # 4-byte Folded Reload
	ldd r5, r4, sp[4]               # 4-byte Folded Reload
	retsp 16
	# RETURN_REG_HOLDER
	.cc_bottom _i.i2c_master_if._Si2c_master_0.0.read.function
	.set	_i.i2c_master_if._Si2c_master_0.0.read.nstackwords,((start_bit.nstackwords $M tx8.nstackwords $M stop_bit.nstackwords $M high_pulse_sample.nstackwords) + 16)
	.globl	_i.i2c_master_if._Si2c_master_0.0.read.nstackwords
	.set	_i.i2c_master_if._Si2c_master_0.0.read.maxcores,high_pulse_sample.maxcores $M start_bit.maxcores $M stop_bit.maxcores $M tx8.maxcores $M 1
	.globl	_i.i2c_master_if._Si2c_master_0.0.read.maxcores
	.set	_i.i2c_master_if._Si2c_master_0.0.read.maxtimers,high_pulse_sample.maxtimers $M start_bit.maxtimers $M stop_bit.maxtimers $M tx8.maxtimers $M 0
	.globl	_i.i2c_master_if._Si2c_master_0.0.read.maxtimers
	.set	_i.i2c_master_if._Si2c_master_0.0.read.maxchanends,high_pulse_sample.maxchanends $M start_bit.maxchanends $M stop_bit.maxchanends $M tx8.maxchanends $M 0
	.globl	_i.i2c_master_if._Si2c_master_0.0.read.maxchanends
.Ltmp378:
	.size	_i.i2c_master_if._Si2c_master_0.0.read, .Ltmp378-_i.i2c_master_if._Si2c_master_0.0.read
.Lfunc_end14:
	.cfi_endproc

	.globl	_i.i2c_master_if._Si2c_master_0.0.write
	.align	4
	.type	_i.i2c_master_if._Si2c_master_0.0.write,@function
	.cc_top _i.i2c_master_if._Si2c_master_0.0.write.function,_i.i2c_master_if._Si2c_master_0.0.write
_i.i2c_master_if._Si2c_master_0.0.write: # @_i.i2c_master_if._Si2c_master_0.0.write
.Lfunc_begin15:
	.loc	2 161 0                 # C:/Users/user/workspace/lib_i2c/src/i2c_master.xc:161:0
	.cfi_startproc
	.issue_mode single
# BB#0:                                 # %allocas
	ENTSP_lu6 12
.Ltmp379:
	.cfi_def_cfa_offset 48
.Ltmp380:
	.cfi_offset 15, 0
	std r5, r4, sp[2]               # 4-byte Folded Spill
.Ltmp381:
	.cfi_offset 4, -32
.Ltmp382:
	.cfi_offset 5, -28
	std r7, r6, sp[3]               # 4-byte Folded Spill
.Ltmp383:
	.cfi_offset 6, -24
.Ltmp384:
	.cfi_offset 7, -20
	std r9, r8, sp[4]               # 4-byte Folded Spill
.Ltmp385:
	.cfi_offset 8, -16
.Ltmp386:
	.cfi_offset 9, -12
	stw r10, sp[10]                 # 4-byte Folded Spill
.Ltmp387:
	.cfi_offset 10, -8
	#DEBUG_VALUE: _i.i2c_master_if._Si2c_master_0.0.write:p <- R0
	#DEBUG_VALUE: _i.i2c_master_if._Si2c_master_0.0.write:device <- R1
	#DEBUG_VALUE: _i.i2c_master_if._Si2c_master_0.0.write:buf <- R2
	#DEBUG_VALUE: _i.i2c_master_if._Si2c_master_0.0.write:n <- R3
	mov r4, r3
.Ltmp388:
	#DEBUG_VALUE: _i.i2c_master_if._Si2c_master_0.0.write:n <- R4
	mov r5, r2
.Ltmp389:
	#DEBUG_VALUE: _i.i2c_master_if._Si2c_master_0.0.write:buf <- R5
	mov r6, r1
.Ltmp390:
	#DEBUG_VALUE: _i.i2c_master_if._Si2c_master_0.0.write:device <- undef
	#DEBUG_VALUE: _i.i2c_master_if._Si2c_master_0.0.write:device <- R6
	ldw r7, r0[0]
	ldw r8, r0[1]
.Ltmp391:
.LBB15_1:                               # %LoopTest
                                        # =>This Inner Loop Header: Depth=1
	#DEBUG_VALUE: _i.i2c_master_if._Si2c_master_0.0.write:device <- undef
	#DEBUG_VALUE: _i.i2c_master_if._Si2c_master_0.0.write:buf <- R5
	#DEBUG_VALUE: _i.i2c_master_if._Si2c_master_0.0.write:n <- R4
	ldw r0, r7[0]
	bf r0, .LBB15_1
.Ltmp392:
# BB#2:                                 # %expdone
	#DEBUG_VALUE: _i.i2c_master_if._Si2c_master_0.0.write:device <- undef
	#DEBUG_VALUE: _i.i2c_master_if._Si2c_master_0.0.write:buf <- R5
	#DEBUG_VALUE: _i.i2c_master_if._Si2c_master_0.0.write:n <- R4
	#DEBUG_VALUE: _i.i2c_master_if._Si2c_master_0.0.write:send_stop_bit <- undef
	#DEBUG_VALUE: ack <- 0
	.loc	2 168 0 prologue_end    # C:/Users/user/workspace/lib_i2c/src/i2c_master.xc:168:0
	ldw r0, r7[6]
	.loc	2 168 0                 # C:/Users/user/workspace/lib_i2c/src/i2c_master.xc:168:0
	ldw r1, r7[7]
	.loc	2 168 0                 # C:/Users/user/workspace/lib_i2c/src/i2c_master.xc:168:0
	ldw r2, r7[9]
	.loc	2 168 0                 # C:/Users/user/workspace/lib_i2c/src/i2c_master.xc:168:0
.Lxta.call_labels32:
	bl start_bit
.Ltmp393:
	#DEBUG_VALUE: fall_time <- R0
	.loc	2 168 0                 # C:/Users/user/workspace/lib_i2c/src/i2c_master.xc:168:0
	stw r0, sp[3]
	.loc	2 169 0                 # C:/Users/user/workspace/lib_i2c/src/i2c_master.xc:169:0
	ldw r0, r7[6]
.Ltmp394:
	.loc	2 169 0                 # C:/Users/user/workspace/lib_i2c/src/i2c_master.xc:169:0
	ldw r1, r7[7]
	.loc	2 169 0                 # C:/Users/user/workspace/lib_i2c/src/i2c_master.xc:169:0
	shl r2, r6, 1
	.loc	2 169 0                 # C:/Users/user/workspace/lib_i2c/src/i2c_master.xc:169:0
	ldw r3, r7[9]
	ldaw r10, sp[3]
.Ltmp395:
	#DEBUG_VALUE: fall_time <- [R10+0]
	.loc	2 169 0                 # C:/Users/user/workspace/lib_i2c/src/i2c_master.xc:169:0
	stw r10, sp[1]
.Lxta.call_labels33:
	bl tx8
	mov r6, r0
.Ltmp396:
	#DEBUG_VALUE: j <- 0
	#DEBUG_VALUE: ack <- R6
	ldc r9, 0
	bf r4, .LBB15_3
.Ltmp397:
.LBB15_6:                               # %LoopBody60
                                        # =>This Inner Loop Header: Depth=1
.Lxtalabel54:
	#DEBUG_VALUE: _i.i2c_master_if._Si2c_master_0.0.write:device <- undef
	#DEBUG_VALUE: _i.i2c_master_if._Si2c_master_0.0.write:buf <- R5
	#DEBUG_VALUE: _i.i2c_master_if._Si2c_master_0.0.write:n <- R4
	#DEBUG_VALUE: _i.i2c_master_if._Si2c_master_0.0.write:send_stop_bit <- undef
	bt r6, .LBB15_3
.Ltmp398:
# BB#7:                                 # %afterboundcheck
                                        #   in Loop: Header=BB15_6 Depth=1
.Lxtalabel55:
	#DEBUG_VALUE: _i.i2c_master_if._Si2c_master_0.0.write:device <- undef
	#DEBUG_VALUE: _i.i2c_master_if._Si2c_master_0.0.write:buf <- R5
	#DEBUG_VALUE: _i.i2c_master_if._Si2c_master_0.0.write:n <- R4
	#DEBUG_VALUE: _i.i2c_master_if._Si2c_master_0.0.write:send_stop_bit <- undef
	.loc	2 175 0                 # C:/Users/user/workspace/lib_i2c/src/i2c_master.xc:175:0
	ldw r1, r7[7]
	.loc	2 175 0                 # C:/Users/user/workspace/lib_i2c/src/i2c_master.xc:175:0
	ldw r0, r7[6]
	.loc	2 175 0                 # C:/Users/user/workspace/lib_i2c/src/i2c_master.xc:175:0
	ld8u r2, r5[r9]
	.loc	2 175 0                 # C:/Users/user/workspace/lib_i2c/src/i2c_master.xc:175:0
	ldw r3, r7[9]
.Ltmp399:
	#DEBUG_VALUE: fall_time <- [R10+0]
	.loc	2 175 0                 # C:/Users/user/workspace/lib_i2c/src/i2c_master.xc:175:0
	stw r10, sp[1]
.Lxta.call_labels34:
	bl tx8
	mov r6, r0
.Ltmp400:
	#DEBUG_VALUE: ack <- R6
	.loc	2 171 0                 # C:/Users/user/workspace/lib_i2c/src/i2c_master.xc:171:0
	add r9, r9, 1
.Ltmp401:
	#DEBUG_VALUE: j <- R9
	.loc	2 171 0                 # C:/Users/user/workspace/lib_i2c/src/i2c_master.xc:171:0
	lsu r0, r9, r4
.Lxta.loop_labels11:
	# LOOPMARKER 0
	bt r0, .LBB15_6
.Ltmp402:
.LBB15_3:                               # %ifdone55
.Lxtalabel56:
	#DEBUG_VALUE: _i.i2c_master_if._Si2c_master_0.0.write:device <- undef
	#DEBUG_VALUE: _i.i2c_master_if._Si2c_master_0.0.write:send_stop_bit <- undef
	#DEBUG_VALUE: j <- 0
	ldw r4, sp[13]
	#DEBUG_VALUE: _i.i2c_master_if._Si2c_master_0.0.write:num_bytes_sent <- R4
	ldw r0, sp[14]
	.loc	2 177 7                 # C:/Users/user/workspace/lib_i2c/src/i2c_master.xc:177:7
	bf r0, .LBB15_8
.Ltmp403:
# BB#4:                                 # %iftrue82
.Lxtalabel57:
	#DEBUG_VALUE: _i.i2c_master_if._Si2c_master_0.0.write:device <- undef
	#DEBUG_VALUE: j <- 0
	#DEBUG_VALUE: _i.i2c_master_if._Si2c_master_0.0.write:num_bytes_sent <- R4
	.loc	2 178 0                 # C:/Users/user/workspace/lib_i2c/src/i2c_master.xc:178:0
	ldw r0, r7[6]
	.loc	2 178 0                 # C:/Users/user/workspace/lib_i2c/src/i2c_master.xc:178:0
	ldw r1, r7[7]
	.loc	2 178 0                 # C:/Users/user/workspace/lib_i2c/src/i2c_master.xc:178:0
	ldw r2, r7[9]
	.loc	2 178 0                 # C:/Users/user/workspace/lib_i2c/src/i2c_master.xc:178:0
	ldw r3, sp[3]
	.loc	2 178 0                 # C:/Users/user/workspace/lib_i2c/src/i2c_master.xc:178:0
.Lxta.call_labels35:
	bl stop_bit
	mkmsk r8, 32
	bu .LBB15_5
.Ltmp404:
.LBB15_8:                               # %iffalse85
.Lxtalabel58:
	#DEBUG_VALUE: _i.i2c_master_if._Si2c_master_0.0.write:device <- undef
	#DEBUG_VALUE: j <- 0
	#DEBUG_VALUE: _i.i2c_master_if._Si2c_master_0.0.write:num_bytes_sent <- R4
	.loc	2 183 0                 # C:/Users/user/workspace/lib_i2c/src/i2c_master.xc:183:0
	get r11, id
	.loc	2 183 0                 # C:/Users/user/workspace/lib_i2c/src/i2c_master.xc:183:0
	ldaw r0, dp[__timers]
	.loc	2 183 0                 # C:/Users/user/workspace/lib_i2c/src/i2c_master.xc:183:0
	ldw r0, r0[r11]
	.loc	2 183 0                 # C:/Users/user/workspace/lib_i2c/src/i2c_master.xc:183:0
	ldw r1, sp[3]
	.loc	2 183 0                 # C:/Users/user/workspace/lib_i2c/src/i2c_master.xc:183:0
	ldw r2, r7[9]
	.loc	2 183 0                 # C:/Users/user/workspace/lib_i2c/src/i2c_master.xc:183:0
	shr r2, r2, 1
	.loc	2 183 0                 # C:/Users/user/workspace/lib_i2c/src/i2c_master.xc:183:0
	add r1, r2, r1
	.loc	2 183 0                 # C:/Users/user/workspace/lib_i2c/src/i2c_master.xc:183:0
	setd res[r0], r1
	.loc	2 183 0                 # C:/Users/user/workspace/lib_i2c/src/i2c_master.xc:183:0
	setc res[r0], 9
	.loc	2 183 0                 # C:/Users/user/workspace/lib_i2c/src/i2c_master.xc:183:0
.Ltmp405:
.Lxta.endpoint_labels35:
	in r0, res[r0]
.Ltmp406:
.LBB15_5:                               # %ifdone83
.Lxtalabel59:
	#DEBUG_VALUE: _i.i2c_master_if._Si2c_master_0.0.write:device <- undef
	#DEBUG_VALUE: j <- 0
	#DEBUG_VALUE: _i.i2c_master_if._Si2c_master_0.0.write:num_bytes_sent <- R4
	stw r8, r7[10]
	.loc	2 186 0                 # C:/Users/user/workspace/lib_i2c/src/i2c_master.xc:186:0
	stw r9, r4[0]
	.loc	2 187 0                 # C:/Users/user/workspace/lib_i2c/src/i2c_master.xc:187:0
	eq r0, r6, 0
	clre
	ldw r10, sp[10]                 # 4-byte Folded Reload
	ldd r9, r8, sp[4]               # 4-byte Folded Reload
	ldd r7, r6, sp[3]               # 4-byte Folded Reload
	ldd r5, r4, sp[2]               # 4-byte Folded Reload
.Ltmp407:
	retsp 12
	# RETURN_REG_HOLDER
.Ltmp408:
	.cc_bottom _i.i2c_master_if._Si2c_master_0.0.write.function
	.set	_i.i2c_master_if._Si2c_master_0.0.write.nstackwords,((start_bit.nstackwords $M stop_bit.nstackwords $M tx8.nstackwords) + 12)
	.globl	_i.i2c_master_if._Si2c_master_0.0.write.nstackwords
	.set	_i.i2c_master_if._Si2c_master_0.0.write.maxcores,start_bit.maxcores $M stop_bit.maxcores $M tx8.maxcores $M 1
	.globl	_i.i2c_master_if._Si2c_master_0.0.write.maxcores
	.set	_i.i2c_master_if._Si2c_master_0.0.write.maxtimers,start_bit.maxtimers $M stop_bit.maxtimers $M tx8.maxtimers $M 0
	.globl	_i.i2c_master_if._Si2c_master_0.0.write.maxtimers
	.set	_i.i2c_master_if._Si2c_master_0.0.write.maxchanends,start_bit.maxchanends $M stop_bit.maxchanends $M tx8.maxchanends $M 0
	.globl	_i.i2c_master_if._Si2c_master_0.0.write.maxchanends
.Ltmp409:
	.size	_i.i2c_master_if._Si2c_master_0.0.write, .Ltmp409-_i.i2c_master_if._Si2c_master_0.0.write
.Lfunc_end15:
	.cfi_endproc

	.weak	_i.i2c_master_if._chan.shutdown
	.align	4
	.type	_i.i2c_master_if._chan.shutdown,@function
	.cc_top _i.i2c_master_if._chan.shutdown.function,_i.i2c_master_if._chan.shutdown
_i.i2c_master_if._chan.shutdown:        # @_i.i2c_master_if._chan.shutdown
	.cfi_startproc
	.issue_mode single
# BB#0:                                 # %allocas
	ENTSP_lu6 4
.Ltmp410:
	.cfi_def_cfa_offset 16
.Ltmp411:
	.cfi_offset 15, 0
	stw r4, sp[2]                   # 4-byte Folded Spill
.Ltmp412:
	.cfi_offset 4, -8
	#DEBUG_VALUE: _i.i2c_master_if._chan.shutdown:dest <- R0
	getr r4, 2
	setd res[r4], r0
	add r0, r4, 3
	out res[r4], r0
	outct res[r4], 2
	ldc r1, 0
	mov r0, r4
	bl __interface_wait_and_yield
	in r0, res[r4]
	chkct res[r4], 1
	freer res[r4]
	ldw r4, sp[2]                   # 4-byte Folded Reload
	retsp 4
	# RETURN_REG_HOLDER
	.cc_bottom _i.i2c_master_if._chan.shutdown.function
	.set	_i.i2c_master_if._chan.shutdown.nstackwords,((_i.i2c_master_if._client_call_y.max.nstackwords $M ($D __interface_wait_and_yield.nstackwords ? __interface_wait_and_yield.nstackwords $: _i.i2c_master_if._client_call_y.max.nstackwords)) + 4)
	.globl	_i.i2c_master_if._chan.shutdown.nstackwords
	.weak	_i.i2c_master_if._chan.shutdown.nstackwords
	.set	_i.i2c_master_if._chan.shutdown.maxcores,($D __interface_wait_and_yield.maxcores ? __interface_wait_and_yield.maxcores $: _i.i2c_master_if._client_call_y.max.maxcores) $M 1
	.globl	_i.i2c_master_if._chan.shutdown.maxcores
	.weak	_i.i2c_master_if._chan.shutdown.maxcores
	.set	_i.i2c_master_if._chan.shutdown.maxtimers,($D __interface_wait_and_yield.maxtimers ? __interface_wait_and_yield.maxtimers $: _i.i2c_master_if._client_call_y.max.maxtimers) $M 0
	.globl	_i.i2c_master_if._chan.shutdown.maxtimers
	.weak	_i.i2c_master_if._chan.shutdown.maxtimers
	.set	_i.i2c_master_if._chan.shutdown.maxchanends,(1 + ($D __interface_wait_and_yield.maxchanends ? __interface_wait_and_yield.maxchanends $: _i.i2c_master_if._client_call_y.max.maxchanends)) $M 1
	.globl	_i.i2c_master_if._chan.shutdown.maxchanends
	.weak	_i.i2c_master_if._chan.shutdown.maxchanends
.Ltmp413:
	.size	_i.i2c_master_if._chan.shutdown, .Ltmp413-_i.i2c_master_if._chan.shutdown
	.cfi_endproc

	.weak	_i.i2c_master_if._chan.send_stop_bit
	.align	4
	.type	_i.i2c_master_if._chan.send_stop_bit,@function
	.cc_top _i.i2c_master_if._chan.send_stop_bit.function,_i.i2c_master_if._chan.send_stop_bit
_i.i2c_master_if._chan.send_stop_bit:   # @_i.i2c_master_if._chan.send_stop_bit
	.cfi_startproc
	.issue_mode single
# BB#0:                                 # %allocas
	ENTSP_lu6 4
.Ltmp414:
	.cfi_def_cfa_offset 16
.Ltmp415:
	.cfi_offset 15, 0
	stw r4, sp[2]                   # 4-byte Folded Spill
.Ltmp416:
	.cfi_offset 4, -8
	#DEBUG_VALUE: _i.i2c_master_if._chan.send_stop_bit:dest <- R0
	getr r4, 2
	setd res[r4], r0
	add r0, r4, 2
	out res[r4], r0
	outct res[r4], 2
	ldc r1, 0
	mov r0, r4
	bl __interface_wait_and_yield
	in r0, res[r4]
	chkct res[r4], 1
	freer res[r4]
	ldw r4, sp[2]                   # 4-byte Folded Reload
	retsp 4
	# RETURN_REG_HOLDER
	.cc_bottom _i.i2c_master_if._chan.send_stop_bit.function
	.set	_i.i2c_master_if._chan.send_stop_bit.nstackwords,((_i.i2c_master_if._client_call_y.max.nstackwords $M ($D __interface_wait_and_yield.nstackwords ? __interface_wait_and_yield.nstackwords $: _i.i2c_master_if._client_call_y.max.nstackwords)) + 4)
	.globl	_i.i2c_master_if._chan.send_stop_bit.nstackwords
	.weak	_i.i2c_master_if._chan.send_stop_bit.nstackwords
	.set	_i.i2c_master_if._chan.send_stop_bit.maxcores,($D __interface_wait_and_yield.maxcores ? __interface_wait_and_yield.maxcores $: _i.i2c_master_if._client_call_y.max.maxcores) $M 1
	.globl	_i.i2c_master_if._chan.send_stop_bit.maxcores
	.weak	_i.i2c_master_if._chan.send_stop_bit.maxcores
	.set	_i.i2c_master_if._chan.send_stop_bit.maxtimers,($D __interface_wait_and_yield.maxtimers ? __interface_wait_and_yield.maxtimers $: _i.i2c_master_if._client_call_y.max.maxtimers) $M 0
	.globl	_i.i2c_master_if._chan.send_stop_bit.maxtimers
	.weak	_i.i2c_master_if._chan.send_stop_bit.maxtimers
	.set	_i.i2c_master_if._chan.send_stop_bit.maxchanends,(1 + ($D __interface_wait_and_yield.maxchanends ? __interface_wait_and_yield.maxchanends $: _i.i2c_master_if._client_call_y.max.maxchanends)) $M 1
	.globl	_i.i2c_master_if._chan.send_stop_bit.maxchanends
	.weak	_i.i2c_master_if._chan.send_stop_bit.maxchanends
.Ltmp417:
	.size	_i.i2c_master_if._chan.send_stop_bit, .Ltmp417-_i.i2c_master_if._chan.send_stop_bit
	.cfi_endproc

	.weak	_i.i2c_master_if._chan.read
	.align	4
	.type	_i.i2c_master_if._chan.read,@function
	.cc_top _i.i2c_master_if._chan.read.function,_i.i2c_master_if._chan.read
_i.i2c_master_if._chan.read:            # @_i.i2c_master_if._chan.read
	.cfi_startproc
	.issue_mode single
# BB#0:                                 # %allocas
	ENTSP_lu6 8
.Ltmp418:
	.cfi_def_cfa_offset 32
.Ltmp419:
	.cfi_offset 15, 0
	std r5, r4, sp[1]               # 4-byte Folded Spill
.Ltmp420:
	.cfi_offset 4, -24
.Ltmp421:
	.cfi_offset 5, -20
	std r7, r6, sp[2]               # 4-byte Folded Spill
.Ltmp422:
	.cfi_offset 6, -16
.Ltmp423:
	.cfi_offset 7, -12
	stw r8, sp[6]                   # 4-byte Folded Spill
.Ltmp424:
	.cfi_offset 8, -8
	#DEBUG_VALUE: _i.i2c_master_if._chan.read:dest <- R0
	#DEBUG_VALUE: _i.i2c_master_if._chan.read:param1 <- R1
	#DEBUG_VALUE: _i.i2c_master_if._chan.read:param2 <- R2
	#DEBUG_VALUE: _i.i2c_master_if._chan.read:param3 <- R3
	#DEBUG_VALUE: _i.i2c_master_if._chan.read:param4 <- [SP+36]
	mov r5, r3
	#DEBUG_VALUE: _i.i2c_master_if._chan.read:param3 <- R5
	mov r6, r2
	#DEBUG_VALUE: _i.i2c_master_if._chan.read:param2 <- R6
	mov r7, r1
	#DEBUG_VALUE: _i.i2c_master_if._chan.read:param1 <- R7
	ldw r8, sp[9]
	getr r4, 2
	setd res[r4], r0
	add r0, r4, 1
	out res[r4], r0
	outct res[r4], 2
	ldc r1, 0
	mov r0, r4
	bl __interface_wait_and_yield
	chkct res[r4], 1
	outt res[r4], r7
	stw r6, sp[1]
	out res[r4], r5
	out res[r4], r8
	outct res[r4], 2
	ldaw r1, sp[1]
	mov r0, r4
	bl __interface_client_call
	in r0, res[r4]
	chkct res[r4], 1
	freer res[r4]
	ldw r8, sp[6]                   # 4-byte Folded Reload
	ldd r7, r6, sp[2]               # 4-byte Folded Reload
	ldd r5, r4, sp[1]               # 4-byte Folded Reload
	retsp 8
	# RETURN_REG_HOLDER
	.cc_bottom _i.i2c_master_if._chan.read.function
	.set	_i.i2c_master_if._chan.read.nstackwords,((_i.i2c_master_if._client_call_y.max.nstackwords $M ($D __interface_wait_and_yield.nstackwords ? __interface_wait_and_yield.nstackwords $: _i.i2c_master_if._client_call_y.max.nstackwords) $M __interface_client_call.nstackwords) + 8)
	.globl	_i.i2c_master_if._chan.read.nstackwords
	.weak	_i.i2c_master_if._chan.read.nstackwords
	.set	_i.i2c_master_if._chan.read.maxcores,__interface_client_call.maxcores $M ($D __interface_wait_and_yield.maxcores ? __interface_wait_and_yield.maxcores $: _i.i2c_master_if._client_call_y.max.maxcores) $M 1
	.globl	_i.i2c_master_if._chan.read.maxcores
	.weak	_i.i2c_master_if._chan.read.maxcores
	.set	_i.i2c_master_if._chan.read.maxtimers,__interface_client_call.maxtimers $M ($D __interface_wait_and_yield.maxtimers ? __interface_wait_and_yield.maxtimers $: _i.i2c_master_if._client_call_y.max.maxtimers) $M 0
	.globl	_i.i2c_master_if._chan.read.maxtimers
	.weak	_i.i2c_master_if._chan.read.maxtimers
	.set	_i.i2c_master_if._chan.read.maxchanends,(1 + __interface_client_call.maxchanends) $M (1 + ($D __interface_wait_and_yield.maxchanends ? __interface_wait_and_yield.maxchanends $: _i.i2c_master_if._client_call_y.max.maxchanends)) $M 1
	.globl	_i.i2c_master_if._chan.read.maxchanends
	.weak	_i.i2c_master_if._chan.read.maxchanends
.Ltmp425:
	.size	_i.i2c_master_if._chan.read, .Ltmp425-_i.i2c_master_if._chan.read
	.cfi_endproc

	.weak	_i.i2c_master_if._chan.write
	.align	4
	.type	_i.i2c_master_if._chan.write,@function
	.cc_top _i.i2c_master_if._chan.write.function,_i.i2c_master_if._chan.write
_i.i2c_master_if._chan.write:           # @_i.i2c_master_if._chan.write
	.cfi_startproc
	.issue_mode single
# BB#0:                                 # %allocas
	ENTSP_lu6 8
.Ltmp426:
	.cfi_def_cfa_offset 32
.Ltmp427:
	.cfi_offset 15, 0
	std r5, r4, sp[1]               # 4-byte Folded Spill
.Ltmp428:
	.cfi_offset 4, -24
.Ltmp429:
	.cfi_offset 5, -20
	std r7, r6, sp[2]               # 4-byte Folded Spill
.Ltmp430:
	.cfi_offset 6, -16
.Ltmp431:
	.cfi_offset 7, -12
	std r9, r8, sp[3]               # 4-byte Folded Spill
.Ltmp432:
	.cfi_offset 8, -8
.Ltmp433:
	.cfi_offset 9, -4
	#DEBUG_VALUE: _i.i2c_master_if._chan.write:dest <- R0
	#DEBUG_VALUE: _i.i2c_master_if._chan.write:param1 <- R1
	#DEBUG_VALUE: _i.i2c_master_if._chan.write:param2 <- R2
	#DEBUG_VALUE: _i.i2c_master_if._chan.write:param3 <- R3
	#DEBUG_VALUE: _i.i2c_master_if._chan.write:param4 <- [SP+36]
	#DEBUG_VALUE: _i.i2c_master_if._chan.write:param5 <- [SP+40]
	mov r5, r3
	#DEBUG_VALUE: _i.i2c_master_if._chan.write:param3 <- R5
	mov r6, r2
	#DEBUG_VALUE: _i.i2c_master_if._chan.write:param2 <- R6
	mov r7, r1
	#DEBUG_VALUE: _i.i2c_master_if._chan.write:param1 <- R7
	ldw r9, sp[10]
	ldw r8, sp[9]
	getr r4, 2
	setd res[r4], r0
	out res[r4], r4
	outct res[r4], 2
	ldc r1, 0
	mov r0, r4
	bl __interface_wait_and_yield
	chkct res[r4], 1
	outt res[r4], r7
	stw r6, sp[1]
	out res[r4], r5
	ldw r0, r8[0]
	out res[r4], r0
	out res[r4], r9
	outct res[r4], 2
	ldaw r1, sp[1]
	mov r0, r4
	bl __interface_client_call
	in r0, res[r4]
	stw r0, r8[0]
	in r0, res[r4]
	chkct res[r4], 1
	freer res[r4]
	ldd r9, r8, sp[3]               # 4-byte Folded Reload
	ldd r7, r6, sp[2]               # 4-byte Folded Reload
	ldd r5, r4, sp[1]               # 4-byte Folded Reload
	retsp 8
	# RETURN_REG_HOLDER
	.cc_bottom _i.i2c_master_if._chan.write.function
	.set	_i.i2c_master_if._chan.write.nstackwords,((_i.i2c_master_if._client_call_y.max.nstackwords $M ($D __interface_wait_and_yield.nstackwords ? __interface_wait_and_yield.nstackwords $: _i.i2c_master_if._client_call_y.max.nstackwords) $M __interface_client_call.nstackwords) + 8)
	.globl	_i.i2c_master_if._chan.write.nstackwords
	.weak	_i.i2c_master_if._chan.write.nstackwords
	.set	_i.i2c_master_if._chan.write.maxcores,__interface_client_call.maxcores $M ($D __interface_wait_and_yield.maxcores ? __interface_wait_and_yield.maxcores $: _i.i2c_master_if._client_call_y.max.maxcores) $M 1
	.globl	_i.i2c_master_if._chan.write.maxcores
	.weak	_i.i2c_master_if._chan.write.maxcores
	.set	_i.i2c_master_if._chan.write.maxtimers,__interface_client_call.maxtimers $M ($D __interface_wait_and_yield.maxtimers ? __interface_wait_and_yield.maxtimers $: _i.i2c_master_if._client_call_y.max.maxtimers) $M 0
	.globl	_i.i2c_master_if._chan.write.maxtimers
	.weak	_i.i2c_master_if._chan.write.maxtimers
	.set	_i.i2c_master_if._chan.write.maxchanends,(1 + __interface_client_call.maxchanends) $M (1 + ($D __interface_wait_and_yield.maxchanends ? __interface_wait_and_yield.maxchanends $: _i.i2c_master_if._client_call_y.max.maxchanends)) $M 1
	.globl	_i.i2c_master_if._chan.write.maxchanends
	.weak	_i.i2c_master_if._chan.write.maxchanends
.Ltmp434:
	.size	_i.i2c_master_if._chan.write, .Ltmp434-_i.i2c_master_if._chan.write
	.cfi_endproc

	.weak	_i.i2c_master_if._chan_yield.shutdown
	.align	4
	.type	_i.i2c_master_if._chan_yield.shutdown,@function
	.cc_top _i.i2c_master_if._chan_yield.shutdown.function,_i.i2c_master_if._chan_yield.shutdown
_i.i2c_master_if._chan_yield.shutdown:  # @_i.i2c_master_if._chan_yield.shutdown
	.cfi_startproc
	.issue_mode single
# BB#0:                                 # %allocas
	ENTSP_lu6 4
.Ltmp435:
	.cfi_def_cfa_offset 16
.Ltmp436:
	.cfi_offset 15, 0
	std r5, r4, sp[1]               # 4-byte Folded Spill
.Ltmp437:
	.cfi_offset 4, -8
.Ltmp438:
	.cfi_offset 5, -4
	#DEBUG_VALUE: _i.i2c_master_if._chan_yield.shutdown:s <- R0
	ldw r1, r0[0]
	getr r4, 2
	setd res[r4], r1
	add r1, r4, 3
	out res[r4], r1
	outct res[r4], 2
	ldw r5, r0[1]
	mov r0, r4
	mov r1, r5
	bl __interface_wait_and_yield
	ldc r1, 0
	mov r0, r4
	mov r2, r5
	bl __interface_client_call_y
	chkct res[r4], 1
	freer res[r4]
	ldd r5, r4, sp[1]               # 4-byte Folded Reload
	retsp 4
	# RETURN_REG_HOLDER
	.cc_bottom _i.i2c_master_if._chan_yield.shutdown.function
	.set	_i.i2c_master_if._chan_yield.shutdown.nstackwords,((($D __interface_wait_and_yield.nstackwords ? __interface_wait_and_yield.nstackwords $: _i.i2c_master_if._client_call_y.max.nstackwords) $M _i.i2c_master_if._client_call_y.max.nstackwords $M ($D __interface_client_call_y.nstackwords ? __interface_client_call_y.nstackwords $: _i.i2c_master_if._client_call_y.max.nstackwords)) + 4)
	.globl	_i.i2c_master_if._chan_yield.shutdown.nstackwords
	.weak	_i.i2c_master_if._chan_yield.shutdown.nstackwords
	.set	_i.i2c_master_if._chan_yield.shutdown.maxcores,($D __interface_client_call_y.maxcores ? __interface_client_call_y.maxcores $: _i.i2c_master_if._client_call_y.max.maxcores) $M ($D __interface_wait_and_yield.maxcores ? __interface_wait_and_yield.maxcores $: _i.i2c_master_if._client_call_y.max.maxcores) $M 1
	.globl	_i.i2c_master_if._chan_yield.shutdown.maxcores
	.weak	_i.i2c_master_if._chan_yield.shutdown.maxcores
	.set	_i.i2c_master_if._chan_yield.shutdown.maxtimers,($D __interface_client_call_y.maxtimers ? __interface_client_call_y.maxtimers $: _i.i2c_master_if._client_call_y.max.maxtimers) $M ($D __interface_wait_and_yield.maxtimers ? __interface_wait_and_yield.maxtimers $: _i.i2c_master_if._client_call_y.max.maxtimers) $M 0
	.globl	_i.i2c_master_if._chan_yield.shutdown.maxtimers
	.weak	_i.i2c_master_if._chan_yield.shutdown.maxtimers
	.set	_i.i2c_master_if._chan_yield.shutdown.maxchanends,(1 + ($D __interface_client_call_y.maxchanends ? __interface_client_call_y.maxchanends $: _i.i2c_master_if._client_call_y.max.maxchanends)) $M (1 + ($D __interface_wait_and_yield.maxchanends ? __interface_wait_and_yield.maxchanends $: _i.i2c_master_if._client_call_y.max.maxchanends)) $M 1
	.globl	_i.i2c_master_if._chan_yield.shutdown.maxchanends
	.weak	_i.i2c_master_if._chan_yield.shutdown.maxchanends
.Ltmp439:
	.size	_i.i2c_master_if._chan_yield.shutdown, .Ltmp439-_i.i2c_master_if._chan_yield.shutdown
	.cfi_endproc

	.weak	_i.i2c_master_if._chan_yield.send_stop_bit
	.align	4
	.type	_i.i2c_master_if._chan_yield.send_stop_bit,@function
	.cc_top _i.i2c_master_if._chan_yield.send_stop_bit.function,_i.i2c_master_if._chan_yield.send_stop_bit
_i.i2c_master_if._chan_yield.send_stop_bit: # @_i.i2c_master_if._chan_yield.send_stop_bit
	.cfi_startproc
	.issue_mode single
# BB#0:                                 # %allocas
	ENTSP_lu6 4
.Ltmp440:
	.cfi_def_cfa_offset 16
.Ltmp441:
	.cfi_offset 15, 0
	std r5, r4, sp[1]               # 4-byte Folded Spill
.Ltmp442:
	.cfi_offset 4, -8
.Ltmp443:
	.cfi_offset 5, -4
	#DEBUG_VALUE: _i.i2c_master_if._chan_yield.send_stop_bit:s <- R0
	ldw r1, r0[0]
	getr r4, 2
	setd res[r4], r1
	add r1, r4, 2
	out res[r4], r1
	outct res[r4], 2
	ldw r5, r0[1]
	mov r0, r4
	mov r1, r5
	bl __interface_wait_and_yield
	ldc r1, 0
	mov r0, r4
	mov r2, r5
	bl __interface_client_call_y
	chkct res[r4], 1
	freer res[r4]
	ldd r5, r4, sp[1]               # 4-byte Folded Reload
	retsp 4
	# RETURN_REG_HOLDER
	.cc_bottom _i.i2c_master_if._chan_yield.send_stop_bit.function
	.set	_i.i2c_master_if._chan_yield.send_stop_bit.nstackwords,((($D __interface_wait_and_yield.nstackwords ? __interface_wait_and_yield.nstackwords $: _i.i2c_master_if._client_call_y.max.nstackwords) $M _i.i2c_master_if._client_call_y.max.nstackwords $M ($D __interface_client_call_y.nstackwords ? __interface_client_call_y.nstackwords $: _i.i2c_master_if._client_call_y.max.nstackwords)) + 4)
	.globl	_i.i2c_master_if._chan_yield.send_stop_bit.nstackwords
	.weak	_i.i2c_master_if._chan_yield.send_stop_bit.nstackwords
	.set	_i.i2c_master_if._chan_yield.send_stop_bit.maxcores,($D __interface_client_call_y.maxcores ? __interface_client_call_y.maxcores $: _i.i2c_master_if._client_call_y.max.maxcores) $M ($D __interface_wait_and_yield.maxcores ? __interface_wait_and_yield.maxcores $: _i.i2c_master_if._client_call_y.max.maxcores) $M 1
	.globl	_i.i2c_master_if._chan_yield.send_stop_bit.maxcores
	.weak	_i.i2c_master_if._chan_yield.send_stop_bit.maxcores
	.set	_i.i2c_master_if._chan_yield.send_stop_bit.maxtimers,($D __interface_client_call_y.maxtimers ? __interface_client_call_y.maxtimers $: _i.i2c_master_if._client_call_y.max.maxtimers) $M ($D __interface_wait_and_yield.maxtimers ? __interface_wait_and_yield.maxtimers $: _i.i2c_master_if._client_call_y.max.maxtimers) $M 0
	.globl	_i.i2c_master_if._chan_yield.send_stop_bit.maxtimers
	.weak	_i.i2c_master_if._chan_yield.send_stop_bit.maxtimers
	.set	_i.i2c_master_if._chan_yield.send_stop_bit.maxchanends,(1 + ($D __interface_client_call_y.maxchanends ? __interface_client_call_y.maxchanends $: _i.i2c_master_if._client_call_y.max.maxchanends)) $M (1 + ($D __interface_wait_and_yield.maxchanends ? __interface_wait_and_yield.maxchanends $: _i.i2c_master_if._client_call_y.max.maxchanends)) $M 1
	.globl	_i.i2c_master_if._chan_yield.send_stop_bit.maxchanends
	.weak	_i.i2c_master_if._chan_yield.send_stop_bit.maxchanends
.Ltmp444:
	.size	_i.i2c_master_if._chan_yield.send_stop_bit, .Ltmp444-_i.i2c_master_if._chan_yield.send_stop_bit
	.cfi_endproc

	.weak	_i.i2c_master_if._chan_yield.read
	.align	4
	.type	_i.i2c_master_if._chan_yield.read,@function
	.cc_top _i.i2c_master_if._chan_yield.read.function,_i.i2c_master_if._chan_yield.read
_i.i2c_master_if._chan_yield.read:      # @_i.i2c_master_if._chan_yield.read
	.cfi_startproc
	.issue_mode single
# BB#0:                                 # %allocas
	ENTSP_lu6 8
.Ltmp445:
	.cfi_def_cfa_offset 32
.Ltmp446:
	.cfi_offset 15, 0
	std r5, r4, sp[1]               # 4-byte Folded Spill
.Ltmp447:
	.cfi_offset 4, -24
.Ltmp448:
	.cfi_offset 5, -20
	std r7, r6, sp[2]               # 4-byte Folded Spill
.Ltmp449:
	.cfi_offset 6, -16
.Ltmp450:
	.cfi_offset 7, -12
	std r9, r8, sp[3]               # 4-byte Folded Spill
.Ltmp451:
	.cfi_offset 8, -8
.Ltmp452:
	.cfi_offset 9, -4
	#DEBUG_VALUE: _i.i2c_master_if._chan_yield.read:s <- R0
	#DEBUG_VALUE: _i.i2c_master_if._chan_yield.read:param1 <- R1
	#DEBUG_VALUE: _i.i2c_master_if._chan_yield.read:param2 <- R2
	#DEBUG_VALUE: _i.i2c_master_if._chan_yield.read:param3 <- R3
	#DEBUG_VALUE: _i.i2c_master_if._chan_yield.read:param4 <- [SP+36]
	mov r5, r3
	#DEBUG_VALUE: _i.i2c_master_if._chan_yield.read:param3 <- R5
	mov r6, r2
	#DEBUG_VALUE: _i.i2c_master_if._chan_yield.read:param2 <- R6
	mov r7, r1
	#DEBUG_VALUE: _i.i2c_master_if._chan_yield.read:param1 <- R7
	ldw r9, sp[9]
	ldw r1, r0[0]
	getr r4, 2
	setd res[r4], r1
	add r1, r4, 1
	out res[r4], r1
	outct res[r4], 2
	ldw r8, r0[1]
	mov r0, r4
	mov r1, r8
	bl __interface_wait_and_yield
	chkct res[r4], 1
	outt res[r4], r7
	stw r6, sp[1]
	out res[r4], r5
	out res[r4], r9
	outct res[r4], 2
	ldaw r1, sp[1]
	mov r0, r4
	mov r2, r8
	bl __interface_client_call_y
	in r0, res[r4]
	chkct res[r4], 1
	freer res[r4]
	ldd r9, r8, sp[3]               # 4-byte Folded Reload
	ldd r7, r6, sp[2]               # 4-byte Folded Reload
	ldd r5, r4, sp[1]               # 4-byte Folded Reload
	retsp 8
	# RETURN_REG_HOLDER
	.cc_bottom _i.i2c_master_if._chan_yield.read.function
	.set	_i.i2c_master_if._chan_yield.read.nstackwords,((($D __interface_wait_and_yield.nstackwords ? __interface_wait_and_yield.nstackwords $: _i.i2c_master_if._client_call_y.max.nstackwords) $M _i.i2c_master_if._client_call_y.max.nstackwords $M ($D __interface_client_call_y.nstackwords ? __interface_client_call_y.nstackwords $: _i.i2c_master_if._client_call_y.max.nstackwords)) + 8)
	.globl	_i.i2c_master_if._chan_yield.read.nstackwords
	.weak	_i.i2c_master_if._chan_yield.read.nstackwords
	.set	_i.i2c_master_if._chan_yield.read.maxcores,($D __interface_client_call_y.maxcores ? __interface_client_call_y.maxcores $: _i.i2c_master_if._client_call_y.max.maxcores) $M ($D __interface_wait_and_yield.maxcores ? __interface_wait_and_yield.maxcores $: _i.i2c_master_if._client_call_y.max.maxcores) $M 1
	.globl	_i.i2c_master_if._chan_yield.read.maxcores
	.weak	_i.i2c_master_if._chan_yield.read.maxcores
	.set	_i.i2c_master_if._chan_yield.read.maxtimers,($D __interface_client_call_y.maxtimers ? __interface_client_call_y.maxtimers $: _i.i2c_master_if._client_call_y.max.maxtimers) $M ($D __interface_wait_and_yield.maxtimers ? __interface_wait_and_yield.maxtimers $: _i.i2c_master_if._client_call_y.max.maxtimers) $M 0
	.globl	_i.i2c_master_if._chan_yield.read.maxtimers
	.weak	_i.i2c_master_if._chan_yield.read.maxtimers
	.set	_i.i2c_master_if._chan_yield.read.maxchanends,(1 + ($D __interface_client_call_y.maxchanends ? __interface_client_call_y.maxchanends $: _i.i2c_master_if._client_call_y.max.maxchanends)) $M (1 + ($D __interface_wait_and_yield.maxchanends ? __interface_wait_and_yield.maxchanends $: _i.i2c_master_if._client_call_y.max.maxchanends)) $M 1
	.globl	_i.i2c_master_if._chan_yield.read.maxchanends
	.weak	_i.i2c_master_if._chan_yield.read.maxchanends
.Ltmp453:
	.size	_i.i2c_master_if._chan_yield.read, .Ltmp453-_i.i2c_master_if._chan_yield.read
	.cfi_endproc

	.weak	_i.i2c_master_if._chan_yield.write
	.align	4
	.type	_i.i2c_master_if._chan_yield.write,@function
	.cc_top _i.i2c_master_if._chan_yield.write.function,_i.i2c_master_if._chan_yield.write
_i.i2c_master_if._chan_yield.write:     # @_i.i2c_master_if._chan_yield.write
	.cfi_startproc
	.issue_mode single
# BB#0:                                 # %allocas
	ENTSP_lu6 10
.Ltmp454:
	.cfi_def_cfa_offset 40
.Ltmp455:
	.cfi_offset 15, 0
	std r5, r4, sp[1]               # 4-byte Folded Spill
.Ltmp456:
	.cfi_offset 4, -32
.Ltmp457:
	.cfi_offset 5, -28
	std r7, r6, sp[2]               # 4-byte Folded Spill
.Ltmp458:
	.cfi_offset 6, -24
.Ltmp459:
	.cfi_offset 7, -20
	std r9, r8, sp[3]               # 4-byte Folded Spill
.Ltmp460:
	.cfi_offset 8, -16
.Ltmp461:
	.cfi_offset 9, -12
	stw r10, sp[8]                  # 4-byte Folded Spill
.Ltmp462:
	.cfi_offset 10, -8
	#DEBUG_VALUE: _i.i2c_master_if._chan_yield.write:s <- R0
	#DEBUG_VALUE: _i.i2c_master_if._chan_yield.write:param1 <- R1
	#DEBUG_VALUE: _i.i2c_master_if._chan_yield.write:param2 <- R2
	#DEBUG_VALUE: _i.i2c_master_if._chan_yield.write:param3 <- R3
	#DEBUG_VALUE: _i.i2c_master_if._chan_yield.write:param4 <- [SP+44]
	#DEBUG_VALUE: _i.i2c_master_if._chan_yield.write:param5 <- [SP+48]
	mov r5, r3
	#DEBUG_VALUE: _i.i2c_master_if._chan_yield.write:param3 <- R5
	mov r6, r2
	#DEBUG_VALUE: _i.i2c_master_if._chan_yield.write:param2 <- R6
	mov r7, r1
	#DEBUG_VALUE: _i.i2c_master_if._chan_yield.write:param1 <- R7
	ldw r10, sp[12]
	ldw r9, sp[11]
	ldw r1, r0[0]
	getr r4, 2
	setd res[r4], r1
	out res[r4], r4
	outct res[r4], 2
	ldw r8, r0[1]
	mov r0, r4
	mov r1, r8
	bl __interface_wait_and_yield
	chkct res[r4], 1
	outt res[r4], r7
	stw r6, sp[1]
	out res[r4], r5
	ldw r0, r9[0]
	out res[r4], r0
	out res[r4], r10
	outct res[r4], 2
	ldaw r1, sp[1]
	mov r0, r4
	mov r2, r8
	bl __interface_client_call_y
	in r0, res[r4]
	stw r0, r9[0]
	in r0, res[r4]
	chkct res[r4], 1
	freer res[r4]
	ldw r10, sp[8]                  # 4-byte Folded Reload
	ldd r9, r8, sp[3]               # 4-byte Folded Reload
	ldd r7, r6, sp[2]               # 4-byte Folded Reload
	ldd r5, r4, sp[1]               # 4-byte Folded Reload
	retsp 10
	# RETURN_REG_HOLDER
	.cc_bottom _i.i2c_master_if._chan_yield.write.function
	.set	_i.i2c_master_if._chan_yield.write.nstackwords,((($D __interface_wait_and_yield.nstackwords ? __interface_wait_and_yield.nstackwords $: _i.i2c_master_if._client_call_y.max.nstackwords) $M _i.i2c_master_if._client_call_y.max.nstackwords $M ($D __interface_client_call_y.nstackwords ? __interface_client_call_y.nstackwords $: _i.i2c_master_if._client_call_y.max.nstackwords)) + 10)
	.globl	_i.i2c_master_if._chan_yield.write.nstackwords
	.weak	_i.i2c_master_if._chan_yield.write.nstackwords
	.set	_i.i2c_master_if._chan_yield.write.maxcores,($D __interface_client_call_y.maxcores ? __interface_client_call_y.maxcores $: _i.i2c_master_if._client_call_y.max.maxcores) $M ($D __interface_wait_and_yield.maxcores ? __interface_wait_and_yield.maxcores $: _i.i2c_master_if._client_call_y.max.maxcores) $M 1
	.globl	_i.i2c_master_if._chan_yield.write.maxcores
	.weak	_i.i2c_master_if._chan_yield.write.maxcores
	.set	_i.i2c_master_if._chan_yield.write.maxtimers,($D __interface_client_call_y.maxtimers ? __interface_client_call_y.maxtimers $: _i.i2c_master_if._client_call_y.max.maxtimers) $M ($D __interface_wait_and_yield.maxtimers ? __interface_wait_and_yield.maxtimers $: _i.i2c_master_if._client_call_y.max.maxtimers) $M 0
	.globl	_i.i2c_master_if._chan_yield.write.maxtimers
	.weak	_i.i2c_master_if._chan_yield.write.maxtimers
	.set	_i.i2c_master_if._chan_yield.write.maxchanends,(1 + ($D __interface_client_call_y.maxchanends ? __interface_client_call_y.maxchanends $: _i.i2c_master_if._client_call_y.max.maxchanends)) $M (1 + ($D __interface_wait_and_yield.maxchanends ? __interface_wait_and_yield.maxchanends $: _i.i2c_master_if._client_call_y.max.maxchanends)) $M 1
	.globl	_i.i2c_master_if._chan_yield.write.maxchanends
	.weak	_i.i2c_master_if._chan_yield.write.maxchanends
.Ltmp463:
	.size	_i.i2c_master_if._chan_yield.write, .Ltmp463-_i.i2c_master_if._chan_yield.write
	.cfi_endproc

	.weak	_i.i2c_master_async_if._chan.shutdown
	.align	4
	.type	_i.i2c_master_async_if._chan.shutdown,@function
	.cc_top _i.i2c_master_async_if._chan.shutdown.function,_i.i2c_master_async_if._chan.shutdown
_i.i2c_master_async_if._chan.shutdown:  # @_i.i2c_master_async_if._chan.shutdown
	.cfi_startproc
	.issue_mode single
# BB#0:                                 # %allocas
	ENTSP_lu6 4
.Ltmp464:
	.cfi_def_cfa_offset 16
.Ltmp465:
	.cfi_offset 15, 0
	stw r4, sp[2]                   # 4-byte Folded Spill
.Ltmp466:
	.cfi_offset 4, -8
	#DEBUG_VALUE: _i.i2c_master_async_if._chan.shutdown:dest <- R0
	getr r4, 2
	setd res[r4], r0
	add r0, r4, 5
	out res[r4], r0
	outct res[r4], 2
	ldc r1, 0
	mov r0, r4
	bl __interface_wait_and_yield
	in r0, res[r4]
	chkct res[r4], 1
	freer res[r4]
	ldw r4, sp[2]                   # 4-byte Folded Reload
	retsp 4
	# RETURN_REG_HOLDER
	.cc_bottom _i.i2c_master_async_if._chan.shutdown.function
	.set	_i.i2c_master_async_if._chan.shutdown.nstackwords,((_i.i2c_master_async_if._client_call_y.max.nstackwords $M ($D __interface_wait_and_yield.nstackwords ? __interface_wait_and_yield.nstackwords $: _i.i2c_master_async_if._client_call_y.max.nstackwords)) + 4)
	.globl	_i.i2c_master_async_if._chan.shutdown.nstackwords
	.weak	_i.i2c_master_async_if._chan.shutdown.nstackwords
	.set	_i.i2c_master_async_if._chan.shutdown.maxcores,($D __interface_wait_and_yield.maxcores ? __interface_wait_and_yield.maxcores $: _i.i2c_master_async_if._client_call_y.max.maxcores) $M 1
	.globl	_i.i2c_master_async_if._chan.shutdown.maxcores
	.weak	_i.i2c_master_async_if._chan.shutdown.maxcores
	.set	_i.i2c_master_async_if._chan.shutdown.maxtimers,($D __interface_wait_and_yield.maxtimers ? __interface_wait_and_yield.maxtimers $: _i.i2c_master_async_if._client_call_y.max.maxtimers) $M 0
	.globl	_i.i2c_master_async_if._chan.shutdown.maxtimers
	.weak	_i.i2c_master_async_if._chan.shutdown.maxtimers
	.set	_i.i2c_master_async_if._chan.shutdown.maxchanends,(1 + ($D __interface_wait_and_yield.maxchanends ? __interface_wait_and_yield.maxchanends $: _i.i2c_master_async_if._client_call_y.max.maxchanends)) $M 1
	.globl	_i.i2c_master_async_if._chan.shutdown.maxchanends
	.weak	_i.i2c_master_async_if._chan.shutdown.maxchanends
.Ltmp467:
	.size	_i.i2c_master_async_if._chan.shutdown, .Ltmp467-_i.i2c_master_async_if._chan.shutdown
	.cfi_endproc

	.weak	_i.i2c_master_async_if._chan.send_stop_bit
	.align	4
	.type	_i.i2c_master_async_if._chan.send_stop_bit,@function
	.cc_top _i.i2c_master_async_if._chan.send_stop_bit.function,_i.i2c_master_async_if._chan.send_stop_bit
_i.i2c_master_async_if._chan.send_stop_bit: # @_i.i2c_master_async_if._chan.send_stop_bit
	.cfi_startproc
	.issue_mode single
# BB#0:                                 # %allocas
	ENTSP_lu6 4
.Ltmp468:
	.cfi_def_cfa_offset 16
.Ltmp469:
	.cfi_offset 15, 0
	stw r4, sp[2]                   # 4-byte Folded Spill
.Ltmp470:
	.cfi_offset 4, -8
	#DEBUG_VALUE: _i.i2c_master_async_if._chan.send_stop_bit:dest <- R0
	getr r4, 2
	setd res[r4], r0
	add r0, r4, 4
	out res[r4], r0
	outct res[r4], 2
	ldc r1, 0
	mov r0, r4
	bl __interface_wait_and_yield
	in r0, res[r4]
	chkct res[r4], 1
	freer res[r4]
	ldw r4, sp[2]                   # 4-byte Folded Reload
	retsp 4
	# RETURN_REG_HOLDER
	.cc_bottom _i.i2c_master_async_if._chan.send_stop_bit.function
	.set	_i.i2c_master_async_if._chan.send_stop_bit.nstackwords,((_i.i2c_master_async_if._client_call_y.max.nstackwords $M ($D __interface_wait_and_yield.nstackwords ? __interface_wait_and_yield.nstackwords $: _i.i2c_master_async_if._client_call_y.max.nstackwords)) + 4)
	.globl	_i.i2c_master_async_if._chan.send_stop_bit.nstackwords
	.weak	_i.i2c_master_async_if._chan.send_stop_bit.nstackwords
	.set	_i.i2c_master_async_if._chan.send_stop_bit.maxcores,($D __interface_wait_and_yield.maxcores ? __interface_wait_and_yield.maxcores $: _i.i2c_master_async_if._client_call_y.max.maxcores) $M 1
	.globl	_i.i2c_master_async_if._chan.send_stop_bit.maxcores
	.weak	_i.i2c_master_async_if._chan.send_stop_bit.maxcores
	.set	_i.i2c_master_async_if._chan.send_stop_bit.maxtimers,($D __interface_wait_and_yield.maxtimers ? __interface_wait_and_yield.maxtimers $: _i.i2c_master_async_if._client_call_y.max.maxtimers) $M 0
	.globl	_i.i2c_master_async_if._chan.send_stop_bit.maxtimers
	.weak	_i.i2c_master_async_if._chan.send_stop_bit.maxtimers
	.set	_i.i2c_master_async_if._chan.send_stop_bit.maxchanends,(1 + ($D __interface_wait_and_yield.maxchanends ? __interface_wait_and_yield.maxchanends $: _i.i2c_master_async_if._client_call_y.max.maxchanends)) $M 1
	.globl	_i.i2c_master_async_if._chan.send_stop_bit.maxchanends
	.weak	_i.i2c_master_async_if._chan.send_stop_bit.maxchanends
.Ltmp471:
	.size	_i.i2c_master_async_if._chan.send_stop_bit, .Ltmp471-_i.i2c_master_async_if._chan.send_stop_bit
	.cfi_endproc

	.weak	_i.i2c_master_async_if._chan.get_read_data
	.align	4
	.type	_i.i2c_master_async_if._chan.get_read_data,@function
	.cc_top _i.i2c_master_async_if._chan.get_read_data.function,_i.i2c_master_async_if._chan.get_read_data
_i.i2c_master_async_if._chan.get_read_data: # @_i.i2c_master_async_if._chan.get_read_data
	.cfi_startproc
	.issue_mode single
# BB#0:                                 # %allocas
	ENTSP_lu6 6
.Ltmp472:
	.cfi_def_cfa_offset 24
.Ltmp473:
	.cfi_offset 15, 0
	std r5, r4, sp[1]               # 4-byte Folded Spill
.Ltmp474:
	.cfi_offset 4, -16
.Ltmp475:
	.cfi_offset 5, -12
	std r7, r6, sp[2]               # 4-byte Folded Spill
.Ltmp476:
	.cfi_offset 6, -8
.Ltmp477:
	.cfi_offset 7, -4
	#DEBUG_VALUE: _i.i2c_master_async_if._chan.get_read_data:dest <- R0
	#DEBUG_VALUE: _i.i2c_master_async_if._chan.get_read_data:clientNotifyFlag <- R1
	#DEBUG_VALUE: _i.i2c_master_async_if._chan.get_read_data:param2 <- R2
	#DEBUG_VALUE: _i.i2c_master_async_if._chan.get_read_data:param3 <- R3
	mov r4, r3
	#DEBUG_VALUE: _i.i2c_master_async_if._chan.get_read_data:param3 <- R4
	mov r5, r2
	#DEBUG_VALUE: _i.i2c_master_async_if._chan.get_read_data:param2 <- R5
	mov r6, r1
	#DEBUG_VALUE: _i.i2c_master_async_if._chan.get_read_data:clientNotifyFlag <- R6
	getr r7, 2
	setd res[r7], r0
	add r0, r7, 3
	out res[r7], r0
	outct res[r7], 2
	ldc r1, 0
	mov r0, r7
	bl __interface_wait_and_yield
	chkct res[r7], 1
	out res[r7], r6
	stw r5, sp[1]
	out res[r7], r4
	outct res[r7], 2
	ldaw r1, sp[1]
	mov r0, r7
	bl __interface_client_call
	in r0, res[r7]
	chkct res[r7], 1
	freer res[r7]
	ldd r7, r6, sp[2]               # 4-byte Folded Reload
	ldd r5, r4, sp[1]               # 4-byte Folded Reload
	retsp 6
	# RETURN_REG_HOLDER
	.cc_bottom _i.i2c_master_async_if._chan.get_read_data.function
	.set	_i.i2c_master_async_if._chan.get_read_data.nstackwords,((_i.i2c_master_async_if._client_call_y.max.nstackwords $M ($D __interface_wait_and_yield.nstackwords ? __interface_wait_and_yield.nstackwords $: _i.i2c_master_async_if._client_call_y.max.nstackwords) $M __interface_client_call.nstackwords) + 6)
	.globl	_i.i2c_master_async_if._chan.get_read_data.nstackwords
	.weak	_i.i2c_master_async_if._chan.get_read_data.nstackwords
	.set	_i.i2c_master_async_if._chan.get_read_data.maxcores,__interface_client_call.maxcores $M ($D __interface_wait_and_yield.maxcores ? __interface_wait_and_yield.maxcores $: _i.i2c_master_async_if._client_call_y.max.maxcores) $M 1
	.globl	_i.i2c_master_async_if._chan.get_read_data.maxcores
	.weak	_i.i2c_master_async_if._chan.get_read_data.maxcores
	.set	_i.i2c_master_async_if._chan.get_read_data.maxtimers,__interface_client_call.maxtimers $M ($D __interface_wait_and_yield.maxtimers ? __interface_wait_and_yield.maxtimers $: _i.i2c_master_async_if._client_call_y.max.maxtimers) $M 0
	.globl	_i.i2c_master_async_if._chan.get_read_data.maxtimers
	.weak	_i.i2c_master_async_if._chan.get_read_data.maxtimers
	.set	_i.i2c_master_async_if._chan.get_read_data.maxchanends,(1 + __interface_client_call.maxchanends) $M (1 + ($D __interface_wait_and_yield.maxchanends ? __interface_wait_and_yield.maxchanends $: _i.i2c_master_async_if._client_call_y.max.maxchanends)) $M 1
	.globl	_i.i2c_master_async_if._chan.get_read_data.maxchanends
	.weak	_i.i2c_master_async_if._chan.get_read_data.maxchanends
.Ltmp478:
	.size	_i.i2c_master_async_if._chan.get_read_data, .Ltmp478-_i.i2c_master_async_if._chan.get_read_data
	.cfi_endproc

	.weak	_i.i2c_master_async_if._chan.get_write_result
	.align	4
	.type	_i.i2c_master_async_if._chan.get_write_result,@function
	.cc_top _i.i2c_master_async_if._chan.get_write_result.function,_i.i2c_master_async_if._chan.get_write_result
_i.i2c_master_async_if._chan.get_write_result: # @_i.i2c_master_async_if._chan.get_write_result
	.cfi_startproc
	.issue_mode single
# BB#0:                                 # %allocas
	ENTSP_lu6 6
.Ltmp479:
	.cfi_def_cfa_offset 24
.Ltmp480:
	.cfi_offset 15, 0
	std r5, r4, sp[1]               # 4-byte Folded Spill
.Ltmp481:
	.cfi_offset 4, -16
.Ltmp482:
	.cfi_offset 5, -12
	stw r6, sp[4]                   # 4-byte Folded Spill
.Ltmp483:
	.cfi_offset 6, -8
	#DEBUG_VALUE: _i.i2c_master_async_if._chan.get_write_result:dest <- R0
	#DEBUG_VALUE: _i.i2c_master_async_if._chan.get_write_result:clientNotifyFlag <- R1
	#DEBUG_VALUE: _i.i2c_master_async_if._chan.get_write_result:param2 <- R2
	mov r4, r2
	#DEBUG_VALUE: _i.i2c_master_async_if._chan.get_write_result:param2 <- R4
	mov r5, r1
	#DEBUG_VALUE: _i.i2c_master_async_if._chan.get_write_result:clientNotifyFlag <- R5
	getr r6, 2
	setd res[r6], r0
	add r0, r6, 2
	out res[r6], r0
	outct res[r6], 2
	ldc r1, 0
	mov r0, r6
	bl __interface_wait_and_yield
	chkct res[r6], 1
	out res[r6], r5
	ldw r0, r4[0]
	out res[r6], r0
	outct res[r6], 2
	in r0, res[r6]
	in r0, res[r6]
	stw r0, r4[0]
	in r0, res[r6]
	chkct res[r6], 1
	freer res[r6]
	ldw r6, sp[4]                   # 4-byte Folded Reload
	ldd r5, r4, sp[1]               # 4-byte Folded Reload
	retsp 6
	# RETURN_REG_HOLDER
	.cc_bottom _i.i2c_master_async_if._chan.get_write_result.function
	.set	_i.i2c_master_async_if._chan.get_write_result.nstackwords,((_i.i2c_master_async_if._client_call_y.max.nstackwords $M ($D __interface_wait_and_yield.nstackwords ? __interface_wait_and_yield.nstackwords $: _i.i2c_master_async_if._client_call_y.max.nstackwords)) + 6)
	.globl	_i.i2c_master_async_if._chan.get_write_result.nstackwords
	.weak	_i.i2c_master_async_if._chan.get_write_result.nstackwords
	.set	_i.i2c_master_async_if._chan.get_write_result.maxcores,($D __interface_wait_and_yield.maxcores ? __interface_wait_and_yield.maxcores $: _i.i2c_master_async_if._client_call_y.max.maxcores) $M 1
	.globl	_i.i2c_master_async_if._chan.get_write_result.maxcores
	.weak	_i.i2c_master_async_if._chan.get_write_result.maxcores
	.set	_i.i2c_master_async_if._chan.get_write_result.maxtimers,($D __interface_wait_and_yield.maxtimers ? __interface_wait_and_yield.maxtimers $: _i.i2c_master_async_if._client_call_y.max.maxtimers) $M 0
	.globl	_i.i2c_master_async_if._chan.get_write_result.maxtimers
	.weak	_i.i2c_master_async_if._chan.get_write_result.maxtimers
	.set	_i.i2c_master_async_if._chan.get_write_result.maxchanends,(1 + ($D __interface_wait_and_yield.maxchanends ? __interface_wait_and_yield.maxchanends $: _i.i2c_master_async_if._client_call_y.max.maxchanends)) $M 1
	.globl	_i.i2c_master_async_if._chan.get_write_result.maxchanends
	.weak	_i.i2c_master_async_if._chan.get_write_result.maxchanends
.Ltmp484:
	.size	_i.i2c_master_async_if._chan.get_write_result, .Ltmp484-_i.i2c_master_async_if._chan.get_write_result
	.cfi_endproc

	.weak	_i.i2c_master_async_if._chan.read
	.align	4
	.type	_i.i2c_master_async_if._chan.read,@function
	.cc_top _i.i2c_master_async_if._chan.read.function,_i.i2c_master_async_if._chan.read
_i.i2c_master_async_if._chan.read:      # @_i.i2c_master_async_if._chan.read
	.cfi_startproc
	.issue_mode single
# BB#0:                                 # %allocas
	ENTSP_lu6 6
.Ltmp485:
	.cfi_def_cfa_offset 24
.Ltmp486:
	.cfi_offset 15, 0
	std r5, r4, sp[1]               # 4-byte Folded Spill
.Ltmp487:
	.cfi_offset 4, -16
.Ltmp488:
	.cfi_offset 5, -12
	std r7, r6, sp[2]               # 4-byte Folded Spill
.Ltmp489:
	.cfi_offset 6, -8
.Ltmp490:
	.cfi_offset 7, -4
	#DEBUG_VALUE: _i.i2c_master_async_if._chan.read:dest <- R0
	#DEBUG_VALUE: _i.i2c_master_async_if._chan.read:param1 <- R1
	#DEBUG_VALUE: _i.i2c_master_async_if._chan.read:param2 <- R2
	#DEBUG_VALUE: _i.i2c_master_async_if._chan.read:param3 <- R3
	mov r4, r3
	#DEBUG_VALUE: _i.i2c_master_async_if._chan.read:param3 <- R4
	mov r5, r2
	#DEBUG_VALUE: _i.i2c_master_async_if._chan.read:param2 <- R5
	mov r6, r1
	#DEBUG_VALUE: _i.i2c_master_async_if._chan.read:param1 <- R6
	getr r7, 2
	setd res[r7], r0
	add r0, r7, 1
	out res[r7], r0
	outct res[r7], 2
	ldc r1, 0
	mov r0, r7
	bl __interface_wait_and_yield
	chkct res[r7], 1
	outt res[r7], r6
	out res[r7], r5
	out res[r7], r4
	outct res[r7], 2
	in r0, res[r7]
	chkct res[r7], 1
	freer res[r7]
	ldd r7, r6, sp[2]               # 4-byte Folded Reload
	ldd r5, r4, sp[1]               # 4-byte Folded Reload
	retsp 6
	# RETURN_REG_HOLDER
	.cc_bottom _i.i2c_master_async_if._chan.read.function
	.set	_i.i2c_master_async_if._chan.read.nstackwords,((_i.i2c_master_async_if._client_call_y.max.nstackwords $M ($D __interface_wait_and_yield.nstackwords ? __interface_wait_and_yield.nstackwords $: _i.i2c_master_async_if._client_call_y.max.nstackwords)) + 6)
	.globl	_i.i2c_master_async_if._chan.read.nstackwords
	.weak	_i.i2c_master_async_if._chan.read.nstackwords
	.set	_i.i2c_master_async_if._chan.read.maxcores,($D __interface_wait_and_yield.maxcores ? __interface_wait_and_yield.maxcores $: _i.i2c_master_async_if._client_call_y.max.maxcores) $M 1
	.globl	_i.i2c_master_async_if._chan.read.maxcores
	.weak	_i.i2c_master_async_if._chan.read.maxcores
	.set	_i.i2c_master_async_if._chan.read.maxtimers,($D __interface_wait_and_yield.maxtimers ? __interface_wait_and_yield.maxtimers $: _i.i2c_master_async_if._client_call_y.max.maxtimers) $M 0
	.globl	_i.i2c_master_async_if._chan.read.maxtimers
	.weak	_i.i2c_master_async_if._chan.read.maxtimers
	.set	_i.i2c_master_async_if._chan.read.maxchanends,(1 + ($D __interface_wait_and_yield.maxchanends ? __interface_wait_and_yield.maxchanends $: _i.i2c_master_async_if._client_call_y.max.maxchanends)) $M 1
	.globl	_i.i2c_master_async_if._chan.read.maxchanends
	.weak	_i.i2c_master_async_if._chan.read.maxchanends
.Ltmp491:
	.size	_i.i2c_master_async_if._chan.read, .Ltmp491-_i.i2c_master_async_if._chan.read
	.cfi_endproc

	.weak	_i.i2c_master_async_if._chan.write
	.align	4
	.type	_i.i2c_master_async_if._chan.write,@function
	.cc_top _i.i2c_master_async_if._chan.write.function,_i.i2c_master_async_if._chan.write
_i.i2c_master_async_if._chan.write:     # @_i.i2c_master_async_if._chan.write
	.cfi_startproc
	.issue_mode single
# BB#0:                                 # %allocas
	ENTSP_lu6 8
.Ltmp492:
	.cfi_def_cfa_offset 32
.Ltmp493:
	.cfi_offset 15, 0
	std r5, r4, sp[1]               # 4-byte Folded Spill
.Ltmp494:
	.cfi_offset 4, -24
.Ltmp495:
	.cfi_offset 5, -20
	std r7, r6, sp[2]               # 4-byte Folded Spill
.Ltmp496:
	.cfi_offset 6, -16
.Ltmp497:
	.cfi_offset 7, -12
	stw r8, sp[6]                   # 4-byte Folded Spill
.Ltmp498:
	.cfi_offset 8, -8
	#DEBUG_VALUE: _i.i2c_master_async_if._chan.write:dest <- R0
	#DEBUG_VALUE: _i.i2c_master_async_if._chan.write:param1 <- R1
	#DEBUG_VALUE: _i.i2c_master_async_if._chan.write:param2 <- R2
	#DEBUG_VALUE: _i.i2c_master_async_if._chan.write:param3 <- R3
	#DEBUG_VALUE: _i.i2c_master_async_if._chan.write:param4 <- [SP+36]
	mov r4, r3
	#DEBUG_VALUE: _i.i2c_master_async_if._chan.write:param3 <- R4
	mov r5, r2
	#DEBUG_VALUE: _i.i2c_master_async_if._chan.write:param2 <- R5
	mov r6, r1
	#DEBUG_VALUE: _i.i2c_master_async_if._chan.write:param1 <- R6
	ldw r8, sp[9]
	getr r7, 2
	setd res[r7], r0
	out res[r7], r7
	outct res[r7], 2
	ldc r1, 0
	mov r0, r7
	bl __interface_wait_and_yield
	chkct res[r7], 1
	outt res[r7], r6
	stw r5, sp[1]
	out res[r7], r4
	out res[r7], r8
	outct res[r7], 2
	ldaw r1, sp[1]
	mov r0, r7
	bl __interface_client_call
	chkct res[r7], 1
	freer res[r7]
	ldw r8, sp[6]                   # 4-byte Folded Reload
	ldd r7, r6, sp[2]               # 4-byte Folded Reload
	ldd r5, r4, sp[1]               # 4-byte Folded Reload
	retsp 8
	# RETURN_REG_HOLDER
	.cc_bottom _i.i2c_master_async_if._chan.write.function
	.set	_i.i2c_master_async_if._chan.write.nstackwords,((_i.i2c_master_async_if._client_call_y.max.nstackwords $M ($D __interface_wait_and_yield.nstackwords ? __interface_wait_and_yield.nstackwords $: _i.i2c_master_async_if._client_call_y.max.nstackwords) $M __interface_client_call.nstackwords) + 8)
	.globl	_i.i2c_master_async_if._chan.write.nstackwords
	.weak	_i.i2c_master_async_if._chan.write.nstackwords
	.set	_i.i2c_master_async_if._chan.write.maxcores,__interface_client_call.maxcores $M ($D __interface_wait_and_yield.maxcores ? __interface_wait_and_yield.maxcores $: _i.i2c_master_async_if._client_call_y.max.maxcores) $M 1
	.globl	_i.i2c_master_async_if._chan.write.maxcores
	.weak	_i.i2c_master_async_if._chan.write.maxcores
	.set	_i.i2c_master_async_if._chan.write.maxtimers,__interface_client_call.maxtimers $M ($D __interface_wait_and_yield.maxtimers ? __interface_wait_and_yield.maxtimers $: _i.i2c_master_async_if._client_call_y.max.maxtimers) $M 0
	.globl	_i.i2c_master_async_if._chan.write.maxtimers
	.weak	_i.i2c_master_async_if._chan.write.maxtimers
	.set	_i.i2c_master_async_if._chan.write.maxchanends,(1 + __interface_client_call.maxchanends) $M (1 + ($D __interface_wait_and_yield.maxchanends ? __interface_wait_and_yield.maxchanends $: _i.i2c_master_async_if._client_call_y.max.maxchanends)) $M 1
	.globl	_i.i2c_master_async_if._chan.write.maxchanends
	.weak	_i.i2c_master_async_if._chan.write.maxchanends
.Ltmp499:
	.size	_i.i2c_master_async_if._chan.write, .Ltmp499-_i.i2c_master_async_if._chan.write
	.cfi_endproc

	.weak	_i.i2c_master_async_if._chan_yield.shutdown
	.align	4
	.type	_i.i2c_master_async_if._chan_yield.shutdown,@function
	.cc_top _i.i2c_master_async_if._chan_yield.shutdown.function,_i.i2c_master_async_if._chan_yield.shutdown
_i.i2c_master_async_if._chan_yield.shutdown: # @_i.i2c_master_async_if._chan_yield.shutdown
	.cfi_startproc
	.issue_mode single
# BB#0:                                 # %allocas
	ENTSP_lu6 4
.Ltmp500:
	.cfi_def_cfa_offset 16
.Ltmp501:
	.cfi_offset 15, 0
	std r5, r4, sp[1]               # 4-byte Folded Spill
.Ltmp502:
	.cfi_offset 4, -8
.Ltmp503:
	.cfi_offset 5, -4
	#DEBUG_VALUE: _i.i2c_master_async_if._chan_yield.shutdown:s <- R0
	ldw r1, r0[0]
	getr r4, 2
	setd res[r4], r1
	add r1, r4, 5
	out res[r4], r1
	outct res[r4], 2
	ldw r5, r0[1]
	mov r0, r4
	mov r1, r5
	bl __interface_wait_and_yield
	ldc r1, 0
	mov r0, r4
	mov r2, r5
	bl __interface_client_call_y
	chkct res[r4], 1
	freer res[r4]
	ldd r5, r4, sp[1]               # 4-byte Folded Reload
	retsp 4
	# RETURN_REG_HOLDER
	.cc_bottom _i.i2c_master_async_if._chan_yield.shutdown.function
	.set	_i.i2c_master_async_if._chan_yield.shutdown.nstackwords,((($D __interface_wait_and_yield.nstackwords ? __interface_wait_and_yield.nstackwords $: _i.i2c_master_async_if._client_call_y.max.nstackwords) $M _i.i2c_master_async_if._client_call_y.max.nstackwords $M ($D __interface_client_call_y.nstackwords ? __interface_client_call_y.nstackwords $: _i.i2c_master_async_if._client_call_y.max.nstackwords)) + 4)
	.globl	_i.i2c_master_async_if._chan_yield.shutdown.nstackwords
	.weak	_i.i2c_master_async_if._chan_yield.shutdown.nstackwords
	.set	_i.i2c_master_async_if._chan_yield.shutdown.maxcores,($D __interface_client_call_y.maxcores ? __interface_client_call_y.maxcores $: _i.i2c_master_async_if._client_call_y.max.maxcores) $M ($D __interface_wait_and_yield.maxcores ? __interface_wait_and_yield.maxcores $: _i.i2c_master_async_if._client_call_y.max.maxcores) $M 1
	.globl	_i.i2c_master_async_if._chan_yield.shutdown.maxcores
	.weak	_i.i2c_master_async_if._chan_yield.shutdown.maxcores
	.set	_i.i2c_master_async_if._chan_yield.shutdown.maxtimers,($D __interface_client_call_y.maxtimers ? __interface_client_call_y.maxtimers $: _i.i2c_master_async_if._client_call_y.max.maxtimers) $M ($D __interface_wait_and_yield.maxtimers ? __interface_wait_and_yield.maxtimers $: _i.i2c_master_async_if._client_call_y.max.maxtimers) $M 0
	.globl	_i.i2c_master_async_if._chan_yield.shutdown.maxtimers
	.weak	_i.i2c_master_async_if._chan_yield.shutdown.maxtimers
	.set	_i.i2c_master_async_if._chan_yield.shutdown.maxchanends,(1 + ($D __interface_client_call_y.maxchanends ? __interface_client_call_y.maxchanends $: _i.i2c_master_async_if._client_call_y.max.maxchanends)) $M (1 + ($D __interface_wait_and_yield.maxchanends ? __interface_wait_and_yield.maxchanends $: _i.i2c_master_async_if._client_call_y.max.maxchanends)) $M 1
	.globl	_i.i2c_master_async_if._chan_yield.shutdown.maxchanends
	.weak	_i.i2c_master_async_if._chan_yield.shutdown.maxchanends
.Ltmp504:
	.size	_i.i2c_master_async_if._chan_yield.shutdown, .Ltmp504-_i.i2c_master_async_if._chan_yield.shutdown
	.cfi_endproc

	.weak	_i.i2c_master_async_if._chan_yield.send_stop_bit
	.align	4
	.type	_i.i2c_master_async_if._chan_yield.send_stop_bit,@function
	.cc_top _i.i2c_master_async_if._chan_yield.send_stop_bit.function,_i.i2c_master_async_if._chan_yield.send_stop_bit
_i.i2c_master_async_if._chan_yield.send_stop_bit: # @_i.i2c_master_async_if._chan_yield.send_stop_bit
	.cfi_startproc
	.issue_mode single
# BB#0:                                 # %allocas
	ENTSP_lu6 4
.Ltmp505:
	.cfi_def_cfa_offset 16
.Ltmp506:
	.cfi_offset 15, 0
	std r5, r4, sp[1]               # 4-byte Folded Spill
.Ltmp507:
	.cfi_offset 4, -8
.Ltmp508:
	.cfi_offset 5, -4
	#DEBUG_VALUE: _i.i2c_master_async_if._chan_yield.send_stop_bit:s <- R0
	ldw r1, r0[0]
	getr r4, 2
	setd res[r4], r1
	add r1, r4, 4
	out res[r4], r1
	outct res[r4], 2
	ldw r5, r0[1]
	mov r0, r4
	mov r1, r5
	bl __interface_wait_and_yield
	ldc r1, 0
	mov r0, r4
	mov r2, r5
	bl __interface_client_call_y
	chkct res[r4], 1
	freer res[r4]
	ldd r5, r4, sp[1]               # 4-byte Folded Reload
	retsp 4
	# RETURN_REG_HOLDER
	.cc_bottom _i.i2c_master_async_if._chan_yield.send_stop_bit.function
	.set	_i.i2c_master_async_if._chan_yield.send_stop_bit.nstackwords,((($D __interface_wait_and_yield.nstackwords ? __interface_wait_and_yield.nstackwords $: _i.i2c_master_async_if._client_call_y.max.nstackwords) $M _i.i2c_master_async_if._client_call_y.max.nstackwords $M ($D __interface_client_call_y.nstackwords ? __interface_client_call_y.nstackwords $: _i.i2c_master_async_if._client_call_y.max.nstackwords)) + 4)
	.globl	_i.i2c_master_async_if._chan_yield.send_stop_bit.nstackwords
	.weak	_i.i2c_master_async_if._chan_yield.send_stop_bit.nstackwords
	.set	_i.i2c_master_async_if._chan_yield.send_stop_bit.maxcores,($D __interface_client_call_y.maxcores ? __interface_client_call_y.maxcores $: _i.i2c_master_async_if._client_call_y.max.maxcores) $M ($D __interface_wait_and_yield.maxcores ? __interface_wait_and_yield.maxcores $: _i.i2c_master_async_if._client_call_y.max.maxcores) $M 1
	.globl	_i.i2c_master_async_if._chan_yield.send_stop_bit.maxcores
	.weak	_i.i2c_master_async_if._chan_yield.send_stop_bit.maxcores
	.set	_i.i2c_master_async_if._chan_yield.send_stop_bit.maxtimers,($D __interface_client_call_y.maxtimers ? __interface_client_call_y.maxtimers $: _i.i2c_master_async_if._client_call_y.max.maxtimers) $M ($D __interface_wait_and_yield.maxtimers ? __interface_wait_and_yield.maxtimers $: _i.i2c_master_async_if._client_call_y.max.maxtimers) $M 0
	.globl	_i.i2c_master_async_if._chan_yield.send_stop_bit.maxtimers
	.weak	_i.i2c_master_async_if._chan_yield.send_stop_bit.maxtimers
	.set	_i.i2c_master_async_if._chan_yield.send_stop_bit.maxchanends,(1 + ($D __interface_client_call_y.maxchanends ? __interface_client_call_y.maxchanends $: _i.i2c_master_async_if._client_call_y.max.maxchanends)) $M (1 + ($D __interface_wait_and_yield.maxchanends ? __interface_wait_and_yield.maxchanends $: _i.i2c_master_async_if._client_call_y.max.maxchanends)) $M 1
	.globl	_i.i2c_master_async_if._chan_yield.send_stop_bit.maxchanends
	.weak	_i.i2c_master_async_if._chan_yield.send_stop_bit.maxchanends
.Ltmp509:
	.size	_i.i2c_master_async_if._chan_yield.send_stop_bit, .Ltmp509-_i.i2c_master_async_if._chan_yield.send_stop_bit
	.cfi_endproc

	.weak	_i.i2c_master_async_if._chan_yield.get_read_data
	.align	4
	.type	_i.i2c_master_async_if._chan_yield.get_read_data,@function
	.cc_top _i.i2c_master_async_if._chan_yield.get_read_data.function,_i.i2c_master_async_if._chan_yield.get_read_data
_i.i2c_master_async_if._chan_yield.get_read_data: # @_i.i2c_master_async_if._chan_yield.get_read_data
	.cfi_startproc
	.issue_mode single
# BB#0:                                 # %allocas
	ENTSP_lu6 8
.Ltmp510:
	.cfi_def_cfa_offset 32
.Ltmp511:
	.cfi_offset 15, 0
	std r5, r4, sp[1]               # 4-byte Folded Spill
.Ltmp512:
	.cfi_offset 4, -24
.Ltmp513:
	.cfi_offset 5, -20
	std r7, r6, sp[2]               # 4-byte Folded Spill
.Ltmp514:
	.cfi_offset 6, -16
.Ltmp515:
	.cfi_offset 7, -12
	stw r8, sp[6]                   # 4-byte Folded Spill
.Ltmp516:
	.cfi_offset 8, -8
	#DEBUG_VALUE: _i.i2c_master_async_if._chan_yield.get_read_data:s <- R0
	#DEBUG_VALUE: _i.i2c_master_async_if._chan_yield.get_read_data:clientNotifyFlag <- R1
	#DEBUG_VALUE: _i.i2c_master_async_if._chan_yield.get_read_data:param2 <- R2
	#DEBUG_VALUE: _i.i2c_master_async_if._chan_yield.get_read_data:param3 <- R3
	mov r5, r3
	#DEBUG_VALUE: _i.i2c_master_async_if._chan_yield.get_read_data:param3 <- R5
	mov r6, r2
	#DEBUG_VALUE: _i.i2c_master_async_if._chan_yield.get_read_data:param2 <- R6
	mov r7, r1
	#DEBUG_VALUE: _i.i2c_master_async_if._chan_yield.get_read_data:clientNotifyFlag <- R7
	ldw r1, r0[0]
	getr r4, 2
	setd res[r4], r1
	add r1, r4, 3
	out res[r4], r1
	outct res[r4], 2
	ldw r8, r0[1]
	mov r0, r4
	mov r1, r8
	bl __interface_wait_and_yield
	chkct res[r4], 1
	out res[r4], r7
	stw r6, sp[1]
	out res[r4], r5
	outct res[r4], 2
	ldaw r1, sp[1]
	mov r0, r4
	mov r2, r8
	bl __interface_client_call_y
	in r0, res[r4]
	chkct res[r4], 1
	freer res[r4]
	ldw r8, sp[6]                   # 4-byte Folded Reload
	ldd r7, r6, sp[2]               # 4-byte Folded Reload
	ldd r5, r4, sp[1]               # 4-byte Folded Reload
	retsp 8
	# RETURN_REG_HOLDER
	.cc_bottom _i.i2c_master_async_if._chan_yield.get_read_data.function
	.set	_i.i2c_master_async_if._chan_yield.get_read_data.nstackwords,((($D __interface_wait_and_yield.nstackwords ? __interface_wait_and_yield.nstackwords $: _i.i2c_master_async_if._client_call_y.max.nstackwords) $M _i.i2c_master_async_if._client_call_y.max.nstackwords $M ($D __interface_client_call_y.nstackwords ? __interface_client_call_y.nstackwords $: _i.i2c_master_async_if._client_call_y.max.nstackwords)) + 8)
	.globl	_i.i2c_master_async_if._chan_yield.get_read_data.nstackwords
	.weak	_i.i2c_master_async_if._chan_yield.get_read_data.nstackwords
	.set	_i.i2c_master_async_if._chan_yield.get_read_data.maxcores,($D __interface_client_call_y.maxcores ? __interface_client_call_y.maxcores $: _i.i2c_master_async_if._client_call_y.max.maxcores) $M ($D __interface_wait_and_yield.maxcores ? __interface_wait_and_yield.maxcores $: _i.i2c_master_async_if._client_call_y.max.maxcores) $M 1
	.globl	_i.i2c_master_async_if._chan_yield.get_read_data.maxcores
	.weak	_i.i2c_master_async_if._chan_yield.get_read_data.maxcores
	.set	_i.i2c_master_async_if._chan_yield.get_read_data.maxtimers,($D __interface_client_call_y.maxtimers ? __interface_client_call_y.maxtimers $: _i.i2c_master_async_if._client_call_y.max.maxtimers) $M ($D __interface_wait_and_yield.maxtimers ? __interface_wait_and_yield.maxtimers $: _i.i2c_master_async_if._client_call_y.max.maxtimers) $M 0
	.globl	_i.i2c_master_async_if._chan_yield.get_read_data.maxtimers
	.weak	_i.i2c_master_async_if._chan_yield.get_read_data.maxtimers
	.set	_i.i2c_master_async_if._chan_yield.get_read_data.maxchanends,(1 + ($D __interface_client_call_y.maxchanends ? __interface_client_call_y.maxchanends $: _i.i2c_master_async_if._client_call_y.max.maxchanends)) $M (1 + ($D __interface_wait_and_yield.maxchanends ? __interface_wait_and_yield.maxchanends $: _i.i2c_master_async_if._client_call_y.max.maxchanends)) $M 1
	.globl	_i.i2c_master_async_if._chan_yield.get_read_data.maxchanends
	.weak	_i.i2c_master_async_if._chan_yield.get_read_data.maxchanends
.Ltmp517:
	.size	_i.i2c_master_async_if._chan_yield.get_read_data, .Ltmp517-_i.i2c_master_async_if._chan_yield.get_read_data
	.cfi_endproc

	.weak	_i.i2c_master_async_if._chan_yield.get_write_result
	.align	4
	.type	_i.i2c_master_async_if._chan_yield.get_write_result,@function
	.cc_top _i.i2c_master_async_if._chan_yield.get_write_result.function,_i.i2c_master_async_if._chan_yield.get_write_result
_i.i2c_master_async_if._chan_yield.get_write_result: # @_i.i2c_master_async_if._chan_yield.get_write_result
	.cfi_startproc
	.issue_mode single
# BB#0:                                 # %allocas
	ENTSP_lu6 6
.Ltmp518:
	.cfi_def_cfa_offset 24
.Ltmp519:
	.cfi_offset 15, 0
	std r5, r4, sp[1]               # 4-byte Folded Spill
.Ltmp520:
	.cfi_offset 4, -16
.Ltmp521:
	.cfi_offset 5, -12
	std r7, r6, sp[2]               # 4-byte Folded Spill
.Ltmp522:
	.cfi_offset 6, -8
.Ltmp523:
	.cfi_offset 7, -4
	#DEBUG_VALUE: _i.i2c_master_async_if._chan_yield.get_write_result:s <- R0
	#DEBUG_VALUE: _i.i2c_master_async_if._chan_yield.get_write_result:clientNotifyFlag <- R1
	#DEBUG_VALUE: _i.i2c_master_async_if._chan_yield.get_write_result:param2 <- R2
	mov r4, r2
	#DEBUG_VALUE: _i.i2c_master_async_if._chan_yield.get_write_result:param2 <- R4
	mov r6, r1
	#DEBUG_VALUE: _i.i2c_master_async_if._chan_yield.get_write_result:clientNotifyFlag <- R6
	ldw r1, r0[0]
	getr r5, 2
	setd res[r5], r1
	add r1, r5, 2
	out res[r5], r1
	outct res[r5], 2
	ldw r7, r0[1]
	mov r0, r5
	mov r1, r7
	bl __interface_wait_and_yield
	chkct res[r5], 1
	out res[r5], r6
	ldw r0, r4[0]
	out res[r5], r0
	outct res[r5], 2
	ldc r1, 0
	mov r0, r5
	mov r2, r7
	bl __interface_client_call_y
	in r0, res[r5]
	stw r0, r4[0]
	in r0, res[r5]
	chkct res[r5], 1
	freer res[r5]
	ldd r7, r6, sp[2]               # 4-byte Folded Reload
	ldd r5, r4, sp[1]               # 4-byte Folded Reload
	retsp 6
	# RETURN_REG_HOLDER
	.cc_bottom _i.i2c_master_async_if._chan_yield.get_write_result.function
	.set	_i.i2c_master_async_if._chan_yield.get_write_result.nstackwords,((($D __interface_wait_and_yield.nstackwords ? __interface_wait_and_yield.nstackwords $: _i.i2c_master_async_if._client_call_y.max.nstackwords) $M _i.i2c_master_async_if._client_call_y.max.nstackwords $M ($D __interface_client_call_y.nstackwords ? __interface_client_call_y.nstackwords $: _i.i2c_master_async_if._client_call_y.max.nstackwords)) + 6)
	.globl	_i.i2c_master_async_if._chan_yield.get_write_result.nstackwords
	.weak	_i.i2c_master_async_if._chan_yield.get_write_result.nstackwords
	.set	_i.i2c_master_async_if._chan_yield.get_write_result.maxcores,($D __interface_client_call_y.maxcores ? __interface_client_call_y.maxcores $: _i.i2c_master_async_if._client_call_y.max.maxcores) $M ($D __interface_wait_and_yield.maxcores ? __interface_wait_and_yield.maxcores $: _i.i2c_master_async_if._client_call_y.max.maxcores) $M 1
	.globl	_i.i2c_master_async_if._chan_yield.get_write_result.maxcores
	.weak	_i.i2c_master_async_if._chan_yield.get_write_result.maxcores
	.set	_i.i2c_master_async_if._chan_yield.get_write_result.maxtimers,($D __interface_client_call_y.maxtimers ? __interface_client_call_y.maxtimers $: _i.i2c_master_async_if._client_call_y.max.maxtimers) $M ($D __interface_wait_and_yield.maxtimers ? __interface_wait_and_yield.maxtimers $: _i.i2c_master_async_if._client_call_y.max.maxtimers) $M 0
	.globl	_i.i2c_master_async_if._chan_yield.get_write_result.maxtimers
	.weak	_i.i2c_master_async_if._chan_yield.get_write_result.maxtimers
	.set	_i.i2c_master_async_if._chan_yield.get_write_result.maxchanends,(1 + ($D __interface_client_call_y.maxchanends ? __interface_client_call_y.maxchanends $: _i.i2c_master_async_if._client_call_y.max.maxchanends)) $M (1 + ($D __interface_wait_and_yield.maxchanends ? __interface_wait_and_yield.maxchanends $: _i.i2c_master_async_if._client_call_y.max.maxchanends)) $M 1
	.globl	_i.i2c_master_async_if._chan_yield.get_write_result.maxchanends
	.weak	_i.i2c_master_async_if._chan_yield.get_write_result.maxchanends
.Ltmp524:
	.size	_i.i2c_master_async_if._chan_yield.get_write_result, .Ltmp524-_i.i2c_master_async_if._chan_yield.get_write_result
	.cfi_endproc

	.weak	_i.i2c_master_async_if._chan_yield.read
	.align	4
	.type	_i.i2c_master_async_if._chan_yield.read,@function
	.cc_top _i.i2c_master_async_if._chan_yield.read.function,_i.i2c_master_async_if._chan_yield.read
_i.i2c_master_async_if._chan_yield.read: # @_i.i2c_master_async_if._chan_yield.read
	.cfi_startproc
	.issue_mode single
# BB#0:                                 # %allocas
	ENTSP_lu6 8
.Ltmp525:
	.cfi_def_cfa_offset 32
.Ltmp526:
	.cfi_offset 15, 0
	std r5, r4, sp[1]               # 4-byte Folded Spill
.Ltmp527:
	.cfi_offset 4, -24
.Ltmp528:
	.cfi_offset 5, -20
	std r7, r6, sp[2]               # 4-byte Folded Spill
.Ltmp529:
	.cfi_offset 6, -16
.Ltmp530:
	.cfi_offset 7, -12
	stw r8, sp[6]                   # 4-byte Folded Spill
.Ltmp531:
	.cfi_offset 8, -8
	#DEBUG_VALUE: _i.i2c_master_async_if._chan_yield.read:s <- R0
	#DEBUG_VALUE: _i.i2c_master_async_if._chan_yield.read:param1 <- R1
	#DEBUG_VALUE: _i.i2c_master_async_if._chan_yield.read:param2 <- R2
	#DEBUG_VALUE: _i.i2c_master_async_if._chan_yield.read:param3 <- R3
	mov r4, r3
	#DEBUG_VALUE: _i.i2c_master_async_if._chan_yield.read:param3 <- R4
	mov r5, r2
	#DEBUG_VALUE: _i.i2c_master_async_if._chan_yield.read:param2 <- R5
	mov r6, r1
	#DEBUG_VALUE: _i.i2c_master_async_if._chan_yield.read:param1 <- R6
	ldw r1, r0[0]
	getr r7, 2
	setd res[r7], r1
	add r1, r7, 1
	out res[r7], r1
	outct res[r7], 2
	ldw r8, r0[1]
	mov r0, r7
	mov r1, r8
	bl __interface_wait_and_yield
	chkct res[r7], 1
	outt res[r7], r6
	out res[r7], r5
	out res[r7], r4
	outct res[r7], 2
	ldc r1, 0
	mov r0, r7
	mov r2, r8
	bl __interface_client_call_y
	chkct res[r7], 1
	freer res[r7]
	ldw r8, sp[6]                   # 4-byte Folded Reload
	ldd r7, r6, sp[2]               # 4-byte Folded Reload
	ldd r5, r4, sp[1]               # 4-byte Folded Reload
	retsp 8
	# RETURN_REG_HOLDER
	.cc_bottom _i.i2c_master_async_if._chan_yield.read.function
	.set	_i.i2c_master_async_if._chan_yield.read.nstackwords,((($D __interface_wait_and_yield.nstackwords ? __interface_wait_and_yield.nstackwords $: _i.i2c_master_async_if._client_call_y.max.nstackwords) $M _i.i2c_master_async_if._client_call_y.max.nstackwords $M ($D __interface_client_call_y.nstackwords ? __interface_client_call_y.nstackwords $: _i.i2c_master_async_if._client_call_y.max.nstackwords)) + 8)
	.globl	_i.i2c_master_async_if._chan_yield.read.nstackwords
	.weak	_i.i2c_master_async_if._chan_yield.read.nstackwords
	.set	_i.i2c_master_async_if._chan_yield.read.maxcores,($D __interface_client_call_y.maxcores ? __interface_client_call_y.maxcores $: _i.i2c_master_async_if._client_call_y.max.maxcores) $M ($D __interface_wait_and_yield.maxcores ? __interface_wait_and_yield.maxcores $: _i.i2c_master_async_if._client_call_y.max.maxcores) $M 1
	.globl	_i.i2c_master_async_if._chan_yield.read.maxcores
	.weak	_i.i2c_master_async_if._chan_yield.read.maxcores
	.set	_i.i2c_master_async_if._chan_yield.read.maxtimers,($D __interface_client_call_y.maxtimers ? __interface_client_call_y.maxtimers $: _i.i2c_master_async_if._client_call_y.max.maxtimers) $M ($D __interface_wait_and_yield.maxtimers ? __interface_wait_and_yield.maxtimers $: _i.i2c_master_async_if._client_call_y.max.maxtimers) $M 0
	.globl	_i.i2c_master_async_if._chan_yield.read.maxtimers
	.weak	_i.i2c_master_async_if._chan_yield.read.maxtimers
	.set	_i.i2c_master_async_if._chan_yield.read.maxchanends,(1 + ($D __interface_client_call_y.maxchanends ? __interface_client_call_y.maxchanends $: _i.i2c_master_async_if._client_call_y.max.maxchanends)) $M (1 + ($D __interface_wait_and_yield.maxchanends ? __interface_wait_and_yield.maxchanends $: _i.i2c_master_async_if._client_call_y.max.maxchanends)) $M 1
	.globl	_i.i2c_master_async_if._chan_yield.read.maxchanends
	.weak	_i.i2c_master_async_if._chan_yield.read.maxchanends
.Ltmp532:
	.size	_i.i2c_master_async_if._chan_yield.read, .Ltmp532-_i.i2c_master_async_if._chan_yield.read
	.cfi_endproc

	.weak	_i.i2c_master_async_if._chan_yield.write
	.align	4
	.type	_i.i2c_master_async_if._chan_yield.write,@function
	.cc_top _i.i2c_master_async_if._chan_yield.write.function,_i.i2c_master_async_if._chan_yield.write
_i.i2c_master_async_if._chan_yield.write: # @_i.i2c_master_async_if._chan_yield.write
	.cfi_startproc
	.issue_mode single
# BB#0:                                 # %allocas
	ENTSP_lu6 8
.Ltmp533:
	.cfi_def_cfa_offset 32
.Ltmp534:
	.cfi_offset 15, 0
	std r5, r4, sp[1]               # 4-byte Folded Spill
.Ltmp535:
	.cfi_offset 4, -24
.Ltmp536:
	.cfi_offset 5, -20
	std r7, r6, sp[2]               # 4-byte Folded Spill
.Ltmp537:
	.cfi_offset 6, -16
.Ltmp538:
	.cfi_offset 7, -12
	std r9, r8, sp[3]               # 4-byte Folded Spill
.Ltmp539:
	.cfi_offset 8, -8
.Ltmp540:
	.cfi_offset 9, -4
	#DEBUG_VALUE: _i.i2c_master_async_if._chan_yield.write:s <- R0
	#DEBUG_VALUE: _i.i2c_master_async_if._chan_yield.write:param1 <- R1
	#DEBUG_VALUE: _i.i2c_master_async_if._chan_yield.write:param2 <- R2
	#DEBUG_VALUE: _i.i2c_master_async_if._chan_yield.write:param3 <- R3
	#DEBUG_VALUE: _i.i2c_master_async_if._chan_yield.write:param4 <- [SP+36]
	mov r4, r3
	#DEBUG_VALUE: _i.i2c_master_async_if._chan_yield.write:param3 <- R4
	mov r5, r2
	#DEBUG_VALUE: _i.i2c_master_async_if._chan_yield.write:param2 <- R5
	mov r6, r1
	#DEBUG_VALUE: _i.i2c_master_async_if._chan_yield.write:param1 <- R6
	ldw r9, sp[9]
	ldw r1, r0[0]
	getr r7, 2
	setd res[r7], r1
	out res[r7], r7
	outct res[r7], 2
	ldw r8, r0[1]
	mov r0, r7
	mov r1, r8
	bl __interface_wait_and_yield
	chkct res[r7], 1
	outt res[r7], r6
	stw r5, sp[1]
	out res[r7], r4
	out res[r7], r9
	outct res[r7], 2
	ldaw r1, sp[1]
	mov r0, r7
	mov r2, r8
	bl __interface_client_call_y
	chkct res[r7], 1
	freer res[r7]
	ldd r9, r8, sp[3]               # 4-byte Folded Reload
	ldd r7, r6, sp[2]               # 4-byte Folded Reload
	ldd r5, r4, sp[1]               # 4-byte Folded Reload
	retsp 8
	# RETURN_REG_HOLDER
	.cc_bottom _i.i2c_master_async_if._chan_yield.write.function
	.set	_i.i2c_master_async_if._chan_yield.write.nstackwords,((($D __interface_wait_and_yield.nstackwords ? __interface_wait_and_yield.nstackwords $: _i.i2c_master_async_if._client_call_y.max.nstackwords) $M _i.i2c_master_async_if._client_call_y.max.nstackwords $M ($D __interface_client_call_y.nstackwords ? __interface_client_call_y.nstackwords $: _i.i2c_master_async_if._client_call_y.max.nstackwords)) + 8)
	.globl	_i.i2c_master_async_if._chan_yield.write.nstackwords
	.weak	_i.i2c_master_async_if._chan_yield.write.nstackwords
	.set	_i.i2c_master_async_if._chan_yield.write.maxcores,($D __interface_client_call_y.maxcores ? __interface_client_call_y.maxcores $: _i.i2c_master_async_if._client_call_y.max.maxcores) $M ($D __interface_wait_and_yield.maxcores ? __interface_wait_and_yield.maxcores $: _i.i2c_master_async_if._client_call_y.max.maxcores) $M 1
	.globl	_i.i2c_master_async_if._chan_yield.write.maxcores
	.weak	_i.i2c_master_async_if._chan_yield.write.maxcores
	.set	_i.i2c_master_async_if._chan_yield.write.maxtimers,($D __interface_client_call_y.maxtimers ? __interface_client_call_y.maxtimers $: _i.i2c_master_async_if._client_call_y.max.maxtimers) $M ($D __interface_wait_and_yield.maxtimers ? __interface_wait_and_yield.maxtimers $: _i.i2c_master_async_if._client_call_y.max.maxtimers) $M 0
	.globl	_i.i2c_master_async_if._chan_yield.write.maxtimers
	.weak	_i.i2c_master_async_if._chan_yield.write.maxtimers
	.set	_i.i2c_master_async_if._chan_yield.write.maxchanends,(1 + ($D __interface_client_call_y.maxchanends ? __interface_client_call_y.maxchanends $: _i.i2c_master_async_if._client_call_y.max.maxchanends)) $M (1 + ($D __interface_wait_and_yield.maxchanends ? __interface_wait_and_yield.maxchanends $: _i.i2c_master_async_if._client_call_y.max.maxchanends)) $M 1
	.globl	_i.i2c_master_async_if._chan_yield.write.maxchanends
	.weak	_i.i2c_master_async_if._chan_yield.write.maxchanends
.Ltmp541:
	.size	_i.i2c_master_async_if._chan_yield.write, .Ltmp541-_i.i2c_master_async_if._chan_yield.write
	.cfi_endproc

	.weak	_i.i2c_slave_callback_if._chan.stop_bit
	.align	4
	.type	_i.i2c_slave_callback_if._chan.stop_bit,@function
	.cc_top _i.i2c_slave_callback_if._chan.stop_bit.function,_i.i2c_slave_callback_if._chan.stop_bit
_i.i2c_slave_callback_if._chan.stop_bit: # @_i.i2c_slave_callback_if._chan.stop_bit
	.cfi_startproc
	.issue_mode single
# BB#0:                                 # %allocas
	ENTSP_lu6 4
.Ltmp542:
	.cfi_def_cfa_offset 16
.Ltmp543:
	.cfi_offset 15, 0
	stw r4, sp[2]                   # 4-byte Folded Spill
.Ltmp544:
	.cfi_offset 4, -8
	#DEBUG_VALUE: _i.i2c_slave_callback_if._chan.stop_bit:dest <- R0
	getr r4, 2
	setd res[r4], r0
	add r0, r4, 8
	out res[r4], r0
	outct res[r4], 2
	ldc r1, 0
	mov r0, r4
	bl __interface_wait_and_yield
	in r0, res[r4]
	chkct res[r4], 1
	freer res[r4]
	ldw r4, sp[2]                   # 4-byte Folded Reload
	retsp 4
	# RETURN_REG_HOLDER
	.cc_bottom _i.i2c_slave_callback_if._chan.stop_bit.function
	.set	_i.i2c_slave_callback_if._chan.stop_bit.nstackwords,((_i.i2c_slave_callback_if._client_call_y.max.nstackwords $M ($D __interface_wait_and_yield.nstackwords ? __interface_wait_and_yield.nstackwords $: _i.i2c_slave_callback_if._client_call_y.max.nstackwords)) + 4)
	.globl	_i.i2c_slave_callback_if._chan.stop_bit.nstackwords
	.weak	_i.i2c_slave_callback_if._chan.stop_bit.nstackwords
	.set	_i.i2c_slave_callback_if._chan.stop_bit.maxcores,($D __interface_wait_and_yield.maxcores ? __interface_wait_and_yield.maxcores $: _i.i2c_slave_callback_if._client_call_y.max.maxcores) $M 1
	.globl	_i.i2c_slave_callback_if._chan.stop_bit.maxcores
	.weak	_i.i2c_slave_callback_if._chan.stop_bit.maxcores
	.set	_i.i2c_slave_callback_if._chan.stop_bit.maxtimers,($D __interface_wait_and_yield.maxtimers ? __interface_wait_and_yield.maxtimers $: _i.i2c_slave_callback_if._client_call_y.max.maxtimers) $M 0
	.globl	_i.i2c_slave_callback_if._chan.stop_bit.maxtimers
	.weak	_i.i2c_slave_callback_if._chan.stop_bit.maxtimers
	.set	_i.i2c_slave_callback_if._chan.stop_bit.maxchanends,(1 + ($D __interface_wait_and_yield.maxchanends ? __interface_wait_and_yield.maxchanends $: _i.i2c_slave_callback_if._client_call_y.max.maxchanends)) $M 1
	.globl	_i.i2c_slave_callback_if._chan.stop_bit.maxchanends
	.weak	_i.i2c_slave_callback_if._chan.stop_bit.maxchanends
.Ltmp545:
	.size	_i.i2c_slave_callback_if._chan.stop_bit, .Ltmp545-_i.i2c_slave_callback_if._chan.stop_bit
	.cfi_endproc

	.weak	_i.i2c_slave_callback_if._chan.master_sent_data
	.align	4
	.type	_i.i2c_slave_callback_if._chan.master_sent_data,@function
	.cc_top _i.i2c_slave_callback_if._chan.master_sent_data.function,_i.i2c_slave_callback_if._chan.master_sent_data
_i.i2c_slave_callback_if._chan.master_sent_data: # @_i.i2c_slave_callback_if._chan.master_sent_data
	.cfi_startproc
	.issue_mode single
# BB#0:                                 # %allocas
	ENTSP_lu6 4
.Ltmp546:
	.cfi_def_cfa_offset 16
.Ltmp547:
	.cfi_offset 15, 0
	std r5, r4, sp[1]               # 4-byte Folded Spill
.Ltmp548:
	.cfi_offset 4, -8
.Ltmp549:
	.cfi_offset 5, -4
	#DEBUG_VALUE: _i.i2c_slave_callback_if._chan.master_sent_data:dest <- R0
	#DEBUG_VALUE: _i.i2c_slave_callback_if._chan.master_sent_data:param1 <- R1
	mov r4, r1
	#DEBUG_VALUE: _i.i2c_slave_callback_if._chan.master_sent_data:param1 <- R4
	getr r5, 2
	setd res[r5], r0
	add r0, r5, 7
	out res[r5], r0
	outct res[r5], 2
	ldc r1, 0
	mov r0, r5
	bl __interface_wait_and_yield
	chkct res[r5], 1
	outt res[r5], r4
	outct res[r5], 2
	in r0, res[r5]
	in r0, res[r5]
	chkct res[r5], 1
	freer res[r5]
	ldd r5, r4, sp[1]               # 4-byte Folded Reload
	retsp 4
	# RETURN_REG_HOLDER
	.cc_bottom _i.i2c_slave_callback_if._chan.master_sent_data.function
	.set	_i.i2c_slave_callback_if._chan.master_sent_data.nstackwords,((_i.i2c_slave_callback_if._client_call_y.max.nstackwords $M ($D __interface_wait_and_yield.nstackwords ? __interface_wait_and_yield.nstackwords $: _i.i2c_slave_callback_if._client_call_y.max.nstackwords)) + 4)
	.globl	_i.i2c_slave_callback_if._chan.master_sent_data.nstackwords
