	.text
	.file	"C:/Users/user/workspace/module_usb_audio/main.xc"
                                        # Start of file scope inline assembly
	.inline_definition delay_seconds
	.inline_definition delay_milliseconds
	.inline_definition delay_microseconds
	.inline_definition XUD_SetReady_Out
	.inline_definition XUD_SetReady_OutPtr
	.inline_definition XUD_SetReady_InPtr
	.inline_definition XUD_SetReady_In
	.inline_definition __i_i2c_master_if_read_reg
	.inline_definition __i_i2c_master_if_write_reg
	.inline_definition __i_i2c_master_if_read_reg8_addr16
	.inline_definition __i_i2c_master_if_write_reg8_addr16
	.inline_definition __i_i2c_master_if_read_reg16
	.inline_definition __i_i2c_master_if_write_reg16
	.inline_definition __i_i2c_master_if_read_reg16_addr8
	.inline_definition __i_i2c_master_if_write_reg16_addr8
	.globalresource 0x10f00,"p_i2s_dac[0]","tile[1]"
	.globalresource 0x10d00,"p_lrclk","tile[1]"
	.globalresource 0x10c00,"p_bclk","tile[1]"
	.globalresource 0x10e00,"p_mclk_in","tile[1]"
	.globalresource 0x100100,"p_for_mclk_count","tile[1]"
	.globalresource 0x206,"clk_audio_mclk","tile[1]"
	.globalresource 0x306,"clk_audio_bclk","tile[1]"
	.globalresource 0x40000,"p_button","tile[0]"
	.set usb_audio_core.savedstate,18
	.globl usb_audio_core.savedstate
	.set _Susb_audio_core_0.savedstate,18
	.globl _Susb_audio_core_0.savedstate
	.set usb_audio_io.savedstate,6
	.globl usb_audio_io.savedstate
	.set _Susb_audio_io_0.savedstate,6
	.globl _Susb_audio_io_0.savedstate
	.set __main__main_tile_0.savedstate,68
	.globl __main__main_tile_0.savedstate
	.weak _i.beclear_if.swap_buffers.maxchanends.group
	.add_to_set _i.beclear_if.swap_buffers.maxchanends.group, _i.beclear_if._chan.swap_buffers.maxchanends, _i.beclear_if._chan.swap_buffers
	.max_reduce _i.beclear_if.swap_buffers.max.maxchanends, _i.beclear_if.swap_buffers.maxchanends.group, 0
	.weak _i.beclear_if.swap_buffers.maxcores.group
	.add_to_set _i.beclear_if.swap_buffers.maxcores.group, _i.beclear_if._chan.swap_buffers.maxcores, _i.beclear_if._chan.swap_buffers
	.max_reduce _i.beclear_if.swap_buffers.max.maxcores, _i.beclear_if.swap_buffers.maxcores.group, 0
	.weak _i.beclear_if.swap_buffers.maxtimers.group
	.add_to_set _i.beclear_if.swap_buffers.maxtimers.group, _i.beclear_if._chan.swap_buffers.maxtimers, _i.beclear_if._chan.swap_buffers
	.max_reduce _i.beclear_if.swap_buffers.max.maxtimers, _i.beclear_if.swap_buffers.maxtimers.group, 0
	.weak _i.beclear_if.swap_buffers.nstackwords.group
	.globl _i.beclear_if.swap_buffers.nstackwords.group
	.weak _i.beclear_if.swap_buffers.fns.group
	.globl _i.beclear_if.swap_buffers.fns.group
	.add_to_set _i.beclear_if.swap_buffers.nstackwords.group, _i.beclear_if._chan.swap_buffers.nstackwords, _i.beclear_if._chan.swap_buffers
	.add_to_set _i.beclear_if.swap_buffers.fns.group, _i.beclear_if._chan.swap_buffers, _i.beclear_if._chan.swap_buffers
	.max_reduce _i.beclear_if.swap_buffers.max.nstackwords, _i.beclear_if.swap_buffers.nstackwords.group, 0
	.max_reduce _i.beclear_if.swap_buffers.fns, _i.beclear_if.swap_buffers.fns.group, 0
	.weak _i.beclear_if.transfer_samples.maxchanends.group
	.add_to_set _i.beclear_if.transfer_samples.maxchanends.group, _i.beclear_if._chan.transfer_samples.maxchanends, _i.beclear_if._chan.transfer_samples
	.max_reduce _i.beclear_if.transfer_samples.max.maxchanends, _i.beclear_if.transfer_samples.maxchanends.group, 0
	.weak _i.beclear_if.transfer_samples.maxcores.group
	.add_to_set _i.beclear_if.transfer_samples.maxcores.group, _i.beclear_if._chan.transfer_samples.maxcores, _i.beclear_if._chan.transfer_samples
	.max_reduce _i.beclear_if.transfer_samples.max.maxcores, _i.beclear_if.transfer_samples.maxcores.group, 0
	.weak _i.beclear_if.transfer_samples.maxtimers.group
	.add_to_set _i.beclear_if.transfer_samples.maxtimers.group, _i.beclear_if._chan.transfer_samples.maxtimers, _i.beclear_if._chan.transfer_samples
	.max_reduce _i.beclear_if.transfer_samples.max.maxtimers, _i.beclear_if.transfer_samples.maxtimers.group, 0
	.weak _i.beclear_if.transfer_samples.nstackwords.group
	.globl _i.beclear_if.transfer_samples.nstackwords.group
	.weak _i.beclear_if.transfer_samples.fns.group
	.globl _i.beclear_if.transfer_samples.fns.group
	.add_to_set _i.beclear_if.transfer_samples.nstackwords.group, _i.beclear_if._chan.transfer_samples.nstackwords, _i.beclear_if._chan.transfer_samples
	.add_to_set _i.beclear_if.transfer_samples.fns.group, _i.beclear_if._chan.transfer_samples, _i.beclear_if._chan.transfer_samples
	.max_reduce _i.beclear_if.transfer_samples.max.nstackwords, _i.beclear_if.transfer_samples.nstackwords.group, 0
	.max_reduce _i.beclear_if.transfer_samples.fns, _i.beclear_if.transfer_samples.fns.group, 0
	.weak _i.beclear_if.__interface_init.maxchanends.group
	.max_reduce _i.beclear_if.__interface_init.max.maxchanends, _i.beclear_if.__interface_init.maxchanends.group, 0
	.weak _i.beclear_if.__interface_init.maxcores.group
	.max_reduce _i.beclear_if.__interface_init.max.maxcores, _i.beclear_if.__interface_init.maxcores.group, 0
	.weak _i.beclear_if.__interface_init.maxtimers.group
	.max_reduce _i.beclear_if.__interface_init.max.maxtimers, _i.beclear_if.__interface_init.maxtimers.group, 0
	.weak _i.beclear_if.__interface_init.nstackwords.group
	.globl _i.beclear_if.__interface_init.nstackwords.group
	.weak _i.beclear_if.__interface_init.fns.group
	.globl _i.beclear_if.__interface_init.fns.group
	.max_reduce _i.beclear_if.__interface_init.max.nstackwords, _i.beclear_if.__interface_init.nstackwords.group, 0
	.max_reduce _i.beclear_if.__interface_init.fns, _i.beclear_if.__interface_init.fns.group, 0
	.weak _i.beclear_if._client_call_y.maxchanends.group
	.add_to_set _i.beclear_if._client_call_y.maxchanends.group, (__interface_client_call_y_other.maxchanends + __interface_client_call_y_extra.maxchanends), __interface_client_call_y_other
	.max_reduce _i.beclear_if._client_call_y.max.maxchanends, _i.beclear_if._client_call_y.maxchanends.group, 0
	.weak _i.beclear_if._client_call_y.maxcores.group
	.add_to_set _i.beclear_if._client_call_y.maxcores.group, (__interface_client_call_y_other.maxcores + __interface_client_call_y_extra.maxcores), __interface_client_call_y_other
	.max_reduce _i.beclear_if._client_call_y.max.maxcores, _i.beclear_if._client_call_y.maxcores.group, 0
	.weak _i.beclear_if._client_call_y.maxtimers.group
	.add_to_set _i.beclear_if._client_call_y.maxtimers.group, (__interface_client_call_y_other.maxtimers + __interface_client_call_y_extra.maxtimers), __interface_client_call_y_other
	.max_reduce _i.beclear_if._client_call_y.max.maxtimers, _i.beclear_if._client_call_y.maxtimers.group, 0
	.weak _i.beclear_if._client_call_y.nstackwords.group
	.globl _i.beclear_if._client_call_y.nstackwords.group
	.weak _i.beclear_if._client_call_y.fns.group
	.globl _i.beclear_if._client_call_y.fns.group
	.add_to_set _i.beclear_if._client_call_y.nstackwords.group, (__interface_client_call_y_other.nstackwords + __interface_client_call_y_extra.nstackwords), __interface_client_call_y_other
	.add_to_set _i.beclear_if._client_call_y.fns.group, __interface_client_call_y_other, __interface_client_call_y_other
	.max_reduce _i.beclear_if._client_call_y.max.nstackwords, _i.beclear_if._client_call_y.nstackwords.group, 0
	.max_reduce _i.beclear_if._client_call_y.fns, _i.beclear_if._client_call_y.fns.group, 0
	.set __main__main_tile_1.savedstate,56
	.globl __main__main_tile_1.savedstate
	.weak _i.control.register_resources.maxchanends.group
	.add_to_set _i.control.register_resources.maxchanends.group, _i.control._chan.register_resources.maxchanends, _i.control._chan.register_resources
	.max_reduce _i.control.register_resources.max.maxchanends, _i.control.register_resources.maxchanends.group, 0
	.weak _i.control.register_resources.maxcores.group
	.add_to_set _i.control.register_resources.maxcores.group, _i.control._chan.register_resources.maxcores, _i.control._chan.register_resources
	.max_reduce _i.control.register_resources.max.maxcores, _i.control.register_resources.maxcores.group, 0
	.weak _i.control.register_resources.maxtimers.group
	.add_to_set _i.control.register_resources.maxtimers.group, _i.control._chan.register_resources.maxtimers, _i.control._chan.register_resources
	.max_reduce _i.control.register_resources.max.maxtimers, _i.control.register_resources.maxtimers.group, 0
	.weak _i.control.register_resources.nstackwords.group
	.globl _i.control.register_resources.nstackwords.group
	.weak _i.control.register_resources.fns.group
	.globl _i.control.register_resources.fns.group
	.add_to_set _i.control.register_resources.nstackwords.group, _i.control._chan.register_resources.nstackwords, _i.control._chan.register_resources
	.add_to_set _i.control.register_resources.fns.group, _i.control._chan.register_resources, _i.control._chan.register_resources
	.max_reduce _i.control.register_resources.max.nstackwords, _i.control.register_resources.nstackwords.group, 0
	.max_reduce _i.control.register_resources.fns, _i.control.register_resources.fns.group, 0
	.weak _i.control.write_command.maxchanends.group
	.add_to_set _i.control.write_command.maxchanends.group, _i.control._chan.write_command.maxchanends, _i.control._chan.write_command
	.max_reduce _i.control.write_command.max.maxchanends, _i.control.write_command.maxchanends.group, 0
	.weak _i.control.write_command.maxcores.group
	.add_to_set _i.control.write_command.maxcores.group, _i.control._chan.write_command.maxcores, _i.control._chan.write_command
	.max_reduce _i.control.write_command.max.maxcores, _i.control.write_command.maxcores.group, 0
	.weak _i.control.write_command.maxtimers.group
	.add_to_set _i.control.write_command.maxtimers.group, _i.control._chan.write_command.maxtimers, _i.control._chan.write_command
	.max_reduce _i.control.write_command.max.maxtimers, _i.control.write_command.maxtimers.group, 0
	.weak _i.control.write_command.nstackwords.group
	.globl _i.control.write_command.nstackwords.group
	.weak _i.control.write_command.fns.group
	.globl _i.control.write_command.fns.group
	.add_to_set _i.control.write_command.nstackwords.group, _i.control._chan.write_command.nstackwords, _i.control._chan.write_command
	.add_to_set _i.control.write_command.fns.group, _i.control._chan.write_command, _i.control._chan.write_command
	.max_reduce _i.control.write_command.max.nstackwords, _i.control.write_command.nstackwords.group, 0
	.max_reduce _i.control.write_command.fns, _i.control.write_command.fns.group, 0
	.weak _i.control.read_command.maxchanends.group
	.add_to_set _i.control.read_command.maxchanends.group, _i.control._chan.read_command.maxchanends, _i.control._chan.read_command
	.max_reduce _i.control.read_command.max.maxchanends, _i.control.read_command.maxchanends.group, 0
	.weak _i.control.read_command.maxcores.group
	.add_to_set _i.control.read_command.maxcores.group, _i.control._chan.read_command.maxcores, _i.control._chan.read_command
	.max_reduce _i.control.read_command.max.maxcores, _i.control.read_command.maxcores.group, 0
	.weak _i.control.read_command.maxtimers.group
	.add_to_set _i.control.read_command.maxtimers.group, _i.control._chan.read_command.maxtimers, _i.control._chan.read_command
	.max_reduce _i.control.read_command.max.maxtimers, _i.control.read_command.maxtimers.group, 0
	.weak _i.control.read_command.nstackwords.group
	.globl _i.control.read_command.nstackwords.group
	.weak _i.control.read_command.fns.group
	.globl _i.control.read_command.fns.group
	.add_to_set _i.control.read_command.nstackwords.group, _i.control._chan.read_command.nstackwords, _i.control._chan.read_command
	.add_to_set _i.control.read_command.fns.group, _i.control._chan.read_command, _i.control._chan.read_command
	.max_reduce _i.control.read_command.max.nstackwords, _i.control.read_command.nstackwords.group, 0
	.max_reduce _i.control.read_command.fns, _i.control.read_command.fns.group, 0
	.weak _i.control.__interface_init.maxchanends.group
	.max_reduce _i.control.__interface_init.max.maxchanends, _i.control.__interface_init.maxchanends.group, 0
	.weak _i.control.__interface_init.maxcores.group
	.max_reduce _i.control.__interface_init.max.maxcores, _i.control.__interface_init.maxcores.group, 0
	.weak _i.control.__interface_init.maxtimers.group
	.max_reduce _i.control.__interface_init.max.maxtimers, _i.control.__interface_init.maxtimers.group, 0
	.weak _i.control.__interface_init.nstackwords.group
	.globl _i.control.__interface_init.nstackwords.group
	.weak _i.control.__interface_init.fns.group
	.globl _i.control.__interface_init.fns.group
	.max_reduce _i.control.__interface_init.max.nstackwords, _i.control.__interface_init.nstackwords.group, 0
	.max_reduce _i.control.__interface_init.fns, _i.control.__interface_init.fns.group, 0
	.weak _i.control._client_call_y.maxchanends.group
	.add_to_set _i.control._client_call_y.maxchanends.group, (__interface_client_call_y_other.maxchanends + __interface_client_call_y_extra.maxchanends), __interface_client_call_y_other
	.max_reduce _i.control._client_call_y.max.maxchanends, _i.control._client_call_y.maxchanends.group, 0
	.weak _i.control._client_call_y.maxcores.group
	.add_to_set _i.control._client_call_y.maxcores.group, (__interface_client_call_y_other.maxcores + __interface_client_call_y_extra.maxcores), __interface_client_call_y_other
	.max_reduce _i.control._client_call_y.max.maxcores, _i.control._client_call_y.maxcores.group, 0
	.weak _i.control._client_call_y.maxtimers.group
	.add_to_set _i.control._client_call_y.maxtimers.group, (__interface_client_call_y_other.maxtimers + __interface_client_call_y_extra.maxtimers), __interface_client_call_y_other
	.max_reduce _i.control._client_call_y.max.maxtimers, _i.control._client_call_y.maxtimers.group, 0
	.weak _i.control._client_call_y.nstackwords.group
	.globl _i.control._client_call_y.nstackwords.group
	.weak _i.control._client_call_y.fns.group
	.globl _i.control._client_call_y.fns.group
	.add_to_set _i.control._client_call_y.nstackwords.group, (__interface_client_call_y_other.nstackwords + __interface_client_call_y_extra.nstackwords), __interface_client_call_y_other
	.add_to_set _i.control._client_call_y.fns.group, __interface_client_call_y_other, __interface_client_call_y_other
	.max_reduce _i.control._client_call_y.max.nstackwords, _i.control._client_call_y.nstackwords.group, 0
	.max_reduce _i.control._client_call_y.fns, _i.control._client_call_y.fns.group, 0
	.weak _i.i_dfu.HandleDfuRequest.maxchanends.group
	.add_to_set _i.i_dfu.HandleDfuRequest.maxchanends.group, _i.i_dfu._chan.HandleDfuRequest.maxchanends, _i.i_dfu._chan.HandleDfuRequest
	.max_reduce _i.i_dfu.HandleDfuRequest.max.maxchanends, _i.i_dfu.HandleDfuRequest.maxchanends.group, 0
	.weak _i.i_dfu.HandleDfuRequest.maxcores.group
	.add_to_set _i.i_dfu.HandleDfuRequest.maxcores.group, _i.i_dfu._chan.HandleDfuRequest.maxcores, _i.i_dfu._chan.HandleDfuRequest
	.max_reduce _i.i_dfu.HandleDfuRequest.max.maxcores, _i.i_dfu.HandleDfuRequest.maxcores.group, 0
	.weak _i.i_dfu.HandleDfuRequest.maxtimers.group
	.add_to_set _i.i_dfu.HandleDfuRequest.maxtimers.group, _i.i_dfu._chan.HandleDfuRequest.maxtimers, _i.i_dfu._chan.HandleDfuRequest
	.max_reduce _i.i_dfu.HandleDfuRequest.max.maxtimers, _i.i_dfu.HandleDfuRequest.maxtimers.group, 0
	.weak _i.i_dfu.HandleDfuRequest.nstackwords.group
	.globl _i.i_dfu.HandleDfuRequest.nstackwords.group
	.weak _i.i_dfu.HandleDfuRequest.fns.group
	.globl _i.i_dfu.HandleDfuRequest.fns.group
	.add_to_set _i.i_dfu.HandleDfuRequest.nstackwords.group, _i.i_dfu._chan.HandleDfuRequest.nstackwords, _i.i_dfu._chan.HandleDfuRequest
	.add_to_set _i.i_dfu.HandleDfuRequest.fns.group, _i.i_dfu._chan.HandleDfuRequest, _i.i_dfu._chan.HandleDfuRequest
	.max_reduce _i.i_dfu.HandleDfuRequest.max.nstackwords, _i.i_dfu.HandleDfuRequest.nstackwords.group, 0
	.max_reduce _i.i_dfu.HandleDfuRequest.fns, _i.i_dfu.HandleDfuRequest.fns.group, 0
	.weak _i.i_dfu.finish.maxchanends.group
	.add_to_set _i.i_dfu.finish.maxchanends.group, _i.i_dfu._chan.finish.maxchanends, _i.i_dfu._chan.finish
	.max_reduce _i.i_dfu.finish.max.maxchanends, _i.i_dfu.finish.maxchanends.group, 0
	.weak _i.i_dfu.finish.maxcores.group
	.add_to_set _i.i_dfu.finish.maxcores.group, _i.i_dfu._chan.finish.maxcores, _i.i_dfu._chan.finish
	.max_reduce _i.i_dfu.finish.max.maxcores, _i.i_dfu.finish.maxcores.group, 0
	.weak _i.i_dfu.finish.maxtimers.group
	.add_to_set _i.i_dfu.finish.maxtimers.group, _i.i_dfu._chan.finish.maxtimers, _i.i_dfu._chan.finish
	.max_reduce _i.i_dfu.finish.max.maxtimers, _i.i_dfu.finish.maxtimers.group, 0
	.weak _i.i_dfu.finish.nstackwords.group
	.globl _i.i_dfu.finish.nstackwords.group
	.weak _i.i_dfu.finish.fns.group
	.globl _i.i_dfu.finish.fns.group
	.add_to_set _i.i_dfu.finish.nstackwords.group, _i.i_dfu._chan.finish.nstackwords, _i.i_dfu._chan.finish
	.add_to_set _i.i_dfu.finish.fns.group, _i.i_dfu._chan.finish, _i.i_dfu._chan.finish
	.max_reduce _i.i_dfu.finish.max.nstackwords, _i.i_dfu.finish.nstackwords.group, 0
	.max_reduce _i.i_dfu.finish.fns, _i.i_dfu.finish.fns.group, 0
	.weak _i.i_dfu.__interface_init.maxchanends.group
	.max_reduce _i.i_dfu.__interface_init.max.maxchanends, _i.i_dfu.__interface_init.maxchanends.group, 0
	.weak _i.i_dfu.__interface_init.maxcores.group
	.max_reduce _i.i_dfu.__interface_init.max.maxcores, _i.i_dfu.__interface_init.maxcores.group, 0
	.weak _i.i_dfu.__interface_init.maxtimers.group
	.max_reduce _i.i_dfu.__interface_init.max.maxtimers, _i.i_dfu.__interface_init.maxtimers.group, 0
	.weak _i.i_dfu.__interface_init.nstackwords.group
	.globl _i.i_dfu.__interface_init.nstackwords.group
	.weak _i.i_dfu.__interface_init.fns.group
	.globl _i.i_dfu.__interface_init.fns.group
	.max_reduce _i.i_dfu.__interface_init.max.nstackwords, _i.i_dfu.__interface_init.nstackwords.group, 0
	.max_reduce _i.i_dfu.__interface_init.fns, _i.i_dfu.__interface_init.fns.group, 0
	.weak _i.i_dfu._client_call_y.maxchanends.group
	.add_to_set _i.i_dfu._client_call_y.maxchanends.group, (__interface_client_call_y_other.maxchanends + __interface_client_call_y_extra.maxchanends), __interface_client_call_y_other
	.max_reduce _i.i_dfu._client_call_y.max.maxchanends, _i.i_dfu._client_call_y.maxchanends.group, 0
	.weak _i.i_dfu._client_call_y.maxcores.group
	.add_to_set _i.i_dfu._client_call_y.maxcores.group, (__interface_client_call_y_other.maxcores + __interface_client_call_y_extra.maxcores), __interface_client_call_y_other
	.max_reduce _i.i_dfu._client_call_y.max.maxcores, _i.i_dfu._client_call_y.maxcores.group, 0
	.weak _i.i_dfu._client_call_y.maxtimers.group
	.add_to_set _i.i_dfu._client_call_y.maxtimers.group, (__interface_client_call_y_other.maxtimers + __interface_client_call_y_extra.maxtimers), __interface_client_call_y_other
	.max_reduce _i.i_dfu._client_call_y.max.maxtimers, _i.i_dfu._client_call_y.maxtimers.group, 0
	.weak _i.i_dfu._client_call_y.nstackwords.group
	.globl _i.i_dfu._client_call_y.nstackwords.group
	.weak _i.i_dfu._client_call_y.fns.group
	.globl _i.i_dfu._client_call_y.fns.group
	.add_to_set _i.i_dfu._client_call_y.nstackwords.group, (__interface_client_call_y_other.nstackwords + __interface_client_call_y_extra.nstackwords), __interface_client_call_y_other
	.add_to_set _i.i_dfu._client_call_y.fns.group, __interface_client_call_y_other, __interface_client_call_y_other
	.max_reduce _i.i_dfu._client_call_y.max.nstackwords, _i.i_dfu._client_call_y.nstackwords.group, 0
	.max_reduce _i.i_dfu._client_call_y.fns, _i.i_dfu._client_call_y.fns.group, 0
	.weak _i.audManage_if.transfer_buffers.maxchanends.group
	.add_to_set _i.audManage_if.transfer_buffers.maxchanends.group, _i.audManage_if._chan.transfer_buffers.maxchanends, _i.audManage_if._chan.transfer_buffers
	.max_reduce _i.audManage_if.transfer_buffers.max.maxchanends, _i.audManage_if.transfer_buffers.maxchanends.group, 0
	.weak _i.audManage_if.transfer_buffers.maxcores.group
	.add_to_set _i.audManage_if.transfer_buffers.maxcores.group, _i.audManage_if._chan.transfer_buffers.maxcores, _i.audManage_if._chan.transfer_buffers
	.max_reduce _i.audManage_if.transfer_buffers.max.maxcores, _i.audManage_if.transfer_buffers.maxcores.group, 0
	.weak _i.audManage_if.transfer_buffers.maxtimers.group
	.add_to_set _i.audManage_if.transfer_buffers.maxtimers.group, _i.audManage_if._chan.transfer_buffers.maxtimers, _i.audManage_if._chan.transfer_buffers
	.max_reduce _i.audManage_if.transfer_buffers.max.maxtimers, _i.audManage_if.transfer_buffers.maxtimers.group, 0
	.weak _i.audManage_if.transfer_buffers.nstackwords.group
	.globl _i.audManage_if.transfer_buffers.nstackwords.group
	.weak _i.audManage_if.transfer_buffers.fns.group
	.globl _i.audManage_if.transfer_buffers.fns.group
	.add_to_set _i.audManage_if.transfer_buffers.nstackwords.group, _i.audManage_if._chan.transfer_buffers.nstackwords, _i.audManage_if._chan.transfer_buffers
	.add_to_set _i.audManage_if.transfer_buffers.fns.group, _i.audManage_if._chan.transfer_buffers, _i.audManage_if._chan.transfer_buffers
	.max_reduce _i.audManage_if.transfer_buffers.max.nstackwords, _i.audManage_if.transfer_buffers.nstackwords.group, 0
	.max_reduce _i.audManage_if.transfer_buffers.fns, _i.audManage_if.transfer_buffers.fns.group, 0
	.weak _i.audManage_if.transfer_samples.maxchanends.group
	.add_to_set _i.audManage_if.transfer_samples.maxchanends.group, _i.audManage_if._chan.transfer_samples.maxchanends, _i.audManage_if._chan.transfer_samples
	.max_reduce _i.audManage_if.transfer_samples.max.maxchanends, _i.audManage_if.transfer_samples.maxchanends.group, 0
	.weak _i.audManage_if.transfer_samples.maxcores.group
	.add_to_set _i.audManage_if.transfer_samples.maxcores.group, _i.audManage_if._chan.transfer_samples.maxcores, _i.audManage_if._chan.transfer_samples
	.max_reduce _i.audManage_if.transfer_samples.max.maxcores, _i.audManage_if.transfer_samples.maxcores.group, 0
	.weak _i.audManage_if.transfer_samples.maxtimers.group
	.add_to_set _i.audManage_if.transfer_samples.maxtimers.group, _i.audManage_if._chan.transfer_samples.maxtimers, _i.audManage_if._chan.transfer_samples
	.max_reduce _i.audManage_if.transfer_samples.max.maxtimers, _i.audManage_if.transfer_samples.maxtimers.group, 0
	.weak _i.audManage_if.transfer_samples.nstackwords.group
	.globl _i.audManage_if.transfer_samples.nstackwords.group
	.weak _i.audManage_if.transfer_samples.fns.group
	.globl _i.audManage_if.transfer_samples.fns.group
	.add_to_set _i.audManage_if.transfer_samples.nstackwords.group, _i.audManage_if._chan.transfer_samples.nstackwords, _i.audManage_if._chan.transfer_samples
	.add_to_set _i.audManage_if.transfer_samples.fns.group, _i.audManage_if._chan.transfer_samples, _i.audManage_if._chan.transfer_samples
	.max_reduce _i.audManage_if.transfer_samples.max.nstackwords, _i.audManage_if.transfer_samples.nstackwords.group, 0
	.max_reduce _i.audManage_if.transfer_samples.fns, _i.audManage_if.transfer_samples.fns.group, 0
	.weak _i.audManage_if.__interface_init.maxchanends.group
	.max_reduce _i.audManage_if.__interface_init.max.maxchanends, _i.audManage_if.__interface_init.maxchanends.group, 0
	.weak _i.audManage_if.__interface_init.maxcores.group
	.max_reduce _i.audManage_if.__interface_init.max.maxcores, _i.audManage_if.__interface_init.maxcores.group, 0
	.weak _i.audManage_if.__interface_init.maxtimers.group
	.max_reduce _i.audManage_if.__interface_init.max.maxtimers, _i.audManage_if.__interface_init.maxtimers.group, 0
	.weak _i.audManage_if.__interface_init.nstackwords.group
	.globl _i.audManage_if.__interface_init.nstackwords.group
	.weak _i.audManage_if.__interface_init.fns.group
	.globl _i.audManage_if.__interface_init.fns.group
	.max_reduce _i.audManage_if.__interface_init.max.nstackwords, _i.audManage_if.__interface_init.nstackwords.group, 0
	.max_reduce _i.audManage_if.__interface_init.fns, _i.audManage_if.__interface_init.fns.group, 0
	.weak _i.audManage_if._client_call_y.maxchanends.group
	.add_to_set _i.audManage_if._client_call_y.maxchanends.group, (__interface_client_call_y_other.maxchanends + __interface_client_call_y_extra.maxchanends), __interface_client_call_y_other
	.max_reduce _i.audManage_if._client_call_y.max.maxchanends, _i.audManage_if._client_call_y.maxchanends.group, 0
	.weak _i.audManage_if._client_call_y.maxcores.group
	.add_to_set _i.audManage_if._client_call_y.maxcores.group, (__interface_client_call_y_other.maxcores + __interface_client_call_y_extra.maxcores), __interface_client_call_y_other
	.max_reduce _i.audManage_if._client_call_y.max.maxcores, _i.audManage_if._client_call_y.maxcores.group, 0
	.weak _i.audManage_if._client_call_y.maxtimers.group
	.add_to_set _i.audManage_if._client_call_y.maxtimers.group, (__interface_client_call_y_other.maxtimers + __interface_client_call_y_extra.maxtimers), __interface_client_call_y_other
	.max_reduce _i.audManage_if._client_call_y.max.maxtimers, _i.audManage_if._client_call_y.maxtimers.group, 0
	.weak _i.audManage_if._client_call_y.nstackwords.group
	.globl _i.audManage_if._client_call_y.nstackwords.group
	.weak _i.audManage_if._client_call_y.fns.group
	.globl _i.audManage_if._client_call_y.fns.group
	.add_to_set _i.audManage_if._client_call_y.nstackwords.group, (__interface_client_call_y_other.nstackwords + __interface_client_call_y_extra.nstackwords), __interface_client_call_y_other
	.add_to_set _i.audManage_if._client_call_y.fns.group, __interface_client_call_y_other, __interface_client_call_y_other
	.max_reduce _i.audManage_if._client_call_y.max.nstackwords, _i.audManage_if._client_call_y.nstackwords.group, 0
	.max_reduce _i.audManage_if._client_call_y.fns, _i.audManage_if._client_call_y.fns.group, 0
	.weak _i.control.register_resources.maxchanends.group
	.add_to_set _i.control.register_resources.maxchanends.group, _i.control._chan.register_resources.maxchanends, _i.control._chan.register_resources
	.weak _i.control.register_resources.maxcores.group
	.add_to_set _i.control.register_resources.maxcores.group, _i.control._chan.register_resources.maxcores, _i.control._chan.register_resources
	.weak _i.control.register_resources.maxtimers.group
	.add_to_set _i.control.register_resources.maxtimers.group, _i.control._chan.register_resources.maxtimers, _i.control._chan.register_resources
	.weak _i.control.register_resources.nstackwords.group
	.globl _i.control.register_resources.nstackwords.group
	.weak _i.control.register_resources.fns.group
	.globl _i.control.register_resources.fns.group
	.add_to_set _i.control.register_resources.nstackwords.group, _i.control._chan.register_resources.nstackwords, _i.control._chan.register_resources
	.add_to_set _i.control.register_resources.fns.group, _i.control._chan.register_resources, _i.control._chan.register_resources
	.weak _i.control.write_command.maxchanends.group
	.add_to_set _i.control.write_command.maxchanends.group, _i.control._chan.write_command.maxchanends, _i.control._chan.write_command
	.weak _i.control.write_command.maxcores.group
	.add_to_set _i.control.write_command.maxcores.group, _i.control._chan.write_command.maxcores, _i.control._chan.write_command
	.weak _i.control.write_command.maxtimers.group
	.add_to_set _i.control.write_command.maxtimers.group, _i.control._chan.write_command.maxtimers, _i.control._chan.write_command
	.weak _i.control.write_command.nstackwords.group
	.globl _i.control.write_command.nstackwords.group
	.weak _i.control.write_command.fns.group
	.globl _i.control.write_command.fns.group
	.add_to_set _i.control.write_command.nstackwords.group, _i.control._chan.write_command.nstackwords, _i.control._chan.write_command
	.add_to_set _i.control.write_command.fns.group, _i.control._chan.write_command, _i.control._chan.write_command
	.weak _i.control.read_command.maxchanends.group
	.add_to_set _i.control.read_command.maxchanends.group, _i.control._chan.read_command.maxchanends, _i.control._chan.read_command
	.weak _i.control.read_command.maxcores.group
	.add_to_set _i.control.read_command.maxcores.group, _i.control._chan.read_command.maxcores, _i.control._chan.read_command
	.weak _i.control.read_command.maxtimers.group
	.add_to_set _i.control.read_command.maxtimers.group, _i.control._chan.read_command.maxtimers, _i.control._chan.read_command
	.weak _i.control.read_command.nstackwords.group
	.globl _i.control.read_command.nstackwords.group
	.weak _i.control.read_command.fns.group
	.globl _i.control.read_command.fns.group
	.add_to_set _i.control.read_command.nstackwords.group, _i.control._chan.read_command.nstackwords, _i.control._chan.read_command
	.add_to_set _i.control.read_command.fns.group, _i.control._chan.read_command, _i.control._chan.read_command
	.weak _i.control.__interface_init.maxchanends.group
	.weak _i.control.__interface_init.maxcores.group
	.weak _i.control.__interface_init.maxtimers.group
	.weak _i.control.__interface_init.nstackwords.group
	.globl _i.control.__interface_init.nstackwords.group
	.weak _i.control.__interface_init.fns.group
	.globl _i.control.__interface_init.fns.group
	.weak _i.control.register_resources.maxchanends.group
	.add_to_set _i.control.register_resources.maxchanends.group, _i.control._chan.register_resources.maxchanends, _i.control._chan.register_resources
	.weak _i.control.register_resources.maxcores.group
	.add_to_set _i.control.register_resources.maxcores.group, _i.control._chan.register_resources.maxcores, _i.control._chan.register_resources
	.weak _i.control.register_resources.maxtimers.group
	.add_to_set _i.control.register_resources.maxtimers.group, _i.control._chan.register_resources.maxtimers, _i.control._chan.register_resources
	.weak _i.control.register_resources.nstackwords.group
	.globl _i.control.register_resources.nstackwords.group
	.weak _i.control.register_resources.fns.group
	.globl _i.control.register_resources.fns.group
	.add_to_set _i.control.register_resources.nstackwords.group, _i.control._chan.register_resources.nstackwords, _i.control._chan.register_resources
	.add_to_set _i.control.register_resources.fns.group, _i.control._chan.register_resources, _i.control._chan.register_resources
	.weak _i.control.write_command.maxchanends.group
	.add_to_set _i.control.write_command.maxchanends.group, _i.control._chan.write_command.maxchanends, _i.control._chan.write_command
	.weak _i.control.write_command.maxcores.group
	.add_to_set _i.control.write_command.maxcores.group, _i.control._chan.write_command.maxcores, _i.control._chan.write_command
	.weak _i.control.write_command.maxtimers.group
	.add_to_set _i.control.write_command.maxtimers.group, _i.control._chan.write_command.maxtimers, _i.control._chan.write_command
	.weak _i.control.write_command.nstackwords.group
	.globl _i.control.write_command.nstackwords.group
	.weak _i.control.write_command.fns.group
	.globl _i.control.write_command.fns.group
	.add_to_set _i.control.write_command.nstackwords.group, _i.control._chan.write_command.nstackwords, _i.control._chan.write_command
	.add_to_set _i.control.write_command.fns.group, _i.control._chan.write_command, _i.control._chan.write_command
	.weak _i.control.read_command.maxchanends.group
	.add_to_set _i.control.read_command.maxchanends.group, _i.control._chan.read_command.maxchanends, _i.control._chan.read_command
	.weak _i.control.read_command.maxcores.group
	.add_to_set _i.control.read_command.maxcores.group, _i.control._chan.read_command.maxcores, _i.control._chan.read_command
	.weak _i.control.read_command.maxtimers.group
	.add_to_set _i.control.read_command.maxtimers.group, _i.control._chan.read_command.maxtimers, _i.control._chan.read_command
	.weak _i.control.read_command.nstackwords.group
	.globl _i.control.read_command.nstackwords.group
	.weak _i.control.read_command.fns.group
	.globl _i.control.read_command.fns.group
	.add_to_set _i.control.read_command.nstackwords.group, _i.control._chan.read_command.nstackwords, _i.control._chan.read_command
	.add_to_set _i.control.read_command.fns.group, _i.control._chan.read_command, _i.control._chan.read_command
	.weak _i.control.__interface_init.maxchanends.group
	.weak _i.control.__interface_init.maxcores.group
	.weak _i.control.__interface_init.maxtimers.group
	.weak _i.control.__interface_init.nstackwords.group
	.globl _i.control.__interface_init.nstackwords.group
	.weak _i.control.__interface_init.fns.group
	.globl _i.control.__interface_init.fns.group
	.pushsection .netinfo, "", @netinfo
	.int      0x1eaba15c
	main.parinfo.debugstring0:
	.asciiz "# -1 \"\""
	main.parinfo.debugstring1:
	.asciiz "# 782 \"C:/Users/user/workspace/module_usb_audio/main.xc\""
	.cc_top main.parinfo.cc, main.parinfo
	.globl main.parinfo
	.type main.parinfo, @object
	main.parinfo:
	.int 0x00000004
	.long 0
	.long main.parinfo.debugstring0
	.long main.parinfo.debugstring1
	.int 0x00000002
	.int 0x00000001
	.int $N __main__main_tile_0
	.long tile + 0
	.int 0x0000000c
	.int 0x00000001
	.int 0x00000002
	.int 0x00000003
	.int 0x00000004
	.int 0x00000005
	.int 0x00000006
	.int 0x00000007
	.int 0x00000008
	.int 0x00000009
	.int 0x0000000a
	.int 0x0000000b
	.int 0x0000000c
	.int $N __main__main_tile_1
	.long tile + 4
	.int 0x0000000d
	.int 0x00000001
	.int 0x00000002
	.int 0x00000003
	.int 0x00000004
	.int 0x00000005
	.int 0x00000006
	.int 0x00000007
	.int 0x00000008
	.int 0x00000009
	.int 0x0000000a
	.int 0x0000000b
	.int 0x0000000d
	.int 0x0000000c
	.int $N xscope_host_data
	.long 0
	.int 0x00000001
	.int 0x0000000d
	.cc_bottom main.parinfo.cc
.typestring xscope_host_data,"fS{0}(chd)"
.locl __xcc1_internal_1.info, "bo:p:32"
__xcc1_internal_1.info:
	.int 0x00010f00
	.long tile + 4
.sameresource __xcc1_internal_1, p_i2s_dac, 0
.globl p_lrclk.info, "bo:p:32"
p_lrclk.info:
	.int 0x00010d00
	.long tile + 4
.globl p_bclk.info, "bo:p:32"
p_bclk.info:
	.int 0x00010c00
	.long tile + 4
.globl p_mclk_in.info, "p"
p_mclk_in.info:
	.int 0x00010e00
	.long tile + 4
.globl p_for_mclk_count.info, "i:p"
p_for_mclk_count.info:
	.int 0x00100100
	.long tile + 4
.globl clk_audio_mclk.info, "ck"
clk_audio_mclk.info:
	.int 0x00000206
	.long tile + 4
.globl clk_audio_bclk.info, "ck"
clk_audio_bclk.info:
	.int 0x00000306
	.long tile + 4
.globl p_button.info, "i:p"
p_button.info:
	.int 0x00040000
	.long tile + 0
	.popsection
	.weak _i.i2c_slave_callback_if.start_read_request.maxchanends.group
	.max_reduce _i.i2c_slave_callback_if.start_read_request.max.maxchanends, _i.i2c_slave_callback_if.start_read_request.maxchanends.group, 0
	.weak _i.i2c_slave_callback_if.start_read_request.maxcores.group
	.max_reduce _i.i2c_slave_callback_if.start_read_request.max.maxcores, _i.i2c_slave_callback_if.start_read_request.maxcores.group, 0
	.weak _i.i2c_slave_callback_if.start_read_request.maxtimers.group
	.max_reduce _i.i2c_slave_callback_if.start_read_request.max.maxtimers, _i.i2c_slave_callback_if.start_read_request.maxtimers.group, 0
	.weak _i.i2c_slave_callback_if.start_read_request.nstackwords.group
	.globl _i.i2c_slave_callback_if.start_read_request.nstackwords.group
	.weak _i.i2c_slave_callback_if.start_read_request.fns.group
	.globl _i.i2c_slave_callback_if.start_read_request.fns.group
	.max_reduce _i.i2c_slave_callback_if.start_read_request.max.nstackwords, _i.i2c_slave_callback_if.start_read_request.nstackwords.group, 0
	.max_reduce _i.i2c_slave_callback_if.start_read_request.fns, _i.i2c_slave_callback_if.start_read_request.fns.group, 0
	.weak _i.i2c_slave_callback_if.ack_read_request.maxchanends.group
	.max_reduce _i.i2c_slave_callback_if.ack_read_request.max.maxchanends, _i.i2c_slave_callback_if.ack_read_request.maxchanends.group, 0
	.weak _i.i2c_slave_callback_if.ack_read_request.maxcores.group
	.max_reduce _i.i2c_slave_callback_if.ack_read_request.max.maxcores, _i.i2c_slave_callback_if.ack_read_request.maxcores.group, 0
	.weak _i.i2c_slave_callback_if.ack_read_request.maxtimers.group
	.max_reduce _i.i2c_slave_callback_if.ack_read_request.max.maxtimers, _i.i2c_slave_callback_if.ack_read_request.maxtimers.group, 0
	.weak _i.i2c_slave_callback_if.ack_read_request.nstackwords.group
	.globl _i.i2c_slave_callback_if.ack_read_request.nstackwords.group
	.weak _i.i2c_slave_callback_if.ack_read_request.fns.group
	.globl _i.i2c_slave_callback_if.ack_read_request.fns.group
	.max_reduce _i.i2c_slave_callback_if.ack_read_request.max.nstackwords, _i.i2c_slave_callback_if.ack_read_request.nstackwords.group, 0
	.max_reduce _i.i2c_slave_callback_if.ack_read_request.fns, _i.i2c_slave_callback_if.ack_read_request.fns.group, 0
	.weak _i.i2c_slave_callback_if.start_write_request.maxchanends.group
	.max_reduce _i.i2c_slave_callback_if.start_write_request.max.maxchanends, _i.i2c_slave_callback_if.start_write_request.maxchanends.group, 0
	.weak _i.i2c_slave_callback_if.start_write_request.maxcores.group
	.max_reduce _i.i2c_slave_callback_if.start_write_request.max.maxcores, _i.i2c_slave_callback_if.start_write_request.maxcores.group, 0
	.weak _i.i2c_slave_callback_if.start_write_request.maxtimers.group
	.max_reduce _i.i2c_slave_callback_if.start_write_request.max.maxtimers, _i.i2c_slave_callback_if.start_write_request.maxtimers.group, 0
	.weak _i.i2c_slave_callback_if.start_write_request.nstackwords.group
	.globl _i.i2c_slave_callback_if.start_write_request.nstackwords.group
	.weak _i.i2c_slave_callback_if.start_write_request.fns.group
	.globl _i.i2c_slave_callback_if.start_write_request.fns.group
	.max_reduce _i.i2c_slave_callback_if.start_write_request.max.nstackwords, _i.i2c_slave_callback_if.start_write_request.nstackwords.group, 0
	.max_reduce _i.i2c_slave_callback_if.start_write_request.fns, _i.i2c_slave_callback_if.start_write_request.fns.group, 0
	.weak _i.i2c_slave_callback_if.ack_write_request.maxchanends.group
	.max_reduce _i.i2c_slave_callback_if.ack_write_request.max.maxchanends, _i.i2c_slave_callback_if.ack_write_request.maxchanends.group, 0
	.weak _i.i2c_slave_callback_if.ack_write_request.maxcores.group
	.max_reduce _i.i2c_slave_callback_if.ack_write_request.max.maxcores, _i.i2c_slave_callback_if.ack_write_request.maxcores.group, 0
	.weak _i.i2c_slave_callback_if.ack_write_request.maxtimers.group
	.max_reduce _i.i2c_slave_callback_if.ack_write_request.max.maxtimers, _i.i2c_slave_callback_if.ack_write_request.maxtimers.group, 0
	.weak _i.i2c_slave_callback_if.ack_write_request.nstackwords.group
	.globl _i.i2c_slave_callback_if.ack_write_request.nstackwords.group
	.weak _i.i2c_slave_callback_if.ack_write_request.fns.group
	.globl _i.i2c_slave_callback_if.ack_write_request.fns.group
	.max_reduce _i.i2c_slave_callback_if.ack_write_request.max.nstackwords, _i.i2c_slave_callback_if.ack_write_request.nstackwords.group, 0
	.max_reduce _i.i2c_slave_callback_if.ack_write_request.fns, _i.i2c_slave_callback_if.ack_write_request.fns.group, 0
	.weak _i.i2c_slave_callback_if.start_master_read.maxchanends.group
	.max_reduce _i.i2c_slave_callback_if.start_master_read.max.maxchanends, _i.i2c_slave_callback_if.start_master_read.maxchanends.group, 0
	.weak _i.i2c_slave_callback_if.start_master_read.maxcores.group
	.max_reduce _i.i2c_slave_callback_if.start_master_read.max.maxcores, _i.i2c_slave_callback_if.start_master_read.maxcores.group, 0
	.weak _i.i2c_slave_callback_if.start_master_read.maxtimers.group
	.max_reduce _i.i2c_slave_callback_if.start_master_read.max.maxtimers, _i.i2c_slave_callback_if.start_master_read.maxtimers.group, 0
	.weak _i.i2c_slave_callback_if.start_master_read.nstackwords.group
	.globl _i.i2c_slave_callback_if.start_master_read.nstackwords.group
	.weak _i.i2c_slave_callback_if.start_master_read.fns.group
	.globl _i.i2c_slave_callback_if.start_master_read.fns.group
	.max_reduce _i.i2c_slave_callback_if.start_master_read.max.nstackwords, _i.i2c_slave_callback_if.start_master_read.nstackwords.group, 0
	.max_reduce _i.i2c_slave_callback_if.start_master_read.fns, _i.i2c_slave_callback_if.start_master_read.fns.group, 0
	.weak _i.i2c_slave_callback_if.master_requires_data.maxchanends.group
	.max_reduce _i.i2c_slave_callback_if.master_requires_data.max.maxchanends, _i.i2c_slave_callback_if.master_requires_data.maxchanends.group, 0
	.weak _i.i2c_slave_callback_if.master_requires_data.maxcores.group
	.max_reduce _i.i2c_slave_callback_if.master_requires_data.max.maxcores, _i.i2c_slave_callback_if.master_requires_data.maxcores.group, 0
	.weak _i.i2c_slave_callback_if.master_requires_data.maxtimers.group
	.max_reduce _i.i2c_slave_callback_if.master_requires_data.max.maxtimers, _i.i2c_slave_callback_if.master_requires_data.maxtimers.group, 0
	.weak _i.i2c_slave_callback_if.master_requires_data.nstackwords.group
	.globl _i.i2c_slave_callback_if.master_requires_data.nstackwords.group
	.weak _i.i2c_slave_callback_if.master_requires_data.fns.group
	.globl _i.i2c_slave_callback_if.master_requires_data.fns.group
	.max_reduce _i.i2c_slave_callback_if.master_requires_data.max.nstackwords, _i.i2c_slave_callback_if.master_requires_data.nstackwords.group, 0
	.max_reduce _i.i2c_slave_callback_if.master_requires_data.fns, _i.i2c_slave_callback_if.master_requires_data.fns.group, 0
	.weak _i.i2c_slave_callback_if.start_master_write.maxchanends.group
	.max_reduce _i.i2c_slave_callback_if.start_master_write.max.maxchanends, _i.i2c_slave_callback_if.start_master_write.maxchanends.group, 0
	.weak _i.i2c_slave_callback_if.start_master_write.maxcores.group
	.max_reduce _i.i2c_slave_callback_if.start_master_write.max.maxcores, _i.i2c_slave_callback_if.start_master_write.maxcores.group, 0
	.weak _i.i2c_slave_callback_if.start_master_write.maxtimers.group
	.max_reduce _i.i2c_slave_callback_if.start_master_write.max.maxtimers, _i.i2c_slave_callback_if.start_master_write.maxtimers.group, 0
	.weak _i.i2c_slave_callback_if.start_master_write.nstackwords.group
	.globl _i.i2c_slave_callback_if.start_master_write.nstackwords.group
	.weak _i.i2c_slave_callback_if.start_master_write.fns.group
	.globl _i.i2c_slave_callback_if.start_master_write.fns.group
	.max_reduce _i.i2c_slave_callback_if.start_master_write.max.nstackwords, _i.i2c_slave_callback_if.start_master_write.nstackwords.group, 0
	.max_reduce _i.i2c_slave_callback_if.start_master_write.fns, _i.i2c_slave_callback_if.start_master_write.fns.group, 0
	.weak _i.i2c_slave_callback_if.master_sent_data.maxchanends.group
	.max_reduce _i.i2c_slave_callback_if.master_sent_data.max.maxchanends, _i.i2c_slave_callback_if.master_sent_data.maxchanends.group, 0
	.weak _i.i2c_slave_callback_if.master_sent_data.maxcores.group
	.max_reduce _i.i2c_slave_callback_if.master_sent_data.max.maxcores, _i.i2c_slave_callback_if.master_sent_data.maxcores.group, 0
	.weak _i.i2c_slave_callback_if.master_sent_data.maxtimers.group
	.max_reduce _i.i2c_slave_callback_if.master_sent_data.max.maxtimers, _i.i2c_slave_callback_if.master_sent_data.maxtimers.group, 0
	.weak _i.i2c_slave_callback_if.master_sent_data.nstackwords.group
	.globl _i.i2c_slave_callback_if.master_sent_data.nstackwords.group
	.weak _i.i2c_slave_callback_if.master_sent_data.fns.group
	.globl _i.i2c_slave_callback_if.master_sent_data.fns.group
	.max_reduce _i.i2c_slave_callback_if.master_sent_data.max.nstackwords, _i.i2c_slave_callback_if.master_sent_data.nstackwords.group, 0
	.max_reduce _i.i2c_slave_callback_if.master_sent_data.fns, _i.i2c_slave_callback_if.master_sent_data.fns.group, 0
	.weak _i.i2c_slave_callback_if.stop_bit.maxchanends.group
	.max_reduce _i.i2c_slave_callback_if.stop_bit.max.maxchanends, _i.i2c_slave_callback_if.stop_bit.maxchanends.group, 0
	.weak _i.i2c_slave_callback_if.stop_bit.maxcores.group
	.max_reduce _i.i2c_slave_callback_if.stop_bit.max.maxcores, _i.i2c_slave_callback_if.stop_bit.maxcores.group, 0
	.weak _i.i2c_slave_callback_if.stop_bit.maxtimers.group
	.max_reduce _i.i2c_slave_callback_if.stop_bit.max.maxtimers, _i.i2c_slave_callback_if.stop_bit.maxtimers.group, 0
	.weak _i.i2c_slave_callback_if.stop_bit.nstackwords.group
	.globl _i.i2c_slave_callback_if.stop_bit.nstackwords.group
	.weak _i.i2c_slave_callback_if.stop_bit.fns.group
	.globl _i.i2c_slave_callback_if.stop_bit.fns.group
	.max_reduce _i.i2c_slave_callback_if.stop_bit.max.nstackwords, _i.i2c_slave_callback_if.stop_bit.nstackwords.group, 0
	.max_reduce _i.i2c_slave_callback_if.stop_bit.fns, _i.i2c_slave_callback_if.stop_bit.fns.group, 0
	.weak _i.i2c_slave_callback_if.__interface_init.maxchanends.group
	.max_reduce _i.i2c_slave_callback_if.__interface_init.max.maxchanends, _i.i2c_slave_callback_if.__interface_init.maxchanends.group, 0
	.weak _i.i2c_slave_callback_if.__interface_init.maxcores.group
	.max_reduce _i.i2c_slave_callback_if.__interface_init.max.maxcores, _i.i2c_slave_callback_if.__interface_init.maxcores.group, 0
	.weak _i.i2c_slave_callback_if.__interface_init.maxtimers.group
	.max_reduce _i.i2c_slave_callback_if.__interface_init.max.maxtimers, _i.i2c_slave_callback_if.__interface_init.maxtimers.group, 0
	.weak _i.i2c_slave_callback_if.__interface_init.nstackwords.group
	.globl _i.i2c_slave_callback_if.__interface_init.nstackwords.group
	.weak _i.i2c_slave_callback_if.__interface_init.fns.group
	.globl _i.i2c_slave_callback_if.__interface_init.fns.group
	.max_reduce _i.i2c_slave_callback_if.__interface_init.max.nstackwords, _i.i2c_slave_callback_if.__interface_init.nstackwords.group, 0
	.max_reduce _i.i2c_slave_callback_if.__interface_init.fns, _i.i2c_slave_callback_if.__interface_init.fns.group, 0
	.weak _i.i2c_slave_callback_if._client_call_y.maxchanends.group
	.add_to_set _i.i2c_slave_callback_if._client_call_y.maxchanends.group, (__interface_client_call_y_other.maxchanends + __interface_client_call_y_extra.maxchanends), __interface_client_call_y_other
	.max_reduce _i.i2c_slave_callback_if._client_call_y.max.maxchanends, _i.i2c_slave_callback_if._client_call_y.maxchanends.group, 0
	.weak _i.i2c_slave_callback_if._client_call_y.maxcores.group
	.add_to_set _i.i2c_slave_callback_if._client_call_y.maxcores.group, (__interface_client_call_y_other.maxcores + __interface_client_call_y_extra.maxcores), __interface_client_call_y_other
	.max_reduce _i.i2c_slave_callback_if._client_call_y.max.maxcores, _i.i2c_slave_callback_if._client_call_y.maxcores.group, 0
	.weak _i.i2c_slave_callback_if._client_call_y.maxtimers.group
	.add_to_set _i.i2c_slave_callback_if._client_call_y.maxtimers.group, (__interface_client_call_y_other.maxtimers + __interface_client_call_y_extra.maxtimers), __interface_client_call_y_other
	.max_reduce _i.i2c_slave_callback_if._client_call_y.max.maxtimers, _i.i2c_slave_callback_if._client_call_y.maxtimers.group, 0
	.weak _i.i2c_slave_callback_if._client_call_y.nstackwords.group
	.globl _i.i2c_slave_callback_if._client_call_y.nstackwords.group
	.weak _i.i2c_slave_callback_if._client_call_y.fns.group
	.globl _i.i2c_slave_callback_if._client_call_y.fns.group
	.add_to_set _i.i2c_slave_callback_if._client_call_y.nstackwords.group, (__interface_client_call_y_other.nstackwords + __interface_client_call_y_extra.nstackwords), __interface_client_call_y_other
	.add_to_set _i.i2c_slave_callback_if._client_call_y.fns.group, __interface_client_call_y_other, __interface_client_call_y_other
	.max_reduce _i.i2c_slave_callback_if._client_call_y.max.nstackwords, _i.i2c_slave_callback_if._client_call_y.nstackwords.group, 0
	.max_reduce _i.i2c_slave_callback_if._client_call_y.fns, _i.i2c_slave_callback_if._client_call_y.fns.group, 0
	.weak _i.i2c_master_async_if.write.maxchanends.group
	.max_reduce _i.i2c_master_async_if.write.max.maxchanends, _i.i2c_master_async_if.write.maxchanends.group, 0
	.weak _i.i2c_master_async_if.write.maxcores.group
	.max_reduce _i.i2c_master_async_if.write.max.maxcores, _i.i2c_master_async_if.write.maxcores.group, 0
	.weak _i.i2c_master_async_if.write.maxtimers.group
	.max_reduce _i.i2c_master_async_if.write.max.maxtimers, _i.i2c_master_async_if.write.maxtimers.group, 0
	.weak _i.i2c_master_async_if.write.nstackwords.group
	.globl _i.i2c_master_async_if.write.nstackwords.group
	.weak _i.i2c_master_async_if.write.fns.group
	.globl _i.i2c_master_async_if.write.fns.group
	.max_reduce _i.i2c_master_async_if.write.max.nstackwords, _i.i2c_master_async_if.write.nstackwords.group, 0
	.max_reduce _i.i2c_master_async_if.write.fns, _i.i2c_master_async_if.write.fns.group, 0
	.weak _i.i2c_master_async_if.read.maxchanends.group
	.max_reduce _i.i2c_master_async_if.read.max.maxchanends, _i.i2c_master_async_if.read.maxchanends.group, 0
	.weak _i.i2c_master_async_if.read.maxcores.group
	.max_reduce _i.i2c_master_async_if.read.max.maxcores, _i.i2c_master_async_if.read.maxcores.group, 0
	.weak _i.i2c_master_async_if.read.maxtimers.group
	.max_reduce _i.i2c_master_async_if.read.max.maxtimers, _i.i2c_master_async_if.read.maxtimers.group, 0
	.weak _i.i2c_master_async_if.read.nstackwords.group
	.globl _i.i2c_master_async_if.read.nstackwords.group
	.weak _i.i2c_master_async_if.read.fns.group
	.globl _i.i2c_master_async_if.read.fns.group
	.max_reduce _i.i2c_master_async_if.read.max.nstackwords, _i.i2c_master_async_if.read.nstackwords.group, 0
	.max_reduce _i.i2c_master_async_if.read.fns, _i.i2c_master_async_if.read.fns.group, 0
	.weak _i.i2c_master_async_if.get_write_result.maxchanends.group
	.max_reduce _i.i2c_master_async_if.get_write_result.max.maxchanends, _i.i2c_master_async_if.get_write_result.maxchanends.group, 0
	.weak _i.i2c_master_async_if.get_write_result.maxcores.group
	.max_reduce _i.i2c_master_async_if.get_write_result.max.maxcores, _i.i2c_master_async_if.get_write_result.maxcores.group, 0
	.weak _i.i2c_master_async_if.get_write_result.maxtimers.group
	.max_reduce _i.i2c_master_async_if.get_write_result.max.maxtimers, _i.i2c_master_async_if.get_write_result.maxtimers.group, 0
	.weak _i.i2c_master_async_if.get_write_result.nstackwords.group
	.globl _i.i2c_master_async_if.get_write_result.nstackwords.group
	.weak _i.i2c_master_async_if.get_write_result.fns.group
	.globl _i.i2c_master_async_if.get_write_result.fns.group
	.max_reduce _i.i2c_master_async_if.get_write_result.max.nstackwords, _i.i2c_master_async_if.get_write_result.nstackwords.group, 0
	.max_reduce _i.i2c_master_async_if.get_write_result.fns, _i.i2c_master_async_if.get_write_result.fns.group, 0
	.weak _i.i2c_master_async_if.get_read_data.maxchanends.group
	.max_reduce _i.i2c_master_async_if.get_read_data.max.maxchanends, _i.i2c_master_async_if.get_read_data.maxchanends.group, 0
	.weak _i.i2c_master_async_if.get_read_data.maxcores.group
	.max_reduce _i.i2c_master_async_if.get_read_data.max.maxcores, _i.i2c_master_async_if.get_read_data.maxcores.group, 0
	.weak _i.i2c_master_async_if.get_read_data.maxtimers.group
	.max_reduce _i.i2c_master_async_if.get_read_data.max.maxtimers, _i.i2c_master_async_if.get_read_data.maxtimers.group, 0
	.weak _i.i2c_master_async_if.get_read_data.nstackwords.group
	.globl _i.i2c_master_async_if.get_read_data.nstackwords.group
	.weak _i.i2c_master_async_if.get_read_data.fns.group
	.globl _i.i2c_master_async_if.get_read_data.fns.group
	.max_reduce _i.i2c_master_async_if.get_read_data.max.nstackwords, _i.i2c_master_async_if.get_read_data.nstackwords.group, 0
	.max_reduce _i.i2c_master_async_if.get_read_data.fns, _i.i2c_master_async_if.get_read_data.fns.group, 0
	.weak _i.i2c_master_async_if.send_stop_bit.maxchanends.group
	.max_reduce _i.i2c_master_async_if.send_stop_bit.max.maxchanends, _i.i2c_master_async_if.send_stop_bit.maxchanends.group, 0
	.weak _i.i2c_master_async_if.send_stop_bit.maxcores.group
	.max_reduce _i.i2c_master_async_if.send_stop_bit.max.maxcores, _i.i2c_master_async_if.send_stop_bit.maxcores.group, 0
	.weak _i.i2c_master_async_if.send_stop_bit.maxtimers.group
	.max_reduce _i.i2c_master_async_if.send_stop_bit.max.maxtimers, _i.i2c_master_async_if.send_stop_bit.maxtimers.group, 0
	.weak _i.i2c_master_async_if.send_stop_bit.nstackwords.group
	.globl _i.i2c_master_async_if.send_stop_bit.nstackwords.group
	.weak _i.i2c_master_async_if.send_stop_bit.fns.group
	.globl _i.i2c_master_async_if.send_stop_bit.fns.group
	.max_reduce _i.i2c_master_async_if.send_stop_bit.max.nstackwords, _i.i2c_master_async_if.send_stop_bit.nstackwords.group, 0
	.max_reduce _i.i2c_master_async_if.send_stop_bit.fns, _i.i2c_master_async_if.send_stop_bit.fns.group, 0
	.weak _i.i2c_master_async_if.shutdown.maxchanends.group
	.max_reduce _i.i2c_master_async_if.shutdown.max.maxchanends, _i.i2c_master_async_if.shutdown.maxchanends.group, 0
	.weak _i.i2c_master_async_if.shutdown.maxcores.group
	.max_reduce _i.i2c_master_async_if.shutdown.max.maxcores, _i.i2c_master_async_if.shutdown.maxcores.group, 0
	.weak _i.i2c_master_async_if.shutdown.maxtimers.group
	.max_reduce _i.i2c_master_async_if.shutdown.max.maxtimers, _i.i2c_master_async_if.shutdown.maxtimers.group, 0
	.weak _i.i2c_master_async_if.shutdown.nstackwords.group
	.globl _i.i2c_master_async_if.shutdown.nstackwords.group
	.weak _i.i2c_master_async_if.shutdown.fns.group
	.globl _i.i2c_master_async_if.shutdown.fns.group
	.max_reduce _i.i2c_master_async_if.shutdown.max.nstackwords, _i.i2c_master_async_if.shutdown.nstackwords.group, 0
	.max_reduce _i.i2c_master_async_if.shutdown.fns, _i.i2c_master_async_if.shutdown.fns.group, 0
	.weak _i.i2c_master_async_if.__interface_init.maxchanends.group
	.max_reduce _i.i2c_master_async_if.__interface_init.max.maxchanends, _i.i2c_master_async_if.__interface_init.maxchanends.group, 0
	.weak _i.i2c_master_async_if.__interface_init.maxcores.group
	.max_reduce _i.i2c_master_async_if.__interface_init.max.maxcores, _i.i2c_master_async_if.__interface_init.maxcores.group, 0
	.weak _i.i2c_master_async_if.__interface_init.maxtimers.group
	.max_reduce _i.i2c_master_async_if.__interface_init.max.maxtimers, _i.i2c_master_async_if.__interface_init.maxtimers.group, 0
	.weak _i.i2c_master_async_if.__interface_init.nstackwords.group
	.globl _i.i2c_master_async_if.__interface_init.nstackwords.group
	.weak _i.i2c_master_async_if.__interface_init.fns.group
	.globl _i.i2c_master_async_if.__interface_init.fns.group
	.max_reduce _i.i2c_master_async_if.__interface_init.max.nstackwords, _i.i2c_master_async_if.__interface_init.nstackwords.group, 0
	.max_reduce _i.i2c_master_async_if.__interface_init.fns, _i.i2c_master_async_if.__interface_init.fns.group, 0
	.weak _i.i2c_master_async_if._client_call_y.maxchanends.group
	.add_to_set _i.i2c_master_async_if._client_call_y.maxchanends.group, (__interface_client_call_y_other.maxchanends + __interface_client_call_y_extra.maxchanends), __interface_client_call_y_other
	.max_reduce _i.i2c_master_async_if._client_call_y.max.maxchanends, _i.i2c_master_async_if._client_call_y.maxchanends.group, 0
	.weak _i.i2c_master_async_if._client_call_y.maxcores.group
	.add_to_set _i.i2c_master_async_if._client_call_y.maxcores.group, (__interface_client_call_y_other.maxcores + __interface_client_call_y_extra.maxcores), __interface_client_call_y_other
	.max_reduce _i.i2c_master_async_if._client_call_y.max.maxcores, _i.i2c_master_async_if._client_call_y.maxcores.group, 0
	.weak _i.i2c_master_async_if._client_call_y.maxtimers.group
	.add_to_set _i.i2c_master_async_if._client_call_y.maxtimers.group, (__interface_client_call_y_other.maxtimers + __interface_client_call_y_extra.maxtimers), __interface_client_call_y_other
	.max_reduce _i.i2c_master_async_if._client_call_y.max.maxtimers, _i.i2c_master_async_if._client_call_y.maxtimers.group, 0
	.weak _i.i2c_master_async_if._client_call_y.nstackwords.group
	.globl _i.i2c_master_async_if._client_call_y.nstackwords.group
	.weak _i.i2c_master_async_if._client_call_y.fns.group
	.globl _i.i2c_master_async_if._client_call_y.fns.group
	.add_to_set _i.i2c_master_async_if._client_call_y.nstackwords.group, (__interface_client_call_y_other.nstackwords + __interface_client_call_y_extra.nstackwords), __interface_client_call_y_other
	.add_to_set _i.i2c_master_async_if._client_call_y.fns.group, __interface_client_call_y_other, __interface_client_call_y_other
	.max_reduce _i.i2c_master_async_if._client_call_y.max.nstackwords, _i.i2c_master_async_if._client_call_y.nstackwords.group, 0
	.max_reduce _i.i2c_master_async_if._client_call_y.fns, _i.i2c_master_async_if._client_call_y.fns.group, 0
	.weak _i.i2c_master_if.write.maxchanends.group
	.max_reduce _i.i2c_master_if.write.max.maxchanends, _i.i2c_master_if.write.maxchanends.group, 0
	.weak _i.i2c_master_if.write.maxcores.group
	.max_reduce _i.i2c_master_if.write.max.maxcores, _i.i2c_master_if.write.maxcores.group, 0
	.weak _i.i2c_master_if.write.maxtimers.group
	.max_reduce _i.i2c_master_if.write.max.maxtimers, _i.i2c_master_if.write.maxtimers.group, 0
	.weak _i.i2c_master_if.write.nstackwords.group
	.globl _i.i2c_master_if.write.nstackwords.group
	.weak _i.i2c_master_if.write.fns.group
	.globl _i.i2c_master_if.write.fns.group
	.max_reduce _i.i2c_master_if.write.max.nstackwords, _i.i2c_master_if.write.nstackwords.group, 0
	.max_reduce _i.i2c_master_if.write.fns, _i.i2c_master_if.write.fns.group, 0
	.weak _i.i2c_master_if.read.maxchanends.group
	.max_reduce _i.i2c_master_if.read.max.maxchanends, _i.i2c_master_if.read.maxchanends.group, 0
	.weak _i.i2c_master_if.read.maxcores.group
	.max_reduce _i.i2c_master_if.read.max.maxcores, _i.i2c_master_if.read.maxcores.group, 0
	.weak _i.i2c_master_if.read.maxtimers.group
	.max_reduce _i.i2c_master_if.read.max.maxtimers, _i.i2c_master_if.read.maxtimers.group, 0
	.weak _i.i2c_master_if.read.nstackwords.group
	.globl _i.i2c_master_if.read.nstackwords.group
	.weak _i.i2c_master_if.read.fns.group
	.globl _i.i2c_master_if.read.fns.group
	.max_reduce _i.i2c_master_if.read.max.nstackwords, _i.i2c_master_if.read.nstackwords.group, 0
	.max_reduce _i.i2c_master_if.read.fns, _i.i2c_master_if.read.fns.group, 0
	.weak _i.i2c_master_if.send_stop_bit.maxchanends.group
	.max_reduce _i.i2c_master_if.send_stop_bit.max.maxchanends, _i.i2c_master_if.send_stop_bit.maxchanends.group, 0
	.weak _i.i2c_master_if.send_stop_bit.maxcores.group
	.max_reduce _i.i2c_master_if.send_stop_bit.max.maxcores, _i.i2c_master_if.send_stop_bit.maxcores.group, 0
	.weak _i.i2c_master_if.send_stop_bit.maxtimers.group
	.max_reduce _i.i2c_master_if.send_stop_bit.max.maxtimers, _i.i2c_master_if.send_stop_bit.maxtimers.group, 0
	.weak _i.i2c_master_if.send_stop_bit.nstackwords.group
	.globl _i.i2c_master_if.send_stop_bit.nstackwords.group
	.weak _i.i2c_master_if.send_stop_bit.fns.group
	.globl _i.i2c_master_if.send_stop_bit.fns.group
	.max_reduce _i.i2c_master_if.send_stop_bit.max.nstackwords, _i.i2c_master_if.send_stop_bit.nstackwords.group, 0
	.max_reduce _i.i2c_master_if.send_stop_bit.fns, _i.i2c_master_if.send_stop_bit.fns.group, 0
	.weak _i.i2c_master_if.shutdown.maxchanends.group
	.max_reduce _i.i2c_master_if.shutdown.max.maxchanends, _i.i2c_master_if.shutdown.maxchanends.group, 0
	.weak _i.i2c_master_if.shutdown.maxcores.group
	.max_reduce _i.i2c_master_if.shutdown.max.maxcores, _i.i2c_master_if.shutdown.maxcores.group, 0
	.weak _i.i2c_master_if.shutdown.maxtimers.group
	.max_reduce _i.i2c_master_if.shutdown.max.maxtimers, _i.i2c_master_if.shutdown.maxtimers.group, 0
	.weak _i.i2c_master_if.shutdown.nstackwords.group
	.globl _i.i2c_master_if.shutdown.nstackwords.group
	.weak _i.i2c_master_if.shutdown.fns.group
	.globl _i.i2c_master_if.shutdown.fns.group
	.max_reduce _i.i2c_master_if.shutdown.max.nstackwords, _i.i2c_master_if.shutdown.nstackwords.group, 0
	.max_reduce _i.i2c_master_if.shutdown.fns, _i.i2c_master_if.shutdown.fns.group, 0
	.weak _i.i2c_master_if.__interface_init.maxchanends.group
	.max_reduce _i.i2c_master_if.__interface_init.max.maxchanends, _i.i2c_master_if.__interface_init.maxchanends.group, 0
	.weak _i.i2c_master_if.__interface_init.maxcores.group
	.max_reduce _i.i2c_master_if.__interface_init.max.maxcores, _i.i2c_master_if.__interface_init.maxcores.group, 0
	.weak _i.i2c_master_if.__interface_init.maxtimers.group
	.max_reduce _i.i2c_master_if.__interface_init.max.maxtimers, _i.i2c_master_if.__interface_init.maxtimers.group, 0
	.weak _i.i2c_master_if.__interface_init.nstackwords.group
	.globl _i.i2c_master_if.__interface_init.nstackwords.group
	.weak _i.i2c_master_if.__interface_init.fns.group
	.globl _i.i2c_master_if.__interface_init.fns.group
	.max_reduce _i.i2c_master_if.__interface_init.max.nstackwords, _i.i2c_master_if.__interface_init.nstackwords.group, 0
	.max_reduce _i.i2c_master_if.__interface_init.fns, _i.i2c_master_if.__interface_init.fns.group, 0
	.weak _i.i2c_master_if._client_call_y.maxchanends.group
	.add_to_set _i.i2c_master_if._client_call_y.maxchanends.group, (__interface_client_call_y_other.maxchanends + __interface_client_call_y_extra.maxchanends), __interface_client_call_y_other
	.max_reduce _i.i2c_master_if._client_call_y.max.maxchanends, _i.i2c_master_if._client_call_y.maxchanends.group, 0
	.weak _i.i2c_master_if._client_call_y.maxcores.group
	.add_to_set _i.i2c_master_if._client_call_y.maxcores.group, (__interface_client_call_y_other.maxcores + __interface_client_call_y_extra.maxcores), __interface_client_call_y_other
	.max_reduce _i.i2c_master_if._client_call_y.max.maxcores, _i.i2c_master_if._client_call_y.maxcores.group, 0
	.weak _i.i2c_master_if._client_call_y.maxtimers.group
	.add_to_set _i.i2c_master_if._client_call_y.maxtimers.group, (__interface_client_call_y_other.maxtimers + __interface_client_call_y_extra.maxtimers), __interface_client_call_y_other
	.max_reduce _i.i2c_master_if._client_call_y.max.maxtimers, _i.i2c_master_if._client_call_y.maxtimers.group, 0
	.weak _i.i2c_master_if._client_call_y.nstackwords.group
	.globl _i.i2c_master_if._client_call_y.nstackwords.group
	.weak _i.i2c_master_if._client_call_y.fns.group
	.globl _i.i2c_master_if._client_call_y.fns.group
	.add_to_set _i.i2c_master_if._client_call_y.nstackwords.group, (__interface_client_call_y_other.nstackwords + __interface_client_call_y_extra.nstackwords), __interface_client_call_y_other
	.add_to_set _i.i2c_master_if._client_call_y.fns.group, __interface_client_call_y_other, __interface_client_call_y_other
	.max_reduce _i.i2c_master_if._client_call_y.max.nstackwords, _i.i2c_master_if._client_call_y.nstackwords.group, 0
	.max_reduce _i.i2c_master_if._client_call_y.fns, _i.i2c_master_if._client_call_y.fns.group, 0
	.weak _i.keyword_if.buffer_ready.maxchanends.group
	.max_reduce _i.keyword_if.buffer_ready.max.maxchanends, _i.keyword_if.buffer_ready.maxchanends.group, 0
	.weak _i.keyword_if.buffer_ready.maxcores.group
	.max_reduce _i.keyword_if.buffer_ready.max.maxcores, _i.keyword_if.buffer_ready.maxcores.group, 0
	.weak _i.keyword_if.buffer_ready.maxtimers.group
	.max_reduce _i.keyword_if.buffer_ready.max.maxtimers, _i.keyword_if.buffer_ready.maxtimers.group, 0
	.weak _i.keyword_if.buffer_ready.nstackwords.group
	.globl _i.keyword_if.buffer_ready.nstackwords.group
	.weak _i.keyword_if.buffer_ready.fns.group
	.globl _i.keyword_if.buffer_ready.fns.group
	.max_reduce _i.keyword_if.buffer_ready.max.nstackwords, _i.keyword_if.buffer_ready.nstackwords.group, 0
	.max_reduce _i.keyword_if.buffer_ready.fns, _i.keyword_if.buffer_ready.fns.group, 0
	.weak _i.keyword_if.__interface_init.maxchanends.group
	.max_reduce _i.keyword_if.__interface_init.max.maxchanends, _i.keyword_if.__interface_init.maxchanends.group, 0
	.weak _i.keyword_if.__interface_init.maxcores.group
	.max_reduce _i.keyword_if.__interface_init.max.maxcores, _i.keyword_if.__interface_init.maxcores.group, 0
	.weak _i.keyword_if.__interface_init.maxtimers.group
	.max_reduce _i.keyword_if.__interface_init.max.maxtimers, _i.keyword_if.__interface_init.maxtimers.group, 0
	.weak _i.keyword_if.__interface_init.nstackwords.group
	.globl _i.keyword_if.__interface_init.nstackwords.group
	.weak _i.keyword_if.__interface_init.fns.group
	.globl _i.keyword_if.__interface_init.fns.group
	.max_reduce _i.keyword_if.__interface_init.max.nstackwords, _i.keyword_if.__interface_init.nstackwords.group, 0
	.max_reduce _i.keyword_if.__interface_init.fns, _i.keyword_if.__interface_init.fns.group, 0
	.weak _i.keyword_if._client_call_y.maxchanends.group
	.add_to_set _i.keyword_if._client_call_y.maxchanends.group, (__interface_client_call_y_other.maxchanends + __interface_client_call_y_extra.maxchanends), __interface_client_call_y_other
	.max_reduce _i.keyword_if._client_call_y.max.maxchanends, _i.keyword_if._client_call_y.maxchanends.group, 0
	.weak _i.keyword_if._client_call_y.maxcores.group
	.add_to_set _i.keyword_if._client_call_y.maxcores.group, (__interface_client_call_y_other.maxcores + __interface_client_call_y_extra.maxcores), __interface_client_call_y_other
	.max_reduce _i.keyword_if._client_call_y.max.maxcores, _i.keyword_if._client_call_y.maxcores.group, 0
	.weak _i.keyword_if._client_call_y.maxtimers.group
	.add_to_set _i.keyword_if._client_call_y.maxtimers.group, (__interface_client_call_y_other.maxtimers + __interface_client_call_y_extra.maxtimers), __interface_client_call_y_other
	.max_reduce _i.keyword_if._client_call_y.max.maxtimers, _i.keyword_if._client_call_y.maxtimers.group, 0
	.weak _i.keyword_if._client_call_y.nstackwords.group
	.globl _i.keyword_if._client_call_y.nstackwords.group
	.weak _i.keyword_if._client_call_y.fns.group
	.globl _i.keyword_if._client_call_y.fns.group
	.add_to_set _i.keyword_if._client_call_y.nstackwords.group, (__interface_client_call_y_other.nstackwords + __interface_client_call_y_extra.nstackwords), __interface_client_call_y_other
	.add_to_set _i.keyword_if._client_call_y.fns.group, __interface_client_call_y_other, __interface_client_call_y_other
	.max_reduce _i.keyword_if._client_call_y.max.nstackwords, _i.keyword_if._client_call_y.nstackwords.group, 0
	.max_reduce _i.keyword_if._client_call_y.fns, _i.keyword_if._client_call_y.fns.group, 0
	.weak _i.audManage_if.transfer_buffers.maxchanends.group
	.weak _i.audManage_if.transfer_buffers.maxcores.group
	.weak _i.audManage_if.transfer_buffers.maxtimers.group
	.weak _i.audManage_if.transfer_buffers.nstackwords.group
	.globl _i.audManage_if.transfer_buffers.nstackwords.group
	.weak _i.audManage_if.transfer_buffers.fns.group
	.globl _i.audManage_if.transfer_buffers.fns.group
	.weak _i.audManage_if.transfer_samples.maxchanends.group
	.weak _i.audManage_if.transfer_samples.maxcores.group
	.weak _i.audManage_if.transfer_samples.maxtimers.group
	.weak _i.audManage_if.transfer_samples.nstackwords.group
	.globl _i.audManage_if.transfer_samples.nstackwords.group
	.weak _i.audManage_if.transfer_samples.fns.group
	.globl _i.audManage_if.transfer_samples.fns.group
	.weak _i.audManage_if.__interface_init.maxchanends.group
	.weak _i.audManage_if.__interface_init.maxcores.group
	.weak _i.audManage_if.__interface_init.maxtimers.group
	.weak _i.audManage_if.__interface_init.nstackwords.group
	.globl _i.audManage_if.__interface_init.nstackwords.group
	.weak _i.audManage_if.__interface_init.fns.group
	.globl _i.audManage_if.__interface_init.fns.group
	.weak _i.beclear_if.swap_buffers.maxchanends.group
	.weak _i.beclear_if.swap_buffers.maxcores.group
	.weak _i.beclear_if.swap_buffers.maxtimers.group
	.weak _i.beclear_if.swap_buffers.nstackwords.group
	.globl _i.beclear_if.swap_buffers.nstackwords.group
	.weak _i.beclear_if.swap_buffers.fns.group
	.globl _i.beclear_if.swap_buffers.fns.group
	.weak _i.beclear_if.transfer_samples.maxchanends.group
	.weak _i.beclear_if.transfer_samples.maxcores.group
	.weak _i.beclear_if.transfer_samples.maxtimers.group
	.weak _i.beclear_if.transfer_samples.nstackwords.group
	.globl _i.beclear_if.transfer_samples.nstackwords.group
	.weak _i.beclear_if.transfer_samples.fns.group
	.globl _i.beclear_if.transfer_samples.fns.group
	.weak _i.beclear_if.__interface_init.maxchanends.group
	.weak _i.beclear_if.__interface_init.maxcores.group
	.weak _i.beclear_if.__interface_init.maxtimers.group
	.weak _i.beclear_if.__interface_init.nstackwords.group
	.globl _i.beclear_if.__interface_init.nstackwords.group
	.weak _i.beclear_if.__interface_init.fns.group
	.globl _i.beclear_if.__interface_init.fns.group
	.weak _i.control.register_resources.maxchanends.group
	.weak _i.control.register_resources.maxcores.group
	.weak _i.control.register_resources.maxtimers.group
	.weak _i.control.register_resources.nstackwords.group
	.globl _i.control.register_resources.nstackwords.group
	.weak _i.control.register_resources.fns.group
	.globl _i.control.register_resources.fns.group
	.weak _i.control.write_command.maxchanends.group
	.weak _i.control.write_command.maxcores.group
	.weak _i.control.write_command.maxtimers.group
	.weak _i.control.write_command.nstackwords.group
	.globl _i.control.write_command.nstackwords.group
	.weak _i.control.write_command.fns.group
	.globl _i.control.write_command.fns.group
	.weak _i.control.read_command.maxchanends.group
	.weak _i.control.read_command.maxcores.group
	.weak _i.control.read_command.maxtimers.group
	.weak _i.control.read_command.nstackwords.group
	.globl _i.control.read_command.nstackwords.group
	.weak _i.control.read_command.fns.group
	.globl _i.control.read_command.fns.group
	.weak _i.control.__interface_init.maxchanends.group
	.weak _i.control.__interface_init.maxcores.group
	.weak _i.control.__interface_init.maxtimers.group
	.weak _i.control.__interface_init.nstackwords.group
	.globl _i.control.__interface_init.nstackwords.group
	.weak _i.control.__interface_init.fns.group
	.globl _i.control.__interface_init.fns.group
	.weak _i.i_dfu.HandleDfuRequest.maxchanends.group
	.weak _i.i_dfu.HandleDfuRequest.maxcores.group
	.weak _i.i_dfu.HandleDfuRequest.maxtimers.group
	.weak _i.i_dfu.HandleDfuRequest.nstackwords.group
	.globl _i.i_dfu.HandleDfuRequest.nstackwords.group
	.weak _i.i_dfu.HandleDfuRequest.fns.group
	.globl _i.i_dfu.HandleDfuRequest.fns.group
	.weak _i.i_dfu.finish.maxchanends.group
	.weak _i.i_dfu.finish.maxcores.group
	.weak _i.i_dfu.finish.maxtimers.group
	.weak _i.i_dfu.finish.nstackwords.group
	.globl _i.i_dfu.finish.nstackwords.group
	.weak _i.i_dfu.finish.fns.group
	.globl _i.i_dfu.finish.fns.group
	.weak _i.i_dfu.__interface_init.maxchanends.group
	.weak _i.i_dfu.__interface_init.maxcores.group
	.weak _i.i_dfu.__interface_init.maxtimers.group
	.weak _i.i_dfu.__interface_init.nstackwords.group
	.globl _i.i_dfu.__interface_init.nstackwords.group
	.weak _i.i_dfu.__interface_init.fns.group
	.globl _i.i_dfu.__interface_init.fns.group
	.set usage.anon.0,0
	.set usage.anon.1,0
	.set usage.anon.2,0
	.set usage.anon.3,0
	.set usage.anon.4,0
	.set usage.anon.5,0
	.set usage.anon.6,0
	.set usage.anon.7,0
	.set usage.anon.8,0
	.set usage.anon.9,0
	.set usage.anon.10,0
	.set usage.anon.11,0
	.set usage.anon.12,0
	.set usage.anon.13,0
	.set usage.anon.14,0
	.set usage.anon.15,0
	.set usage.anon.16,0
	.set usage.anon.17,0
	.set usage.anon.18,0
	.set usage.anon.19,0
	.set usage.anon.20,0
	.globwrite usage.anon.20,p_button,"C:/Users/user/workspace/module_usb_audio/main.xc:617:39: note: object used here\n                    case is_stable => p_button when pinsneq(current_val) :> current_val:\n                                      ^~~~~~~~"
	.globwrite usage.anon.16,p_for_mclk_count,"C:/Users/user/workspace/module_usb_audio/main.xc:354:43: note: object used here\n            asm(\"setclk res[%0], %1\"::\"r\"(p_for_mclk_count), \"r\"(x));\n                                          ^~~~~~~~~~~~~~~~"
	.globwrite usage.anon.15,epTypeTableIn,"C:/Users/user/workspace/module_usb_audio/main.xc:335:40: note: object used here\n                c_sof, epTypeTableOut, epTypeTableIn, p_usb_rst,\n                                       ^~~~~~~~~~~~~"
	.globwrite usage.anon.15,epTypeTableOut,"C:/Users/user/workspace/module_usb_audio/main.xc:335:24: note: object used here\n                c_sof, epTypeTableOut, epTypeTableIn, p_usb_rst,\n                       ^~~~~~~~~~~~~~"
	.call main,xscope_client
	.call main,usb_audio_io
	.call main,usb_audio_core
	.call main,usage.anon.20
	.call main,usage.anon.19
	.call main,pdm_mic
	.call main,pdm_buffer
	.call main,led_controller
	.call main,far_end_dsp
	.call main,DFUHandler
	.call main,BeclearBuff
	.call main,BeClear_SmartTV_AEC
	.call usage.anon.20,printf
	.call usage.anon.19,led_init_chanend
	.call usage.anon.19,dsp_init_chanend
	.call usage.anon.19,BeClear_SmartTV_BAP
	.call usb_audio_io,thread_speed
	.call usb_audio_io,audio
	.call usb_audio_core,usage.anon.18
	.call usb_audio_core,usage.anon.17
	.call usb_audio_core,usage.anon.16
	.call usb_audio_core,usage.anon.15
	.call usage.anon.18,thread_speed
	.call usage.anon.18,decouple
	.call usage.anon.17,thread_speed
	.call usage.anon.17,Endpoint0
	.call usage.anon.16,thread_speed
	.call usage.anon.16,buffer
	.call usage.anon.15,set_core_high_priority_on
	.call usage.anon.15,XUD_Manager
	.call usage.anon.6,usage.anon.5
	.call usage.anon.2,delay_ticks_longlong
	.call usage.anon.1,delay_ticks_longlong
	.call usage.anon.0,delay_ticks_longlong
	.par BeclearBuff,BeClear_SmartTV_AEC,"C:/Users/user/workspace/module_usb_audio/main.xc:583:5: error: use of `%s\' violates parallel usage rules\n    par\n    ^~~"
	.par BeclearBuff,usage.anon.19,"C:/Users/user/workspace/module_usb_audio/main.xc:583:5: error: use of `%s\' violates parallel usage rules\n    par\n    ^~~"
	.par BeclearBuff,xscope_client,"C:/Users/user/workspace/module_usb_audio/main.xc:583:5: error: use of `%s\' violates parallel usage rules\n    par\n    ^~~"
	.par BeclearBuff,led_controller,"C:/Users/user/workspace/module_usb_audio/main.xc:583:5: error: use of `%s\' violates parallel usage rules\n    par\n    ^~~"
	.par BeclearBuff,far_end_dsp,"C:/Users/user/workspace/module_usb_audio/main.xc:583:5: error: use of `%s\' violates parallel usage rules\n    par\n    ^~~"
	.par BeclearBuff,usage.anon.20,"C:/Users/user/workspace/module_usb_audio/main.xc:583:5: error: use of `%s\' violates parallel usage rules\n    par\n    ^~~"
	.par BeclearBuff,usb_audio_core,"C:/Users/user/workspace/module_usb_audio/main.xc:583:5: error: use of `%s\' violates parallel usage rules\n    par\n    ^~~"
	.par BeclearBuff,usb_audio_io,"C:/Users/user/workspace/module_usb_audio/main.xc:583:5: error: use of `%s\' violates parallel usage rules\n    par\n    ^~~"
	.par BeclearBuff,DFUHandler,"C:/Users/user/workspace/module_usb_audio/main.xc:583:5: error: use of `%s\' violates parallel usage rules\n    par\n    ^~~"
	.par BeclearBuff,pdm_mic,"C:/Users/user/workspace/module_usb_audio/main.xc:583:5: error: use of `%s\' violates parallel usage rules\n    par\n    ^~~"
	.par BeclearBuff,pdm_buffer,"C:/Users/user/workspace/module_usb_audio/main.xc:583:5: error: use of `%s\' violates parallel usage rules\n    par\n    ^~~"
	.par BeClear_SmartTV_AEC,usage.anon.19,"C:/Users/user/workspace/module_usb_audio/main.xc:583:5: error: use of `%s\' violates parallel usage rules\n    par\n    ^~~"
	.par BeClear_SmartTV_AEC,xscope_client,"C:/Users/user/workspace/module_usb_audio/main.xc:583:5: error: use of `%s\' violates parallel usage rules\n    par\n    ^~~"
	.par BeClear_SmartTV_AEC,led_controller,"C:/Users/user/workspace/module_usb_audio/main.xc:583:5: error: use of `%s\' violates parallel usage rules\n    par\n    ^~~"
	.par BeClear_SmartTV_AEC,far_end_dsp,"C:/Users/user/workspace/module_usb_audio/main.xc:583:5: error: use of `%s\' violates parallel usage rules\n    par\n    ^~~"
	.par BeClear_SmartTV_AEC,usage.anon.20,"C:/Users/user/workspace/module_usb_audio/main.xc:583:5: error: use of `%s\' violates parallel usage rules\n    par\n    ^~~"
	.par BeClear_SmartTV_AEC,usb_audio_core,"C:/Users/user/workspace/module_usb_audio/main.xc:583:5: error: use of `%s\' violates parallel usage rules\n    par\n    ^~~"
	.par BeClear_SmartTV_AEC,usb_audio_io,"C:/Users/user/workspace/module_usb_audio/main.xc:583:5: error: use of `%s\' violates parallel usage rules\n    par\n    ^~~"
	.par BeClear_SmartTV_AEC,DFUHandler,"C:/Users/user/workspace/module_usb_audio/main.xc:583:5: error: use of `%s\' violates parallel usage rules\n    par\n    ^~~"
	.par BeClear_SmartTV_AEC,pdm_mic,"C:/Users/user/workspace/module_usb_audio/main.xc:583:5: error: use of `%s\' violates parallel usage rules\n    par\n    ^~~"
	.par BeClear_SmartTV_AEC,pdm_buffer,"C:/Users/user/workspace/module_usb_audio/main.xc:583:5: error: use of `%s\' violates parallel usage rules\n    par\n    ^~~"
	.par usage.anon.19,xscope_client,"C:/Users/user/workspace/module_usb_audio/main.xc:583:5: error: use of `%s\' violates parallel usage rules\n    par\n    ^~~"
	.par usage.anon.19,led_controller,"C:/Users/user/workspace/module_usb_audio/main.xc:583:5: error: use of `%s\' violates parallel usage rules\n    par\n    ^~~"
	.par usage.anon.19,far_end_dsp,"C:/Users/user/workspace/module_usb_audio/main.xc:583:5: error: use of `%s\' violates parallel usage rules\n    par\n    ^~~"
	.par usage.anon.19,usage.anon.20,"C:/Users/user/workspace/module_usb_audio/main.xc:583:5: error: use of `%s\' violates parallel usage rules\n    par\n    ^~~"
	.par usage.anon.19,usb_audio_core,"C:/Users/user/workspace/module_usb_audio/main.xc:583:5: error: use of `%s\' violates parallel usage rules\n    par\n    ^~~"
	.par usage.anon.19,usb_audio_io,"C:/Users/user/workspace/module_usb_audio/main.xc:583:5: error: use of `%s\' violates parallel usage rules\n    par\n    ^~~"
	.par usage.anon.19,DFUHandler,"C:/Users/user/workspace/module_usb_audio/main.xc:583:5: error: use of `%s\' violates parallel usage rules\n    par\n    ^~~"
	.par usage.anon.19,pdm_mic,"C:/Users/user/workspace/module_usb_audio/main.xc:583:5: error: use of `%s\' violates parallel usage rules\n    par\n    ^~~"
	.par usage.anon.19,pdm_buffer,"C:/Users/user/workspace/module_usb_audio/main.xc:583:5: error: use of `%s\' violates parallel usage rules\n    par\n    ^~~"
	.par xscope_client,led_controller,"C:/Users/user/workspace/module_usb_audio/main.xc:583:5: error: use of `%s\' violates parallel usage rules\n    par\n    ^~~"
	.par xscope_client,far_end_dsp,"C:/Users/user/workspace/module_usb_audio/main.xc:583:5: error: use of `%s\' violates parallel usage rules\n    par\n    ^~~"
	.par xscope_client,usage.anon.20,"C:/Users/user/workspace/module_usb_audio/main.xc:583:5: error: use of `%s\' violates parallel usage rules\n    par\n    ^~~"
	.par xscope_client,usb_audio_core,"C:/Users/user/workspace/module_usb_audio/main.xc:583:5: error: use of `%s\' violates parallel usage rules\n    par\n    ^~~"
	.par xscope_client,usb_audio_io,"C:/Users/user/workspace/module_usb_audio/main.xc:583:5: error: use of `%s\' violates parallel usage rules\n    par\n    ^~~"
	.par xscope_client,DFUHandler,"C:/Users/user/workspace/module_usb_audio/main.xc:583:5: error: use of `%s\' violates parallel usage rules\n    par\n    ^~~"
	.par xscope_client,pdm_mic,"C:/Users/user/workspace/module_usb_audio/main.xc:583:5: error: use of `%s\' violates parallel usage rules\n    par\n    ^~~"
	.par xscope_client,pdm_buffer,"C:/Users/user/workspace/module_usb_audio/main.xc:583:5: error: use of `%s\' violates parallel usage rules\n    par\n    ^~~"
	.par led_controller,far_end_dsp,"C:/Users/user/workspace/module_usb_audio/main.xc:583:5: error: use of `%s\' violates parallel usage rules\n    par\n    ^~~"
	.par led_controller,usage.anon.20,"C:/Users/user/workspace/module_usb_audio/main.xc:583:5: error: use of `%s\' violates parallel usage rules\n    par\n    ^~~"
	.par led_controller,usb_audio_core,"C:/Users/user/workspace/module_usb_audio/main.xc:583:5: error: use of `%s\' violates parallel usage rules\n    par\n    ^~~"
	.par led_controller,usb_audio_io,"C:/Users/user/workspace/module_usb_audio/main.xc:583:5: error: use of `%s\' violates parallel usage rules\n    par\n    ^~~"
	.par led_controller,DFUHandler,"C:/Users/user/workspace/module_usb_audio/main.xc:583:5: error: use of `%s\' violates parallel usage rules\n    par\n    ^~~"
	.par led_controller,pdm_mic,"C:/Users/user/workspace/module_usb_audio/main.xc:583:5: error: use of `%s\' violates parallel usage rules\n    par\n    ^~~"
	.par led_controller,pdm_buffer,"C:/Users/user/workspace/module_usb_audio/main.xc:583:5: error: use of `%s\' violates parallel usage rules\n    par\n    ^~~"
	.par far_end_dsp,usage.anon.20,"C:/Users/user/workspace/module_usb_audio/main.xc:583:5: error: use of `%s\' violates parallel usage rules\n    par\n    ^~~"
	.par far_end_dsp,usb_audio_core,"C:/Users/user/workspace/module_usb_audio/main.xc:583:5: error: use of `%s\' violates parallel usage rules\n    par\n    ^~~"
	.par far_end_dsp,usb_audio_io,"C:/Users/user/workspace/module_usb_audio/main.xc:583:5: error: use of `%s\' violates parallel usage rules\n    par\n    ^~~"
	.par far_end_dsp,DFUHandler,"C:/Users/user/workspace/module_usb_audio/main.xc:583:5: error: use of `%s\' violates parallel usage rules\n    par\n    ^~~"
	.par far_end_dsp,pdm_mic,"C:/Users/user/workspace/module_usb_audio/main.xc:583:5: error: use of `%s\' violates parallel usage rules\n    par\n    ^~~"
	.par far_end_dsp,pdm_buffer,"C:/Users/user/workspace/module_usb_audio/main.xc:583:5: error: use of `%s\' violates parallel usage rules\n    par\n    ^~~"
	.par usage.anon.20,usb_audio_core,"C:/Users/user/workspace/module_usb_audio/main.xc:583:5: error: use of `%s\' violates parallel usage rules\n    par\n    ^~~"
	.par usage.anon.20,usb_audio_io,"C:/Users/user/workspace/module_usb_audio/main.xc:583:5: error: use of `%s\' violates parallel usage rules\n    par\n    ^~~"
	.par usage.anon.20,DFUHandler,"C:/Users/user/workspace/module_usb_audio/main.xc:583:5: error: use of `%s\' violates parallel usage rules\n    par\n    ^~~"
	.par usage.anon.20,pdm_mic,"C:/Users/user/workspace/module_usb_audio/main.xc:583:5: error: use of `%s\' violates parallel usage rules\n    par\n    ^~~"
	.par usage.anon.20,pdm_buffer,"C:/Users/user/workspace/module_usb_audio/main.xc:583:5: error: use of `%s\' violates parallel usage rules\n    par\n    ^~~"
	.par usb_audio_core,usb_audio_io,"C:/Users/user/workspace/module_usb_audio/main.xc:583:5: error: use of `%s\' violates parallel usage rules\n    par\n    ^~~"
	.par usb_audio_core,DFUHandler,"C:/Users/user/workspace/module_usb_audio/main.xc:583:5: error: use of `%s\' violates parallel usage rules\n    par\n    ^~~"
	.par usb_audio_core,pdm_mic,"C:/Users/user/workspace/module_usb_audio/main.xc:583:5: error: use of `%s\' violates parallel usage rules\n    par\n    ^~~"
	.par usb_audio_core,pdm_buffer,"C:/Users/user/workspace/module_usb_audio/main.xc:583:5: error: use of `%s\' violates parallel usage rules\n    par\n    ^~~"
	.par usb_audio_io,DFUHandler,"C:/Users/user/workspace/module_usb_audio/main.xc:583:5: error: use of `%s\' violates parallel usage rules\n    par\n    ^~~"
	.par usb_audio_io,pdm_mic,"C:/Users/user/workspace/module_usb_audio/main.xc:583:5: error: use of `%s\' violates parallel usage rules\n    par\n    ^~~"
	.par usb_audio_io,pdm_buffer,"C:/Users/user/workspace/module_usb_audio/main.xc:583:5: error: use of `%s\' violates parallel usage rules\n    par\n    ^~~"
	.par DFUHandler,pdm_mic,"C:/Users/user/workspace/module_usb_audio/main.xc:583:5: error: use of `%s\' violates parallel usage rules\n    par\n    ^~~"
	.par DFUHandler,pdm_buffer,"C:/Users/user/workspace/module_usb_audio/main.xc:583:5: error: use of `%s\' violates parallel usage rules\n    par\n    ^~~"
	.par pdm_mic,pdm_buffer,"C:/Users/user/workspace/module_usb_audio/main.xc:583:5: error: use of `%s\' violates parallel usage rules\n    par\n    ^~~"
	.par usage.anon.15,usage.anon.16,"C:/Users/user/workspace/module_usb_audio/main.xc:322:5: error: use of `%s\' violates parallel usage rules\n    par\n    ^~~"
	.par usage.anon.15,usage.anon.17,"C:/Users/user/workspace/module_usb_audio/main.xc:322:5: error: use of `%s\' violates parallel usage rules\n    par\n    ^~~"
	.par usage.anon.15,usage.anon.18,"C:/Users/user/workspace/module_usb_audio/main.xc:322:5: error: use of `%s\' violates parallel usage rules\n    par\n    ^~~"
	.par usage.anon.16,usage.anon.17,"C:/Users/user/workspace/module_usb_audio/main.xc:322:5: error: use of `%s\' violates parallel usage rules\n    par\n    ^~~"
	.par usage.anon.16,usage.anon.18,"C:/Users/user/workspace/module_usb_audio/main.xc:322:5: error: use of `%s\' violates parallel usage rules\n    par\n    ^~~"
	.par usage.anon.17,usage.anon.18,"C:/Users/user/workspace/module_usb_audio/main.xc:322:5: error: use of `%s\' violates parallel usage rules\n    par\n    ^~~"
	.set usage.anon.3.locnoside, 0
	.set usage.anon.6.locnoside, 0
	.set usage.anon.7.locnoside, 0
	.set usage.anon.8.locnoside, 0
	.set usage.anon.9.locnoside, 0
	.set usage.anon.10.locnoside, 0
	.set usage.anon.11.locnoside, 0
	.set usage.anon.12.locnoside, 0
	.set usage.anon.13.locnoside, 0
	.set usage.anon.14.locnoside, 0
	.set usb_audio_core.locnoside, 0
	.set usb_audio_io.locnoside, 0
	.set main.locnoside, 0
	.set usb_audio_core.locnochandec, 0
	.set main.locnochandec, 0
	.set usb_audio_core.locnoglobalaccess, 0
	.set main.locnoglobalaccess, 0
	.set usage.anon.7.locnointerfaceaccess, 0
	.set usage.anon.8.locnointerfaceaccess, 0
	.set usage.anon.9.locnointerfaceaccess, 0
	.set usage.anon.10.locnointerfaceaccess, 0
	.set usage.anon.11.locnointerfaceaccess, 0
	.set usage.anon.12.locnointerfaceaccess, 0
	.set usage.anon.13.locnointerfaceaccess, 0
	.set usage.anon.14.locnointerfaceaccess, 0
	.globpassesref buffer, p_for_mclk_count,"C:/Users/user/workspace/module_usb_audio/main.xc:357:13: error: call to `buffer\' in `usb_audio_core\' makes alias of global \'p_for_mclk_count\'\n            buffer(c_xud_out[ENDPOINT_NUMBER_OUT_AUDIO],    /* Audio Out*/\n            ^~~~~~~~~~~~~~~~~~~~~~~~~~~~~~~~~~~~~~~~~~~~~~~~~~~~~~~~~~~~~~"
	.globpassesref XUD_Manager, epTypeTableIn,"C:/Users/user/workspace/module_usb_audio/main.xc:334:13: error: call to `XUD_Manager\' in `usb_audio_core\' makes alias of global \'epTypeTableIn\'\n            XUD_Manager(c_xud_out, ENDPOINT_COUNT_OUT, c_xud_in, ENDPOINT_COUNT_IN,\n            ^~~~~~~~~~~~~~~~~~~~~~~~~~~~~~~~~~~~~~~~~~~~~~~~~~~~~~~~~~~~~~~~~~~~~~~"
	.globpassesref XUD_Manager, epTypeTableOut,"C:/Users/user/workspace/module_usb_audio/main.xc:334:13: error: call to `XUD_Manager\' in `usb_audio_core\' makes alias of global \'epTypeTableOut\'\n            XUD_Manager(c_xud_out, ENDPOINT_COUNT_OUT, c_xud_in, ENDPOINT_COUNT_IN,\n            ^~~~~~~~~~~~~~~~~~~~~~~~~~~~~~~~~~~~~~~~~~~~~~~~~~~~~~~~~~~~~~~~~~~~~~~"
	.overlay_subgraph_conflict usb_audio_core.task.XUD_Manager.0, usb_audio_core.task.buffer.1, usb_audio_core.task.Endpoint0.2, usb_audio_core.task.decouple.3
	.overlay_subgraph_conflict _Susb_audio_core_0.task.XUD_Manager.0, _Susb_audio_core_0.task.buffer.1, _Susb_audio_core_0.task.Endpoint0.2, _Susb_audio_core_0.task.decouple.3
	.overlay_subgraph_conflict __main__main_tile_0_combined_tile_0_u0, __main__main_tile_0_task_BeClear_SmartTV_AEC_1, __main__main_tile_0_task_far_end_dsp_6, __main__main_tile_0_task_7, __main__main_tile_0_task_DFUHandler_11, __main__main_tile_0_task_pdm_mic_12
	.overlay_subgraph_conflict __main__main_tile_1_task_BeClear_SmartTV_BAP_2, __main__main_tile_1_task_xscope_client_4, __main__main_tile_1_task_usb_audio_core_9, __main__main_tile_1_task_usb_audio_io_10

                                        # End of file scope inline assembly
	.text
	.weak	_i.i_dfu._chan.finish
	.align	4
	.type	_i.i_dfu._chan.finish,@function
	.cc_top _i.i_dfu._chan.finish.function,_i.i_dfu._chan.finish
_i.i_dfu._chan.finish:                  # @_i.i_dfu._chan.finish
	.cfi_startproc
	.issue_mode dual
# BB#0:                                 # %allocas
	#DEBUG_VALUE: _i.i_dfu._chan.finish:dest <- R0
	{
		getr r1, 2
		dualentsp 0
	}
	{
		setd res[r1], r0
		add r0, r1, 1
	}
	{
		out res[r1], r0
		nop
	}
	{
		outct res[r1], 2
		nop
	}
	{
		in r0, res[r1]
		nop
	}
	{
		chkct res[r1], 1
		nop
	}
	{
		freer res[r1]
		retsp 0
	}
	# RETURN_REG_HOLDER
	.cc_bottom _i.i_dfu._chan.finish.function
	.set	_i.i_dfu._chan.finish.nstackwords,0
	.globl	_i.i_dfu._chan.finish.nstackwords
	.weak	_i.i_dfu._chan.finish.nstackwords
	.set	_i.i_dfu._chan.finish.maxcores,1
	.globl	_i.i_dfu._chan.finish.maxcores
	.weak	_i.i_dfu._chan.finish.maxcores
	.set	_i.i_dfu._chan.finish.maxtimers,0
	.globl	_i.i_dfu._chan.finish.maxtimers
	.weak	_i.i_dfu._chan.finish.maxtimers
	.set	_i.i_dfu._chan.finish.maxchanends,1
	.globl	_i.i_dfu._chan.finish.maxchanends
	.weak	_i.i_dfu._chan.finish.maxchanends
.Ltmp0:
	.size	_i.i_dfu._chan.finish, .Ltmp0-_i.i_dfu._chan.finish
	.cfi_endproc

	.weak	_i.i_dfu._chan.HandleDfuRequest
	.align	4
	.type	_i.i_dfu._chan.HandleDfuRequest,@function
	.cc_top _i.i_dfu._chan.HandleDfuRequest.function,_i.i_dfu._chan.HandleDfuRequest
_i.i_dfu._chan.HandleDfuRequest:        # @_i.i_dfu._chan.HandleDfuRequest
	.cfi_startproc
	.issue_mode dual
# BB#0:                                 # %allocas
	{
		nop
		dualentsp 6
	}
.Ltmp1:
	.cfi_def_cfa_offset 24
.Ltmp2:
	.cfi_offset 15, 0
	std r5, r4, sp[2]               # 4-byte Folded Spill
.Ltmp3:
	.cfi_offset 4, -8
.Ltmp4:
	.cfi_offset 5, -4
	#DEBUG_VALUE: _i.i_dfu._chan.HandleDfuRequest:dest <- R0
	#DEBUG_VALUE: _i.i_dfu._chan.HandleDfuRequest:param1 <- R1
	#DEBUG_VALUE: _i.i_dfu._chan.HandleDfuRequest:param2 <- R2
	#DEBUG_VALUE: _i.i_dfu._chan.HandleDfuRequest:param3 <- R3
	#DEBUG_VALUE: _i.i_dfu._chan.HandleDfuRequest:param4 <- [SP+28]
	{
		nop
		ldw r11, sp[7]
	}
	{
		getr r4, 2
		ldw r5, sp[8]
	}
	{
		setd res[r4], r0
		nop
	}
	{
		out res[r4], r4
		nop
	}
	{
		outct res[r4], 2
		nop
	}
	{
		chkct res[r4], 1
		stw r1, sp[2]
	}
	{
		out res[r4], r5
		stw r2, sp[3]
	}
	{
		out res[r4], r3
		nop
	}
	{
		out res[r4], r11
		nop
	}
	{
		outct res[r4], 2
		ldaw r1, sp[2]
	}
	{
		mov r0, r4
		nop
	}
	bl __interface_client_call
	{
		in r0, res[r4]
		nop
	}
	{
		in r1, res[r4]
		nop
	}
	{
		in r2, res[r4]
		nop
	}
	{
		in r3, res[r4]
		nop
	}
	{
		in r11, res[r4]
		nop
	}
	{
		chkct res[r4], 1
		nop
	}
	{
		freer res[r4]
		stw r11, sp[9]
	}
	ldd r5, r4, sp[2]               # 4-byte Folded Reload
	{
		nop
		retsp 6
	}
	# RETURN_REG_HOLDER
	.cc_bottom _i.i_dfu._chan.HandleDfuRequest.function
	.set	_i.i_dfu._chan.HandleDfuRequest.nstackwords,(__interface_client_call.nstackwords + 6)
	.globl	_i.i_dfu._chan.HandleDfuRequest.nstackwords
	.weak	_i.i_dfu._chan.HandleDfuRequest.nstackwords
	.set	_i.i_dfu._chan.HandleDfuRequest.maxcores,__interface_client_call.maxcores $M 1
	.globl	_i.i_dfu._chan.HandleDfuRequest.maxcores
	.weak	_i.i_dfu._chan.HandleDfuRequest.maxcores
	.set	_i.i_dfu._chan.HandleDfuRequest.maxtimers,__interface_client_call.maxtimers $M 0
	.globl	_i.i_dfu._chan.HandleDfuRequest.maxtimers
	.weak	_i.i_dfu._chan.HandleDfuRequest.maxtimers
	.set	_i.i_dfu._chan.HandleDfuRequest.maxchanends,(1 + __interface_client_call.maxchanends) $M 1
	.globl	_i.i_dfu._chan.HandleDfuRequest.maxchanends
	.weak	_i.i_dfu._chan.HandleDfuRequest.maxchanends
.Ltmp5:
	.size	_i.i_dfu._chan.HandleDfuRequest, .Ltmp5-_i.i_dfu._chan.HandleDfuRequest
	.cfi_endproc

	.weak	_i.i_dfu._chan_yield.finish
	.align	4
	.type	_i.i_dfu._chan_yield.finish,@function
	.cc_top _i.i_dfu._chan_yield.finish.function,_i.i_dfu._chan_yield.finish
_i.i_dfu._chan_yield.finish:            # @_i.i_dfu._chan_yield.finish
	.cfi_startproc
	.issue_mode dual
# BB#0:                                 # %allocas
	{
		nop
		dualentsp 4
	}
.Ltmp6:
	.cfi_def_cfa_offset 16
.Ltmp7:
	.cfi_offset 15, 0
	{
		nop
		stw r4, sp[2]
	}
.Ltmp8:
	.cfi_offset 4, -8
	#DEBUG_VALUE: _i.i_dfu._chan_yield.finish:s <- R0
	{
		getr r4, 2
		ldw r1, r0[0]
	}
	{
		setd res[r4], r1
		add r1, r4, 1
	}
	{
		out res[r4], r1
		nop
	}
	{
		outct res[r4], 2
		ldw r2, r0[1]
	}
	{
		ldc r1, 0
		mov r0, r4
	}
	bl __interface_client_call_y
	{
		chkct res[r4], 1
		nop
	}
	{
		freer res[r4]
		ldw r4, sp[2]
	}
	{
		nop
		retsp 4
	}
	# RETURN_REG_HOLDER
	.cc_bottom _i.i_dfu._chan_yield.finish.function
	.set	_i.i_dfu._chan_yield.finish.nstackwords,((_i.i_dfu._client_call_y.max.nstackwords $M ($D __interface_client_call_y.nstackwords ? __interface_client_call_y.nstackwords $: _i.i_dfu._client_call_y.max.nstackwords)) + 4)
	.globl	_i.i_dfu._chan_yield.finish.nstackwords
	.weak	_i.i_dfu._chan_yield.finish.nstackwords
	.set	_i.i_dfu._chan_yield.finish.maxcores,($D __interface_client_call_y.maxcores ? __interface_client_call_y.maxcores $: _i.i_dfu._client_call_y.max.maxcores) $M 1
	.globl	_i.i_dfu._chan_yield.finish.maxcores
	.weak	_i.i_dfu._chan_yield.finish.maxcores
	.set	_i.i_dfu._chan_yield.finish.maxtimers,($D __interface_client_call_y.maxtimers ? __interface_client_call_y.maxtimers $: _i.i_dfu._client_call_y.max.maxtimers) $M 0
	.globl	_i.i_dfu._chan_yield.finish.maxtimers
	.weak	_i.i_dfu._chan_yield.finish.maxtimers
	.set	_i.i_dfu._chan_yield.finish.maxchanends,(1 + ($D __interface_client_call_y.maxchanends ? __interface_client_call_y.maxchanends $: _i.i_dfu._client_call_y.max.maxchanends)) $M 1
	.globl	_i.i_dfu._chan_yield.finish.maxchanends
	.weak	_i.i_dfu._chan_yield.finish.maxchanends
.Ltmp9:
	.size	_i.i_dfu._chan_yield.finish, .Ltmp9-_i.i_dfu._chan_yield.finish
	.cfi_endproc

	.weak	_i.i_dfu._chan_yield.HandleDfuRequest
	.align	4
	.type	_i.i_dfu._chan_yield.HandleDfuRequest,@function
	.cc_top _i.i_dfu._chan_yield.HandleDfuRequest.function,_i.i_dfu._chan_yield.HandleDfuRequest
_i.i_dfu._chan_yield.HandleDfuRequest:  # @_i.i_dfu._chan_yield.HandleDfuRequest
	.cfi_startproc
	.issue_mode dual
# BB#0:                                 # %allocas
	{
		nop
		dualentsp 8
	}
.Ltmp10:
	.cfi_def_cfa_offset 32
.Ltmp11:
	.cfi_offset 15, 0
	std r5, r4, sp[2]               # 4-byte Folded Spill
.Ltmp12:
	.cfi_offset 4, -16
.Ltmp13:
	.cfi_offset 5, -12
	{
		nop
		stw r6, sp[6]
	}
.Ltmp14:
	.cfi_offset 6, -8
	#DEBUG_VALUE: _i.i_dfu._chan_yield.HandleDfuRequest:s <- R0
	#DEBUG_VALUE: _i.i_dfu._chan_yield.HandleDfuRequest:param1 <- R1
	#DEBUG_VALUE: _i.i_dfu._chan_yield.HandleDfuRequest:param2 <- R2
	#DEBUG_VALUE: _i.i_dfu._chan_yield.HandleDfuRequest:param3 <- R3
	#DEBUG_VALUE: _i.i_dfu._chan_yield.HandleDfuRequest:param4 <- [SP+36]
	{
		nop
		ldw r11, sp[9]
	}
	{
		nop
		ldw r5, sp[10]
	}
	{
		getr r4, 2
		ldw r6, r0[0]
	}
	{
		setd res[r4], r6
		nop
	}
	{
		out res[r4], r4
		nop
	}
	{
		outct res[r4], 2
		nop
	}
	{
		chkct res[r4], 1
		stw r1, sp[2]
	}
	{
		out res[r4], r5
		stw r2, sp[3]
	}
	{
		out res[r4], r3
		nop
	}
	{
		out res[r4], r11
		nop
	}
	{
		outct res[r4], 2
		ldw r2, r0[1]
	}
	{
		ldaw r1, sp[2]
		mov r0, r4
	}
	bl __interface_client_call_y
	{
		in r0, res[r4]
		nop
	}
	{
		in r1, res[r4]
		nop
	}
	{
		in r2, res[r4]
		nop
	}
	{
		in r3, res[r4]
		nop
	}
	{
		in r11, res[r4]
		nop
	}
	{
		chkct res[r4], 1
		nop
	}
	{
		freer res[r4]
		stw r11, sp[11]
	}
	{
		nop
		ldw r6, sp[6]
	}
	ldd r5, r4, sp[2]               # 4-byte Folded Reload
	{
		nop
		retsp 8
	}
	# RETURN_REG_HOLDER
	.cc_bottom _i.i_dfu._chan_yield.HandleDfuRequest.function
	.set	_i.i_dfu._chan_yield.HandleDfuRequest.nstackwords,((_i.i_dfu._client_call_y.max.nstackwords $M ($D __interface_client_call_y.nstackwords ? __interface_client_call_y.nstackwords $: _i.i_dfu._client_call_y.max.nstackwords)) + 8)
	.globl	_i.i_dfu._chan_yield.HandleDfuRequest.nstackwords
	.weak	_i.i_dfu._chan_yield.HandleDfuRequest.nstackwords
	.set	_i.i_dfu._chan_yield.HandleDfuRequest.maxcores,($D __interface_client_call_y.maxcores ? __interface_client_call_y.maxcores $: _i.i_dfu._client_call_y.max.maxcores) $M 1
	.globl	_i.i_dfu._chan_yield.HandleDfuRequest.maxcores
	.weak	_i.i_dfu._chan_yield.HandleDfuRequest.maxcores
	.set	_i.i_dfu._chan_yield.HandleDfuRequest.maxtimers,($D __interface_client_call_y.maxtimers ? __interface_client_call_y.maxtimers $: _i.i_dfu._client_call_y.max.maxtimers) $M 0
	.globl	_i.i_dfu._chan_yield.HandleDfuRequest.maxtimers
	.weak	_i.i_dfu._chan_yield.HandleDfuRequest.maxtimers
	.set	_i.i_dfu._chan_yield.HandleDfuRequest.maxchanends,(1 + ($D __interface_client_call_y.maxchanends ? __interface_client_call_y.maxchanends $: _i.i_dfu._client_call_y.max.maxchanends)) $M 1
	.globl	_i.i_dfu._chan_yield.HandleDfuRequest.maxchanends
	.weak	_i.i_dfu._chan_yield.HandleDfuRequest.maxchanends
.Ltmp15:
	.size	_i.i_dfu._chan_yield.HandleDfuRequest, .Ltmp15-_i.i_dfu._chan_yield.HandleDfuRequest
	.cfi_endproc

	.weak	_i.control._chan.read_command
	.align	4
	.type	_i.control._chan.read_command,@function
	.cc_top _i.control._chan.read_command.function,_i.control._chan.read_command
_i.control._chan.read_command:          # @_i.control._chan.read_command
	.cfi_startproc
	.issue_mode dual
# BB#0:                                 # %allocas
	{
		nop
		dualentsp 4
	}
.Ltmp16:
	.cfi_def_cfa_offset 16
.Ltmp17:
	.cfi_offset 15, 0
	{
		nop
		stw r4, sp[2]
	}
.Ltmp18:
	.cfi_offset 4, -8
	#DEBUG_VALUE: _i.control._chan.read_command:dest <- R0
	#DEBUG_VALUE: _i.control._chan.read_command:param1 <- R1
	#DEBUG_VALUE: _i.control._chan.read_command:param2 <- R2
	#DEBUG_VALUE: _i.control._chan.read_command:param3 <- R3
	#DEBUG_VALUE: _i.control._chan.read_command:param4 <- [SP+20]
	{
		getr r4, 2
		ldw r11, sp[5]
	}
	{
		setd res[r4], r0
		add r0, r4, 2
	}
	{
		out res[r4], r0
		nop
	}
	{
		outct res[r4], 2
		nop
	}
	{
		chkct res[r4], 1
		nop
	}
	{
		outt res[r4], r1
		nop
	}
	{
		outt res[r4], r2
		stw r3, sp[1]
	}
	{
		out res[r4], r11
		nop
	}
	{
		outct res[r4], 2
		ldaw r1, sp[1]
	}
	{
		mov r0, r4
		nop
	}
	bl __interface_client_call
	{
		int r0, res[r4]
		nop
	}
	{
		chkct res[r4], 1
		nop
	}
	{
		freer res[r4]
		ldw r4, sp[2]
	}
	{
		nop
		retsp 4
	}
	# RETURN_REG_HOLDER
	.cc_bottom _i.control._chan.read_command.function
	.set	_i.control._chan.read_command.nstackwords,(__interface_client_call.nstackwords + 4)
	.globl	_i.control._chan.read_command.nstackwords
	.weak	_i.control._chan.read_command.nstackwords
	.set	_i.control._chan.read_command.maxcores,__interface_client_call.maxcores $M 1
	.globl	_i.control._chan.read_command.maxcores
	.weak	_i.control._chan.read_command.maxcores
	.set	_i.control._chan.read_command.maxtimers,__interface_client_call.maxtimers $M 0
	.globl	_i.control._chan.read_command.maxtimers
	.weak	_i.control._chan.read_command.maxtimers
	.set	_i.control._chan.read_command.maxchanends,(1 + __interface_client_call.maxchanends) $M 1
	.globl	_i.control._chan.read_command.maxchanends
	.weak	_i.control._chan.read_command.maxchanends
.Ltmp19:
	.size	_i.control._chan.read_command, .Ltmp19-_i.control._chan.read_command
	.cfi_endproc

	.weak	_i.control._chan.write_command
	.align	4
	.type	_i.control._chan.write_command,@function
	.cc_top _i.control._chan.write_command.function,_i.control._chan.write_command
_i.control._chan.write_command:         # @_i.control._chan.write_command
	.cfi_startproc
	.issue_mode dual
# BB#0:                                 # %allocas
	{
		nop
		dualentsp 4
	}
.Ltmp20:
	.cfi_def_cfa_offset 16
.Ltmp21:
	.cfi_offset 15, 0
	{
		nop
		stw r4, sp[2]
	}
.Ltmp22:
	.cfi_offset 4, -8
	#DEBUG_VALUE: _i.control._chan.write_command:dest <- R0
	#DEBUG_VALUE: _i.control._chan.write_command:param1 <- R1
	#DEBUG_VALUE: _i.control._chan.write_command:param2 <- R2
	#DEBUG_VALUE: _i.control._chan.write_command:param3 <- R3
	#DEBUG_VALUE: _i.control._chan.write_command:param4 <- [SP+20]
	{
		getr r4, 2
		ldw r11, sp[5]
	}
	{
		setd res[r4], r0
		add r0, r4, 1
	}
	{
		out res[r4], r0
		nop
	}
	{
		outct res[r4], 2
		nop
	}
	{
		chkct res[r4], 1
		nop
	}
	{
		outt res[r4], r1
		nop
	}
	{
		outt res[r4], r2
		stw r3, sp[1]
	}
	{
		out res[r4], r11
		nop
	}
	{
		outct res[r4], 2
		ldaw r1, sp[1]
	}
	{
		mov r0, r4
		nop
	}
	bl __interface_client_call
	{
		int r0, res[r4]
		nop
	}
	{
		chkct res[r4], 1
		nop
	}
	{
		freer res[r4]
		ldw r4, sp[2]
	}
	{
		nop
		retsp 4
	}
	# RETURN_REG_HOLDER
	.cc_bottom _i.control._chan.write_command.function
	.set	_i.control._chan.write_command.nstackwords,(__interface_client_call.nstackwords + 4)
	.globl	_i.control._chan.write_command.nstackwords
	.weak	_i.control._chan.write_command.nstackwords
	.set	_i.control._chan.write_command.maxcores,__interface_client_call.maxcores $M 1
	.globl	_i.control._chan.write_command.maxcores
	.weak	_i.control._chan.write_command.maxcores
	.set	_i.control._chan.write_command.maxtimers,__interface_client_call.maxtimers $M 0
	.globl	_i.control._chan.write_command.maxtimers
	.weak	_i.control._chan.write_command.maxtimers
	.set	_i.control._chan.write_command.maxchanends,(1 + __interface_client_call.maxchanends) $M 1
	.globl	_i.control._chan.write_command.maxchanends
	.weak	_i.control._chan.write_command.maxchanends
.Ltmp23:
	.size	_i.control._chan.write_command, .Ltmp23-_i.control._chan.write_command
	.cfi_endproc

	.weak	_i.control._chan.register_resources
	.align	4
	.type	_i.control._chan.register_resources,@function
	.cc_top _i.control._chan.register_resources.function,_i.control._chan.register_resources
_i.control._chan.register_resources:    # @_i.control._chan.register_resources
	.cfi_startproc
	.issue_mode dual
# BB#0:                                 # %allocas
	{
		nop
		dualentsp 4
	}
.Ltmp24:
	.cfi_def_cfa_offset 16
.Ltmp25:
	.cfi_offset 15, 0
	std r5, r4, sp[1]               # 4-byte Folded Spill
.Ltmp26:
	.cfi_offset 4, -8
.Ltmp27:
	.cfi_offset 5, -4
	#DEBUG_VALUE: _i.control._chan.register_resources:dest <- R0
	#DEBUG_VALUE: _i.control._chan.register_resources:param1 <- R1
	#DEBUG_VALUE: _i.control._chan.register_resources:param2 <- R2
	#DEBUG_VALUE: _i.control._chan.register_resources:param2 <- R4
	{
		getr r5, 2
		mov r4, r2
	}
	{
		setd res[r5], r0
		nop
	}
	{
		out res[r5], r5
		nop
	}
	{
		outct res[r5], 2
		nop
	}
	{
		chkct res[r5], 1
		stw r1, sp[1]
	}
	{
		nop
		ldw r0, r4[0]
	}
	{
		out res[r5], r0
		nop
	}
	{
		outct res[r5], 2
		ldaw r1, sp[1]
	}
	{
		mov r0, r5
		nop
	}
	bl __interface_client_call
	{
		in r0, res[r5]
		nop
	}
	{
		chkct res[r5], 1
		stw r0, r4[0]
	}
	{
		freer res[r5]
		nop
	}
	ldd r5, r4, sp[1]               # 4-byte Folded Reload
	{
		nop
		retsp 4
	}
	# RETURN_REG_HOLDER
	.cc_bottom _i.control._chan.register_resources.function
	.set	_i.control._chan.register_resources.nstackwords,(__interface_client_call.nstackwords + 4)
	.globl	_i.control._chan.register_resources.nstackwords
	.weak	_i.control._chan.register_resources.nstackwords
	.set	_i.control._chan.register_resources.maxcores,__interface_client_call.maxcores $M 1
	.globl	_i.control._chan.register_resources.maxcores
	.weak	_i.control._chan.register_resources.maxcores
	.set	_i.control._chan.register_resources.maxtimers,__interface_client_call.maxtimers $M 0
	.globl	_i.control._chan.register_resources.maxtimers
	.weak	_i.control._chan.register_resources.maxtimers
	.set	_i.control._chan.register_resources.maxchanends,(1 + __interface_client_call.maxchanends) $M 1
	.globl	_i.control._chan.register_resources.maxchanends
	.weak	_i.control._chan.register_resources.maxchanends
.Ltmp28:
	.size	_i.control._chan.register_resources, .Ltmp28-_i.control._chan.register_resources
	.cfi_endproc

	.weak	_i.control._chan_yield.read_command
	.align	4
	.type	_i.control._chan_yield.read_command,@function
	.cc_top _i.control._chan_yield.read_command.function,_i.control._chan_yield.read_command
_i.control._chan_yield.read_command:    # @_i.control._chan_yield.read_command
	.cfi_startproc
	.issue_mode dual
# BB#0:                                 # %allocas
	{
		nop
		dualentsp 4
	}
.Ltmp29:
	.cfi_def_cfa_offset 16
.Ltmp30:
	.cfi_offset 15, 0
	std r5, r4, sp[1]               # 4-byte Folded Spill
.Ltmp31:
	.cfi_offset 4, -8
.Ltmp32:
	.cfi_offset 5, -4
	#DEBUG_VALUE: _i.control._chan_yield.read_command:s <- R0
	#DEBUG_VALUE: _i.control._chan_yield.read_command:param1 <- R1
	#DEBUG_VALUE: _i.control._chan_yield.read_command:param2 <- R2
	#DEBUG_VALUE: _i.control._chan_yield.read_command:param3 <- R3
	#DEBUG_VALUE: _i.control._chan_yield.read_command:param4 <- [SP+20]
	{
		nop
		ldw r11, sp[5]
	}
	{
		getr r4, 2
		ldw r5, r0[0]
	}
	{
		setd res[r4], r5
		add r5, r4, 2
	}
	{
		out res[r4], r5
		nop
	}
	{
		outct res[r4], 2
		nop
	}
	{
		chkct res[r4], 1
		nop
	}
	{
		outt res[r4], r1
		nop
	}
	{
		outt res[r4], r2
		stw r3, sp[1]
	}
	{
		out res[r4], r11
		nop
	}
	{
		outct res[r4], 2
		ldw r2, r0[1]
	}
	{
		ldaw r1, sp[1]
		mov r0, r4
	}
	bl __interface_client_call_y
	{
		int r0, res[r4]
		nop
	}
	{
		chkct res[r4], 1
		nop
	}
	{
		freer res[r4]
		nop
	}
	ldd r5, r4, sp[1]               # 4-byte Folded Reload
	{
		nop
		retsp 4
	}
	# RETURN_REG_HOLDER
	.cc_bottom _i.control._chan_yield.read_command.function
	.set	_i.control._chan_yield.read_command.nstackwords,((_i.control._client_call_y.max.nstackwords $M ($D __interface_client_call_y.nstackwords ? __interface_client_call_y.nstackwords $: _i.control._client_call_y.max.nstackwords)) + 4)
	.globl	_i.control._chan_yield.read_command.nstackwords
	.weak	_i.control._chan_yield.read_command.nstackwords
	.set	_i.control._chan_yield.read_command.maxcores,($D __interface_client_call_y.maxcores ? __interface_client_call_y.maxcores $: _i.control._client_call_y.max.maxcores) $M 1
	.globl	_i.control._chan_yield.read_command.maxcores
	.weak	_i.control._chan_yield.read_command.maxcores
	.set	_i.control._chan_yield.read_command.maxtimers,($D __interface_client_call_y.maxtimers ? __interface_client_call_y.maxtimers $: _i.control._client_call_y.max.maxtimers) $M 0
	.globl	_i.control._chan_yield.read_command.maxtimers
	.weak	_i.control._chan_yield.read_command.maxtimers
	.set	_i.control._chan_yield.read_command.maxchanends,(1 + ($D __interface_client_call_y.maxchanends ? __interface_client_call_y.maxchanends $: _i.control._client_call_y.max.maxchanends)) $M 1
	.globl	_i.control._chan_yield.read_command.maxchanends
	.weak	_i.control._chan_yield.read_command.maxchanends
.Ltmp33:
	.size	_i.control._chan_yield.read_command, .Ltmp33-_i.control._chan_yield.read_command
	.cfi_endproc

	.weak	_i.control._chan_yield.write_command
	.align	4
	.type	_i.control._chan_yield.write_command,@function
	.cc_top _i.control._chan_yield.write_command.function,_i.control._chan_yield.write_command
_i.control._chan_yield.write_command:   # @_i.control._chan_yield.write_command
	.cfi_startproc
	.issue_mode dual
# BB#0:                                 # %allocas
	{
		nop
		dualentsp 4
	}
.Ltmp34:
	.cfi_def_cfa_offset 16
.Ltmp35:
	.cfi_offset 15, 0
	std r5, r4, sp[1]               # 4-byte Folded Spill
.Ltmp36:
	.cfi_offset 4, -8
.Ltmp37:
	.cfi_offset 5, -4
	#DEBUG_VALUE: _i.control._chan_yield.write_command:s <- R0
	#DEBUG_VALUE: _i.control._chan_yield.write_command:param1 <- R1
	#DEBUG_VALUE: _i.control._chan_yield.write_command:param2 <- R2
	#DEBUG_VALUE: _i.control._chan_yield.write_command:param3 <- R3
	#DEBUG_VALUE: _i.control._chan_yield.write_command:param4 <- [SP+20]
	{
		nop
		ldw r11, sp[5]
	}
	{
		getr r4, 2
		ldw r5, r0[0]
	}
	{
		setd res[r4], r5
		add r5, r4, 1
	}
	{
		out res[r4], r5
		nop
	}
	{
		outct res[r4], 2
		nop
	}
	{
		chkct res[r4], 1
		nop
	}
	{
		outt res[r4], r1
		nop
	}
	{
		outt res[r4], r2
		stw r3, sp[1]
	}
	{
		out res[r4], r11
		nop
	}
	{
		outct res[r4], 2
		ldw r2, r0[1]
	}
	{
		ldaw r1, sp[1]
		mov r0, r4
	}
	bl __interface_client_call_y
	{
		int r0, res[r4]
		nop
	}
	{
		chkct res[r4], 1
		nop
	}
	{
		freer res[r4]
		nop
	}
	ldd r5, r4, sp[1]               # 4-byte Folded Reload
	{
		nop
		retsp 4
	}
	# RETURN_REG_HOLDER
	.cc_bottom _i.control._chan_yield.write_command.function
	.set	_i.control._chan_yield.write_command.nstackwords,((_i.control._client_call_y.max.nstackwords $M ($D __interface_client_call_y.nstackwords ? __interface_client_call_y.nstackwords $: _i.control._client_call_y.max.nstackwords)) + 4)
	.globl	_i.control._chan_yield.write_command.nstackwords
	.weak	_i.control._chan_yield.write_command.nstackwords
	.set	_i.control._chan_yield.write_command.maxcores,($D __interface_client_call_y.maxcores ? __interface_client_call_y.maxcores $: _i.control._client_call_y.max.maxcores) $M 1
	.globl	_i.control._chan_yield.write_command.maxcores
	.weak	_i.control._chan_yield.write_command.maxcores
	.set	_i.control._chan_yield.write_command.maxtimers,($D __interface_client_call_y.maxtimers ? __interface_client_call_y.maxtimers $: _i.control._client_call_y.max.maxtimers) $M 0
	.globl	_i.control._chan_yield.write_command.maxtimers
	.weak	_i.control._chan_yield.write_command.maxtimers
	.set	_i.control._chan_yield.write_command.maxchanends,(1 + ($D __interface_client_call_y.maxchanends ? __interface_client_call_y.maxchanends $: _i.control._client_call_y.max.maxchanends)) $M 1
	.globl	_i.control._chan_yield.write_command.maxchanends
	.weak	_i.control._chan_yield.write_command.maxchanends
.Ltmp38:
	.size	_i.control._chan_yield.write_command, .Ltmp38-_i.control._chan_yield.write_command
	.cfi_endproc

	.weak	_i.control._chan_yield.register_resources
	.align	4
	.type	_i.control._chan_yield.register_resources,@function
	.cc_top _i.control._chan_yield.register_resources.function,_i.control._chan_yield.register_resources
_i.control._chan_yield.register_resources: # @_i.control._chan_yield.register_resources
	.cfi_startproc
	.issue_mode dual
# BB#0:                                 # %allocas
	{
		nop
		dualentsp 4
	}
.Ltmp39:
	.cfi_def_cfa_offset 16
.Ltmp40:
	.cfi_offset 15, 0
	std r5, r4, sp[1]               # 4-byte Folded Spill
.Ltmp41:
	.cfi_offset 4, -8
.Ltmp42:
	.cfi_offset 5, -4
	#DEBUG_VALUE: _i.control._chan_yield.register_resources:s <- R0
	#DEBUG_VALUE: _i.control._chan_yield.register_resources:param1 <- R1
	#DEBUG_VALUE: _i.control._chan_yield.register_resources:param2 <- R2
	#DEBUG_VALUE: _i.control._chan_yield.register_resources:param2 <- R4
	{
		mov r4, r2
		ldw r2, r0[0]
	}
	{
		getr r5, 2
		nop
	}
	{
		setd res[r5], r2
		nop
	}
	{
		out res[r5], r5
		nop
	}
	{
		outct res[r5], 2
		nop
	}
	{
		chkct res[r5], 1
		stw r1, sp[1]
	}
	{
		nop
		ldw r1, r4[0]
	}
	{
		out res[r5], r1
		nop
	}
	{
		outct res[r5], 2
		ldw r2, r0[1]
	}
	{
		ldaw r1, sp[1]
		mov r0, r5
	}
	bl __interface_client_call_y
	{
		in r0, res[r5]
		nop
	}
	{
		chkct res[r5], 1
		stw r0, r4[0]
	}
	{
		freer res[r5]
		nop
	}
	ldd r5, r4, sp[1]               # 4-byte Folded Reload
	{
		nop
		retsp 4
	}
	# RETURN_REG_HOLDER
	.cc_bottom _i.control._chan_yield.register_resources.function
	.set	_i.control._chan_yield.register_resources.nstackwords,((_i.control._client_call_y.max.nstackwords $M ($D __interface_client_call_y.nstackwords ? __interface_client_call_y.nstackwords $: _i.control._client_call_y.max.nstackwords)) + 4)
	.globl	_i.control._chan_yield.register_resources.nstackwords
	.weak	_i.control._chan_yield.register_resources.nstackwords
	.set	_i.control._chan_yield.register_resources.maxcores,($D __interface_client_call_y.maxcores ? __interface_client_call_y.maxcores $: _i.control._client_call_y.max.maxcores) $M 1
	.globl	_i.control._chan_yield.register_resources.maxcores
	.weak	_i.control._chan_yield.register_resources.maxcores
	.set	_i.control._chan_yield.register_resources.maxtimers,($D __interface_client_call_y.maxtimers ? __interface_client_call_y.maxtimers $: _i.control._client_call_y.max.maxtimers) $M 0
	.globl	_i.control._chan_yield.register_resources.maxtimers
	.weak	_i.control._chan_yield.register_resources.maxtimers
	.set	_i.control._chan_yield.register_resources.maxchanends,(1 + ($D __interface_client_call_y.maxchanends ? __interface_client_call_y.maxchanends $: _i.control._client_call_y.max.maxchanends)) $M 1
	.globl	_i.control._chan_yield.register_resources.maxchanends
	.weak	_i.control._chan_yield.register_resources.maxchanends
.Ltmp43:
	.size	_i.control._chan_yield.register_resources, .Ltmp43-_i.control._chan_yield.register_resources
	.cfi_endproc

	.weak	_i.beclear_if._chan.transfer_samples
	.align	4
	.type	_i.beclear_if._chan.transfer_samples,@function
	.cc_top _i.beclear_if._chan.transfer_samples.function,_i.beclear_if._chan.transfer_samples
_i.beclear_if._chan.transfer_samples:   # @_i.beclear_if._chan.transfer_samples
	.cfi_startproc
	.issue_mode dual
# BB#0:                                 # %allocas
	{
		nop
		dualentsp 12
	}
.Ltmp44:
	.cfi_def_cfa_offset 48
.Ltmp45:
	.cfi_offset 15, 0
	std r5, r4, sp[2]               # 4-byte Folded Spill
.Ltmp46:
	.cfi_offset 4, -32
.Ltmp47:
	.cfi_offset 5, -28
	std r7, r6, sp[3]               # 4-byte Folded Spill
.Ltmp48:
	.cfi_offset 6, -24
.Ltmp49:
	.cfi_offset 7, -20
	std r9, r8, sp[4]               # 4-byte Folded Spill
.Ltmp50:
	.cfi_offset 8, -16
.Ltmp51:
	.cfi_offset 9, -12
.Ltmp52:
	.cfi_offset 10, -8
	#DEBUG_VALUE: _i.beclear_if._chan.transfer_samples:dest <- R0
	#DEBUG_VALUE: _i.beclear_if._chan.transfer_samples:param1 <- R1
	#DEBUG_VALUE: _i.beclear_if._chan.transfer_samples:param2 <- R2
	#DEBUG_VALUE: _i.beclear_if._chan.transfer_samples:param3 <- R3
	#DEBUG_VALUE: _i.beclear_if._chan.transfer_samples:param3 <- R5
	{
		mov r5, r3
		stw r10, sp[10]
	}
	#DEBUG_VALUE: _i.beclear_if._chan.transfer_samples:param2 <- R6
	#DEBUG_VALUE: _i.beclear_if._chan.transfer_samples:param1 <- R7
	{
		mov r6, r2
		mov r7, r1
	}
	ldd r9, r8, sp[7]
	{
		getr r4, 2
		ldw r10, sp[13]
	}
	{
		setd res[r4], r0
		add r0, r4, 1
	}
	{
		out res[r4], r0
		nop
	}
	{
		outct res[r4], 2
		ldc r1, 0
	}
	{
		mov r0, r4
		nop
	}
	bl __interface_wait_and_yield
	{
		chkct res[r4], 1
		nop
	}
	{
		out res[r4], r10
		stw r7, sp[1]
	}
	{
		out res[r4], r8
		stw r6, sp[2]
	}
	{
		out res[r4], r9
		stw r5, sp[3]
	}
	{
		outct res[r4], 2
		ldaw r1, sp[1]
	}
	{
		mov r0, r4
		nop
	}
	bl __interface_client_call
	{
		chkct res[r4], 1
		nop
	}
	{
		freer res[r4]
		ldw r10, sp[10]
	}
	ldd r9, r8, sp[4]               # 4-byte Folded Reload
	ldd r7, r6, sp[3]               # 4-byte Folded Reload
	ldd r5, r4, sp[2]               # 4-byte Folded Reload
	{
		nop
		retsp 12
	}
	# RETURN_REG_HOLDER
	.cc_bottom _i.beclear_if._chan.transfer_samples.function
	.set	_i.beclear_if._chan.transfer_samples.nstackwords,((_i.beclear_if._client_call_y.max.nstackwords $M ($D __interface_wait_and_yield.nstackwords ? __interface_wait_and_yield.nstackwords $: _i.beclear_if._client_call_y.max.nstackwords) $M __interface_client_call.nstackwords) + 12)
	.globl	_i.beclear_if._chan.transfer_samples.nstackwords
	.weak	_i.beclear_if._chan.transfer_samples.nstackwords
	.set	_i.beclear_if._chan.transfer_samples.maxcores,__interface_client_call.maxcores $M ($D __interface_wait_and_yield.maxcores ? __interface_wait_and_yield.maxcores $: _i.beclear_if._client_call_y.max.maxcores) $M 1
	.globl	_i.beclear_if._chan.transfer_samples.maxcores
	.weak	_i.beclear_if._chan.transfer_samples.maxcores
	.set	_i.beclear_if._chan.transfer_samples.maxtimers,__interface_client_call.maxtimers $M ($D __interface_wait_and_yield.maxtimers ? __interface_wait_and_yield.maxtimers $: _i.beclear_if._client_call_y.max.maxtimers) $M 0
	.globl	_i.beclear_if._chan.transfer_samples.maxtimers
	.weak	_i.beclear_if._chan.transfer_samples.maxtimers
	.set	_i.beclear_if._chan.transfer_samples.maxchanends,(1 + __interface_client_call.maxchanends) $M (1 + ($D __interface_wait_and_yield.maxchanends ? __interface_wait_and_yield.maxchanends $: _i.beclear_if._client_call_y.max.maxchanends)) $M 1
	.globl	_i.beclear_if._chan.transfer_samples.maxchanends
	.weak	_i.beclear_if._chan.transfer_samples.maxchanends
.Ltmp53:
	.size	_i.beclear_if._chan.transfer_samples, .Ltmp53-_i.beclear_if._chan.transfer_samples
	.cfi_endproc

	.weak	_i.beclear_if._chan.swap_buffers
	.align	4
	.type	_i.beclear_if._chan.swap_buffers,@function
	.cc_top _i.beclear_if._chan.swap_buffers.function,_i.beclear_if._chan.swap_buffers
_i.beclear_if._chan.swap_buffers:       # @_i.beclear_if._chan.swap_buffers
	.cfi_startproc
	.issue_mode dual
# BB#0:                                 # %allocas
	{
		nop
		dualentsp 4
	}
.Ltmp54:
	.cfi_def_cfa_offset 16
.Ltmp55:
	.cfi_offset 15, 0
.Ltmp56:
	.cfi_offset 4, -8
	#DEBUG_VALUE: _i.beclear_if._chan.swap_buffers:dest <- R0
	{
		getr r4, 2
		stw r4, sp[2]
	}
	{
		setd res[r4], r0
		nop
	}
	{
		out res[r4], r4
		nop
	}
	{
		outct res[r4], 2
		ldc r1, 0
	}
	{
		mov r0, r4
		nop
	}
	bl __interface_wait_and_yield
	{
		in r0, res[r4]
		nop
	}
	{
		chkct res[r4], 1
		nop
	}
	{
		freer res[r4]
		ldw r4, sp[2]
	}
	{
		nop
		retsp 4
	}
	# RETURN_REG_HOLDER
	.cc_bottom _i.beclear_if._chan.swap_buffers.function
	.set	_i.beclear_if._chan.swap_buffers.nstackwords,((_i.beclear_if._client_call_y.max.nstackwords $M ($D __interface_wait_and_yield.nstackwords ? __interface_wait_and_yield.nstackwords $: _i.beclear_if._client_call_y.max.nstackwords)) + 4)
	.globl	_i.beclear_if._chan.swap_buffers.nstackwords
	.weak	_i.beclear_if._chan.swap_buffers.nstackwords
	.set	_i.beclear_if._chan.swap_buffers.maxcores,($D __interface_wait_and_yield.maxcores ? __interface_wait_and_yield.maxcores $: _i.beclear_if._client_call_y.max.maxcores) $M 1
	.globl	_i.beclear_if._chan.swap_buffers.maxcores
	.weak	_i.beclear_if._chan.swap_buffers.maxcores
	.set	_i.beclear_if._chan.swap_buffers.maxtimers,($D __interface_wait_and_yield.maxtimers ? __interface_wait_and_yield.maxtimers $: _i.beclear_if._client_call_y.max.maxtimers) $M 0
	.globl	_i.beclear_if._chan.swap_buffers.maxtimers
	.weak	_i.beclear_if._chan.swap_buffers.maxtimers
	.set	_i.beclear_if._chan.swap_buffers.maxchanends,(1 + ($D __interface_wait_and_yield.maxchanends ? __interface_wait_and_yield.maxchanends $: _i.beclear_if._client_call_y.max.maxchanends)) $M 1
	.globl	_i.beclear_if._chan.swap_buffers.maxchanends
	.weak	_i.beclear_if._chan.swap_buffers.maxchanends
.Ltmp57:
	.size	_i.beclear_if._chan.swap_buffers, .Ltmp57-_i.beclear_if._chan.swap_buffers
	.cfi_endproc

	.weak	_i.beclear_if._chan_yield.transfer_samples
	.align	4
	.type	_i.beclear_if._chan_yield.transfer_samples,@function
	.cc_top _i.beclear_if._chan_yield.transfer_samples.function,_i.beclear_if._chan_yield.transfer_samples
_i.beclear_if._chan_yield.transfer_samples: # @_i.beclear_if._chan_yield.transfer_samples
	.cfi_startproc
	.issue_mode dual
# BB#0:                                 # %allocas
	{
		nop
		dualentsp 12
	}
.Ltmp58:
	.cfi_def_cfa_offset 48
.Ltmp59:
	.cfi_offset 15, 0
	std r5, r4, sp[2]               # 4-byte Folded Spill
.Ltmp60:
	.cfi_offset 4, -32
.Ltmp61:
	.cfi_offset 5, -28
	std r7, r6, sp[3]               # 4-byte Folded Spill
.Ltmp62:
	.cfi_offset 6, -24
.Ltmp63:
	.cfi_offset 7, -20
	std r9, r8, sp[4]               # 4-byte Folded Spill
.Ltmp64:
	.cfi_offset 8, -16
.Ltmp65:
	.cfi_offset 9, -12
.Ltmp66:
	.cfi_offset 10, -8
	#DEBUG_VALUE: _i.beclear_if._chan_yield.transfer_samples:s <- R0
	#DEBUG_VALUE: _i.beclear_if._chan_yield.transfer_samples:param1 <- R1
	#DEBUG_VALUE: _i.beclear_if._chan_yield.transfer_samples:param2 <- R2
	#DEBUG_VALUE: _i.beclear_if._chan_yield.transfer_samples:param3 <- R3
	#DEBUG_VALUE: _i.beclear_if._chan_yield.transfer_samples:param3 <- R5
	{
		mov r5, r3
		stw r10, sp[10]
	}
	#DEBUG_VALUE: _i.beclear_if._chan_yield.transfer_samples:param2 <- R6
	#DEBUG_VALUE: _i.beclear_if._chan_yield.transfer_samples:param1 <- R7
	{
		mov r6, r2
		mov r7, r1
	}
	ldd r10, r9, sp[7]
	{
		getr r4, 2
		ldw r1, r0[0]
	}
	{
		setd res[r4], r1
		add r1, r4, 1
	}
	{
		out res[r4], r1
		nop
	}
	{
		outct res[r4], 2
		ldw r8, r0[1]
	}
	{
		mov r0, r4
		mov r1, r8
	}
	bl __interface_wait_and_yield
	{
		chkct res[r4], 1
		ldw r0, sp[13]
	}
	{
		out res[r4], r0
		stw r7, sp[1]
	}
	{
		out res[r4], r9
		stw r6, sp[2]
	}
	{
		out res[r4], r10
		stw r5, sp[3]
	}
	{
		outct res[r4], 2
		ldaw r1, sp[1]
	}
	{
		mov r0, r4
		mov r2, r8
	}
	bl __interface_client_call_y
	{
		chkct res[r4], 1
		nop
	}
	{
		freer res[r4]
		ldw r10, sp[10]
	}
	ldd r9, r8, sp[4]               # 4-byte Folded Reload
	ldd r7, r6, sp[3]               # 4-byte Folded Reload
	ldd r5, r4, sp[2]               # 4-byte Folded Reload
	{
		nop
		retsp 12
	}
	# RETURN_REG_HOLDER
	.cc_bottom _i.beclear_if._chan_yield.transfer_samples.function
	.set	_i.beclear_if._chan_yield.transfer_samples.nstackwords,((($D __interface_wait_and_yield.nstackwords ? __interface_wait_and_yield.nstackwords $: _i.beclear_if._client_call_y.max.nstackwords) $M _i.beclear_if._client_call_y.max.nstackwords $M ($D __interface_client_call_y.nstackwords ? __interface_client_call_y.nstackwords $: _i.beclear_if._client_call_y.max.nstackwords)) + 12)
	.globl	_i.beclear_if._chan_yield.transfer_samples.nstackwords
	.weak	_i.beclear_if._chan_yield.transfer_samples.nstackwords
	.set	_i.beclear_if._chan_yield.transfer_samples.maxcores,($D __interface_client_call_y.maxcores ? __interface_client_call_y.maxcores $: _i.beclear_if._client_call_y.max.maxcores) $M ($D __interface_wait_and_yield.maxcores ? __interface_wait_and_yield.maxcores $: _i.beclear_if._client_call_y.max.maxcores) $M 1
	.globl	_i.beclear_if._chan_yield.transfer_samples.maxcores
	.weak	_i.beclear_if._chan_yield.transfer_samples.maxcores
	.set	_i.beclear_if._chan_yield.transfer_samples.maxtimers,($D __interface_client_call_y.maxtimers ? __interface_client_call_y.maxtimers $: _i.beclear_if._client_call_y.max.maxtimers) $M ($D __interface_wait_and_yield.maxtimers ? __interface_wait_and_yield.maxtimers $: _i.beclear_if._client_call_y.max.maxtimers) $M 0
	.globl	_i.beclear_if._chan_yield.transfer_samples.maxtimers
	.weak	_i.beclear_if._chan_yield.transfer_samples.maxtimers
	.set	_i.beclear_if._chan_yield.transfer_samples.maxchanends,(1 + ($D __interface_client_call_y.maxchanends ? __interface_client_call_y.maxchanends $: _i.beclear_if._client_call_y.max.maxchanends)) $M (1 + ($D __interface_wait_and_yield.maxchanends ? __interface_wait_and_yield.maxchanends $: _i.beclear_if._client_call_y.max.maxchanends)) $M 1
	.globl	_i.beclear_if._chan_yield.transfer_samples.maxchanends
	.weak	_i.beclear_if._chan_yield.transfer_samples.maxchanends
.Ltmp67:
	.size	_i.beclear_if._chan_yield.transfer_samples, .Ltmp67-_i.beclear_if._chan_yield.transfer_samples
	.cfi_endproc

	.weak	_i.beclear_if._chan_yield.swap_buffers
	.align	4
	.type	_i.beclear_if._chan_yield.swap_buffers,@function
	.cc_top _i.beclear_if._chan_yield.swap_buffers.function,_i.beclear_if._chan_yield.swap_buffers
_i.beclear_if._chan_yield.swap_buffers: # @_i.beclear_if._chan_yield.swap_buffers
	.cfi_startproc
	.issue_mode dual
# BB#0:                                 # %allocas
	{
		nop
		dualentsp 4
	}
.Ltmp68:
	.cfi_def_cfa_offset 16
.Ltmp69:
	.cfi_offset 15, 0
	std r5, r4, sp[1]               # 4-byte Folded Spill
.Ltmp70:
	.cfi_offset 4, -8
.Ltmp71:
	.cfi_offset 5, -4
	#DEBUG_VALUE: _i.beclear_if._chan_yield.swap_buffers:s <- R0
	{
		getr r4, 2
		ldw r1, r0[0]
	}
	{
		setd res[r4], r1
		nop
	}
	{
		out res[r4], r4
		nop
	}
	{
		outct res[r4], 2
		ldw r5, r0[1]
	}
	{
		mov r0, r4
		mov r1, r5
	}
	bl __interface_wait_and_yield
	{
		ldc r1, 0
		mov r0, r4
	}
	{
		mov r2, r5
		nop
	}
	bl __interface_client_call_y
	{
		chkct res[r4], 1
		nop
	}
	{
		freer res[r4]
		nop
	}
	ldd r5, r4, sp[1]               # 4-byte Folded Reload
	{
		nop
		retsp 4
	}
	# RETURN_REG_HOLDER
	.cc_bottom _i.beclear_if._chan_yield.swap_buffers.function
	.set	_i.beclear_if._chan_yield.swap_buffers.nstackwords,((($D __interface_wait_and_yield.nstackwords ? __interface_wait_and_yield.nstackwords $: _i.beclear_if._client_call_y.max.nstackwords) $M _i.beclear_if._client_call_y.max.nstackwords $M ($D __interface_client_call_y.nstackwords ? __interface_client_call_y.nstackwords $: _i.beclear_if._client_call_y.max.nstackwords)) + 4)
	.globl	_i.beclear_if._chan_yield.swap_buffers.nstackwords
	.weak	_i.beclear_if._chan_yield.swap_buffers.nstackwords
	.set	_i.beclear_if._chan_yield.swap_buffers.maxcores,($D __interface_client_call_y.maxcores ? __interface_client_call_y.maxcores $: _i.beclear_if._client_call_y.max.maxcores) $M ($D __interface_wait_and_yield.maxcores ? __interface_wait_and_yield.maxcores $: _i.beclear_if._client_call_y.max.maxcores) $M 1
	.globl	_i.beclear_if._chan_yield.swap_buffers.maxcores
	.weak	_i.beclear_if._chan_yield.swap_buffers.maxcores
	.set	_i.beclear_if._chan_yield.swap_buffers.maxtimers,($D __interface_client_call_y.maxtimers ? __interface_client_call_y.maxtimers $: _i.beclear_if._client_call_y.max.maxtimers) $M ($D __interface_wait_and_yield.maxtimers ? __interface_wait_and_yield.maxtimers $: _i.beclear_if._client_call_y.max.maxtimers) $M 0
	.globl	_i.beclear_if._chan_yield.swap_buffers.maxtimers
	.weak	_i.beclear_if._chan_yield.swap_buffers.maxtimers
	.set	_i.beclear_if._chan_yield.swap_buffers.maxchanends,(1 + ($D __interface_client_call_y.maxchanends ? __interface_client_call_y.maxchanends $: _i.beclear_if._client_call_y.max.maxchanends)) $M (1 + ($D __interface_wait_and_yield.maxchanends ? __interface_wait_and_yield.maxchanends $: _i.beclear_if._client_call_y.max.maxchanends)) $M 1
	.globl	_i.beclear_if._chan_yield.swap_buffers.maxchanends
	.weak	_i.beclear_if._chan_yield.swap_buffers.maxchanends
.Ltmp72:
	.size	_i.beclear_if._chan_yield.swap_buffers, .Ltmp72-_i.beclear_if._chan_yield.swap_buffers
	.cfi_endproc

	.weak	_i.audManage_if._chan.transfer_samples
	.align	4
	.type	_i.audManage_if._chan.transfer_samples,@function
	.cc_top _i.audManage_if._chan.transfer_samples.function,_i.audManage_if._chan.transfer_samples
_i.audManage_if._chan.transfer_samples: # @_i.audManage_if._chan.transfer_samples
	.cfi_startproc
	.issue_mode dual
# BB#0:                                 # %allocas
	{
		nop
		dualentsp 14
	}
.Ltmp73:
	.cfi_def_cfa_offset 56
.Ltmp74:
	.cfi_offset 15, 0
	std r5, r4, sp[3]               # 4-byte Folded Spill
.Ltmp75:
	.cfi_offset 4, -32
.Ltmp76:
	.cfi_offset 5, -28
	std r7, r6, sp[4]               # 4-byte Folded Spill
.Ltmp77:
	.cfi_offset 6, -24
.Ltmp78:
	.cfi_offset 7, -20
	std r9, r8, sp[5]               # 4-byte Folded Spill
.Ltmp79:
	.cfi_offset 8, -16
.Ltmp80:
	.cfi_offset 9, -12
	{
		nop
		stw r10, sp[12]
	}
.Ltmp81:
	.cfi_offset 10, -8
	#DEBUG_VALUE: _i.audManage_if._chan.transfer_samples:dest <- R0
	#DEBUG_VALUE: _i.audManage_if._chan.transfer_samples:param1 <- R1
	#DEBUG_VALUE: _i.audManage_if._chan.transfer_samples:param2 <- R2
	#DEBUG_VALUE: _i.audManage_if._chan.transfer_samples:param3 <- R3
	#DEBUG_VALUE: _i.audManage_if._chan.transfer_samples:param4 <- [SP+60]
	#DEBUG_VALUE: _i.audManage_if._chan.transfer_samples:param3 <- [SP+4]
	#DEBUG_VALUE: _i.audManage_if._chan.transfer_samples:param2 <- R6
	{
		mov r6, r2
		stw r3, sp[1]
	}
	{
		mov r7, r1
		nop
	}
	#DEBUG_VALUE: _i.audManage_if._chan.transfer_samples:param1 <- R7
	ldd r10, r9, sp[9]
	ldd r4, r8, sp[8]
	{
		ldc r1, 0
		nop
	}
	{
		nop
		stw r1, sp[4]
	}
	{
		nop
		stw r1, sp[3]
	}
	{
		getr r5, 2
		stw r1, sp[2]
	}
	{
		setd res[r5], r0
		add r0, r5, 1
	}
	{
		out res[r5], r0
		nop
	}
	{
		outct res[r5], 2
		mov r0, r5
	}
	bl __interface_wait_and_yield
	{
		chkct res[r5], 1
		nop
	}
	{
		out res[r5], r8
		stw r7, sp[2]
	}
	{
		out res[r5], r4
		stw r6, sp[3]
	}
	{
		out res[r5], r9
		ldw r0, sp[1]
	}
	{
		out res[r5], r10
		stw r0, sp[4]
	}
	{
		nop
		ldw r0, sp[15]
	}
	{
		outct res[r5], 2
		stw r0, sp[5]
	}
	{
		ldaw r1, sp[2]
		mov r0, r5
	}
	bl __interface_client_call
	{
		chkct res[r5], 1
		nop
	}
	{
		freer res[r5]
		ldw r10, sp[12]
	}
	ldd r9, r8, sp[5]               # 4-byte Folded Reload
	ldd r7, r6, sp[4]               # 4-byte Folded Reload
	ldd r5, r4, sp[3]               # 4-byte Folded Reload
	{
		nop
		retsp 14
	}
	# RETURN_REG_HOLDER
	.cc_bottom _i.audManage_if._chan.transfer_samples.function
	.set	_i.audManage_if._chan.transfer_samples.nstackwords,((_i.audManage_if._client_call_y.max.nstackwords $M ($D __interface_wait_and_yield.nstackwords ? __interface_wait_and_yield.nstackwords $: _i.audManage_if._client_call_y.max.nstackwords) $M __interface_client_call.nstackwords) + 14)
	.globl	_i.audManage_if._chan.transfer_samples.nstackwords
	.weak	_i.audManage_if._chan.transfer_samples.nstackwords
	.set	_i.audManage_if._chan.transfer_samples.maxcores,__interface_client_call.maxcores $M ($D __interface_wait_and_yield.maxcores ? __interface_wait_and_yield.maxcores $: _i.audManage_if._client_call_y.max.maxcores) $M 1
	.globl	_i.audManage_if._chan.transfer_samples.maxcores
	.weak	_i.audManage_if._chan.transfer_samples.maxcores
	.set	_i.audManage_if._chan.transfer_samples.maxtimers,__interface_client_call.maxtimers $M ($D __interface_wait_and_yield.maxtimers ? __interface_wait_and_yield.maxtimers $: _i.audManage_if._client_call_y.max.maxtimers) $M 0
	.globl	_i.audManage_if._chan.transfer_samples.maxtimers
	.weak	_i.audManage_if._chan.transfer_samples.maxtimers
	.set	_i.audManage_if._chan.transfer_samples.maxchanends,(1 + __interface_client_call.maxchanends) $M (1 + ($D __interface_wait_and_yield.maxchanends ? __interface_wait_and_yield.maxchanends $: _i.audManage_if._client_call_y.max.maxchanends)) $M 1
	.globl	_i.audManage_if._chan.transfer_samples.maxchanends
	.weak	_i.audManage_if._chan.transfer_samples.maxchanends
.Ltmp82:
	.size	_i.audManage_if._chan.transfer_samples, .Ltmp82-_i.audManage_if._chan.transfer_samples
	.cfi_endproc

	.weak	_i.audManage_if._chan.transfer_buffers
	.align	4
	.type	_i.audManage_if._chan.transfer_buffers,@function
	.cc_top _i.audManage_if._chan.transfer_buffers.function,_i.audManage_if._chan.transfer_buffers
_i.audManage_if._chan.transfer_buffers: # @_i.audManage_if._chan.transfer_buffers
	.cfi_startproc
	.issue_mode dual
# BB#0:                                 # %allocas
	{
		nop
		dualentsp 8
	}
.Ltmp83:
	.cfi_def_cfa_offset 32
.Ltmp84:
	.cfi_offset 15, 0
	std r5, r4, sp[1]               # 4-byte Folded Spill
.Ltmp85:
	.cfi_offset 4, -24
.Ltmp86:
	.cfi_offset 5, -20
	std r7, r6, sp[2]               # 4-byte Folded Spill
.Ltmp87:
	.cfi_offset 6, -16
.Ltmp88:
	.cfi_offset 7, -12
.Ltmp89:
	.cfi_offset 8, -8
	#DEBUG_VALUE: _i.audManage_if._chan.transfer_buffers:dest <- R0
	#DEBUG_VALUE: _i.audManage_if._chan.transfer_buffers:param1 <- R1
	#DEBUG_VALUE: _i.audManage_if._chan.transfer_buffers:param2 <- R2
	#DEBUG_VALUE: _i.audManage_if._chan.transfer_buffers:param3 <- R3
	#DEBUG_VALUE: _i.audManage_if._chan.transfer_buffers:param4 <- [SP+36]
	#DEBUG_VALUE: _i.audManage_if._chan.transfer_buffers:param3 <- R5
	{
		mov r5, r3
		stw r8, sp[6]
	}
	#DEBUG_VALUE: _i.audManage_if._chan.transfer_buffers:param2 <- R6
	#DEBUG_VALUE: _i.audManage_if._chan.transfer_buffers:param1 <- R7
	{
		mov r6, r2
		mov r7, r1
	}
	{
		getr r4, 2
		ldw r8, sp[9]
	}
	{
		setd res[r4], r0
		nop
	}
	{
		out res[r4], r4
		nop
	}
	{
		outct res[r4], 2
		ldc r1, 0
	}
	{
		mov r0, r4
		nop
	}
	bl __interface_wait_and_yield
	{
		chkct res[r4], 1
		nop
	}
	#APP
	#NO_APP
	{
		out res[r4], r7
		nop
	}
	#APP
	#NO_APP
	{
		out res[r4], r6
		nop
	}
	#APP
	#NO_APP
	{
		out res[r4], r5
		nop
	}
	#APP
	#NO_APP
	{
		out res[r4], r8
		nop
	}
	{
		outct res[r4], 2
		nop
	}
	{
		in r0, res[r4]
		nop
	}
	{
		chkct res[r4], 1
		nop
	}
	{
		freer res[r4]
		ldw r8, sp[6]
	}
	ldd r7, r6, sp[2]               # 4-byte Folded Reload
	ldd r5, r4, sp[1]               # 4-byte Folded Reload
	{
		nop
		retsp 8
	}
	# RETURN_REG_HOLDER
	.cc_bottom _i.audManage_if._chan.transfer_buffers.function
	.set	_i.audManage_if._chan.transfer_buffers.nstackwords,((_i.audManage_if._client_call_y.max.nstackwords $M ($D __interface_wait_and_yield.nstackwords ? __interface_wait_and_yield.nstackwords $: _i.audManage_if._client_call_y.max.nstackwords)) + 8)
	.globl	_i.audManage_if._chan.transfer_buffers.nstackwords
	.weak	_i.audManage_if._chan.transfer_buffers.nstackwords
	.set	_i.audManage_if._chan.transfer_buffers.maxcores,($D __interface_wait_and_yield.maxcores ? __interface_wait_and_yield.maxcores $: _i.audManage_if._client_call_y.max.maxcores) $M 1
	.globl	_i.audManage_if._chan.transfer_buffers.maxcores
	.weak	_i.audManage_if._chan.transfer_buffers.maxcores
	.set	_i.audManage_if._chan.transfer_buffers.maxtimers,($D __interface_wait_and_yield.maxtimers ? __interface_wait_and_yield.maxtimers $: _i.audManage_if._client_call_y.max.maxtimers) $M 0
	.globl	_i.audManage_if._chan.transfer_buffers.maxtimers
	.weak	_i.audManage_if._chan.transfer_buffers.maxtimers
	.set	_i.audManage_if._chan.transfer_buffers.maxchanends,(1 + ($D __interface_wait_and_yield.maxchanends ? __interface_wait_and_yield.maxchanends $: _i.audManage_if._client_call_y.max.maxchanends)) $M 1
	.globl	_i.audManage_if._chan.transfer_buffers.maxchanends
	.weak	_i.audManage_if._chan.transfer_buffers.maxchanends
.Ltmp90:
	.size	_i.audManage_if._chan.transfer_buffers, .Ltmp90-_i.audManage_if._chan.transfer_buffers
	.cfi_endproc

	.weak	_i.audManage_if._chan_yield.transfer_samples
	.align	4
	.type	_i.audManage_if._chan_yield.transfer_samples,@function
	.cc_top _i.audManage_if._chan_yield.transfer_samples.function,_i.audManage_if._chan_yield.transfer_samples
_i.audManage_if._chan_yield.transfer_samples: # @_i.audManage_if._chan_yield.transfer_samples
	.cfi_startproc
	.issue_mode dual
# BB#0:                                 # %allocas
	{
		nop
		dualentsp 16
	}
.Ltmp91:
	.cfi_def_cfa_offset 64
.Ltmp92:
	.cfi_offset 15, 0
	std r5, r4, sp[4]               # 4-byte Folded Spill
.Ltmp93:
	.cfi_offset 4, -32
.Ltmp94:
	.cfi_offset 5, -28
	std r7, r6, sp[5]               # 4-byte Folded Spill
.Ltmp95:
	.cfi_offset 6, -24
.Ltmp96:
	.cfi_offset 7, -20
	std r9, r8, sp[6]               # 4-byte Folded Spill
.Ltmp97:
	.cfi_offset 8, -16
.Ltmp98:
	.cfi_offset 9, -12
	{
		nop
		stw r10, sp[14]
	}
.Ltmp99:
	.cfi_offset 10, -8
	#DEBUG_VALUE: _i.audManage_if._chan_yield.transfer_samples:s <- R0
	#DEBUG_VALUE: _i.audManage_if._chan_yield.transfer_samples:param1 <- R1
	#DEBUG_VALUE: _i.audManage_if._chan_yield.transfer_samples:param2 <- R2
	#DEBUG_VALUE: _i.audManage_if._chan_yield.transfer_samples:param3 <- R3
	#DEBUG_VALUE: _i.audManage_if._chan_yield.transfer_samples:param4 <- [SP+68]
	{
		nop
		stw r3, sp[3]
	}
	#DEBUG_VALUE: _i.audManage_if._chan_yield.transfer_samples:param3 <- [SP+12]
	#DEBUG_VALUE: _i.audManage_if._chan_yield.transfer_samples:param2 <- [SP+8]
	#DEBUG_VALUE: _i.audManage_if._chan_yield.transfer_samples:param1 <- R7
	{
		mov r7, r1
		stw r2, sp[2]
	}
	ldd r10, r9, sp[10]
	ldd r6, r4, sp[9]
	{
		ldc r1, 0
		nop
	}
	{
		nop
		stw r1, sp[6]
	}
	{
		nop
		stw r1, sp[5]
	}
	{
		nop
		stw r1, sp[4]
	}
	{
		getr r5, 2
		ldw r1, r0[0]
	}
	{
		setd res[r5], r1
		add r1, r5, 1
	}
	{
		out res[r5], r1
		nop
	}
	{
		outct res[r5], 2
		ldw r8, r0[1]
	}
	{
		mov r0, r5
		mov r1, r8
	}
	bl __interface_wait_and_yield
	{
		chkct res[r5], 1
		nop
	}
	{
		out res[r5], r4
		stw r7, sp[4]
	}
	{
		out res[r5], r6
		ldw r0, sp[2]
	}
	{
		out res[r5], r9
		stw r0, sp[5]
	}
	{
		nop
		ldw r0, sp[3]
	}
	{
		out res[r5], r10
		stw r0, sp[6]
	}
	{
		nop
		ldw r0, sp[17]
	}
	{
		outct res[r5], 2
		stw r0, sp[7]
	}
	{
		ldaw r1, sp[4]
		mov r0, r5
	}
	{
		mov r2, r8
		nop
	}
	bl __interface_client_call_y
	{
		chkct res[r5], 1
		nop
	}
	{
		freer res[r5]
		ldw r10, sp[14]
	}
	ldd r9, r8, sp[6]               # 4-byte Folded Reload
	ldd r7, r6, sp[5]               # 4-byte Folded Reload
	ldd r5, r4, sp[4]               # 4-byte Folded Reload
	{
		nop
		retsp 16
	}
	# RETURN_REG_HOLDER
	.cc_bottom _i.audManage_if._chan_yield.transfer_samples.function
	.set	_i.audManage_if._chan_yield.transfer_samples.nstackwords,((($D __interface_wait_and_yield.nstackwords ? __interface_wait_and_yield.nstackwords $: _i.audManage_if._client_call_y.max.nstackwords) $M _i.audManage_if._client_call_y.max.nstackwords $M ($D __interface_client_call_y.nstackwords ? __interface_client_call_y.nstackwords $: _i.audManage_if._client_call_y.max.nstackwords)) + 16)
	.globl	_i.audManage_if._chan_yield.transfer_samples.nstackwords
	.weak	_i.audManage_if._chan_yield.transfer_samples.nstackwords
	.set	_i.audManage_if._chan_yield.transfer_samples.maxcores,($D __interface_client_call_y.maxcores ? __interface_client_call_y.maxcores $: _i.audManage_if._client_call_y.max.maxcores) $M ($D __interface_wait_and_yield.maxcores ? __interface_wait_and_yield.maxcores $: _i.audManage_if._client_call_y.max.maxcores) $M 1
	.globl	_i.audManage_if._chan_yield.transfer_samples.maxcores
	.weak	_i.audManage_if._chan_yield.transfer_samples.maxcores
	.set	_i.audManage_if._chan_yield.transfer_samples.maxtimers,($D __interface_client_call_y.maxtimers ? __interface_client_call_y.maxtimers $: _i.audManage_if._client_call_y.max.maxtimers) $M ($D __interface_wait_and_yield.maxtimers ? __interface_wait_and_yield.maxtimers $: _i.audManage_if._client_call_y.max.maxtimers) $M 0
	.globl	_i.audManage_if._chan_yield.transfer_samples.maxtimers
	.weak	_i.audManage_if._chan_yield.transfer_samples.maxtimers
	.set	_i.audManage_if._chan_yield.transfer_samples.maxchanends,(1 + ($D __interface_client_call_y.maxchanends ? __interface_client_call_y.maxchanends $: _i.audManage_if._client_call_y.max.maxchanends)) $M (1 + ($D __interface_wait_and_yield.maxchanends ? __interface_wait_and_yield.maxchanends $: _i.audManage_if._client_call_y.max.maxchanends)) $M 1
	.globl	_i.audManage_if._chan_yield.transfer_samples.maxchanends
	.weak	_i.audManage_if._chan_yield.transfer_samples.maxchanends
.Ltmp100:
	.size	_i.audManage_if._chan_yield.transfer_samples, .Ltmp100-_i.audManage_if._chan_yield.transfer_samples
	.cfi_endproc

	.weak	_i.audManage_if._chan_yield.transfer_buffers
	.align	4
	.type	_i.audManage_if._chan_yield.transfer_buffers,@function
	.cc_top _i.audManage_if._chan_yield.transfer_buffers.function,_i.audManage_if._chan_yield.transfer_buffers
_i.audManage_if._chan_yield.transfer_buffers: # @_i.audManage_if._chan_yield.transfer_buffers
	.cfi_startproc
	.issue_mode dual
# BB#0:                                 # %allocas
	{
		nop
		dualentsp 8
	}
.Ltmp101:
	.cfi_def_cfa_offset 32
.Ltmp102:
	.cfi_offset 15, 0
	std r5, r4, sp[1]               # 4-byte Folded Spill
.Ltmp103:
	.cfi_offset 4, -24
.Ltmp104:
	.cfi_offset 5, -20
	std r7, r6, sp[2]               # 4-byte Folded Spill
.Ltmp105:
	.cfi_offset 6, -16
.Ltmp106:
	.cfi_offset 7, -12
	std r9, r8, sp[3]               # 4-byte Folded Spill
.Ltmp107:
	.cfi_offset 8, -8
.Ltmp108:
	.cfi_offset 9, -4
	#DEBUG_VALUE: _i.audManage_if._chan_yield.transfer_buffers:s <- R0
	#DEBUG_VALUE: _i.audManage_if._chan_yield.transfer_buffers:param1 <- R1
	#DEBUG_VALUE: _i.audManage_if._chan_yield.transfer_buffers:param2 <- R2
	#DEBUG_VALUE: _i.audManage_if._chan_yield.transfer_buffers:param3 <- R3
	#DEBUG_VALUE: _i.audManage_if._chan_yield.transfer_buffers:param4 <- [SP+36]
	#DEBUG_VALUE: _i.audManage_if._chan_yield.transfer_buffers:param3 <- R5
	#DEBUG_VALUE: _i.audManage_if._chan_yield.transfer_buffers:param2 <- R6
	{
		mov r5, r3
		mov r6, r2
	}
	#DEBUG_VALUE: _i.audManage_if._chan_yield.transfer_buffers:param1 <- R7
	{
		mov r7, r1
		ldw r9, sp[9]
	}
	{
		getr r4, 2
		ldw r1, r0[0]
	}
	{
		setd res[r4], r1
		nop
	}
	{
		out res[r4], r4
		nop
	}
	{
		outct res[r4], 2
		ldw r8, r0[1]
	}
	{
		mov r0, r4
		mov r1, r8
	}
	bl __interface_wait_and_yield
	{
		chkct res[r4], 1
		nop
	}
	#APP
	#NO_APP
	{
		out res[r4], r7
		nop
	}
	#APP
	#NO_APP
	{
		out res[r4], r6
		nop
	}
	#APP
	#NO_APP
	{
		out res[r4], r5
		nop
	}
	#APP
	#NO_APP
	{
		out res[r4], r9
		nop
	}
	{
		outct res[r4], 2
		ldc r1, 0
	}
	{
		mov r0, r4
		mov r2, r8
	}
	bl __interface_client_call_y
	{
		chkct res[r4], 1
		nop
	}
	{
		freer res[r4]
		nop
	}
	ldd r9, r8, sp[3]               # 4-byte Folded Reload
	ldd r7, r6, sp[2]               # 4-byte Folded Reload
	ldd r5, r4, sp[1]               # 4-byte Folded Reload
	{
		nop
		retsp 8
	}
	# RETURN_REG_HOLDER
	.cc_bottom _i.audManage_if._chan_yield.transfer_buffers.function
	.set	_i.audManage_if._chan_yield.transfer_buffers.nstackwords,((($D __interface_wait_and_yield.nstackwords ? __interface_wait_and_yield.nstackwords $: _i.audManage_if._client_call_y.max.nstackwords) $M _i.audManage_if._client_call_y.max.nstackwords $M ($D __interface_client_call_y.nstackwords ? __interface_client_call_y.nstackwords $: _i.audManage_if._client_call_y.max.nstackwords)) + 8)
	.globl	_i.audManage_if._chan_yield.transfer_buffers.nstackwords
	.weak	_i.audManage_if._chan_yield.transfer_buffers.nstackwords
	.set	_i.audManage_if._chan_yield.transfer_buffers.maxcores,($D __interface_client_call_y.maxcores ? __interface_client_call_y.maxcores $: _i.audManage_if._client_call_y.max.maxcores) $M ($D __interface_wait_and_yield.maxcores ? __interface_wait_and_yield.maxcores $: _i.audManage_if._client_call_y.max.maxcores) $M 1
	.globl	_i.audManage_if._chan_yield.transfer_buffers.maxcores
	.weak	_i.audManage_if._chan_yield.transfer_buffers.maxcores
	.set	_i.audManage_if._chan_yield.transfer_buffers.maxtimers,($D __interface_client_call_y.maxtimers ? __interface_client_call_y.maxtimers $: _i.audManage_if._client_call_y.max.maxtimers) $M ($D __interface_wait_and_yield.maxtimers ? __interface_wait_and_yield.maxtimers $: _i.audManage_if._client_call_y.max.maxtimers) $M 0
	.globl	_i.audManage_if._chan_yield.transfer_buffers.maxtimers
	.weak	_i.audManage_if._chan_yield.transfer_buffers.maxtimers
	.set	_i.audManage_if._chan_yield.transfer_buffers.maxchanends,(1 + ($D __interface_client_call_y.maxchanends ? __interface_client_call_y.maxchanends $: _i.audManage_if._client_call_y.max.maxchanends)) $M (1 + ($D __interface_wait_and_yield.maxchanends ? __interface_wait_and_yield.maxchanends $: _i.audManage_if._client_call_y.max.maxchanends)) $M 1
	.globl	_i.audManage_if._chan_yield.transfer_buffers.maxchanends
	.weak	_i.audManage_if._chan_yield.transfer_buffers.maxchanends
.Ltmp109:
	.size	_i.audManage_if._chan_yield.transfer_buffers, .Ltmp109-_i.audManage_if._chan_yield.transfer_buffers
	.cfi_endproc

	.weak	_i.keyword_if._chan.buffer_ready
	.align	4
	.type	_i.keyword_if._chan.buffer_ready,@function
	.cc_top _i.keyword_if._chan.buffer_ready.function,_i.keyword_if._chan.buffer_ready
_i.keyword_if._chan.buffer_ready:       # @_i.keyword_if._chan.buffer_ready
	.cfi_startproc
	.issue_mode dual
# BB#0:                                 # %allocas
	#DEBUG_VALUE: _i.keyword_if._chan.buffer_ready:dest <- R0
	#DEBUG_VALUE: _i.keyword_if._chan.buffer_ready:param1 <- R1
	{
		getr r2, 2
		dualentsp 0
	}
	{
		setd res[r2], r0
		nop
	}
	{
		out res[r2], r2
		nop
	}
	{
		outct res[r2], 2
		nop
	}
	{
		chkct res[r2], 1
		nop
	}
	{
		out res[r2], r1
		nop
	}
	{
		outct res[r2], 2
		nop
	}
	{
		in r0, res[r2]
		nop
	}
	{
		in r0, res[r2]
		nop
	}
	{
		chkct res[r2], 1
		nop
	}
	{
		freer res[r2]
		retsp 0
	}
	# RETURN_REG_HOLDER
	.cc_bottom _i.keyword_if._chan.buffer_ready.function
	.set	_i.keyword_if._chan.buffer_ready.nstackwords,0
	.globl	_i.keyword_if._chan.buffer_ready.nstackwords
	.weak	_i.keyword_if._chan.buffer_ready.nstackwords
	.set	_i.keyword_if._chan.buffer_ready.maxcores,1
	.globl	_i.keyword_if._chan.buffer_ready.maxcores
	.weak	_i.keyword_if._chan.buffer_ready.maxcores
	.set	_i.keyword_if._chan.buffer_ready.maxtimers,0
	.globl	_i.keyword_if._chan.buffer_ready.maxtimers
	.weak	_i.keyword_if._chan.buffer_ready.maxtimers
	.set	_i.keyword_if._chan.buffer_ready.maxchanends,1
	.globl	_i.keyword_if._chan.buffer_ready.maxchanends
	.weak	_i.keyword_if._chan.buffer_ready.maxchanends
.Ltmp110:
	.size	_i.keyword_if._chan.buffer_ready, .Ltmp110-_i.keyword_if._chan.buffer_ready
	.cfi_endproc

	.weak	_i.keyword_if._chan_yield.buffer_ready
	.align	4
	.type	_i.keyword_if._chan_yield.buffer_ready,@function
	.cc_top _i.keyword_if._chan_yield.buffer_ready.function,_i.keyword_if._chan_yield.buffer_ready
_i.keyword_if._chan_yield.buffer_ready: # @_i.keyword_if._chan_yield.buffer_ready
	.cfi_startproc
	.issue_mode dual
# BB#0:                                 # %allocas
	{
		nop
		dualentsp 4
	}
.Ltmp111:
	.cfi_def_cfa_offset 16
.Ltmp112:
	.cfi_offset 15, 0
	{
		nop
		stw r4, sp[2]
	}
.Ltmp113:
	.cfi_offset 4, -8
	#DEBUG_VALUE: _i.keyword_if._chan_yield.buffer_ready:s <- R0
	#DEBUG_VALUE: _i.keyword_if._chan_yield.buffer_ready:param1 <- R1
	{
		getr r4, 2
		ldw r2, r0[0]
	}
	{
		setd res[r4], r2
		nop
	}
	{
		out res[r4], r4
		nop
	}
	{
		outct res[r4], 2
		nop
	}
	{
		chkct res[r4], 1
		nop
	}
	{
		out res[r4], r1
		nop
	}
	{
		outct res[r4], 2
		ldw r2, r0[1]
	}
	{
		ldc r1, 0
		mov r0, r4
	}
	bl __interface_client_call_y
	{
		in r0, res[r4]
		nop
	}
	{
		chkct res[r4], 1
		nop
	}
	{
		freer res[r4]
		ldw r4, sp[2]
	}
	{
		nop
		retsp 4
	}
	# RETURN_REG_HOLDER
	.cc_bottom _i.keyword_if._chan_yield.buffer_ready.function
	.set	_i.keyword_if._chan_yield.buffer_ready.nstackwords,((_i.keyword_if._client_call_y.max.nstackwords $M ($D __interface_client_call_y.nstackwords ? __interface_client_call_y.nstackwords $: _i.keyword_if._client_call_y.max.nstackwords)) + 4)
	.globl	_i.keyword_if._chan_yield.buffer_ready.nstackwords
	.weak	_i.keyword_if._chan_yield.buffer_ready.nstackwords
	.set	_i.keyword_if._chan_yield.buffer_ready.maxcores,($D __interface_client_call_y.maxcores ? __interface_client_call_y.maxcores $: _i.keyword_if._client_call_y.max.maxcores) $M 1
	.globl	_i.keyword_if._chan_yield.buffer_ready.maxcores
	.weak	_i.keyword_if._chan_yield.buffer_ready.maxcores
	.set	_i.keyword_if._chan_yield.buffer_ready.maxtimers,($D __interface_client_call_y.maxtimers ? __interface_client_call_y.maxtimers $: _i.keyword_if._client_call_y.max.maxtimers) $M 0
	.globl	_i.keyword_if._chan_yield.buffer_ready.maxtimers
	.weak	_i.keyword_if._chan_yield.buffer_ready.maxtimers
	.set	_i.keyword_if._chan_yield.buffer_ready.maxchanends,(1 + ($D __interface_client_call_y.maxchanends ? __interface_client_call_y.maxchanends $: _i.keyword_if._client_call_y.max.maxchanends)) $M 1
	.globl	_i.keyword_if._chan_yield.buffer_ready.maxchanends
	.weak	_i.keyword_if._chan_yield.buffer_ready.maxchanends
.Ltmp114:
	.size	_i.keyword_if._chan_yield.buffer_ready, .Ltmp114-_i.keyword_if._chan_yield.buffer_ready
	.cfi_endproc

	.weak	_i.i2c_master_if._chan.shutdown
	.align	4
	.type	_i.i2c_master_if._chan.shutdown,@function
	.cc_top _i.i2c_master_if._chan.shutdown.function,_i.i2c_master_if._chan.shutdown
_i.i2c_master_if._chan.shutdown:        # @_i.i2c_master_if._chan.shutdown
	.cfi_startproc
	.issue_mode dual
# BB#0:                                 # %allocas
	{
		nop
		dualentsp 4
	}
.Ltmp115:
	.cfi_def_cfa_offset 16
.Ltmp116:
	.cfi_offset 15, 0
.Ltmp117:
	.cfi_offset 4, -8
	#DEBUG_VALUE: _i.i2c_master_if._chan.shutdown:dest <- R0
	{
		getr r4, 2
		stw r4, sp[2]
	}
	{
		setd res[r4], r0
		add r0, r4, 3
	}
	{
		out res[r4], r0
		nop
	}
	{
		outct res[r4], 2
		ldc r1, 0
	}
	{
		mov r0, r4
		nop
	}
	bl __interface_wait_and_yield
	{
		in r0, res[r4]
		nop
	}
	{
		chkct res[r4], 1
		nop
	}
	{
		freer res[r4]
		ldw r4, sp[2]
	}
	{
		nop
		retsp 4
	}
	# RETURN_REG_HOLDER
	.cc_bottom _i.i2c_master_if._chan.shutdown.function
	.set	_i.i2c_master_if._chan.shutdown.nstackwords,((_i.i2c_master_if._client_call_y.max.nstackwords $M ($D __interface_wait_and_yield.nstackwords ? __interface_wait_and_yield.nstackwords $: _i.i2c_master_if._client_call_y.max.nstackwords)) + 4)
	.globl	_i.i2c_master_if._chan.shutdown.nstackwords
	.weak	_i.i2c_master_if._chan.shutdown.nstackwords
	.set	_i.i2c_master_if._chan.shutdown.maxcores,($D __interface_wait_and_yield.maxcores ? __interface_wait_and_yield.maxcores $: _i.i2c_master_if._client_call_y.max.maxcores) $M 1
	.globl	_i.i2c_master_if._chan.shutdown.maxcores
	.weak	_i.i2c_master_if._chan.shutdown.maxcores
	.set	_i.i2c_master_if._chan.shutdown.maxtimers,($D __interface_wait_and_yield.maxtimers ? __interface_wait_and_yield.maxtimers $: _i.i2c_master_if._client_call_y.max.maxtimers) $M 0
	.globl	_i.i2c_master_if._chan.shutdown.maxtimers
	.weak	_i.i2c_master_if._chan.shutdown.maxtimers
	.set	_i.i2c_master_if._chan.shutdown.maxchanends,(1 + ($D __interface_wait_and_yield.maxchanends ? __interface_wait_and_yield.maxchanends $: _i.i2c_master_if._client_call_y.max.maxchanends)) $M 1
	.globl	_i.i2c_master_if._chan.shutdown.maxchanends
	.weak	_i.i2c_master_if._chan.shutdown.maxchanends
.Ltmp118:
	.size	_i.i2c_master_if._chan.shutdown, .Ltmp118-_i.i2c_master_if._chan.shutdown
	.cfi_endproc

	.weak	_i.i2c_master_if._chan.send_stop_bit
	.align	4
	.type	_i.i2c_master_if._chan.send_stop_bit,@function
	.cc_top _i.i2c_master_if._chan.send_stop_bit.function,_i.i2c_master_if._chan.send_stop_bit
_i.i2c_master_if._chan.send_stop_bit:   # @_i.i2c_master_if._chan.send_stop_bit
	.cfi_startproc
	.issue_mode dual
# BB#0:                                 # %allocas
	{
		nop
		dualentsp 4
	}
.Ltmp119:
	.cfi_def_cfa_offset 16
.Ltmp120:
	.cfi_offset 15, 0
.Ltmp121:
	.cfi_offset 4, -8
	#DEBUG_VALUE: _i.i2c_master_if._chan.send_stop_bit:dest <- R0
	{
		getr r4, 2
		stw r4, sp[2]
	}
	{
		setd res[r4], r0
		add r0, r4, 2
	}
	{
		out res[r4], r0
		nop
	}
	{
		outct res[r4], 2
		ldc r1, 0
	}
	{
		mov r0, r4
		nop
	}
	bl __interface_wait_and_yield
	{
		in r0, res[r4]
		nop
	}
	{
		chkct res[r4], 1
		nop
	}
	{
		freer res[r4]
		ldw r4, sp[2]
	}
	{
		nop
		retsp 4
	}
	# RETURN_REG_HOLDER
	.cc_bottom _i.i2c_master_if._chan.send_stop_bit.function
	.set	_i.i2c_master_if._chan.send_stop_bit.nstackwords,((_i.i2c_master_if._client_call_y.max.nstackwords $M ($D __interface_wait_and_yield.nstackwords ? __interface_wait_and_yield.nstackwords $: _i.i2c_master_if._client_call_y.max.nstackwords)) + 4)
	.globl	_i.i2c_master_if._chan.send_stop_bit.nstackwords
	.weak	_i.i2c_master_if._chan.send_stop_bit.nstackwords
	.set	_i.i2c_master_if._chan.send_stop_bit.maxcores,($D __interface_wait_and_yield.maxcores ? __interface_wait_and_yield.maxcores $: _i.i2c_master_if._client_call_y.max.maxcores) $M 1
	.globl	_i.i2c_master_if._chan.send_stop_bit.maxcores
	.weak	_i.i2c_master_if._chan.send_stop_bit.maxcores
	.set	_i.i2c_master_if._chan.send_stop_bit.maxtimers,($D __interface_wait_and_yield.maxtimers ? __interface_wait_and_yield.maxtimers $: _i.i2c_master_if._client_call_y.max.maxtimers) $M 0
	.globl	_i.i2c_master_if._chan.send_stop_bit.maxtimers
	.weak	_i.i2c_master_if._chan.send_stop_bit.maxtimers
	.set	_i.i2c_master_if._chan.send_stop_bit.maxchanends,(1 + ($D __interface_wait_and_yield.maxchanends ? __interface_wait_and_yield.maxchanends $: _i.i2c_master_if._client_call_y.max.maxchanends)) $M 1
	.globl	_i.i2c_master_if._chan.send_stop_bit.maxchanends
	.weak	_i.i2c_master_if._chan.send_stop_bit.maxchanends
.Ltmp122:
	.size	_i.i2c_master_if._chan.send_stop_bit, .Ltmp122-_i.i2c_master_if._chan.send_stop_bit
	.cfi_endproc

	.weak	_i.i2c_master_if._chan.read
	.align	4
	.type	_i.i2c_master_if._chan.read,@function
	.cc_top _i.i2c_master_if._chan.read.function,_i.i2c_master_if._chan.read
_i.i2c_master_if._chan.read:            # @_i.i2c_master_if._chan.read
	.cfi_startproc
	.issue_mode dual
# BB#0:                                 # %allocas
	{
		nop
		dualentsp 8
	}
.Ltmp123:
	.cfi_def_cfa_offset 32
.Ltmp124:
	.cfi_offset 15, 0
	std r5, r4, sp[1]               # 4-byte Folded Spill
.Ltmp125:
	.cfi_offset 4, -24
.Ltmp126:
	.cfi_offset 5, -20
	std r7, r6, sp[2]               # 4-byte Folded Spill
.Ltmp127:
	.cfi_offset 6, -16
.Ltmp128:
	.cfi_offset 7, -12
.Ltmp129:
	.cfi_offset 8, -8
	#DEBUG_VALUE: _i.i2c_master_if._chan.read:dest <- R0
	#DEBUG_VALUE: _i.i2c_master_if._chan.read:param1 <- R1
	#DEBUG_VALUE: _i.i2c_master_if._chan.read:param2 <- R2
	#DEBUG_VALUE: _i.i2c_master_if._chan.read:param3 <- R3
	#DEBUG_VALUE: _i.i2c_master_if._chan.read:param4 <- [SP+36]
	#DEBUG_VALUE: _i.i2c_master_if._chan.read:param3 <- R5
	{
		mov r5, r3
		stw r8, sp[6]
	}
	#DEBUG_VALUE: _i.i2c_master_if._chan.read:param2 <- R6
	#DEBUG_VALUE: _i.i2c_master_if._chan.read:param1 <- R7
	{
		mov r6, r2
		mov r7, r1
	}
	{
		getr r4, 2
		ldw r8, sp[9]
	}
	{
		setd res[r4], r0
		add r0, r4, 1
	}
	{
		out res[r4], r0
		nop
	}
	{
		outct res[r4], 2
		ldc r1, 0
	}
	{
		mov r0, r4
		nop
	}
	bl __interface_wait_and_yield
	{
		chkct res[r4], 1
		nop
	}
	{
		outt res[r4], r7
		stw r6, sp[1]
	}
	{
		out res[r4], r5
		nop
	}
	{
		out res[r4], r8
		nop
	}
	{
		outct res[r4], 2
		ldaw r1, sp[1]
	}
	{
		mov r0, r4
		nop
	}
	bl __interface_client_call
	{
		in r0, res[r4]
		nop
	}
	{
		chkct res[r4], 1
		nop
	}
	{
		freer res[r4]
		ldw r8, sp[6]
	}
	ldd r7, r6, sp[2]               # 4-byte Folded Reload
	ldd r5, r4, sp[1]               # 4-byte Folded Reload
	{
		nop
		retsp 8
	}
	# RETURN_REG_HOLDER
	.cc_bottom _i.i2c_master_if._chan.read.function
	.set	_i.i2c_master_if._chan.read.nstackwords,((_i.i2c_master_if._client_call_y.max.nstackwords $M ($D __interface_wait_and_yield.nstackwords ? __interface_wait_and_yield.nstackwords $: _i.i2c_master_if._client_call_y.max.nstackwords) $M __interface_client_call.nstackwords) + 8)
	.globl	_i.i2c_master_if._chan.read.nstackwords
	.weak	_i.i2c_master_if._chan.read.nstackwords
	.set	_i.i2c_master_if._chan.read.maxcores,__interface_client_call.maxcores $M ($D __interface_wait_and_yield.maxcores ? __interface_wait_and_yield.maxcores $: _i.i2c_master_if._client_call_y.max.maxcores) $M 1
	.globl	_i.i2c_master_if._chan.read.maxcores
	.weak	_i.i2c_master_if._chan.read.maxcores
	.set	_i.i2c_master_if._chan.read.maxtimers,__interface_client_call.maxtimers $M ($D __interface_wait_and_yield.maxtimers ? __interface_wait_and_yield.maxtimers $: _i.i2c_master_if._client_call_y.max.maxtimers) $M 0
	.globl	_i.i2c_master_if._chan.read.maxtimers
	.weak	_i.i2c_master_if._chan.read.maxtimers
	.set	_i.i2c_master_if._chan.read.maxchanends,(1 + __interface_client_call.maxchanends) $M (1 + ($D __interface_wait_and_yield.maxchanends ? __interface_wait_and_yield.maxchanends $: _i.i2c_master_if._client_call_y.max.maxchanends)) $M 1
	.globl	_i.i2c_master_if._chan.read.maxchanends
	.weak	_i.i2c_master_if._chan.read.maxchanends
.Ltmp130:
	.size	_i.i2c_master_if._chan.read, .Ltmp130-_i.i2c_master_if._chan.read
	.cfi_endproc

	.weak	_i.i2c_master_if._chan.write
	.align	4
	.type	_i.i2c_master_if._chan.write,@function
	.cc_top _i.i2c_master_if._chan.write.function,_i.i2c_master_if._chan.write
_i.i2c_master_if._chan.write:           # @_i.i2c_master_if._chan.write
	.cfi_startproc
	.issue_mode dual
# BB#0:                                 # %allocas
	{
		nop
		dualentsp 8
	}
.Ltmp131:
	.cfi_def_cfa_offset 32
.Ltmp132:
	.cfi_offset 15, 0
	std r5, r4, sp[1]               # 4-byte Folded Spill
.Ltmp133:
	.cfi_offset 4, -24
.Ltmp134:
	.cfi_offset 5, -20
	std r7, r6, sp[2]               # 4-byte Folded Spill
.Ltmp135:
	.cfi_offset 6, -16
.Ltmp136:
	.cfi_offset 7, -12
	std r9, r8, sp[3]               # 4-byte Folded Spill
.Ltmp137:
	.cfi_offset 8, -8
.Ltmp138:
	.cfi_offset 9, -4
	#DEBUG_VALUE: _i.i2c_master_if._chan.write:dest <- R0
	#DEBUG_VALUE: _i.i2c_master_if._chan.write:param1 <- R1
	#DEBUG_VALUE: _i.i2c_master_if._chan.write:param2 <- R2
	#DEBUG_VALUE: _i.i2c_master_if._chan.write:param3 <- R3
	#DEBUG_VALUE: _i.i2c_master_if._chan.write:param4 <- [SP+36]
	#DEBUG_VALUE: _i.i2c_master_if._chan.write:param5 <- [SP+40]
	#DEBUG_VALUE: _i.i2c_master_if._chan.write:param3 <- R5
	#DEBUG_VALUE: _i.i2c_master_if._chan.write:param2 <- R6
	{
		mov r5, r3
		mov r6, r2
	}
	#DEBUG_VALUE: _i.i2c_master_if._chan.write:param1 <- R7
	{
		mov r7, r1
		ldw r9, sp[10]
	}
	{
		getr r4, 2
		ldw r8, sp[9]
	}
	{
		setd res[r4], r0
		nop
	}
	{
		out res[r4], r4
		nop
	}
	{
		outct res[r4], 2
		ldc r1, 0
	}
	{
		mov r0, r4
		nop
	}
	bl __interface_wait_and_yield
	{
		chkct res[r4], 1
		nop
	}
	{
		outt res[r4], r7
		stw r6, sp[1]
	}
	{
		out res[r4], r5
		ldw r0, r8[0]
	}
	{
		out res[r4], r0
		nop
	}
	{
		out res[r4], r9
		nop
	}
	{
		outct res[r4], 2
		ldaw r1, sp[1]
	}
	{
		mov r0, r4
		nop
	}
	bl __interface_client_call
	{
		in r0, res[r4]
		nop
	}
	{
		in r0, res[r4]
		stw r0, r8[0]
	}
	{
		chkct res[r4], 1
		nop
	}
	{
		freer res[r4]
		nop
	}
	ldd r9, r8, sp[3]               # 4-byte Folded Reload
	ldd r7, r6, sp[2]               # 4-byte Folded Reload
	ldd r5, r4, sp[1]               # 4-byte Folded Reload
	{
		nop
		retsp 8
	}
	# RETURN_REG_HOLDER
	.cc_bottom _i.i2c_master_if._chan.write.function
	.set	_i.i2c_master_if._chan.write.nstackwords,((_i.i2c_master_if._client_call_y.max.nstackwords $M ($D __interface_wait_and_yield.nstackwords ? __interface_wait_and_yield.nstackwords $: _i.i2c_master_if._client_call_y.max.nstackwords) $M __interface_client_call.nstackwords) + 8)
	.globl	_i.i2c_master_if._chan.write.nstackwords
	.weak	_i.i2c_master_if._chan.write.nstackwords
	.set	_i.i2c_master_if._chan.write.maxcores,__interface_client_call.maxcores $M ($D __interface_wait_and_yield.maxcores ? __interface_wait_and_yield.maxcores $: _i.i2c_master_if._client_call_y.max.maxcores) $M 1
	.globl	_i.i2c_master_if._chan.write.maxcores
	.weak	_i.i2c_master_if._chan.write.maxcores
	.set	_i.i2c_master_if._chan.write.maxtimers,__interface_client_call.maxtimers $M ($D __interface_wait_and_yield.maxtimers ? __interface_wait_and_yield.maxtimers $: _i.i2c_master_if._client_call_y.max.maxtimers) $M 0
	.globl	_i.i2c_master_if._chan.write.maxtimers
	.weak	_i.i2c_master_if._chan.write.maxtimers
	.set	_i.i2c_master_if._chan.write.maxchanends,(1 + __interface_client_call.maxchanends) $M (1 + ($D __interface_wait_and_yield.maxchanends ? __interface_wait_and_yield.maxchanends $: _i.i2c_master_if._client_call_y.max.maxchanends)) $M 1
	.globl	_i.i2c_master_if._chan.write.maxchanends
	.weak	_i.i2c_master_if._chan.write.maxchanends
.Ltmp139:
	.size	_i.i2c_master_if._chan.write, .Ltmp139-_i.i2c_master_if._chan.write
	.cfi_endproc

	.weak	_i.i2c_master_if._chan_yield.shutdown
	.align	4
	.type	_i.i2c_master_if._chan_yield.shutdown,@function
	.cc_top _i.i2c_master_if._chan_yield.shutdown.function,_i.i2c_master_if._chan_yield.shutdown
_i.i2c_master_if._chan_yield.shutdown:  # @_i.i2c_master_if._chan_yield.shutdown
	.cfi_startproc
	.issue_mode dual
# BB#0:                                 # %allocas
	{
		nop
		dualentsp 4
	}
.Ltmp140:
	.cfi_def_cfa_offset 16
.Ltmp141:
	.cfi_offset 15, 0
	std r5, r4, sp[1]               # 4-byte Folded Spill
.Ltmp142:
	.cfi_offset 4, -8
.Ltmp143:
	.cfi_offset 5, -4
	#DEBUG_VALUE: _i.i2c_master_if._chan_yield.shutdown:s <- R0
	{
		getr r4, 2
		ldw r1, r0[0]
	}
	{
		setd res[r4], r1
		add r1, r4, 3
	}
	{
		out res[r4], r1
		nop
	}
	{
		outct res[r4], 2
		ldw r5, r0[1]
	}
	{
		mov r0, r4
		mov r1, r5
	}
	bl __interface_wait_and_yield
	{
		ldc r1, 0
		mov r0, r4
	}
	{
		mov r2, r5
		nop
	}
	bl __interface_client_call_y
	{
		chkct res[r4], 1
		nop
	}
	{
		freer res[r4]
		nop
	}
	ldd r5, r4, sp[1]               # 4-byte Folded Reload
	{
		nop
		retsp 4
	}
	# RETURN_REG_HOLDER
	.cc_bottom _i.i2c_master_if._chan_yield.shutdown.function
	.set	_i.i2c_master_if._chan_yield.shutdown.nstackwords,((($D __interface_wait_and_yield.nstackwords ? __interface_wait_and_yield.nstackwords $: _i.i2c_master_if._client_call_y.max.nstackwords) $M _i.i2c_master_if._client_call_y.max.nstackwords $M ($D __interface_client_call_y.nstackwords ? __interface_client_call_y.nstackwords $: _i.i2c_master_if._client_call_y.max.nstackwords)) + 4)
	.globl	_i.i2c_master_if._chan_yield.shutdown.nstackwords
	.weak	_i.i2c_master_if._chan_yield.shutdown.nstackwords
	.set	_i.i2c_master_if._chan_yield.shutdown.maxcores,($D __interface_client_call_y.maxcores ? __interface_client_call_y.maxcores $: _i.i2c_master_if._client_call_y.max.maxcores) $M ($D __interface_wait_and_yield.maxcores ? __interface_wait_and_yield.maxcores $: _i.i2c_master_if._client_call_y.max.maxcores) $M 1
	.globl	_i.i2c_master_if._chan_yield.shutdown.maxcores
	.weak	_i.i2c_master_if._chan_yield.shutdown.maxcores
	.set	_i.i2c_master_if._chan_yield.shutdown.maxtimers,($D __interface_client_call_y.maxtimers ? __interface_client_call_y.maxtimers $: _i.i2c_master_if._client_call_y.max.maxtimers) $M ($D __interface_wait_and_yield.maxtimers ? __interface_wait_and_yield.maxtimers $: _i.i2c_master_if._client_call_y.max.maxtimers) $M 0
	.globl	_i.i2c_master_if._chan_yield.shutdown.maxtimers
	.weak	_i.i2c_master_if._chan_yield.shutdown.maxtimers
	.set	_i.i2c_master_if._chan_yield.shutdown.maxchanends,(1 + ($D __interface_client_call_y.maxchanends ? __interface_client_call_y.maxchanends $: _i.i2c_master_if._client_call_y.max.maxchanends)) $M (1 + ($D __interface_wait_and_yield.maxchanends ? __interface_wait_and_yield.maxchanends $: _i.i2c_master_if._client_call_y.max.maxchanends)) $M 1
	.globl	_i.i2c_master_if._chan_yield.shutdown.maxchanends
	.weak	_i.i2c_master_if._chan_yield.shutdown.maxchanends
.Ltmp144:
	.size	_i.i2c_master_if._chan_yield.shutdown, .Ltmp144-_i.i2c_master_if._chan_yield.shutdown
	.cfi_endproc

	.weak	_i.i2c_master_if._chan_yield.send_stop_bit
	.align	4
	.type	_i.i2c_master_if._chan_yield.send_stop_bit,@function
	.cc_top _i.i2c_master_if._chan_yield.send_stop_bit.function,_i.i2c_master_if._chan_yield.send_stop_bit
_i.i2c_master_if._chan_yield.send_stop_bit: # @_i.i2c_master_if._chan_yield.send_stop_bit
	.cfi_startproc
	.issue_mode dual
# BB#0:                                 # %allocas
	{
		nop
		dualentsp 4
	}
.Ltmp145:
	.cfi_def_cfa_offset 16
.Ltmp146:
	.cfi_offset 15, 0
	std r5, r4, sp[1]               # 4-byte Folded Spill
.Ltmp147:
	.cfi_offset 4, -8
.Ltmp148:
	.cfi_offset 5, -4
	#DEBUG_VALUE: _i.i2c_master_if._chan_yield.send_stop_bit:s <- R0
	{
		getr r4, 2
		ldw r1, r0[0]
	}
	{
		setd res[r4], r1
		add r1, r4, 2
	}
	{
		out res[r4], r1
		nop
	}
	{
		outct res[r4], 2
		ldw r5, r0[1]
	}
	{
		mov r0, r4
		mov r1, r5
	}
	bl __interface_wait_and_yield
	{
		ldc r1, 0
		mov r0, r4
	}
	{
		mov r2, r5
		nop
	}
	bl __interface_client_call_y
	{
		chkct res[r4], 1
		nop
	}
	{
		freer res[r4]
		nop
	}
	ldd r5, r4, sp[1]               # 4-byte Folded Reload
	{
		nop
		retsp 4
	}
	# RETURN_REG_HOLDER
	.cc_bottom _i.i2c_master_if._chan_yield.send_stop_bit.function
	.set	_i.i2c_master_if._chan_yield.send_stop_bit.nstackwords,((($D __interface_wait_and_yield.nstackwords ? __interface_wait_and_yield.nstackwords $: _i.i2c_master_if._client_call_y.max.nstackwords) $M _i.i2c_master_if._client_call_y.max.nstackwords $M ($D __interface_client_call_y.nstackwords ? __interface_client_call_y.nstackwords $: _i.i2c_master_if._client_call_y.max.nstackwords)) + 4)
	.globl	_i.i2c_master_if._chan_yield.send_stop_bit.nstackwords
	.weak	_i.i2c_master_if._chan_yield.send_stop_bit.nstackwords
	.set	_i.i2c_master_if._chan_yield.send_stop_bit.maxcores,($D __interface_client_call_y.maxcores ? __interface_client_call_y.maxcores $: _i.i2c_master_if._client_call_y.max.maxcores) $M ($D __interface_wait_and_yield.maxcores ? __interface_wait_and_yield.maxcores $: _i.i2c_master_if._client_call_y.max.maxcores) $M 1
	.globl	_i.i2c_master_if._chan_yield.send_stop_bit.maxcores
	.weak	_i.i2c_master_if._chan_yield.send_stop_bit.maxcores
	.set	_i.i2c_master_if._chan_yield.send_stop_bit.maxtimers,($D __interface_client_call_y.maxtimers ? __interface_client_call_y.maxtimers $: _i.i2c_master_if._client_call_y.max.maxtimers) $M ($D __interface_wait_and_yield.maxtimers ? __interface_wait_and_yield.maxtimers $: _i.i2c_master_if._client_call_y.max.maxtimers) $M 0
	.globl	_i.i2c_master_if._chan_yield.send_stop_bit.maxtimers
	.weak	_i.i2c_master_if._chan_yield.send_stop_bit.maxtimers
	.set	_i.i2c_master_if._chan_yield.send_stop_bit.maxchanends,(1 + ($D __interface_client_call_y.maxchanends ? __interface_client_call_y.maxchanends $: _i.i2c_master_if._client_call_y.max.maxchanends)) $M (1 + ($D __interface_wait_and_yield.maxchanends ? __interface_wait_and_yield.maxchanends $: _i.i2c_master_if._client_call_y.max.maxchanends)) $M 1
	.globl	_i.i2c_master_if._chan_yield.send_stop_bit.maxchanends
	.weak	_i.i2c_master_if._chan_yield.send_stop_bit.maxchanends
.Ltmp149:
	.size	_i.i2c_master_if._chan_yield.send_stop_bit, .Ltmp149-_i.i2c_master_if._chan_yield.send_stop_bit
	.cfi_endproc

	.weak	_i.i2c_master_if._chan_yield.read
	.align	4
	.type	_i.i2c_master_if._chan_yield.read,@function
	.cc_top _i.i2c_master_if._chan_yield.read.function,_i.i2c_master_if._chan_yield.read
_i.i2c_master_if._chan_yield.read:      # @_i.i2c_master_if._chan_yield.read
	.cfi_startproc
	.issue_mode dual
# BB#0:                                 # %allocas
	{
		nop
		dualentsp 8
	}
.Ltmp150:
	.cfi_def_cfa_offset 32
.Ltmp151:
	.cfi_offset 15, 0
	std r5, r4, sp[1]               # 4-byte Folded Spill
.Ltmp152:
	.cfi_offset 4, -24
.Ltmp153:
	.cfi_offset 5, -20
	std r7, r6, sp[2]               # 4-byte Folded Spill
.Ltmp154:
	.cfi_offset 6, -16
.Ltmp155:
	.cfi_offset 7, -12
	std r9, r8, sp[3]               # 4-byte Folded Spill
.Ltmp156:
	.cfi_offset 8, -8
.Ltmp157:
	.cfi_offset 9, -4
	#DEBUG_VALUE: _i.i2c_master_if._chan_yield.read:s <- R0
	#DEBUG_VALUE: _i.i2c_master_if._chan_yield.read:param1 <- R1
	#DEBUG_VALUE: _i.i2c_master_if._chan_yield.read:param2 <- R2
	#DEBUG_VALUE: _i.i2c_master_if._chan_yield.read:param3 <- R3
	#DEBUG_VALUE: _i.i2c_master_if._chan_yield.read:param4 <- [SP+36]
	#DEBUG_VALUE: _i.i2c_master_if._chan_yield.read:param3 <- R5
	#DEBUG_VALUE: _i.i2c_master_if._chan_yield.read:param2 <- R6
	{
		mov r5, r3
		mov r6, r2
	}
	#DEBUG_VALUE: _i.i2c_master_if._chan_yield.read:param1 <- R7
	{
		mov r7, r1
		ldw r9, sp[9]
	}
	{
		getr r4, 2
		ldw r1, r0[0]
	}
	{
		setd res[r4], r1
		add r1, r4, 1
	}
	{
		out res[r4], r1
		nop
	}
	{
		outct res[r4], 2
		ldw r8, r0[1]
	}
	{
		mov r0, r4
		mov r1, r8
	}
	bl __interface_wait_and_yield
	{
		chkct res[r4], 1
		nop
	}
	{
		outt res[r4], r7
		stw r6, sp[1]
	}
	{
		out res[r4], r5
		nop
	}
	{
		out res[r4], r9
		nop
	}
	{
		outct res[r4], 2
		ldaw r1, sp[1]
	}
	{
		mov r0, r4
		mov r2, r8
	}
	bl __interface_client_call_y
	{
		in r0, res[r4]
		nop
	}
	{
		chkct res[r4], 1
		nop
	}
	{
		freer res[r4]
		nop
	}
	ldd r9, r8, sp[3]               # 4-byte Folded Reload
	ldd r7, r6, sp[2]               # 4-byte Folded Reload
	ldd r5, r4, sp[1]               # 4-byte Folded Reload
	{
		nop
		retsp 8
	}
	# RETURN_REG_HOLDER
	.cc_bottom _i.i2c_master_if._chan_yield.read.function
	.set	_i.i2c_master_if._chan_yield.read.nstackwords,((($D __interface_wait_and_yield.nstackwords ? __interface_wait_and_yield.nstackwords $: _i.i2c_master_if._client_call_y.max.nstackwords) $M _i.i2c_master_if._client_call_y.max.nstackwords $M ($D __interface_client_call_y.nstackwords ? __interface_client_call_y.nstackwords $: _i.i2c_master_if._client_call_y.max.nstackwords)) + 8)
	.globl	_i.i2c_master_if._chan_yield.read.nstackwords
	.weak	_i.i2c_master_if._chan_yield.read.nstackwords
	.set	_i.i2c_master_if._chan_yield.read.maxcores,($D __interface_client_call_y.maxcores ? __interface_client_call_y.maxcores $: _i.i2c_master_if._client_call_y.max.maxcores) $M ($D __interface_wait_and_yield.maxcores ? __interface_wait_and_yield.maxcores $: _i.i2c_master_if._client_call_y.max.maxcores) $M 1
	.globl	_i.i2c_master_if._chan_yield.read.maxcores
	.weak	_i.i2c_master_if._chan_yield.read.maxcores
	.set	_i.i2c_master_if._chan_yield.read.maxtimers,($D __interface_client_call_y.maxtimers ? __interface_client_call_y.maxtimers $: _i.i2c_master_if._client_call_y.max.maxtimers) $M ($D __interface_wait_and_yield.maxtimers ? __interface_wait_and_yield.maxtimers $: _i.i2c_master_if._client_call_y.max.maxtimers) $M 0
	.globl	_i.i2c_master_if._chan_yield.read.maxtimers
	.weak	_i.i2c_master_if._chan_yield.read.maxtimers
	.set	_i.i2c_master_if._chan_yield.read.maxchanends,(1 + ($D __interface_client_call_y.maxchanends ? __interface_client_call_y.maxchanends $: _i.i2c_master_if._client_call_y.max.maxchanends)) $M (1 + ($D __interface_wait_and_yield.maxchanends ? __interface_wait_and_yield.maxchanends $: _i.i2c_master_if._client_call_y.max.maxchanends)) $M 1
	.globl	_i.i2c_master_if._chan_yield.read.maxchanends
	.weak	_i.i2c_master_if._chan_yield.read.maxchanends
.Ltmp158:
	.size	_i.i2c_master_if._chan_yield.read, .Ltmp158-_i.i2c_master_if._chan_yield.read
	.cfi_endproc

	.weak	_i.i2c_master_if._chan_yield.write
	.align	4
	.type	_i.i2c_master_if._chan_yield.write,@function
	.cc_top _i.i2c_master_if._chan_yield.write.function,_i.i2c_master_if._chan_yield.write
_i.i2c_master_if._chan_yield.write:     # @_i.i2c_master_if._chan_yield.write
	.cfi_startproc
	.issue_mode dual
# BB#0:                                 # %allocas
	{
		nop
		dualentsp 10
	}
.Ltmp159:
	.cfi_def_cfa_offset 40
.Ltmp160:
	.cfi_offset 15, 0
	std r5, r4, sp[1]               # 4-byte Folded Spill
.Ltmp161:
	.cfi_offset 4, -32
.Ltmp162:
	.cfi_offset 5, -28
	std r7, r6, sp[2]               # 4-byte Folded Spill
.Ltmp163:
	.cfi_offset 6, -24
.Ltmp164:
	.cfi_offset 7, -20
	std r9, r8, sp[3]               # 4-byte Folded Spill
.Ltmp165:
	.cfi_offset 8, -16
.Ltmp166:
	.cfi_offset 9, -12
.Ltmp167:
	.cfi_offset 10, -8
	#DEBUG_VALUE: _i.i2c_master_if._chan_yield.write:s <- R0
	#DEBUG_VALUE: _i.i2c_master_if._chan_yield.write:param1 <- R1
	#DEBUG_VALUE: _i.i2c_master_if._chan_yield.write:param2 <- R2
	#DEBUG_VALUE: _i.i2c_master_if._chan_yield.write:param3 <- R3
	#DEBUG_VALUE: _i.i2c_master_if._chan_yield.write:param4 <- [SP+44]
	#DEBUG_VALUE: _i.i2c_master_if._chan_yield.write:param5 <- [SP+48]
	#DEBUG_VALUE: _i.i2c_master_if._chan_yield.write:param3 <- R5
	{
		mov r5, r3
		stw r10, sp[8]
	}
	#DEBUG_VALUE: _i.i2c_master_if._chan_yield.write:param2 <- R6
	#DEBUG_VALUE: _i.i2c_master_if._chan_yield.write:param1 <- R7
	{
		mov r6, r2
		mov r7, r1
	}
	{
		nop
		ldw r10, sp[12]
	}
	{
		nop
		ldw r9, sp[11]
	}
	{
		getr r4, 2
		ldw r1, r0[0]
	}
	{
		setd res[r4], r1
		nop
	}
	{
		out res[r4], r4
		nop
	}
	{
		outct res[r4], 2
		ldw r8, r0[1]
	}
	{
		mov r0, r4
		mov r1, r8
	}
	bl __interface_wait_and_yield
	{
		chkct res[r4], 1
		nop
	}
	{
		outt res[r4], r7
		stw r6, sp[1]
	}
	{
		out res[r4], r5
		ldw r0, r9[0]
	}
	{
		out res[r4], r0
		nop
	}
	{
		out res[r4], r10
		nop
	}
	{
		outct res[r4], 2
		ldaw r1, sp[1]
	}
	{
		mov r0, r4
		mov r2, r8
	}
	bl __interface_client_call_y
	{
		in r0, res[r4]
		nop
	}
	{
		in r0, res[r4]
		stw r0, r9[0]
	}
	{
		chkct res[r4], 1
		nop
	}
	{
		freer res[r4]
		ldw r10, sp[8]
	}
	ldd r9, r8, sp[3]               # 4-byte Folded Reload
	ldd r7, r6, sp[2]               # 4-byte Folded Reload
	ldd r5, r4, sp[1]               # 4-byte Folded Reload
	{
		nop
		retsp 10
	}
	# RETURN_REG_HOLDER
	.cc_bottom _i.i2c_master_if._chan_yield.write.function
	.set	_i.i2c_master_if._chan_yield.write.nstackwords,((($D __interface_wait_and_yield.nstackwords ? __interface_wait_and_yield.nstackwords $: _i.i2c_master_if._client_call_y.max.nstackwords) $M _i.i2c_master_if._client_call_y.max.nstackwords $M ($D __interface_client_call_y.nstackwords ? __interface_client_call_y.nstackwords $: _i.i2c_master_if._client_call_y.max.nstackwords)) + 10)
	.globl	_i.i2c_master_if._chan_yield.write.nstackwords
	.weak	_i.i2c_master_if._chan_yield.write.nstackwords
	.set	_i.i2c_master_if._chan_yield.write.maxcores,($D __interface_client_call_y.maxcores ? __interface_client_call_y.maxcores $: _i.i2c_master_if._client_call_y.max.maxcores) $M ($D __interface_wait_and_yield.maxcores ? __interface_wait_and_yield.maxcores $: _i.i2c_master_if._client_call_y.max.maxcores) $M 1
	.globl	_i.i2c_master_if._chan_yield.write.maxcores
	.weak	_i.i2c_master_if._chan_yield.write.maxcores
	.set	_i.i2c_master_if._chan_yield.write.maxtimers,($D __interface_client_call_y.maxtimers ? __interface_client_call_y.maxtimers $: _i.i2c_master_if._client_call_y.max.maxtimers) $M ($D __interface_wait_and_yield.maxtimers ? __interface_wait_and_yield.maxtimers $: _i.i2c_master_if._client_call_y.max.maxtimers) $M 0
	.globl	_i.i2c_master_if._chan_yield.write.maxtimers
	.weak	_i.i2c_master_if._chan_yield.write.maxtimers
	.set	_i.i2c_master_if._chan_yield.write.maxchanends,(1 + ($D __interface_client_call_y.maxchanends ? __interface_client_call_y.maxchanends $: _i.i2c_master_if._client_call_y.max.maxchanends)) $M (1 + ($D __interface_wait_and_yield.maxchanends ? __interface_wait_and_yield.maxchanends $: _i.i2c_master_if._client_call_y.max.maxchanends)) $M 1
	.globl	_i.i2c_master_if._chan_yield.write.maxchanends
	.weak	_i.i2c_master_if._chan_yield.write.maxchanends
.Ltmp168:
	.size	_i.i2c_master_if._chan_yield.write, .Ltmp168-_i.i2c_master_if._chan_yield.write
	.cfi_endproc

	.weak	_i.i2c_master_async_if._chan.shutdown
	.align	4
	.type	_i.i2c_master_async_if._chan.shutdown,@function
	.cc_top _i.i2c_master_async_if._chan.shutdown.function,_i.i2c_master_async_if._chan.shutdown
_i.i2c_master_async_if._chan.shutdown:  # @_i.i2c_master_async_if._chan.shutdown
	.cfi_startproc
	.issue_mode dual
# BB#0:                                 # %allocas
	{
		nop
		dualentsp 4
	}
.Ltmp169:
	.cfi_def_cfa_offset 16
.Ltmp170:
	.cfi_offset 15, 0
.Ltmp171:
	.cfi_offset 4, -8
	#DEBUG_VALUE: _i.i2c_master_async_if._chan.shutdown:dest <- R0
	{
		getr r4, 2
		stw r4, sp[2]
	}
	{
		setd res[r4], r0
		add r0, r4, 5
	}
	{
		out res[r4], r0
		nop
	}
	{
		outct res[r4], 2
		ldc r1, 0
	}
	{
		mov r0, r4
		nop
	}
	bl __interface_wait_and_yield
	{
		in r0, res[r4]
		nop
	}
	{
		chkct res[r4], 1
		nop
	}
	{
		freer res[r4]
		ldw r4, sp[2]
	}
	{
		nop
		retsp 4
	}
	# RETURN_REG_HOLDER
	.cc_bottom _i.i2c_master_async_if._chan.shutdown.function
	.set	_i.i2c_master_async_if._chan.shutdown.nstackwords,((_i.i2c_master_async_if._client_call_y.max.nstackwords $M ($D __interface_wait_and_yield.nstackwords ? __interface_wait_and_yield.nstackwords $: _i.i2c_master_async_if._client_call_y.max.nstackwords)) + 4)
	.globl	_i.i2c_master_async_if._chan.shutdown.nstackwords
	.weak	_i.i2c_master_async_if._chan.shutdown.nstackwords
	.set	_i.i2c_master_async_if._chan.shutdown.maxcores,($D __interface_wait_and_yield.maxcores ? __interface_wait_and_yield.maxcores $: _i.i2c_master_async_if._client_call_y.max.maxcores) $M 1
	.globl	_i.i2c_master_async_if._chan.shutdown.maxcores
	.weak	_i.i2c_master_async_if._chan.shutdown.maxcores
	.set	_i.i2c_master_async_if._chan.shutdown.maxtimers,($D __interface_wait_and_yield.maxtimers ? __interface_wait_and_yield.maxtimers $: _i.i2c_master_async_if._client_call_y.max.maxtimers) $M 0
	.globl	_i.i2c_master_async_if._chan.shutdown.maxtimers
	.weak	_i.i2c_master_async_if._chan.shutdown.maxtimers
	.set	_i.i2c_master_async_if._chan.shutdown.maxchanends,(1 + ($D __interface_wait_and_yield.maxchanends ? __interface_wait_and_yield.maxchanends $: _i.i2c_master_async_if._client_call_y.max.maxchanends)) $M 1
	.globl	_i.i2c_master_async_if._chan.shutdown.maxchanends
	.weak	_i.i2c_master_async_if._chan.shutdown.maxchanends
.Ltmp172:
	.size	_i.i2c_master_async_if._chan.shutdown, .Ltmp172-_i.i2c_master_async_if._chan.shutdown
	.cfi_endproc

	.weak	_i.i2c_master_async_if._chan.send_stop_bit
	.align	4
	.type	_i.i2c_master_async_if._chan.send_stop_bit,@function
	.cc_top _i.i2c_master_async_if._chan.send_stop_bit.function,_i.i2c_master_async_if._chan.send_stop_bit
_i.i2c_master_async_if._chan.send_stop_bit: # @_i.i2c_master_async_if._chan.send_stop_bit
	.cfi_startproc
	.issue_mode dual
# BB#0:                                 # %allocas
	{
		nop
		dualentsp 4
	}
.Ltmp173:
	.cfi_def_cfa_offset 16
.Ltmp174:
	.cfi_offset 15, 0
.Ltmp175:
	.cfi_offset 4, -8
	#DEBUG_VALUE: _i.i2c_master_async_if._chan.send_stop_bit:dest <- R0
	{
		getr r4, 2
		stw r4, sp[2]
	}
	{
		setd res[r4], r0
		add r0, r4, 4
	}
	{
		out res[r4], r0
		nop
	}
	{
		outct res[r4], 2
		ldc r1, 0
	}
	{
		mov r0, r4
		nop
	}
	bl __interface_wait_and_yield
	{
		in r0, res[r4]
		nop
	}
	{
		chkct res[r4], 1
		nop
	}
	{
		freer res[r4]
		ldw r4, sp[2]
	}
	{
		nop
		retsp 4
	}
	# RETURN_REG_HOLDER
	.cc_bottom _i.i2c_master_async_if._chan.send_stop_bit.function
	.set	_i.i2c_master_async_if._chan.send_stop_bit.nstackwords,((_i.i2c_master_async_if._client_call_y.max.nstackwords $M ($D __interface_wait_and_yield.nstackwords ? __interface_wait_and_yield.nstackwords $: _i.i2c_master_async_if._client_call_y.max.nstackwords)) + 4)
	.globl	_i.i2c_master_async_if._chan.send_stop_bit.nstackwords
	.weak	_i.i2c_master_async_if._chan.send_stop_bit.nstackwords
	.set	_i.i2c_master_async_if._chan.send_stop_bit.maxcores,($D __interface_wait_and_yield.maxcores ? __interface_wait_and_yield.maxcores $: _i.i2c_master_async_if._client_call_y.max.maxcores) $M 1
	.globl	_i.i2c_master_async_if._chan.send_stop_bit.maxcores
	.weak	_i.i2c_master_async_if._chan.send_stop_bit.maxcores
	.set	_i.i2c_master_async_if._chan.send_stop_bit.maxtimers,($D __interface_wait_and_yield.maxtimers ? __interface_wait_and_yield.maxtimers $: _i.i2c_master_async_if._client_call_y.max.maxtimers) $M 0
	.globl	_i.i2c_master_async_if._chan.send_stop_bit.maxtimers
	.weak	_i.i2c_master_async_if._chan.send_stop_bit.maxtimers
	.set	_i.i2c_master_async_if._chan.send_stop_bit.maxchanends,(1 + ($D __interface_wait_and_yield.maxchanends ? __interface_wait_and_yield.maxchanends $: _i.i2c_master_async_if._client_call_y.max.maxchanends)) $M 1
	.globl	_i.i2c_master_async_if._chan.send_stop_bit.maxchanends
	.weak	_i.i2c_master_async_if._chan.send_stop_bit.maxchanends
.Ltmp176:
	.size	_i.i2c_master_async_if._chan.send_stop_bit, .Ltmp176-_i.i2c_master_async_if._chan.send_stop_bit
	.cfi_endproc

	.weak	_i.i2c_master_async_if._chan.get_read_data
	.align	4
	.type	_i.i2c_master_async_if._chan.get_read_data,@function
	.cc_top _i.i2c_master_async_if._chan.get_read_data.function,_i.i2c_master_async_if._chan.get_read_data
_i.i2c_master_async_if._chan.get_read_data: # @_i.i2c_master_async_if._chan.get_read_data
	.cfi_startproc
	.issue_mode dual
# BB#0:                                 # %allocas
	{
		nop
		dualentsp 6
	}
.Ltmp177:
	.cfi_def_cfa_offset 24
.Ltmp178:
	.cfi_offset 15, 0
	std r5, r4, sp[1]               # 4-byte Folded Spill
.Ltmp179:
	.cfi_offset 4, -16
.Ltmp180:
	.cfi_offset 5, -12
	std r7, r6, sp[2]               # 4-byte Folded Spill
.Ltmp181:
	.cfi_offset 6, -8
.Ltmp182:
	.cfi_offset 7, -4
	#DEBUG_VALUE: _i.i2c_master_async_if._chan.get_read_data:dest <- R0
	#DEBUG_VALUE: _i.i2c_master_async_if._chan.get_read_data:clientNotifyFlag <- R1
	#DEBUG_VALUE: _i.i2c_master_async_if._chan.get_read_data:param2 <- R2
	#DEBUG_VALUE: _i.i2c_master_async_if._chan.get_read_data:param3 <- R3
	#DEBUG_VALUE: _i.i2c_master_async_if._chan.get_read_data:param3 <- R4
	#DEBUG_VALUE: _i.i2c_master_async_if._chan.get_read_data:param2 <- R5
	{
		mov r4, r3
		mov r5, r2
	}
	#DEBUG_VALUE: _i.i2c_master_async_if._chan.get_read_data:clientNotifyFlag <- R6
	{
		getr r7, 2
		mov r6, r1
	}
	{
		setd res[r7], r0
		add r0, r7, 3
	}
	{
		out res[r7], r0
		nop
	}
	{
		outct res[r7], 2
		ldc r1, 0
	}
	{
		mov r0, r7
		nop
	}
	bl __interface_wait_and_yield
	{
		chkct res[r7], 1
		nop
	}
	{
		out res[r7], r6
		stw r5, sp[1]
	}
	{
		out res[r7], r4
		nop
	}
	{
		outct res[r7], 2
		ldaw r1, sp[1]
	}
	{
		mov r0, r7
		nop
	}
	bl __interface_client_call
	{
		in r0, res[r7]
		nop
	}
	{
		chkct res[r7], 1
		nop
	}
	{
		freer res[r7]
		nop
	}
	ldd r7, r6, sp[2]               # 4-byte Folded Reload
	ldd r5, r4, sp[1]               # 4-byte Folded Reload
	{
		nop
		retsp 6
	}
	# RETURN_REG_HOLDER
	.cc_bottom _i.i2c_master_async_if._chan.get_read_data.function
	.set	_i.i2c_master_async_if._chan.get_read_data.nstackwords,((_i.i2c_master_async_if._client_call_y.max.nstackwords $M ($D __interface_wait_and_yield.nstackwords ? __interface_wait_and_yield.nstackwords $: _i.i2c_master_async_if._client_call_y.max.nstackwords) $M __interface_client_call.nstackwords) + 6)
	.globl	_i.i2c_master_async_if._chan.get_read_data.nstackwords
	.weak	_i.i2c_master_async_if._chan.get_read_data.nstackwords
	.set	_i.i2c_master_async_if._chan.get_read_data.maxcores,__interface_client_call.maxcores $M ($D __interface_wait_and_yield.maxcores ? __interface_wait_and_yield.maxcores $: _i.i2c_master_async_if._client_call_y.max.maxcores) $M 1
	.globl	_i.i2c_master_async_if._chan.get_read_data.maxcores
	.weak	_i.i2c_master_async_if._chan.get_read_data.maxcores
	.set	_i.i2c_master_async_if._chan.get_read_data.maxtimers,__interface_client_call.maxtimers $M ($D __interface_wait_and_yield.maxtimers ? __interface_wait_and_yield.maxtimers $: _i.i2c_master_async_if._client_call_y.max.maxtimers) $M 0
	.globl	_i.i2c_master_async_if._chan.get_read_data.maxtimers
	.weak	_i.i2c_master_async_if._chan.get_read_data.maxtimers
	.set	_i.i2c_master_async_if._chan.get_read_data.maxchanends,(1 + __interface_client_call.maxchanends) $M (1 + ($D __interface_wait_and_yield.maxchanends ? __interface_wait_and_yield.maxchanends $: _i.i2c_master_async_if._client_call_y.max.maxchanends)) $M 1
	.globl	_i.i2c_master_async_if._chan.get_read_data.maxchanends
	.weak	_i.i2c_master_async_if._chan.get_read_data.maxchanends
.Ltmp183:
	.size	_i.i2c_master_async_if._chan.get_read_data, .Ltmp183-_i.i2c_master_async_if._chan.get_read_data
	.cfi_endproc

	.weak	_i.i2c_master_async_if._chan.get_write_result
	.align	4
	.type	_i.i2c_master_async_if._chan.get_write_result,@function
	.cc_top _i.i2c_master_async_if._chan.get_write_result.function,_i.i2c_master_async_if._chan.get_write_result
_i.i2c_master_async_if._chan.get_write_result: # @_i.i2c_master_async_if._chan.get_write_result
	.cfi_startproc
	.issue_mode dual
# BB#0:                                 # %allocas
	{
		nop
		dualentsp 6
	}
.Ltmp184:
	.cfi_def_cfa_offset 24
.Ltmp185:
	.cfi_offset 15, 0
	std r5, r4, sp[1]               # 4-byte Folded Spill
.Ltmp186:
	.cfi_offset 4, -16
.Ltmp187:
	.cfi_offset 5, -12
.Ltmp188:
	.cfi_offset 6, -8
	#DEBUG_VALUE: _i.i2c_master_async_if._chan.get_write_result:dest <- R0
	#DEBUG_VALUE: _i.i2c_master_async_if._chan.get_write_result:clientNotifyFlag <- R1
	#DEBUG_VALUE: _i.i2c_master_async_if._chan.get_write_result:param2 <- R2
	#DEBUG_VALUE: _i.i2c_master_async_if._chan.get_write_result:param2 <- R4
	{
		mov r4, r2
		stw r6, sp[4]
	}
	#DEBUG_VALUE: _i.i2c_master_async_if._chan.get_write_result:clientNotifyFlag <- R5
	{
		getr r6, 2
		mov r5, r1
	}
	{
		setd res[r6], r0
		add r0, r6, 2
	}
	{
		out res[r6], r0
		nop
	}
	{
		outct res[r6], 2
		ldc r1, 0
	}
	{
		mov r0, r6
		nop
	}
	bl __interface_wait_and_yield
	{
		chkct res[r6], 1
		nop
	}
	{
		out res[r6], r5
		ldw r0, r4[0]
	}
	{
		out res[r6], r0
		nop
	}
	{
		outct res[r6], 2
		nop
	}
	{
		in r0, res[r6]
		nop
	}
	{
		in r0, res[r6]
		nop
	}
	{
		in r0, res[r6]
		stw r0, r4[0]
	}
	{
		chkct res[r6], 1
		nop
	}
	{
		freer res[r6]
		ldw r6, sp[4]
	}
	ldd r5, r4, sp[1]               # 4-byte Folded Reload
	{
		nop
		retsp 6
	}
	# RETURN_REG_HOLDER
	.cc_bottom _i.i2c_master_async_if._chan.get_write_result.function
	.set	_i.i2c_master_async_if._chan.get_write_result.nstackwords,((_i.i2c_master_async_if._client_call_y.max.nstackwords $M ($D __interface_wait_and_yield.nstackwords ? __interface_wait_and_yield.nstackwords $: _i.i2c_master_async_if._client_call_y.max.nstackwords)) + 6)
	.globl	_i.i2c_master_async_if._chan.get_write_result.nstackwords
	.weak	_i.i2c_master_async_if._chan.get_write_result.nstackwords
	.set	_i.i2c_master_async_if._chan.get_write_result.maxcores,($D __interface_wait_and_yield.maxcores ? __interface_wait_and_yield.maxcores $: _i.i2c_master_async_if._client_call_y.max.maxcores) $M 1
	.globl	_i.i2c_master_async_if._chan.get_write_result.maxcores
	.weak	_i.i2c_master_async_if._chan.get_write_result.maxcores
	.set	_i.i2c_master_async_if._chan.get_write_result.maxtimers,($D __interface_wait_and_yield.maxtimers ? __interface_wait_and_yield.maxtimers $: _i.i2c_master_async_if._client_call_y.max.maxtimers) $M 0
	.globl	_i.i2c_master_async_if._chan.get_write_result.maxtimers
	.weak	_i.i2c_master_async_if._chan.get_write_result.maxtimers
	.set	_i.i2c_master_async_if._chan.get_write_result.maxchanends,(1 + ($D __interface_wait_and_yield.maxchanends ? __interface_wait_and_yield.maxchanends $: _i.i2c_master_async_if._client_call_y.max.maxchanends)) $M 1
	.globl	_i.i2c_master_async_if._chan.get_write_result.maxchanends
	.weak	_i.i2c_master_async_if._chan.get_write_result.maxchanends
.Ltmp189:
	.size	_i.i2c_master_async_if._chan.get_write_result, .Ltmp189-_i.i2c_master_async_if._chan.get_write_result
	.cfi_endproc

	.weak	_i.i2c_master_async_if._chan.read
	.align	4
	.type	_i.i2c_master_async_if._chan.read,@function
	.cc_top _i.i2c_master_async_if._chan.read.function,_i.i2c_master_async_if._chan.read
_i.i2c_master_async_if._chan.read:      # @_i.i2c_master_async_if._chan.read
	.cfi_startproc
	.issue_mode dual
# BB#0:                                 # %allocas
	{
		nop
		dualentsp 6
	}
.Ltmp190:
	.cfi_def_cfa_offset 24
.Ltmp191:
	.cfi_offset 15, 0
	std r5, r4, sp[1]               # 4-byte Folded Spill
.Ltmp192:
	.cfi_offset 4, -16
.Ltmp193:
	.cfi_offset 5, -12
	std r7, r6, sp[2]               # 4-byte Folded Spill
.Ltmp194:
	.cfi_offset 6, -8
.Ltmp195:
	.cfi_offset 7, -4
	#DEBUG_VALUE: _i.i2c_master_async_if._chan.read:dest <- R0
	#DEBUG_VALUE: _i.i2c_master_async_if._chan.read:param1 <- R1
	#DEBUG_VALUE: _i.i2c_master_async_if._chan.read:param2 <- R2
	#DEBUG_VALUE: _i.i2c_master_async_if._chan.read:param3 <- R3
	#DEBUG_VALUE: _i.i2c_master_async_if._chan.read:param3 <- R4
	#DEBUG_VALUE: _i.i2c_master_async_if._chan.read:param2 <- R5
	{
		mov r4, r3
		mov r5, r2
	}
	#DEBUG_VALUE: _i.i2c_master_async_if._chan.read:param1 <- R6
	{
		getr r7, 2
		mov r6, r1
	}
	{
		setd res[r7], r0
		add r0, r7, 1
	}
	{
		out res[r7], r0
		nop
	}
	{
		outct res[r7], 2
		ldc r1, 0
	}
	{
		mov r0, r7
		nop
	}
	bl __interface_wait_and_yield
	{
		chkct res[r7], 1
		nop
	}
	{
		outt res[r7], r6
		nop
	}
	{
		out res[r7], r5
		nop
	}
	{
		out res[r7], r4
		nop
	}
	{
		outct res[r7], 2
		nop
	}
	{
		in r0, res[r7]
		nop
	}
	{
		chkct res[r7], 1
		nop
	}
	{
		freer res[r7]
		nop
	}
	ldd r7, r6, sp[2]               # 4-byte Folded Reload
	ldd r5, r4, sp[1]               # 4-byte Folded Reload
	{
		nop
		retsp 6
	}
	# RETURN_REG_HOLDER
	.cc_bottom _i.i2c_master_async_if._chan.read.function
	.set	_i.i2c_master_async_if._chan.read.nstackwords,((_i.i2c_master_async_if._client_call_y.max.nstackwords $M ($D __interface_wait_and_yield.nstackwords ? __interface_wait_and_yield.nstackwords $: _i.i2c_master_async_if._client_call_y.max.nstackwords)) + 6)
	.globl	_i.i2c_master_async_if._chan.read.nstackwords
	.weak	_i.i2c_master_async_if._chan.read.nstackwords
	.set	_i.i2c_master_async_if._chan.read.maxcores,($D __interface_wait_and_yield.maxcores ? __interface_wait_and_yield.maxcores $: _i.i2c_master_async_if._client_call_y.max.maxcores) $M 1
	.globl	_i.i2c_master_async_if._chan.read.maxcores
	.weak	_i.i2c_master_async_if._chan.read.maxcores
	.set	_i.i2c_master_async_if._chan.read.maxtimers,($D __interface_wait_and_yield.maxtimers ? __interface_wait_and_yield.maxtimers $: _i.i2c_master_async_if._client_call_y.max.maxtimers) $M 0
	.globl	_i.i2c_master_async_if._chan.read.maxtimers
	.weak	_i.i2c_master_async_if._chan.read.maxtimers
	.set	_i.i2c_master_async_if._chan.read.maxchanends,(1 + ($D __interface_wait_and_yield.maxchanends ? __interface_wait_and_yield.maxchanends $: _i.i2c_master_async_if._client_call_y.max.maxchanends)) $M 1
	.globl	_i.i2c_master_async_if._chan.read.maxchanends
	.weak	_i.i2c_master_async_if._chan.read.maxchanends
.Ltmp196:
	.size	_i.i2c_master_async_if._chan.read, .Ltmp196-_i.i2c_master_async_if._chan.read
	.cfi_endproc

	.weak	_i.i2c_master_async_if._chan.write
	.align	4
	.type	_i.i2c_master_async_if._chan.write,@function
	.cc_top _i.i2c_master_async_if._chan.write.function,_i.i2c_master_async_if._chan.write
_i.i2c_master_async_if._chan.write:     # @_i.i2c_master_async_if._chan.write
	.cfi_startproc
	.issue_mode dual
# BB#0:                                 # %allocas
	{
		nop
		dualentsp 8
	}
.Ltmp197:
	.cfi_def_cfa_offset 32
.Ltmp198:
	.cfi_offset 15, 0
	std r5, r4, sp[1]               # 4-byte Folded Spill
.Ltmp199:
	.cfi_offset 4, -24
.Ltmp200:
	.cfi_offset 5, -20
	std r7, r6, sp[2]               # 4-byte Folded Spill
.Ltmp201:
	.cfi_offset 6, -16
.Ltmp202:
	.cfi_offset 7, -12
.Ltmp203:
	.cfi_offset 8, -8
	#DEBUG_VALUE: _i.i2c_master_async_if._chan.write:dest <- R0
	#DEBUG_VALUE: _i.i2c_master_async_if._chan.write:param1 <- R1
	#DEBUG_VALUE: _i.i2c_master_async_if._chan.write:param2 <- R2
	#DEBUG_VALUE: _i.i2c_master_async_if._chan.write:param3 <- R3
	#DEBUG_VALUE: _i.i2c_master_async_if._chan.write:param4 <- [SP+36]
	#DEBUG_VALUE: _i.i2c_master_async_if._chan.write:param3 <- R4
	{
		mov r4, r3
		stw r8, sp[6]
	}
	#DEBUG_VALUE: _i.i2c_master_async_if._chan.write:param2 <- R5
	#DEBUG_VALUE: _i.i2c_master_async_if._chan.write:param1 <- R6
	{
		mov r5, r2
		mov r6, r1
	}
	{
		getr r7, 2
		ldw r8, sp[9]
	}
	{
		setd res[r7], r0
		nop
	}
	{
		out res[r7], r7
		nop
	}
	{
		outct res[r7], 2
		ldc r1, 0
	}
	{
		mov r0, r7
		nop
	}
	bl __interface_wait_and_yield
	{
		chkct res[r7], 1
		nop
	}
	{
		outt res[r7], r6
		stw r5, sp[1]
	}
	{
		out res[r7], r4
		nop
	}
	{
		out res[r7], r8
		nop
	}
	{
		outct res[r7], 2
		ldaw r1, sp[1]
	}
	{
		mov r0, r7
		nop
	}
	bl __interface_client_call
	{
		chkct res[r7], 1
		nop
	}
	{
		freer res[r7]
		ldw r8, sp[6]
	}
	ldd r7, r6, sp[2]               # 4-byte Folded Reload
	ldd r5, r4, sp[1]               # 4-byte Folded Reload
	{
		nop
		retsp 8
	}
	# RETURN_REG_HOLDER
	.cc_bottom _i.i2c_master_async_if._chan.write.function
	.set	_i.i2c_master_async_if._chan.write.nstackwords,((_i.i2c_master_async_if._client_call_y.max.nstackwords $M ($D __interface_wait_and_yield.nstackwords ? __interface_wait_and_yield.nstackwords $: _i.i2c_master_async_if._client_call_y.max.nstackwords) $M __interface_client_call.nstackwords) + 8)
	.globl	_i.i2c_master_async_if._chan.write.nstackwords
	.weak	_i.i2c_master_async_if._chan.write.nstackwords
	.set	_i.i2c_master_async_if._chan.write.maxcores,__interface_client_call.maxcores $M ($D __interface_wait_and_yield.maxcores ? __interface_wait_and_yield.maxcores $: _i.i2c_master_async_if._client_call_y.max.maxcores) $M 1
	.globl	_i.i2c_master_async_if._chan.write.maxcores
	.weak	_i.i2c_master_async_if._chan.write.maxcores
	.set	_i.i2c_master_async_if._chan.write.maxtimers,__interface_client_call.maxtimers $M ($D __interface_wait_and_yield.maxtimers ? __interface_wait_and_yield.maxtimers $: _i.i2c_master_async_if._client_call_y.max.maxtimers) $M 0
	.globl	_i.i2c_master_async_if._chan.write.maxtimers
	.weak	_i.i2c_master_async_if._chan.write.maxtimers
	.set	_i.i2c_master_async_if._chan.write.maxchanends,(1 + __interface_client_call.maxchanends) $M (1 + ($D __interface_wait_and_yield.maxchanends ? __interface_wait_and_yield.maxchanends $: _i.i2c_master_async_if._client_call_y.max.maxchanends)) $M 1
	.globl	_i.i2c_master_async_if._chan.write.maxchanends
	.weak	_i.i2c_master_async_if._chan.write.maxchanends
.Ltmp204:
	.size	_i.i2c_master_async_if._chan.write, .Ltmp204-_i.i2c_master_async_if._chan.write
	.cfi_endproc

	.weak	_i.i2c_master_async_if._chan_yield.shutdown
	.align	4
	.type	_i.i2c_master_async_if._chan_yield.shutdown,@function
	.cc_top _i.i2c_master_async_if._chan_yield.shutdown.function,_i.i2c_master_async_if._chan_yield.shutdown
_i.i2c_master_async_if._chan_yield.shutdown: # @_i.i2c_master_async_if._chan_yield.shutdown
	.cfi_startproc
	.issue_mode dual
# BB#0:                                 # %allocas
	{
		nop
		dualentsp 4
	}
.Ltmp205:
	.cfi_def_cfa_offset 16
.Ltmp206:
	.cfi_offset 15, 0
	std r5, r4, sp[1]               # 4-byte Folded Spill
.Ltmp207:
	.cfi_offset 4, -8
.Ltmp208:
	.cfi_offset 5, -4
	#DEBUG_VALUE: _i.i2c_master_async_if._chan_yield.shutdown:s <- R0
	{
		getr r4, 2
		ldw r1, r0[0]
	}
	{
		setd res[r4], r1
		add r1, r4, 5
	}
	{
		out res[r4], r1
		nop
	}
	{
		outct res[r4], 2
		ldw r5, r0[1]
	}
	{
		mov r0, r4
		mov r1, r5
	}
	bl __interface_wait_and_yield
	{
		ldc r1, 0
		mov r0, r4
	}
	{
		mov r2, r5
		nop
	}
	bl __interface_client_call_y
	{
		chkct res[r4], 1
		nop
	}
	{
		freer res[r4]
		nop
	}
	ldd r5, r4, sp[1]               # 4-byte Folded Reload
	{
		nop
		retsp 4
	}
	# RETURN_REG_HOLDER
	.cc_bottom _i.i2c_master_async_if._chan_yield.shutdown.function
	.set	_i.i2c_master_async_if._chan_yield.shutdown.nstackwords,((($D __interface_wait_and_yield.nstackwords ? __interface_wait_and_yield.nstackwords $: _i.i2c_master_async_if._client_call_y.max.nstackwords) $M _i.i2c_master_async_if._client_call_y.max.nstackwords $M ($D __interface_client_call_y.nstackwords ? __interface_client_call_y.nstackwords $: _i.i2c_master_async_if._client_call_y.max.nstackwords)) + 4)
	.globl	_i.i2c_master_async_if._chan_yield.shutdown.nstackwords
	.weak	_i.i2c_master_async_if._chan_yield.shutdown.nstackwords
	.set	_i.i2c_master_async_if._chan_yield.shutdown.maxcores,($D __interface_client_call_y.maxcores ? __interface_client_call_y.maxcores $: _i.i2c_master_async_if._client_call_y.max.maxcores) $M ($D __interface_wait_and_yield.maxcores ? __interface_wait_and_yield.maxcores $: _i.i2c_master_async_if._client_call_y.max.maxcores) $M 1
	.globl	_i.i2c_master_async_if._chan_yield.shutdown.maxcores
	.weak	_i.i2c_master_async_if._chan_yield.shutdown.maxcores
	.set	_i.i2c_master_async_if._chan_yield.shutdown.maxtimers,($D __interface_client_call_y.maxtimers ? __interface_client_call_y.maxtimers $: _i.i2c_master_async_if._client_call_y.max.maxtimers) $M ($D __interface_wait_and_yield.maxtimers ? __interface_wait_and_yield.maxtimers $: _i.i2c_master_async_if._client_call_y.max.maxtimers) $M 0
	.globl	_i.i2c_master_async_if._chan_yield.shutdown.maxtimers
	.weak	_i.i2c_master_async_if._chan_yield.shutdown.maxtimers
	.set	_i.i2c_master_async_if._chan_yield.shutdown.maxchanends,(1 + ($D __interface_client_call_y.maxchanends ? __interface_client_call_y.maxchanends $: _i.i2c_master_async_if._client_call_y.max.maxchanends)) $M (1 + ($D __interface_wait_and_yield.maxchanends ? __interface_wait_and_yield.maxchanends $: _i.i2c_master_async_if._client_call_y.max.maxchanends)) $M 1
	.globl	_i.i2c_master_async_if._chan_yield.shutdown.maxchanends
	.weak	_i.i2c_master_async_if._chan_yield.shutdown.maxchanends
.Ltmp209:
	.size	_i.i2c_master_async_if._chan_yield.shutdown, .Ltmp209-_i.i2c_master_async_if._chan_yield.shutdown
	.cfi_endproc

	.weak	_i.i2c_master_async_if._chan_yield.send_stop_bit
	.align	4
	.type	_i.i2c_master_async_if._chan_yield.send_stop_bit,@function
	.cc_top _i.i2c_master_async_if._chan_yield.send_stop_bit.function,_i.i2c_master_async_if._chan_yield.send_stop_bit
_i.i2c_master_async_if._chan_yield.send_stop_bit: # @_i.i2c_master_async_if._chan_yield.send_stop_bit
	.cfi_startproc
	.issue_mode dual
# BB#0:                                 # %allocas
	{
		nop
		dualentsp 4
	}
.Ltmp210:
	.cfi_def_cfa_offset 16
.Ltmp211:
	.cfi_offset 15, 0
	std r5, r4, sp[1]               # 4-byte Folded Spill
.Ltmp212:
	.cfi_offset 4, -8
.Ltmp213:
	.cfi_offset 5, -4
	#DEBUG_VALUE: _i.i2c_master_async_if._chan_yield.send_stop_bit:s <- R0
	{
		getr r4, 2
		ldw r1, r0[0]
	}
	{
		setd res[r4], r1
		add r1, r4, 4
	}
	{
		out res[r4], r1
		nop
	}
	{
		outct res[r4], 2
		ldw r5, r0[1]
	}
	{
		mov r0, r4
		mov r1, r5
	}
	bl __interface_wait_and_yield
	{
		ldc r1, 0
		mov r0, r4
	}
	{
		mov r2, r5
		nop
	}
	bl __interface_client_call_y
	{
		chkct res[r4], 1
		nop
	}
	{
		freer res[r4]
		nop
	}
	ldd r5, r4, sp[1]               # 4-byte Folded Reload
	{
		nop
		retsp 4
	}
	# RETURN_REG_HOLDER
	.cc_bottom _i.i2c_master_async_if._chan_yield.send_stop_bit.function
	.set	_i.i2c_master_async_if._chan_yield.send_stop_bit.nstackwords,((($D __interface_wait_and_yield.nstackwords ? __interface_wait_and_yield.nstackwords $: _i.i2c_master_async_if._client_call_y.max.nstackwords) $M _i.i2c_master_async_if._client_call_y.max.nstackwords $M ($D __interface_client_call_y.nstackwords ? __interface_client_call_y.nstackwords $: _i.i2c_master_async_if._client_call_y.max.nstackwords)) + 4)
	.globl	_i.i2c_master_async_if._chan_yield.send_stop_bit.nstackwords
	.weak	_i.i2c_master_async_if._chan_yield.send_stop_bit.nstackwords
	.set	_i.i2c_master_async_if._chan_yield.send_stop_bit.maxcores,($D __interface_client_call_y.maxcores ? __interface_client_call_y.maxcores $: _i.i2c_master_async_if._client_call_y.max.maxcores) $M ($D __interface_wait_and_yield.maxcores ? __interface_wait_and_yield.maxcores $: _i.i2c_master_async_if._client_call_y.max.maxcores) $M 1
	.globl	_i.i2c_master_async_if._chan_yield.send_stop_bit.maxcores
	.weak	_i.i2c_master_async_if._chan_yield.send_stop_bit.maxcores
	.set	_i.i2c_master_async_if._chan_yield.send_stop_bit.maxtimers,($D __interface_client_call_y.maxtimers ? __interface_client_call_y.maxtimers $: _i.i2c_master_async_if._client_call_y.max.maxtimers) $M ($D __interface_wait_and_yield.maxtimers ? __interface_wait_and_yield.maxtimers $: _i.i2c_master_async_if._client_call_y.max.maxtimers) $M 0
	.globl	_i.i2c_master_async_if._chan_yield.send_stop_bit.maxtimers
	.weak	_i.i2c_master_async_if._chan_yield.send_stop_bit.maxtimers
	.set	_i.i2c_master_async_if._chan_yield.send_stop_bit.maxchanends,(1 + ($D __interface_client_call_y.maxchanends ? __interface_client_call_y.maxchanends $: _i.i2c_master_async_if._client_call_y.max.maxchanends)) $M (1 + ($D __interface_wait_and_yield.maxchanends ? __interface_wait_and_yield.maxchanends $: _i.i2c_master_async_if._client_call_y.max.maxchanends)) $M 1
	.globl	_i.i2c_master_async_if._chan_yield.send_stop_bit.maxchanends
	.weak	_i.i2c_master_async_if._chan_yield.send_stop_bit.maxchanends
.Ltmp214:
	.size	_i.i2c_master_async_if._chan_yield.send_stop_bit, .Ltmp214-_i.i2c_master_async_if._chan_yield.send_stop_bit
	.cfi_endproc

	.weak	_i.i2c_master_async_if._chan_yield.get_read_data
	.align	4
	.type	_i.i2c_master_async_if._chan_yield.get_read_data,@function
	.cc_top _i.i2c_master_async_if._chan_yield.get_read_data.function,_i.i2c_master_async_if._chan_yield.get_read_data
_i.i2c_master_async_if._chan_yield.get_read_data: # @_i.i2c_master_async_if._chan_yield.get_read_data
	.cfi_startproc
	.issue_mode dual
# BB#0:                                 # %allocas
	{
		nop
		dualentsp 8
	}
.Ltmp215:
	.cfi_def_cfa_offset 32
.Ltmp216:
	.cfi_offset 15, 0
	std r5, r4, sp[1]               # 4-byte Folded Spill
.Ltmp217:
	.cfi_offset 4, -24
.Ltmp218:
	.cfi_offset 5, -20
	std r7, r6, sp[2]               # 4-byte Folded Spill
.Ltmp219:
	.cfi_offset 6, -16
.Ltmp220:
	.cfi_offset 7, -12
.Ltmp221:
	.cfi_offset 8, -8
	#DEBUG_VALUE: _i.i2c_master_async_if._chan_yield.get_read_data:s <- R0
	#DEBUG_VALUE: _i.i2c_master_async_if._chan_yield.get_read_data:clientNotifyFlag <- R1
	#DEBUG_VALUE: _i.i2c_master_async_if._chan_yield.get_read_data:param2 <- R2
	#DEBUG_VALUE: _i.i2c_master_async_if._chan_yield.get_read_data:param3 <- R3
	#DEBUG_VALUE: _i.i2c_master_async_if._chan_yield.get_read_data:param3 <- R5
	{
		mov r5, r3
		stw r8, sp[6]
	}
	#DEBUG_VALUE: _i.i2c_master_async_if._chan_yield.get_read_data:param2 <- R6
	#DEBUG_VALUE: _i.i2c_master_async_if._chan_yield.get_read_data:clientNotifyFlag <- R7
	{
		mov r6, r2
		mov r7, r1
	}
	{
		getr r4, 2
		ldw r1, r0[0]
	}
	{
		setd res[r4], r1
		add r1, r4, 3
	}
	{
		out res[r4], r1
		nop
	}
	{
		outct res[r4], 2
		ldw r8, r0[1]
	}
	{
		mov r0, r4
		mov r1, r8
	}
	bl __interface_wait_and_yield
	{
		chkct res[r4], 1
		nop
	}
	{
		out res[r4], r7
		stw r6, sp[1]
	}
	{
		out res[r4], r5
		nop
	}
	{
		outct res[r4], 2
		ldaw r1, sp[1]
	}
	{
		mov r0, r4
		mov r2, r8
	}
	bl __interface_client_call_y
	{
		in r0, res[r4]
		nop
	}
	{
		chkct res[r4], 1
		nop
	}
	{
		freer res[r4]
		ldw r8, sp[6]
	}
	ldd r7, r6, sp[2]               # 4-byte Folded Reload
	ldd r5, r4, sp[1]               # 4-byte Folded Reload
	{
		nop
		retsp 8
	}
	# RETURN_REG_HOLDER
	.cc_bottom _i.i2c_master_async_if._chan_yield.get_read_data.function
	.set	_i.i2c_master_async_if._chan_yield.get_read_data.nstackwords,((($D __interface_wait_and_yield.nstackwords ? __interface_wait_and_yield.nstackwords $: _i.i2c_master_async_if._client_call_y.max.nstackwords) $M _i.i2c_master_async_if._client_call_y.max.nstackwords $M ($D __interface_client_call_y.nstackwords ? __interface_client_call_y.nstackwords $: _i.i2c_master_async_if._client_call_y.max.nstackwords)) + 8)
	.globl	_i.i2c_master_async_if._chan_yield.get_read_data.nstackwords
	.weak	_i.i2c_master_async_if._chan_yield.get_read_data.nstackwords
	.set	_i.i2c_master_async_if._chan_yield.get_read_data.maxcores,($D __interface_client_call_y.maxcores ? __interface_client_call_y.maxcores $: _i.i2c_master_async_if._client_call_y.max.maxcores) $M ($D __interface_wait_and_yield.maxcores ? __interface_wait_and_yield.maxcores $: _i.i2c_master_async_if._client_call_y.max.maxcores) $M 1
	.globl	_i.i2c_master_async_if._chan_yield.get_read_data.maxcores
	.weak	_i.i2c_master_async_if._chan_yield.get_read_data.maxcores
	.set	_i.i2c_master_async_if._chan_yield.get_read_data.maxtimers,($D __interface_client_call_y.maxtimers ? __interface_client_call_y.maxtimers $: _i.i2c_master_async_if._client_call_y.max.maxtimers) $M ($D __interface_wait_and_yield.maxtimers ? __interface_wait_and_yield.maxtimers $: _i.i2c_master_async_if._client_call_y.max.maxtimers) $M 0
	.globl	_i.i2c_master_async_if._chan_yield.get_read_data.maxtimers
	.weak	_i.i2c_master_async_if._chan_yield.get_read_data.maxtimers
	.set	_i.i2c_master_async_if._chan_yield.get_read_data.maxchanends,(1 + ($D __interface_client_call_y.maxchanends ? __interface_client_call_y.maxchanends $: _i.i2c_master_async_if._client_call_y.max.maxchanends)) $M (1 + ($D __interface_wait_and_yield.maxchanends ? __interface_wait_and_yield.maxchanends $: _i.i2c_master_async_if._client_call_y.max.maxchanends)) $M 1
	.globl	_i.i2c_master_async_if._chan_yield.get_read_data.maxchanends
	.weak	_i.i2c_master_async_if._chan_yield.get_read_data.maxchanends
.Ltmp222:
	.size	_i.i2c_master_async_if._chan_yield.get_read_data, .Ltmp222-_i.i2c_master_async_if._chan_yield.get_read_data
	.cfi_endproc

	.weak	_i.i2c_master_async_if._chan_yield.get_write_result
	.align	4
	.type	_i.i2c_master_async_if._chan_yield.get_write_result,@function
	.cc_top _i.i2c_master_async_if._chan_yield.get_write_result.function,_i.i2c_master_async_if._chan_yield.get_write_result
_i.i2c_master_async_if._chan_yield.get_write_result: # @_i.i2c_master_async_if._chan_yield.get_write_result
	.cfi_startproc
	.issue_mode dual
# BB#0:                                 # %allocas
	{
		nop
		dualentsp 6
	}
.Ltmp223:
	.cfi_def_cfa_offset 24
.Ltmp224:
	.cfi_offset 15, 0
	std r5, r4, sp[1]               # 4-byte Folded Spill
.Ltmp225:
	.cfi_offset 4, -16
.Ltmp226:
	.cfi_offset 5, -12
	std r7, r6, sp[2]               # 4-byte Folded Spill
.Ltmp227:
	.cfi_offset 6, -8
.Ltmp228:
	.cfi_offset 7, -4
	#DEBUG_VALUE: _i.i2c_master_async_if._chan_yield.get_write_result:s <- R0
	#DEBUG_VALUE: _i.i2c_master_async_if._chan_yield.get_write_result:clientNotifyFlag <- R1
	#DEBUG_VALUE: _i.i2c_master_async_if._chan_yield.get_write_result:param2 <- R2
	#DEBUG_VALUE: _i.i2c_master_async_if._chan_yield.get_write_result:param2 <- R4
	#DEBUG_VALUE: _i.i2c_master_async_if._chan_yield.get_write_result:clientNotifyFlag <- R6
	{
		mov r4, r2
		mov r6, r1
	}
	{
		getr r5, 2
		ldw r1, r0[0]
	}
	{
		setd res[r5], r1
		add r1, r5, 2
	}
	{
		out res[r5], r1
		nop
	}
	{
		outct res[r5], 2
		ldw r7, r0[1]
	}
	{
		mov r0, r5
		mov r1, r7
	}
	bl __interface_wait_and_yield
	{
		chkct res[r5], 1
		nop
	}
	{
		out res[r5], r6
		ldw r0, r4[0]
	}
	{
		out res[r5], r0
		nop
	}
	{
		outct res[r5], 2
		ldc r1, 0
	}
	{
		mov r0, r5
		mov r2, r7
	}
	bl __interface_client_call_y
	{
		in r0, res[r5]
		nop
	}
	{
		in r0, res[r5]
		stw r0, r4[0]
	}
	{
		chkct res[r5], 1
		nop
	}
	{
		freer res[r5]
		nop
	}
	ldd r7, r6, sp[2]               # 4-byte Folded Reload
	ldd r5, r4, sp[1]               # 4-byte Folded Reload
	{
		nop
		retsp 6
	}
	# RETURN_REG_HOLDER
	.cc_bottom _i.i2c_master_async_if._chan_yield.get_write_result.function
	.set	_i.i2c_master_async_if._chan_yield.get_write_result.nstackwords,((($D __interface_wait_and_yield.nstackwords ? __interface_wait_and_yield.nstackwords $: _i.i2c_master_async_if._client_call_y.max.nstackwords) $M _i.i2c_master_async_if._client_call_y.max.nstackwords $M ($D __interface_client_call_y.nstackwords ? __interface_client_call_y.nstackwords $: _i.i2c_master_async_if._client_call_y.max.nstackwords)) + 6)
	.globl	_i.i2c_master_async_if._chan_yield.get_write_result.nstackwords
	.weak	_i.i2c_master_async_if._chan_yield.get_write_result.nstackwords
	.set	_i.i2c_master_async_if._chan_yield.get_write_result.maxcores,($D __interface_client_call_y.maxcores ? __interface_client_call_y.maxcores $: _i.i2c_master_async_if._client_call_y.max.maxcores) $M ($D __interface_wait_and_yield.maxcores ? __interface_wait_and_yield.maxcores $: _i.i2c_master_async_if._client_call_y.max.maxcores) $M 1
	.globl	_i.i2c_master_async_if._chan_yield.get_write_result.maxcores
	.weak	_i.i2c_master_async_if._chan_yield.get_write_result.maxcores
	.set	_i.i2c_master_async_if._chan_yield.get_write_result.maxtimers,($D __interface_client_call_y.maxtimers ? __interface_client_call_y.maxtimers $: _i.i2c_master_async_if._client_call_y.max.maxtimers) $M ($D __interface_wait_and_yield.maxtimers ? __interface_wait_and_yield.maxtimers $: _i.i2c_master_async_if._client_call_y.max.maxtimers) $M 0
	.globl	_i.i2c_master_async_if._chan_yield.get_write_result.maxtimers
	.weak	_i.i2c_master_async_if._chan_yield.get_write_result.maxtimers
	.set	_i.i2c_master_async_if._chan_yield.get_write_result.maxchanends,(1 + ($D __interface_client_call_y.maxchanends ? __interface_client_call_y.maxchanends $: _i.i2c_master_async_if._client_call_y.max.maxchanends)) $M (1 + ($D __interface_wait_and_yield.maxchanends ? __interface_wait_and_yield.maxchanends $: _i.i2c_master_async_if._client_call_y.max.maxchanends)) $M 1
	.globl	_i.i2c_master_async_if._chan_yield.get_write_result.maxchanends
	.weak	_i.i2c_master_async_if._chan_yield.get_write_result.maxchanends
.Ltmp229:
	.size	_i.i2c_master_async_if._chan_yield.get_write_result, .Ltmp229-_i.i2c_master_async_if._chan_yield.get_write_result
	.cfi_endproc

	.weak	_i.i2c_master_async_if._chan_yield.read
	.align	4
	.type	_i.i2c_master_async_if._chan_yield.read,@function
	.cc_top _i.i2c_master_async_if._chan_yield.read.function,_i.i2c_master_async_if._chan_yield.read
_i.i2c_master_async_if._chan_yield.read: # @_i.i2c_master_async_if._chan_yield.read
	.cfi_startproc
	.issue_mode dual
# BB#0:                                 # %allocas
	{
		nop
		dualentsp 8
	}
.Ltmp230:
	.cfi_def_cfa_offset 32
.Ltmp231:
	.cfi_offset 15, 0
	std r5, r4, sp[1]               # 4-byte Folded Spill
.Ltmp232:
	.cfi_offset 4, -24
.Ltmp233:
	.cfi_offset 5, -20
	std r7, r6, sp[2]               # 4-byte Folded Spill
.Ltmp234:
	.cfi_offset 6, -16
.Ltmp235:
	.cfi_offset 7, -12
.Ltmp236:
	.cfi_offset 8, -8
	#DEBUG_VALUE: _i.i2c_master_async_if._chan_yield.read:s <- R0
	#DEBUG_VALUE: _i.i2c_master_async_if._chan_yield.read:param1 <- R1
	#DEBUG_VALUE: _i.i2c_master_async_if._chan_yield.read:param2 <- R2
	#DEBUG_VALUE: _i.i2c_master_async_if._chan_yield.read:param3 <- R3
	#DEBUG_VALUE: _i.i2c_master_async_if._chan_yield.read:param3 <- R4
	{
		mov r4, r3
		stw r8, sp[6]
	}
	#DEBUG_VALUE: _i.i2c_master_async_if._chan_yield.read:param2 <- R5
	#DEBUG_VALUE: _i.i2c_master_async_if._chan_yield.read:param1 <- R6
	{
		mov r5, r2
		mov r6, r1
	}
	{
		getr r7, 2
		ldw r1, r0[0]
	}
	{
		setd res[r7], r1
		add r1, r7, 1
	}
	{
		out res[r7], r1
		nop
	}
	{
		outct res[r7], 2
		ldw r8, r0[1]
	}
	{
		mov r0, r7
		mov r1, r8
	}
	bl __interface_wait_and_yield
	{
		chkct res[r7], 1
		nop
	}
	{
		outt res[r7], r6
		nop
	}
	{
		out res[r7], r5
		nop
	}
	{
		out res[r7], r4
		nop
	}
	{
		outct res[r7], 2
		ldc r1, 0
	}
	{
		mov r0, r7
		mov r2, r8
	}
	bl __interface_client_call_y
	{
		chkct res[r7], 1
		nop
	}
	{
		freer res[r7]
		ldw r8, sp[6]
	}
	ldd r7, r6, sp[2]               # 4-byte Folded Reload
	ldd r5, r4, sp[1]               # 4-byte Folded Reload
	{
		nop
		retsp 8
	}
	# RETURN_REG_HOLDER
	.cc_bottom _i.i2c_master_async_if._chan_yield.read.function
	.set	_i.i2c_master_async_if._chan_yield.read.nstackwords,((($D __interface_wait_and_yield.nstackwords ? __interface_wait_and_yield.nstackwords $: _i.i2c_master_async_if._client_call_y.max.nstackwords) $M _i.i2c_master_async_if._client_call_y.max.nstackwords $M ($D __interface_client_call_y.nstackwords ? __interface_client_call_y.nstackwords $: _i.i2c_master_async_if._client_call_y.max.nstackwords)) + 8)
	.globl	_i.i2c_master_async_if._chan_yield.read.nstackwords
	.weak	_i.i2c_master_async_if._chan_yield.read.nstackwords
	.set	_i.i2c_master_async_if._chan_yield.read.maxcores,($D __interface_client_call_y.maxcores ? __interface_client_call_y.maxcores $: _i.i2c_master_async_if._client_call_y.max.maxcores) $M ($D __interface_wait_and_yield.maxcores ? __interface_wait_and_yield.maxcores $: _i.i2c_master_async_if._client_call_y.max.maxcores) $M 1
	.globl	_i.i2c_master_async_if._chan_yield.read.maxcores
	.weak	_i.i2c_master_async_if._chan_yield.read.maxcores
	.set	_i.i2c_master_async_if._chan_yield.read.maxtimers,($D __interface_client_call_y.maxtimers ? __interface_client_call_y.maxtimers $: _i.i2c_master_async_if._client_call_y.max.maxtimers) $M ($D __interface_wait_and_yield.maxtimers ? __interface_wait_and_yield.maxtimers $: _i.i2c_master_async_if._client_call_y.max.maxtimers) $M 0
	.globl	_i.i2c_master_async_if._chan_yield.read.maxtimers
	.weak	_i.i2c_master_async_if._chan_yield.read.maxtimers
	.set	_i.i2c_master_async_if._chan_yield.read.maxchanends,(1 + ($D __interface_client_call_y.maxchanends ? __interface_client_call_y.maxchanends $: _i.i2c_master_async_if._client_call_y.max.maxchanends)) $M (1 + ($D __interface_wait_and_yield.maxchanends ? __interface_wait_and_yield.maxchanends $: _i.i2c_master_async_if._client_call_y.max.maxchanends)) $M 1
	.globl	_i.i2c_master_async_if._chan_yield.read.maxchanends
	.weak	_i.i2c_master_async_if._chan_yield.read.maxchanends
.Ltmp237:
	.size	_i.i2c_master_async_if._chan_yield.read, .Ltmp237-_i.i2c_master_async_if._chan_yield.read
	.cfi_endproc

	.weak	_i.i2c_master_async_if._chan_yield.write
	.align	4
	.type	_i.i2c_master_async_if._chan_yield.write,@function
	.cc_top _i.i2c_master_async_if._chan_yield.write.function,_i.i2c_master_async_if._chan_yield.write
_i.i2c_master_async_if._chan_yield.write: # @_i.i2c_master_async_if._chan_yield.write
	.cfi_startproc
	.issue_mode dual
# BB#0:                                 # %allocas
	{
		nop
		dualentsp 8
	}
.Ltmp238:
	.cfi_def_cfa_offset 32
.Ltmp239:
	.cfi_offset 15, 0
	std r5, r4, sp[1]               # 4-byte Folded Spill
.Ltmp240:
	.cfi_offset 4, -24
.Ltmp241:
	.cfi_offset 5, -20
	std r7, r6, sp[2]               # 4-byte Folded Spill
.Ltmp242:
	.cfi_offset 6, -16
.Ltmp243:
	.cfi_offset 7, -12
	std r9, r8, sp[3]               # 4-byte Folded Spill
.Ltmp244:
	.cfi_offset 8, -8
.Ltmp245:
	.cfi_offset 9, -4
	#DEBUG_VALUE: _i.i2c_master_async_if._chan_yield.write:s <- R0
	#DEBUG_VALUE: _i.i2c_master_async_if._chan_yield.write:param1 <- R1
	#DEBUG_VALUE: _i.i2c_master_async_if._chan_yield.write:param2 <- R2
	#DEBUG_VALUE: _i.i2c_master_async_if._chan_yield.write:param3 <- R3
	#DEBUG_VALUE: _i.i2c_master_async_if._chan_yield.write:param4 <- [SP+36]
	#DEBUG_VALUE: _i.i2c_master_async_if._chan_yield.write:param3 <- R4
	#DEBUG_VALUE: _i.i2c_master_async_if._chan_yield.write:param2 <- R5
	{
		mov r4, r3
		mov r5, r2
	}
	#DEBUG_VALUE: _i.i2c_master_async_if._chan_yield.write:param1 <- R6
	{
		mov r6, r1
		ldw r9, sp[9]
	}
	{
		getr r7, 2
		ldw r1, r0[0]
	}
	{
		setd res[r7], r1
		nop
	}
	{
		out res[r7], r7
		nop
	}
	{
		outct res[r7], 2
		ldw r8, r0[1]
	}
	{
		mov r0, r7
		mov r1, r8
	}
	bl __interface_wait_and_yield
	{
		chkct res[r7], 1
		nop
	}
	{
		outt res[r7], r6
		stw r5, sp[1]
	}
	{
		out res[r7], r4
		nop
	}
	{
		out res[r7], r9
		nop
	}
	{
		outct res[r7], 2
		ldaw r1, sp[1]
	}
	{
		mov r0, r7
		mov r2, r8
	}
	bl __interface_client_call_y
	{
		chkct res[r7], 1
		nop
	}
	{
		freer res[r7]
		nop
	}
	ldd r9, r8, sp[3]               # 4-byte Folded Reload
	ldd r7, r6, sp[2]               # 4-byte Folded Reload
	ldd r5, r4, sp[1]               # 4-byte Folded Reload
	{
		nop
		retsp 8
	}
	# RETURN_REG_HOLDER
	.cc_bottom _i.i2c_master_async_if._chan_yield.write.function
	.set	_i.i2c_master_async_if._chan_yield.write.nstackwords,((($D __interface_wait_and_yield.nstackwords ? __interface_wait_and_yield.nstackwords $: _i.i2c_master_async_if._client_call_y.max.nstackwords) $M _i.i2c_master_async_if._client_call_y.max.nstackwords $M ($D __interface_client_call_y.nstackwords ? __interface_client_call_y.nstackwords $: _i.i2c_master_async_if._client_call_y.max.nstackwords)) + 8)
	.globl	_i.i2c_master_async_if._chan_yield.write.nstackwords
	.weak	_i.i2c_master_async_if._chan_yield.write.nstackwords
	.set	_i.i2c_master_async_if._chan_yield.write.maxcores,($D __interface_client_call_y.maxcores ? __interface_client_call_y.maxcores $: _i.i2c_master_async_if._client_call_y.max.maxcores) $M ($D __interface_wait_and_yield.maxcores ? __interface_wait_and_yield.maxcores $: _i.i2c_master_async_if._client_call_y.max.maxcores) $M 1
	.globl	_i.i2c_master_async_if._chan_yield.write.maxcores
	.weak	_i.i2c_master_async_if._chan_yield.write.maxcores
	.set	_i.i2c_master_async_if._chan_yield.write.maxtimers,($D __interface_client_call_y.maxtimers ? __interface_client_call_y.maxtimers $: _i.i2c_master_async_if._client_call_y.max.maxtimers) $M ($D __interface_wait_and_yield.maxtimers ? __interface_wait_and_yield.maxtimers $: _i.i2c_master_async_if._client_call_y.max.maxtimers) $M 0
	.globl	_i.i2c_master_async_if._chan_yield.write.maxtimers
	.weak	_i.i2c_master_async_if._chan_yield.write.maxtimers
	.set	_i.i2c_master_async_if._chan_yield.write.maxchanends,(1 + ($D __interface_client_call_y.maxchanends ? __interface_client_call_y.maxchanends $: _i.i2c_master_async_if._client_call_y.max.maxchanends)) $M (1 + ($D __interface_wait_and_yield.maxchanends ? __interface_wait_and_yield.maxchanends $: _i.i2c_master_async_if._client_call_y.max.maxchanends)) $M 1
	.globl	_i.i2c_master_async_if._chan_yield.write.maxchanends
	.weak	_i.i2c_master_async_if._chan_yield.write.maxchanends
.Ltmp246:
	.size	_i.i2c_master_async_if._chan_yield.write, .Ltmp246-_i.i2c_master_async_if._chan_yield.write
	.cfi_endproc

	.weak	_i.i2c_slave_callback_if._chan.stop_bit
	.align	4
	.type	_i.i2c_slave_callback_if._chan.stop_bit,@function
	.cc_top _i.i2c_slave_callback_if._chan.stop_bit.function,_i.i2c_slave_callback_if._chan.stop_bit
_i.i2c_slave_callback_if._chan.stop_bit: # @_i.i2c_slave_callback_if._chan.stop_bit
	.cfi_startproc
	.issue_mode dual
# BB#0:                                 # %allocas
	{
		nop
		dualentsp 4
	}
.Ltmp247:
	.cfi_def_cfa_offset 16
.Ltmp248:
	.cfi_offset 15, 0
.Ltmp249:
	.cfi_offset 4, -8
	#DEBUG_VALUE: _i.i2c_slave_callback_if._chan.stop_bit:dest <- R0
	{
		getr r4, 2
		stw r4, sp[2]
	}
	{
		setd res[r4], r0
		add r0, r4, 8
	}
	{
		out res[r4], r0
		nop
	}
	{
		outct res[r4], 2
		ldc r1, 0
	}
	{
		mov r0, r4
		nop
	}
	bl __interface_wait_and_yield
	{
		in r0, res[r4]
		nop
	}
	{
		chkct res[r4], 1
		nop
	}
	{
		freer res[r4]
		ldw r4, sp[2]
	}
	{
		nop
		retsp 4
	}
	# RETURN_REG_HOLDER
	.cc_bottom _i.i2c_slave_callback_if._chan.stop_bit.function
	.set	_i.i2c_slave_callback_if._chan.stop_bit.nstackwords,((_i.i2c_slave_callback_if._client_call_y.max.nstackwords $M ($D __interface_wait_and_yield.nstackwords ? __interface_wait_and_yield.nstackwords $: _i.i2c_slave_callback_if._client_call_y.max.nstackwords)) + 4)
	.globl	_i.i2c_slave_callback_if._chan.stop_bit.nstackwords
	.weak	_i.i2c_slave_callback_if._chan.stop_bit.nstackwords
	.set	_i.i2c_slave_callback_if._chan.stop_bit.maxcores,($D __interface_wait_and_yield.maxcores ? __interface_wait_and_yield.maxcores $: _i.i2c_slave_callback_if._client_call_y.max.maxcores) $M 1
	.globl	_i.i2c_slave_callback_if._chan.stop_bit.maxcores
	.weak	_i.i2c_slave_callback_if._chan.stop_bit.maxcores
	.set	_i.i2c_slave_callback_if._chan.stop_bit.maxtimers,($D __interface_wait_and_yield.maxtimers ? __interface_wait_and_yield.maxtimers $: _i.i2c_slave_callback_if._client_call_y.max.maxtimers) $M 0
	.globl	_i.i2c_slave_callback_if._chan.stop_bit.maxtimers
	.weak	_i.i2c_slave_callback_if._chan.stop_bit.maxtimers
	.set	_i.i2c_slave_callback_if._chan.stop_bit.maxchanends,(1 + ($D __interface_wait_and_yield.maxchanends ? __interface_wait_and_yield.maxchanends $: _i.i2c_slave_callback_if._client_call_y.max.maxchanends)) $M 1
	.globl	_i.i2c_slave_callback_if._chan.stop_bit.maxchanends
	.weak	_i.i2c_slave_callback_if._chan.stop_bit.maxchanends
.Ltmp250:
	.size	_i.i2c_slave_callback_if._chan.stop_bit, .Ltmp250-_i.i2c_slave_callback_if._chan.stop_bit
	.cfi_endproc

	.weak	_i.i2c_slave_callback_if._chan.master_sent_data
	.align	4
	.type	_i.i2c_slave_callback_if._chan.master_sent_data,@function
	.cc_top _i.i2c_slave_callback_if._chan.master_sent_data.function,_i.i2c_slave_callback_if._chan.master_sent_data
_i.i2c_slave_callback_if._chan.master_sent_data: # @_i.i2c_slave_callback_if._chan.master_sent_data
	.cfi_startproc
	.issue_mode dual
# BB#0:                                 # %allocas
	{
		nop
		dualentsp 4
	}
.Ltmp251:
	.cfi_def_cfa_offset 16
.Ltmp252:
	.cfi_offset 15, 0
	std r5, r4, sp[1]               # 4-byte Folded Spill
.Ltmp253:
	.cfi_offset 4, -8
.Ltmp254:
	.cfi_offset 5, -4
	#DEBUG_VALUE: _i.i2c_slave_callback_if._chan.master_sent_data:dest <- R0
	#DEBUG_VALUE: _i.i2c_slave_callback_if._chan.master_sent_data:param1 <- R1
	#DEBUG_VALUE: _i.i2c_slave_callback_if._chan.master_sent_data:param1 <- R4
	{
		getr r5, 2
		mov r4, r1
	}
	{
		setd res[r5], r0
		add r0, r5, 7
	}
	{
		out res[r5], r0
		nop
	}
	{
		outct res[r5], 2
		ldc r1, 0
	}
	{
		mov r0, r5
		nop
	}
	bl __interface_wait_and_yield
	{
		chkct res[r5], 1
		nop
	}
	{
		outt res[r5], r4
		nop
	}
	{
		outct res[r5], 2
		nop
	}
	{
		in r0, res[r5]
		nop
	}
	{
		in r0, res[r5]
		nop
	}
	{
		chkct res[r5], 1
		nop
	}
	{
		freer res[r5]
		nop
	}
	ldd r5, r4, sp[1]               # 4-byte Folded Reload
	{
		nop
		retsp 4
	}
	# RETURN_REG_HOLDER
	.cc_bottom _i.i2c_slave_callback_if._chan.master_sent_data.function
	.set	_i.i2c_slave_callback_if._chan.master_sent_data.nstackwords,((_i.i2c_slave_callback_if._client_call_y.max.nstackwords $M ($D __interface_wait_and_yield.nstackwords ? __interface_wait_and_yield.nstackwords $: _i.i2c_slave_callback_if._client_call_y.max.nstackwords)) + 4)
	.globl	_i.i2c_slave_callback_if._chan.master_sent_data.nstackwords
	.weak	_i.i2c_slave_callback_if._chan.master_sent_data.nstackwords
	.set	_i.i2c_slave_callback_if._chan.master_sent_data.maxcores,($D __interface_wait_and_yield.maxcores ? __interface_wait_and_yield.maxcores $: _i.i2c_slave_callback_if._client_call_y.max.maxcores) $M 1
	.globl	_i.i2c_slave_callback_if._chan.master_sent_data.maxcores
	.weak	_i.i2c_slave_callback_if._chan.master_sent_data.maxcores
	.set	_i.i2c_slave_callback_if._chan.master_sent_data.maxtimers,($D __interface_wait_and_yield.maxtimers ? __interface_wait_and_yield.maxtimers $: _i.i2c_slave_callback_if._client_call_y.max.maxtimers) $M 0
	.globl	_i.i2c_slave_callback_if._chan.master_sent_data.maxtimers
	.weak	_i.i2c_slave_callback_if._chan.master_sent_data.maxtimers
	.set	_i.i2c_slave_callback_if._chan.master_sent_data.maxchanends,(1 + ($D __interface_wait_and_yield.maxchanends ? __interface_wait_and_yield.maxchanends $: _i.i2c_slave_callback_if._client_call_y.max.maxchanends)) $M 1
	.globl	_i.i2c_slave_callback_if._chan.master_sent_data.maxchanends
	.weak	_i.i2c_slave_callback_if._chan.master_sent_data.maxchanends
.Ltmp255:
	.size	_i.i2c_slave_callback_if._chan.master_sent_data, .Ltmp255-_i.i2c_slave_callback_if._chan.master_sent_data
	.cfi_endproc

	.weak	_i.i2c_slave_callback_if._chan.start_master_write
	.align	4
	.type	_i.i2c_slave_callback_if._chan.start_master_write,@function
	.cc_top _i.i2c_slave_callback_if._chan.start_master_write.function,_i.i2c_slave_callback_if._chan.start_master_write
_i.i2c_slave_callback_if._chan.start_master_write: # @_i.i2c_slave_callback_if._chan.start_master_write
	.cfi_startproc
	.issue_mode dual
# BB#0:                                 # %allocas
	{
		nop
		dualentsp 4
	}
.Ltmp256:
	.cfi_def_cfa_offset 16
.Ltmp257:
	.cfi_offset 15, 0
.Ltmp258:
	.cfi_offset 4, -8
	#DEBUG_VALUE: _i.i2c_slave_callback_if._chan.start_master_write:dest <- R0
	{
		getr r4, 2
		stw r4, sp[2]
	}
	{
		setd res[r4], r0
		add r0, r4, 6
	}
	{
		out res[r4], r0
		nop
	}
	{
		outct res[r4], 2
		ldc r1, 0
	}
	{
		mov r0, r4
		nop
	}
	bl __interface_wait_and_yield
	{
		in r0, res[r4]
		nop
	}
	{
		chkct res[r4], 1
		nop
	}
	{
		freer res[r4]
		ldw r4, sp[2]
	}
	{
		nop
		retsp 4
	}
	# RETURN_REG_HOLDER
	.cc_bottom _i.i2c_slave_callback_if._chan.start_master_write.function
	.set	_i.i2c_slave_callback_if._chan.start_master_write.nstackwords,((_i.i2c_slave_callback_if._client_call_y.max.nstackwords $M ($D __interface_wait_and_yield.nstackwords ? __interface_wait_and_yield.nstackwords $: _i.i2c_slave_callback_if._client_call_y.max.nstackwords)) + 4)
	.globl	_i.i2c_slave_callback_if._chan.start_master_write.nstackwords
	.weak	_i.i2c_slave_callback_if._chan.start_master_write.nstackwords
	.set	_i.i2c_slave_callback_if._chan.start_master_write.maxcores,($D __interface_wait_and_yield.maxcores ? __interface_wait_and_yield.maxcores $: _i.i2c_slave_callback_if._client_call_y.max.maxcores) $M 1
	.globl	_i.i2c_slave_callback_if._chan.start_master_write.maxcores
	.weak	_i.i2c_slave_callback_if._chan.start_master_write.maxcores
	.set	_i.i2c_slave_callback_if._chan.start_master_write.maxtimers,($D __interface_wait_and_yield.maxtimers ? __interface_wait_and_yield.maxtimers $: _i.i2c_slave_callback_if._client_call_y.max.maxtimers) $M 0
	.globl	_i.i2c_slave_callback_if._chan.start_master_write.maxtimers
	.weak	_i.i2c_slave_callback_if._chan.start_master_write.maxtimers
	.set	_i.i2c_slave_callback_if._chan.start_master_write.maxchanends,(1 + ($D __interface_wait_and_yield.maxchanends ? __interface_wait_and_yield.maxchanends $: _i.i2c_slave_callback_if._client_call_y.max.maxchanends)) $M 1
	.globl	_i.i2c_slave_callback_if._chan.start_master_write.maxchanends
	.weak	_i.i2c_slave_callback_if._chan.start_master_write.maxchanends
.Ltmp259:
	.size	_i.i2c_slave_callback_if._chan.start_master_write, .Ltmp259-_i.i2c_slave_callback_if._chan.start_master_write
	.cfi_endproc

	.weak	_i.i2c_slave_callback_if._chan.master_requires_data
	.align	4
	.type	_i.i2c_slave_callback_if._chan.master_requires_data,@function
	.cc_top _i.i2c_slave_callback_if._chan.master_requires_data.function,_i.i2c_slave_callback_if._chan.master_requires_data
_i.i2c_slave_callback_if._chan.master_requires_data: # @_i.i2c_slave_callback_if._chan.master_requires_data
	.cfi_startproc
	.issue_mode dual
# BB#0:                                 # %allocas
	{
		nop
		dualentsp 4
	}
.Ltmp260:
	.cfi_def_cfa_offset 16
.Ltmp261:
	.cfi_offset 15, 0
.Ltmp262:
	.cfi_offset 4, -8
	#DEBUG_VALUE: _i.i2c_slave_callback_if._chan.master_requires_data:dest <- R0
	{
		getr r4, 2
		stw r4, sp[2]
	}
	{
		setd res[r4], r0
		add r0, r4, 5
	}
	{
		out res[r4], r0
		nop
	}
	{
		outct res[r4], 2
		ldc r1, 0
	}
	{
		mov r0, r4
		nop
	}
	bl __interface_wait_and_yield
	{
		in r0, res[r4]
		nop
	}
	{
		int r0, res[r4]
		nop
	}
	{
		chkct res[r4], 1
		nop
	}
	{
		freer res[r4]
		ldw r4, sp[2]
	}
	{
		nop
		retsp 4
	}
	# RETURN_REG_HOLDER
	.cc_bottom _i.i2c_slave_callback_if._chan.master_requires_data.function
	.set	_i.i2c_slave_callback_if._chan.master_requires_data.nstackwords,((_i.i2c_slave_callback_if._client_call_y.max.nstackwords $M ($D __interface_wait_and_yield.nstackwords ? __interface_wait_and_yield.nstackwords $: _i.i2c_slave_callback_if._client_call_y.max.nstackwords)) + 4)
	.globl	_i.i2c_slave_callback_if._chan.master_requires_data.nstackwords
	.weak	_i.i2c_slave_callback_if._chan.master_requires_data.nstackwords
	.set	_i.i2c_slave_callback_if._chan.master_requires_data.maxcores,($D __interface_wait_and_yield.maxcores ? __interface_wait_and_yield.maxcores $: _i.i2c_slave_callback_if._client_call_y.max.maxcores) $M 1
	.globl	_i.i2c_slave_callback_if._chan.master_requires_data.maxcores
	.weak	_i.i2c_slave_callback_if._chan.master_requires_data.maxcores
	.set	_i.i2c_slave_callback_if._chan.master_requires_data.maxtimers,($D __interface_wait_and_yield.maxtimers ? __interface_wait_and_yield.maxtimers $: _i.i2c_slave_callback_if._client_call_y.max.maxtimers) $M 0
	.globl	_i.i2c_slave_callback_if._chan.master_requires_data.maxtimers
	.weak	_i.i2c_slave_callback_if._chan.master_requires_data.maxtimers
	.set	_i.i2c_slave_callback_if._chan.master_requires_data.maxchanends,(1 + ($D __interface_wait_and_yield.maxchanends ? __interface_wait_and_yield.maxchanends $: _i.i2c_slave_callback_if._client_call_y.max.maxchanends)) $M 1
	.globl	_i.i2c_slave_callback_if._chan.master_requires_data.maxchanends
	.weak	_i.i2c_slave_callback_if._chan.master_requires_data.maxchanends
.Ltmp263:
	.size	_i.i2c_slave_callback_if._chan.master_requires_data, .Ltmp263-_i.i2c_slave_callback_if._chan.master_requires_data
	.cfi_endproc

	.weak	_i.i2c_slave_callback_if._chan.start_master_read
	.align	4
	.type	_i.i2c_slave_callback_if._chan.start_master_read,@function
	.cc_top _i.i2c_slave_callback_if._chan.start_master_read.function,_i.i2c_slave_callback_if._chan.start_master_read
_i.i2c_slave_callback_if._chan.start_master_read: # @_i.i2c_slave_callback_if._chan.start_master_read
	.cfi_startproc
	.issue_mode dual
# BB#0:                                 # %allocas
	{
		nop
		dualentsp 4
	}
.Ltmp264:
	.cfi_def_cfa_offset 16
.Ltmp265:
	.cfi_offset 15, 0
.Ltmp266:
	.cfi_offset 4, -8
	#DEBUG_VALUE: _i.i2c_slave_callback_if._chan.start_master_read:dest <- R0
	{
		getr r4, 2
		stw r4, sp[2]
	}
	{
		setd res[r4], r0
		add r0, r4, 4
	}
	{
		out res[r4], r0
		nop
	}
	{
		outct res[r4], 2
		ldc r1, 0
	}
	{
		mov r0, r4
		nop
	}
	bl __interface_wait_and_yield
	{
		in r0, res[r4]
		nop
	}
	{
		chkct res[r4], 1
		nop
	}
	{
		freer res[r4]
		ldw r4, sp[2]
	}
	{
		nop
		retsp 4
	}
	# RETURN_REG_HOLDER
	.cc_bottom _i.i2c_slave_callback_if._chan.start_master_read.function
	.set	_i.i2c_slave_callback_if._chan.start_master_read.nstackwords,((_i.i2c_slave_callback_if._client_call_y.max.nstackwords $M ($D __interface_wait_and_yield.nstackwords ? __interface_wait_and_yield.nstackwords $: _i.i2c_slave_callback_if._client_call_y.max.nstackwords)) + 4)
	.globl	_i.i2c_slave_callback_if._chan.start_master_read.nstackwords
	.weak	_i.i2c_slave_callback_if._chan.start_master_read.nstackwords
	.set	_i.i2c_slave_callback_if._chan.start_master_read.maxcores,($D __interface_wait_and_yield.maxcores ? __interface_wait_and_yield.maxcores $: _i.i2c_slave_callback_if._client_call_y.max.maxcores) $M 1
	.globl	_i.i2c_slave_callback_if._chan.start_master_read.maxcores
	.weak	_i.i2c_slave_callback_if._chan.start_master_read.maxcores
	.set	_i.i2c_slave_callback_if._chan.start_master_read.maxtimers,($D __interface_wait_and_yield.maxtimers ? __interface_wait_and_yield.maxtimers $: _i.i2c_slave_callback_if._client_call_y.max.maxtimers) $M 0
	.globl	_i.i2c_slave_callback_if._chan.start_master_read.maxtimers
	.weak	_i.i2c_slave_callback_if._chan.start_master_read.maxtimers
	.set	_i.i2c_slave_callback_if._chan.start_master_read.maxchanends,(1 + ($D __interface_wait_and_yield.maxchanends ? __interface_wait_and_yield.maxchanends $: _i.i2c_slave_callback_if._client_call_y.max.maxchanends)) $M 1
	.globl	_i.i2c_slave_callback_if._chan.start_master_read.maxchanends
	.weak	_i.i2c_slave_callback_if._chan.start_master_read.maxchanends
.Ltmp267:
	.size	_i.i2c_slave_callback_if._chan.start_master_read, .Ltmp267-_i.i2c_slave_callback_if._chan.start_master_read
	.cfi_endproc

	.weak	_i.i2c_slave_callback_if._chan.ack_write_request
	.align	4
	.type	_i.i2c_slave_callback_if._chan.ack_write_request,@function
	.cc_top _i.i2c_slave_callback_if._chan.ack_write_request.function,_i.i2c_slave_callback_if._chan.ack_write_request
_i.i2c_slave_callback_if._chan.ack_write_request: # @_i.i2c_slave_callback_if._chan.ack_write_request
	.cfi_startproc
	.issue_mode dual
# BB#0:                                 # %allocas
	{
		nop
		dualentsp 4
	}
.Ltmp268:
	.cfi_def_cfa_offset 16
.Ltmp269:
	.cfi_offset 15, 0
.Ltmp270:
	.cfi_offset 4, -8
	#DEBUG_VALUE: _i.i2c_slave_callback_if._chan.ack_write_request:dest <- R0
	{
		getr r4, 2
		stw r4, sp[2]
	}
	{
		setd res[r4], r0
		add r0, r4, 3
	}
	{
		out res[r4], r0
		nop
	}
	{
		outct res[r4], 2
		ldc r1, 0
	}
	{
		mov r0, r4
		nop
	}
	bl __interface_wait_and_yield
	{
		in r0, res[r4]
		nop
	}
	{
		in r0, res[r4]
		nop
	}
	{
		chkct res[r4], 1
		nop
	}
	{
		freer res[r4]
		ldw r4, sp[2]
	}
	{
		nop
		retsp 4
	}
	# RETURN_REG_HOLDER
	.cc_bottom _i.i2c_slave_callback_if._chan.ack_write_request.function
	.set	_i.i2c_slave_callback_if._chan.ack_write_request.nstackwords,((_i.i2c_slave_callback_if._client_call_y.max.nstackwords $M ($D __interface_wait_and_yield.nstackwords ? __interface_wait_and_yield.nstackwords $: _i.i2c_slave_callback_if._client_call_y.max.nstackwords)) + 4)
	.globl	_i.i2c_slave_callback_if._chan.ack_write_request.nstackwords
	.weak	_i.i2c_slave_callback_if._chan.ack_write_request.nstackwords
	.set	_i.i2c_slave_callback_if._chan.ack_write_request.maxcores,($D __interface_wait_and_yield.maxcores ? __interface_wait_and_yield.maxcores $: _i.i2c_slave_callback_if._client_call_y.max.maxcores) $M 1
	.globl	_i.i2c_slave_callback_if._chan.ack_write_request.maxcores
	.weak	_i.i2c_slave_callback_if._chan.ack_write_request.maxcores
	.set	_i.i2c_slave_callback_if._chan.ack_write_request.maxtimers,($D __interface_wait_and_yield.maxtimers ? __interface_wait_and_yield.maxtimers $: _i.i2c_slave_callback_if._client_call_y.max.maxtimers) $M 0
	.globl	_i.i2c_slave_callback_if._chan.ack_write_request.maxtimers
	.weak	_i.i2c_slave_callback_if._chan.ack_write_request.maxtimers
	.set	_i.i2c_slave_callback_if._chan.ack_write_request.maxchanends,(1 + ($D __interface_wait_and_yield.maxchanends ? __interface_wait_and_yield.maxchanends $: _i.i2c_slave_callback_if._client_call_y.max.maxchanends)) $M 1
	.globl	_i.i2c_slave_callback_if._chan.ack_write_request.maxchanends
	.weak	_i.i2c_slave_callback_if._chan.ack_write_request.maxchanends
.Ltmp271:
	.size	_i.i2c_slave_callback_if._chan.ack_write_request, .Ltmp271-_i.i2c_slave_callback_if._chan.ack_write_request
	.cfi_endproc

	.weak	_i.i2c_slave_callback_if._chan.start_write_request
	.align	4
	.type	_i.i2c_slave_callback_if._chan.start_write_request,@function
	.cc_top _i.i2c_slave_callback_if._chan.start_write_request.function,_i.i2c_slave_callback_if._chan.start_write_request
_i.i2c_slave_callback_if._chan.start_write_request: # @_i.i2c_slave_callback_if._chan.start_write_request
	.cfi_startproc
	.issue_mode dual
# BB#0:                                 # %allocas
	{
		nop
		dualentsp 4
	}
.Ltmp272:
	.cfi_def_cfa_offset 16
.Ltmp273:
	.cfi_offset 15, 0
.Ltmp274:
	.cfi_offset 4, -8
	#DEBUG_VALUE: _i.i2c_slave_callback_if._chan.start_write_request:dest <- R0
	{
		getr r4, 2
		stw r4, sp[2]
	}
	{
		setd res[r4], r0
		add r0, r4, 2
	}
	{
		out res[r4], r0
		nop
	}
	{
		outct res[r4], 2
		ldc r1, 0
	}
	{
		mov r0, r4
		nop
	}
	bl __interface_wait_and_yield
	{
		in r0, res[r4]
		nop
	}
	{
		chkct res[r4], 1
		nop
	}
	{
		freer res[r4]
		ldw r4, sp[2]
	}
	{
		nop
		retsp 4
	}
	# RETURN_REG_HOLDER
	.cc_bottom _i.i2c_slave_callback_if._chan.start_write_request.function
	.set	_i.i2c_slave_callback_if._chan.start_write_request.nstackwords,((_i.i2c_slave_callback_if._client_call_y.max.nstackwords $M ($D __interface_wait_and_yield.nstackwords ? __interface_wait_and_yield.nstackwords $: _i.i2c_slave_callback_if._client_call_y.max.nstackwords)) + 4)
	.globl	_i.i2c_slave_callback_if._chan.start_write_request.nstackwords
	.weak	_i.i2c_slave_callback_if._chan.start_write_request.nstackwords
	.set	_i.i2c_slave_callback_if._chan.start_write_request.maxcores,($D __interface_wait_and_yield.maxcores ? __interface_wait_and_yield.maxcores $: _i.i2c_slave_callback_if._client_call_y.max.maxcores) $M 1
	.globl	_i.i2c_slave_callback_if._chan.start_write_request.maxcores
	.weak	_i.i2c_slave_callback_if._chan.start_write_request.maxcores
	.set	_i.i2c_slave_callback_if._chan.start_write_request.maxtimers,($D __interface_wait_and_yield.maxtimers ? __interface_wait_and_yield.maxtimers $: _i.i2c_slave_callback_if._client_call_y.max.maxtimers) $M 0
	.globl	_i.i2c_slave_callback_if._chan.start_write_request.maxtimers
	.weak	_i.i2c_slave_callback_if._chan.start_write_request.maxtimers
	.set	_i.i2c_slave_callback_if._chan.start_write_request.maxchanends,(1 + ($D __interface_wait_and_yield.maxchanends ? __interface_wait_and_yield.maxchanends $: _i.i2c_slave_callback_if._client_call_y.max.maxchanends)) $M 1
	.globl	_i.i2c_slave_callback_if._chan.start_write_request.maxchanends
	.weak	_i.i2c_slave_callback_if._chan.start_write_request.maxchanends
.Ltmp275:
	.size	_i.i2c_slave_callback_if._chan.start_write_request, .Ltmp275-_i.i2c_slave_callback_if._chan.start_write_request
	.cfi_endproc

	.weak	_i.i2c_slave_callback_if._chan.ack_read_request
	.align	4
	.type	_i.i2c_slave_callback_if._chan.ack_read_request,@function
	.cc_top _i.i2c_slave_callback_if._chan.ack_read_request.function,_i.i2c_slave_callback_if._chan.ack_read_request
_i.i2c_slave_callback_if._chan.ack_read_request: # @_i.i2c_slave_callback_if._chan.ack_read_request
	.cfi_startproc
	.issue_mode dual
# BB#0:                                 # %allocas
	{
		nop
		dualentsp 4
	}
.Ltmp276:
	.cfi_def_cfa_offset 16
.Ltmp277:
	.cfi_offset 15, 0
.Ltmp278:
	.cfi_offset 4, -8
	#DEBUG_VALUE: _i.i2c_slave_callback_if._chan.ack_read_request:dest <- R0
	{
		getr r4, 2
		stw r4, sp[2]
	}
	{
		setd res[r4], r0
		add r0, r4, 1
	}
	{
		out res[r4], r0
		nop
	}
	{
		outct res[r4], 2
		ldc r1, 0
	}
	{
		mov r0, r4
		nop
	}
	bl __interface_wait_and_yield
	{
		in r0, res[r4]
		nop
	}
	{
		in r0, res[r4]
		nop
	}
	{
		chkct res[r4], 1
		nop
	}
	{
		freer res[r4]
		ldw r4, sp[2]
	}
	{
		nop
		retsp 4
	}
	# RETURN_REG_HOLDER
	.cc_bottom _i.i2c_slave_callback_if._chan.ack_read_request.function
	.set	_i.i2c_slave_callback_if._chan.ack_read_request.nstackwords,((_i.i2c_slave_callback_if._client_call_y.max.nstackwords $M ($D __interface_wait_and_yield.nstackwords ? __interface_wait_and_yield.nstackwords $: _i.i2c_slave_callback_if._client_call_y.max.nstackwords)) + 4)
	.globl	_i.i2c_slave_callback_if._chan.ack_read_request.nstackwords
	.weak	_i.i2c_slave_callback_if._chan.ack_read_request.nstackwords
	.set	_i.i2c_slave_callback_if._chan.ack_read_request.maxcores,($D __interface_wait_and_yield.maxcores ? __interface_wait_and_yield.maxcores $: _i.i2c_slave_callback_if._client_call_y.max.maxcores) $M 1
	.globl	_i.i2c_slave_callback_if._chan.ack_read_request.maxcores
	.weak	_i.i2c_slave_callback_if._chan.ack_read_request.maxcores
	.set	_i.i2c_slave_callback_if._chan.ack_read_request.maxtimers,($D __interface_wait_and_yield.maxtimers ? __interface_wait_and_yield.maxtimers $: _i.i2c_slave_callback_if._client_call_y.max.maxtimers) $M 0
	.globl	_i.i2c_slave_callback_if._chan.ack_read_request.maxtimers
	.weak	_i.i2c_slave_callback_if._chan.ack_read_request.maxtimers
	.set	_i.i2c_slave_callback_if._chan.ack_read_request.maxchanends,(1 + ($D __interface_wait_and_yield.maxchanends ? __interface_wait_and_yield.maxchanends $: _i.i2c_slave_callback_if._client_call_y.max.maxchanends)) $M 1
	.globl	_i.i2c_slave_callback_if._chan.ack_read_request.maxchanends
	.weak	_i.i2c_slave_callback_if._chan.ack_read_request.maxchanends
.Ltmp279:
	.size	_i.i2c_slave_callback_if._chan.ack_read_request, .Ltmp279-_i.i2c_slave_callback_if._chan.ack_read_request
	.cfi_endproc

	.weak	_i.i2c_slave_callback_if._chan.start_read_request
	.align	4
	.type	_i.i2c_slave_callback_if._chan.start_read_request,@function
	.cc_top _i.i2c_slave_callback_if._chan.start_read_request.function,_i.i2c_slave_callback_if._chan.start_read_request
_i.i2c_slave_callback_if._chan.start_read_request: # @_i.i2c_slave_callback_if._chan.start_read_request
	.cfi_startproc
	.issue_mode dual
# BB#0:                                 # %allocas
	{
		nop
		dualentsp 4
	}
.Ltmp280:
	.cfi_def_cfa_offset 16
.Ltmp281:
	.cfi_offset 15, 0
.Ltmp282:
	.cfi_offset 4, -8
	#DEBUG_VALUE: _i.i2c_slave_callback_if._chan.start_read_request:dest <- R0
	{
		getr r4, 2
		stw r4, sp[2]
	}
	{
		setd res[r4], r0
		nop
	}
	{
		out res[r4], r4
		nop
	}
	{
		outct res[r4], 2
		ldc r1, 0
	}
	{
		mov r0, r4
		nop
	}
	bl __interface_wait_and_yield
	{
		in r0, res[r4]
		nop
	}
	{
		chkct res[r4], 1
		nop
	}
	{
		freer res[r4]
		ldw r4, sp[2]
	}
	{
		nop
		retsp 4
	}
	# RETURN_REG_HOLDER
	.cc_bottom _i.i2c_slave_callback_if._chan.start_read_request.function
	.set	_i.i2c_slave_callback_if._chan.start_read_request.nstackwords,((_i.i2c_slave_callback_if._client_call_y.max.nstackwords $M ($D __interface_wait_and_yield.nstackwords ? __interface_wait_and_yield.nstackwords $: _i.i2c_slave_callback_if._client_call_y.max.nstackwords)) + 4)
	.globl	_i.i2c_slave_callback_if._chan.start_read_request.nstackwords
	.weak	_i.i2c_slave_callback_if._chan.start_read_request.nstackwords
	.set	_i.i2c_slave_callback_if._chan.start_read_request.maxcores,($D __interface_wait_and_yield.maxcores ? __interface_wait_and_yield.maxcores $: _i.i2c_slave_callback_if._client_call_y.max.maxcores) $M 1
	.globl	_i.i2c_slave_callback_if._chan.start_read_request.maxcores
	.weak	_i.i2c_slave_callback_if._chan.start_read_request.maxcores
	.set	_i.i2c_slave_callback_if._chan.start_read_request.maxtimers,($D __interface_wait_and_yield.maxtimers ? __interface_wait_and_yield.maxtimers $: _i.i2c_slave_callback_if._client_call_y.max.maxtimers) $M 0
	.globl	_i.i2c_slave_callback_if._chan.start_read_request.maxtimers
	.weak	_i.i2c_slave_callback_if._chan.start_read_request.maxtimers
	.set	_i.i2c_slave_callback_if._chan.start_read_request.maxchanends,(1 + ($D __interface_wait_and_yield.maxchanends ? __interface_wait_and_yield.maxchanends $: _i.i2c_slave_callback_if._client_call_y.max.maxchanends)) $M 1
	.globl	_i.i2c_slave_callback_if._chan.start_read_request.maxchanends
	.weak	_i.i2c_slave_callback_if._chan.start_read_request.maxchanends
.Ltmp283:
	.size	_i.i2c_slave_callback_if._chan.start_read_request, .Ltmp283-_i.i2c_slave_callback_if._chan.start_read_request
	.cfi_endproc

	.weak	_i.i2c_slave_callback_if._chan_yield.stop_bit
	.align	4
	.type	_i.i2c_slave_callback_if._chan_yield.stop_bit,@function
	.cc_top _i.i2c_slave_callback_if._chan_yield.stop_bit.function,_i.i2c_slave_callback_if._chan_yield.stop_bit
_i.i2c_slave_callback_if._chan_yield.stop_bit: # @_i.i2c_slave_callback_if._chan_yield.stop_bit
	.cfi_startproc
	.issue_mode dual
# BB#0:                                 # %allocas
	{
		nop
		dualentsp 4
	}
.Ltmp284:
	.cfi_def_cfa_offset 16
.Ltmp285:
	.cfi_offset 15, 0
	std r5, r4, sp[1]               # 4-byte Folded Spill
.Ltmp286:
	.cfi_offset 4, -8
.Ltmp287:
	.cfi_offset 5, -4
	#DEBUG_VALUE: _i.i2c_slave_callback_if._chan_yield.stop_bit:s <- R0
	{
		getr r4, 2
		ldw r1, r0[0]
	}
	{
		setd res[r4], r1
		add r1, r4, 8
	}
	{
		out res[r4], r1
		nop
	}
	{
		outct res[r4], 2
		ldw r5, r0[1]
	}
	{
		mov r0, r4
		mov r1, r5
	}
	bl __interface_wait_and_yield
	{
		ldc r1, 0
		mov r0, r4
	}
	{
		mov r2, r5
		nop
	}
	bl __interface_client_call_y
	{
		chkct res[r4], 1
		nop
	}
	{
		freer res[r4]
		nop
	}
	ldd r5, r4, sp[1]               # 4-byte Folded Reload
	{
		nop
		retsp 4
	}
	# RETURN_REG_HOLDER
	.cc_bottom _i.i2c_slave_callback_if._chan_yield.stop_bit.function
	.set	_i.i2c_slave_callback_if._chan_yield.stop_bit.nstackwords,((($D __interface_wait_and_yield.nstackwords ? __interface_wait_and_yield.nstackwords $: _i.i2c_slave_callback_if._client_call_y.max.nstackwords) $M _i.i2c_slave_callback_if._client_call_y.max.nstackwords $M ($D __interface_client_call_y.nstackwords ? __interface_client_call_y.nstackwords $: _i.i2c_slave_callback_if._client_call_y.max.nstackwords)) + 4)
	.globl	_i.i2c_slave_callback_if._chan_yield.stop_bit.nstackwords
	.weak	_i.i2c_slave_callback_if._chan_yield.stop_bit.nstackwords
	.set	_i.i2c_slave_callback_if._chan_yield.stop_bit.maxcores,($D __interface_client_call_y.maxcores ? __interface_client_call_y.maxcores $: _i.i2c_slave_callback_if._client_call_y.max.maxcores) $M ($D __interface_wait_and_yield.maxcores ? __interface_wait_and_yield.maxcores $: _i.i2c_slave_callback_if._client_call_y.max.maxcores) $M 1
	.globl	_i.i2c_slave_callback_if._chan_yield.stop_bit.maxcores
	.weak	_i.i2c_slave_callback_if._chan_yield.stop_bit.maxcores
	.set	_i.i2c_slave_callback_if._chan_yield.stop_bit.maxtimers,($D __interface_client_call_y.maxtimers ? __interface_client_call_y.maxtimers $: _i.i2c_slave_callback_if._client_call_y.max.maxtimers) $M ($D __interface_wait_and_yield.maxtimers ? __interface_wait_and_yield.maxtimers $: _i.i2c_slave_callback_if._client_call_y.max.maxtimers) $M 0
	.globl	_i.i2c_slave_callback_if._chan_yield.stop_bit.maxtimers
	.weak	_i.i2c_slave_callback_if._chan_yield.stop_bit.maxtimers
	.set	_i.i2c_slave_callback_if._chan_yield.stop_bit.maxchanends,(1 + ($D __interface_client_call_y.maxchanends ? __interface_client_call_y.maxchanends $: _i.i2c_slave_callback_if._client_call_y.max.maxchanends)) $M (1 + ($D __interface_wait_and_yield.maxchanends ? __interface_wait_and_yield.maxchanends $: _i.i2c_slave_callback_if._client_call_y.max.maxchanends)) $M 1
	.globl	_i.i2c_slave_callback_if._chan_yield.stop_bit.maxchanends
	.weak	_i.i2c_slave_callback_if._chan_yield.stop_bit.maxchanends
.Ltmp288:
	.size	_i.i2c_slave_callback_if._chan_yield.stop_bit, .Ltmp288-_i.i2c_slave_callback_if._chan_yield.stop_bit
	.cfi_endproc

	.weak	_i.i2c_slave_callback_if._chan_yield.master_sent_data
	.align	4
	.type	_i.i2c_slave_callback_if._chan_yield.master_sent_data,@function
	.cc_top _i.i2c_slave_callback_if._chan_yield.master_sent_data.function,_i.i2c_slave_callback_if._chan_yield.master_sent_data
_i.i2c_slave_callback_if._chan_yield.master_sent_data: # @_i.i2c_slave_callback_if._chan_yield.master_sent_data
	.cfi_startproc
	.issue_mode dual
# BB#0:                                 # %allocas
	{
		nop
		dualentsp 6
	}
.Ltmp289:
	.cfi_def_cfa_offset 24
.Ltmp290:
	.cfi_offset 15, 0
	std r5, r4, sp[1]               # 4-byte Folded Spill
.Ltmp291:
	.cfi_offset 4, -16
.Ltmp292:
	.cfi_offset 5, -12
.Ltmp293:
	.cfi_offset 6, -8
	#DEBUG_VALUE: _i.i2c_slave_callback_if._chan_yield.master_sent_data:s <- R0
	#DEBUG_VALUE: _i.i2c_slave_callback_if._chan_yield.master_sent_data:param1 <- R1
	#DEBUG_VALUE: _i.i2c_slave_callback_if._chan_yield.master_sent_data:param1 <- R4
	{
		mov r4, r1
		stw r6, sp[4]
	}
	{
		getr r5, 2
		ldw r1, r0[0]
	}
	{
		setd res[r5], r1
		add r1, r5, 7
	}
	{
		out res[r5], r1
		nop
	}
	{
		outct res[r5], 2
		ldw r6, r0[1]
	}
	{
		mov r0, r5
		mov r1, r6
	}
	bl __interface_wait_and_yield
	{
		chkct res[r5], 1
		nop
	}
	{
		outt res[r5], r4
		nop
	}
	{
		outct res[r5], 2
		ldc r1, 0
	}
	{
		mov r0, r5
		mov r2, r6
	}
	bl __interface_client_call_y
	{
		in r0, res[r5]
		nop
	}
	{
		chkct res[r5], 1
		nop
	}
	{
		freer res[r5]
		ldw r6, sp[4]
	}
	ldd r5, r4, sp[1]               # 4-byte Folded Reload
	{
		nop
		retsp 6
	}
	# RETURN_REG_HOLDER
	.cc_bottom _i.i2c_slave_callback_if._chan_yield.master_sent_data.function
	.set	_i.i2c_slave_callback_if._chan_yield.master_sent_data.nstackwords,((($D __interface_wait_and_yield.nstackwords ? __interface_wait_and_yield.nstackwords $: _i.i2c_slave_callback_if._client_call_y.max.nstackwords) $M _i.i2c_slave_callback_if._client_call_y.max.nstackwords $M ($D __interface_client_call_y.nstackwords ? __interface_client_call_y.nstackwords $: _i.i2c_slave_callback_if._client_call_y.max.nstackwords)) + 6)
	.globl	_i.i2c_slave_callback_if._chan_yield.master_sent_data.nstackwords
	.weak	_i.i2c_slave_callback_if._chan_yield.master_sent_data.nstackwords
	.set	_i.i2c_slave_callback_if._chan_yield.master_sent_data.maxcores,($D __interface_client_call_y.maxcores ? __interface_client_call_y.maxcores $: _i.i2c_slave_callback_if._client_call_y.max.maxcores) $M ($D __interface_wait_and_yield.maxcores ? __interface_wait_and_yield.maxcores $: _i.i2c_slave_callback_if._client_call_y.max.maxcores) $M 1
	.globl	_i.i2c_slave_callback_if._chan_yield.master_sent_data.maxcores
	.weak	_i.i2c_slave_callback_if._chan_yield.master_sent_data.maxcores
	.set	_i.i2c_slave_callback_if._chan_yield.master_sent_data.maxtimers,($D __interface_client_call_y.maxtimers ? __interface_client_call_y.maxtimers $: _i.i2c_slave_callback_if._client_call_y.max.maxtimers) $M ($D __interface_wait_and_yield.maxtimers ? __interface_wait_and_yield.maxtimers $: _i.i2c_slave_callback_if._client_call_y.max.maxtimers) $M 0
	.globl	_i.i2c_slave_callback_if._chan_yield.master_sent_data.maxtimers
	.weak	_i.i2c_slave_callback_if._chan_yield.master_sent_data.maxtimers
	.set	_i.i2c_slave_callback_if._chan_yield.master_sent_data.maxchanends,(1 + ($D __interface_client_call_y.maxchanends ? __interface_client_call_y.maxchanends $: _i.i2c_slave_callback_if._client_call_y.max.maxchanends)) $M (1 + ($D __interface_wait_and_yield.maxchanends ? __interface_wait_and_yield.maxchanends $: _i.i2c_slave_callback_if._client_call_y.max.maxchanends)) $M 1
	.globl	_i.i2c_slave_callback_if._chan_yield.master_sent_data.maxchanends
	.weak	_i.i2c_slave_callback_if._chan_yield.master_sent_data.maxchanends
.Ltmp294:
	.size	_i.i2c_slave_callback_if._chan_yield.master_sent_data, .Ltmp294-_i.i2c_slave_callback_if._chan_yield.master_sent_data
	.cfi_endproc

	.weak	_i.i2c_slave_callback_if._chan_yield.start_master_write
	.align	4
	.type	_i.i2c_slave_callback_if._chan_yield.start_master_write,@function
