	.text
	.file	"src_mrhf_asrc_wrapper.c"
	.text
	.globl	asrc_init
	.align	4
	.type	asrc_init,@function
	.cc_top asrc_init.function,asrc_init
asrc_init:
.Lfunc_begin0:
	.file	4 "C:/Users/user/workspace/lib_src/src/multirate_hifi/asrc\\src_mrhf_asrc_wrapper.c"
	.loc	4 27 0
	.cfi_startproc
	.issue_mode dual
	{
		nop
		dualentsp 12
	}
.Ltmp0:
	.cfi_def_cfa_offset 48
.Ltmp1:
	.cfi_offset 15, 0
	std r5, r4, sp[2]
.Ltmp2:
	.cfi_offset 4, -32
.Ltmp3:
	.cfi_offset 5, -28
	std r7, r6, sp[3]
.Ltmp4:
	.cfi_offset 6, -24
.Ltmp5:
	.cfi_offset 7, -20
	std r9, r8, sp[4]
.Ltmp6:
	.cfi_offset 8, -16
.Ltmp7:
	.cfi_offset 9, -12
.Ltmp8:
	.cfi_offset 10, -8
.Ltmp9:
	{
		mov r5, r3
		stw r10, sp[10]
	}
.Ltmp10:
	{
		mov r4, r2
		stw r1, sp[3]
	}
.Ltmp11:
	{
		nop
		stw r0, sp[2]
	}
.Ltmp12:
	.loc	4 32 16 prologue_end
	bl ASRC_prepare_coefs
.Ltmp13:
	.loc	4 33 9
	bt r0, .LBB0_14
.Ltmp14:
	{
		nop
		ldw r1, sp[13]
	}
	.loc	4 36 9
.Ltmp15:
	{
		mov r0, r1
		nop
	}
	{
		zext r0, 1
		nop
	}
	bt r0, .LBB0_15
.Ltmp16:
	{
		mkmsk r0, 2
		nop
	}
	{
		lsu r0, r0, r1
		nop
	}
	bf r0, .LBB0_15
.Ltmp17:
	.loc	4 37 9
	bf r5, .LBB0_7
.Ltmp18:
	{
		mov r7, r1
		ldc r6, 0
	}
.Ltmp19:
	ldc r9, 248
	{
		ldc r10, 0
		mov r8, r4
	}
.Ltmp20:
	{
		mov r4, r6
		stw r4, sp[1]
	}
.Ltmp21:
.LBB0_5:
	{
		nop
		stw r5, r8[2]
	}
	{
		nop
		ldw r0, sp[2]
	}
	{
		nop
		stw r0, r8[6]
	}
	{
		nop
		ldw r0, sp[3]
	}
	{
		nop
		stw r0, r8[9]
	}
	{
		nop
		stw r7, r8[4]
	}
	ldc r0, 224
	{
		add r0, r8, r0
		ldw r1, sp[14]
	}
	{
		nop
		stw r1, r0[0]
	}
	ldc r0, 228
	{
		add r0, r8, r0
		nop
	}
	.loc	4 54 9
.Ltmp22:
	{
		mov r0, r8
		stw r6, r0[0]
	}
	.loc	4 57 20
	bl ASRC_init
.Ltmp23:
	bt r0, .LBB0_6
.Ltmp24:
	.loc	4 40 47
	{
		add r4, r4, 1
		add r8, r8, r9
	}
.Ltmp25:
	ldc r0, 12345
	.loc	4 40 5
	{
		add r6, r6, r0
		lsu r0, r4, r5
	}
	bt r0, .LBB0_5
.Ltmp26:
	{
		nop
		ldw r4, sp[1]
	}
.Ltmp27:
	{
		mov r6, r4
		nop
	}
.Ltmp28:
.LBB0_11:
	.loc	4 65 20
	{
		mov r0, r6
		nop
	}
	bl ASRC_sync
.Ltmp29:
	.loc	4 66 13
	bt r0, .LBB0_12
.Ltmp30:
	.loc	4 64 47
	{
		add r10, r10, 1
		add r6, r6, r9
	}
.Ltmp31:
	.loc	4 64 5
	{
		lsu r0, r10, r5
		nop
	}
	bt r0, .LBB0_11
.Ltmp32:
	ldc r0, 204
	.loc	4 69 5
	{
		add r0, r4, r0
		nop
	}
	{
		nop
		ldw r0, r0[0]
	}
	{
		nop
		ldw r10, sp[10]
	}
	.loc	4 69 5
	ldd r9, r8, sp[4]
	ldd r7, r6, sp[3]
	ldd r5, r4, sp[2]
.Ltmp33:
	{
		nop
		retsp 12
	}
	# RETURN_REG_HOLDER
.LBB0_6:
	{
		ldc r0, 11
		nop
	}
	.loc	4 58 40
.Ltmp34:
	bl asrc_error
.Ltmp35:
.LBB0_12:
	{
		ldc r0, 12
		nop
	}
	.loc	4 66 40
.Ltmp36:
	bl asrc_error
.Ltmp37:
.LBB0_14:
	{
		ldc r0, 10
		nop
	}
	.loc	4 33 36
.Ltmp38:
	bl asrc_error
.Ltmp39:
.LBB0_15:
	ldc r0, 100
	.loc	4 36 53
.Ltmp40:
	bl asrc_error
.Ltmp41:
.LBB0_7:
	ldc r0, 101
	.loc	4 37 38
.Ltmp42:
	bl asrc_error
.Ltmp43:
	.cc_bottom asrc_init.function
	.set	asrc_init.nstackwords,((ASRC_prepare_coefs.nstackwords $M ASRC_init.nstackwords $M ASRC_sync.nstackwords $M asrc_error.nstackwords) + 12)
	.globl	asrc_init.nstackwords
	.set	asrc_init.maxcores,ASRC_init.maxcores $M ASRC_prepare_coefs.maxcores $M ASRC_sync.maxcores $M asrc_error.maxcores $M 1
	.globl	asrc_init.maxcores
	.set	asrc_init.maxtimers,ASRC_init.maxtimers $M ASRC_prepare_coefs.maxtimers $M ASRC_sync.maxtimers $M asrc_error.maxtimers $M 0
	.globl	asrc_init.maxtimers
	.set	asrc_init.maxchanends,ASRC_init.maxchanends $M ASRC_prepare_coefs.maxchanends $M ASRC_sync.maxchanends $M asrc_error.maxchanends $M 0
	.globl	asrc_init.maxchanends
.Ltmp44:
	.size	asrc_init, .Ltmp44-asrc_init
.Lfunc_end0:
	.cfi_endproc

	.section	.cp.rodata.cst4,"aMc",@progbits,4
	.cc_top .LCPI1_0.data,.LCPI1_0
	.align	4
	.type	.LCPI1_0,@object
	.size	.LCPI1_0, 4
.LCPI1_0:
	.long	100000
	.cc_bottom .LCPI1_0.data
	.text
	.align	4
	.type	asrc_error,@function
	.cc_top asrc_error.function,asrc_error
asrc_error:
.Lfunc_begin1:
	.loc	4 18 0
	.cfi_startproc
	.issue_mode dual
	{
		nop
		dualentsp 4
	}
.Ltmp45:
	.cfi_def_cfa_offset 16
.Ltmp46:
	.cfi_offset 15, 0
.Ltmp47:
	.cfi_offset 4, -8
.Ltmp48:
	{
		mov r4, r0
		stw r4, sp[2]
	}
.Ltmp49:
	ldw r0, cp[.LCPI1_0]
	{
		ldc r1, 0
		nop
	}
	.file	5 "C:\\Program Files (x86)\\XMOS\\xTIMEcomposer\\Community_14.3.3\\target/include\\timer.h"
	.loc	5 55 3 prologue_end
.Ltmp50:
	bl delay_ticks_longlong
.Ltmp51:
	.loc	4 21 5
	{
		mov r0, r4
		nop
	}
.Ltmp52:
	bl _Exit
.Ltmp53:
	.cc_bottom asrc_error.function
	.set	asrc_error.nstackwords,((delay_ticks_longlong.nstackwords $M _Exit.nstackwords) + 4)
	.set	asrc_error.maxcores,_Exit.maxcores $M delay_ticks_longlong.maxcores $M 1
	.set	asrc_error.maxtimers,_Exit.maxtimers $M delay_ticks_longlong.maxtimers $M 0
	.set	asrc_error.maxchanends,_Exit.maxchanends $M delay_ticks_longlong.maxchanends $M 0
.Ltmp54:
	.size	asrc_error, .Ltmp54-asrc_error
.Lfunc_end1:
	.cfi_endproc

	.section	.cp.rodata.cst4,"aMc",@progbits,4
	.cc_top .LCPI2_0.data,.LCPI2_0
	.align	4
	.type	.LCPI2_0,@object
	.size	.LCPI2_0, 4
.LCPI2_0:
	.long	4294967168
	.cc_bottom .LCPI2_0.data
	.cc_top .LCPI2_1.data,.LCPI2_1
	.align	4
	.type	.LCPI2_1,@object
	.size	.LCPI2_1, 4
.LCPI2_1:
	.long	1073741824
	.cc_bottom .LCPI2_1.data
	.text
	.globl	asrc_process
	.align	4
	.type	asrc_process,@function
	.cc_top asrc_process.function,asrc_process
asrc_process:
.Lfunc_begin2:
	.loc	4 72 0
	.cfi_startproc
	.issue_mode dual
	{
		nop
		dualentsp 24
	}
.Ltmp55:
	.cfi_def_cfa_offset 96
.Ltmp56:
	.cfi_offset 15, 0
	std r5, r4, sp[8]
.Ltmp57:
	.cfi_offset 4, -32
.Ltmp58:
	.cfi_offset 5, -28
	std r7, r6, sp[9]
.Ltmp59:
	.cfi_offset 6, -24
.Ltmp60:
	.cfi_offset 7, -20
	std r9, r8, sp[10]
.Ltmp61:
	.cfi_offset 8, -16
.Ltmp62:
	.cfi_offset 9, -12
	{
		nop
		stw r10, sp[22]
	}
.Ltmp63:
	.cfi_offset 10, -8
.Ltmp64:
	{
		mov r6, r2
		stw r3, sp[4]
	}
.Ltmp65:
	{
		mov r5, r1
		mov r7, r0
	}
.Ltmp66:
	{
		nop
		ldw r0, r3[2]
	}
.Ltmp67:
	{
		nop
		stw r0, sp[5]
	}
.Ltmp68:
	bf r0, .LBB2_7
.Ltmp69:
	ldc r0, 204
	{
		nop
		ldw r1, sp[4]
	}
	{
		add r0, r1, r0
		nop
	}
	{
		ldc r0, 0
		stw r0, sp[11]
	}
	{
		mov r9, r0
		mov r10, r0
	}
	{
		mov r4, r0
		nop
	}
.Ltmp70:
.LBB2_2:
	{
		nop
		ldw r0, sp[4]
	}
	{
		add r8, r0, r9
		ldw r0, sp[11]
	}
	{
		add r0, r0, r9
		nop
	}
	{
		nop
		stw r6, r0[0]
	}
	{
		nop
		ldw r1, r8[9]
	}
	{
		nop
		ldw r2, r8[6]
	}
	ldc r3, 96
	.loc	4 88 13 prologue_end
.Ltmp71:
	mul r2, r2, r3
	ldaw r3, dp[sFsRatioConfigs]
	{
		add r2, r3, r2
		shl r1, r1, 4
	}
	{
		add r1, r2, r1
		nop
	}
	{
		nop
		ldw r2, r1[1]
	}
	.loc	4 88 13
	{
		lsu r2, r6, r2
		nop
	}
	bt r2, .LBB2_4
.Ltmp72:
	{
		nop
		ldw r2, r1[2]
	}
	.loc	4 88 13
	{
		lsu r2, r2, r6
		nop
	}
	bf r2, .LBB2_5
.Ltmp73:
.LBB2_4:
	{
		nop
		ldw r6, r1[0]
	}
.Ltmp74:
.LBB2_5:
	{
		nop
		ldw r1, r1[3]
	}
	.loc	4 97 9
	{
		shr r2, r6, r1
		nop
	}
	.loc	4 97 9
	{
		ldc r2, 32
		stw r2, r0[3]
	}
	.loc	4 98 9
	{
		sub r1, r2, r1
		nop
	}
	.loc	4 98 9
	{
		shl r1, r6, r1
		nop
	}
	{
		nop
		stw r1, r0[4]
	}
	{
		nop
		stw r7, r8[3]
	}
	.loc	4 105 9
	{
		mov r0, r8
		stw r5, r8[7]
	}
	.loc	4 113 12
.Ltmp75:
	bl ASRC_proc_F1_F2
	bt r0, .LBB2_29
.Ltmp76:
	.loc	4 124 9
	{
		add r10, r10, 1
		stw r4, r8[8]
	}
.Ltmp77:
	ldc r0, 248
.Ltmp78:
	.loc	4 81 5
	{
		add r9, r9, r0
		add r7, r7, 4
	}
	.loc	4 81 5
	{
		add r5, r5, 4
		ldw r0, sp[5]
	}
	.loc	4 81 5
	{
		lsu r0, r10, r0
		nop
	}
	bt r0, .LBB2_2
.Ltmp79:
.LBB2_7:
	{
		nop
		ldw r5, sp[4]
	}
.Ltmp80:
	{
		nop
		ldw r0, r5[5]
	}
	bf r0, .LBB2_25
.Ltmp81:
	ldc r8, 208
	.loc	4 157 9
.Ltmp82:
	{
		add r9, r5, r8
		nop
	}
	{
		nop
		stw r9, sp[3]
	}
	ldc r0, 212
	.loc	4 169 13
.Ltmp83:
	{
		add r0, r5, r0
		nop
	}
	{
		nop
		stw r0, sp[9]
	}
	ldc r0, 240
	.loc	4 184 13
	{
		add r0, r5, r0
		nop
	}
	{
		nop
		stw r0, sp[8]
	}
	ldc r0, 216
	.loc	4 193 13
	{
		add r0, r5, r0
		nop
	}
	{
		nop
		stw r0, sp[7]
	}
	ldc r0, 220
	.loc	4 196 13
	{
		add r0, r5, r0
		nop
	}
	{
		ldc r0, 0
		stw r0, sp[6]
	}
	ldc r6, 184
	{
		ldaw r7, sp[12]
		nop
	}
	ldc r10, 248
	{
		nop
		stw r0, sp[10]
	}
	{
		nop
		stw r0, sp[11]
	}
.Ltmp84:
.LBB2_9:
	{
		mov r0, r5
		ldw r2, sp[5]
	}
.Ltmp85:
	{
		mov r1, r2
		nop
	}
.Ltmp86:
	bf r2, .LBB2_10
.Ltmp87:
.LBB2_26:
	ldc r2, 236
	{
		add r2, r0, r2
		nop
	}
	{
		nop
		ldw r2, r2[0]
	}
	{
		nop
		ldw r3, sp[10]
	}
	{
		nop
		ldw r3, r2[r3]
	}
	ldc r2, 168
	{
		add r11, r0, r2
		nop
	}
	.loc	4 137 13
.Ltmp88:
	{
		add r2, r0, r6
		stw r3, r11[0]
	}
	{
		nop
		ldw r4, r2[0]
	}
	{
		nop
		stw r3, r4[0]
	}
	{
		nop
		ldw r3, r11[0]
	}
	ldc r11, 192
	{
		add r11, r0, r11
		nop
	}
	{
		nop
		ldw r11, r11[0]
	}
	.loc	4 142 13
	stw r3, r4[r11]
	.loc	4 144 13
	{
		add r3, r4, 4
		nop
	}
	{
		nop
		stw r3, r2[0]
	}
	ldc r11, 188
	{
		add r11, r0, r11
		nop
	}
	{
		nop
		ldw r11, r11[0]
	}
	.loc	4 145 16
.Ltmp89:
	{
		lsu r3, r3, r11
		nop
	}
	bt r3, .LBB2_28
.Ltmp90:
	ldc r3, 176
	{
		add r3, r0, r3
		nop
	}
	{
		nop
		ldw r3, r3[0]
	}
	{
		nop
		stw r3, r2[0]
	}
.Ltmp91:
.LBB2_28:
	{
		add r2, r0, r8
		nop
	}
	{
		nop
		ldw r3, r2[0]
	}
	ldw r11, cp[.LCPI2_0]
	.loc	4 149 13
	{
		add r3, r3, r11
		nop
	}
	.loc	4 149 13
	{
		sub r1, r1, 1
		stw r3, r2[0]
	}
.Ltmp92:
	.loc	4 133 9
	{
		add r0, r0, r10
		nop
	}
	bt r1, .LBB2_26
.Ltmp93:
.LBB2_10:
	.loc	4 157 9
	{
		mkmsk r1, 7
		ldw r0, r9[0]
	}
	.loc	4 157 9
	{
		lss r1, r1, r0
		nop
	}
	bt r1, .LBB2_24
.Ltmp94:
	{
		nop
		ldw r1, sp[5]
	}
	bf r1, .LBB2_12
.Ltmp95:
.LBB2_16:
	{
		nop
		ldw r4, sp[9]
	}
	{
		nop
		ldw r1, r4[0]
	}
.Ltmp96:
	.loc	4 169 13
	{
		shr r1, r1, 1
		ldc r2, 0
	}
.Ltmp97:
	.loc	4 170 13
	lmul r2, r3, r1, r1, r2, r2
	.loc	4 172 13
	{
		add r3, r2, r2
		stw r2, sp[13]
	}
	ldw r11, cp[.LCPI2_1]
	{
		mov r8, r11
		nop
	}
	.loc	4 175 13
	{
		add r11, r1, r8
		nop
	}
	.loc	4 176 13
	{
		sub r3, r11, r3
		nop
	}
	.loc	4 176 13
	{
		sub r1, r8, r1
		stw r3, sp[14]
	}
	.loc	4 178 13
	{
		add r1, r1, r2
		nop
	}
	.loc	4 178 13
	{
		shl r0, r0, 6
		stw r1, sp[15]
	}
	.loc	4 181 13
	ldaw r1, dp[iADFirCoefs]
.Ltmp98:
	.loc	4 181 13
	{
		add r0, r1, r0
		ldw r1, sp[8]
	}
.Ltmp99:
	.loc	4 184 13
	{
		ldaw r1, sp[13]
		ldw r2, r1[0]
	}
.Ltmp100:
	{
		ldc r3, 16
		nop
	}
	.loc	4 187 13
	bl src_mrhf_spline_coeff_gen_inner_loop_asm
	{
		nop
		ldw r0, sp[7]
	}
	{
		nop
		ldw r0, r0[0]
	}
	{
		nop
		ldw r1, r9[0]
	}
	.loc	4 193 13
	{
		add r0, r1, r0
		nop
	}
	{
		nop
		stw r0, r9[0]
	}
	{
		nop
		ldw r1, r4[0]
	}
.Ltmp101:
	{
		nop
		ldw r2, sp[6]
	}
	{
		nop
		ldw r2, r2[0]
	}
	.loc	4 196 13
	{
		add r2, r1, r2
		nop
	}
	.loc	4 196 13
	{
		lsu r1, r2, r1
		stw r2, r4[0]
	}
.Ltmp102:
	bf r1, .LBB2_18
.Ltmp103:
	.loc	4 198 17
	{
		add r0, r0, 1
		nop
	}
	{
		nop
		stw r0, r9[0]
	}
.Ltmp104:
.LBB2_18:
	{
		nop
		ldw r0, sp[5]
	}
.Ltmp105:
	{
		nop
		ldw r1, sp[11]
	}
	.loc	4 209 17
.Ltmp106:
	mul r8, r1, r0
.Ltmp107:
	{
		mov r4, r5
		mov r9, r0
	}
.Ltmp108:
.LBB2_19:
	{
		nop
		ldw r0, r4[7]
	}
	.loc	4 209 17
	ldaw r0, r0[r8]
	ldc r1, 196
	{
		add r2, r4, r1
		nop
	}
	ldc r1, 172
	{
		add r5, r4, r1
		nop
	}
	.loc	4 209 17
	{
		add r0, r4, r6
		stw r0, r5[0]
	}
	{
		nop
		ldw r0, r0[0]
	}
.Ltmp109:
	ldc r1, 200
	{
		add r1, r4, r1
		nop
	}
.Ltmp110:
	.loc	4 217 17
	{
		ldc r3, 4
		ldw r1, r1[0]
	}
.Ltmp111:
	.loc	4 220 21
	{
		and r11, r0, r3
		ldw r3, r2[0]
	}
	.loc	4 221 52
	{
		mov r2, r7
		nop
	}
	.loc	4 220 21
	bf r11, .LBB2_21
.Ltmp112:
	.loc	4 220 48
	bl src_mrhf_adfir_inner_loop_asm_odd
	bu .LBB2_22
.LBB2_21:
	.loc	4 221 52
	bl src_mrhf_adfir_inner_loop_asm
.Ltmp113:
.LBB2_22:
	{
		nop
		ldw r0, sp[12]
	}
	{
		nop
		ldw r1, r5[0]
	}
	{
		nop
		stw r0, r1[0]
	}
	{
		nop
		ldw r0, r4[8]
	}
	.loc	4 225 17
	{
		add r0, r0, 1
		nop
	}
	.loc	4 225 17
	{
		sub r9, r9, 1
		stw r0, r4[8]
	}
.Ltmp114:
	.loc	4 206 13
	{
		add r4, r4, r10
		nop
	}
	bt r9, .LBB2_19
.Ltmp115:
	{
		nop
		ldw r9, sp[3]
	}
	{
		nop
		ldw r0, r9[0]
	}
	{
		nop
		ldw r1, sp[11]
	}
	.loc	4 227 13
	{
		add r1, r1, 1
		nop
	}
	{
		nop
		stw r1, sp[11]
	}
	ldc r1, 128
.Ltmp116:
	.loc	4 157 9
	{
		lss r1, r0, r1
		ldw r5, sp[4]
	}
.Ltmp117:
	ldc r8, 208
	bt r1, .LBB2_16
	bu .LBB2_24
.Ltmp118:
.LBB2_12:
	{
		nop
		ldw r1, sp[9]
	}
	{
		nop
		ldw r1, r1[0]
	}
.Ltmp119:
.LBB2_13:
	.loc	4 169 13
	{
		shr r1, r1, 1
		ldc r2, 0
	}
.Ltmp120:
	.loc	4 170 13
	lmul r2, r3, r1, r1, r2, r2
	.loc	4 172 13
	{
		add r3, r2, r2
		stw r2, sp[13]
	}
	ldw r11, cp[.LCPI2_1]
	{
		mov r4, r11
		nop
	}
	.loc	4 175 13
	{
		add r11, r1, r4
		nop
	}
	.loc	4 176 13
	{
		sub r3, r11, r3
		nop
	}
	.loc	4 176 13
	{
		sub r1, r4, r1
		stw r3, sp[14]
	}
	.loc	4 178 13
	{
		add r1, r1, r2
		nop
	}
	.loc	4 178 13
	{
		shl r0, r0, 6
		stw r1, sp[15]
	}
	.loc	4 181 13
	ldaw r1, dp[iADFirCoefs]
.Ltmp121:
	{
		add r0, r1, r0
		ldw r1, sp[8]
	}
.Ltmp122:
	.loc	4 184 13
	{
		ldaw r1, sp[13]
		ldw r2, r1[0]
	}
.Ltmp123:
	{
		ldc r3, 16
		nop
	}
	.loc	4 187 13
	bl src_mrhf_spline_coeff_gen_inner_loop_asm
	{
		nop
		ldw r0, sp[7]
	}
	{
		nop
		ldw r0, r0[0]
	}
	{
		nop
		ldw r1, r9[0]
	}
	.loc	4 193 13
	{
		add r0, r1, r0
		nop
	}
	{
		nop
		stw r0, r9[0]
	}
	{
		nop
		ldw r3, sp[9]
	}
	{
		nop
		ldw r2, r3[0]
	}
.Ltmp124:
	{
		nop
		ldw r1, sp[6]
	}
	{
		nop
		ldw r1, r1[0]
	}
	.loc	4 196 13
	{
		add r1, r2, r1
		nop
	}
	.loc	4 196 13
	{
		lsu r2, r1, r2
		stw r1, r3[0]
	}
.Ltmp125:
	bf r2, .LBB2_15
.Ltmp126:
	.loc	4 198 17
	{
		add r0, r0, 1
		nop
	}
	{
		nop
		stw r0, r9[0]
	}
.Ltmp127:
.LBB2_15:
	{
		nop
		ldw r2, sp[11]
	}
	.loc	4 227 13
	{
		add r2, r2, 1
		nop
	}
	{
		nop
		stw r2, sp[11]
	}
	ldc r2, 128
.Ltmp128:
	.loc	4 157 9
	{
		lss r2, r0, r2
		nop
	}
	bt r2, .LBB2_13
.Ltmp129:
.LBB2_24:
	{
		nop
		ldw r1, sp[10]
	}
	.loc	4 130 51
	{
		add r1, r1, 1
		nop
	}
.Ltmp130:
	{
		nop
		stw r1, sp[10]
	}
	{
		nop
		ldw r0, r5[5]
	}
	.loc	4 130 5
	{
		lsu r0, r1, r0
		nop
	}
.Ltmp131:
	bt r0, .LBB2_9
.Ltmp132:
.LBB2_25:
	{
		nop
		ldw r0, r5[8]
	}
.Ltmp133:
	{
		nop
		ldw r10, sp[22]
	}
	.loc	4 248 5
	ldd r9, r8, sp[10]
	ldd r7, r6, sp[9]
	ldd r5, r4, sp[8]
.Ltmp134:
	{
		nop
		retsp 24
	}
	# RETURN_REG_HOLDER
.Ltmp135:
.LBB2_29:
	{
		ldc r0, 12
		nop
	}
	.loc	4 115 13
.Ltmp136:
	bl asrc_error
.Ltmp137:
	.cc_bottom asrc_process.function
	.set	asrc_process.nstackwords,((src_mrhf_spline_coeff_gen_inner_loop_asm.nstackwords $M src_mrhf_adfir_inner_loop_asm.nstackwords $M src_mrhf_adfir_inner_loop_asm_odd.nstackwords $M ASRC_proc_F1_F2.nstackwords $M asrc_error.nstackwords) + 24)
	.globl	asrc_process.nstackwords
	.set	asrc_process.maxcores,ASRC_proc_F1_F2.maxcores $M asrc_error.maxcores $M src_mrhf_adfir_inner_loop_asm.maxcores $M src_mrhf_adfir_inner_loop_asm_odd.maxcores $M src_mrhf_spline_coeff_gen_inner_loop_asm.maxcores $M 1
	.globl	asrc_process.maxcores
	.set	asrc_process.maxtimers,ASRC_proc_F1_F2.maxtimers $M asrc_error.maxtimers $M src_mrhf_adfir_inner_loop_asm.maxtimers $M src_mrhf_adfir_inner_loop_asm_odd.maxtimers $M src_mrhf_spline_coeff_gen_inner_loop_asm.maxtimers $M 0
	.globl	asrc_process.maxtimers
	.set	asrc_process.maxchanends,ASRC_proc_F1_F2.maxchanends $M asrc_error.maxchanends $M src_mrhf_adfir_inner_loop_asm.maxchanends $M src_mrhf_adfir_inner_loop_asm_odd.maxchanends $M src_mrhf_spline_coeff_gen_inner_loop_asm.maxchanends $M 0
	.globl	asrc_process.maxchanends
.Ltmp138:
	.size	asrc_process, .Ltmp138-asrc_process
.Lfunc_end2:
	.cfi_endproc

.Ldebug_end0:
	.section	.trap_info,"",@progbits
.Ltrap_info_entries_start0:
	.long	.Ltrap_info_entries_end0-.Ltrap_info_entries_start0
	.long	1
.Ltrap_info_entries_end0: