	.text
	.file	"../src/extensions/far_end_dsp.xc"
                                        # Start of file scope inline assembly
	.inline_definition delay_seconds
	.inline_definition delay_milliseconds
	.inline_definition delay_microseconds
	.inline_definition _safe_memcmp
	.inline_definition _safe_memmove
	.inline_definition _safe_memset
	.inline_definition dsp_math_cos
	.inline_definition dsp_math_sinh
	.inline_definition dsp_math_cosh
	.weak _i.control.register_resources.maxchanends.group
	.max_reduce _i.control.register_resources.max.maxchanends, _i.control.register_resources.maxchanends.group, 0
	.weak _i.control.register_resources.maxcores.group
	.max_reduce _i.control.register_resources.max.maxcores, _i.control.register_resources.maxcores.group, 0
	.weak _i.control.register_resources.maxtimers.group
	.max_reduce _i.control.register_resources.max.maxtimers, _i.control.register_resources.maxtimers.group, 0
	.weak _i.control.register_resources.nstackwords.group
	.globl _i.control.register_resources.nstackwords.group
	.weak _i.control.register_resources.fns.group
	.globl _i.control.register_resources.fns.group
	.max_reduce _i.control.register_resources.max.nstackwords, _i.control.register_resources.nstackwords.group, 0
	.max_reduce _i.control.register_resources.fns, _i.control.register_resources.fns.group, 0
	.weak _i.control.write_command.maxchanends.group
	.max_reduce _i.control.write_command.max.maxchanends, _i.control.write_command.maxchanends.group, 0
	.weak _i.control.write_command.maxcores.group
	.max_reduce _i.control.write_command.max.maxcores, _i.control.write_command.maxcores.group, 0
	.weak _i.control.write_command.maxtimers.group
	.max_reduce _i.control.write_command.max.maxtimers, _i.control.write_command.maxtimers.group, 0
	.weak _i.control.write_command.nstackwords.group
	.globl _i.control.write_command.nstackwords.group
	.weak _i.control.write_command.fns.group
	.globl _i.control.write_command.fns.group
	.max_reduce _i.control.write_command.max.nstackwords, _i.control.write_command.nstackwords.group, 0
	.max_reduce _i.control.write_command.fns, _i.control.write_command.fns.group, 0
	.weak _i.control.read_command.maxchanends.group
	.max_reduce _i.control.read_command.max.maxchanends, _i.control.read_command.maxchanends.group, 0
	.weak _i.control.read_command.maxcores.group
	.max_reduce _i.control.read_command.max.maxcores, _i.control.read_command.maxcores.group, 0
	.weak _i.control.read_command.maxtimers.group
	.max_reduce _i.control.read_command.max.maxtimers, _i.control.read_command.maxtimers.group, 0
	.weak _i.control.read_command.nstackwords.group
	.globl _i.control.read_command.nstackwords.group
	.weak _i.control.read_command.fns.group
	.globl _i.control.read_command.fns.group
	.max_reduce _i.control.read_command.max.nstackwords, _i.control.read_command.nstackwords.group, 0
	.max_reduce _i.control.read_command.fns, _i.control.read_command.fns.group, 0
	.weak _i.control.__interface_init.maxchanends.group
	.max_reduce _i.control.__interface_init.max.maxchanends, _i.control.__interface_init.maxchanends.group, 0
	.weak _i.control.__interface_init.maxcores.group
	.max_reduce _i.control.__interface_init.max.maxcores, _i.control.__interface_init.maxcores.group, 0
	.weak _i.control.__interface_init.maxtimers.group
	.max_reduce _i.control.__interface_init.max.maxtimers, _i.control.__interface_init.maxtimers.group, 0
	.weak _i.control.__interface_init.nstackwords.group
	.globl _i.control.__interface_init.nstackwords.group
	.weak _i.control.__interface_init.fns.group
	.globl _i.control.__interface_init.fns.group
	.max_reduce _i.control.__interface_init.max.nstackwords, _i.control.__interface_init.nstackwords.group, 0
	.max_reduce _i.control.__interface_init.fns, _i.control.__interface_init.fns.group, 0
	.weak _i.control._client_call_y.maxchanends.group
	.add_to_set _i.control._client_call_y.maxchanends.group, (__interface_client_call_y_other.maxchanends + __interface_client_call_y_extra.maxchanends), __interface_client_call_y_other
	.max_reduce _i.control._client_call_y.max.maxchanends, _i.control._client_call_y.maxchanends.group, 0
	.weak _i.control._client_call_y.maxcores.group
	.add_to_set _i.control._client_call_y.maxcores.group, (__interface_client_call_y_other.maxcores + __interface_client_call_y_extra.maxcores), __interface_client_call_y_other
	.max_reduce _i.control._client_call_y.max.maxcores, _i.control._client_call_y.maxcores.group, 0
	.weak _i.control._client_call_y.maxtimers.group
	.add_to_set _i.control._client_call_y.maxtimers.group, (__interface_client_call_y_other.maxtimers + __interface_client_call_y_extra.maxtimers), __interface_client_call_y_other
	.max_reduce _i.control._client_call_y.max.maxtimers, _i.control._client_call_y.maxtimers.group, 0
	.weak _i.control._client_call_y.nstackwords.group
	.globl _i.control._client_call_y.nstackwords.group
	.weak _i.control._client_call_y.fns.group
	.globl _i.control._client_call_y.fns.group
	.add_to_set _i.control._client_call_y.nstackwords.group, (__interface_client_call_y_other.nstackwords + __interface_client_call_y_extra.nstackwords), __interface_client_call_y_other
	.add_to_set _i.control._client_call_y.fns.group, __interface_client_call_y_other, __interface_client_call_y_other
	.max_reduce _i.control._client_call_y.max.nstackwords, _i.control._client_call_y.nstackwords.group, 0
	.max_reduce _i.control._client_call_y.fns, _i.control._client_call_y.fns.group, 0
	.set usage.anon.0,0
	.set usage.anon.1,0
	.set usage.anon.2,0
	.set usage.anon.3,0
	.set usage.anon.4,0
	.set usage.anon.5,0
	.set usage.anon.6,0
	.set usage.anon.7,0
	.set usage.anon.8,0
	.set usage.anon.9,0
	.globwrite control_server_eq_check,g_eq_enable,"../src/extensions/far_end_dsp.xc:77:15: note: object used here\n              g_eq_enable = val;\n              ^~~~~~~~~~~"
	.call far_end_dsp,control_server_eq_check
	.call usage.anon.8,dsp_math_sinh_
	.call usage.anon.7,dsp_math_sinh_
	.call usage.anon.6,dsp_math_sin
	.call usage.anon.5,memset
	.call usage.anon.4,memmove
	.call usage.anon.3,memcmp
	.call usage.anon.2,delay_ticks_longlong
	.call usage.anon.1,delay_ticks_longlong
	.call usage.anon.0,delay_ticks_longlong
	.set control_server_eq_check.locnoside, 0
	.set far_end_dsp.locnoside, 0
	.set control_server_eq_check.locnoglobalaccess, 0
	.set control_server_eq_check.locnointerfaceaccess, 0
	.assert 1,memset.actnoglobalaccess,"In file included from ../src/extensions/far_end_dsp.xc:5:\nIn file included from C:\\Program Files (x86)\\XMOS\\xTIMEcomposer\\Community_14.3.3\\target/include/xc\\string.h:5:\nC:\\Program Files (x86)\\XMOS\\xTIMEcomposer\\Community_14.3.3\\target/include/xc\\safe/string.h:21:3: error: passing non-local alias to function `memset\' which accesses a global variable\n  memset(s, c, n);\n  ^~~~~~~~~~~~~~~"
	.assert 1,memmove.actnoglobalaccess,"In file included from ../src/extensions/far_end_dsp.xc:5:\nIn file included from C:\\Program Files (x86)\\XMOS\\xTIMEcomposer\\Community_14.3.3\\target/include/xc\\string.h:5:\nC:\\Program Files (x86)\\XMOS\\xTIMEcomposer\\Community_14.3.3\\target/include/xc\\safe/string.h:15:3: error: passing non-local alias to function `memmove\' which accesses a global variable\n  memmove(s1, s2, n);\n  ^~~~~~~~~~~~~~~~~~"

                                        # End of file scope inline assembly
	.text
	.weak	_i.control._chan.read_command
	.align	4
	.type	_i.control._chan.read_command,@function
	.cc_top _i.control._chan.read_command.function,_i.control._chan.read_command
_i.control._chan.read_command:          # @_i.control._chan.read_command
	.cfi_startproc
	.issue_mode dual
# BB#0:                                 # %allocas
	{
		nop
		dualentsp 4
	}
.Ltmp0:
	.cfi_def_cfa_offset 16
.Ltmp1:
	.cfi_offset 15, 0
	{
		nop
		stw r4, sp[2]
	}
.Ltmp2:
	.cfi_offset 4, -8
	#DEBUG_VALUE: _i.control._chan.read_command:dest <- R0
	#DEBUG_VALUE: _i.control._chan.read_command:param1 <- R1
	#DEBUG_VALUE: _i.control._chan.read_command:param2 <- R2
	#DEBUG_VALUE: _i.control._chan.read_command:param3 <- R3
	#DEBUG_VALUE: _i.control._chan.read_command:param4 <- [SP+20]
	{
		getr r4, 2
		ldw r11, sp[5]
	}
	{
		setd res[r4], r0
		add r0, r4, 2
	}
	{
		out res[r4], r0
		nop
	}
	{
		outct res[r4], 2
		nop
	}
	{
		chkct res[r4], 1
		nop
	}
	{
		outt res[r4], r1
		nop
	}
	{
		outt res[r4], r2
		stw r3, sp[1]
	}
	{
		out res[r4], r11
		nop
	}
	{
		outct res[r4], 2
		ldaw r1, sp[1]
	}
	{
		mov r0, r4
		nop
	}
	bl __interface_client_call
	{
		int r0, res[r4]
		nop
	}
	{
		chkct res[r4], 1
		nop
	}
	{
		freer res[r4]
		ldw r4, sp[2]
	}
	{
		nop
		retsp 4
	}
	# RETURN_REG_HOLDER
	.cc_bottom _i.control._chan.read_command.function
	.set	_i.control._chan.read_command.nstackwords,(__interface_client_call.nstackwords + 4)
	.globl	_i.control._chan.read_command.nstackwords
	.weak	_i.control._chan.read_command.nstackwords
	.set	_i.control._chan.read_command.maxcores,__interface_client_call.maxcores $M 1
	.globl	_i.control._chan.read_command.maxcores
	.weak	_i.control._chan.read_command.maxcores
	.set	_i.control._chan.read_command.maxtimers,__interface_client_call.maxtimers $M 0
	.globl	_i.control._chan.read_command.maxtimers
	.weak	_i.control._chan.read_command.maxtimers
	.set	_i.control._chan.read_command.maxchanends,(1 + __interface_client_call.maxchanends) $M 1
	.globl	_i.control._chan.read_command.maxchanends
	.weak	_i.control._chan.read_command.maxchanends
.Ltmp3:
	.size	_i.control._chan.read_command, .Ltmp3-_i.control._chan.read_command
	.cfi_endproc

	.weak	_i.control._chan.write_command
	.align	4
	.type	_i.control._chan.write_command,@function
	.cc_top _i.control._chan.write_command.function,_i.control._chan.write_command
_i.control._chan.write_command:         # @_i.control._chan.write_command
	.cfi_startproc
	.issue_mode dual
# BB#0:                                 # %allocas
	{
		nop
		dualentsp 4
	}
.Ltmp4:
	.cfi_def_cfa_offset 16
.Ltmp5:
	.cfi_offset 15, 0
	{
		nop
		stw r4, sp[2]
	}
.Ltmp6:
	.cfi_offset 4, -8
	#DEBUG_VALUE: _i.control._chan.write_command:dest <- R0
	#DEBUG_VALUE: _i.control._chan.write_command:param1 <- R1
	#DEBUG_VALUE: _i.control._chan.write_command:param2 <- R2
	#DEBUG_VALUE: _i.control._chan.write_command:param3 <- R3
	#DEBUG_VALUE: _i.control._chan.write_command:param4 <- [SP+20]
	{
		getr r4, 2
		ldw r11, sp[5]
	}
	{
		setd res[r4], r0
		add r0, r4, 1
	}
	{
		out res[r4], r0
		nop
	}
	{
		outct res[r4], 2
		nop
	}
	{
		chkct res[r4], 1
		nop
	}
	{
		outt res[r4], r1
		nop
	}
	{
		outt res[r4], r2
		stw r3, sp[1]
	}
	{
		out res[r4], r11
		nop
	}
	{
		outct res[r4], 2
		ldaw r1, sp[1]
	}
	{
		mov r0, r4
		nop
	}
	bl __interface_client_call
	{
		int r0, res[r4]
		nop
	}
	{
		chkct res[r4], 1
		nop
	}
	{
		freer res[r4]
		ldw r4, sp[2]
	}
	{
		nop
		retsp 4
	}
	# RETURN_REG_HOLDER
	.cc_bottom _i.control._chan.write_command.function
	.set	_i.control._chan.write_command.nstackwords,(__interface_client_call.nstackwords + 4)
	.globl	_i.control._chan.write_command.nstackwords
	.weak	_i.control._chan.write_command.nstackwords
	.set	_i.control._chan.write_command.maxcores,__interface_client_call.maxcores $M 1
	.globl	_i.control._chan.write_command.maxcores
	.weak	_i.control._chan.write_command.maxcores
	.set	_i.control._chan.write_command.maxtimers,__interface_client_call.maxtimers $M 0
	.globl	_i.control._chan.write_command.maxtimers
	.weak	_i.control._chan.write_command.maxtimers
	.set	_i.control._chan.write_command.maxchanends,(1 + __interface_client_call.maxchanends) $M 1
	.globl	_i.control._chan.write_command.maxchanends
	.weak	_i.control._chan.write_command.maxchanends
.Ltmp7:
	.size	_i.control._chan.write_command, .Ltmp7-_i.control._chan.write_command
	.cfi_endproc

	.weak	_i.control._chan.register_resources
	.align	4
	.type	_i.control._chan.register_resources,@function
	.cc_top _i.control._chan.register_resources.function,_i.control._chan.register_resources
_i.control._chan.register_resources:    # @_i.control._chan.register_resources
	.cfi_startproc
	.issue_mode dual
# BB#0:                                 # %allocas
	{
		nop
		dualentsp 4
	}
.Ltmp8:
	.cfi_def_cfa_offset 16
.Ltmp9:
	.cfi_offset 15, 0
	std r5, r4, sp[1]               # 4-byte Folded Spill
.Ltmp10:
	.cfi_offset 4, -8
.Ltmp11:
	.cfi_offset 5, -4
	#DEBUG_VALUE: _i.control._chan.register_resources:dest <- R0
	#DEBUG_VALUE: _i.control._chan.register_resources:param1 <- R1
	#DEBUG_VALUE: _i.control._chan.register_resources:param2 <- R2
	#DEBUG_VALUE: _i.control._chan.register_resources:param2 <- R4
	{
		getr r5, 2
		mov r4, r2
	}
	{
		setd res[r5], r0
		nop
	}
	{
		out res[r5], r5
		nop
	}
	{
		outct res[r5], 2
		nop
	}
	{
		chkct res[r5], 1
		stw r1, sp[1]
	}
	{
		nop
		ldw r0, r4[0]
	}
	{
		out res[r5], r0
		nop
	}
	{
		outct res[r5], 2
		ldaw r1, sp[1]
	}
	{
		mov r0, r5
		nop
	}
	bl __interface_client_call
	{
		in r0, res[r5]
		nop
	}
	{
		chkct res[r5], 1
		stw r0, r4[0]
	}
	{
		freer res[r5]
		nop
	}
	ldd r5, r4, sp[1]               # 4-byte Folded Reload
	{
		nop
		retsp 4
	}
	# RETURN_REG_HOLDER
	.cc_bottom _i.control._chan.register_resources.function
	.set	_i.control._chan.register_resources.nstackwords,(__interface_client_call.nstackwords + 4)
	.globl	_i.control._chan.register_resources.nstackwords
	.weak	_i.control._chan.register_resources.nstackwords
	.set	_i.control._chan.register_resources.maxcores,__interface_client_call.maxcores $M 1
	.globl	_i.control._chan.register_resources.maxcores
	.weak	_i.control._chan.register_resources.maxcores
	.set	_i.control._chan.register_resources.maxtimers,__interface_client_call.maxtimers $M 0
	.globl	_i.control._chan.register_resources.maxtimers
	.weak	_i.control._chan.register_resources.maxtimers
	.set	_i.control._chan.register_resources.maxchanends,(1 + __interface_client_call.maxchanends) $M 1
	.globl	_i.control._chan.register_resources.maxchanends
	.weak	_i.control._chan.register_resources.maxchanends
.Ltmp12:
	.size	_i.control._chan.register_resources, .Ltmp12-_i.control._chan.register_resources
	.cfi_endproc

	.weak	_i.control._chan_yield.read_command
	.align	4
	.type	_i.control._chan_yield.read_command,@function
	.cc_top _i.control._chan_yield.read_command.function,_i.control._chan_yield.read_command
_i.control._chan_yield.read_command:    # @_i.control._chan_yield.read_command
	.cfi_startproc
	.issue_mode dual
# BB#0:                                 # %allocas
	{
		nop
		dualentsp 4
	}
.Ltmp13:
	.cfi_def_cfa_offset 16
.Ltmp14:
	.cfi_offset 15, 0
	std r5, r4, sp[1]               # 4-byte Folded Spill
.Ltmp15:
	.cfi_offset 4, -8
.Ltmp16:
	.cfi_offset 5, -4
	#DEBUG_VALUE: _i.control._chan_yield.read_command:s <- R0
	#DEBUG_VALUE: _i.control._chan_yield.read_command:param1 <- R1
	#DEBUG_VALUE: _i.control._chan_yield.read_command:param2 <- R2
	#DEBUG_VALUE: _i.control._chan_yield.read_command:param3 <- R3
	#DEBUG_VALUE: _i.control._chan_yield.read_command:param4 <- [SP+20]
	{
		nop
		ldw r11, sp[5]
	}
	{
		getr r4, 2
		ldw r5, r0[0]
	}
	{
		setd res[r4], r5
		add r5, r4, 2
	}
	{
		out res[r4], r5
		nop
	}
	{
		outct res[r4], 2
		nop
	}
	{
		chkct res[r4], 1
		nop
	}
	{
		outt res[r4], r1
		nop
	}
	{
		outt res[r4], r2
		stw r3, sp[1]
	}
	{
		out res[r4], r11
		nop
	}
	{
		outct res[r4], 2
		ldw r2, r0[1]
	}
	{
		ldaw r1, sp[1]
		mov r0, r4
	}
	bl __interface_client_call_y
	{
		int r0, res[r4]
		nop
	}
	{
		chkct res[r4], 1
		nop
	}
	{
		freer res[r4]
		nop
	}
	ldd r5, r4, sp[1]               # 4-byte Folded Reload
	{
		nop
		retsp 4
	}
	# RETURN_REG_HOLDER
	.cc_bottom _i.control._chan_yield.read_command.function
	.set	_i.control._chan_yield.read_command.nstackwords,((_i.control._client_call_y.max.nstackwords $M ($D __interface_client_call_y.nstackwords ? __interface_client_call_y.nstackwords $: _i.control._client_call_y.max.nstackwords)) + 4)
	.globl	_i.control._chan_yield.read_command.nstackwords
	.weak	_i.control._chan_yield.read_command.nstackwords
	.set	_i.control._chan_yield.read_command.maxcores,($D __interface_client_call_y.maxcores ? __interface_client_call_y.maxcores $: _i.control._client_call_y.max.maxcores) $M 1
	.globl	_i.control._chan_yield.read_command.maxcores
	.weak	_i.control._chan_yield.read_command.maxcores
	.set	_i.control._chan_yield.read_command.maxtimers,($D __interface_client_call_y.maxtimers ? __interface_client_call_y.maxtimers $: _i.control._client_call_y.max.maxtimers) $M 0
	.globl	_i.control._chan_yield.read_command.maxtimers
	.weak	_i.control._chan_yield.read_command.maxtimers
	.set	_i.control._chan_yield.read_command.maxchanends,(1 + ($D __interface_client_call_y.maxchanends ? __interface_client_call_y.maxchanends $: _i.control._client_call_y.max.maxchanends)) $M 1
	.globl	_i.control._chan_yield.read_command.maxchanends
	.weak	_i.control._chan_yield.read_command.maxchanends
.Ltmp17:
	.size	_i.control._chan_yield.read_command, .Ltmp17-_i.control._chan_yield.read_command
	.cfi_endproc

	.weak	_i.control._chan_yield.write_command
	.align	4
	.type	_i.control._chan_yield.write_command,@function
	.cc_top _i.control._chan_yield.write_command.function,_i.control._chan_yield.write_command
_i.control._chan_yield.write_command:   # @_i.control._chan_yield.write_command
	.cfi_startproc
	.issue_mode dual
# BB#0:                                 # %allocas
	{
		nop
		dualentsp 4
	}
.Ltmp18:
	.cfi_def_cfa_offset 16
.Ltmp19:
	.cfi_offset 15, 0
	std r5, r4, sp[1]               # 4-byte Folded Spill
.Ltmp20:
	.cfi_offset 4, -8
.Ltmp21:
	.cfi_offset 5, -4
	#DEBUG_VALUE: _i.control._chan_yield.write_command:s <- R0
	#DEBUG_VALUE: _i.control._chan_yield.write_command:param1 <- R1
	#DEBUG_VALUE: _i.control._chan_yield.write_command:param2 <- R2
	#DEBUG_VALUE: _i.control._chan_yield.write_command:param3 <- R3
	#DEBUG_VALUE: _i.control._chan_yield.write_command:param4 <- [SP+20]
	{
		nop
		ldw r11, sp[5]
	}
	{
		getr r4, 2
		ldw r5, r0[0]
	}
	{
		setd res[r4], r5
		add r5, r4, 1
	}
	{
		out res[r4], r5
		nop
	}
	{
		outct res[r4], 2
		nop
	}
	{
		chkct res[r4], 1
		nop
	}
	{
		outt res[r4], r1
		nop
	}
	{
		outt res[r4], r2
		stw r3, sp[1]
	}
	{
		out res[r4], r11
		nop
	}
	{
		outct res[r4], 2
		ldw r2, r0[1]
	}
	{
		ldaw r1, sp[1]
		mov r0, r4
	}
	bl __interface_client_call_y
	{
		int r0, res[r4]
		nop
	}
	{
		chkct res[r4], 1
		nop
	}
	{
		freer res[r4]
		nop
	}
	ldd r5, r4, sp[1]               # 4-byte Folded Reload
	{
		nop
		retsp 4
	}
	# RETURN_REG_HOLDER
	.cc_bottom _i.control._chan_yield.write_command.function
	.set	_i.control._chan_yield.write_command.nstackwords,((_i.control._client_call_y.max.nstackwords $M ($D __interface_client_call_y.nstackwords ? __interface_client_call_y.nstackwords $: _i.control._client_call_y.max.nstackwords)) + 4)
	.globl	_i.control._chan_yield.write_command.nstackwords
	.weak	_i.control._chan_yield.write_command.nstackwords
	.set	_i.control._chan_yield.write_command.maxcores,($D __interface_client_call_y.maxcores ? __interface_client_call_y.maxcores $: _i.control._client_call_y.max.maxcores) $M 1
	.globl	_i.control._chan_yield.write_command.maxcores
	.weak	_i.control._chan_yield.write_command.maxcores
	.set	_i.control._chan_yield.write_command.maxtimers,($D __interface_client_call_y.maxtimers ? __interface_client_call_y.maxtimers $: _i.control._client_call_y.max.maxtimers) $M 0
	.globl	_i.control._chan_yield.write_command.maxtimers
	.weak	_i.control._chan_yield.write_command.maxtimers
	.set	_i.control._chan_yield.write_command.maxchanends,(1 + ($D __interface_client_call_y.maxchanends ? __interface_client_call_y.maxchanends $: _i.control._client_call_y.max.maxchanends)) $M 1
	.globl	_i.control._chan_yield.write_command.maxchanends
	.weak	_i.control._chan_yield.write_command.maxchanends
.Ltmp22:
	.size	_i.control._chan_yield.write_command, .Ltmp22-_i.control._chan_yield.write_command
	.cfi_endproc

	.weak	_i.control._chan_yield.register_resources
	.align	4
	.type	_i.control._chan_yield.register_resources,@function
	.cc_top _i.control._chan_yield.register_resources.function,_i.control._chan_yield.register_resources
_i.control._chan_yield.register_resources: # @_i.control._chan_yield.register_resources
	.cfi_startproc
	.issue_mode dual
# BB#0:                                 # %allocas
	{
		nop
		dualentsp 4
	}
.Ltmp23:
	.cfi_def_cfa_offset 16
.Ltmp24:
	.cfi_offset 15, 0
	std r5, r4, sp[1]               # 4-byte Folded Spill
.Ltmp25:
	.cfi_offset 4, -8
.Ltmp26:
	.cfi_offset 5, -4
	#DEBUG_VALUE: _i.control._chan_yield.register_resources:s <- R0
	#DEBUG_VALUE: _i.control._chan_yield.register_resources:param1 <- R1
	#DEBUG_VALUE: _i.control._chan_yield.register_resources:param2 <- R2
	#DEBUG_VALUE: _i.control._chan_yield.register_resources:param2 <- R4
	{
		mov r4, r2
		ldw r2, r0[0]
	}
	{
		getr r5, 2
		nop
	}
	{
		setd res[r5], r2
		nop
	}
	{
		out res[r5], r5
		nop
	}
	{
		outct res[r5], 2
		nop
	}
	{
		chkct res[r5], 1
		stw r1, sp[1]
	}
	{
		nop
		ldw r1, r4[0]
	}
	{
		out res[r5], r1
		nop
	}
	{
		outct res[r5], 2
		ldw r2, r0[1]
	}
	{
		ldaw r1, sp[1]
		mov r0, r5
	}
	bl __interface_client_call_y
	{
		in r0, res[r5]
		nop
	}
	{
		chkct res[r5], 1
		stw r0, r4[0]
	}
	{
		freer res[r5]
		nop
	}
	ldd r5, r4, sp[1]               # 4-byte Folded Reload
	{
		nop
		retsp 4
	}
	# RETURN_REG_HOLDER
	.cc_bottom _i.control._chan_yield.register_resources.function
	.set	_i.control._chan_yield.register_resources.nstackwords,((_i.control._client_call_y.max.nstackwords $M ($D __interface_client_call_y.nstackwords ? __interface_client_call_y.nstackwords $: _i.control._client_call_y.max.nstackwords)) + 4)
	.globl	_i.control._chan_yield.register_resources.nstackwords
	.weak	_i.control._chan_yield.register_resources.nstackwords
	.set	_i.control._chan_yield.register_resources.maxcores,($D __interface_client_call_y.maxcores ? __interface_client_call_y.maxcores $: _i.control._client_call_y.max.maxcores) $M 1
	.globl	_i.control._chan_yield.register_resources.maxcores
	.weak	_i.control._chan_yield.register_resources.maxcores
	.set	_i.control._chan_yield.register_resources.maxtimers,($D __interface_client_call_y.maxtimers ? __interface_client_call_y.maxtimers $: _i.control._client_call_y.max.maxtimers) $M 0
	.globl	_i.control._chan_yield.register_resources.maxtimers
	.weak	_i.control._chan_yield.register_resources.maxtimers
	.set	_i.control._chan_yield.register_resources.maxchanends,(1 + ($D __interface_client_call_y.maxchanends ? __interface_client_call_y.maxchanends $: _i.control._client_call_y.max.maxchanends)) $M 1
	.globl	_i.control._chan_yield.register_resources.maxchanends
	.weak	_i.control._chan_yield.register_resources.maxchanends
.Ltmp27:
	.size	_i.control._chan_yield.register_resources, .Ltmp27-_i.control._chan_yield.register_resources
	.cfi_endproc

	.globl	far_end_dsp
	.align	4
	.type	far_end_dsp,@function
	.cc_top far_end_dsp.function,far_end_dsp
far_end_dsp:                            # @far_end_dsp
.Lfunc_begin6:
	.loc	1 127 0                 # ../src/extensions/far_end_dsp.xc:127:0
	.cfi_startproc
	.issue_mode dual
# BB#0:                                 # %allocas
.Lxtalabel0:
	{
		nop
		dualentsp 12
	}
.Ltmp28:
	.cfi_def_cfa_offset 48
.Ltmp29:
	.cfi_offset 15, 0
	std r5, r4, sp[2]               # 4-byte Folded Spill
.Ltmp30:
	.cfi_offset 4, -32
.Ltmp31:
	.cfi_offset 5, -28
	std r7, r6, sp[3]               # 4-byte Folded Spill
.Ltmp32:
	.cfi_offset 6, -24
.Ltmp33:
	.cfi_offset 7, -20
	std r9, r8, sp[4]               # 4-byte Folded Spill
.Ltmp34:
	.cfi_offset 8, -16
.Ltmp35:
	.cfi_offset 9, -12
	{
		nop
		stw r10, sp[10]
	}
.Ltmp36:
	.cfi_offset 10, -8
	#DEBUG_VALUE: far_end_dsp:c_dsp <- R0
	#DEBUG_VALUE: far_end_dsp:i_control <- R1
.Ltmp37:
	#DEBUG_VALUE: far_end_dsp:i_control <- [SP+8]
	#DEBUG_VALUE: far_end_post <- 0
	#DEBUG_VALUE: far_end_pre <- 0
	#DEBUG_VALUE: far_end_dsp:c_dsp <- R5
	{
		mov r5, r0
		stw r1, sp[2]
	}
.Ltmp38:
	{
		ldc r0, 0
		nop
	}
	{
		mov r2, r0
		mov r3, r0
	}
	{
		mov r11, r0
		mov r7, r0
	}
	{
		mov r10, r0
		mov r1, r0
	}
.Ltmp39:
.LBB6_1:                                # %LoopBody
                                        # =>This Inner Loop Header: Depth=1
.Lxtalabel1:
	#DEBUG_VALUE: far_end_dsp:c_dsp <- R5
	#DEBUG_VALUE: far_end_dsp:i_control <- [SP+8]
	#DEBUG_VALUE: far_end_pre <- 0
	#DEBUG_VALUE: far_end_post <- 0
	{
		chkct res[r5], 1
		stw r0, sp[3]
	}
	.loc	1 155 0 prologue_end    # ../src/extensions/far_end_dsp.xc:155:0
.Ltmp40:
	{
		outct res[r5], 1
		nop
	}
	.loc	1 155 0                 # ../src/extensions/far_end_dsp.xc:155:0
.Lxta.endpoint_labels0:
	{
		in r0, res[r5]
		nop
	}
.Ltmp41:
	#DEBUG_VALUE: temp <- R0
	.loc	1 155 0                 # ../src/extensions/far_end_dsp.xc:155:0
	{
		chkct res[r5], 1
		nop
	}
	.loc	1 155 0                 # ../src/extensions/far_end_dsp.xc:155:0
	{
		outct res[r5], 1
		nop
	}
	.loc	1 158 24                # ../src/extensions/far_end_dsp.xc:158:24
	{
		outct res[r5], 1
		nop
	}
	.loc	1 158 24                # ../src/extensions/far_end_dsp.xc:158:24
	{
		chkct res[r5], 1
		nop
	}
	.loc	1 158 24                # ../src/extensions/far_end_dsp.xc:158:24
.Lxta.endpoint_labels1:
	{
		out res[r5], r1
		nop
	}
	.loc	1 158 24                # ../src/extensions/far_end_dsp.xc:158:24
	{
		outct res[r5], 1
		nop
	}
	.loc	1 158 24                # ../src/extensions/far_end_dsp.xc:158:24
	{
		chkct res[r5], 1
		nop
	}
	.loc	1 160 0                 # ../src/extensions/far_end_dsp.xc:160:0
	{
		chkct res[r5], 1
		nop
	}
	.loc	1 160 0                 # ../src/extensions/far_end_dsp.xc:160:0
	{
		outct res[r5], 1
		nop
	}
	.loc	1 160 0                 # ../src/extensions/far_end_dsp.xc:160:0
.Lxta.endpoint_labels2:
	{
		in r4, res[r5]
		nop
	}
	.loc	1 160 0                 # ../src/extensions/far_end_dsp.xc:160:0
	{
		chkct res[r5], 1
		nop
	}
	.loc	1 160 0                 # ../src/extensions/far_end_dsp.xc:160:0
	{
		outct res[r5], 1
		ldw r0, sp[2]
	}
.Ltmp42:
	{
		mov r6, r7
		mov r7, r2
	}
	{
		mov r8, r3
		mov r9, r11
	}
	.loc	1 171 0                 # ../src/extensions/far_end_dsp.xc:171:0
.Lxta.call_labels0:
	bl control_server_eq_check
	{
		mov r0, r7
		mov r2, r8
	}
	{
		mov r3, r9
		mov r11, r6
	}
	{
		mov r7, r10
		mov r10, r4
	}
	{
		nop
		ldw r1, sp[3]
	}
	.loc	1 134 3                 # ../src/extensions/far_end_dsp.xc:134:3
	bu .LBB6_1
.Ltmp43:
	.cc_bottom far_end_dsp.function
	.set	far_end_dsp.nstackwords,(control_server_eq_check.nstackwords + 12)
	.globl	far_end_dsp.nstackwords
	.set	far_end_dsp.maxcores,control_server_eq_check.maxcores $M 1
	.globl	far_end_dsp.maxcores
	.set	far_end_dsp.maxtimers,control_server_eq_check.maxtimers $M 0
	.globl	far_end_dsp.maxtimers
	.set	far_end_dsp.maxchanends,control_server_eq_check.maxchanends $M 0
	.globl	far_end_dsp.maxchanends
.Ltmp44:
	.size	far_end_dsp, .Ltmp44-far_end_dsp
.Lfunc_end6:
	.cfi_endproc

	.globl	_Sfar_end_dsp_0
	.align	4
	.type	_Sfar_end_dsp_0,@function
	.cc_top _Sfar_end_dsp_0.function,_Sfar_end_dsp_0
_Sfar_end_dsp_0:                        # @_Sfar_end_dsp_0
.Lfunc_begin7:
	.loc	1 127 0                 # ../src/extensions/far_end_dsp.xc:127:0
	.cfi_startproc
	.issue_mode dual
# BB#0:                                 # %allocas
.Lxtalabel2:
	{
		nop
		dualentsp 12
	}
.Ltmp45:
	.cfi_def_cfa_offset 48
.Ltmp46:
	.cfi_offset 15, 0
	std r5, r4, sp[2]               # 4-byte Folded Spill
.Ltmp47:
	.cfi_offset 4, -32
.Ltmp48:
	.cfi_offset 5, -28
	std r7, r6, sp[3]               # 4-byte Folded Spill
.Ltmp49:
	.cfi_offset 6, -24
.Ltmp50:
	.cfi_offset 7, -20
	std r9, r8, sp[4]               # 4-byte Folded Spill
.Ltmp51:
	.cfi_offset 8, -16
.Ltmp52:
	.cfi_offset 9, -12
	{
		nop
		stw r10, sp[10]
	}
.Ltmp53:
	.cfi_offset 10, -8
	#DEBUG_VALUE: far_end_dsp:c_dsp <- R0
	#DEBUG_VALUE: far_end_dsp:i_control <- R1
.Ltmp54:
	#DEBUG_VALUE: far_end_dsp:i_control <- [SP+8]
	#DEBUG_VALUE: far_end_post <- 0
	#DEBUG_VALUE: far_end_pre <- 0
	#DEBUG_VALUE: far_end_dsp:c_dsp <- R5
	{
		mov r5, r0
		stw r1, sp[2]
	}
.Ltmp55:
	{
		ldc r0, 0
		nop
	}
	{
		mov r2, r0
		mov r3, r0
	}
	{
		mov r11, r0
		mov r7, r0
	}
	{
		mov r10, r0
		mov r1, r0
	}
.Ltmp56:
.LBB7_1:                                # %LoopBody
                                        # =>This Inner Loop Header: Depth=1
.Lxtalabel3:
	#DEBUG_VALUE: far_end_dsp:c_dsp <- R5
	#DEBUG_VALUE: far_end_dsp:i_control <- [SP+8]
	#DEBUG_VALUE: far_end_pre <- 0
	#DEBUG_VALUE: far_end_post <- 0
	{
		chkct res[r5], 1
		stw r0, sp[3]
	}
	.loc	1 155 0 prologue_end    # ../src/extensions/far_end_dsp.xc:155:0
.Ltmp57:
	{
		outct res[r5], 1
		nop
	}
	.loc	1 155 0                 # ../src/extensions/far_end_dsp.xc:155:0
.Lxta.endpoint_labels3:
	{
		in r0, res[r5]
		nop
	}
.Ltmp58:
	#DEBUG_VALUE: temp <- R0
	.loc	1 155 0                 # ../src/extensions/far_end_dsp.xc:155:0
	{
		chkct res[r5], 1
		nop
	}
	.loc	1 155 0                 # ../src/extensions/far_end_dsp.xc:155:0
	{
		outct res[r5], 1
		nop
	}
	.loc	1 158 24                # ../src/extensions/far_end_dsp.xc:158:24
	{
		outct res[r5], 1
		nop
	}
	.loc	1 158 24                # ../src/extensions/far_end_dsp.xc:158:24
	{
		chkct res[r5], 1
		nop
	}
	.loc	1 158 24                # ../src/extensions/far_end_dsp.xc:158:24
.Lxta.endpoint_labels4:
	{
		out res[r5], r1
		nop
	}
	.loc	1 158 24                # ../src/extensions/far_end_dsp.xc:158:24
	{
		outct res[r5], 1
		nop
	}
	.loc	1 158 24                # ../src/extensions/far_end_dsp.xc:158:24
	{
		chkct res[r5], 1
		nop
	}
	.loc	1 160 0                 # ../src/extensions/far_end_dsp.xc:160:0
	{
		chkct res[r5], 1
		nop
	}
	.loc	1 160 0                 # ../src/extensions/far_end_dsp.xc:160:0
	{
		outct res[r5], 1
		nop
	}
	.loc	1 160 0                 # ../src/extensions/far_end_dsp.xc:160:0
.Lxta.endpoint_labels5:
	{
		in r4, res[r5]
		nop
	}
	.loc	1 160 0                 # ../src/extensions/far_end_dsp.xc:160:0
	{
		chkct res[r5], 1
		nop
	}
	.loc	1 160 0                 # ../src/extensions/far_end_dsp.xc:160:0
	{
		outct res[r5], 1
		ldw r0, sp[2]
	}
.Ltmp59:
	{
		mov r6, r7
		mov r7, r2
	}
	{
		mov r8, r3
		mov r9, r11
	}
	.loc	1 171 0                 # ../src/extensions/far_end_dsp.xc:171:0
.Lxta.call_labels1:
	bl control_server_eq_check
	{
		mov r0, r7
		mov r2, r8
	}
	{
		mov r3, r9
		mov r11, r6
	}
	{
		mov r7, r10
		mov r10, r4
	}
	{
		nop
		ldw r1, sp[3]
	}
	.loc	1 134 3                 # ../src/extensions/far_end_dsp.xc:134:3
	bu .LBB7_1
.Ltmp60:
	.cc_bottom _Sfar_end_dsp_0.function
	.set	_Sfar_end_dsp_0.nstackwords,(control_server_eq_check.nstackwords + 12)
	.globl	_Sfar_end_dsp_0.nstackwords
	.set	_Sfar_end_dsp_0.maxcores,control_server_eq_check.maxcores $M 1
	.globl	_Sfar_end_dsp_0.maxcores
	.set	_Sfar_end_dsp_0.maxtimers,control_server_eq_check.maxtimers $M 0
	.globl	_Sfar_end_dsp_0.maxtimers
	.set	_Sfar_end_dsp_0.maxchanends,control_server_eq_check.maxchanends $M 0
	.globl	_Sfar_end_dsp_0.maxchanends
.Ltmp61:
	.size	_Sfar_end_dsp_0, .Ltmp61-_Sfar_end_dsp_0
.Lfunc_end7:
	.cfi_endproc

	.globl	control_server_eq_check
	.align	4
	.type	control_server_eq_check,@function
	.cc_top control_server_eq_check.function,control_server_eq_check
control_server_eq_check:                # @control_server_eq_check
.Lfunc_begin8:
	.loc	1 50 0                  # ../src/extensions/far_end_dsp.xc:50:0
	.cfi_startproc
	.issue_mode dual
# BB#0:                                 # %allocas
.Lxtalabel4:
	{
		nop
		dualentsp 12
	}
.Ltmp62:
	.cfi_def_cfa_offset 48
.Ltmp63:
	.cfi_offset 15, 0
	std r5, r4, sp[3]               # 4-byte Folded Spill
.Ltmp64:
	.cfi_offset 4, -24
.Ltmp65:
	.cfi_offset 5, -20
	std r7, r6, sp[4]               # 4-byte Folded Spill
.Ltmp66:
	.cfi_offset 6, -16
.Ltmp67:
	.cfi_offset 7, -12
.Ltmp68:
	.cfi_offset 8, -8
	#DEBUG_VALUE: control_server_eq_check:i_control <- R0
.Ltmp69:
	#DEBUG_VALUE: control_server_eq_check:i_control <- R5
	{
		mov r5, r0
		stw r8, sp[10]
	}
.Ltmp70:
	.loc	1 51 3 prologue_end     # ../src/extensions/far_end_dsp.xc:51:3
	{
		clre
		ldw r4, r5[0]
	}
	ldap r11, .Ltmp71
	.loc	1 51 3                  # ../src/extensions/far_end_dsp.xc:51:3
	{
		setv res[r4], r11
		nop
	}
	.loc	1 51 3                  # ../src/extensions/far_end_dsp.xc:51:3
	{
		eeu res[r4]
		nop
	}
	.loc	1 123 0                 # ../src/extensions/far_end_dsp.xc:123:0
	{
		setsr 1
		nop
	}
	{
		nop
		nop
	}
	{
		clrsr 1
		nop
	}
	.loc	1 123 0                 # ../src/extensions/far_end_dsp.xc:123:0
	bu .Ltmp72
.Ltmp71:                                # Block address taken
.LBB8_1:                                # %selectcase
.Lxtalabel5:
.Ltmp73:
	#DEBUG_VALUE: control_server_eq_check:i_control <- R5
	{
		in r1, res[r4]
		nop
	}
	ldc r0, 254
	{
		add r0, r1, r0
		nop
	}
	{
		zext r0, 8
		nop
	}
	{
		sub r1, r1, r0
		nop
	}
	{
		setd res[r4], r1
		nop
	}
	bt r0, .LBB8_2
.Ltmp74:
# BB#17:                                # %switchcase53
	{
		outct res[r4], 1
		nop
	}
	{
		in r0, res[r4]
		nop
	}
.Ltmp75:
	#DEBUG_VALUE: num_resources <- R0
	{
		ldc r0, 8
		nop
	}
.Ltmp76:
	.loc	1 54 0                  # ../src/extensions/far_end_dsp.xc:54:0
	{
		out res[r4], r0
		ldc r0, 0
	}
	.loc	1 54 0                  # ../src/extensions/far_end_dsp.xc:54:0
	{
		out res[r4], r0
		nop
	}
	.loc	1 54 0                  # ../src/extensions/far_end_dsp.xc:54:0
	{
		out res[r4], r0
		ldc r1, 24
	}
	.loc	1 54 0                  # ../src/extensions/far_end_dsp.xc:54:0
	{
		out res[r4], r1
		nop
	}
	.loc	1 54 0                  # ../src/extensions/far_end_dsp.xc:54:0
	{
		outct res[r4], 2
		nop
	}
	.loc	1 54 0                  # ../src/extensions/far_end_dsp.xc:54:0
	{
		chkct res[r4], 1
		nop
	}
.Ltmp77:
	#DEBUG_VALUE: num_resources <- 1
	{
		out res[r4], r0
		mkmsk r0, 1
	}
	{
		out res[r4], r0
		nop
	}
	bu .LBB8_18
.LBB8_2:                                # %selectcase
.Lxtalabel6:
.Ltmp78:
	#DEBUG_VALUE: control_server_eq_check:i_control <- R5
	{
		eq r0, r0, 1
		nop
	}
	bf r0, .LBB8_3
.Ltmp79:
# BB#10:                                # %switchcase13
	#DEBUG_VALUE: control_server_eq_check:i_control <- R5
	{
		outct res[r4], 1
		nop
	}
	{
		int r0, res[r4]
		nop
	}
	{
		int r7, res[r4]
		nop
	}
.Ltmp80:
	#DEBUG_VALUE: payload_len <- R8
	#DEBUG_VALUE: ret <- 0
	{
		in r8, res[r4]
		ldc r1, 24
	}
.Ltmp81:
	.loc	1 62 7                  # ../src/extensions/far_end_dsp.xc:62:7
	{
		eq r0, r0, r1
		nop
	}
	.loc	1 62 7                  # ../src/extensions/far_end_dsp.xc:62:7
	bf r0, .LBB8_20
.Ltmp82:
# BB#11:                                # %iftrue78
.Lxtalabel7:
	#DEBUG_VALUE: control_server_eq_check:i_control <- R5
	#DEBUG_VALUE: payload_len <- R8
	#DEBUG_VALUE: ret <- 0
	{
		mkmsk r0, 3
		nop
	}
	.loc	1 66 0                  # ../src/extensions/far_end_dsp.xc:66:0
.Ltmp83:
	{
		lsu r0, r0, r8
		nop
	}
.Ltrap_info0:
	{
		ecallf r0
		nop
	}
	#DEBUG_VALUE: control_server_eq_check:i_control <- R5
	#DEBUG_VALUE: payload_len <- R8
	#DEBUG_VALUE: ret <- 0
	{
		ldc r6, 4
		nop
	}
	.loc	1 66 0                  # ../src/extensions/far_end_dsp.xc:66:0
	{
		ldc r1, 0
		stw r6, sp[1]
	}
	{
		ldaw r2, sp[3]
		mov r0, r4
	}
	{
		mov r3, r6
		nop
	}
	bl __interface_block_load
	{
		ldc r0, 11
		nop
	}
	.loc	1 67 0                  # ../src/extensions/far_end_dsp.xc:67:0
	{
		lsu r0, r0, r8
		nop
	}
.Ltrap_info1:
	{
		ecallf r0
		nop
	}
	#DEBUG_VALUE: control_server_eq_check:i_control <- R5
	#DEBUG_VALUE: ret <- 0
	.loc	1 67 0                  # ../src/extensions/far_end_dsp.xc:67:0
	{
		ldc r6, 0
		stw r6, sp[1]
	}
.Ltmp84:
	#DEBUG_VALUE: param_type <- [R2+0]
	{
		ldaw r2, sp[4]
		ldc r3, 8
	}
.Ltmp85:
	{
		mov r0, r4
		mov r1, r6
	}
	bl __interface_block_load
	{
		nop
		ldw r0, sp[4]
	}
	.loc	1 69 9                  # ../src/extensions/far_end_dsp.xc:69:9
	{
		eq r0, r0, 1
		nop
	}
	.loc	1 69 9                  # ../src/extensions/far_end_dsp.xc:69:9
	bf r0, .LBB8_12
.Ltmp86:
# BB#13:                                # %ifdone112
.Lxtalabel8:
	#DEBUG_VALUE: control_server_eq_check:i_control <- R5
	#DEBUG_VALUE: ret <- 0
	.loc	1 63 0                  # ../src/extensions/far_end_dsp.xc:63:0
	{
		zext r7, 7
		nop
	}
.Ltmp87:
	#DEBUG_VALUE: idx <- R7
	.loc	1 75 0                  # ../src/extensions/far_end_dsp.xc:75:0
	bf r7, .LBB8_16
.Ltmp88:
# BB#14:
	#DEBUG_VALUE: control_server_eq_check:i_control <- R5
	{
		ldc r0, 5
		nop
	}
	bu .LBB8_15
.Ltmp89:
.LBB8_3:                                # %switchcase
.Lxtalabel9:
	#DEBUG_VALUE: control_server_eq_check:i_control <- R5
	{
		outct res[r4], 1
		nop
	}
	{
		int r2, res[r4]
		nop
	}
	{
		int r1, res[r4]
		nop
	}
.Ltmp90:
	#DEBUG_VALUE: payload_len <- R0
	#DEBUG_VALUE: ret <- 0
	{
		in r0, res[r4]
		ldc r3, 24
	}
.Ltmp91:
	.loc	1 98 7                  # ../src/extensions/far_end_dsp.xc:98:7
	{
		eq r2, r2, r3
		nop
	}
	.loc	1 98 7                  # ../src/extensions/far_end_dsp.xc:98:7
	bf r2, .LBB8_4
.Ltmp92:
# BB#6:                                 # %iftrue
.Lxtalabel10:
	#DEBUG_VALUE: control_server_eq_check:i_control <- R5
	#DEBUG_VALUE: payload_len <- R0
	#DEBUG_VALUE: ret <- 0
	.loc	1 99 0                  # ../src/extensions/far_end_dsp.xc:99:0
	{
		zext r1, 7
		nop
	}
.Ltmp93:
	#DEBUG_VALUE: idx <- R1
	ldc r2, 64
	.loc	1 102 0                 # ../src/extensions/far_end_dsp.xc:102:0
.Ltmp94:
	{
		eq r1, r1, r2
		nop
	}
.Ltmp95:
	.loc	1 102 0                 # ../src/extensions/far_end_dsp.xc:102:0
	bf r1, .LBB8_7
.Ltmp96:
# BB#9:                                 # %switchcase35
.Lxtalabel11:
	#DEBUG_VALUE: control_server_eq_check:i_control <- R5
	#DEBUG_VALUE: payload_len <- R0
	#DEBUG_VALUE: ret <- 0
	.loc	1 104 0                 # ../src/extensions/far_end_dsp.xc:104:0
	ldw r1, dp[g_eq_enable]
.Ltmp97:
	#DEBUG_VALUE: val <- R1
	.loc	1 104 0                 # ../src/extensions/far_end_dsp.xc:104:0
	{
		ldc r6, 0
		stw r1, sp[5]
	}
	bu .LBB8_8
.Ltmp98:
.LBB8_20:                               # %iffalse84
.Lxtalabel12:
	#DEBUG_VALUE: ret <- 5
	{
		ldc r0, 0
		nop
	}
	{
		out res[r4], r0
		ldc r0, 5
	}
	{
		outt res[r4], r0
		nop
	}
	bu .LBB8_18
.LBB8_4:
	{
		ldc r6, 5
		nop
	}
	bu .LBB8_5
.LBB8_12:                               # %iftrue111
.Lxtalabel13:
.Ltmp99:
	#DEBUG_VALUE: control_server_eq_check:i_control <- R5
	#DEBUG_VALUE: ret <- 5
	{
		nop
		ldw r0, r5[0]
	}
	{
		out res[r0], r6
		ldc r1, 5
	}
	{
		outt res[r0], r1
		nop
	}
	{
		outct res[r0], 1
		nop
	}
	bu .LBB8_19
.Ltmp100:
.LBB8_7:
	#DEBUG_VALUE: control_server_eq_check:i_control <- R5
	{
		ldc r6, 5
		nop
	}
.Ltmp101:
.LBB8_8:                                # %switchdone34
.Lxtalabel14:
	#DEBUG_VALUE: control_server_eq_check:i_control <- R5
	#DEBUG_VALUE: payload_len <- R0
	#DEBUG_VALUE: ret <- 0
	{
		mkmsk r1, 2
		nop
	}
	.loc	1 114 0                 # ../src/extensions/far_end_dsp.xc:114:0
	{
		lsu r0, r1, r0
		nop
	}
.Ltmp102:
.Ltrap_info2:
	{
		ecallf r0
		nop
	}
	#DEBUG_VALUE: control_server_eq_check:i_control <- R5
	#DEBUG_VALUE: ret <- 0
	{
		ldc r0, 4
		nop
	}
	.loc	1 114 0                 # ../src/extensions/far_end_dsp.xc:114:0
	{
		ldaw r2, sp[5]
		stw r0, sp[1]
	}
	{
		ldc r1, 0
		mov r0, r4
	}
	{
		mov r3, r1
		nop
	}
	bl __interface_block_store
	{
		nop
		ldw r4, r5[0]
	}
.Ltmp103:
.LBB8_5:                                # %ifdone
.Lxtalabel15:
	#DEBUG_VALUE: ret <- 0
	{
		ldc r0, 0
		nop
	}
	{
		out res[r4], r0
		nop
	}
	{
		outt res[r4], r6
		nop
	}
.LBB8_18:                               # %return
	{
		outct res[r4], 1
		nop
	}
.Ltmp72:                                # Block address taken
.LBB8_19:                               # %return
	{
		nop
		ldw r8, sp[10]
	}
	ldd r7, r6, sp[4]               # 4-byte Folded Reload
	ldd r5, r4, sp[3]               # 4-byte Folded Reload
	{
		nop
		retsp 12
	}
	# RETURN_REG_HOLDER
.LBB8_16:                               # %switchcase127
.Lxtalabel16:
.Ltmp104:
	#DEBUG_VALUE: control_server_eq_check:i_control <- R5
	#DEBUG_VALUE: ret <- 0
	{
		nop
		ldw r0, sp[3]
	}
	.loc	1 77 0                  # ../src/extensions/far_end_dsp.xc:77:0
.Ltmp105:
	stw r0, dp[g_eq_enable]
	{
		mov r0, r6
		nop
	}
.Ltmp106:
.LBB8_15:                               # %switchdone126
.Lxtalabel17:
	#DEBUG_VALUE: control_server_eq_check:i_control <- R5
	#DEBUG_VALUE: ret <- 0
	{
		nop
		ldw r1, r5[0]
	}
	{
		out res[r1], r6
		nop
	}
	{
		outt res[r1], r0
		nop
	}
	{
		outct res[r1], 1
		nop
	}
	bu .LBB8_19
	.cc_bottom control_server_eq_check.function
	.set	control_server_eq_check.nstackwords,((__interface_block_load.nstackwords $M __interface_block_store.nstackwords) + 12)
	.globl	control_server_eq_check.nstackwords
	.set	control_server_eq_check.maxcores,__interface_block_load.maxcores $M __interface_block_store.maxcores $M 1
	.globl	control_server_eq_check.maxcores
	.set	control_server_eq_check.maxtimers,__interface_block_load.maxtimers $M __interface_block_store.maxtimers $M 0
	.globl	control_server_eq_check.maxtimers
	.set	control_server_eq_check.maxchanends,__interface_block_load.maxchanends $M __interface_block_store.maxchanends $M 0
	.globl	control_server_eq_check.maxchanends
.Ltmp107:
	.size	control_server_eq_check, .Ltmp107-control_server_eq_check
.Lfunc_end8:
	.cfi_endproc

	.globl	_Scontrol_server_eq_check_0
	.align	4
	.type	_Scontrol_server_eq_check_0,@function
	.cc_top _Scontrol_server_eq_check_0.function,_Scontrol_server_eq_check_0
_Scontrol_server_eq_check_0:            # @_Scontrol_server_eq_check_0
.Lfunc_begin9:
	.loc	1 50 0                  # ../src/extensions/far_end_dsp.xc:50:0
	.cfi_startproc
	.issue_mode dual
# BB#0:                                 # %allocas
.Lxtalabel18:
	{
		nop
		dualentsp 12
	}
.Ltmp108:
	.cfi_def_cfa_offset 48
.Ltmp109:
	.cfi_offset 15, 0
	std r5, r4, sp[3]               # 4-byte Folded Spill
.Ltmp110:
	.cfi_offset 4, -24
.Ltmp111:
	.cfi_offset 5, -20
	std r7, r6, sp[4]               # 4-byte Folded Spill
.Ltmp112:
	.cfi_offset 6, -16
.Ltmp113:
	.cfi_offset 7, -12
.Ltmp114:
	.cfi_offset 8, -8
	#DEBUG_VALUE: control_server_eq_check:i_control <- R0
.Ltmp115:
	#DEBUG_VALUE: control_server_eq_check:i_control <- R5
	{
		mov r5, r0
		stw r8, sp[10]
	}
.Ltmp116:
	.loc	1 51 3 prologue_end     # ../src/extensions/far_end_dsp.xc:51:3
	{
		clre
		ldw r4, r5[0]
	}
	ldap r11, .Ltmp117
	.loc	1 51 3                  # ../src/extensions/far_end_dsp.xc:51:3
	{
		setv res[r4], r11
		nop
	}
	.loc	1 51 3                  # ../src/extensions/far_end_dsp.xc:51:3
	{
		eeu res[r4]
		nop
	}
	.loc	1 123 0                 # ../src/extensions/far_end_dsp.xc:123:0
	{
		setsr 1
		nop
	}
	{
		nop
		nop
	}
	{
		clrsr 1
		nop
	}
	.loc	1 123 0                 # ../src/extensions/far_end_dsp.xc:123:0
	bu .Ltmp118
.Ltmp117:                               # Block address taken
.LBB9_1:                                # %selectcase
.Lxtalabel19:
.Ltmp119:
	#DEBUG_VALUE: control_server_eq_check:i_control <- R5
	{
		in r1, res[r4]
		nop
	}
	ldc r0, 254
	{
		add r0, r1, r0
		nop
	}
	{
		zext r0, 8
		nop
	}
	{
		sub r1, r1, r0
		nop
	}
	{
		setd res[r4], r1
		nop
	}
	bt r0, .LBB9_2
.Ltmp120:
# BB#17:                                # %switchcase53
	{
		outct res[r4], 1
		nop
	}
	{
		in r0, res[r4]
		nop
	}
.Ltmp121:
	#DEBUG_VALUE: num_resources <- R0
	{
		ldc r0, 8
		nop
	}
.Ltmp122:
	.loc	1 54 0                  # ../src/extensions/far_end_dsp.xc:54:0
	{
		out res[r4], r0
		ldc r0, 0
	}
	.loc	1 54 0                  # ../src/extensions/far_end_dsp.xc:54:0
	{
		out res[r4], r0
		nop
	}
	.loc	1 54 0                  # ../src/extensions/far_end_dsp.xc:54:0
	{
		out res[r4], r0
		ldc r1, 24
	}
	.loc	1 54 0                  # ../src/extensions/far_end_dsp.xc:54:0
	{
		out res[r4], r1
		nop
	}
	.loc	1 54 0                  # ../src/extensions/far_end_dsp.xc:54:0
	{
		outct res[r4], 2
		nop
	}
	.loc	1 54 0                  # ../src/extensions/far_end_dsp.xc:54:0
	{
		chkct res[r4], 1
		nop
	}
.Ltmp123:
	#DEBUG_VALUE: num_resources <- 1
	{
		out res[r4], r0
		mkmsk r0, 1
	}
	{
		out res[r4], r0
		nop
	}
	bu .LBB9_18
.LBB9_2:                                # %selectcase
.Lxtalabel20:
.Ltmp124:
	#DEBUG_VALUE: control_server_eq_check:i_control <- R5
	{
		eq r0, r0, 1
		nop
	}
	bf r0, .LBB9_3
.Ltmp125:
# BB#10:                                # %switchcase13
	#DEBUG_VALUE: control_server_eq_check:i_control <- R5
	{
		outct res[r4], 1
		nop
	}
	{
		int r0, res[r4]
		nop
	}
	{
		int r7, res[r4]
		nop
	}
.Ltmp126:
	#DEBUG_VALUE: payload_len <- R8
	#DEBUG_VALUE: ret <- 0
	{
		in r8, res[r4]
		ldc r1, 24
	}
.Ltmp127:
	.loc	1 62 7                  # ../src/extensions/far_end_dsp.xc:62:7
	{
		eq r0, r0, r1
		nop
	}
	.loc	1 62 7                  # ../src/extensions/far_end_dsp.xc:62:7
	bf r0, .LBB9_20
.Ltmp128:
# BB#11:                                # %iftrue78
.Lxtalabel21:
	#DEBUG_VALUE: control_server_eq_check:i_control <- R5
	#DEBUG_VALUE: payload_len <- R8
	#DEBUG_VALUE: ret <- 0
	{
		mkmsk r0, 3
		nop
	}
	.loc	1 66 0                  # ../src/extensions/far_end_dsp.xc:66:0
.Ltmp129:
	{
		lsu r0, r0, r8
		nop
	}
.Ltrap_info3:
	{
		ecallf r0
		nop
	}
	#DEBUG_VALUE: control_server_eq_check:i_control <- R5
	#DEBUG_VALUE: payload_len <- R8
	#DEBUG_VALUE: ret <- 0
	{
		ldc r6, 4
		nop
	}
	.loc	1 66 0                  # ../src/extensions/far_end_dsp.xc:66:0
	{
		ldc r1, 0
		stw r6, sp[1]
	}
	{
		ldaw r2, sp[3]
		mov r0, r4
	}
	{
		mov r3, r6
		nop
	}
	bl __interface_block_load
	{
		ldc r0, 11
		nop
	}
	.loc	1 67 0                  # ../src/extensions/far_end_dsp.xc:67:0
	{
		lsu r0, r0, r8
		nop
	}
.Ltrap_info4:
	{
		ecallf r0
		nop
	}
	#DEBUG_VALUE: control_server_eq_check:i_control <- R5
	#DEBUG_VALUE: ret <- 0
	.loc	1 67 0                  # ../src/extensions/far_end_dsp.xc:67:0
	{
		ldc r6, 0
		stw r6, sp[1]
	}
.Ltmp130:
	#DEBUG_VALUE: param_type <- [R2+0]
	{
		ldaw r2, sp[4]
		ldc r3, 8
	}
.Ltmp131:
	{
		mov r0, r4
		mov r1, r6
	}
	bl __interface_block_load
	{
		nop
		ldw r0, sp[4]
	}
	.loc	1 69 9                  # ../src/extensions/far_end_dsp.xc:69:9
	{
		eq r0, r0, 1
		nop
	}
	.loc	1 69 9                  # ../src/extensions/far_end_dsp.xc:69:9
	bf r0, .LBB9_12
.Ltmp132:
# BB#13:                                # %ifdone112
.Lxtalabel22:
	#DEBUG_VALUE: control_server_eq_check:i_control <- R5
	#DEBUG_VALUE: ret <- 0
	.loc	1 63 0                  # ../src/extensions/far_end_dsp.xc:63:0
	{
		zext r7, 7
		nop
	}
.Ltmp133:
	#DEBUG_VALUE: idx <- R7
	.loc	1 75 0                  # ../src/extensions/far_end_dsp.xc:75:0
	bf r7, .LBB9_16
.Ltmp134:
# BB#14:
	#DEBUG_VALUE: control_server_eq_check:i_control <- R5
	{
		ldc r0, 5
		nop
	}
	bu .LBB9_15
.Ltmp135:
.LBB9_3:                                # %switchcase
.Lxtalabel23:
	#DEBUG_VALUE: control_server_eq_check:i_control <- R5
	{
		outct res[r4], 1
		nop
	}
	{
		int r2, res[r4]
		nop
	}
	{
		int r1, res[r4]
		nop
	}
.Ltmp136:
	#DEBUG_VALUE: payload_len <- R0
	#DEBUG_VALUE: ret <- 0
	{
		in r0, res[r4]
		ldc r3, 24
	}
.Ltmp137:
	.loc	1 98 7                  # ../src/extensions/far_end_dsp.xc:98:7
	{
		eq r2, r2, r3
		nop
	}
	.loc	1 98 7                  # ../src/extensions/far_end_dsp.xc:98:7
	bf r2, .LBB9_4
.Ltmp138:
# BB#6:                                 # %iftrue
.Lxtalabel24:
	#DEBUG_VALUE: control_server_eq_check:i_control <- R5
	#DEBUG_VALUE: payload_len <- R0
	#DEBUG_VALUE: ret <- 0
	.loc	1 99 0                  # ../src/extensions/far_end_dsp.xc:99:0
	{
		zext r1, 7
		nop
	}
.Ltmp139:
	#DEBUG_VALUE: idx <- R1
	ldc r2, 64
	.loc	1 102 0                 # ../src/extensions/far_end_dsp.xc:102:0
.Ltmp140:
	{
		eq r1, r1, r2
		nop
	}
.Ltmp141:
	.loc	1 102 0                 # ../src/extensions/far_end_dsp.xc:102:0
	bf r1, .LBB9_7
.Ltmp142:
# BB#9:                                 # %switchcase35
.Lxtalabel25:
	#DEBUG_VALUE: control_server_eq_check:i_control <- R5
	#DEBUG_VALUE: payload_len <- R0
	#DEBUG_VALUE: ret <- 0
	.loc	1 104 0                 # ../src/extensions/far_end_dsp.xc:104:0
	ldw r1, dp[g_eq_enable]
.Ltmp143:
	#DEBUG_VALUE: val <- R1
	.loc	1 104 0                 # ../src/extensions/far_end_dsp.xc:104:0
	{
		ldc r6, 0
		stw r1, sp[5]
	}
	bu .LBB9_8
.Ltmp144:
.LBB9_20:                               # %iffalse84
.Lxtalabel26:
	#DEBUG_VALUE: ret <- 5
	{
		ldc r0, 0
		nop
	}
	{
		out res[r4], r0
		ldc r0, 5
	}
	{
		outt res[r4], r0
		nop
	}
	bu .LBB9_18
.LBB9_4:
	{
		ldc r6, 5
		nop
	}
	bu .LBB9_5
.LBB9_12:                               # %iftrue111
.Lxtalabel27:
.Ltmp145:
	#DEBUG_VALUE: control_server_eq_check:i_control <- R5
	#DEBUG_VALUE: ret <- 5
	{
		nop
		ldw r0, r5[0]
	}
	{
		out res[r0], r6
		ldc r1, 5
	}
	{
		outt res[r0], r1
		nop
	}
	{
		outct res[r0], 1
		nop
	}
	bu .LBB9_19
.Ltmp146:
.LBB9_7:
	#DEBUG_VALUE: control_server_eq_check:i_control <- R5
	{
		ldc r6, 5
		nop
	}
.Ltmp147:
.LBB9_8:                                # %switchdone34
.Lxtalabel28:
	#DEBUG_VALUE: control_server_eq_check:i_control <- R5
	#DEBUG_VALUE: payload_len <- R0
	#DEBUG_VALUE: ret <- 0
	{
		mkmsk r1, 2
		nop
	}
	.loc	1 114 0                 # ../src/extensions/far_end_dsp.xc:114:0
	{
		lsu r0, r1, r0
		nop
	}
.Ltmp148:
.Ltrap_info5:
	{
		ecallf r0
		nop
	}
	#DEBUG_VALUE: control_server_eq_check:i_control <- R5
	#DEBUG_VALUE: ret <- 0
	{
		ldc r0, 4
		nop
	}
	.loc	1 114 0                 # ../src/extensions/far_end_dsp.xc:114:0
	{
		ldaw r2, sp[5]
		stw r0, sp[1]
	}
	{
		ldc r1, 0
		mov r0, r4
	}
	{
		mov r3, r1
		nop
	}
	bl __interface_block_store
	{
		nop
		ldw r4, r5[0]
	}
.Ltmp149:
.LBB9_5:                                # %ifdone
.Lxtalabel29:
	#DEBUG_VALUE: ret <- 0
	{
		ldc r0, 0
		nop
	}
	{
		out res[r4], r0
		nop
	}
	{
		outt res[r4], r6
		nop
	}
.LBB9_18:                               # %return
	{
		outct res[r4], 1
		nop
	}
.Ltmp118:                               # Block address taken
.LBB9_19:                               # %return
	{
		nop
		ldw r8, sp[10]
	}
	ldd r7, r6, sp[4]               # 4-byte Folded Reload
	ldd r5, r4, sp[3]               # 4-byte Folded Reload
	{
		nop
		retsp 12
	}
	# RETURN_REG_HOLDER
.LBB9_16:                               # %switchcase127
.Lxtalabel30:
.Ltmp150:
	#DEBUG_VALUE: control_server_eq_check:i_control <- R5
	#DEBUG_VALUE: ret <- 0
	{
		nop
		ldw r0, sp[3]
	}
	.loc	1 77 0                  # ../src/extensions/far_end_dsp.xc:77:0
.Ltmp151:
	stw r0, dp[g_eq_enable]
	{
		mov r0, r6
		nop
	}
.Ltmp152:
.LBB9_15:                               # %switchdone126
.Lxtalabel31:
	#DEBUG_VALUE: control_server_eq_check:i_control <- R5
	#DEBUG_VALUE: ret <- 0
	{
		nop
		ldw r1, r5[0]
	}
	{
		out res[r1], r6
		nop
	}
	{
		outt res[r1], r0
		nop
	}
	{
		outct res[r1], 1
		nop
	}
	bu .LBB9_19
	.cc_bottom _Scontrol_server_eq_check_0.function
	.set	_Scontrol_server_eq_check_0.nstackwords,((__interface_block_load.nstackwords $M __interface_block_store.nstackwords) + 12)
	.globl	_Scontrol_server_eq_check_0.nstackwords
	.set	_Scontrol_server_eq_check_0.maxcores,__interface_block_load.maxcores $M __interface_block_store.maxcores $M 1
	.globl	_Scontrol_server_eq_check_0.maxcores
	.set	_Scontrol_server_eq_check_0.maxtimers,__interface_block_load.maxtimers $M __interface_block_store.maxtimers $M 0
	.globl	_Scontrol_server_eq_check_0.maxtimers
	.set	_Scontrol_server_eq_check_0.maxchanends,__interface_block_load.maxchanends $M __interface_block_store.maxchanends $M 0
	.globl	_Scontrol_server_eq_check_0.maxchanends
.Ltmp153:
	.size	_Scontrol_server_eq_check_0, .Ltmp153-_Scontrol_server_eq_check_0
.Lfunc_end9:
	.cfi_endproc

	.section	.dp.bss.4,"awd",@nobits
	.cc_top g_eq_enable.data,g_eq_enable
	.globl	g_eq_enable
	.align	4
	.type	g_eq_enable,@object
	.size	g_eq_enable, 4
g_eq_enable:
	.long	0                       # 0x0
	.cc_bottom g_eq_enable.data
	.section	.dp.data,"awd",@progbits
	.cc_top eq_far_end.data,eq_far_end
	.globl	eq_far_end
	.align	8
	.type	eq_far_end,@object
	.size	eq_far_end, 128
eq_far_end:
	.long	1                       # 0x1
	.long	3                       # 0x3
	.long	0                       # 0x0
	.long	0
	.space	48
	.long	134601895               # 0x805dca7
	.long	4028399009              # 0xf01c7da1
	.long	131998654               # 0x7de23be
	.long	266576333               # 0xfe3a1cd
	.long	4162592522              # 0xf81c1f0a
	.long	116181233               # 0x6ecc8f1
	.long	4100527352              # 0xf46914f8
	.long	79936526                # 0x4c3bc0e
	.long	194439944               # 0xb96eb08
	.long	4233067265              # 0xfc4f7b01
	.long	212230520               # 0xca66178
	.long	4117264514              # 0xf5687882
	.long	75246223                # 0x47c2a8f
	.long	61684039                # 0x3ad3947
	.long	4257727024              # 0xfdc7c230
	.long	27                      # 0x1b
	.cc_bottom eq_far_end.data
	.section	.dp.bss.4,"awd",@nobits
.Ldebug_end0:
	.section	.dp.data,"awd",@progbits
.Ldebug_end1:
	.text
.Ldebug_end2:
	.file	2 "C:\\Program Files (x86)\\XMOS\\xTIMEcomposer\\Community_14.3.3\\target/include\\timer.h"
	.file	3 "C:\\Program Files (x86)\\XMOS\\xTIMEcomposer\\Community_14.3.3\\target/include/xc\\safe\\string.h"
	.file	4 "C:/Users/user/workspace/lib_dsp/api\\dsp_math.h"
	.section	.xtacalltable,"",@progbits
.Lentries_start0:
	.long	.Lentries_end1-.Lentries_start0
	.long	0
	.ascii	"C:\\Users\\user\\workspace\\app_vf_spk_base\\.build_1i2o2_lin33_48k_farenddsp"
	.byte	0
.cc_top cc_0,.Lxta.call_labels0
	.ascii	"../src/extensions/far_end_dsp.xc"
	.byte	0
	.long	171
	.long	.Lxta.call_labels0
.cc_bottom cc_0
.cc_top cc_1,.Lxta.call_labels1
	.ascii	"../src/extensions/far_end_dsp.xc"
	.byte	0
	.long	171
	.long	.Lxta.call_labels1
.cc_bottom cc_1
.Lentries_end1:
	.section	.xtaendpointtable,"",@progbits
.Lentries_start2:
	.long	.Lentries_end3-.Lentries_start2
	.long	0
	.ascii	"C:\\Users\\user\\workspace\\app_vf_spk_base\\.build_1i2o2_lin33_48k_farenddsp"
	.byte	0
.cc_top cc_2,.Lxta.endpoint_labels0
	.ascii	"../src/extensions/far_end_dsp.xc"
	.byte	0
	.long	155
	.long	.Lxta.endpoint_labels0
.cc_bottom cc_2
.cc_top cc_3,.Lxta.endpoint_labels3
	.ascii	"../src/extensions/far_end_dsp.xc"
	.byte	0
	.long	155
	.long	.Lxta.endpoint_labels3
.cc_bottom cc_3
.cc_top cc_4,.Lxta.endpoint_labels1
	.ascii	"../src/extensions/far_end_dsp.xc"
	.byte	0
	.long	158
	.long	.Lxta.endpoint_labels1
.cc_bottom cc_4
.cc_top cc_5,.Lxta.endpoint_labels4
	.ascii	"../src/extensions/far_end_dsp.xc"
	.byte	0
	.long	158
	.long	.Lxta.endpoint_labels4
.cc_bottom cc_5
.cc_top cc_6,.Lxta.endpoint_labels2
	.ascii	"../src/extensions/far_end_dsp.xc"
	.byte	0
	.long	160
	.long	.Lxta.endpoint_labels2
.cc_bottom cc_6
.cc_top cc_7,.Lxta.endpoint_labels5
	.ascii	"../src/extensions/far_end_dsp.xc"
	.byte	0
	.long	160
	.long	.Lxta.endpoint_labels5
.cc_bottom cc_7
.Lentries_end3:
	.section	.xtalabeltable,"",@progbits
.Lentries_start4:
	.long	.Lentries_end5-.Lentries_start4
	.long	0
	.ascii	"C:\\Users\\user\\workspace\\app_vf_spk_base\\.build_1i2o2_lin33_48k_farenddsp"
	.byte	0
.cc_top cc_8,.Lxtalabel18
	.ascii	"../src/extensions/far_end_dsp.xc"
	.byte	0
	.long	51
	.long	53
	.long	.Lxtalabel18
.cc_bottom cc_8
.cc_top cc_9,.Lxtalabel4
	.ascii	"../src/extensions/far_end_dsp.xc"
	.byte	0
	.long	51
	.long	53
	.long	.Lxtalabel4
.cc_bottom cc_9
.cc_top cc_10,.Lxtalabel19
	.ascii	"../src/extensions/far_end_dsp.xc"
	.byte	0
	.long	54
	.long	57
	.long	.Lxtalabel19
.cc_bottom cc_10
.cc_top cc_11,.Lxtalabel6
	.ascii	"../src/extensions/far_end_dsp.xc"
	.byte	0
	.long	54
	.long	57
	.long	.Lxtalabel6
.cc_bottom cc_11
.cc_top cc_12,.Lxtalabel20
	.ascii	"../src/extensions/far_end_dsp.xc"
	.byte	0
	.long	54
	.long	57
	.long	.Lxtalabel20
.cc_bottom cc_12
.cc_top cc_13,.Lxtalabel5
	.ascii	"../src/extensions/far_end_dsp.xc"
	.byte	0
	.long	54
	.long	57
	.long	.Lxtalabel5
.cc_bottom cc_13
.cc_top cc_14,.Lxtalabel6
	.ascii	"../src/extensions/far_end_dsp.xc"
	.byte	0
	.long	59
	.long	60
	.long	.Lxtalabel6
.cc_bottom cc_14
.cc_top cc_15,.Lxtalabel20
	.ascii	"../src/extensions/far_end_dsp.xc"
	.byte	0
	.long	59
	.long	60
	.long	.Lxtalabel20
.cc_bottom cc_15
.cc_top cc_16,.Lxtalabel19
	.ascii	"../src/extensions/far_end_dsp.xc"
	.byte	0
	.long	59
	.long	60
	.long	.Lxtalabel19
.cc_bottom cc_16
.cc_top cc_17,.Lxtalabel5
	.ascii	"../src/extensions/far_end_dsp.xc"
	.byte	0
	.long	59
	.long	60
	.long	.Lxtalabel5
.cc_bottom cc_17
.cc_top cc_18,.Lxtalabel21
	.ascii	"../src/extensions/far_end_dsp.xc"
	.byte	0
	.long	63
	.long	65
	.long	.Lxtalabel21
.cc_bottom cc_18
.cc_top cc_19,.Lxtalabel7
	.ascii	"../src/extensions/far_end_dsp.xc"
	.byte	0
	.long	63
	.long	65
	.long	.Lxtalabel7
.cc_bottom cc_19
.cc_top cc_20,.Lxtalabel21
	.ascii	"../src/extensions/far_end_dsp.xc"
	.byte	0
	.long	66
	.long	66
	.long	.Lxtalabel21
.cc_bottom cc_20
.cc_top cc_21,.Lxtalabel7
	.ascii	"../src/extensions/far_end_dsp.xc"
	.byte	0
	.long	66
	.long	66
	.long	.Lxtalabel7
.cc_bottom cc_21
.cc_top cc_22,.Lxtalabel21
	.ascii	"../src/extensions/far_end_dsp.xc"
	.byte	0
	.long	67
	.long	67
	.long	.Lxtalabel21
.cc_bottom cc_22
.cc_top cc_23,.Lxtalabel7
	.ascii	"../src/extensions/far_end_dsp.xc"
	.byte	0
	.long	67
	.long	67
	.long	.Lxtalabel7
.cc_bottom cc_23
.cc_top cc_24,.Lxtalabel21
	.ascii	"../src/extensions/far_end_dsp.xc"
	.byte	0
	.long	69
	.long	69
	.long	.Lxtalabel21
.cc_bottom cc_24
.cc_top cc_25,.Lxtalabel7
	.ascii	"../src/extensions/far_end_dsp.xc"
	.byte	0
	.long	69
	.long	69
	.long	.Lxtalabel7
.cc_bottom cc_25
.cc_top cc_26,.Lxtalabel13
	.ascii	"../src/extensions/far_end_dsp.xc"
	.byte	0
	.long	70
	.long	73
	.long	.Lxtalabel13
.cc_bottom cc_26
.cc_top cc_27,.Lxtalabel27
	.ascii	"../src/extensions/far_end_dsp.xc"
	.byte	0
	.long	70
	.long	73
	.long	.Lxtalabel27
.cc_bottom cc_27
.cc_top cc_28,.Lxtalabel22
	.ascii	"../src/extensions/far_end_dsp.xc"
	.byte	0
	.long	74
	.long	76
	.long	.Lxtalabel22
.cc_bottom cc_28
.cc_top cc_29,.Lxtalabel8
	.ascii	"../src/extensions/far_end_dsp.xc"
	.byte	0
	.long	74
	.long	76
	.long	.Lxtalabel8
.cc_bottom cc_29
.cc_top cc_30,.Lxtalabel16
	.ascii	"../src/extensions/far_end_dsp.xc"
	.byte	0
	.long	77
	.long	79
	.long	.Lxtalabel16
.cc_bottom cc_30
.cc_top cc_31,.Lxtalabel30
	.ascii	"../src/extensions/far_end_dsp.xc"
	.byte	0
	.long	77
	.long	79
	.long	.Lxtalabel30
.cc_bottom cc_31
.cc_top cc_32,.Lxtalabel16
	.ascii	"../src/extensions/far_end_dsp.xc"
	.byte	0
	.long	81
	.long	81
	.long	.Lxtalabel16
.cc_bottom cc_32
.cc_top cc_33,.Lxtalabel30
	.ascii	"../src/extensions/far_end_dsp.xc"
	.byte	0
	.long	81
	.long	81
	.long	.Lxtalabel30
.cc_bottom cc_33
.cc_top cc_34,.Lxtalabel22
	.ascii	"../src/extensions/far_end_dsp.xc"
	.byte	0
	.long	82
	.long	85
	.long	.Lxtalabel22
.cc_bottom cc_34
.cc_top cc_35,.Lxtalabel8
	.ascii	"../src/extensions/far_end_dsp.xc"
	.byte	0
	.long	82
	.long	85
	.long	.Lxtalabel8
.cc_bottom cc_35
.cc_top cc_36,.Lxtalabel17
	.ascii	"../src/extensions/far_end_dsp.xc"
	.byte	0
	.long	86
	.long	87
	.long	.Lxtalabel17
.cc_bottom cc_36
.cc_top cc_37,.Lxtalabel31
	.ascii	"../src/extensions/far_end_dsp.xc"
	.byte	0
	.long	86
	.long	87
	.long	.Lxtalabel31
.cc_bottom cc_37
.cc_top cc_38,.Lxtalabel26
	.ascii	"../src/extensions/far_end_dsp.xc"
	.byte	0
	.long	88
	.long	92
	.long	.Lxtalabel26
.cc_bottom cc_38
.cc_top cc_39,.Lxtalabel12
	.ascii	"../src/extensions/far_end_dsp.xc"
	.byte	0
	.long	88
	.long	92
	.long	.Lxtalabel12
.cc_bottom cc_39
.cc_top cc_40,.Lxtalabel17
	.ascii	"../src/extensions/far_end_dsp.xc"
	.byte	0
	.long	93
	.long	93
	.long	.Lxtalabel17
.cc_bottom cc_40
.cc_top cc_41,.Lxtalabel31
	.ascii	"../src/extensions/far_end_dsp.xc"
	.byte	0
	.long	93
	.long	93
	.long	.Lxtalabel31
.cc_bottom cc_41
.cc_top cc_42,.Lxtalabel17
	.ascii	"../src/extensions/far_end_dsp.xc"
	.byte	0
	.long	95
	.long	96
	.long	.Lxtalabel17
.cc_bottom cc_42
.cc_top cc_43,.Lxtalabel31
	.ascii	"../src/extensions/far_end_dsp.xc"
	.byte	0
	.long	95
	.long	96
	.long	.Lxtalabel31
.cc_bottom cc_43
.cc_top cc_44,.Lxtalabel10
	.ascii	"../src/extensions/far_end_dsp.xc"
	.byte	0
	.long	99
	.long	103
	.long	.Lxtalabel10
.cc_bottom cc_44
.cc_top cc_45,.Lxtalabel24
	.ascii	"../src/extensions/far_end_dsp.xc"
	.byte	0
	.long	99
	.long	103
	.long	.Lxtalabel24
.cc_bottom cc_45
.cc_top cc_46,.Lxtalabel11
	.ascii	"../src/extensions/far_end_dsp.xc"
	.byte	0
	.long	104
	.long	106
	.long	.Lxtalabel11
.cc_bottom cc_46
.cc_top cc_47,.Lxtalabel25
	.ascii	"../src/extensions/far_end_dsp.xc"
	.byte	0
	.long	104
	.long	106
	.long	.Lxtalabel25
.cc_bottom cc_47
.cc_top cc_48,.Lxtalabel11
	.ascii	"../src/extensions/far_end_dsp.xc"
	.byte	0
	.long	108
	.long	108
	.long	.Lxtalabel11
.cc_bottom cc_48
.cc_top cc_49,.Lxtalabel25
	.ascii	"../src/extensions/far_end_dsp.xc"
	.byte	0
	.long	108
	.long	108
	.long	.Lxtalabel25
.cc_bottom cc_49
.cc_top cc_50,.Lxtalabel24
	.ascii	"../src/extensions/far_end_dsp.xc"
	.byte	0
	.long	109
	.long	112
	.long	.Lxtalabel24
.cc_bottom cc_50
.cc_top cc_51,.Lxtalabel10
	.ascii	"../src/extensions/far_end_dsp.xc"
	.byte	0
	.long	109
	.long	112
	.long	.Lxtalabel10
.cc_bottom cc_51
.cc_top cc_52,.Lxtalabel14
	.ascii	"../src/extensions/far_end_dsp.xc"
	.byte	0
	.long	113
	.long	113
	.long	.Lxtalabel14
.cc_bottom cc_52
.cc_top cc_53,.Lxtalabel28
	.ascii	"../src/extensions/far_end_dsp.xc"
	.byte	0
	.long	113
	.long	113
	.long	.Lxtalabel28
.cc_bottom cc_53
.cc_top cc_54,.Lxtalabel14
	.ascii	"../src/extensions/far_end_dsp.xc"
	.byte	0
	.long	114
	.long	114
	.long	.Lxtalabel14
.cc_bottom cc_54
.cc_top cc_55,.Lxtalabel28
	.ascii	"../src/extensions/far_end_dsp.xc"
	.byte	0
	.long	114
	.long	114
	.long	.Lxtalabel28
.cc_bottom cc_55
.cc_top cc_56,.Lxtalabel14
	.ascii	"../src/extensions/far_end_dsp.xc"
	.byte	0
	.long	115
	.long	115
	.long	.Lxtalabel14
.cc_bottom cc_56
.cc_top cc_57,.Lxtalabel28
	.ascii	"../src/extensions/far_end_dsp.xc"
	.byte	0
	.long	115
	.long	115
	.long	.Lxtalabel28
.cc_bottom cc_57
.cc_top cc_58,.Lxtalabel23
	.ascii	"../src/extensions/far_end_dsp.xc"
	.byte	0
	.long	116
	.long	119
	.long	.Lxtalabel23
.cc_bottom cc_58
.cc_top cc_59,.Lxtalabel9
	.ascii	"../src/extensions/far_end_dsp.xc"
	.byte	0
	.long	116
	.long	119
	.long	.Lxtalabel9
.cc_bottom cc_59
.cc_top cc_60,.Lxtalabel15
	.ascii	"../src/extensions/far_end_dsp.xc"
	.byte	0
	.long	120
	.long	120
	.long	.Lxtalabel15
.cc_bottom cc_60
.cc_top cc_61,.Lxtalabel29
	.ascii	"../src/extensions/far_end_dsp.xc"
	.byte	0
	.long	120
	.long	120
	.long	.Lxtalabel29
.cc_bottom cc_61
.cc_top cc_62,.Lxtalabel15
	.ascii	"../src/extensions/far_end_dsp.xc"
	.byte	0
	.long	122
	.long	123
	.long	.Lxtalabel15
.cc_bottom cc_62
.cc_top cc_63,.Lxtalabel29
	.ascii	"../src/extensions/far_end_dsp.xc"
	.byte	0
	.long	122
	.long	123
	.long	.Lxtalabel29
.cc_bottom cc_63
.cc_top cc_64,.Lxtalabel4
	.ascii	"../src/extensions/far_end_dsp.xc"
	.byte	0
	.long	124
	.long	124
	.long	.Lxtalabel4
.cc_bottom cc_64
.cc_top cc_65,.Lxtalabel18
	.ascii	"../src/extensions/far_end_dsp.xc"
	.byte	0
	.long	124
	.long	124
	.long	.Lxtalabel18
.cc_bottom cc_65
.cc_top cc_66,.Lxtalabel2
	.ascii	"../src/extensions/far_end_dsp.xc"
	.byte	0
	.long	128
	.long	130
	.long	.Lxtalabel2
.cc_bottom cc_66
.cc_top cc_67,.Lxtalabel0
	.ascii	"../src/extensions/far_end_dsp.xc"
	.byte	0
	.long	128
	.long	130
	.long	.Lxtalabel0
.cc_bottom cc_67
.cc_top cc_68,.Lxtalabel2
	.ascii	"../src/extensions/far_end_dsp.xc"
	.byte	0
	.long	132
	.long	132
	.long	.Lxtalabel2
.cc_bottom cc_68
.cc_top cc_69,.Lxtalabel0
	.ascii	"../src/extensions/far_end_dsp.xc"
	.byte	0
	.long	132
	.long	132
	.long	.Lxtalabel0
.cc_bottom cc_69
.cc_top cc_70,.Lxtalabel2
	.ascii	"../src/extensions/far_end_dsp.xc"
	.byte	0
	.long	134
	.long	134
	.long	.Lxtalabel2
.cc_bottom cc_70
.cc_top cc_71,.Lxtalabel0
	.ascii	"../src/extensions/far_end_dsp.xc"
	.byte	0
	.long	134
	.long	134
	.long	.Lxtalabel0
.cc_bottom cc_71
.cc_top cc_72,.Lxtalabel1
	.ascii	"../src/extensions/far_end_dsp.xc"
	.byte	0
	.long	155
	.long	155
	.long	.Lxtalabel1
.cc_bottom cc_72
.cc_top cc_73,.Lxtalabel3
	.ascii	"../src/extensions/far_end_dsp.xc"
	.byte	0
	.long	155
	.long	155
	.long	.Lxtalabel3
.cc_bottom cc_73
.cc_top cc_74,.Lxtalabel1
	.ascii	"../src/extensions/far_end_dsp.xc"
	.byte	0
	.long	158
	.long	158
	.long	.Lxtalabel1
.cc_bottom cc_74
.cc_top cc_75,.Lxtalabel3
	.ascii	"../src/extensions/far_end_dsp.xc"
	.byte	0
	.long	158
	.long	158
	.long	.Lxtalabel3
.cc_bottom cc_75
.cc_top cc_76,.Lxtalabel1
	.ascii	"../src/extensions/far_end_dsp.xc"
	.byte	0
	.long	160
	.long	160
	.long	.Lxtalabel1
.cc_bottom cc_76
.cc_top cc_77,.Lxtalabel3
	.ascii	"../src/extensions/far_end_dsp.xc"
	.byte	0
	.long	160
	.long	160
	.long	.Lxtalabel3
.cc_bottom cc_77
.cc_top cc_78,.Lxtalabel1
	.ascii	"../src/extensions/far_end_dsp.xc"
	.byte	0
	.long	162
	.long	168
	.long	.Lxtalabel1
.cc_bottom cc_78
.cc_top cc_79,.Lxtalabel3
	.ascii	"../src/extensions/far_end_dsp.xc"
	.byte	0
	.long	162
	.long	168
	.long	.Lxtalabel3
.cc_bottom cc_79
.cc_top cc_80,.Lxtalabel1
	.ascii	"../src/extensions/far_end_dsp.xc"
	.byte	0
	.long	171
	.long	171
	.long	.Lxtalabel1
.cc_bottom cc_80
.cc_top cc_81,.Lxtalabel3
	.ascii	"../src/extensions/far_end_dsp.xc"
	.byte	0
	.long	171
	.long	171
	.long	.Lxtalabel3
.cc_bottom cc_81
.cc_top cc_82,.Lxtalabel1
	.ascii	"../src/extensions/far_end_dsp.xc"
	.byte	0
	.long	173
	.long	173
	.long	.Lxtalabel1
.cc_bottom cc_82
.cc_top cc_83,.Lxtalabel3
	.ascii	"../src/extensions/far_end_dsp.xc"
	.byte	0
	.long	173
	.long	173
	.long	.Lxtalabel3
.cc_bottom cc_83
.Lentries_end5:
	.section	.trap_info,"",@progbits
.Ltrap_info_entries_start0:
	.long	.Ltrap_info_entries_end0-.Ltrap_info_entries_start0
	.long	1
	.section	.trap_info_str,"MS",@progbits
.Ltrap_info_str0:
.asciiz"../src/extensions/far_end_dsp.xc:66:22: error: out of bounds write to memcpy destination parameter\n        memcpy(&val, &(payload[4]), sizeof(unsigned));\n                     ^~~~~~~~~~~~~\nC:\\Program Files (x86)\\XMOS\\xTIMEcomposer\\Community_14.3.3\\target/include/xc\\string.h:14:44: note: expanded from macro 'memcpy'\n#define memcpy(s1, s2, n) _safe_memcpy(s1, s2, n)\n                                           ^\nC:\\Program Files (x86)\\XMOS\\xTIMEcomposer\\Community_14.3.3\\target/include/xc\\safe/string.h:11:57: note: expanded from macro '_safe_memcpy'\n#define _safe_memcpy(s1, s2, n) __builtin_memcpy_xc(s1, s2, n)\n                                                        ^\n"
	.section	.trap_info,"",@progbits
.cc_top cc_trapinfo_0,.Ltrap_info0
	.long	.Ltrap_info0
	.long	.Ltrap_info_str0
.cc_bottom cc_trapinfo_0
	.section	.trap_info_str,"MS",@progbits
.Ltrap_info_str1:
.asciiz"../src/extensions/far_end_dsp.xc:67:29: error: out of bounds write to memcpy destination parameter\n        memcpy(&param_type, &(payload[8]), sizeof(unsigned));\n                            ^~~~~~~~~~~~~\nC:\\Program Files (x86)\\XMOS\\xTIMEcomposer\\Community_14.3.3\\target/include/xc\\string.h:14:44: note: expanded from macro 'memcpy'\n#define memcpy(s1, s2, n) _safe_memcpy(s1, s2, n)\n                                           ^\nC:\\Program Files (x86)\\XMOS\\xTIMEcomposer\\Community_14.3.3\\target/include/xc\\safe/string.h:11:57: note: expanded from macro '_safe_memcpy'\n#define _safe_memcpy(s1, s2, n) __builtin_memcpy_xc(s1, s2, n)\n                                                        ^\n"
	.section	.trap_info,"",@progbits
.cc_top cc_trapinfo_1,.Ltrap_info1
	.long	.Ltrap_info1
	.long	.Ltrap_info_str1
.cc_bottom cc_trapinfo_1
	.section	.trap_info_str,"MS",@progbits
.Ltrap_info_str2:
.asciiz"../src/extensions/far_end_dsp.xc:114:16: error: out of bounds write to memcpy destination parameter\n        memcpy(payload, &val, sizeof(unsigned));\n               ^~~~~~~\nC:\\Program Files (x86)\\XMOS\\xTIMEcomposer\\Community_14.3.3\\target/include/xc\\string.h:14:40: note: expanded from macro 'memcpy'\n#define memcpy(s1, s2, n) _safe_memcpy(s1, s2, n)\n                                       ^\nC:\\Program Files (x86)\\XMOS\\xTIMEcomposer\\Community_14.3.3\\target/include/xc\\safe/string.h:11:53: note: expanded from macro '_safe_memcpy'\n#define _safe_memcpy(s1, s2, n) __builtin_memcpy_xc(s1, s2, n)\n                                                    ^\n"
	.section	.trap_info,"",@progbits
.cc_top cc_trapinfo_2,.Ltrap_info2
	.long	.Ltrap_info2
	.long	.Ltrap_info_str2
.cc_bottom cc_trapinfo_2
	.section	.trap_info_str,"MS",@progbits
.Ltrap_info_str3:
.asciiz"../src/extensions/far_end_dsp.xc:66:22: error: out of bounds write to memcpy destination parameter\n        memcpy(&val, &(payload[4]), sizeof(unsigned));\n                     ^~~~~~~~~~~~~\nC:\\Program Files (x86)\\XMOS\\xTIMEcomposer\\Community_14.3.3\\target/include/xc\\string.h:14:44: note: expanded from macro 'memcpy'\n#define memcpy(s1, s2, n) _safe_memcpy(s1, s2, n)\n                                           ^\nC:\\Program Files (x86)\\XMOS\\xTIMEcomposer\\Community_14.3.3\\target/include/xc\\safe/string.h:11:57: note: expanded from macro '_safe_memcpy'\n#define _safe_memcpy(s1, s2, n) __builtin_memcpy_xc(s1, s2, n)\n                                                        ^\n"
	.section	.trap_info,"",@progbits
.cc_top cc_trapinfo_3,.Ltrap_info3
	.long	.Ltrap_info3
	.long	.Ltrap_info_str3
.cc_bottom cc_trapinfo_3
	.section	.trap_info_str,"MS",@progbits
.Ltrap_info_str4:
.asciiz"../src/extensions/far_end_dsp.xc:67:29: error: out of bounds write to memcpy destination parameter\n        memcpy(&param_type, &(payload[8]), sizeof(unsigned));\n                            ^~~~~~~~~~~~~\nC:\\Program Files (x86)\\XMOS\\xTIMEcomposer\\Community_14.3.3\\target/include/xc\\string.h:14:44: note: expanded from macro 'memcpy'\n#define memcpy(s1, s2, n) _safe_memcpy(s1, s2, n)\n                                           ^\nC:\\Program Files (x86)\\XMOS\\xTIMEcomposer\\Community_14.3.3\\target/include/xc\\safe/string.h:11:57: note: expanded from macro '_safe_memcpy'\n#define _safe_memcpy(s1, s2, n) __builtin_memcpy_xc(s1, s2, n)\n                                                        ^\n"
	.section	.trap_info,"",@progbits
.cc_top cc_trapinfo_4,.Ltrap_info4
	.long	.Ltrap_info4
	.long	.Ltrap_info_str4
.cc_bottom cc_trapinfo_4
	.section	.trap_info_str,"MS",@progbits
.Ltrap_info_str5:
.asciiz"../src/extensions/far_end_dsp.xc:114:16: error: out of bounds write to memcpy destination parameter\n        memcpy(payload, &val, sizeof(unsigned));\n               ^~~~~~~\nC:\\Program Files (x86)\\XMOS\\xTIMEcomposer\\Community_14.3.3\\target/include/xc\\string.h:14:40: note: expanded from macro 'memcpy'\n#define memcpy(s1, s2, n) _safe_memcpy(s1, s2, n)\n                                       ^\nC:\\Program Files (x86)\\XMOS\\xTIMEcomposer\\Community_14.3.3\\target/include/xc\\safe/string.h:11:53: note: expanded from macro '_safe_memcpy'\n#define _safe_memcpy(s1, s2, n) __builtin_memcpy_xc(s1, s2, n)\n                                                    ^\n"
	.section	.trap_info,"",@progbits
.cc_top cc_trapinfo_5,.Ltrap_info5
	.long	.Ltrap_info5
	.long	.Ltrap_info_str5
.cc_bottom cc_trapinfo_5
.Ltrap_info_entries_end0: