	.text
	.file	"C:/Users/user/workspace/lib_i2c/src/i2c_slave.xc"
                                        # Start of file scope inline assembly
	.inline_definition __i_i2c_master_if_read_reg
	.inline_definition __i_i2c_master_if_write_reg
	.inline_definition __i_i2c_master_if_read_reg8_addr16
	.inline_definition __i_i2c_master_if_write_reg8_addr16
	.inline_definition __i_i2c_master_if_read_reg16
	.inline_definition __i_i2c_master_if_write_reg16
	.inline_definition __i_i2c_master_if_read_reg16_addr8
	.inline_definition __i_i2c_master_if_write_reg16_addr8
	.inline_definition delay_seconds
	.inline_definition delay_milliseconds
	.inline_definition delay_microseconds
	.set i2c_slave.dynalloc_maxchanends, 0
	.globl i2c_slave.dynalloc_maxchanends
	.set i2c_slave.dynalloc_maxcores, 0
	.globl i2c_slave.dynalloc_maxcores
	.set i2c_slave.dynalloc_maxtimers, 0
	.globl i2c_slave.dynalloc_maxtimers
	.set i2c_slave.init.0.savedstate,16
	.globl i2c_slave.init.0.savedstate
	.set i2c_slave.select.yield.enable.savedstate,16
	.globl i2c_slave.select.yield.enable.savedstate
	.set i2c_slave.select.yield.enable.cases.maxtimers,0 $M i2c_slave.select.yield.case.2.maxtimers $M i2c_slave.select.yield.case.1.maxtimers $M i2c_slave.select.yield.case.0.maxtimers
	.globl i2c_slave.select.yield.enable.cases.maxtimers
	.set i2c_slave.select.yield.enable.cases.maxcores,0 $M i2c_slave.select.yield.case.2.maxcores $M i2c_slave.select.yield.case.1.maxcores $M i2c_slave.select.yield.case.0.maxcores
	.globl i2c_slave.select.yield.enable.cases.maxcores
	.set i2c_slave.select.yield.enable.cases.maxchanends,0 $M i2c_slave.select.yield.case.2.maxchanends $M i2c_slave.select.yield.case.1.maxchanends $M i2c_slave.select.yield.case.0.maxchanends
	.globl i2c_slave.select.yield.enable.cases.maxchanends
	.set i2c_slave.select.yield.enable.cases,0
	.globl i2c_slave.select.yield.enable.cases
	.set i2c_slave.select.yield.enable.cases.nstackwords, 0 $M (i2c_slave.select.yield.case.2.nstackwords) $M (i2c_slave.select.yield.case.0.nstackwords) $M (i2c_slave.select.yield.case.1.nstackwords)
	.globl i2c_slave.select.yield.enable.cases.nstackwords
	.set i2c_slave.select.enable.savedstate,16
	.globl i2c_slave.select.enable.savedstate
	.set i2c_slave.select.enable.cases.maxtimers,0 $M i2c_slave.select.case.2.maxtimers $M i2c_slave.select.case.1.maxtimers $M i2c_slave.select.case.0.maxtimers
	.globl i2c_slave.select.enable.cases.maxtimers
	.set i2c_slave.select.enable.cases.maxcores,0 $M i2c_slave.select.case.2.maxcores $M i2c_slave.select.case.1.maxcores $M i2c_slave.select.case.0.maxcores
	.globl i2c_slave.select.enable.cases.maxcores
	.set i2c_slave.select.enable.cases.maxchanends,0 $M i2c_slave.select.case.2.maxchanends $M i2c_slave.select.case.1.maxchanends $M i2c_slave.select.case.0.maxchanends
	.globl i2c_slave.select.enable.cases.maxchanends
	.set i2c_slave.select.enable.cases,0
	.globl i2c_slave.select.enable.cases
	.set i2c_slave.select.enable.cases.nstackwords, 0 $M (i2c_slave.select.case.1.nstackwords) $M (i2c_slave.select.case.0.nstackwords) $M (i2c_slave.select.case.2.nstackwords)
	.globl i2c_slave.select.enable.cases.nstackwords
	.weak _i.i2c_slave_callback_if.start_read_request.maxchanends.group
	.max_reduce _i.i2c_slave_callback_if.start_read_request.max.maxchanends, _i.i2c_slave_callback_if.start_read_request.maxchanends.group, 0
	.weak _i.i2c_slave_callback_if.start_read_request.maxcores.group
	.max_reduce _i.i2c_slave_callback_if.start_read_request.max.maxcores, _i.i2c_slave_callback_if.start_read_request.maxcores.group, 0
	.weak _i.i2c_slave_callback_if.start_read_request.maxtimers.group
	.max_reduce _i.i2c_slave_callback_if.start_read_request.max.maxtimers, _i.i2c_slave_callback_if.start_read_request.maxtimers.group, 0
	.weak _i.i2c_slave_callback_if.start_read_request.nstackwords.group
	.globl _i.i2c_slave_callback_if.start_read_request.nstackwords.group
	.weak _i.i2c_slave_callback_if.start_read_request.fns.group
	.globl _i.i2c_slave_callback_if.start_read_request.fns.group
	.max_reduce _i.i2c_slave_callback_if.start_read_request.max.nstackwords, _i.i2c_slave_callback_if.start_read_request.nstackwords.group, 0
	.max_reduce _i.i2c_slave_callback_if.start_read_request.fns, _i.i2c_slave_callback_if.start_read_request.fns.group, 0
	.weak _i.i2c_slave_callback_if.ack_read_request.maxchanends.group
	.max_reduce _i.i2c_slave_callback_if.ack_read_request.max.maxchanends, _i.i2c_slave_callback_if.ack_read_request.maxchanends.group, 0
	.weak _i.i2c_slave_callback_if.ack_read_request.maxcores.group
	.max_reduce _i.i2c_slave_callback_if.ack_read_request.max.maxcores, _i.i2c_slave_callback_if.ack_read_request.maxcores.group, 0
	.weak _i.i2c_slave_callback_if.ack_read_request.maxtimers.group
	.max_reduce _i.i2c_slave_callback_if.ack_read_request.max.maxtimers, _i.i2c_slave_callback_if.ack_read_request.maxtimers.group, 0
	.weak _i.i2c_slave_callback_if.ack_read_request.nstackwords.group
	.globl _i.i2c_slave_callback_if.ack_read_request.nstackwords.group
	.weak _i.i2c_slave_callback_if.ack_read_request.fns.group
	.globl _i.i2c_slave_callback_if.ack_read_request.fns.group
	.max_reduce _i.i2c_slave_callback_if.ack_read_request.max.nstackwords, _i.i2c_slave_callback_if.ack_read_request.nstackwords.group, 0
	.max_reduce _i.i2c_slave_callback_if.ack_read_request.fns, _i.i2c_slave_callback_if.ack_read_request.fns.group, 0
	.weak _i.i2c_slave_callback_if.start_write_request.maxchanends.group
	.max_reduce _i.i2c_slave_callback_if.start_write_request.max.maxchanends, _i.i2c_slave_callback_if.start_write_request.maxchanends.group, 0
	.weak _i.i2c_slave_callback_if.start_write_request.maxcores.group
	.max_reduce _i.i2c_slave_callback_if.start_write_request.max.maxcores, _i.i2c_slave_callback_if.start_write_request.maxcores.group, 0
	.weak _i.i2c_slave_callback_if.start_write_request.maxtimers.group
	.max_reduce _i.i2c_slave_callback_if.start_write_request.max.maxtimers, _i.i2c_slave_callback_if.start_write_request.maxtimers.group, 0
	.weak _i.i2c_slave_callback_if.start_write_request.nstackwords.group
	.globl _i.i2c_slave_callback_if.start_write_request.nstackwords.group
	.weak _i.i2c_slave_callback_if.start_write_request.fns.group
	.globl _i.i2c_slave_callback_if.start_write_request.fns.group
	.max_reduce _i.i2c_slave_callback_if.start_write_request.max.nstackwords, _i.i2c_slave_callback_if.start_write_request.nstackwords.group, 0
	.max_reduce _i.i2c_slave_callback_if.start_write_request.fns, _i.i2c_slave_callback_if.start_write_request.fns.group, 0
	.weak _i.i2c_slave_callback_if.ack_write_request.maxchanends.group
	.max_reduce _i.i2c_slave_callback_if.ack_write_request.max.maxchanends, _i.i2c_slave_callback_if.ack_write_request.maxchanends.group, 0
	.weak _i.i2c_slave_callback_if.ack_write_request.maxcores.group
	.max_reduce _i.i2c_slave_callback_if.ack_write_request.max.maxcores, _i.i2c_slave_callback_if.ack_write_request.maxcores.group, 0
	.weak _i.i2c_slave_callback_if.ack_write_request.maxtimers.group
	.max_reduce _i.i2c_slave_callback_if.ack_write_request.max.maxtimers, _i.i2c_slave_callback_if.ack_write_request.maxtimers.group, 0
	.weak _i.i2c_slave_callback_if.ack_write_request.nstackwords.group
	.globl _i.i2c_slave_callback_if.ack_write_request.nstackwords.group
	.weak _i.i2c_slave_callback_if.ack_write_request.fns.group
	.globl _i.i2c_slave_callback_if.ack_write_request.fns.group
	.max_reduce _i.i2c_slave_callback_if.ack_write_request.max.nstackwords, _i.i2c_slave_callback_if.ack_write_request.nstackwords.group, 0
	.max_reduce _i.i2c_slave_callback_if.ack_write_request.fns, _i.i2c_slave_callback_if.ack_write_request.fns.group, 0
	.weak _i.i2c_slave_callback_if.start_master_read.maxchanends.group
	.max_reduce _i.i2c_slave_callback_if.start_master_read.max.maxchanends, _i.i2c_slave_callback_if.start_master_read.maxchanends.group, 0
	.weak _i.i2c_slave_callback_if.start_master_read.maxcores.group
	.max_reduce _i.i2c_slave_callback_if.start_master_read.max.maxcores, _i.i2c_slave_callback_if.start_master_read.maxcores.group, 0
	.weak _i.i2c_slave_callback_if.start_master_read.maxtimers.group
	.max_reduce _i.i2c_slave_callback_if.start_master_read.max.maxtimers, _i.i2c_slave_callback_if.start_master_read.maxtimers.group, 0
	.weak _i.i2c_slave_callback_if.start_master_read.nstackwords.group
	.globl _i.i2c_slave_callback_if.start_master_read.nstackwords.group
	.weak _i.i2c_slave_callback_if.start_master_read.fns.group
	.globl _i.i2c_slave_callback_if.start_master_read.fns.group
	.max_reduce _i.i2c_slave_callback_if.start_master_read.max.nstackwords, _i.i2c_slave_callback_if.start_master_read.nstackwords.group, 0
	.max_reduce _i.i2c_slave_callback_if.start_master_read.fns, _i.i2c_slave_callback_if.start_master_read.fns.group, 0
	.weak _i.i2c_slave_callback_if.master_requires_data.maxchanends.group
	.max_reduce _i.i2c_slave_callback_if.master_requires_data.max.maxchanends, _i.i2c_slave_callback_if.master_requires_data.maxchanends.group, 0
	.weak _i.i2c_slave_callback_if.master_requires_data.maxcores.group
	.max_reduce _i.i2c_slave_callback_if.master_requires_data.max.maxcores, _i.i2c_slave_callback_if.master_requires_data.maxcores.group, 0
	.weak _i.i2c_slave_callback_if.master_requires_data.maxtimers.group
	.max_reduce _i.i2c_slave_callback_if.master_requires_data.max.maxtimers, _i.i2c_slave_callback_if.master_requires_data.maxtimers.group, 0
	.weak _i.i2c_slave_callback_if.master_requires_data.nstackwords.group
	.globl _i.i2c_slave_callback_if.master_requires_data.nstackwords.group
	.weak _i.i2c_slave_callback_if.master_requires_data.fns.group
	.globl _i.i2c_slave_callback_if.master_requires_data.fns.group
	.max_reduce _i.i2c_slave_callback_if.master_requires_data.max.nstackwords, _i.i2c_slave_callback_if.master_requires_data.nstackwords.group, 0
	.max_reduce _i.i2c_slave_callback_if.master_requires_data.fns, _i.i2c_slave_callback_if.master_requires_data.fns.group, 0
	.weak _i.i2c_slave_callback_if.start_master_write.maxchanends.group
	.max_reduce _i.i2c_slave_callback_if.start_master_write.max.maxchanends, _i.i2c_slave_callback_if.start_master_write.maxchanends.group, 0
	.weak _i.i2c_slave_callback_if.start_master_write.maxcores.group
	.max_reduce _i.i2c_slave_callback_if.start_master_write.max.maxcores, _i.i2c_slave_callback_if.start_master_write.maxcores.group, 0
	.weak _i.i2c_slave_callback_if.start_master_write.maxtimers.group
	.max_reduce _i.i2c_slave_callback_if.start_master_write.max.maxtimers, _i.i2c_slave_callback_if.start_master_write.maxtimers.group, 0
	.weak _i.i2c_slave_callback_if.start_master_write.nstackwords.group
	.globl _i.i2c_slave_callback_if.start_master_write.nstackwords.group
	.weak _i.i2c_slave_callback_if.start_master_write.fns.group
	.globl _i.i2c_slave_callback_if.start_master_write.fns.group
	.max_reduce _i.i2c_slave_callback_if.start_master_write.max.nstackwords, _i.i2c_slave_callback_if.start_master_write.nstackwords.group, 0
	.max_reduce _i.i2c_slave_callback_if.start_master_write.fns, _i.i2c_slave_callback_if.start_master_write.fns.group, 0
	.weak _i.i2c_slave_callback_if.master_sent_data.maxchanends.group
	.max_reduce _i.i2c_slave_callback_if.master_sent_data.max.maxchanends, _i.i2c_slave_callback_if.master_sent_data.maxchanends.group, 0
	.weak _i.i2c_slave_callback_if.master_sent_data.maxcores.group
	.max_reduce _i.i2c_slave_callback_if.master_sent_data.max.maxcores, _i.i2c_slave_callback_if.master_sent_data.maxcores.group, 0
	.weak _i.i2c_slave_callback_if.master_sent_data.maxtimers.group
	.max_reduce _i.i2c_slave_callback_if.master_sent_data.max.maxtimers, _i.i2c_slave_callback_if.master_sent_data.maxtimers.group, 0
	.weak _i.i2c_slave_callback_if.master_sent_data.nstackwords.group
	.globl _i.i2c_slave_callback_if.master_sent_data.nstackwords.group
	.weak _i.i2c_slave_callback_if.master_sent_data.fns.group
	.globl _i.i2c_slave_callback_if.master_sent_data.fns.group
	.max_reduce _i.i2c_slave_callback_if.master_sent_data.max.nstackwords, _i.i2c_slave_callback_if.master_sent_data.nstackwords.group, 0
	.max_reduce _i.i2c_slave_callback_if.master_sent_data.fns, _i.i2c_slave_callback_if.master_sent_data.fns.group, 0
	.weak _i.i2c_slave_callback_if.stop_bit.maxchanends.group
	.max_reduce _i.i2c_slave_callback_if.stop_bit.max.maxchanends, _i.i2c_slave_callback_if.stop_bit.maxchanends.group, 0
	.weak _i.i2c_slave_callback_if.stop_bit.maxcores.group
	.max_reduce _i.i2c_slave_callback_if.stop_bit.max.maxcores, _i.i2c_slave_callback_if.stop_bit.maxcores.group, 0
	.weak _i.i2c_slave_callback_if.stop_bit.maxtimers.group
	.max_reduce _i.i2c_slave_callback_if.stop_bit.max.maxtimers, _i.i2c_slave_callback_if.stop_bit.maxtimers.group, 0
	.weak _i.i2c_slave_callback_if.stop_bit.nstackwords.group
	.globl _i.i2c_slave_callback_if.stop_bit.nstackwords.group
	.weak _i.i2c_slave_callback_if.stop_bit.fns.group
	.globl _i.i2c_slave_callback_if.stop_bit.fns.group
	.max_reduce _i.i2c_slave_callback_if.stop_bit.max.nstackwords, _i.i2c_slave_callback_if.stop_bit.nstackwords.group, 0
	.max_reduce _i.i2c_slave_callback_if.stop_bit.fns, _i.i2c_slave_callback_if.stop_bit.fns.group, 0
	.weak _i.i2c_slave_callback_if.__interface_init.maxchanends.group
	.max_reduce _i.i2c_slave_callback_if.__interface_init.max.maxchanends, _i.i2c_slave_callback_if.__interface_init.maxchanends.group, 0
	.weak _i.i2c_slave_callback_if.__interface_init.maxcores.group
	.max_reduce _i.i2c_slave_callback_if.__interface_init.max.maxcores, _i.i2c_slave_callback_if.__interface_init.maxcores.group, 0
	.weak _i.i2c_slave_callback_if.__interface_init.maxtimers.group
	.max_reduce _i.i2c_slave_callback_if.__interface_init.max.maxtimers, _i.i2c_slave_callback_if.__interface_init.maxtimers.group, 0
	.weak _i.i2c_slave_callback_if.__interface_init.nstackwords.group
	.globl _i.i2c_slave_callback_if.__interface_init.nstackwords.group
	.weak _i.i2c_slave_callback_if.__interface_init.fns.group
	.globl _i.i2c_slave_callback_if.__interface_init.fns.group
	.max_reduce _i.i2c_slave_callback_if.__interface_init.max.nstackwords, _i.i2c_slave_callback_if.__interface_init.nstackwords.group, 0
	.max_reduce _i.i2c_slave_callback_if.__interface_init.fns, _i.i2c_slave_callback_if.__interface_init.fns.group, 0
	.weak _i.i2c_slave_callback_if._client_call_y.maxchanends.group
	.add_to_set _i.i2c_slave_callback_if._client_call_y.maxchanends.group, (__interface_client_call_y_other.maxchanends + __interface_client_call_y_extra.maxchanends), __interface_client_call_y_other
	.max_reduce _i.i2c_slave_callback_if._client_call_y.max.maxchanends, _i.i2c_slave_callback_if._client_call_y.maxchanends.group, 0
	.weak _i.i2c_slave_callback_if._client_call_y.maxcores.group
	.add_to_set _i.i2c_slave_callback_if._client_call_y.maxcores.group, (__interface_client_call_y_other.maxcores + __interface_client_call_y_extra.maxcores), __interface_client_call_y_other
	.max_reduce _i.i2c_slave_callback_if._client_call_y.max.maxcores, _i.i2c_slave_callback_if._client_call_y.maxcores.group, 0
	.weak _i.i2c_slave_callback_if._client_call_y.maxtimers.group
	.add_to_set _i.i2c_slave_callback_if._client_call_y.maxtimers.group, (__interface_client_call_y_other.maxtimers + __interface_client_call_y_extra.maxtimers), __interface_client_call_y_other
	.max_reduce _i.i2c_slave_callback_if._client_call_y.max.maxtimers, _i.i2c_slave_callback_if._client_call_y.maxtimers.group, 0
	.weak _i.i2c_slave_callback_if._client_call_y.nstackwords.group
	.globl _i.i2c_slave_callback_if._client_call_y.nstackwords.group
	.weak _i.i2c_slave_callback_if._client_call_y.fns.group
	.globl _i.i2c_slave_callback_if._client_call_y.fns.group
	.add_to_set _i.i2c_slave_callback_if._client_call_y.nstackwords.group, (__interface_client_call_y_other.nstackwords + __interface_client_call_y_extra.nstackwords), __interface_client_call_y_other
	.add_to_set _i.i2c_slave_callback_if._client_call_y.fns.group, __interface_client_call_y_other, __interface_client_call_y_other
	.max_reduce _i.i2c_slave_callback_if._client_call_y.max.nstackwords, _i.i2c_slave_callback_if._client_call_y.nstackwords.group, 0
	.max_reduce _i.i2c_slave_callback_if._client_call_y.fns, _i.i2c_slave_callback_if._client_call_y.fns.group, 0
	.weak _i.i2c_master_async_if.write.maxchanends.group
	.max_reduce _i.i2c_master_async_if.write.max.maxchanends, _i.i2c_master_async_if.write.maxchanends.group, 0
	.weak _i.i2c_master_async_if.write.maxcores.group
	.max_reduce _i.i2c_master_async_if.write.max.maxcores, _i.i2c_master_async_if.write.maxcores.group, 0
	.weak _i.i2c_master_async_if.write.maxtimers.group
	.max_reduce _i.i2c_master_async_if.write.max.maxtimers, _i.i2c_master_async_if.write.maxtimers.group, 0
	.weak _i.i2c_master_async_if.write.nstackwords.group
	.globl _i.i2c_master_async_if.write.nstackwords.group
	.weak _i.i2c_master_async_if.write.fns.group
	.globl _i.i2c_master_async_if.write.fns.group
	.max_reduce _i.i2c_master_async_if.write.max.nstackwords, _i.i2c_master_async_if.write.nstackwords.group, 0
	.max_reduce _i.i2c_master_async_if.write.fns, _i.i2c_master_async_if.write.fns.group, 0
	.weak _i.i2c_master_async_if.read.maxchanends.group
	.max_reduce _i.i2c_master_async_if.read.max.maxchanends, _i.i2c_master_async_if.read.maxchanends.group, 0
	.weak _i.i2c_master_async_if.read.maxcores.group
	.max_reduce _i.i2c_master_async_if.read.max.maxcores, _i.i2c_master_async_if.read.maxcores.group, 0
	.weak _i.i2c_master_async_if.read.maxtimers.group
	.max_reduce _i.i2c_master_async_if.read.max.maxtimers, _i.i2c_master_async_if.read.maxtimers.group, 0
	.weak _i.i2c_master_async_if.read.nstackwords.group
	.globl _i.i2c_master_async_if.read.nstackwords.group
	.weak _i.i2c_master_async_if.read.fns.group
	.globl _i.i2c_master_async_if.read.fns.group
	.max_reduce _i.i2c_master_async_if.read.max.nstackwords, _i.i2c_master_async_if.read.nstackwords.group, 0
	.max_reduce _i.i2c_master_async_if.read.fns, _i.i2c_master_async_if.read.fns.group, 0
	.weak _i.i2c_master_async_if.get_write_result.maxchanends.group
	.max_reduce _i.i2c_master_async_if.get_write_result.max.maxchanends, _i.i2c_master_async_if.get_write_result.maxchanends.group, 0
	.weak _i.i2c_master_async_if.get_write_result.maxcores.group
	.max_reduce _i.i2c_master_async_if.get_write_result.max.maxcores, _i.i2c_master_async_if.get_write_result.maxcores.group, 0
	.weak _i.i2c_master_async_if.get_write_result.maxtimers.group
	.max_reduce _i.i2c_master_async_if.get_write_result.max.maxtimers, _i.i2c_master_async_if.get_write_result.maxtimers.group, 0
	.weak _i.i2c_master_async_if.get_write_result.nstackwords.group
	.globl _i.i2c_master_async_if.get_write_result.nstackwords.group
	.weak _i.i2c_master_async_if.get_write_result.fns.group
	.globl _i.i2c_master_async_if.get_write_result.fns.group
	.max_reduce _i.i2c_master_async_if.get_write_result.max.nstackwords, _i.i2c_master_async_if.get_write_result.nstackwords.group, 0
	.max_reduce _i.i2c_master_async_if.get_write_result.fns, _i.i2c_master_async_if.get_write_result.fns.group, 0
	.weak _i.i2c_master_async_if.get_read_data.maxchanends.group
	.max_reduce _i.i2c_master_async_if.get_read_data.max.maxchanends, _i.i2c_master_async_if.get_read_data.maxchanends.group, 0
	.weak _i.i2c_master_async_if.get_read_data.maxcores.group
	.max_reduce _i.i2c_master_async_if.get_read_data.max.maxcores, _i.i2c_master_async_if.get_read_data.maxcores.group, 0
	.weak _i.i2c_master_async_if.get_read_data.maxtimers.group
	.max_reduce _i.i2c_master_async_if.get_read_data.max.maxtimers, _i.i2c_master_async_if.get_read_data.maxtimers.group, 0
	.weak _i.i2c_master_async_if.get_read_data.nstackwords.group
	.globl _i.i2c_master_async_if.get_read_data.nstackwords.group
	.weak _i.i2c_master_async_if.get_read_data.fns.group
	.globl _i.i2c_master_async_if.get_read_data.fns.group
	.max_reduce _i.i2c_master_async_if.get_read_data.max.nstackwords, _i.i2c_master_async_if.get_read_data.nstackwords.group, 0
	.max_reduce _i.i2c_master_async_if.get_read_data.fns, _i.i2c_master_async_if.get_read_data.fns.group, 0
	.weak _i.i2c_master_async_if.send_stop_bit.maxchanends.group
	.max_reduce _i.i2c_master_async_if.send_stop_bit.max.maxchanends, _i.i2c_master_async_if.send_stop_bit.maxchanends.group, 0
	.weak _i.i2c_master_async_if.send_stop_bit.maxcores.group
	.max_reduce _i.i2c_master_async_if.send_stop_bit.max.maxcores, _i.i2c_master_async_if.send_stop_bit.maxcores.group, 0
	.weak _i.i2c_master_async_if.send_stop_bit.maxtimers.group
	.max_reduce _i.i2c_master_async_if.send_stop_bit.max.maxtimers, _i.i2c_master_async_if.send_stop_bit.maxtimers.group, 0
	.weak _i.i2c_master_async_if.send_stop_bit.nstackwords.group
	.globl _i.i2c_master_async_if.send_stop_bit.nstackwords.group
	.weak _i.i2c_master_async_if.send_stop_bit.fns.group
	.globl _i.i2c_master_async_if.send_stop_bit.fns.group
	.max_reduce _i.i2c_master_async_if.send_stop_bit.max.nstackwords, _i.i2c_master_async_if.send_stop_bit.nstackwords.group, 0
	.max_reduce _i.i2c_master_async_if.send_stop_bit.fns, _i.i2c_master_async_if.send_stop_bit.fns.group, 0
	.weak _i.i2c_master_async_if.shutdown.maxchanends.group
	.max_reduce _i.i2c_master_async_if.shutdown.max.maxchanends, _i.i2c_master_async_if.shutdown.maxchanends.group, 0
	.weak _i.i2c_master_async_if.shutdown.maxcores.group
	.max_reduce _i.i2c_master_async_if.shutdown.max.maxcores, _i.i2c_master_async_if.shutdown.maxcores.group, 0
	.weak _i.i2c_master_async_if.shutdown.maxtimers.group
	.max_reduce _i.i2c_master_async_if.shutdown.max.maxtimers, _i.i2c_master_async_if.shutdown.maxtimers.group, 0
	.weak _i.i2c_master_async_if.shutdown.nstackwords.group
	.globl _i.i2c_master_async_if.shutdown.nstackwords.group
	.weak _i.i2c_master_async_if.shutdown.fns.group
	.globl _i.i2c_master_async_if.shutdown.fns.group
	.max_reduce _i.i2c_master_async_if.shutdown.max.nstackwords, _i.i2c_master_async_if.shutdown.nstackwords.group, 0
	.max_reduce _i.i2c_master_async_if.shutdown.fns, _i.i2c_master_async_if.shutdown.fns.group, 0
	.weak _i.i2c_master_async_if.__interface_init.maxchanends.group
	.max_reduce _i.i2c_master_async_if.__interface_init.max.maxchanends, _i.i2c_master_async_if.__interface_init.maxchanends.group, 0
	.weak _i.i2c_master_async_if.__interface_init.maxcores.group
	.max_reduce _i.i2c_master_async_if.__interface_init.max.maxcores, _i.i2c_master_async_if.__interface_init.maxcores.group, 0
	.weak _i.i2c_master_async_if.__interface_init.maxtimers.group
	.max_reduce _i.i2c_master_async_if.__interface_init.max.maxtimers, _i.i2c_master_async_if.__interface_init.maxtimers.group, 0
	.weak _i.i2c_master_async_if.__interface_init.nstackwords.group
	.globl _i.i2c_master_async_if.__interface_init.nstackwords.group
	.weak _i.i2c_master_async_if.__interface_init.fns.group
	.globl _i.i2c_master_async_if.__interface_init.fns.group
	.max_reduce _i.i2c_master_async_if.__interface_init.max.nstackwords, _i.i2c_master_async_if.__interface_init.nstackwords.group, 0
	.max_reduce _i.i2c_master_async_if.__interface_init.fns, _i.i2c_master_async_if.__interface_init.fns.group, 0
	.weak _i.i2c_master_async_if._client_call_y.maxchanends.group
	.add_to_set _i.i2c_master_async_if._client_call_y.maxchanends.group, (__interface_client_call_y_other.maxchanends + __interface_client_call_y_extra.maxchanends), __interface_client_call_y_other
	.max_reduce _i.i2c_master_async_if._client_call_y.max.maxchanends, _i.i2c_master_async_if._client_call_y.maxchanends.group, 0
	.weak _i.i2c_master_async_if._client_call_y.maxcores.group
	.add_to_set _i.i2c_master_async_if._client_call_y.maxcores.group, (__interface_client_call_y_other.maxcores + __interface_client_call_y_extra.maxcores), __interface_client_call_y_other
	.max_reduce _i.i2c_master_async_if._client_call_y.max.maxcores, _i.i2c_master_async_if._client_call_y.maxcores.group, 0
	.weak _i.i2c_master_async_if._client_call_y.maxtimers.group
	.add_to_set _i.i2c_master_async_if._client_call_y.maxtimers.group, (__interface_client_call_y_other.maxtimers + __interface_client_call_y_extra.maxtimers), __interface_client_call_y_other
	.max_reduce _i.i2c_master_async_if._client_call_y.max.maxtimers, _i.i2c_master_async_if._client_call_y.maxtimers.group, 0
	.weak _i.i2c_master_async_if._client_call_y.nstackwords.group
	.globl _i.i2c_master_async_if._client_call_y.nstackwords.group
	.weak _i.i2c_master_async_if._client_call_y.fns.group
	.globl _i.i2c_master_async_if._client_call_y.fns.group
	.add_to_set _i.i2c_master_async_if._client_call_y.nstackwords.group, (__interface_client_call_y_other.nstackwords + __interface_client_call_y_extra.nstackwords), __interface_client_call_y_other
	.add_to_set _i.i2c_master_async_if._client_call_y.fns.group, __interface_client_call_y_other, __interface_client_call_y_other
	.max_reduce _i.i2c_master_async_if._client_call_y.max.nstackwords, _i.i2c_master_async_if._client_call_y.nstackwords.group, 0
	.max_reduce _i.i2c_master_async_if._client_call_y.fns, _i.i2c_master_async_if._client_call_y.fns.group, 0
	.weak _i.i2c_master_if.write.maxchanends.group
	.max_reduce _i.i2c_master_if.write.max.maxchanends, _i.i2c_master_if.write.maxchanends.group, 0
	.weak _i.i2c_master_if.write.maxcores.group
	.max_reduce _i.i2c_master_if.write.max.maxcores, _i.i2c_master_if.write.maxcores.group, 0
	.weak _i.i2c_master_if.write.maxtimers.group
	.max_reduce _i.i2c_master_if.write.max.maxtimers, _i.i2c_master_if.write.maxtimers.group, 0
	.weak _i.i2c_master_if.write.nstackwords.group
	.globl _i.i2c_master_if.write.nstackwords.group
	.weak _i.i2c_master_if.write.fns.group
	.globl _i.i2c_master_if.write.fns.group
	.max_reduce _i.i2c_master_if.write.max.nstackwords, _i.i2c_master_if.write.nstackwords.group, 0
	.max_reduce _i.i2c_master_if.write.fns, _i.i2c_master_if.write.fns.group, 0
	.weak _i.i2c_master_if.read.maxchanends.group
	.max_reduce _i.i2c_master_if.read.max.maxchanends, _i.i2c_master_if.read.maxchanends.group, 0
	.weak _i.i2c_master_if.read.maxcores.group
	.max_reduce _i.i2c_master_if.read.max.maxcores, _i.i2c_master_if.read.maxcores.group, 0
	.weak _i.i2c_master_if.read.maxtimers.group
	.max_reduce _i.i2c_master_if.read.max.maxtimers, _i.i2c_master_if.read.maxtimers.group, 0
	.weak _i.i2c_master_if.read.nstackwords.group
	.globl _i.i2c_master_if.read.nstackwords.group
	.weak _i.i2c_master_if.read.fns.group
	.globl _i.i2c_master_if.read.fns.group
	.max_reduce _i.i2c_master_if.read.max.nstackwords, _i.i2c_master_if.read.nstackwords.group, 0
	.max_reduce _i.i2c_master_if.read.fns, _i.i2c_master_if.read.fns.group, 0
	.weak _i.i2c_master_if.send_stop_bit.maxchanends.group
	.max_reduce _i.i2c_master_if.send_stop_bit.max.maxchanends, _i.i2c_master_if.send_stop_bit.maxchanends.group, 0
	.weak _i.i2c_master_if.send_stop_bit.maxcores.group
	.max_reduce _i.i2c_master_if.send_stop_bit.max.maxcores, _i.i2c_master_if.send_stop_bit.maxcores.group, 0
	.weak _i.i2c_master_if.send_stop_bit.maxtimers.group
	.max_reduce _i.i2c_master_if.send_stop_bit.max.maxtimers, _i.i2c_master_if.send_stop_bit.maxtimers.group, 0
	.weak _i.i2c_master_if.send_stop_bit.nstackwords.group
	.globl _i.i2c_master_if.send_stop_bit.nstackwords.group
	.weak _i.i2c_master_if.send_stop_bit.fns.group
	.globl _i.i2c_master_if.send_stop_bit.fns.group
	.max_reduce _i.i2c_master_if.send_stop_bit.max.nstackwords, _i.i2c_master_if.send_stop_bit.nstackwords.group, 0
	.max_reduce _i.i2c_master_if.send_stop_bit.fns, _i.i2c_master_if.send_stop_bit.fns.group, 0
	.weak _i.i2c_master_if.shutdown.maxchanends.group
	.max_reduce _i.i2c_master_if.shutdown.max.maxchanends, _i.i2c_master_if.shutdown.maxchanends.group, 0
	.weak _i.i2c_master_if.shutdown.maxcores.group
	.max_reduce _i.i2c_master_if.shutdown.max.maxcores, _i.i2c_master_if.shutdown.maxcores.group, 0
	.weak _i.i2c_master_if.shutdown.maxtimers.group
	.max_reduce _i.i2c_master_if.shutdown.max.maxtimers, _i.i2c_master_if.shutdown.maxtimers.group, 0
	.weak _i.i2c_master_if.shutdown.nstackwords.group
	.globl _i.i2c_master_if.shutdown.nstackwords.group
	.weak _i.i2c_master_if.shutdown.fns.group
	.globl _i.i2c_master_if.shutdown.fns.group
	.max_reduce _i.i2c_master_if.shutdown.max.nstackwords, _i.i2c_master_if.shutdown.nstackwords.group, 0
	.max_reduce _i.i2c_master_if.shutdown.fns, _i.i2c_master_if.shutdown.fns.group, 0
	.weak _i.i2c_master_if.__interface_init.maxchanends.group
	.max_reduce _i.i2c_master_if.__interface_init.max.maxchanends, _i.i2c_master_if.__interface_init.maxchanends.group, 0
	.weak _i.i2c_master_if.__interface_init.maxcores.group
	.max_reduce _i.i2c_master_if.__interface_init.max.maxcores, _i.i2c_master_if.__interface_init.maxcores.group, 0
	.weak _i.i2c_master_if.__interface_init.maxtimers.group
	.max_reduce _i.i2c_master_if.__interface_init.max.maxtimers, _i.i2c_master_if.__interface_init.maxtimers.group, 0
	.weak _i.i2c_master_if.__interface_init.nstackwords.group
	.globl _i.i2c_master_if.__interface_init.nstackwords.group
	.weak _i.i2c_master_if.__interface_init.fns.group
	.globl _i.i2c_master_if.__interface_init.fns.group
	.max_reduce _i.i2c_master_if.__interface_init.max.nstackwords, _i.i2c_master_if.__interface_init.nstackwords.group, 0
	.max_reduce _i.i2c_master_if.__interface_init.fns, _i.i2c_master_if.__interface_init.fns.group, 0
	.weak _i.i2c_master_if._client_call_y.maxchanends.group
	.add_to_set _i.i2c_master_if._client_call_y.maxchanends.group, (__interface_client_call_y_other.maxchanends + __interface_client_call_y_extra.maxchanends), __interface_client_call_y_other
	.max_reduce _i.i2c_master_if._client_call_y.max.maxchanends, _i.i2c_master_if._client_call_y.maxchanends.group, 0
	.weak _i.i2c_master_if._client_call_y.maxcores.group
	.add_to_set _i.i2c_master_if._client_call_y.maxcores.group, (__interface_client_call_y_other.maxcores + __interface_client_call_y_extra.maxcores), __interface_client_call_y_other
	.max_reduce _i.i2c_master_if._client_call_y.max.maxcores, _i.i2c_master_if._client_call_y.maxcores.group, 0
	.weak _i.i2c_master_if._client_call_y.maxtimers.group
	.add_to_set _i.i2c_master_if._client_call_y.maxtimers.group, (__interface_client_call_y_other.maxtimers + __interface_client_call_y_extra.maxtimers), __interface_client_call_y_other
	.max_reduce _i.i2c_master_if._client_call_y.max.maxtimers, _i.i2c_master_if._client_call_y.maxtimers.group, 0
	.weak _i.i2c_master_if._client_call_y.nstackwords.group
	.globl _i.i2c_master_if._client_call_y.nstackwords.group
	.weak _i.i2c_master_if._client_call_y.fns.group
	.globl _i.i2c_master_if._client_call_y.fns.group
	.add_to_set _i.i2c_master_if._client_call_y.nstackwords.group, (__interface_client_call_y_other.nstackwords + __interface_client_call_y_extra.nstackwords), __interface_client_call_y_other
	.add_to_set _i.i2c_master_if._client_call_y.fns.group, __interface_client_call_y_other, __interface_client_call_y_other
	.max_reduce _i.i2c_master_if._client_call_y.max.nstackwords, _i.i2c_master_if._client_call_y.nstackwords.group, 0
	.max_reduce _i.i2c_master_if._client_call_y.fns, _i.i2c_master_if._client_call_y.fns.group, 0
	.set usage.anon.0,0
	.set usage.anon.1,0
	.set usage.anon.2,0
	.set usage.anon.3,0
	.set usage.anon.4,0
	.set usage.anon.5,0
	.set usage.anon.6,0
	.set usage.anon.7,0
	.set usage.anon.8,0
	.set usage.anon.9,0
	.set usage.anon.10,0
	.set usage.anon.11,0
	.call i2c_slave,usage.anon.11
	.call usage.anon.11,delay_ticks
	.call usage.anon.10,delay_ticks_longlong
	.call usage.anon.9,delay_ticks_longlong
	.call usage.anon.8,delay_ticks_longlong
	.set usage.anon.0.locnoside, 0
	.set usage.anon.1.locnoside, 0
	.set usage.anon.2.locnoside, 0
	.set usage.anon.3.locnoside, 0
	.set usage.anon.4.locnoside, 0
	.set usage.anon.5.locnoside, 0
	.set usage.anon.6.locnoside, 0
	.set usage.anon.7.locnoside, 0
	.set i2c_slave.locnoside, 0
	.set usage.anon.0.locnointerfaceaccess, 0
	.set usage.anon.1.locnointerfaceaccess, 0
	.set usage.anon.2.locnointerfaceaccess, 0
	.set usage.anon.3.locnointerfaceaccess, 0
	.set usage.anon.4.locnointerfaceaccess, 0
	.set usage.anon.5.locnointerfaceaccess, 0
	.set usage.anon.6.locnointerfaceaccess, 0
	.set usage.anon.7.locnointerfaceaccess, 0
	.set i2c_slave.locnointerfaceaccess, 0
	.set i2c_slave.locnonotificationselect, 0
	.assert 1,usage.anon.11.actnonotificationselect,"C:/Users/user/workspace/lib_i2c/src/i2c_slave.xc:223:13: error: call to function `ensure_setup_time\' which selects on a notification in a combinable function select case\n            ensure_setup_time();\n            ^~~~~~~~~~~~~~~~~~~"

                                        # End of file scope inline assembly
	.text
	.weak	_i.i2c_master_if._chan.shutdown
	.align	4
	.type	_i.i2c_master_if._chan.shutdown,@function
	.cc_top _i.i2c_master_if._chan.shutdown.function,_i.i2c_master_if._chan.shutdown
_i.i2c_master_if._chan.shutdown:        # @_i.i2c_master_if._chan.shutdown
	.cfi_startproc
	.issue_mode single
# BB#0:                                 # %allocas
	ENTSP_lu6 4
.Ltmp0:
	.cfi_def_cfa_offset 16
.Ltmp1:
	.cfi_offset 15, 0
	stw r4, sp[2]                   # 4-byte Folded Spill
.Ltmp2:
	.cfi_offset 4, -8
	#DEBUG_VALUE: _i.i2c_master_if._chan.shutdown:dest <- R0
	getr r4, 2
	setd res[r4], r0
	add r0, r4, 3
	out res[r4], r0
	outct res[r4], 2
	ldc r1, 0
	mov r0, r4
	bl __interface_wait_and_yield
	in r0, res[r4]
	chkct res[r4], 1
	freer res[r4]
	ldw r4, sp[2]                   # 4-byte Folded Reload
	retsp 4
	# RETURN_REG_HOLDER
	.cc_bottom _i.i2c_master_if._chan.shutdown.function
	.set	_i.i2c_master_if._chan.shutdown.nstackwords,((_i.i2c_master_if._client_call_y.max.nstackwords $M ($D __interface_wait_and_yield.nstackwords ? __interface_wait_and_yield.nstackwords $: _i.i2c_master_if._client_call_y.max.nstackwords)) + 4)
	.globl	_i.i2c_master_if._chan.shutdown.nstackwords
	.weak	_i.i2c_master_if._chan.shutdown.nstackwords
	.set	_i.i2c_master_if._chan.shutdown.maxcores,($D __interface_wait_and_yield.maxcores ? __interface_wait_and_yield.maxcores $: _i.i2c_master_if._client_call_y.max.maxcores) $M 1
	.globl	_i.i2c_master_if._chan.shutdown.maxcores
	.weak	_i.i2c_master_if._chan.shutdown.maxcores
	.set	_i.i2c_master_if._chan.shutdown.maxtimers,($D __interface_wait_and_yield.maxtimers ? __interface_wait_and_yield.maxtimers $: _i.i2c_master_if._client_call_y.max.maxtimers) $M 0
	.globl	_i.i2c_master_if._chan.shutdown.maxtimers
	.weak	_i.i2c_master_if._chan.shutdown.maxtimers
	.set	_i.i2c_master_if._chan.shutdown.maxchanends,(1 + ($D __interface_wait_and_yield.maxchanends ? __interface_wait_and_yield.maxchanends $: _i.i2c_master_if._client_call_y.max.maxchanends)) $M 1
	.globl	_i.i2c_master_if._chan.shutdown.maxchanends
	.weak	_i.i2c_master_if._chan.shutdown.maxchanends
.Ltmp3:
	.size	_i.i2c_master_if._chan.shutdown, .Ltmp3-_i.i2c_master_if._chan.shutdown
	.cfi_endproc

	.weak	_i.i2c_master_if._chan.send_stop_bit
	.align	4
	.type	_i.i2c_master_if._chan.send_stop_bit,@function
	.cc_top _i.i2c_master_if._chan.send_stop_bit.function,_i.i2c_master_if._chan.send_stop_bit
_i.i2c_master_if._chan.send_stop_bit:   # @_i.i2c_master_if._chan.send_stop_bit
	.cfi_startproc
	.issue_mode single
# BB#0:                                 # %allocas
	ENTSP_lu6 4
.Ltmp4:
	.cfi_def_cfa_offset 16
.Ltmp5:
	.cfi_offset 15, 0
	stw r4, sp[2]                   # 4-byte Folded Spill
.Ltmp6:
	.cfi_offset 4, -8
	#DEBUG_VALUE: _i.i2c_master_if._chan.send_stop_bit:dest <- R0
	getr r4, 2
	setd res[r4], r0
	add r0, r4, 2
	out res[r4], r0
	outct res[r4], 2
	ldc r1, 0
	mov r0, r4
	bl __interface_wait_and_yield
	in r0, res[r4]
	chkct res[r4], 1
	freer res[r4]
	ldw r4, sp[2]                   # 4-byte Folded Reload
	retsp 4
	# RETURN_REG_HOLDER
	.cc_bottom _i.i2c_master_if._chan.send_stop_bit.function
	.set	_i.i2c_master_if._chan.send_stop_bit.nstackwords,((_i.i2c_master_if._client_call_y.max.nstackwords $M ($D __interface_wait_and_yield.nstackwords ? __interface_wait_and_yield.nstackwords $: _i.i2c_master_if._client_call_y.max.nstackwords)) + 4)
	.globl	_i.i2c_master_if._chan.send_stop_bit.nstackwords
	.weak	_i.i2c_master_if._chan.send_stop_bit.nstackwords
	.set	_i.i2c_master_if._chan.send_stop_bit.maxcores,($D __interface_wait_and_yield.maxcores ? __interface_wait_and_yield.maxcores $: _i.i2c_master_if._client_call_y.max.maxcores) $M 1
	.globl	_i.i2c_master_if._chan.send_stop_bit.maxcores
	.weak	_i.i2c_master_if._chan.send_stop_bit.maxcores
	.set	_i.i2c_master_if._chan.send_stop_bit.maxtimers,($D __interface_wait_and_yield.maxtimers ? __interface_wait_and_yield.maxtimers $: _i.i2c_master_if._client_call_y.max.maxtimers) $M 0
	.globl	_i.i2c_master_if._chan.send_stop_bit.maxtimers
	.weak	_i.i2c_master_if._chan.send_stop_bit.maxtimers
	.set	_i.i2c_master_if._chan.send_stop_bit.maxchanends,(1 + ($D __interface_wait_and_yield.maxchanends ? __interface_wait_and_yield.maxchanends $: _i.i2c_master_if._client_call_y.max.maxchanends)) $M 1
	.globl	_i.i2c_master_if._chan.send_stop_bit.maxchanends
	.weak	_i.i2c_master_if._chan.send_stop_bit.maxchanends
.Ltmp7:
	.size	_i.i2c_master_if._chan.send_stop_bit, .Ltmp7-_i.i2c_master_if._chan.send_stop_bit
	.cfi_endproc

	.weak	_i.i2c_master_if._chan.read
	.align	4
	.type	_i.i2c_master_if._chan.read,@function
	.cc_top _i.i2c_master_if._chan.read.function,_i.i2c_master_if._chan.read
_i.i2c_master_if._chan.read:            # @_i.i2c_master_if._chan.read
	.cfi_startproc
	.issue_mode single
# BB#0:                                 # %allocas
	ENTSP_lu6 8
.Ltmp8:
	.cfi_def_cfa_offset 32
.Ltmp9:
	.cfi_offset 15, 0
	std r5, r4, sp[1]               # 4-byte Folded Spill
.Ltmp10:
	.cfi_offset 4, -24
.Ltmp11:
	.cfi_offset 5, -20
	std r7, r6, sp[2]               # 4-byte Folded Spill
.Ltmp12:
	.cfi_offset 6, -16
.Ltmp13:
	.cfi_offset 7, -12
	stw r8, sp[6]                   # 4-byte Folded Spill
.Ltmp14:
	.cfi_offset 8, -8
	#DEBUG_VALUE: _i.i2c_master_if._chan.read:dest <- R0
	#DEBUG_VALUE: _i.i2c_master_if._chan.read:param1 <- R1
	#DEBUG_VALUE: _i.i2c_master_if._chan.read:param2 <- R2
	#DEBUG_VALUE: _i.i2c_master_if._chan.read:param3 <- R3
	#DEBUG_VALUE: _i.i2c_master_if._chan.read:param4 <- [SP+36]
	mov r5, r3
	#DEBUG_VALUE: _i.i2c_master_if._chan.read:param3 <- R5
	mov r6, r2
	#DEBUG_VALUE: _i.i2c_master_if._chan.read:param2 <- R6
	mov r7, r1
	#DEBUG_VALUE: _i.i2c_master_if._chan.read:param1 <- R7
	ldw r8, sp[9]
	getr r4, 2
	setd res[r4], r0
	add r0, r4, 1
	out res[r4], r0
	outct res[r4], 2
	ldc r1, 0
	mov r0, r4
	bl __interface_wait_and_yield
	chkct res[r4], 1
	outt res[r4], r7
	stw r6, sp[1]
	out res[r4], r5
	out res[r4], r8
	outct res[r4], 2
	ldaw r1, sp[1]
	mov r0, r4
	bl __interface_client_call
	in r0, res[r4]
	chkct res[r4], 1
	freer res[r4]
	ldw r8, sp[6]                   # 4-byte Folded Reload
	ldd r7, r6, sp[2]               # 4-byte Folded Reload
	ldd r5, r4, sp[1]               # 4-byte Folded Reload
	retsp 8
	# RETURN_REG_HOLDER
	.cc_bottom _i.i2c_master_if._chan.read.function
	.set	_i.i2c_master_if._chan.read.nstackwords,((_i.i2c_master_if._client_call_y.max.nstackwords $M ($D __interface_wait_and_yield.nstackwords ? __interface_wait_and_yield.nstackwords $: _i.i2c_master_if._client_call_y.max.nstackwords) $M __interface_client_call.nstackwords) + 8)
	.globl	_i.i2c_master_if._chan.read.nstackwords
	.weak	_i.i2c_master_if._chan.read.nstackwords
	.set	_i.i2c_master_if._chan.read.maxcores,__interface_client_call.maxcores $M ($D __interface_wait_and_yield.maxcores ? __interface_wait_and_yield.maxcores $: _i.i2c_master_if._client_call_y.max.maxcores) $M 1
	.globl	_i.i2c_master_if._chan.read.maxcores
	.weak	_i.i2c_master_if._chan.read.maxcores
	.set	_i.i2c_master_if._chan.read.maxtimers,__interface_client_call.maxtimers $M ($D __interface_wait_and_yield.maxtimers ? __interface_wait_and_yield.maxtimers $: _i.i2c_master_if._client_call_y.max.maxtimers) $M 0
	.globl	_i.i2c_master_if._chan.read.maxtimers
	.weak	_i.i2c_master_if._chan.read.maxtimers
	.set	_i.i2c_master_if._chan.read.maxchanends,(1 + __interface_client_call.maxchanends) $M (1 + ($D __interface_wait_and_yield.maxchanends ? __interface_wait_and_yield.maxchanends $: _i.i2c_master_if._client_call_y.max.maxchanends)) $M 1
	.globl	_i.i2c_master_if._chan.read.maxchanends
	.weak	_i.i2c_master_if._chan.read.maxchanends
.Ltmp15:
	.size	_i.i2c_master_if._chan.read, .Ltmp15-_i.i2c_master_if._chan.read
	.cfi_endproc

	.weak	_i.i2c_master_if._chan.write
	.align	4
	.type	_i.i2c_master_if._chan.write,@function
	.cc_top _i.i2c_master_if._chan.write.function,_i.i2c_master_if._chan.write
_i.i2c_master_if._chan.write:           # @_i.i2c_master_if._chan.write
	.cfi_startproc
	.issue_mode single
# BB#0:                                 # %allocas
	ENTSP_lu6 8
.Ltmp16:
	.cfi_def_cfa_offset 32
.Ltmp17:
	.cfi_offset 15, 0
	std r5, r4, sp[1]               # 4-byte Folded Spill
.Ltmp18:
	.cfi_offset 4, -24
.Ltmp19:
	.cfi_offset 5, -20
	std r7, r6, sp[2]               # 4-byte Folded Spill
.Ltmp20:
	.cfi_offset 6, -16
.Ltmp21:
	.cfi_offset 7, -12
	std r9, r8, sp[3]               # 4-byte Folded Spill
.Ltmp22:
	.cfi_offset 8, -8
.Ltmp23:
	.cfi_offset 9, -4
	#DEBUG_VALUE: _i.i2c_master_if._chan.write:dest <- R0
	#DEBUG_VALUE: _i.i2c_master_if._chan.write:param1 <- R1
	#DEBUG_VALUE: _i.i2c_master_if._chan.write:param2 <- R2
	#DEBUG_VALUE: _i.i2c_master_if._chan.write:param3 <- R3
	#DEBUG_VALUE: _i.i2c_master_if._chan.write:param4 <- [SP+36]
	#DEBUG_VALUE: _i.i2c_master_if._chan.write:param5 <- [SP+40]
	mov r5, r3
	#DEBUG_VALUE: _i.i2c_master_if._chan.write:param3 <- R5
	mov r6, r2
	#DEBUG_VALUE: _i.i2c_master_if._chan.write:param2 <- R6
	mov r7, r1
	#DEBUG_VALUE: _i.i2c_master_if._chan.write:param1 <- R7
	ldw r9, sp[10]
	ldw r8, sp[9]
	getr r4, 2
	setd res[r4], r0
	out res[r4], r4
	outct res[r4], 2
	ldc r1, 0
	mov r0, r4
	bl __interface_wait_and_yield
	chkct res[r4], 1
	outt res[r4], r7
	stw r6, sp[1]
	out res[r4], r5
	ldw r0, r8[0]
	out res[r4], r0
	out res[r4], r9
	outct res[r4], 2
	ldaw r1, sp[1]
	mov r0, r4
	bl __interface_client_call
	in r0, res[r4]
	stw r0, r8[0]
	in r0, res[r4]
	chkct res[r4], 1
	freer res[r4]
	ldd r9, r8, sp[3]               # 4-byte Folded Reload
	ldd r7, r6, sp[2]               # 4-byte Folded Reload
	ldd r5, r4, sp[1]               # 4-byte Folded Reload
	retsp 8
	# RETURN_REG_HOLDER
	.cc_bottom _i.i2c_master_if._chan.write.function
	.set	_i.i2c_master_if._chan.write.nstackwords,((_i.i2c_master_if._client_call_y.max.nstackwords $M ($D __interface_wait_and_yield.nstackwords ? __interface_wait_and_yield.nstackwords $: _i.i2c_master_if._client_call_y.max.nstackwords) $M __interface_client_call.nstackwords) + 8)
	.globl	_i.i2c_master_if._chan.write.nstackwords
	.weak	_i.i2c_master_if._chan.write.nstackwords
	.set	_i.i2c_master_if._chan.write.maxcores,__interface_client_call.maxcores $M ($D __interface_wait_and_yield.maxcores ? __interface_wait_and_yield.maxcores $: _i.i2c_master_if._client_call_y.max.maxcores) $M 1
	.globl	_i.i2c_master_if._chan.write.maxcores
	.weak	_i.i2c_master_if._chan.write.maxcores
	.set	_i.i2c_master_if._chan.write.maxtimers,__interface_client_call.maxtimers $M ($D __interface_wait_and_yield.maxtimers ? __interface_wait_and_yield.maxtimers $: _i.i2c_master_if._client_call_y.max.maxtimers) $M 0
	.globl	_i.i2c_master_if._chan.write.maxtimers
	.weak	_i.i2c_master_if._chan.write.maxtimers
	.set	_i.i2c_master_if._chan.write.maxchanends,(1 + __interface_client_call.maxchanends) $M (1 + ($D __interface_wait_and_yield.maxchanends ? __interface_wait_and_yield.maxchanends $: _i.i2c_master_if._client_call_y.max.maxchanends)) $M 1
	.globl	_i.i2c_master_if._chan.write.maxchanends
	.weak	_i.i2c_master_if._chan.write.maxchanends
.Ltmp24:
	.size	_i.i2c_master_if._chan.write, .Ltmp24-_i.i2c_master_if._chan.write
	.cfi_endproc

	.weak	_i.i2c_master_if._chan_yield.shutdown
	.align	4
	.type	_i.i2c_master_if._chan_yield.shutdown,@function
	.cc_top _i.i2c_master_if._chan_yield.shutdown.function,_i.i2c_master_if._chan_yield.shutdown
_i.i2c_master_if._chan_yield.shutdown:  # @_i.i2c_master_if._chan_yield.shutdown
	.cfi_startproc
	.issue_mode single
# BB#0:                                 # %allocas
	ENTSP_lu6 4
.Ltmp25:
	.cfi_def_cfa_offset 16
.Ltmp26:
	.cfi_offset 15, 0
	std r5, r4, sp[1]               # 4-byte Folded Spill
.Ltmp27:
	.cfi_offset 4, -8
.Ltmp28:
	.cfi_offset 5, -4
	#DEBUG_VALUE: _i.i2c_master_if._chan_yield.shutdown:s <- R0
	ldw r1, r0[0]
	getr r4, 2
	setd res[r4], r1
	add r1, r4, 3
	out res[r4], r1
	outct res[r4], 2
	ldw r5, r0[1]
	mov r0, r4
	mov r1, r5
	bl __interface_wait_and_yield
	ldc r1, 0
	mov r0, r4
	mov r2, r5
	bl __interface_client_call_y
	chkct res[r4], 1
	freer res[r4]
	ldd r5, r4, sp[1]               # 4-byte Folded Reload
	retsp 4
	# RETURN_REG_HOLDER
	.cc_bottom _i.i2c_master_if._chan_yield.shutdown.function
	.set	_i.i2c_master_if._chan_yield.shutdown.nstackwords,((($D __interface_wait_and_yield.nstackwords ? __interface_wait_and_yield.nstackwords $: _i.i2c_master_if._client_call_y.max.nstackwords) $M _i.i2c_master_if._client_call_y.max.nstackwords $M ($D __interface_client_call_y.nstackwords ? __interface_client_call_y.nstackwords $: _i.i2c_master_if._client_call_y.max.nstackwords)) + 4)
	.globl	_i.i2c_master_if._chan_yield.shutdown.nstackwords
	.weak	_i.i2c_master_if._chan_yield.shutdown.nstackwords
	.set	_i.i2c_master_if._chan_yield.shutdown.maxcores,($D __interface_client_call_y.maxcores ? __interface_client_call_y.maxcores $: _i.i2c_master_if._client_call_y.max.maxcores) $M ($D __interface_wait_and_yield.maxcores ? __interface_wait_and_yield.maxcores $: _i.i2c_master_if._client_call_y.max.maxcores) $M 1
	.globl	_i.i2c_master_if._chan_yield.shutdown.maxcores
	.weak	_i.i2c_master_if._chan_yield.shutdown.maxcores
	.set	_i.i2c_master_if._chan_yield.shutdown.maxtimers,($D __interface_client_call_y.maxtimers ? __interface_client_call_y.maxtimers $: _i.i2c_master_if._client_call_y.max.maxtimers) $M ($D __interface_wait_and_yield.maxtimers ? __interface_wait_and_yield.maxtimers $: _i.i2c_master_if._client_call_y.max.maxtimers) $M 0
	.globl	_i.i2c_master_if._chan_yield.shutdown.maxtimers
	.weak	_i.i2c_master_if._chan_yield.shutdown.maxtimers
	.set	_i.i2c_master_if._chan_yield.shutdown.maxchanends,(1 + ($D __interface_client_call_y.maxchanends ? __interface_client_call_y.maxchanends $: _i.i2c_master_if._client_call_y.max.maxchanends)) $M (1 + ($D __interface_wait_and_yield.maxchanends ? __interface_wait_and_yield.maxchanends $: _i.i2c_master_if._client_call_y.max.maxchanends)) $M 1
	.globl	_i.i2c_master_if._chan_yield.shutdown.maxchanends
	.weak	_i.i2c_master_if._chan_yield.shutdown.maxchanends
.Ltmp29:
	.size	_i.i2c_master_if._chan_yield.shutdown, .Ltmp29-_i.i2c_master_if._chan_yield.shutdown
	.cfi_endproc

	.weak	_i.i2c_master_if._chan_yield.send_stop_bit
	.align	4
	.type	_i.i2c_master_if._chan_yield.send_stop_bit,@function
	.cc_top _i.i2c_master_if._chan_yield.send_stop_bit.function,_i.i2c_master_if._chan_yield.send_stop_bit
_i.i2c_master_if._chan_yield.send_stop_bit: # @_i.i2c_master_if._chan_yield.send_stop_bit
	.cfi_startproc
	.issue_mode single
# BB#0:                                 # %allocas
	ENTSP_lu6 4
.Ltmp30:
	.cfi_def_cfa_offset 16
.Ltmp31:
	.cfi_offset 15, 0
	std r5, r4, sp[1]               # 4-byte Folded Spill
.Ltmp32:
	.cfi_offset 4, -8
.Ltmp33:
	.cfi_offset 5, -4
	#DEBUG_VALUE: _i.i2c_master_if._chan_yield.send_stop_bit:s <- R0
	ldw r1, r0[0]
	getr r4, 2
	setd res[r4], r1
	add r1, r4, 2
	out res[r4], r1
	outct res[r4], 2
	ldw r5, r0[1]
	mov r0, r4
	mov r1, r5
	bl __interface_wait_and_yield
	ldc r1, 0
	mov r0, r4
	mov r2, r5
	bl __interface_client_call_y
	chkct res[r4], 1
	freer res[r4]
	ldd r5, r4, sp[1]               # 4-byte Folded Reload
	retsp 4
	# RETURN_REG_HOLDER
	.cc_bottom _i.i2c_master_if._chan_yield.send_stop_bit.function
	.set	_i.i2c_master_if._chan_yield.send_stop_bit.nstackwords,((($D __interface_wait_and_yield.nstackwords ? __interface_wait_and_yield.nstackwords $: _i.i2c_master_if._client_call_y.max.nstackwords) $M _i.i2c_master_if._client_call_y.max.nstackwords $M ($D __interface_client_call_y.nstackwords ? __interface_client_call_y.nstackwords $: _i.i2c_master_if._client_call_y.max.nstackwords)) + 4)
	.globl	_i.i2c_master_if._chan_yield.send_stop_bit.nstackwords
	.weak	_i.i2c_master_if._chan_yield.send_stop_bit.nstackwords
	.set	_i.i2c_master_if._chan_yield.send_stop_bit.maxcores,($D __interface_client_call_y.maxcores ? __interface_client_call_y.maxcores $: _i.i2c_master_if._client_call_y.max.maxcores) $M ($D __interface_wait_and_yield.maxcores ? __interface_wait_and_yield.maxcores $: _i.i2c_master_if._client_call_y.max.maxcores) $M 1
	.globl	_i.i2c_master_if._chan_yield.send_stop_bit.maxcores
	.weak	_i.i2c_master_if._chan_yield.send_stop_bit.maxcores
	.set	_i.i2c_master_if._chan_yield.send_stop_bit.maxtimers,($D __interface_client_call_y.maxtimers ? __interface_client_call_y.maxtimers $: _i.i2c_master_if._client_call_y.max.maxtimers) $M ($D __interface_wait_and_yield.maxtimers ? __interface_wait_and_yield.maxtimers $: _i.i2c_master_if._client_call_y.max.maxtimers) $M 0
	.globl	_i.i2c_master_if._chan_yield.send_stop_bit.maxtimers
	.weak	_i.i2c_master_if._chan_yield.send_stop_bit.maxtimers
	.set	_i.i2c_master_if._chan_yield.send_stop_bit.maxchanends,(1 + ($D __interface_client_call_y.maxchanends ? __interface_client_call_y.maxchanends $: _i.i2c_master_if._client_call_y.max.maxchanends)) $M (1 + ($D __interface_wait_and_yield.maxchanends ? __interface_wait_and_yield.maxchanends $: _i.i2c_master_if._client_call_y.max.maxchanends)) $M 1
	.globl	_i.i2c_master_if._chan_yield.send_stop_bit.maxchanends
	.weak	_i.i2c_master_if._chan_yield.send_stop_bit.maxchanends
.Ltmp34:
	.size	_i.i2c_master_if._chan_yield.send_stop_bit, .Ltmp34-_i.i2c_master_if._chan_yield.send_stop_bit
	.cfi_endproc

	.weak	_i.i2c_master_if._chan_yield.read
	.align	4
	.type	_i.i2c_master_if._chan_yield.read,@function
	.cc_top _i.i2c_master_if._chan_yield.read.function,_i.i2c_master_if._chan_yield.read
_i.i2c_master_if._chan_yield.read:      # @_i.i2c_master_if._chan_yield.read
	.cfi_startproc
	.issue_mode single
# BB#0:                                 # %allocas
	ENTSP_lu6 8
.Ltmp35:
	.cfi_def_cfa_offset 32
.Ltmp36:
	.cfi_offset 15, 0
	std r5, r4, sp[1]               # 4-byte Folded Spill
.Ltmp37:
	.cfi_offset 4, -24
.Ltmp38:
	.cfi_offset 5, -20
	std r7, r6, sp[2]               # 4-byte Folded Spill
.Ltmp39:
	.cfi_offset 6, -16
.Ltmp40:
	.cfi_offset 7, -12
	std r9, r8, sp[3]               # 4-byte Folded Spill
.Ltmp41:
	.cfi_offset 8, -8
.Ltmp42:
	.cfi_offset 9, -4
	#DEBUG_VALUE: _i.i2c_master_if._chan_yield.read:s <- R0
	#DEBUG_VALUE: _i.i2c_master_if._chan_yield.read:param1 <- R1
	#DEBUG_VALUE: _i.i2c_master_if._chan_yield.read:param2 <- R2
	#DEBUG_VALUE: _i.i2c_master_if._chan_yield.read:param3 <- R3
	#DEBUG_VALUE: _i.i2c_master_if._chan_yield.read:param4 <- [SP+36]
	mov r5, r3
	#DEBUG_VALUE: _i.i2c_master_if._chan_yield.read:param3 <- R5
	mov r6, r2
	#DEBUG_VALUE: _i.i2c_master_if._chan_yield.read:param2 <- R6
	mov r7, r1
	#DEBUG_VALUE: _i.i2c_master_if._chan_yield.read:param1 <- R7
	ldw r9, sp[9]
	ldw r1, r0[0]
	getr r4, 2
	setd res[r4], r1
	add r1, r4, 1
	out res[r4], r1
	outct res[r4], 2
	ldw r8, r0[1]
	mov r0, r4
	mov r1, r8
	bl __interface_wait_and_yield
	chkct res[r4], 1
	outt res[r4], r7
	stw r6, sp[1]
	out res[r4], r5
	out res[r4], r9
	outct res[r4], 2
	ldaw r1, sp[1]
	mov r0, r4
	mov r2, r8
	bl __interface_client_call_y
	in r0, res[r4]
	chkct res[r4], 1
	freer res[r4]
	ldd r9, r8, sp[3]               # 4-byte Folded Reload
	ldd r7, r6, sp[2]               # 4-byte Folded Reload
	ldd r5, r4, sp[1]               # 4-byte Folded Reload
	retsp 8
	# RETURN_REG_HOLDER
	.cc_bottom _i.i2c_master_if._chan_yield.read.function
	.set	_i.i2c_master_if._chan_yield.read.nstackwords,((($D __interface_wait_and_yield.nstackwords ? __interface_wait_and_yield.nstackwords $: _i.i2c_master_if._client_call_y.max.nstackwords) $M _i.i2c_master_if._client_call_y.max.nstackwords $M ($D __interface_client_call_y.nstackwords ? __interface_client_call_y.nstackwords $: _i.i2c_master_if._client_call_y.max.nstackwords)) + 8)
	.globl	_i.i2c_master_if._chan_yield.read.nstackwords
	.weak	_i.i2c_master_if._chan_yield.read.nstackwords
	.set	_i.i2c_master_if._chan_yield.read.maxcores,($D __interface_client_call_y.maxcores ? __interface_client_call_y.maxcores $: _i.i2c_master_if._client_call_y.max.maxcores) $M ($D __interface_wait_and_yield.maxcores ? __interface_wait_and_yield.maxcores $: _i.i2c_master_if._client_call_y.max.maxcores) $M 1
	.globl	_i.i2c_master_if._chan_yield.read.maxcores
	.weak	_i.i2c_master_if._chan_yield.read.maxcores
	.set	_i.i2c_master_if._chan_yield.read.maxtimers,($D __interface_client_call_y.maxtimers ? __interface_client_call_y.maxtimers $: _i.i2c_master_if._client_call_y.max.maxtimers) $M ($D __interface_wait_and_yield.maxtimers ? __interface_wait_and_yield.maxtimers $: _i.i2c_master_if._client_call_y.max.maxtimers) $M 0
	.globl	_i.i2c_master_if._chan_yield.read.maxtimers
	.weak	_i.i2c_master_if._chan_yield.read.maxtimers
	.set	_i.i2c_master_if._chan_yield.read.maxchanends,(1 + ($D __interface_client_call_y.maxchanends ? __interface_client_call_y.maxchanends $: _i.i2c_master_if._client_call_y.max.maxchanends)) $M (1 + ($D __interface_wait_and_yield.maxchanends ? __interface_wait_and_yield.maxchanends $: _i.i2c_master_if._client_call_y.max.maxchanends)) $M 1
	.globl	_i.i2c_master_if._chan_yield.read.maxchanends
	.weak	_i.i2c_master_if._chan_yield.read.maxchanends
.Ltmp43:
	.size	_i.i2c_master_if._chan_yield.read, .Ltmp43-_i.i2c_master_if._chan_yield.read
	.cfi_endproc

	.weak	_i.i2c_master_if._chan_yield.write
	.align	4
	.type	_i.i2c_master_if._chan_yield.write,@function
	.cc_top _i.i2c_master_if._chan_yield.write.function,_i.i2c_master_if._chan_yield.write
_i.i2c_master_if._chan_yield.write:     # @_i.i2c_master_if._chan_yield.write
	.cfi_startproc
	.issue_mode single
# BB#0:                                 # %allocas
	ENTSP_lu6 10
.Ltmp44:
	.cfi_def_cfa_offset 40
.Ltmp45:
	.cfi_offset 15, 0
	std r5, r4, sp[1]               # 4-byte Folded Spill
.Ltmp46:
	.cfi_offset 4, -32
.Ltmp47:
	.cfi_offset 5, -28
	std r7, r6, sp[2]               # 4-byte Folded Spill
.Ltmp48:
	.cfi_offset 6, -24
.Ltmp49:
	.cfi_offset 7, -20
	std r9, r8, sp[3]               # 4-byte Folded Spill
.Ltmp50:
	.cfi_offset 8, -16
.Ltmp51:
	.cfi_offset 9, -12
	stw r10, sp[8]                  # 4-byte Folded Spill
.Ltmp52:
	.cfi_offset 10, -8
	#DEBUG_VALUE: _i.i2c_master_if._chan_yield.write:s <- R0
	#DEBUG_VALUE: _i.i2c_master_if._chan_yield.write:param1 <- R1
	#DEBUG_VALUE: _i.i2c_master_if._chan_yield.write:param2 <- R2
	#DEBUG_VALUE: _i.i2c_master_if._chan_yield.write:param3 <- R3
	#DEBUG_VALUE: _i.i2c_master_if._chan_yield.write:param4 <- [SP+44]
	#DEBUG_VALUE: _i.i2c_master_if._chan_yield.write:param5 <- [SP+48]
	mov r5, r3
	#DEBUG_VALUE: _i.i2c_master_if._chan_yield.write:param3 <- R5
	mov r6, r2
	#DEBUG_VALUE: _i.i2c_master_if._chan_yield.write:param2 <- R6
	mov r7, r1
	#DEBUG_VALUE: _i.i2c_master_if._chan_yield.write:param1 <- R7
	ldw r10, sp[12]
	ldw r9, sp[11]
	ldw r1, r0[0]
	getr r4, 2
	setd res[r4], r1
	out res[r4], r4
	outct res[r4], 2
	ldw r8, r0[1]
	mov r0, r4
	mov r1, r8
	bl __interface_wait_and_yield
	chkct res[r4], 1
	outt res[r4], r7
	stw r6, sp[1]
	out res[r4], r5
	ldw r0, r9[0]
	out res[r4], r0
	out res[r4], r10
	outct res[r4], 2
	ldaw r1, sp[1]
	mov r0, r4
	mov r2, r8
	bl __interface_client_call_y
	in r0, res[r4]
	stw r0, r9[0]
	in r0, res[r4]
	chkct res[r4], 1
	freer res[r4]
	ldw r10, sp[8]                  # 4-byte Folded Reload
	ldd r9, r8, sp[3]               # 4-byte Folded Reload
	ldd r7, r6, sp[2]               # 4-byte Folded Reload
	ldd r5, r4, sp[1]               # 4-byte Folded Reload
	retsp 10
	# RETURN_REG_HOLDER
	.cc_bottom _i.i2c_master_if._chan_yield.write.function
	.set	_i.i2c_master_if._chan_yield.write.nstackwords,((($D __interface_wait_and_yield.nstackwords ? __interface_wait_and_yield.nstackwords $: _i.i2c_master_if._client_call_y.max.nstackwords) $M _i.i2c_master_if._client_call_y.max.nstackwords $M ($D __interface_client_call_y.nstackwords ? __interface_client_call_y.nstackwords $: _i.i2c_master_if._client_call_y.max.nstackwords)) + 10)
	.globl	_i.i2c_master_if._chan_yield.write.nstackwords
	.weak	_i.i2c_master_if._chan_yield.write.nstackwords
	.set	_i.i2c_master_if._chan_yield.write.maxcores,($D __interface_client_call_y.maxcores ? __interface_client_call_y.maxcores $: _i.i2c_master_if._client_call_y.max.maxcores) $M ($D __interface_wait_and_yield.maxcores ? __interface_wait_and_yield.maxcores $: _i.i2c_master_if._client_call_y.max.maxcores) $M 1
	.globl	_i.i2c_master_if._chan_yield.write.maxcores
	.weak	_i.i2c_master_if._chan_yield.write.maxcores
	.set	_i.i2c_master_if._chan_yield.write.maxtimers,($D __interface_client_call_y.maxtimers ? __interface_client_call_y.maxtimers $: _i.i2c_master_if._client_call_y.max.maxtimers) $M ($D __interface_wait_and_yield.maxtimers ? __interface_wait_and_yield.maxtimers $: _i.i2c_master_if._client_call_y.max.maxtimers) $M 0
	.globl	_i.i2c_master_if._chan_yield.write.maxtimers
	.weak	_i.i2c_master_if._chan_yield.write.maxtimers
	.set	_i.i2c_master_if._chan_yield.write.maxchanends,(1 + ($D __interface_client_call_y.maxchanends ? __interface_client_call_y.maxchanends $: _i.i2c_master_if._client_call_y.max.maxchanends)) $M (1 + ($D __interface_wait_and_yield.maxchanends ? __interface_wait_and_yield.maxchanends $: _i.i2c_master_if._client_call_y.max.maxchanends)) $M 1
	.globl	_i.i2c_master_if._chan_yield.write.maxchanends
	.weak	_i.i2c_master_if._chan_yield.write.maxchanends
.Ltmp53:
	.size	_i.i2c_master_if._chan_yield.write, .Ltmp53-_i.i2c_master_if._chan_yield.write
	.cfi_endproc

	.weak	_i.i2c_master_async_if._chan.shutdown
	.align	4
	.type	_i.i2c_master_async_if._chan.shutdown,@function
	.cc_top _i.i2c_master_async_if._chan.shutdown.function,_i.i2c_master_async_if._chan.shutdown
_i.i2c_master_async_if._chan.shutdown:  # @_i.i2c_master_async_if._chan.shutdown
	.cfi_startproc
	.issue_mode single
# BB#0:                                 # %allocas
	ENTSP_lu6 4
.Ltmp54:
	.cfi_def_cfa_offset 16
.Ltmp55:
	.cfi_offset 15, 0
	stw r4, sp[2]                   # 4-byte Folded Spill
.Ltmp56:
	.cfi_offset 4, -8
	#DEBUG_VALUE: _i.i2c_master_async_if._chan.shutdown:dest <- R0
	getr r4, 2
	setd res[r4], r0
	add r0, r4, 5
	out res[r4], r0
	outct res[r4], 2
	ldc r1, 0
	mov r0, r4
	bl __interface_wait_and_yield
	in r0, res[r4]
	chkct res[r4], 1
	freer res[r4]
	ldw r4, sp[2]                   # 4-byte Folded Reload
	retsp 4
	# RETURN_REG_HOLDER
	.cc_bottom _i.i2c_master_async_if._chan.shutdown.function
	.set	_i.i2c_master_async_if._chan.shutdown.nstackwords,((_i.i2c_master_async_if._client_call_y.max.nstackwords $M ($D __interface_wait_and_yield.nstackwords ? __interface_wait_and_yield.nstackwords $: _i.i2c_master_async_if._client_call_y.max.nstackwords)) + 4)
	.globl	_i.i2c_master_async_if._chan.shutdown.nstackwords
	.weak	_i.i2c_master_async_if._chan.shutdown.nstackwords
	.set	_i.i2c_master_async_if._chan.shutdown.maxcores,($D __interface_wait_and_yield.maxcores ? __interface_wait_and_yield.maxcores $: _i.i2c_master_async_if._client_call_y.max.maxcores) $M 1
	.globl	_i.i2c_master_async_if._chan.shutdown.maxcores
	.weak	_i.i2c_master_async_if._chan.shutdown.maxcores
	.set	_i.i2c_master_async_if._chan.shutdown.maxtimers,($D __interface_wait_and_yield.maxtimers ? __interface_wait_and_yield.maxtimers $: _i.i2c_master_async_if._client_call_y.max.maxtimers) $M 0
	.globl	_i.i2c_master_async_if._chan.shutdown.maxtimers
	.weak	_i.i2c_master_async_if._chan.shutdown.maxtimers
	.set	_i.i2c_master_async_if._chan.shutdown.maxchanends,(1 + ($D __interface_wait_and_yield.maxchanends ? __interface_wait_and_yield.maxchanends $: _i.i2c_master_async_if._client_call_y.max.maxchanends)) $M 1
	.globl	_i.i2c_master_async_if._chan.shutdown.maxchanends
	.weak	_i.i2c_master_async_if._chan.shutdown.maxchanends
.Ltmp57:
	.size	_i.i2c_master_async_if._chan.shutdown, .Ltmp57-_i.i2c_master_async_if._chan.shutdown
	.cfi_endproc

	.weak	_i.i2c_master_async_if._chan.send_stop_bit
	.align	4
	.type	_i.i2c_master_async_if._chan.send_stop_bit,@function
	.cc_top _i.i2c_master_async_if._chan.send_stop_bit.function,_i.i2c_master_async_if._chan.send_stop_bit
_i.i2c_master_async_if._chan.send_stop_bit: # @_i.i2c_master_async_if._chan.send_stop_bit
	.cfi_startproc
	.issue_mode single
# BB#0:                                 # %allocas
	ENTSP_lu6 4
.Ltmp58:
	.cfi_def_cfa_offset 16
.Ltmp59:
	.cfi_offset 15, 0
	stw r4, sp[2]                   # 4-byte Folded Spill
.Ltmp60:
	.cfi_offset 4, -8
	#DEBUG_VALUE: _i.i2c_master_async_if._chan.send_stop_bit:dest <- R0
	getr r4, 2
	setd res[r4], r0
	add r0, r4, 4
	out res[r4], r0
	outct res[r4], 2
	ldc r1, 0
	mov r0, r4
	bl __interface_wait_and_yield
	in r0, res[r4]
	chkct res[r4], 1
	freer res[r4]
	ldw r4, sp[2]                   # 4-byte Folded Reload
	retsp 4
	# RETURN_REG_HOLDER
	.cc_bottom _i.i2c_master_async_if._chan.send_stop_bit.function
	.set	_i.i2c_master_async_if._chan.send_stop_bit.nstackwords,((_i.i2c_master_async_if._client_call_y.max.nstackwords $M ($D __interface_wait_and_yield.nstackwords ? __interface_wait_and_yield.nstackwords $: _i.i2c_master_async_if._client_call_y.max.nstackwords)) + 4)
	.globl	_i.i2c_master_async_if._chan.send_stop_bit.nstackwords
	.weak	_i.i2c_master_async_if._chan.send_stop_bit.nstackwords
	.set	_i.i2c_master_async_if._chan.send_stop_bit.maxcores,($D __interface_wait_and_yield.maxcores ? __interface_wait_and_yield.maxcores $: _i.i2c_master_async_if._client_call_y.max.maxcores) $M 1
	.globl	_i.i2c_master_async_if._chan.send_stop_bit.maxcores
	.weak	_i.i2c_master_async_if._chan.send_stop_bit.maxcores
	.set	_i.i2c_master_async_if._chan.send_stop_bit.maxtimers,($D __interface_wait_and_yield.maxtimers ? __interface_wait_and_yield.maxtimers $: _i.i2c_master_async_if._client_call_y.max.maxtimers) $M 0
	.globl	_i.i2c_master_async_if._chan.send_stop_bit.maxtimers
	.weak	_i.i2c_master_async_if._chan.send_stop_bit.maxtimers
	.set	_i.i2c_master_async_if._chan.send_stop_bit.maxchanends,(1 + ($D __interface_wait_and_yield.maxchanends ? __interface_wait_and_yield.maxchanends $: _i.i2c_master_async_if._client_call_y.max.maxchanends)) $M 1
	.globl	_i.i2c_master_async_if._chan.send_stop_bit.maxchanends
	.weak	_i.i2c_master_async_if._chan.send_stop_bit.maxchanends
.Ltmp61:
	.size	_i.i2c_master_async_if._chan.send_stop_bit, .Ltmp61-_i.i2c_master_async_if._chan.send_stop_bit
	.cfi_endproc

	.weak	_i.i2c_master_async_if._chan.get_read_data
	.align	4
	.type	_i.i2c_master_async_if._chan.get_read_data,@function
	.cc_top _i.i2c_master_async_if._chan.get_read_data.function,_i.i2c_master_async_if._chan.get_read_data
_i.i2c_master_async_if._chan.get_read_data: # @_i.i2c_master_async_if._chan.get_read_data
	.cfi_startproc
	.issue_mode single
# BB#0:                                 # %allocas
	ENTSP_lu6 6
.Ltmp62:
	.cfi_def_cfa_offset 24
.Ltmp63:
	.cfi_offset 15, 0
	std r5, r4, sp[1]               # 4-byte Folded Spill
.Ltmp64:
	.cfi_offset 4, -16
.Ltmp65:
	.cfi_offset 5, -12
	std r7, r6, sp[2]               # 4-byte Folded Spill
.Ltmp66:
	.cfi_offset 6, -8
.Ltmp67:
	.cfi_offset 7, -4
	#DEBUG_VALUE: _i.i2c_master_async_if._chan.get_read_data:dest <- R0
	#DEBUG_VALUE: _i.i2c_master_async_if._chan.get_read_data:clientNotifyFlag <- R1
	#DEBUG_VALUE: _i.i2c_master_async_if._chan.get_read_data:param2 <- R2
	#DEBUG_VALUE: _i.i2c_master_async_if._chan.get_read_data:param3 <- R3
	mov r4, r3
	#DEBUG_VALUE: _i.i2c_master_async_if._chan.get_read_data:param3 <- R4
	mov r5, r2
	#DEBUG_VALUE: _i.i2c_master_async_if._chan.get_read_data:param2 <- R5
	mov r6, r1
	#DEBUG_VALUE: _i.i2c_master_async_if._chan.get_read_data:clientNotifyFlag <- R6
	getr r7, 2
	setd res[r7], r0
	add r0, r7, 3
	out res[r7], r0
	outct res[r7], 2
	ldc r1, 0
	mov r0, r7
	bl __interface_wait_and_yield
	chkct res[r7], 1
	out res[r7], r6
	stw r5, sp[1]
	out res[r7], r4
	outct res[r7], 2
	ldaw r1, sp[1]
	mov r0, r7
	bl __interface_client_call
	in r0, res[r7]
	chkct res[r7], 1
	freer res[r7]
	ldd r7, r6, sp[2]               # 4-byte Folded Reload
	ldd r5, r4, sp[1]               # 4-byte Folded Reload
	retsp 6
	# RETURN_REG_HOLDER
	.cc_bottom _i.i2c_master_async_if._chan.get_read_data.function
	.set	_i.i2c_master_async_if._chan.get_read_data.nstackwords,((_i.i2c_master_async_if._client_call_y.max.nstackwords $M ($D __interface_wait_and_yield.nstackwords ? __interface_wait_and_yield.nstackwords $: _i.i2c_master_async_if._client_call_y.max.nstackwords) $M __interface_client_call.nstackwords) + 6)
	.globl	_i.i2c_master_async_if._chan.get_read_data.nstackwords
	.weak	_i.i2c_master_async_if._chan.get_read_data.nstackwords
	.set	_i.i2c_master_async_if._chan.get_read_data.maxcores,__interface_client_call.maxcores $M ($D __interface_wait_and_yield.maxcores ? __interface_wait_and_yield.maxcores $: _i.i2c_master_async_if._client_call_y.max.maxcores) $M 1
	.globl	_i.i2c_master_async_if._chan.get_read_data.maxcores
	.weak	_i.i2c_master_async_if._chan.get_read_data.maxcores
	.set	_i.i2c_master_async_if._chan.get_read_data.maxtimers,__interface_client_call.maxtimers $M ($D __interface_wait_and_yield.maxtimers ? __interface_wait_and_yield.maxtimers $: _i.i2c_master_async_if._client_call_y.max.maxtimers) $M 0
	.globl	_i.i2c_master_async_if._chan.get_read_data.maxtimers
	.weak	_i.i2c_master_async_if._chan.get_read_data.maxtimers
	.set	_i.i2c_master_async_if._chan.get_read_data.maxchanends,(1 + __interface_client_call.maxchanends) $M (1 + ($D __interface_wait_and_yield.maxchanends ? __interface_wait_and_yield.maxchanends $: _i.i2c_master_async_if._client_call_y.max.maxchanends)) $M 1
	.globl	_i.i2c_master_async_if._chan.get_read_data.maxchanends
	.weak	_i.i2c_master_async_if._chan.get_read_data.maxchanends
.Ltmp68:
	.size	_i.i2c_master_async_if._chan.get_read_data, .Ltmp68-_i.i2c_master_async_if._chan.get_read_data
	.cfi_endproc

	.weak	_i.i2c_master_async_if._chan.get_write_result
	.align	4
	.type	_i.i2c_master_async_if._chan.get_write_result,@function
	.cc_top _i.i2c_master_async_if._chan.get_write_result.function,_i.i2c_master_async_if._chan.get_write_result
_i.i2c_master_async_if._chan.get_write_result: # @_i.i2c_master_async_if._chan.get_write_result
	.cfi_startproc
	.issue_mode single
# BB#0:                                 # %allocas
	ENTSP_lu6 6
.Ltmp69:
	.cfi_def_cfa_offset 24
.Ltmp70:
	.cfi_offset 15, 0
	std r5, r4, sp[1]               # 4-byte Folded Spill
.Ltmp71:
	.cfi_offset 4, -16
.Ltmp72:
	.cfi_offset 5, -12
	stw r6, sp[4]                   # 4-byte Folded Spill
.Ltmp73:
	.cfi_offset 6, -8
	#DEBUG_VALUE: _i.i2c_master_async_if._chan.get_write_result:dest <- R0
	#DEBUG_VALUE: _i.i2c_master_async_if._chan.get_write_result:clientNotifyFlag <- R1
	#DEBUG_VALUE: _i.i2c_master_async_if._chan.get_write_result:param2 <- R2
	mov r4, r2
	#DEBUG_VALUE: _i.i2c_master_async_if._chan.get_write_result:param2 <- R4
	mov r5, r1
	#DEBUG_VALUE: _i.i2c_master_async_if._chan.get_write_result:clientNotifyFlag <- R5
	getr r6, 2
	setd res[r6], r0
	add r0, r6, 2
	out res[r6], r0
	outct res[r6], 2
	ldc r1, 0
	mov r0, r6
	bl __interface_wait_and_yield
	chkct res[r6], 1
	out res[r6], r5
	ldw r0, r4[0]
	out res[r6], r0
	outct res[r6], 2
	in r0, res[r6]
	in r0, res[r6]
	stw r0, r4[0]
	in r0, res[r6]
	chkct res[r6], 1
	freer res[r6]
	ldw r6, sp[4]                   # 4-byte Folded Reload
	ldd r5, r4, sp[1]               # 4-byte Folded Reload
	retsp 6
	# RETURN_REG_HOLDER
	.cc_bottom _i.i2c_master_async_if._chan.get_write_result.function
	.set	_i.i2c_master_async_if._chan.get_write_result.nstackwords,((_i.i2c_master_async_if._client_call_y.max.nstackwords $M ($D __interface_wait_and_yield.nstackwords ? __interface_wait_and_yield.nstackwords $: _i.i2c_master_async_if._client_call_y.max.nstackwords)) + 6)
	.globl	_i.i2c_master_async_if._chan.get_write_result.nstackwords
	.weak	_i.i2c_master_async_if._chan.get_write_result.nstackwords
	.set	_i.i2c_master_async_if._chan.get_write_result.maxcores,($D __interface_wait_and_yield.maxcores ? __interface_wait_and_yield.maxcores $: _i.i2c_master_async_if._client_call_y.max.maxcores) $M 1
	.globl	_i.i2c_master_async_if._chan.get_write_result.maxcores
	.weak	_i.i2c_master_async_if._chan.get_write_result.maxcores
	.set	_i.i2c_master_async_if._chan.get_write_result.maxtimers,($D __interface_wait_and_yield.maxtimers ? __interface_wait_and_yield.maxtimers $: _i.i2c_master_async_if._client_call_y.max.maxtimers) $M 0
	.globl	_i.i2c_master_async_if._chan.get_write_result.maxtimers
	.weak	_i.i2c_master_async_if._chan.get_write_result.maxtimers
	.set	_i.i2c_master_async_if._chan.get_write_result.maxchanends,(1 + ($D __interface_wait_and_yield.maxchanends ? __interface_wait_and_yield.maxchanends $: _i.i2c_master_async_if._client_call_y.max.maxchanends)) $M 1
	.globl	_i.i2c_master_async_if._chan.get_write_result.maxchanends
	.weak	_i.i2c_master_async_if._chan.get_write_result.maxchanends
.Ltmp74:
	.size	_i.i2c_master_async_if._chan.get_write_result, .Ltmp74-_i.i2c_master_async_if._chan.get_write_result
	.cfi_endproc

	.weak	_i.i2c_master_async_if._chan.read
	.align	4
	.type	_i.i2c_master_async_if._chan.read,@function
	.cc_top _i.i2c_master_async_if._chan.read.function,_i.i2c_master_async_if._chan.read
_i.i2c_master_async_if._chan.read:      # @_i.i2c_master_async_if._chan.read
	.cfi_startproc
	.issue_mode single
# BB#0:                                 # %allocas
	ENTSP_lu6 6
.Ltmp75:
	.cfi_def_cfa_offset 24
.Ltmp76:
	.cfi_offset 15, 0
	std r5, r4, sp[1]               # 4-byte Folded Spill
.Ltmp77:
	.cfi_offset 4, -16
.Ltmp78:
	.cfi_offset 5, -12
	std r7, r6, sp[2]               # 4-byte Folded Spill
.Ltmp79:
	.cfi_offset 6, -8
.Ltmp80:
	.cfi_offset 7, -4
	#DEBUG_VALUE: _i.i2c_master_async_if._chan.read:dest <- R0
	#DEBUG_VALUE: _i.i2c_master_async_if._chan.read:param1 <- R1
	#DEBUG_VALUE: _i.i2c_master_async_if._chan.read:param2 <- R2
	#DEBUG_VALUE: _i.i2c_master_async_if._chan.read:param3 <- R3
	mov r4, r3
	#DEBUG_VALUE: _i.i2c_master_async_if._chan.read:param3 <- R4
	mov r5, r2
	#DEBUG_VALUE: _i.i2c_master_async_if._chan.read:param2 <- R5
	mov r6, r1
	#DEBUG_VALUE: _i.i2c_master_async_if._chan.read:param1 <- R6
	getr r7, 2
	setd res[r7], r0
	add r0, r7, 1
	out res[r7], r0
	outct res[r7], 2
	ldc r1, 0
	mov r0, r7
	bl __interface_wait_and_yield
	chkct res[r7], 1
	outt res[r7], r6
	out res[r7], r5
	out res[r7], r4
	outct res[r7], 2
	in r0, res[r7]
	chkct res[r7], 1
	freer res[r7]
	ldd r7, r6, sp[2]               # 4-byte Folded Reload
	ldd r5, r4, sp[1]               # 4-byte Folded Reload
	retsp 6
	# RETURN_REG_HOLDER
	.cc_bottom _i.i2c_master_async_if._chan.read.function
	.set	_i.i2c_master_async_if._chan.read.nstackwords,((_i.i2c_master_async_if._client_call_y.max.nstackwords $M ($D __interface_wait_and_yield.nstackwords ? __interface_wait_and_yield.nstackwords $: _i.i2c_master_async_if._client_call_y.max.nstackwords)) + 6)
	.globl	_i.i2c_master_async_if._chan.read.nstackwords
	.weak	_i.i2c_master_async_if._chan.read.nstackwords
	.set	_i.i2c_master_async_if._chan.read.maxcores,($D __interface_wait_and_yield.maxcores ? __interface_wait_and_yield.maxcores $: _i.i2c_master_async_if._client_call_y.max.maxcores) $M 1
	.globl	_i.i2c_master_async_if._chan.read.maxcores
	.weak	_i.i2c_master_async_if._chan.read.maxcores
	.set	_i.i2c_master_async_if._chan.read.maxtimers,($D __interface_wait_and_yield.maxtimers ? __interface_wait_and_yield.maxtimers $: _i.i2c_master_async_if._client_call_y.max.maxtimers) $M 0
	.globl	_i.i2c_master_async_if._chan.read.maxtimers
	.weak	_i.i2c_master_async_if._chan.read.maxtimers
	.set	_i.i2c_master_async_if._chan.read.maxchanends,(1 + ($D __interface_wait_and_yield.maxchanends ? __interface_wait_and_yield.maxchanends $: _i.i2c_master_async_if._client_call_y.max.maxchanends)) $M 1
	.globl	_i.i2c_master_async_if._chan.read.maxchanends
	.weak	_i.i2c_master_async_if._chan.read.maxchanends
.Ltmp81:
	.size	_i.i2c_master_async_if._chan.read, .Ltmp81-_i.i2c_master_async_if._chan.read
	.cfi_endproc

	.weak	_i.i2c_master_async_if._chan.write
	.align	4
	.type	_i.i2c_master_async_if._chan.write,@function
	.cc_top _i.i2c_master_async_if._chan.write.function,_i.i2c_master_async_if._chan.write
_i.i2c_master_async_if._chan.write:     # @_i.i2c_master_async_if._chan.write
	.cfi_startproc
	.issue_mode single
# BB#0:                                 # %allocas
	ENTSP_lu6 8
.Ltmp82:
	.cfi_def_cfa_offset 32
.Ltmp83:
	.cfi_offset 15, 0
	std r5, r4, sp[1]               # 4-byte Folded Spill
.Ltmp84:
	.cfi_offset 4, -24
.Ltmp85:
	.cfi_offset 5, -20
	std r7, r6, sp[2]               # 4-byte Folded Spill
.Ltmp86:
	.cfi_offset 6, -16
.Ltmp87:
	.cfi_offset 7, -12
	stw r8, sp[6]                   # 4-byte Folded Spill
.Ltmp88:
	.cfi_offset 8, -8
	#DEBUG_VALUE: _i.i2c_master_async_if._chan.write:dest <- R0
	#DEBUG_VALUE: _i.i2c_master_async_if._chan.write:param1 <- R1
	#DEBUG_VALUE: _i.i2c_master_async_if._chan.write:param2 <- R2
	#DEBUG_VALUE: _i.i2c_master_async_if._chan.write:param3 <- R3
	#DEBUG_VALUE: _i.i2c_master_async_if._chan.write:param4 <- [SP+36]
	mov r4, r3
	#DEBUG_VALUE: _i.i2c_master_async_if._chan.write:param3 <- R4
	mov r5, r2
	#DEBUG_VALUE: _i.i2c_master_async_if._chan.write:param2 <- R5
	mov r6, r1
	#DEBUG_VALUE: _i.i2c_master_async_if._chan.write:param1 <- R6
	ldw r8, sp[9]
	getr r7, 2
	setd res[r7], r0
	out res[r7], r7
	outct res[r7], 2
	ldc r1, 0
	mov r0, r7
	bl __interface_wait_and_yield
	chkct res[r7], 1
	outt res[r7], r6
	stw r5, sp[1]
	out res[r7], r4
	out res[r7], r8
	outct res[r7], 2
	ldaw r1, sp[1]
	mov r0, r7
	bl __interface_client_call
	chkct res[r7], 1
	freer res[r7]
	ldw r8, sp[6]                   # 4-byte Folded Reload
	ldd r7, r6, sp[2]               # 4-byte Folded Reload
	ldd r5, r4, sp[1]               # 4-byte Folded Reload
	retsp 8
	# RETURN_REG_HOLDER
	.cc_bottom _i.i2c_master_async_if._chan.write.function
	.set	_i.i2c_master_async_if._chan.write.nstackwords,((_i.i2c_master_async_if._client_call_y.max.nstackwords $M ($D __interface_wait_and_yield.nstackwords ? __interface_wait_and_yield.nstackwords $: _i.i2c_master_async_if._client_call_y.max.nstackwords) $M __interface_client_call.nstackwords) + 8)
	.globl	_i.i2c_master_async_if._chan.write.nstackwords
	.weak	_i.i2c_master_async_if._chan.write.nstackwords
	.set	_i.i2c_master_async_if._chan.write.maxcores,__interface_client_call.maxcores $M ($D __interface_wait_and_yield.maxcores ? __interface_wait_and_yield.maxcores $: _i.i2c_master_async_if._client_call_y.max.maxcores) $M 1
	.globl	_i.i2c_master_async_if._chan.write.maxcores
	.weak	_i.i2c_master_async_if._chan.write.maxcores
	.set	_i.i2c_master_async_if._chan.write.maxtimers,__interface_client_call.maxtimers $M ($D __interface_wait_and_yield.maxtimers ? __interface_wait_and_yield.maxtimers $: _i.i2c_master_async_if._client_call_y.max.maxtimers) $M 0
	.globl	_i.i2c_master_async_if._chan.write.maxtimers
	.weak	_i.i2c_master_async_if._chan.write.maxtimers
	.set	_i.i2c_master_async_if._chan.write.maxchanends,(1 + __interface_client_call.maxchanends) $M (1 + ($D __interface_wait_and_yield.maxchanends ? __interface_wait_and_yield.maxchanends $: _i.i2c_master_async_if._client_call_y.max.maxchanends)) $M 1
	.globl	_i.i2c_master_async_if._chan.write.maxchanends
	.weak	_i.i2c_master_async_if._chan.write.maxchanends
.Ltmp89:
	.size	_i.i2c_master_async_if._chan.write, .Ltmp89-_i.i2c_master_async_if._chan.write
	.cfi_endproc

	.weak	_i.i2c_master_async_if._chan_yield.shutdown
	.align	4
	.type	_i.i2c_master_async_if._chan_yield.shutdown,@function
	.cc_top _i.i2c_master_async_if._chan_yield.shutdown.function,_i.i2c_master_async_if._chan_yield.shutdown
_i.i2c_master_async_if._chan_yield.shutdown: # @_i.i2c_master_async_if._chan_yield.shutdown
	.cfi_startproc
	.issue_mode single
# BB#0:                                 # %allocas
	ENTSP_lu6 4
.Ltmp90:
	.cfi_def_cfa_offset 16
.Ltmp91:
	.cfi_offset 15, 0
	std r5, r4, sp[1]               # 4-byte Folded Spill
.Ltmp92:
	.cfi_offset 4, -8
.Ltmp93:
	.cfi_offset 5, -4
	#DEBUG_VALUE: _i.i2c_master_async_if._chan_yield.shutdown:s <- R0
	ldw r1, r0[0]
	getr r4, 2
	setd res[r4], r1
	add r1, r4, 5
	out res[r4], r1
	outct res[r4], 2
	ldw r5, r0[1]
	mov r0, r4
	mov r1, r5
	bl __interface_wait_and_yield
	ldc r1, 0
	mov r0, r4
	mov r2, r5
	bl __interface_client_call_y
	chkct res[r4], 1
	freer res[r4]
	ldd r5, r4, sp[1]               # 4-byte Folded Reload
	retsp 4
	# RETURN_REG_HOLDER
	.cc_bottom _i.i2c_master_async_if._chan_yield.shutdown.function
	.set	_i.i2c_master_async_if._chan_yield.shutdown.nstackwords,((($D __interface_wait_and_yield.nstackwords ? __interface_wait_and_yield.nstackwords $: _i.i2c_master_async_if._client_call_y.max.nstackwords) $M _i.i2c_master_async_if._client_call_y.max.nstackwords $M ($D __interface_client_call_y.nstackwords ? __interface_client_call_y.nstackwords $: _i.i2c_master_async_if._client_call_y.max.nstackwords)) + 4)
	.globl	_i.i2c_master_async_if._chan_yield.shutdown.nstackwords
	.weak	_i.i2c_master_async_if._chan_yield.shutdown.nstackwords
	.set	_i.i2c_master_async_if._chan_yield.shutdown.maxcores,($D __interface_client_call_y.maxcores ? __interface_client_call_y.maxcores $: _i.i2c_master_async_if._client_call_y.max.maxcores) $M ($D __interface_wait_and_yield.maxcores ? __interface_wait_and_yield.maxcores $: _i.i2c_master_async_if._client_call_y.max.maxcores) $M 1
	.globl	_i.i2c_master_async_if._chan_yield.shutdown.maxcores
	.weak	_i.i2c_master_async_if._chan_yield.shutdown.maxcores
	.set	_i.i2c_master_async_if._chan_yield.shutdown.maxtimers,($D __interface_client_call_y.maxtimers ? __interface_client_call_y.maxtimers $: _i.i2c_master_async_if._client_call_y.max.maxtimers) $M ($D __interface_wait_and_yield.maxtimers ? __interface_wait_and_yield.maxtimers $: _i.i2c_master_async_if._client_call_y.max.maxtimers) $M 0
	.globl	_i.i2c_master_async_if._chan_yield.shutdown.maxtimers
	.weak	_i.i2c_master_async_if._chan_yield.shutdown.maxtimers
	.set	_i.i2c_master_async_if._chan_yield.shutdown.maxchanends,(1 + ($D __interface_client_call_y.maxchanends ? __interface_client_call_y.maxchanends $: _i.i2c_master_async_if._client_call_y.max.maxchanends)) $M (1 + ($D __interface_wait_and_yield.maxchanends ? __interface_wait_and_yield.maxchanends $: _i.i2c_master_async_if._client_call_y.max.maxchanends)) $M 1
	.globl	_i.i2c_master_async_if._chan_yield.shutdown.maxchanends
	.weak	_i.i2c_master_async_if._chan_yield.shutdown.maxchanends
.Ltmp94:
	.size	_i.i2c_master_async_if._chan_yield.shutdown, .Ltmp94-_i.i2c_master_async_if._chan_yield.shutdown
	.cfi_endproc

	.weak	_i.i2c_master_async_if._chan_yield.send_stop_bit
	.align	4
	.type	_i.i2c_master_async_if._chan_yield.send_stop_bit,@function
	.cc_top _i.i2c_master_async_if._chan_yield.send_stop_bit.function,_i.i2c_master_async_if._chan_yield.send_stop_bit
_i.i2c_master_async_if._chan_yield.send_stop_bit: # @_i.i2c_master_async_if._chan_yield.send_stop_bit
	.cfi_startproc
	.issue_mode single
# BB#0:                                 # %allocas
	ENTSP_lu6 4
.Ltmp95:
	.cfi_def_cfa_offset 16
.Ltmp96:
	.cfi_offset 15, 0
	std r5, r4, sp[1]               # 4-byte Folded Spill
.Ltmp97:
	.cfi_offset 4, -8
.Ltmp98:
	.cfi_offset 5, -4
	#DEBUG_VALUE: _i.i2c_master_async_if._chan_yield.send_stop_bit:s <- R0
	ldw r1, r0[0]
	getr r4, 2
	setd res[r4], r1
	add r1, r4, 4
	out res[r4], r1
	outct res[r4], 2
	ldw r5, r0[1]
	mov r0, r4
	mov r1, r5
	bl __interface_wait_and_yield
	ldc r1, 0
	mov r0, r4
	mov r2, r5
	bl __interface_client_call_y
	chkct res[r4], 1
	freer res[r4]
	ldd r5, r4, sp[1]               # 4-byte Folded Reload
	retsp 4
	# RETURN_REG_HOLDER
	.cc_bottom _i.i2c_master_async_if._chan_yield.send_stop_bit.function
	.set	_i.i2c_master_async_if._chan_yield.send_stop_bit.nstackwords,((($D __interface_wait_and_yield.nstackwords ? __interface_wait_and_yield.nstackwords $: _i.i2c_master_async_if._client_call_y.max.nstackwords) $M _i.i2c_master_async_if._client_call_y.max.nstackwords $M ($D __interface_client_call_y.nstackwords ? __interface_client_call_y.nstackwords $: _i.i2c_master_async_if._client_call_y.max.nstackwords)) + 4)
	.globl	_i.i2c_master_async_if._chan_yield.send_stop_bit.nstackwords
	.weak	_i.i2c_master_async_if._chan_yield.send_stop_bit.nstackwords
	.set	_i.i2c_master_async_if._chan_yield.send_stop_bit.maxcores,($D __interface_client_call_y.maxcores ? __interface_client_call_y.maxcores $: _i.i2c_master_async_if._client_call_y.max.maxcores) $M ($D __interface_wait_and_yield.maxcores ? __interface_wait_and_yield.maxcores $: _i.i2c_master_async_if._client_call_y.max.maxcores) $M 1
	.globl	_i.i2c_master_async_if._chan_yield.send_stop_bit.maxcores
	.weak	_i.i2c_master_async_if._chan_yield.send_stop_bit.maxcores
	.set	_i.i2c_master_async_if._chan_yield.send_stop_bit.maxtimers,($D __interface_client_call_y.maxtimers ? __interface_client_call_y.maxtimers $: _i.i2c_master_async_if._client_call_y.max.maxtimers) $M ($D __interface_wait_and_yield.maxtimers ? __interface_wait_and_yield.maxtimers $: _i.i2c_master_async_if._client_call_y.max.maxtimers) $M 0
	.globl	_i.i2c_master_async_if._chan_yield.send_stop_bit.maxtimers
	.weak	_i.i2c_master_async_if._chan_yield.send_stop_bit.maxtimers
	.set	_i.i2c_master_async_if._chan_yield.send_stop_bit.maxchanends,(1 + ($D __interface_client_call_y.maxchanends ? __interface_client_call_y.maxchanends $: _i.i2c_master_async_if._client_call_y.max.maxchanends)) $M (1 + ($D __interface_wait_and_yield.maxchanends ? __interface_wait_and_yield.maxchanends $: _i.i2c_master_async_if._client_call_y.max.maxchanends)) $M 1
	.globl	_i.i2c_master_async_if._chan_yield.send_stop_bit.maxchanends
	.weak	_i.i2c_master_async_if._chan_yield.send_stop_bit.maxchanends
.Ltmp99:
	.size	_i.i2c_master_async_if._chan_yield.send_stop_bit, .Ltmp99-_i.i2c_master_async_if._chan_yield.send_stop_bit
	.cfi_endproc

	.weak	_i.i2c_master_async_if._chan_yield.get_read_data
	.align	4
	.type	_i.i2c_master_async_if._chan_yield.get_read_data,@function
	.cc_top _i.i2c_master_async_if._chan_yield.get_read_data.function,_i.i2c_master_async_if._chan_yield.get_read_data
_i.i2c_master_async_if._chan_yield.get_read_data: # @_i.i2c_master_async_if._chan_yield.get_read_data
	.cfi_startproc
	.issue_mode single
# BB#0:                                 # %allocas
	ENTSP_lu6 8
.Ltmp100:
	.cfi_def_cfa_offset 32
.Ltmp101:
	.cfi_offset 15, 0
	std r5, r4, sp[1]               # 4-byte Folded Spill
.Ltmp102:
	.cfi_offset 4, -24
.Ltmp103:
	.cfi_offset 5, -20
	std r7, r6, sp[2]               # 4-byte Folded Spill
.Ltmp104:
	.cfi_offset 6, -16
.Ltmp105:
	.cfi_offset 7, -12
	stw r8, sp[6]                   # 4-byte Folded Spill
.Ltmp106:
	.cfi_offset 8, -8
	#DEBUG_VALUE: _i.i2c_master_async_if._chan_yield.get_read_data:s <- R0
	#DEBUG_VALUE: _i.i2c_master_async_if._chan_yield.get_read_data:clientNotifyFlag <- R1
	#DEBUG_VALUE: _i.i2c_master_async_if._chan_yield.get_read_data:param2 <- R2
	#DEBUG_VALUE: _i.i2c_master_async_if._chan_yield.get_read_data:param3 <- R3
	mov r5, r3
	#DEBUG_VALUE: _i.i2c_master_async_if._chan_yield.get_read_data:param3 <- R5
	mov r6, r2
	#DEBUG_VALUE: _i.i2c_master_async_if._chan_yield.get_read_data:param2 <- R6
	mov r7, r1
	#DEBUG_VALUE: _i.i2c_master_async_if._chan_yield.get_read_data:clientNotifyFlag <- R7
	ldw r1, r0[0]
	getr r4, 2
	setd res[r4], r1
	add r1, r4, 3
	out res[r4], r1
	outct res[r4], 2
	ldw r8, r0[1]
	mov r0, r4
	mov r1, r8
	bl __interface_wait_and_yield
	chkct res[r4], 1
	out res[r4], r7
	stw r6, sp[1]
	out res[r4], r5
	outct res[r4], 2
	ldaw r1, sp[1]
	mov r0, r4
	mov r2, r8
	bl __interface_client_call_y
	in r0, res[r4]
	chkct res[r4], 1
	freer res[r4]
	ldw r8, sp[6]                   # 4-byte Folded Reload
	ldd r7, r6, sp[2]               # 4-byte Folded Reload
	ldd r5, r4, sp[1]               # 4-byte Folded Reload
	retsp 8
	# RETURN_REG_HOLDER
	.cc_bottom _i.i2c_master_async_if._chan_yield.get_read_data.function
	.set	_i.i2c_master_async_if._chan_yield.get_read_data.nstackwords,((($D __interface_wait_and_yield.nstackwords ? __interface_wait_and_yield.nstackwords $: _i.i2c_master_async_if._client_call_y.max.nstackwords) $M _i.i2c_master_async_if._client_call_y.max.nstackwords $M ($D __interface_client_call_y.nstackwords ? __interface_client_call_y.nstackwords $: _i.i2c_master_async_if._client_call_y.max.nstackwords)) + 8)
	.globl	_i.i2c_master_async_if._chan_yield.get_read_data.nstackwords
	.weak	_i.i2c_master_async_if._chan_yield.get_read_data.nstackwords
	.set	_i.i2c_master_async_if._chan_yield.get_read_data.maxcores,($D __interface_client_call_y.maxcores ? __interface_client_call_y.maxcores $: _i.i2c_master_async_if._client_call_y.max.maxcores) $M ($D __interface_wait_and_yield.maxcores ? __interface_wait_and_yield.maxcores $: _i.i2c_master_async_if._client_call_y.max.maxcores) $M 1
	.globl	_i.i2c_master_async_if._chan_yield.get_read_data.maxcores
	.weak	_i.i2c_master_async_if._chan_yield.get_read_data.maxcores
	.set	_i.i2c_master_async_if._chan_yield.get_read_data.maxtimers,($D __interface_client_call_y.maxtimers ? __interface_client_call_y.maxtimers $: _i.i2c_master_async_if._client_call_y.max.maxtimers) $M ($D __interface_wait_and_yield.maxtimers ? __interface_wait_and_yield.maxtimers $: _i.i2c_master_async_if._client_call_y.max.maxtimers) $M 0
	.globl	_i.i2c_master_async_if._chan_yield.get_read_data.maxtimers
	.weak	_i.i2c_master_async_if._chan_yield.get_read_data.maxtimers
	.set	_i.i2c_master_async_if._chan_yield.get_read_data.maxchanends,(1 + ($D __interface_client_call_y.maxchanends ? __interface_client_call_y.maxchanends $: _i.i2c_master_async_if._client_call_y.max.maxchanends)) $M (1 + ($D __interface_wait_and_yield.maxchanends ? __interface_wait_and_yield.maxchanends $: _i.i2c_master_async_if._client_call_y.max.maxchanends)) $M 1
	.globl	_i.i2c_master_async_if._chan_yield.get_read_data.maxchanends
	.weak	_i.i2c_master_async_if._chan_yield.get_read_data.maxchanends
.Ltmp107:
	.size	_i.i2c_master_async_if._chan_yield.get_read_data, .Ltmp107-_i.i2c_master_async_if._chan_yield.get_read_data
	.cfi_endproc

	.weak	_i.i2c_master_async_if._chan_yield.get_write_result
	.align	4
	.type	_i.i2c_master_async_if._chan_yield.get_write_result,@function
	.cc_top _i.i2c_master_async_if._chan_yield.get_write_result.function,_i.i2c_master_async_if._chan_yield.get_write_result
_i.i2c_master_async_if._chan_yield.get_write_result: # @_i.i2c_master_async_if._chan_yield.get_write_result
	.cfi_startproc
	.issue_mode single
# BB#0:                                 # %allocas
	ENTSP_lu6 6
.Ltmp108:
	.cfi_def_cfa_offset 24
.Ltmp109:
	.cfi_offset 15, 0
	std r5, r4, sp[1]               # 4-byte Folded Spill
.Ltmp110:
	.cfi_offset 4, -16
.Ltmp111:
	.cfi_offset 5, -12
	std r7, r6, sp[2]               # 4-byte Folded Spill
.Ltmp112:
	.cfi_offset 6, -8
.Ltmp113:
	.cfi_offset 7, -4
	#DEBUG_VALUE: _i.i2c_master_async_if._chan_yield.get_write_result:s <- R0
	#DEBUG_VALUE: _i.i2c_master_async_if._chan_yield.get_write_result:clientNotifyFlag <- R1
	#DEBUG_VALUE: _i.i2c_master_async_if._chan_yield.get_write_result:param2 <- R2
	mov r4, r2
	#DEBUG_VALUE: _i.i2c_master_async_if._chan_yield.get_write_result:param2 <- R4
	mov r6, r1
	#DEBUG_VALUE: _i.i2c_master_async_if._chan_yield.get_write_result:clientNotifyFlag <- R6
	ldw r1, r0[0]
	getr r5, 2
	setd res[r5], r1
	add r1, r5, 2
	out res[r5], r1
	outct res[r5], 2
	ldw r7, r0[1]
	mov r0, r5
	mov r1, r7
	bl __interface_wait_and_yield
	chkct res[r5], 1
	out res[r5], r6
	ldw r0, r4[0]
	out res[r5], r0
	outct res[r5], 2
	ldc r1, 0
	mov r0, r5
	mov r2, r7
	bl __interface_client_call_y
	in r0, res[r5]
	stw r0, r4[0]
	in r0, res[r5]
	chkct res[r5], 1
	freer res[r5]
	ldd r7, r6, sp[2]               # 4-byte Folded Reload
	ldd r5, r4, sp[1]               # 4-byte Folded Reload
	retsp 6
	# RETURN_REG_HOLDER
	.cc_bottom _i.i2c_master_async_if._chan_yield.get_write_result.function
	.set	_i.i2c_master_async_if._chan_yield.get_write_result.nstackwords,((($D __interface_wait_and_yield.nstackwords ? __interface_wait_and_yield.nstackwords $: _i.i2c_master_async_if._client_call_y.max.nstackwords) $M _i.i2c_master_async_if._client_call_y.max.nstackwords $M ($D __interface_client_call_y.nstackwords ? __interface_client_call_y.nstackwords $: _i.i2c_master_async_if._client_call_y.max.nstackwords)) + 6)
	.globl	_i.i2c_master_async_if._chan_yield.get_write_result.nstackwords
	.weak	_i.i2c_master_async_if._chan_yield.get_write_result.nstackwords
	.set	_i.i2c_master_async_if._chan_yield.get_write_result.maxcores,($D __interface_client_call_y.maxcores ? __interface_client_call_y.maxcores $: _i.i2c_master_async_if._client_call_y.max.maxcores) $M ($D __interface_wait_and_yield.maxcores ? __interface_wait_and_yield.maxcores $: _i.i2c_master_async_if._client_call_y.max.maxcores) $M 1
	.globl	_i.i2c_master_async_if._chan_yield.get_write_result.maxcores
	.weak	_i.i2c_master_async_if._chan_yield.get_write_result.maxcores
	.set	_i.i2c_master_async_if._chan_yield.get_write_result.maxtimers,($D __interface_client_call_y.maxtimers ? __interface_client_call_y.maxtimers $: _i.i2c_master_async_if._client_call_y.max.maxtimers) $M ($D __interface_wait_and_yield.maxtimers ? __interface_wait_and_yield.maxtimers $: _i.i2c_master_async_if._client_call_y.max.maxtimers) $M 0
	.globl	_i.i2c_master_async_if._chan_yield.get_write_result.maxtimers
	.weak	_i.i2c_master_async_if._chan_yield.get_write_result.maxtimers
	.set	_i.i2c_master_async_if._chan_yield.get_write_result.maxchanends,(1 + ($D __interface_client_call_y.maxchanends ? __interface_client_call_y.maxchanends $: _i.i2c_master_async_if._client_call_y.max.maxchanends)) $M (1 + ($D __interface_wait_and_yield.maxchanends ? __interface_wait_and_yield.maxchanends $: _i.i2c_master_async_if._client_call_y.max.maxchanends)) $M 1
	.globl	_i.i2c_master_async_if._chan_yield.get_write_result.maxchanends
	.weak	_i.i2c_master_async_if._chan_yield.get_write_result.maxchanends
.Ltmp114:
	.size	_i.i2c_master_async_if._chan_yield.get_write_result, .Ltmp114-_i.i2c_master_async_if._chan_yield.get_write_result
	.cfi_endproc

	.weak	_i.i2c_master_async_if._chan_yield.read
	.align	4
	.type	_i.i2c_master_async_if._chan_yield.read,@function
	.cc_top _i.i2c_master_async_if._chan_yield.read.function,_i.i2c_master_async_if._chan_yield.read
_i.i2c_master_async_if._chan_yield.read: # @_i.i2c_master_async_if._chan_yield.read
	.cfi_startproc
	.issue_mode single
# BB#0:                                 # %allocas
	ENTSP_lu6 8
.Ltmp115:
	.cfi_def_cfa_offset 32
.Ltmp116:
	.cfi_offset 15, 0
	std r5, r4, sp[1]               # 4-byte Folded Spill
.Ltmp117:
	.cfi_offset 4, -24
.Ltmp118:
	.cfi_offset 5, -20
	std r7, r6, sp[2]               # 4-byte Folded Spill
.Ltmp119:
	.cfi_offset 6, -16
.Ltmp120:
	.cfi_offset 7, -12
	stw r8, sp[6]                   # 4-byte Folded Spill
.Ltmp121:
	.cfi_offset 8, -8
	#DEBUG_VALUE: _i.i2c_master_async_if._chan_yield.read:s <- R0
	#DEBUG_VALUE: _i.i2c_master_async_if._chan_yield.read:param1 <- R1
	#DEBUG_VALUE: _i.i2c_master_async_if._chan_yield.read:param2 <- R2
	#DEBUG_VALUE: _i.i2c_master_async_if._chan_yield.read:param3 <- R3
	mov r4, r3
	#DEBUG_VALUE: _i.i2c_master_async_if._chan_yield.read:param3 <- R4
	mov r5, r2
	#DEBUG_VALUE: _i.i2c_master_async_if._chan_yield.read:param2 <- R5
	mov r6, r1
	#DEBUG_VALUE: _i.i2c_master_async_if._chan_yield.read:param1 <- R6
	ldw r1, r0[0]
	getr r7, 2
	setd res[r7], r1
	add r1, r7, 1
	out res[r7], r1
	outct res[r7], 2
	ldw r8, r0[1]
	mov r0, r7
	mov r1, r8
	bl __interface_wait_and_yield
	chkct res[r7], 1
	outt res[r7], r6
	out res[r7], r5
	out res[r7], r4
	outct res[r7], 2
	ldc r1, 0
	mov r0, r7
	mov r2, r8
	bl __interface_client_call_y
	chkct res[r7], 1
	freer res[r7]
	ldw r8, sp[6]                   # 4-byte Folded Reload
	ldd r7, r6, sp[2]               # 4-byte Folded Reload
	ldd r5, r4, sp[1]               # 4-byte Folded Reload
	retsp 8
	# RETURN_REG_HOLDER
	.cc_bottom _i.i2c_master_async_if._chan_yield.read.function
	.set	_i.i2c_master_async_if._chan_yield.read.nstackwords,((($D __interface_wait_and_yield.nstackwords ? __interface_wait_and_yield.nstackwords $: _i.i2c_master_async_if._client_call_y.max.nstackwords) $M _i.i2c_master_async_if._client_call_y.max.nstackwords $M ($D __interface_client_call_y.nstackwords ? __interface_client_call_y.nstackwords $: _i.i2c_master_async_if._client_call_y.max.nstackwords)) + 8)
	.globl	_i.i2c_master_async_if._chan_yield.read.nstackwords
	.weak	_i.i2c_master_async_if._chan_yield.read.nstackwords
	.set	_i.i2c_master_async_if._chan_yield.read.maxcores,($D __interface_client_call_y.maxcores ? __interface_client_call_y.maxcores $: _i.i2c_master_async_if._client_call_y.max.maxcores) $M ($D __interface_wait_and_yield.maxcores ? __interface_wait_and_yield.maxcores $: _i.i2c_master_async_if._client_call_y.max.maxcores) $M 1
	.globl	_i.i2c_master_async_if._chan_yield.read.maxcores
	.weak	_i.i2c_master_async_if._chan_yield.read.maxcores
	.set	_i.i2c_master_async_if._chan_yield.read.maxtimers,($D __interface_client_call_y.maxtimers ? __interface_client_call_y.maxtimers $: _i.i2c_master_async_if._client_call_y.max.maxtimers) $M ($D __interface_wait_and_yield.maxtimers ? __interface_wait_and_yield.maxtimers $: _i.i2c_master_async_if._client_call_y.max.maxtimers) $M 0
	.globl	_i.i2c_master_async_if._chan_yield.read.maxtimers
	.weak	_i.i2c_master_async_if._chan_yield.read.maxtimers
	.set	_i.i2c_master_async_if._chan_yield.read.maxchanends,(1 + ($D __interface_client_call_y.maxchanends ? __interface_client_call_y.maxchanends $: _i.i2c_master_async_if._client_call_y.max.maxchanends)) $M (1 + ($D __interface_wait_and_yield.maxchanends ? __interface_wait_and_yield.maxchanends $: _i.i2c_master_async_if._client_call_y.max.maxchanends)) $M 1
	.globl	_i.i2c_master_async_if._chan_yield.read.maxchanends
	.weak	_i.i2c_master_async_if._chan_yield.read.maxchanends
.Ltmp122:
	.size	_i.i2c_master_async_if._chan_yield.read, .Ltmp122-_i.i2c_master_async_if._chan_yield.read
	.cfi_endproc

	.weak	_i.i2c_master_async_if._chan_yield.write
	.align	4
	.type	_i.i2c_master_async_if._chan_yield.write,@function
	.cc_top _i.i2c_master_async_if._chan_yield.write.function,_i.i2c_master_async_if._chan_yield.write
_i.i2c_master_async_if._chan_yield.write: # @_i.i2c_master_async_if._chan_yield.write
	.cfi_startproc
	.issue_mode single
# BB#0:                                 # %allocas
	ENTSP_lu6 8
.Ltmp123:
	.cfi_def_cfa_offset 32
.Ltmp124:
	.cfi_offset 15, 0
	std r5, r4, sp[1]               # 4-byte Folded Spill
.Ltmp125:
	.cfi_offset 4, -24
.Ltmp126:
	.cfi_offset 5, -20
	std r7, r6, sp[2]               # 4-byte Folded Spill
.Ltmp127:
	.cfi_offset 6, -16
.Ltmp128:
	.cfi_offset 7, -12
	std r9, r8, sp[3]               # 4-byte Folded Spill
.Ltmp129:
	.cfi_offset 8, -8
.Ltmp130:
	.cfi_offset 9, -4
	#DEBUG_VALUE: _i.i2c_master_async_if._chan_yield.write:s <- R0
	#DEBUG_VALUE: _i.i2c_master_async_if._chan_yield.write:param1 <- R1
	#DEBUG_VALUE: _i.i2c_master_async_if._chan_yield.write:param2 <- R2
	#DEBUG_VALUE: _i.i2c_master_async_if._chan_yield.write:param3 <- R3
	#DEBUG_VALUE: _i.i2c_master_async_if._chan_yield.write:param4 <- [SP+36]
	mov r4, r3
	#DEBUG_VALUE: _i.i2c_master_async_if._chan_yield.write:param3 <- R4
	mov r5, r2
	#DEBUG_VALUE: _i.i2c_master_async_if._chan_yield.write:param2 <- R5
	mov r6, r1
	#DEBUG_VALUE: _i.i2c_master_async_if._chan_yield.write:param1 <- R6
	ldw r9, sp[9]
	ldw r1, r0[0]
	getr r7, 2
	setd res[r7], r1
	out res[r7], r7
	outct res[r7], 2
	ldw r8, r0[1]
	mov r0, r7
	mov r1, r8
	bl __interface_wait_and_yield
	chkct res[r7], 1
	outt res[r7], r6
	stw r5, sp[1]
	out res[r7], r4
	out res[r7], r9
	outct res[r7], 2
	ldaw r1, sp[1]
	mov r0, r7
	mov r2, r8
	bl __interface_client_call_y
	chkct res[r7], 1
	freer res[r7]
	ldd r9, r8, sp[3]               # 4-byte Folded Reload
	ldd r7, r6, sp[2]               # 4-byte Folded Reload
	ldd r5, r4, sp[1]               # 4-byte Folded Reload
	retsp 8
	# RETURN_REG_HOLDER
	.cc_bottom _i.i2c_master_async_if._chan_yield.write.function
	.set	_i.i2c_master_async_if._chan_yield.write.nstackwords,((($D __interface_wait_and_yield.nstackwords ? __interface_wait_and_yield.nstackwords $: _i.i2c_master_async_if._client_call_y.max.nstackwords) $M _i.i2c_master_async_if._client_call_y.max.nstackwords $M ($D __interface_client_call_y.nstackwords ? __interface_client_call_y.nstackwords $: _i.i2c_master_async_if._client_call_y.max.nstackwords)) + 8)
	.globl	_i.i2c_master_async_if._chan_yield.write.nstackwords
	.weak	_i.i2c_master_async_if._chan_yield.write.nstackwords
	.set	_i.i2c_master_async_if._chan_yield.write.maxcores,($D __interface_client_call_y.maxcores ? __interface_client_call_y.maxcores $: _i.i2c_master_async_if._client_call_y.max.maxcores) $M ($D __interface_wait_and_yield.maxcores ? __interface_wait_and_yield.maxcores $: _i.i2c_master_async_if._client_call_y.max.maxcores) $M 1
	.globl	_i.i2c_master_async_if._chan_yield.write.maxcores
	.weak	_i.i2c_master_async_if._chan_yield.write.maxcores
	.set	_i.i2c_master_async_if._chan_yield.write.maxtimers,($D __interface_client_call_y.maxtimers ? __interface_client_call_y.maxtimers $: _i.i2c_master_async_if._client_call_y.max.maxtimers) $M ($D __interface_wait_and_yield.maxtimers ? __interface_wait_and_yield.maxtimers $: _i.i2c_master_async_if._client_call_y.max.maxtimers) $M 0
	.globl	_i.i2c_master_async_if._chan_yield.write.maxtimers
	.weak	_i.i2c_master_async_if._chan_yield.write.maxtimers
	.set	_i.i2c_master_async_if._chan_yield.write.maxchanends,(1 + ($D __interface_client_call_y.maxchanends ? __interface_client_call_y.maxchanends $: _i.i2c_master_async_if._client_call_y.max.maxchanends)) $M (1 + ($D __interface_wait_and_yield.maxchanends ? __interface_wait_and_yield.maxchanends $: _i.i2c_master_async_if._client_call_y.max.maxchanends)) $M 1
	.globl	_i.i2c_master_async_if._chan_yield.write.maxchanends
	.weak	_i.i2c_master_async_if._chan_yield.write.maxchanends
.Ltmp131:
	.size	_i.i2c_master_async_if._chan_yield.write, .Ltmp131-_i.i2c_master_async_if._chan_yield.write
	.cfi_endproc

	.weak	_i.i2c_slave_callback_if._chan.stop_bit
	.align	4
	.type	_i.i2c_slave_callback_if._chan.stop_bit,@function
	.cc_top _i.i2c_slave_callback_if._chan.stop_bit.function,_i.i2c_slave_callback_if._chan.stop_bit
_i.i2c_slave_callback_if._chan.stop_bit: # @_i.i2c_slave_callback_if._chan.stop_bit
	.cfi_startproc
	.issue_mode single
# BB#0:                                 # %allocas
	ENTSP_lu6 4
.Ltmp132:
	.cfi_def_cfa_offset 16
.Ltmp133:
	.cfi_offset 15, 0
	stw r4, sp[2]                   # 4-byte Folded Spill
.Ltmp134:
	.cfi_offset 4, -8
	#DEBUG_VALUE: _i.i2c_slave_callback_if._chan.stop_bit:dest <- R0
	getr r4, 2
	setd res[r4], r0
	add r0, r4, 8
	out res[r4], r0
	outct res[r4], 2
	ldc r1, 0
	mov r0, r4
	bl __interface_wait_and_yield
	in r0, res[r4]
	chkct res[r4], 1
	freer res[r4]
	ldw r4, sp[2]                   # 4-byte Folded Reload
	retsp 4
	# RETURN_REG_HOLDER
	.cc_bottom _i.i2c_slave_callback_if._chan.stop_bit.function
	.set	_i.i2c_slave_callback_if._chan.stop_bit.nstackwords,((_i.i2c_slave_callback_if._client_call_y.max.nstackwords $M ($D __interface_wait_and_yield.nstackwords ? __interface_wait_and_yield.nstackwords $: _i.i2c_slave_callback_if._client_call_y.max.nstackwords)) + 4)
	.globl	_i.i2c_slave_callback_if._chan.stop_bit.nstackwords
	.weak	_i.i2c_slave_callback_if._chan.stop_bit.nstackwords
	.set	_i.i2c_slave_callback_if._chan.stop_bit.maxcores,($D __interface_wait_and_yield.maxcores ? __interface_wait_and_yield.maxcores $: _i.i2c_slave_callback_if._client_call_y.max.maxcores) $M 1
	.globl	_i.i2c_slave_callback_if._chan.stop_bit.maxcores
	.weak	_i.i2c_slave_callback_if._chan.stop_bit.maxcores
	.set	_i.i2c_slave_callback_if._chan.stop_bit.maxtimers,($D __interface_wait_and_yield.maxtimers ? __interface_wait_and_yield.maxtimers $: _i.i2c_slave_callback_if._client_call_y.max.maxtimers) $M 0
	.globl	_i.i2c_slave_callback_if._chan.stop_bit.maxtimers
	.weak	_i.i2c_slave_callback_if._chan.stop_bit.maxtimers
	.set	_i.i2c_slave_callback_if._chan.stop_bit.maxchanends,(1 + ($D __interface_wait_and_yield.maxchanends ? __interface_wait_and_yield.maxchanends $: _i.i2c_slave_callback_if._client_call_y.max.maxchanends)) $M 1
	.globl	_i.i2c_slave_callback_if._chan.stop_bit.maxchanends
	.weak	_i.i2c_slave_callback_if._chan.stop_bit.maxchanends
.Ltmp135:
	.size	_i.i2c_slave_callback_if._chan.stop_bit, .Ltmp135-_i.i2c_slave_callback_if._chan.stop_bit
	.cfi_endproc

	.weak	_i.i2c_slave_callback_if._chan.master_sent_data
	.align	4
	.type	_i.i2c_slave_callback_if._chan.master_sent_data,@function
	.cc_top _i.i2c_slave_callback_if._chan.master_sent_data.function,_i.i2c_slave_callback_if._chan.master_sent_data
_i.i2c_slave_callback_if._chan.master_sent_data: # @_i.i2c_slave_callback_if._chan.master_sent_data
	.cfi_startproc
	.issue_mode single
# BB#0:                                 # %allocas
	ENTSP_lu6 4
.Ltmp136:
	.cfi_def_cfa_offset 16
.Ltmp137:
	.cfi_offset 15, 0
	std r5, r4, sp[1]               # 4-byte Folded Spill
.Ltmp138:
	.cfi_offset 4, -8
.Ltmp139:
	.cfi_offset 5, -4
	#DEBUG_VALUE: _i.i2c_slave_callback_if._chan.master_sent_data:dest <- R0
	#DEBUG_VALUE: _i.i2c_slave_callback_if._chan.master_sent_data:param1 <- R1
	mov r4, r1
	#DEBUG_VALUE: _i.i2c_slave_callback_if._chan.master_sent_data:param1 <- R4
	getr r5, 2
	setd res[r5], r0
	add r0, r5, 7
	out res[r5], r0
	outct res[r5], 2
	ldc r1, 0
	mov r0, r5
	bl __interface_wait_and_yield
	chkct res[r5], 1
	outt res[r5], r4
	outct res[r5], 2
	in r0, res[r5]
	in r0, res[r5]
	chkct res[r5], 1
	freer res[r5]
	ldd r5, r4, sp[1]               # 4-byte Folded Reload
	retsp 4
	# RETURN_REG_HOLDER
	.cc_bottom _i.i2c_slave_callback_if._chan.master_sent_data.function
	.set	_i.i2c_slave_callback_if._chan.master_sent_data.nstackwords,((_i.i2c_slave_callback_if._client_call_y.max.nstackwords $M ($D __interface_wait_and_yield.nstackwords ? __interface_wait_and_yield.nstackwords $: _i.i2c_slave_callback_if._client_call_y.max.nstackwords)) + 4)
	.globl	_i.i2c_slave_callback_if._chan.master_sent_data.nstackwords
	.weak	_i.i2c_slave_callback_if._chan.master_sent_data.nstackwords
	.set	_i.i2c_slave_callback_if._chan.master_sent_data.maxcores,($D __interface_wait_and_yield.maxcores ? __interface_wait_and_yield.maxcores $: _i.i2c_slave_callback_if._client_call_y.max.maxcores) $M 1
	.globl	_i.i2c_slave_callback_if._chan.master_sent_data.maxcores
	.weak	_i.i2c_slave_callback_if._chan.master_sent_data.maxcores
	.set	_i.i2c_slave_callback_if._chan.master_sent_data.maxtimers,($D __interface_wait_and_yield.maxtimers ? __interface_wait_and_yield.maxtimers $: _i.i2c_slave_callback_if._client_call_y.max.maxtimers) $M 0
	.globl	_i.i2c_slave_callback_if._chan.master_sent_data.maxtimers
	.weak	_i.i2c_slave_callback_if._chan.master_sent_data.maxtimers
	.set	_i.i2c_slave_callback_if._chan.master_sent_data.maxchanends,(1 + ($D __interface_wait_and_yield.maxchanends ? __interface_wait_and_yield.maxchanends $: _i.i2c_slave_callback_if._client_call_y.max.maxchanends)) $M 1
	.globl	_i.i2c_slave_callback_if._chan.master_sent_data.maxchanends
	.weak	_i.i2c_slave_callback_if._chan.master_sent_data.maxchanends
.Ltmp140:
	.size	_i.i2c_slave_callback_if._chan.master_sent_data, .Ltmp140-_i.i2c_slave_callback_if._chan.master_sent_data
	.cfi_endproc

	.weak	_i.i2c_slave_callback_if._chan.start_master_write
	.align	4
	.type	_i.i2c_slave_callback_if._chan.start_master_write,@function
	.cc_top _i.i2c_slave_callback_if._chan.start_master_write.function,_i.i2c_slave_callback_if._chan.start_master_write
_i.i2c_slave_callback_if._chan.start_master_write: # @_i.i2c_slave_callback_if._chan.start_master_write
	.cfi_startproc
	.issue_mode single
# BB#0:                                 # %allocas
	ENTSP_lu6 4
.Ltmp141:
	.cfi_def_cfa_offset 16
.Ltmp142:
	.cfi_offset 15, 0
	stw r4, sp[2]                   # 4-byte Folded Spill
.Ltmp143:
	.cfi_offset 4, -8
	#DEBUG_VALUE: _i.i2c_slave_callback_if._chan.start_master_write:dest <- R0
	getr r4, 2
	setd res[r4], r0
	add r0, r4, 6
	out res[r4], r0
	outct res[r4], 2
	ldc r1, 0
	mov r0, r4
	bl __interface_wait_and_yield
	in r0, res[r4]
	chkct res[r4], 1
	freer res[r4]
	ldw r4, sp[2]                   # 4-byte Folded Reload
	retsp 4
	# RETURN_REG_HOLDER
	.cc_bottom _i.i2c_slave_callback_if._chan.start_master_write.function
	.set	_i.i2c_slave_callback_if._chan.start_master_write.nstackwords,((_i.i2c_slave_callback_if._client_call_y.max.nstackwords $M ($D __interface_wait_and_yield.nstackwords ? __interface_wait_and_yield.nstackwords $: _i.i2c_slave_callback_if._client_call_y.max.nstackwords)) + 4)
	.globl	_i.i2c_slave_callback_if._chan.start_master_write.nstackwords
	.weak	_i.i2c_slave_callback_if._chan.start_master_write.nstackwords
	.set	_i.i2c_slave_callback_if._chan.start_master_write.maxcores,($D __interface_wait_and_yield.maxcores ? __interface_wait_and_yield.maxcores $: _i.i2c_slave_callback_if._client_call_y.max.maxcores) $M 1
	.globl	_i.i2c_slave_callback_if._chan.start_master_write.maxcores
	.weak	_i.i2c_slave_callback_if._chan.start_master_write.maxcores
	.set	_i.i2c_slave_callback_if._chan.start_master_write.maxtimers,($D __interface_wait_and_yield.maxtimers ? __interface_wait_and_yield.maxtimers $: _i.i2c_slave_callback_if._client_call_y.max.maxtimers) $M 0
	.globl	_i.i2c_slave_callback_if._chan.start_master_write.maxtimers
	.weak	_i.i2c_slave_callback_if._chan.start_master_write.maxtimers
	.set	_i.i2c_slave_callback_if._chan.start_master_write.maxchanends,(1 + ($D __interface_wait_and_yield.maxchanends ? __interface_wait_and_yield.maxchanends $: _i.i2c_slave_callback_if._client_call_y.max.maxchanends)) $M 1
	.globl	_i.i2c_slave_callback_if._chan.start_master_write.maxchanends
	.weak	_i.i2c_slave_callback_if._chan.start_master_write.maxchanends
.Ltmp144:
	.size	_i.i2c_slave_callback_if._chan.start_master_write, .Ltmp144-_i.i2c_slave_callback_if._chan.start_master_write
	.cfi_endproc

	.weak	_i.i2c_slave_callback_if._chan.master_requires_data
	.align	4
	.type	_i.i2c_slave_callback_if._chan.master_requires_data,@function
	.cc_top _i.i2c_slave_callback_if._chan.master_requires_data.function,_i.i2c_slave_callback_if._chan.master_requires_data
_i.i2c_slave_callback_if._chan.master_requires_data: # @_i.i2c_slave_callback_if._chan.master_requires_data
	.cfi_startproc
	.issue_mode single
# BB#0:                                 # %allocas
	ENTSP_lu6 4
.Ltmp145:
	.cfi_def_cfa_offset 16
.Ltmp146:
	.cfi_offset 15, 0
	stw r4, sp[2]                   # 4-byte Folded Spill
.Ltmp147:
	.cfi_offset 4, -8
	#DEBUG_VALUE: _i.i2c_slave_callback_if._chan.master_requires_data:dest <- R0
	getr r4, 2
	setd res[r4], r0
	add r0, r4, 5
	out res[r4], r0
	outct res[r4], 2
	ldc r1, 0
	mov r0, r4
	bl __interface_wait_and_yield
	in r0, res[r4]
	int r0, res[r4]
	chkct res[r4], 1
	freer res[r4]
	ldw r4, sp[2]                   # 4-byte Folded Reload
	retsp 4
	# RETURN_REG_HOLDER
	.cc_bottom _i.i2c_slave_callback_if._chan.master_requires_data.function
	.set	_i.i2c_slave_callback_if._chan.master_requires_data.nstackwords,((_i.i2c_slave_callback_if._client_call_y.max.nstackwords $M ($D __interface_wait_and_yield.nstackwords ? __interface_wait_and_yield.nstackwords $: _i.i2c_slave_callback_if._client_call_y.max.nstackwords)) + 4)
	.globl	_i.i2c_slave_callback_if._chan.master_requires_data.nstackwords
	.weak	_i.i2c_slave_callback_if._chan.master_requires_data.nstackwords
	.set	_i.i2c_slave_callback_if._chan.master_requires_data.maxcores,($D __interface_wait_and_yield.maxcores ? __interface_wait_and_yield.maxcores $: _i.i2c_slave_callback_if._client_call_y.max.maxcores) $M 1
	.globl	_i.i2c_slave_callback_if._chan.master_requires_data.maxcores
	.weak	_i.i2c_slave_callback_if._chan.master_requires_data.maxcores
	.set	_i.i2c_slave_callback_if._chan.master_requires_data.maxtimers,($D __interface_wait_and_yield.maxtimers ? __interface_wait_and_yield.maxtimers $: _i.i2c_slave_callback_if._client_call_y.max.maxtimers) $M 0
	.globl	_i.i2c_slave_callback_if._chan.master_requires_data.maxtimers
	.weak	_i.i2c_slave_callback_if._chan.master_requires_data.maxtimers
	.set	_i.i2c_slave_callback_if._chan.master_requires_data.maxchanends,(1 + ($D __interface_wait_and_yield.maxchanends ? __interface_wait_and_yield.maxchanends $: _i.i2c_slave_callback_if._client_call_y.max.maxchanends)) $M 1
	.globl	_i.i2c_slave_callback_if._chan.master_requires_data.maxchanends
	.weak	_i.i2c_slave_callback_if._chan.master_requires_data.maxchanends
.Ltmp148:
	.size	_i.i2c_slave_callback_if._chan.master_requires_data, .Ltmp148-_i.i2c_slave_callback_if._chan.master_requires_data
	.cfi_endproc

	.weak	_i.i2c_slave_callback_if._chan.start_master_read
	.align	4
	.type	_i.i2c_slave_callback_if._chan.start_master_read,@function
	.cc_top _i.i2c_slave_callback_if._chan.start_master_read.function,_i.i2c_slave_callback_if._chan.start_master_read
_i.i2c_slave_callback_if._chan.start_master_read: # @_i.i2c_slave_callback_if._chan.start_master_read
	.cfi_startproc
	.issue_mode single
# BB#0:                                 # %allocas
	ENTSP_lu6 4
.Ltmp149:
	.cfi_def_cfa_offset 16
.Ltmp150:
	.cfi_offset 15, 0
	stw r4, sp[2]                   # 4-byte Folded Spill
.Ltmp151:
	.cfi_offset 4, -8
	#DEBUG_VALUE: _i.i2c_slave_callback_if._chan.start_master_read:dest <- R0
	getr r4, 2
	setd res[r4], r0
	add r0, r4, 4
	out res[r4], r0
	outct res[r4], 2
	ldc r1, 0
	mov r0, r4
	bl __interface_wait_and_yield
	in r0, res[r4]
	chkct res[r4], 1
	freer res[r4]
	ldw r4, sp[2]                   # 4-byte Folded Reload
	retsp 4
	# RETURN_REG_HOLDER
	.cc_bottom _i.i2c_slave_callback_if._chan.start_master_read.function
	.set	_i.i2c_slave_callback_if._chan.start_master_read.nstackwords,((_i.i2c_slave_callback_if._client_call_y.max.nstackwords $M ($D __interface_wait_and_yield.nstackwords ? __interface_wait_and_yield.nstackwords $: _i.i2c_slave_callback_if._client_call_y.max.nstackwords)) + 4)
	.globl	_i.i2c_slave_callback_if._chan.start_master_read.nstackwords
	.weak	_i.i2c_slave_callback_if._chan.start_master_read.nstackwords
	.set	_i.i2c_slave_callback_if._chan.start_master_read.maxcores,($D __interface_wait_and_yield.maxcores ? __interface_wait_and_yield.maxcores $: _i.i2c_slave_callback_if._client_call_y.max.maxcores) $M 1
	.globl	_i.i2c_slave_callback_if._chan.start_master_read.maxcores
	.weak	_i.i2c_slave_callback_if._chan.start_master_read.maxcores
	.set	_i.i2c_slave_callback_if._chan.start_master_read.maxtimers,($D __interface_wait_and_yield.maxtimers ? __interface_wait_and_yield.maxtimers $: _i.i2c_slave_callback_if._client_call_y.max.maxtimers) $M 0
	.globl	_i.i2c_slave_callback_if._chan.start_master_read.maxtimers
	.weak	_i.i2c_slave_callback_if._chan.start_master_read.maxtimers
	.set	_i.i2c_slave_callback_if._chan.start_master_read.maxchanends,(1 + ($D __interface_wait_and_yield.maxchanends ? __interface_wait_and_yield.maxchanends $: _i.i2c_slave_callback_if._client_call_y.max.maxchanends)) $M 1
	.globl	_i.i2c_slave_callback_if._chan.start_master_read.maxchanends
	.weak	_i.i2c_slave_callback_if._chan.start_master_read.maxchanends
.Ltmp152:
	.size	_i.i2c_slave_callback_if._chan.start_master_read, .Ltmp152-_i.i2c_slave_callback_if._chan.start_master_read
	.cfi_endproc

	.weak	_i.i2c_slave_callback_if._chan.ack_write_request
	.align	4
	.type	_i.i2c_slave_callback_if._chan.ack_write_request,@function
	.cc_top _i.i2c_slave_callback_if._chan.ack_write_request.function,_i.i2c_slave_callback_if._chan.ack_write_request
_i.i2c_slave_callback_if._chan.ack_write_request: # @_i.i2c_slave_callback_if._chan.ack_write_request
	.cfi_startproc
	.issue_mode single
# BB#0:                                 # %allocas
	ENTSP_lu6 4
.Ltmp153:
	.cfi_def_cfa_offset 16
.Ltmp154:
	.cfi_offset 15, 0
	stw r4, sp[2]                   # 4-byte Folded Spill
.Ltmp155:
	.cfi_offset 4, -8
	#DEBUG_VALUE: _i.i2c_slave_callback_if._chan.ack_write_request:dest <- R0
	getr r4, 2
	setd res[r4], r0
	add r0, r4, 3
	out res[r4], r0
	outct res[r4], 2
	ldc r1, 0
	mov r0, r4
	bl __interface_wait_and_yield
	in r0, res[r4]
	in r0, res[r4]
	chkct res[r4], 1
	freer res[r4]
	ldw r4, sp[2]                   # 4-byte Folded Reload
	retsp 4
	# RETURN_REG_HOLDER
	.cc_bottom _i.i2c_slave_callback_if._chan.ack_write_request.function
	.set	_i.i2c_slave_callback_if._chan.ack_write_request.nstackwords,((_i.i2c_slave_callback_if._client_call_y.max.nstackwords $M ($D __interface_wait_and_yield.nstackwords ? __interface_wait_and_yield.nstackwords $: _i.i2c_slave_callback_if._client_call_y.max.nstackwords)) + 4)
	.globl	_i.i2c_slave_callback_if._chan.ack_write_request.nstackwords
	.weak	_i.i2c_slave_callback_if._chan.ack_write_request.nstackwords
	.set	_i.i2c_slave_callback_if._chan.ack_write_request.maxcores,($D __interface_wait_and_yield.maxcores ? __interface_wait_and_yield.maxcores $: _i.i2c_slave_callback_if._client_call_y.max.maxcores) $M 1
	.globl	_i.i2c_slave_callback_if._chan.ack_write_request.maxcores
	.weak	_i.i2c_slave_callback_if._chan.ack_write_request.maxcores
	.set	_i.i2c_slave_callback_if._chan.ack_write_request.maxtimers,($D __interface_wait_and_yield.maxtimers ? __interface_wait_and_yield.maxtimers $: _i.i2c_slave_callback_if._client_call_y.max.maxtimers) $M 0
	.globl	_i.i2c_slave_callback_if._chan.ack_write_request.maxtimers
	.weak	_i.i2c_slave_callback_if._chan.ack_write_request.maxtimers
	.set	_i.i2c_slave_callback_if._chan.ack_write_request.maxchanends,(1 + ($D __interface_wait_and_yield.maxchanends ? __interface_wait_and_yield.maxchanends $: _i.i2c_slave_callback_if._client_call_y.max.maxchanends)) $M 1
	.globl	_i.i2c_slave_callback_if._chan.ack_write_request.maxchanends
	.weak	_i.i2c_slave_callback_if._chan.ack_write_request.maxchanends
.Ltmp156:
	.size	_i.i2c_slave_callback_if._chan.ack_write_request, .Ltmp156-_i.i2c_slave_callback_if._chan.ack_write_request
	.cfi_endproc

	.weak	_i.i2c_slave_callback_if._chan.start_write_request
	.align	4
	.type	_i.i2c_slave_callback_if._chan.start_write_request,@function
	.cc_top _i.i2c_slave_callback_if._chan.start_write_request.function,_i.i2c_slave_callback_if._chan.start_write_request
_i.i2c_slave_callback_if._chan.start_write_request: # @_i.i2c_slave_callback_if._chan.start_write_request
	.cfi_startproc
	.issue_mode single
# BB#0:                                 # %allocas
	ENTSP_lu6 4
.Ltmp157:
	.cfi_def_cfa_offset 16
.Ltmp158:
	.cfi_offset 15, 0
	stw r4, sp[2]                   # 4-byte Folded Spill
.Ltmp159:
	.cfi_offset 4, -8
	#DEBUG_VALUE: _i.i2c_slave_callback_if._chan.start_write_request:dest <- R0
	getr r4, 2
	setd res[r4], r0
	add r0, r4, 2
	out res[r4], r0
	outct res[r4], 2
	ldc r1, 0
	mov r0, r4
	bl __interface_wait_and_yield
	in r0, res[r4]
	chkct res[r4], 1
	freer res[r4]
	ldw r4, sp[2]                   # 4-byte Folded Reload
	retsp 4
	# RETURN_REG_HOLDER
	.cc_bottom _i.i2c_slave_callback_if._chan.start_write_request.function
	.set	_i.i2c_slave_callback_if._chan.start_write_request.nstackwords,((_i.i2c_slave_callback_if._client_call_y.max.nstackwords $M ($D __interface_wait_and_yield.nstackwords ? __interface_wait_and_yield.nstackwords $: _i.i2c_slave_callback_if._client_call_y.max.nstackwords)) + 4)
	.globl	_i.i2c_slave_callback_if._chan.start_write_request.nstackwords
	.weak	_i.i2c_slave_callback_if._chan.start_write_request.nstackwords
	.set	_i.i2c_slave_callback_if._chan.start_write_request.maxcores,($D __interface_wait_and_yield.maxcores ? __interface_wait_and_yield.maxcores $: _i.i2c_slave_callback_if._client_call_y.max.maxcores) $M 1
	.globl	_i.i2c_slave_callback_if._chan.start_write_request.maxcores
	.weak	_i.i2c_slave_callback_if._chan.start_write_request.maxcores
	.set	_i.i2c_slave_callback_if._chan.start_write_request.maxtimers,($D __interface_wait_and_yield.maxtimers ? __interface_wait_and_yield.maxtimers $: _i.i2c_slave_callback_if._client_call_y.max.maxtimers) $M 0
	.globl	_i.i2c_slave_callback_if._chan.start_write_request.maxtimers
	.weak	_i.i2c_slave_callback_if._chan.start_write_request.maxtimers
	.set	_i.i2c_slave_callback_if._chan.start_write_request.maxchanends,(1 + ($D __interface_wait_and_yield.maxchanends ? __interface_wait_and_yield.maxchanends $: _i.i2c_slave_callback_if._client_call_y.max.maxchanends)) $M 1
	.globl	_i.i2c_slave_callback_if._chan.start_write_request.maxchanends
	.weak	_i.i2c_slave_callback_if._chan.start_write_request.maxchanends
.Ltmp160:
	.size	_i.i2c_slave_callback_if._chan.start_write_request, .Ltmp160-_i.i2c_slave_callback_if._chan.start_write_request
	.cfi_endproc

	.weak	_i.i2c_slave_callback_if._chan.ack_read_request
	.align	4
	.type	_i.i2c_slave_callback_if._chan.ack_read_request,@function
	.cc_top _i.i2c_slave_callback_if._chan.ack_read_request.function,_i.i2c_slave_callback_if._chan.ack_read_request
_i.i2c_slave_callback_if._chan.ack_read_request: # @_i.i2c_slave_callback_if._chan.ack_read_request
	.cfi_startproc
	.issue_mode single
# BB#0:                                 # %allocas
	ENTSP_lu6 4
.Ltmp161:
	.cfi_def_cfa_offset 16
.Ltmp162:
	.cfi_offset 15, 0
	stw r4, sp[2]                   # 4-byte Folded Spill
.Ltmp163:
	.cfi_offset 4, -8
	#DEBUG_VALUE: _i.i2c_slave_callback_if._chan.ack_read_request:dest <- R0
	getr r4, 2
	setd res[r4], r0
	add r0, r4, 1
	out res[r4], r0
	outct res[r4], 2
	ldc r1, 0
	mov r0, r4
	bl __interface_wait_and_yield
	in r0, res[r4]
	in r0, res[r4]
	chkct res[r4], 1
	freer res[r4]
	ldw r4, sp[2]                   # 4-byte Folded Reload
	retsp 4
	# RETURN_REG_HOLDER
	.cc_bottom _i.i2c_slave_callback_if._chan.ack_read_request.function
	.set	_i.i2c_slave_callback_if._chan.ack_read_request.nstackwords,((_i.i2c_slave_callback_if._client_call_y.max.nstackwords $M ($D __interface_wait_and_yield.nstackwords ? __interface_wait_and_yield.nstackwords $: _i.i2c_slave_callback_if._client_call_y.max.nstackwords)) + 4)
	.globl	_i.i2c_slave_callback_if._chan.ack_read_request.nstackwords
	.weak	_i.i2c_slave_callback_if._chan.ack_read_request.nstackwords
	.set	_i.i2c_slave_callback_if._chan.ack_read_request.maxcores,($D __interface_wait_and_yield.maxcores ? __interface_wait_and_yield.maxcores $: _i.i2c_slave_callback_if._client_call_y.max.maxcores) $M 1
	.globl	_i.i2c_slave_callback_if._chan.ack_read_request.maxcores
	.weak	_i.i2c_slave_callback_if._chan.ack_read_request.maxcores
	.set	_i.i2c_slave_callback_if._chan.ack_read_request.maxtimers,($D __interface_wait_and_yield.maxtimers ? __interface_wait_and_yield.maxtimers $: _i.i2c_slave_callback_if._client_call_y.max.maxtimers) $M 0
	.globl	_i.i2c_slave_callback_if._chan.ack_read_request.maxtimers
	.weak	_i.i2c_slave_callback_if._chan.ack_read_request.maxtimers
	.set	_i.i2c_slave_callback_if._chan.ack_read_request.maxchanends,(1 + ($D __interface_wait_and_yield.maxchanends ? __interface_wait_and_yield.maxchanends $: _i.i2c_slave_callback_if._client_call_y.max.maxchanends)) $M 1
	.globl	_i.i2c_slave_callback_if._chan.ack_read_request.maxchanends
	.weak	_i.i2c_slave_callback_if._chan.ack_read_request.maxchanends
.Ltmp164:
	.size	_i.i2c_slave_callback_if._chan.ack_read_request, .Ltmp164-_i.i2c_slave_callback_if._chan.ack_read_request
	.cfi_endproc

	.weak	_i.i2c_slave_callback_if._chan.start_read_request
	.align	4
	.type	_i.i2c_slave_callback_if._chan.start_read_request,@function
	.cc_top _i.i2c_slave_callback_if._chan.start_read_request.function,_i.i2c_slave_callback_if._chan.start_read_request
_i.i2c_slave_callback_if._chan.start_read_request: # @_i.i2c_slave_callback_if._chan.start_read_request
	.cfi_startproc
	.issue_mode single
# BB#0:                                 # %allocas
	ENTSP_lu6 4
.Ltmp165:
	.cfi_def_cfa_offset 16
.Ltmp166:
	.cfi_offset 15, 0
	stw r4, sp[2]                   # 4-byte Folded Spill
.Ltmp167:
	.cfi_offset 4, -8
	#DEBUG_VALUE: _i.i2c_slave_callback_if._chan.start_read_request:dest <- R0
	getr r4, 2
	setd res[r4], r0
	out res[r4], r4
	outct res[r4], 2
	ldc r1, 0
	mov r0, r4
	bl __interface_wait_and_yield
	in r0, res[r4]
	chkct res[r4], 1
	freer res[r4]
	ldw r4, sp[2]                   # 4-byte Folded Reload
	retsp 4
	# RETURN_REG_HOLDER
	.cc_bottom _i.i2c_slave_callback_if._chan.start_read_request.function
	.set	_i.i2c_slave_callback_if._chan.start_read_request.nstackwords,((_i.i2c_slave_callback_if._client_call_y.max.nstackwords $M ($D __interface_wait_and_yield.nstackwords ? __interface_wait_and_yield.nstackwords $: _i.i2c_slave_callback_if._client_call_y.max.nstackwords)) + 4)
	.globl	_i.i2c_slave_callback_if._chan.start_read_request.nstackwords
	.weak	_i.i2c_slave_callback_if._chan.start_read_request.nstackwords
	.set	_i.i2c_slave_callback_if._chan.start_read_request.maxcores,($D __interface_wait_and_yield.maxcores ? __interface_wait_and_yield.maxcores $: _i.i2c_slave_callback_if._client_call_y.max.maxcores) $M 1
	.globl	_i.i2c_slave_callback_if._chan.start_read_request.maxcores
	.weak	_i.i2c_slave_callback_if._chan.start_read_request.maxcores
	.set	_i.i2c_slave_callback_if._chan.start_read_request.maxtimers,($D __interface_wait_and_yield.maxtimers ? __interface_wait_and_yield.maxtimers $: _i.i2c_slave_callback_if._client_call_y.max.maxtimers) $M 0
	.globl	_i.i2c_slave_callback_if._chan.start_read_request.maxtimers
	.weak	_i.i2c_slave_callback_if._chan.start_read_request.maxtimers
	.set	_i.i2c_slave_callback_if._chan.start_read_request.maxchanends,(1 + ($D __interface_wait_and_yield.maxchanends ? __interface_wait_and_yield.maxchanends $: _i.i2c_slave_callback_if._client_call_y.max.maxchanends)) $M 1
	.globl	_i.i2c_slave_callback_if._chan.start_read_request.maxchanends
	.weak	_i.i2c_slave_callback_if._chan.start_read_request.maxchanends
.Ltmp168:
	.size	_i.i2c_slave_callback_if._chan.start_read_request, .Ltmp168-_i.i2c_slave_callback_if._chan.start_read_request
	.cfi_endproc

	.weak	_i.i2c_slave_callback_if._chan_yield.stop_bit
	.align	4
	.type	_i.i2c_slave_callback_if._chan_yield.stop_bit,@function
	.cc_top _i.i2c_slave_callback_if._chan_yield.stop_bit.function,_i.i2c_slave_callback_if._chan_yield.stop_bit
_i.i2c_slave_callback_if._chan_yield.stop_bit: # @_i.i2c_slave_callback_if._chan_yield.stop_bit
	.cfi_startproc
	.issue_mode single
# BB#0:                                 # %allocas
	ENTSP_lu6 4
.Ltmp169:
	.cfi_def_cfa_offset 16
.Ltmp170:
	.cfi_offset 15, 0
	std r5, r4, sp[1]               # 4-byte Folded Spill
.Ltmp171:
	.cfi_offset 4, -8
.Ltmp172:
	.cfi_offset 5, -4
	#DEBUG_VALUE: _i.i2c_slave_callback_if._chan_yield.stop_bit:s <- R0
	ldw r1, r0[0]
	getr r4, 2
	setd res[r4], r1
	add r1, r4, 8
	out res[r4], r1
	outct res[r4], 2
	ldw r5, r0[1]
	mov r0, r4
	mov r1, r5
	bl __interface_wait_and_yield
	ldc r1, 0
	mov r0, r4
	mov r2, r5
	bl __interface_client_call_y
	chkct res[r4], 1
	freer res[r4]
	ldd r5, r4, sp[1]               # 4-byte Folded Reload
	retsp 4
	# RETURN_REG_HOLDER
	.cc_bottom _i.i2c_slave_callback_if._chan_yield.stop_bit.function
	.set	_i.i2c_slave_callback_if._chan_yield.stop_bit.nstackwords,((($D __interface_wait_and_yield.nstackwords ? __interface_wait_and_yield.nstackwords $: _i.i2c_slave_callback_if._client_call_y.max.nstackwords) $M _i.i2c_slave_callback_if._client_call_y.max.nstackwords $M ($D __interface_client_call_y.nstackwords ? __interface_client_call_y.nstackwords $: _i.i2c_slave_callback_if._client_call_y.max.nstackwords)) + 4)
	.globl	_i.i2c_slave_callback_if._chan_yield.stop_bit.nstackwords
	.weak	_i.i2c_slave_callback_if._chan_yield.stop_bit.nstackwords
	.set	_i.i2c_slave_callback_if._chan_yield.stop_bit.maxcores,($D __interface_client_call_y.maxcores ? __interface_client_call_y.maxcores $: _i.i2c_slave_callback_if._client_call_y.max.maxcores) $M ($D __interface_wait_and_yield.maxcores ? __interface_wait_and_yield.maxcores $: _i.i2c_slave_callback_if._client_call_y.max.maxcores) $M 1
	.globl	_i.i2c_slave_callback_if._chan_yield.stop_bit.maxcores
	.weak	_i.i2c_slave_callback_if._chan_yield.stop_bit.maxcores
	.set	_i.i2c_slave_callback_if._chan_yield.stop_bit.maxtimers,($D __interface_client_call_y.maxtimers ? __interface_client_call_y.maxtimers $: _i.i2c_slave_callback_if._client_call_y.max.maxtimers) $M ($D __interface_wait_and_yield.maxtimers ? __interface_wait_and_yield.maxtimers $: _i.i2c_slave_callback_if._client_call_y.max.maxtimers) $M 0
	.globl	_i.i2c_slave_callback_if._chan_yield.stop_bit.maxtimers
	.weak	_i.i2c_slave_callback_if._chan_yield.stop_bit.maxtimers
	.set	_i.i2c_slave_callback_if._chan_yield.stop_bit.maxchanends,(1 + ($D __interface_client_call_y.maxchanends ? __interface_client_call_y.maxchanends $: _i.i2c_slave_callback_if._client_call_y.max.maxchanends)) $M (1 + ($D __interface_wait_and_yield.maxchanends ? __interface_wait_and_yield.maxchanends $: _i.i2c_slave_callback_if._client_call_y.max.maxchanends)) $M 1
	.globl	_i.i2c_slave_callback_if._chan_yield.stop_bit.maxchanends
	.weak	_i.i2c_slave_callback_if._chan_yield.stop_bit.maxchanends
.Ltmp173:
	.size	_i.i2c_slave_callback_if._chan_yield.stop_bit, .Ltmp173-_i.i2c_slave_callback_if._chan_yield.stop_bit
	.cfi_endproc

	.weak	_i.i2c_slave_callback_if._chan_yield.master_sent_data
	.align	4
	.type	_i.i2c_slave_callback_if._chan_yield.master_sent_data,@function
	.cc_top _i.i2c_slave_callback_if._chan_yield.master_sent_data.function,_i.i2c_slave_callback_if._chan_yield.master_sent_data
_i.i2c_slave_callback_if._chan_yield.master_sent_data: # @_i.i2c_slave_callback_if._chan_yield.master_sent_data
	.cfi_startproc
	.issue_mode single
# BB#0:                                 # %allocas
	ENTSP_lu6 6
.Ltmp174:
	.cfi_def_cfa_offset 24
.Ltmp175:
	.cfi_offset 15, 0
	std r5, r4, sp[1]               # 4-byte Folded Spill
.Ltmp176:
	.cfi_offset 4, -16
.Ltmp177:
	.cfi_offset 5, -12
	stw r6, sp[4]                   # 4-byte Folded Spill
.Ltmp178:
	.cfi_offset 6, -8
	#DEBUG_VALUE: _i.i2c_slave_callback_if._chan_yield.master_sent_data:s <- R0
	#DEBUG_VALUE: _i.i2c_slave_callback_if._chan_yield.master_sent_data:param1 <- R1
	mov r4, r1
	#DEBUG_VALUE: _i.i2c_slave_callback_if._chan_yield.master_sent_data:param1 <- R4
	ldw r1, r0[0]
	getr r5, 2
	setd res[r5], r1
	add r1, r5, 7
	out res[r5], r1
	outct res[r5], 2
	ldw r6, r0[1]
	mov r0, r5
	mov r1, r6
	bl __interface_wait_and_yield
	chkct res[r5], 1
	outt res[r5], r4
	outct res[r5], 2
	ldc r1, 0
	mov r0, r5
	mov r2, r6
	bl __interface_client_call_y
	in r0, res[r5]
	chkct res[r5], 1
	freer res[r5]
	ldw r6, sp[4]                   # 4-byte Folded Reload
	ldd r5, r4, sp[1]               # 4-byte Folded Reload
	retsp 6
	# RETURN_REG_HOLDER
	.cc_bottom _i.i2c_slave_callback_if._chan_yield.master_sent_data.function
	.set	_i.i2c_slave_callback_if._chan_yield.master_sent_data.nstackwords,((($D __interface_wait_and_yield.nstackwords ? __interface_wait_and_yield.nstackwords $: _i.i2c_slave_callback_if._client_call_y.max.nstackwords) $M _i.i2c_slave_callback_if._client_call_y.max.nstackwords $M ($D __interface_client_call_y.nstackwords ? __interface_client_call_y.nstackwords $: _i.i2c_slave_callback_if._client_call_y.max.nstackwords)) + 6)
	.globl	_i.i2c_slave_callback_if._chan_yield.master_sent_data.nstackwords
	.weak	_i.i2c_slave_callback_if._chan_yield.master_sent_data.nstackwords
	.set	_i.i2c_slave_callback_if._chan_yield.master_sent_data.maxcores,($D __interface_client_call_y.maxcores ? __interface_client_call_y.maxcores $: _i.i2c_slave_callback_if._client_call_y.max.maxcores) $M ($D __interface_wait_and_yield.maxcores ? __interface_wait_and_yield.maxcores $: _i.i2c_slave_callback_if._client_call_y.max.maxcores) $M 1
	.globl	_i.i2c_slave_callback_if._chan_yield.master_sent_data.maxcores
	.weak	_i.i2c_slave_callback_if._chan_yield.master_sent_data.maxcores
	.set	_i.i2c_slave_callback_if._chan_yield.master_sent_data.maxtimers,($D __interface_client_call_y.maxtimers ? __interface_client_call_y.maxtimers $: _i.i2c_slave_callback_if._client_call_y.max.maxtimers) $M ($D __interface_wait_and_yield.maxtimers ? __interface_wait_and_yield.maxtimers $: _i.i2c_slave_callback_if._client_call_y.max.maxtimers) $M 0
	.globl	_i.i2c_slave_callback_if._chan_yield.master_sent_data.maxtimers
	.weak	_i.i2c_slave_callback_if._chan_yield.master_sent_data.maxtimers
	.set	_i.i2c_slave_callback_if._chan_yield.master_sent_data.maxchanends,(1 + ($D __interface_client_call_y.maxchanends ? __interface_client_call_y.maxchanends $: _i.i2c_slave_callback_if._client_call_y.max.maxchanends)) $M (1 + ($D __interface_wait_and_yield.maxchanends ? __interface_wait_and_yield.maxchanends $: _i.i2c_slave_callback_if._client_call_y.max.maxchanends)) $M 1
	.globl	_i.i2c_slave_callback_if._chan_yield.master_sent_data.maxchanends
	.weak	_i.i2c_slave_callback_if._chan_yield.master_sent_data.maxchanends
.Ltmp179:
	.size	_i.i2c_slave_callback_if._chan_yield.master_sent_data, .Ltmp179-_i.i2c_slave_callback_if._chan_yield.master_sent_data
	.cfi_endproc

	.weak	_i.i2c_slave_callback_if._chan_yield.start_master_write
	.align	4
	.type	_i.i2c_slave_callback_if._chan_yield.start_master_write,@function
	.cc_top _i.i2c_slave_callback_if._chan_yield.start_master_write.function,_i.i2c_slave_callback_if._chan_yield.start_master_write
_i.i2c_slave_callback_if._chan_yield.start_master_write: # @_i.i2c_slave_callback_if._chan_yield.start_master_write
	.cfi_startproc
	.issue_mode single
# BB#0:                                 # %allocas
	ENTSP_lu6 4
.Ltmp180:
	.cfi_def_cfa_offset 16
.Ltmp181:
	.cfi_offset 15, 0
	std r5, r4, sp[1]               # 4-byte Folded Spill
.Ltmp182:
	.cfi_offset 4, -8
.Ltmp183:
	.cfi_offset 5, -4
	#DEBUG_VALUE: _i.i2c_slave_callback_if._chan_yield.start_master_write:s <- R0
	ldw r1, r0[0]
	getr r4, 2
	setd res[r4], r1
	add r1, r4, 6
	out res[r4], r1
	outct res[r4], 2
	ldw r5, r0[1]
	mov r0, r4
	mov r1, r5
	bl __interface_wait_and_yield
	ldc r1, 0
	mov r0, r4
	mov r2, r5
	bl __interface_client_call_y
	chkct res[r4], 1
	freer res[r4]
	ldd r5, r4, sp[1]               # 4-byte Folded Reload
	retsp 4
	# RETURN_REG_HOLDER
	.cc_bottom _i.i2c_slave_callback_if._chan_yield.start_master_write.function
	.set	_i.i2c_slave_callback_if._chan_yield.start_master_write.nstackwords,((($D __interface_wait_and_yield.nstackwords ? __interface_wait_and_yield.nstackwords $: _i.i2c_slave_callback_if._client_call_y.max.nstackwords) $M _i.i2c_slave_callback_if._client_call_y.max.nstackwords $M ($D __interface_client_call_y.nstackwords ? __interface_client_call_y.nstackwords $: _i.i2c_slave_callback_if._client_call_y.max.nstackwords)) + 4)
	.globl	_i.i2c_slave_callback_if._chan_yield.start_master_write.nstackwords
	.weak	_i.i2c_slave_callback_if._chan_yield.start_master_write.nstackwords
	.set	_i.i2c_slave_callback_if._chan_yield.start_master_write.maxcores,($D __interface_client_call_y.maxcores ? __interface_client_call_y.maxcores $: _i.i2c_slave_callback_if._client_call_y.max.maxcores) $M ($D __interface_wait_and_yield.maxcores ? __interface_wait_and_yield.maxcores $: _i.i2c_slave_callback_if._client_call_y.max.maxcores) $M 1
	.globl	_i.i2c_slave_callback_if._chan_yield.start_master_write.maxcores
	.weak	_i.i2c_slave_callback_if._chan_yield.start_master_write.maxcores
	.set	_i.i2c_slave_callback_if._chan_yield.start_master_write.maxtimers,($D __interface_client_call_y.maxtimers ? __interface_client_call_y.maxtimers $: _i.i2c_slave_callback_if._client_call_y.max.maxtimers) $M ($D __interface_wait_and_yield.maxtimers ? __interface_wait_and_yield.maxtimers $: _i.i2c_slave_callback_if._client_call_y.max.maxtimers) $M 0
	.globl	_i.i2c_slave_callback_if._chan_yield.start_master_write.maxtimers
	.weak	_i.i2c_slave_callback_if._chan_yield.start_master_write.maxtimers
	.set	_i.i2c_slave_callback_if._chan_yield.start_master_write.maxchanends,(1 + ($D __interface_client_call_y.maxchanends ? __interface_client_call_y.maxchanends $: _i.i2c_slave_callback_if._client_call_y.max.maxchanends)) $M (1 + ($D __interface_wait_and_yield.maxchanends ? __interface_wait_and_yield.maxchanends $: _i.i2c_slave_callback_if._client_call_y.max.maxchanends)) $M 1
	.globl	_i.i2c_slave_callback_if._chan_yield.start_master_write.maxchanends
	.weak	_i.i2c_slave_callback_if._chan_yield.start_master_write.maxchanends
.Ltmp184:
	.size	_i.i2c_slave_callback_if._chan_yield.start_master_write, .Ltmp184-_i.i2c_slave_callback_if._chan_yield.start_master_write
	.cfi_endproc

	.weak	_i.i2c_slave_callback_if._chan_yield.master_requires_data
	.align	4
	.type	_i.i2c_slave_callback_if._chan_yield.master_requires_data,@function
	.cc_top _i.i2c_slave_callback_if._chan_yield.master_requires_data.function,_i.i2c_slave_callback_if._chan_yield.master_requires_data
_i.i2c_slave_callback_if._chan_yield.master_requires_data: # @_i.i2c_slave_callback_if._chan_yield.master_requires_data
	.cfi_startproc
	.issue_mode single
# BB#0:                                 # %allocas
	ENTSP_lu6 4
.Ltmp185:
	.cfi_def_cfa_offset 16
.Ltmp186:
	.cfi_offset 15, 0
	std r5, r4, sp[1]               # 4-byte Folded Spill
.Ltmp187:
	.cfi_offset 4, -8
.Ltmp188:
	.cfi_offset 5, -4
	#DEBUG_VALUE: _i.i2c_slave_callback_if._chan_yield.master_requires_data:s <- R0
	ldw r1, r0[0]
	getr r4, 2
	setd res[r4], r1
	add r1, r4, 5
	out res[r4], r1
	outct res[r4], 2
	ldw r5, r0[1]
	mov r0, r4
	mov r1, r5
	bl __interface_wait_and_yield
	ldc r1, 0
	mov r0, r4
	mov r2, r5
	bl __interface_client_call_y
	int r0, res[r4]
	chkct res[r4], 1
	freer res[r4]
	ldd r5, r4, sp[1]               # 4-byte Folded Reload
	retsp 4
	# RETURN_REG_HOLDER
	.cc_bottom _i.i2c_slave_callback_if._chan_yield.master_requires_data.function
	.set	_i.i2c_slave_callback_if._chan_yield.master_requires_data.nstackwords,((($D __interface_wait_and_yield.nstackwords ? __interface_wait_and_yield.nstackwords $: _i.i2c_slave_callback_if._client_call_y.max.nstackwords) $M _i.i2c_slave_callback_if._client_call_y.max.nstackwords $M ($D __interface_client_call_y.nstackwords ? __interface_client_call_y.nstackwords $: _i.i2c_slave_callback_if._client_call_y.max.nstackwords)) + 4)
	.globl	_i.i2c_slave_callback_if._chan_yield.master_requires_data.nstackwords
	.weak	_i.i2c_slave_callback_if._chan_yield.master_requires_data.nstackwords
	.set	_i.i2c_slave_callback_if._chan_yield.master_requires_data.maxcores,($D __interface_client_call_y.maxcores ? __interface_client_call_y.maxcores $: _i.i2c_slave_callback_if._client_call_y.max.maxcores) $M ($D __interface_wait_and_yield.maxcores ? __interface_wait_and_yield.maxcores $: _i.i2c_slave_callback_if._client_call_y.max.maxcores) $M 1
	.globl	_i.i2c_slave_callback_if._chan_yield.master_requires_data.maxcores
	.weak	_i.i2c_slave_callback_if._chan_yield.master_requires_data.maxcores
	.set	_i.i2c_slave_callback_if._chan_yield.master_requires_data.maxtimers,($D __interface_client_call_y.maxtimers ? __interface_client_call_y.maxtimers $: _i.i2c_slave_callback_if._client_call_y.max.maxtimers) $M ($D __interface_wait_and_yield.maxtimers ? __interface_wait_and_yield.maxtimers $: _i.i2c_slave_callback_if._client_call_y.max.maxtimers) $M 0
	.globl	_i.i2c_slave_callback_if._chan_yield.master_requires_data.maxtimers
	.weak	_i.i2c_slave_callback_if._chan_yield.master_requires_data.maxtimers
	.set	_i.i2c_slave_callback_if._chan_yield.master_requires_data.maxchanends,(1 + ($D __interface_client_call_y.maxchanends ? __interface_client_call_y.maxchanends $: _i.i2c_slave_callback_if._client_call_y.max.maxchanends)) $M (1 + ($D __interface_wait_and_yield.maxchanends ? __interface_wait_and_yield.maxchanends $: _i.i2c_slave_callback_if._client_call_y.max.maxchanends)) $M 1
	.globl	_i.i2c_slave_callback_if._chan_yield.master_requires_data.maxchanends
	.weak	_i.i2c_slave_callback_if._chan_yield.master_requires_data.maxchanends
.Ltmp189:
	.size	_i.i2c_slave_callback_if._chan_yield.master_requires_data, .Ltmp189-_i.i2c_slave_callback_if._chan_yield.master_requires_data
	.cfi_endproc

	.weak	_i.i2c_slave_callback_if._chan_yield.start_master_read
	.align	4
	.type	_i.i2c_slave_callback_if._chan_yield.start_master_read,@function
	.cc_top _i.i2c_slave_callback_if._chan_yield.start_master_read.function,_i.i2c_slave_callback_if._chan_yield.start_master_read
_i.i2c_slave_callback_if._chan_yield.start_master_read: # @_i.i2c_slave_callback_if._chan_yield.start_master_read
	.cfi_startproc
	.issue_mode single
# BB#0:                                 # %allocas
	ENTSP_lu6 4
.Ltmp190:
	.cfi_def_cfa_offset 16
.Ltmp191:
	.cfi_offset 15, 0
	std r5, r4, sp[1]               # 4-byte Folded Spill
.Ltmp192:
	.cfi_offset 4, -8
.Ltmp193:
	.cfi_offset 5, -4
	#DEBUG_VALUE: _i.i2c_slave_callback_if._chan_yield.start_master_read:s <- R0
	ldw r1, r0[0]
	getr r4, 2
	setd res[r4], r1
	add r1, r4, 4
	out res[r4], r1
	outct res[r4], 2
	ldw r5, r0[1]
	mov r0, r4
	mov r1, r5
	bl __interface_wait_and_yield
	ldc r1, 0
	mov r0, r4
	mov r2, r5
	bl __interface_client_call_y
	chkct res[r4], 1
	freer res[r4]
	ldd r5, r4, sp[1]               # 4-byte Folded Reload
	retsp 4
	# RETURN_REG_HOLDER
	.cc_bottom _i.i2c_slave_callback_if._chan_yield.start_master_read.function
	.set	_i.i2c_slave_callback_if._chan_yield.start_master_read.nstackwords,((($D __interface_wait_and_yield.nstackwords ? __interface_wait_and_yield.nstackwords $: _i.i2c_slave_callback_if._client_call_y.max.nstackwords) $M _i.i2c_slave_callback_if._client_call_y.max.nstackwords $M ($D __interface_client_call_y.nstackwords ? __interface_client_call_y.nstackwords $: _i.i2c_slave_callback_if._client_call_y.max.nstackwords)) + 4)
	.globl	_i.i2c_slave_callback_if._chan_yield.start_master_read.nstackwords
	.weak	_i.i2c_slave_callback_if._chan_yield.start_master_read.nstackwords
	.set	_i.i2c_slave_callback_if._chan_yield.start_master_read.maxcores,($D __interface_client_call_y.maxcores ? __interface_client_call_y.maxcores $: _i.i2c_slave_callback_if._client_call_y.max.maxcores) $M ($D __interface_wait_and_yield.maxcores ? __interface_wait_and_yield.maxcores $: _i.i2c_slave_callback_if._client_call_y.max.maxcores) $M 1
	.globl	_i.i2c_slave_callback_if._chan_yield.start_master_read.maxcores
	.weak	_i.i2c_slave_callback_if._chan_yield.start_master_read.maxcores
	.set	_i.i2c_slave_callback_if._chan_yield.start_master_read.maxtimers,($D __interface_client_call_y.maxtimers ? __interface_client_call_y.maxtimers $: _i.i2c_slave_callback_if._client_call_y.max.maxtimers) $M ($D __interface_wait_and_yield.maxtimers ? __interface_wait_and_yield.maxtimers $: _i.i2c_slave_callback_if._client_call_y.max.maxtimers) $M 0
	.globl	_i.i2c_slave_callback_if._chan_yield.start_master_read.maxtimers
	.weak	_i.i2c_slave_callback_if._chan_yield.start_master_read.maxtimers
	.set	_i.i2c_slave_callback_if._chan_yield.start_master_read.maxchanends,(1 + ($D __interface_client_call_y.maxchanends ? __interface_client_call_y.maxchanends $: _i.i2c_slave_callback_if._client_call_y.max.maxchanends)) $M (1 + ($D __interface_wait_and_yield.maxchanends ? __interface_wait_and_yield.maxchanends $: _i.i2c_slave_callback_if._client_call_y.max.maxchanends)) $M 1
	.globl	_i.i2c_slave_callback_if._chan_yield.start_master_read.maxchanends
	.weak	_i.i2c_slave_callback_if._chan_yield.start_master_read.maxchanends
.Ltmp194:
	.size	_i.i2c_slave_callback_if._chan_yield.start_master_read, .Ltmp194-_i.i2c_slave_callback_if._chan_yield.start_master_read
	.cfi_endproc

	.weak	_i.i2c_slave_callback_if._chan_yield.ack_write_request
	.align	4
	.type	_i.i2c_slave_callback_if._chan_yield.ack_write_request,@function
	.cc_top _i.i2c_slave_callback_if._chan_yield.ack_write_request.function,_i.i2c_slave_callback_if._chan_yield.ack_write_request
_i.i2c_slave_callback_if._chan_yield.ack_write_request: # @_i.i2c_slave_callback_if._chan_yield.ack_write_request
	.cfi_startproc
	.issue_mode single
# BB#0:                                 # %allocas
	ENTSP_lu6 4
.Ltmp195:
	.cfi_def_cfa_offset 16
.Ltmp196:
	.cfi_offset 15, 0
	std r5, r4, sp[1]               # 4-byte Folded Spill
.Ltmp197:
	.cfi_offset 4, -8
.Ltmp198:
	.cfi_offset 5, -4
	#DEBUG_VALUE: _i.i2c_slave_callback_if._chan_yield.ack_write_request:s <- R0
	ldw r1, r0[0]
	getr r4, 2
	setd res[r4], r1
	add r1, r4, 3
	out res[r4], r1
	outct res[r4], 2
	ldw r5, r0[1]
	mov r0, r4
	mov r1, r5
	bl __interface_wait_and_yield
	ldc r1, 0
	mov r0, r4
	mov r2, r5
	bl __interface_client_call_y
	in r0, res[r4]
	chkct res[r4], 1
	freer res[r4]
	ldd r5, r4, sp[1]               # 4-byte Folded Reload
	retsp 4
	# RETURN_REG_HOLDER
	.cc_bottom _i.i2c_slave_callback_if._chan_yield.ack_write_request.function
	.set	_i.i2c_slave_callback_if._chan_yield.ack_write_request.nstackwords,((($D __interface_wait_and_yield.nstackwords ? __interface_wait_and_yield.nstackwords $: _i.i2c_slave_callback_if._client_call_y.max.nstackwords) $M _i.i2c_slave_callback_if._client_call_y.max.nstackwords $M ($D __interface_client_call_y.nstackwords ? __interface_client_call_y.nstackwords $: _i.i2c_slave_callback_if._client_call_y.max.nstackwords)) + 4)
	.globl	_i.i2c_slave_callback_if._chan_yield.ack_write_request.nstackwords
	.weak	_i.i2c_slave_callback_if._chan_yield.ack_write_request.nstackwords
	.set	_i.i2c_slave_callback_if._chan_yield.ack_write_request.maxcores,($D __interface_client_call_y.maxcores ? __interface_client_call_y.maxcores $: _i.i2c_slave_callback_if._client_call_y.max.maxcores) $M ($D __interface_wait_and_yield.maxcores ? __interface_wait_and_yield.maxcores $: _i.i2c_slave_callback_if._client_call_y.max.maxcores) $M 1
	.globl	_i.i2c_slave_callback_if._chan_yield.ack_write_request.maxcores
	.weak	_i.i2c_slave_callback_if._chan_yield.ack_write_request.maxcores
	.set	_i.i2c_slave_callback_if._chan_yield.ack_write_request.maxtimers,($D __interface_client_call_y.maxtimers ? __interface_client_call_y.maxtimers $: _i.i2c_slave_callback_if._client_call_y.max.maxtimers) $M ($D __interface_wait_and_yield.maxtimers ? __interface_wait_and_yield.maxtimers $: _i.i2c_slave_callback_if._client_call_y.max.maxtimers) $M 0
	.globl	_i.i2c_slave_callback_if._chan_yield.ack_write_request.maxtimers
	.weak	_i.i2c_slave_callback_if._chan_yield.ack_write_request.maxtimers
	.set	_i.i2c_slave_callback_if._chan_yield.ack_write_request.maxchanends,(1 + ($D __interface_client_call_y.maxchanends ? __interface_client_call_y.maxchanends $: _i.i2c_slave_callback_if._client_call_y.max.maxchanends)) $M (1 + ($D __interface_wait_and_yield.maxchanends ? __interface_wait_and_yield.maxchanends $: _i.i2c_slave_callback_if._client_call_y.max.maxchanends)) $M 1
	.globl	_i.i2c_slave_callback_if._chan_yield.ack_write_request.maxchanends
	.weak	_i.i2c_slave_callback_if._chan_yield.ack_write_request.maxchanends
.Ltmp199:
	.size	_i.i2c_slave_callback_if._chan_yield.ack_write_request, .Ltmp199-_i.i2c_slave_callback_if._chan_yield.ack_write_request
	.cfi_endproc

	.weak	_i.i2c_slave_callback_if._chan_yield.start_write_request
	.align	4
	.type	_i.i2c_slave_callback_if._chan_yield.start_write_request,@function
	.cc_top _i.i2c_slave_callback_if._chan_yield.start_write_request.function,_i.i2c_slave_callback_if._chan_yield.start_write_request
_i.i2c_slave_callback_if._chan_yield.start_write_request: # @_i.i2c_slave_callback_if._chan_yield.start_write_request
	.cfi_startproc
	.issue_mode single
# BB#0:                                 # %allocas
	ENTSP_lu6 4
.Ltmp200:
	.cfi_def_cfa_offset 16
.Ltmp201:
	.cfi_offset 15, 0
	std r5, r4, sp[1]               # 4-byte Folded Spill
.Ltmp202:
	.cfi_offset 4, -8
.Ltmp203:
	.cfi_offset 5, -4
	#DEBUG_VALUE: _i.i2c_slave_callback_if._chan_yield.start_write_request:s <- R0
	ldw r1, r0[0]
	getr r4, 2
	setd res[r4], r1
	add r1, r4, 2
	out res[r4], r1
	outct res[r4], 2
	ldw r5, r0[1]
	mov r0, r4
	mov r1, r5
	bl __interface_wait_and_yield
	ldc r1, 0
	mov r0, r4
	mov r2, r5
	bl __interface_client_call_y
	chkct res[r4], 1
	freer res[r4]
	ldd r5, r4, sp[1]               # 4-byte Folded Reload
	retsp 4
	# RETURN_REG_HOLDER
	.cc_bottom _i.i2c_slave_callback_if._chan_yield.start_write_request.function
	.set	_i.i2c_slave_callback_if._chan_yield.start_write_request.nstackwords,((($D __interface_wait_and_yield.nstackwords ? __interface_wait_and_yield.nstackwords $: _i.i2c_slave_callback_if._client_call_y.max.nstackwords) $M _i.i2c_slave_callback_if._client_call_y.max.nstackwords $M ($D __interface_client_call_y.nstackwords ? __interface_client_call_y.nstackwords $: _i.i2c_slave_callback_if._client_call_y.max.nstackwords)) + 4)
	.globl	_i.i2c_slave_callback_if._chan_yield.start_write_request.nstackwords
	.weak	_i.i2c_slave_callback_if._chan_yield.start_write_request.nstackwords
	.set	_i.i2c_slave_callback_if._chan_yield.start_write_request.maxcores,($D __interface_client_call_y.maxcores ? __interface_client_call_y.maxcores $: _i.i2c_slave_callback_if._client_call_y.max.maxcores) $M ($D __interface_wait_and_yield.maxcores ? __interface_wait_and_yield.maxcores $: _i.i2c_slave_callback_if._client_call_y.max.maxcores) $M 1
	.globl	_i.i2c_slave_callback_if._chan_yield.start_write_request.maxcores
	.weak	_i.i2c_slave_callback_if._chan_yield.start_write_request.maxcores
	.set	_i.i2c_slave_callback_if._chan_yield.start_write_request.maxtimers,($D __interface_client_call_y.maxtimers ? __interface_client_call_y.maxtimers $: _i.i2c_slave_callback_if._client_call_y.max.maxtimers) $M ($D __interface_wait_and_yield.maxtimers ? __interface_wait_and_yield.maxtimers $: _i.i2c_slave_callback_if._client_call_y.max.maxtimers) $M 0
	.globl	_i.i2c_slave_callback_if._chan_yield.start_write_request.maxtimers
	.weak	_i.i2c_slave_callback_if._chan_yield.start_write_request.maxtimers
	.set	_i.i2c_slave_callback_if._chan_yield.start_write_request.maxchanends,(1 + ($D __interface_client_call_y.maxchanends ? __interface_client_call_y.maxchanends $: _i.i2c_slave_callback_if._client_call_y.max.maxchanends)) $M (1 + ($D __interface_wait_and_yield.maxchanends ? __interface_wait_and_yield.maxchanends $: _i.i2c_slave_callback_if._client_call_y.max.maxchanends)) $M 1
	.globl	_i.i2c_slave_callback_if._chan_yield.start_write_request.maxchanends
	.weak	_i.i2c_slave_callback_if._chan_yield.start_write_request.maxchanends
.Ltmp204:
	.size	_i.i2c_slave_callback_if._chan_yield.start_write_request, .Ltmp204-_i.i2c_slave_callback_if._chan_yield.start_write_request
	.cfi_endproc

	.weak	_i.i2c_slave_callback_if._chan_yield.ack_read_request
	.align	4
	.type	_i.i2c_slave_callback_if._chan_yield.ack_read_request,@function
	.cc_top _i.i2c_slave_callback_if._chan_yield.ack_read_request.function,_i.i2c_slave_callback_if._chan_yield.ack_read_request
_i.i2c_slave_callback_if._chan_yield.ack_read_request: # @_i.i2c_slave_callback_if._chan_yield.ack_read_request
	.cfi_startproc
	.issue_mode single
# BB#0:                                 # %allocas
	ENTSP_lu6 4
.Ltmp205:
	.cfi_def_cfa_offset 16
.Ltmp206:
	.cfi_offset 15, 0
	std r5, r4, sp[1]               # 4-byte Folded Spill
.Ltmp207:
	.cfi_offset 4, -8
.Ltmp208:
	.cfi_offset 5, -4
	#DEBUG_VALUE: _i.i2c_slave_callback_if._chan_yield.ack_read_request:s <- R0
	ldw r1, r0[0]
	getr r4, 2
	setd res[r4], r1
	add r1, r4, 1
	out res[r4], r1
	outct res[r4], 2
	ldw r5, r0[1]
	mov r0, r4
	mov r1, r5
	bl __interface_wait_and_yield
	ldc r1, 0
	mov r0, r4
	mov r2, r5
	bl __interface_client_call_y
	in r0, res[r4]
	chkct res[r4], 1
	freer res[r4]
	ldd r5, r4, sp[1]               # 4-byte Folded Reload
	retsp 4
	# RETURN_REG_HOLDER
	.cc_bottom _i.i2c_slave_callback_if._chan_yield.ack_read_request.function
	.set	_i.i2c_slave_callback_if._chan_yield.ack_read_request.nstackwords,((($D __interface_wait_and_yield.nstackwords ? __interface_wait_and_yield.nstackwords $: _i.i2c_slave_callback_if._client_call_y.max.nstackwords) $M _i.i2c_slave_callback_if._client_call_y.max.nstackwords $M ($D __interface_client_call_y.nstackwords ? __interface_client_call_y.nstackwords $: _i.i2c_slave_callback_if._client_call_y.max.nstackwords)) + 4)
	.globl	_i.i2c_slave_callback_if._chan_yield.ack_read_request.nstackwords
	.weak	_i.i2c_slave_callback_if._chan_yield.ack_read_request.nstackwords
	.set	_i.i2c_slave_callback_if._chan_yield.ack_read_request.maxcores,($D __interface_client_call_y.maxcores ? __interface_client_call_y.maxcores $: _i.i2c_slave_callback_if._client_call_y.max.maxcores) $M ($D __interface_wait_and_yield.maxcores ? __interface_wait_and_yield.maxcores $: _i.i2c_slave_callback_if._client_call_y.max.maxcores) $M 1
	.globl	_i.i2c_slave_callback_if._chan_yield.ack_read_request.maxcores
	.weak	_i.i2c_slave_callback_if._chan_yield.ack_read_request.maxcores
	.set	_i.i2c_slave_callback_if._chan_yield.ack_read_request.maxtimers,($D __interface_client_call_y.maxtimers ? __interface_client_call_y.maxtimers $: _i.i2c_slave_callback_if._client_call_y.max.maxtimers) $M ($D __interface_wait_and_yield.maxtimers ? __interface_wait_and_yield.maxtimers $: _i.i2c_slave_callback_if._client_call_y.max.maxtimers) $M 0
	.globl	_i.i2c_slave_callback_if._chan_yield.ack_read_request.maxtimers
	.weak	_i.i2c_slave_callback_if._chan_yield.ack_read_request.maxtimers
	.set	_i.i2c_slave_callback_if._chan_yield.ack_read_request.maxchanends,(1 + ($D __interface_client_call_y.maxchanends ? __interface_client_call_y.maxchanends $: _i.i2c_slave_callback_if._client_call_y.max.maxchanends)) $M (1 + ($D __interface_wait_and_yield.maxchanends ? __interface_wait_and_yield.maxchanends $: _i.i2c_slave_callback_if._client_call_y.max.maxchanends)) $M 1
	.globl	_i.i2c_slave_callback_if._chan_yield.ack_read_request.maxchanends
	.weak	_i.i2c_slave_callback_if._chan_yield.ack_read_request.maxchanends
.Ltmp209:
	.size	_i.i2c_slave_callback_if._chan_yield.ack_read_request, .Ltmp209-_i.i2c_slave_callback_if._chan_yield.ack_read_request
	.cfi_endproc

	.weak	_i.i2c_slave_callback_if._chan_yield.start_read_request
	.align	4
	.type	_i.i2c_slave_callback_if._chan_yield.start_read_request,@function
	.cc_top _i.i2c_slave_callback_if._chan_yield.start_read_request.function,_i.i2c_slave_callback_if._chan_yield.start_read_request
_i.i2c_slave_callback_if._chan_yield.start_read_request: # @_i.i2c_slave_callback_if._chan_yield.start_read_request
	.cfi_startproc
	.issue_mode single
# BB#0:                                 # %allocas
	ENTSP_lu6 4
.Ltmp210:
	.cfi_def_cfa_offset 16
.Ltmp211:
	.cfi_offset 15, 0
	std r5, r4, sp[1]               # 4-byte Folded Spill
.Ltmp212:
	.cfi_offset 4, -8
.Ltmp213:
	.cfi_offset 5, -4
	#DEBUG_VALUE: _i.i2c_slave_callback_if._chan_yield.start_read_request:s <- R0
	ldw r1, r0[0]
	getr r4, 2
	setd res[r4], r1
	out res[r4], r4
	outct res[r4], 2
	ldw r5, r0[1]
	mov r0, r4
	mov r1, r5
	bl __interface_wait_and_yield
	ldc r1, 0
	mov r0, r4
	mov r2, r5
	bl __interface_client_call_y
	chkct res[r4], 1
	freer res[r4]
	ldd r5, r4, sp[1]               # 4-byte Folded Reload
	retsp 4
	# RETURN_REG_HOLDER
	.cc_bottom _i.i2c_slave_callback_if._chan_yield.start_read_request.function
	.set	_i.i2c_slave_callback_if._chan_yield.start_read_request.nstackwords,((($D __interface_wait_and_yield.nstackwords ? __interface_wait_and_yield.nstackwords $: _i.i2c_slave_callback_if._client_call_y.max.nstackwords) $M _i.i2c_slave_callback_if._client_call_y.max.nstackwords $M ($D __interface_client_call_y.nstackwords ? __interface_client_call_y.nstackwords $: _i.i2c_slave_callback_if._client_call_y.max.nstackwords)) + 4)
	.globl	_i.i2c_slave_callback_if._chan_yield.start_read_request.nstackwords
	.weak	_i.i2c_slave_callback_if._chan_yield.start_read_request.nstackwords
	.set	_i.i2c_slave_callback_if._chan_yield.start_read_request.maxcores,($D __interface_client_call_y.maxcores ? __interface_client_call_y.maxcores $: _i.i2c_slave_callback_if._client_call_y.max.maxcores) $M ($D __interface_wait_and_yield.maxcores ? __interface_wait_and_yield.maxcores $: _i.i2c_slave_callback_if._client_call_y.max.maxcores) $M 1
	.globl	_i.i2c_slave_callback_if._chan_yield.start_read_request.maxcores
	.weak	_i.i2c_slave_callback_if._chan_yield.start_read_request.maxcores
	.set	_i.i2c_slave_callback_if._chan_yield.start_read_request.maxtimers,($D __interface_client_call_y.maxtimers ? __interface_client_call_y.maxtimers $: _i.i2c_slave_callback_if._client_call_y.max.maxtimers) $M ($D __interface_wait_and_yield.maxtimers ? __interface_wait_and_yield.maxtimers $: _i.i2c_slave_callback_if._client_call_y.max.maxtimers) $M 0
	.globl	_i.i2c_slave_callback_if._chan_yield.start_read_request.maxtimers
	.weak	_i.i2c_slave_callback_if._chan_yield.start_read_request.maxtimers
	.set	_i.i2c_slave_callback_if._chan_yield.start_read_request.maxchanends,(1 + ($D __interface_client_call_y.maxchanends ? __interface_client_call_y.maxchanends $: _i.i2c_slave_callback_if._client_call_y.max.maxchanends)) $M (1 + ($D __interface_wait_and_yield.maxchanends ? __interface_wait_and_yield.maxchanends $: _i.i2c_slave_callback_if._client_call_y.max.maxchanends)) $M 1
	.globl	_i.i2c_slave_callback_if._chan_yield.start_read_request.maxchanends
	.weak	_i.i2c_slave_callback_if._chan_yield.start_read_request.maxchanends
.Ltmp214:
	.size	_i.i2c_slave_callback_if._chan_yield.start_read_request, .Ltmp214-_i.i2c_slave_callback_if._chan_yield.start_read_request
	.cfi_endproc

	.globl	i2c_slave
	.align	4
	.type	i2c_slave,@function
	.cc_top i2c_slave.function,i2c_slave
i2c_slave:                              # @i2c_slave
.Lfunc_begin38:
	.loc	2 27 0                  # C:/Users/user/workspace/lib_i2c/src/i2c_slave.xc:27:0
	.cfi_startproc
	.issue_mode single
# BB#0:                                 # %allocas
.Lxtalabel0:
	ENTSP_lu6 20
.Ltmp215:
	.cfi_def_cfa_offset 80
.Ltmp216:
	.cfi_offset 15, 0
	std r5, r4, sp[6]               # 4-byte Folded Spill
.Ltmp217:
	.cfi_offset 4, -32
.Ltmp218:
	.cfi_offset 5, -28
	std r7, r6, sp[7]               # 4-byte Folded Spill
.Ltmp219:
	.cfi_offset 6, -24
.Ltmp220:
	.cfi_offset 7, -20
	std r9, r8, sp[8]               # 4-byte Folded Spill
.Ltmp221:
	.cfi_offset 8, -16
.Ltmp222:
	.cfi_offset 9, -12
	stw r10, sp[18]                 # 4-byte Folded Spill
.Ltmp223:
	.cfi_offset 10, -8
	#DEBUG_VALUE: i2c_slave:i <- R0
	#DEBUG_VALUE: i2c_slave:p_scl <- R1
	#DEBUG_VALUE: i2c_slave:p_sda <- R2
	#DEBUG_VALUE: i2c_slave:device_addr <- R3
	stw r3, sp[6]                   # 4-byte Folded Spill
.Ltmp224:
	#DEBUG_VALUE: i2c_slave:device_addr <- [SP+24]
	mov r6, r2
.Ltmp225:
	#DEBUG_VALUE: i2c_slave:p_sda <- R6
	mov r7, r1
.Ltmp226:
	#DEBUG_VALUE: i2c_slave:p_scl <- R7
	mov r10, r0
.Ltmp227:
	#DEBUG_VALUE: ignore_stop_bit <- 1
	#DEBUG_VALUE: stop_bit_check <- 0
	#DEBUG_VALUE: rw <- 0
	#DEBUG_VALUE: bitnum <- 0
	#DEBUG_VALUE: sda_val <- 0
	#DEBUG_VALUE: next_state <- 0
	#DEBUG_VALUE: state <- 0
	#DEBUG_VALUE: i2c_slave:i <- R10
	mkmsk r1, 1
	.loc	2 37 0 prologue_end     # C:/Users/user/workspace/lib_i2c/src/i2c_slave.xc:37:0
.Ltmp228:
	setd res[r6], r1
	.loc	2 37 0                  # C:/Users/user/workspace/lib_i2c/src/i2c_slave.xc:37:0
	setc res[r6], 17
	.loc	2 37 0                  # C:/Users/user/workspace/lib_i2c/src/i2c_slave.xc:37:0
.Ltmp229:
.Lxta.endpoint_labels0:
	in r0, res[r6]
	ldc r3, 0
.Ltmp230:
	#DEBUG_VALUE: i2c_slave:device_addr <- undef
	mov r0, r1
	stw r3, sp[10]                  # 4-byte Folded Spill
	stw r3, sp[7]                   # 4-byte Folded Spill
                                        # implicit-def: R1
	stw r1, sp[8]                   # 4-byte Folded Spill
	stw r3, sp[9]                   # 4-byte Folded Spill
                                        # implicit-def: R2
	stw r3, sp[11]                  # 4-byte Folded Spill
	mov r8, r3
	mov r1, r3
	bu .LBB38_1
.Ltmp231:
.LBB38_71:                              # %iffalse236
                                        #   in Loop: Header=BB38_1 Depth=1
.Lxtalabel1:
	#DEBUG_VALUE: i2c_slave:i <- R10
	#DEBUG_VALUE: i2c_slave:p_scl <- R7
	#DEBUG_VALUE: i2c_slave:p_sda <- R6
	#DEBUG_VALUE: i2c_slave:device_addr <- undef
	mov r0, r5
	stw r3, sp[10]                  # 4-byte Folded Spill
	stw r11, sp[8]                  # 4-byte Folded Spill
	stw r8, sp[9]                   # 4-byte Folded Spill
	mov r8, r9
	mov r1, r4
.Ltmp232:
.LBB38_1:                               # %LoopBody
                                        # =>This Inner Loop Header: Depth=1
.Lxtalabel2:
	#DEBUG_VALUE: i2c_slave:i <- R10
	#DEBUG_VALUE: i2c_slave:p_scl <- R7
	#DEBUG_VALUE: i2c_slave:p_sda <- R6
	#DEBUG_VALUE: i2c_slave:device_addr <- undef
	#DEBUG_VALUE: state <- 0
	#DEBUG_VALUE: next_state <- 0
	#DEBUG_VALUE: sda_val <- 0
	#DEBUG_VALUE: bitnum <- 0
	#DEBUG_VALUE: rw <- 0
	#DEBUG_VALUE: stop_bit_check <- 0
	#DEBUG_VALUE: ignore_stop_bit <- 1
	mov r9, r8
	mov r4, r2
	mov r5, r0
	.loc	2 39 5                  # C:/Users/user/workspace/lib_i2c/src/i2c_slave.xc:39:5
	clre
	.loc	2 39 5                  # C:/Users/user/workspace/lib_i2c/src/i2c_slave.xc:39:5
	ldw r0, r10[1]
	ldap r11, .Ltmp233
	.loc	2 39 5                  # C:/Users/user/workspace/lib_i2c/src/i2c_slave.xc:39:5
	setv res[r0], r11
	.loc	2 39 5                  # C:/Users/user/workspace/lib_i2c/src/i2c_slave.xc:39:5
	eeu res[r0]
	bf r1, .LBB38_3
.Ltmp234:
# BB#2:                                 # %selectguarddone
                                        #   in Loop: Header=BB38_1 Depth=1
	#DEBUG_VALUE: i2c_slave:i <- R10
	#DEBUG_VALUE: i2c_slave:p_scl <- R7
	#DEBUG_VALUE: i2c_slave:p_sda <- R6
	#DEBUG_VALUE: i2c_slave:device_addr <- undef
	#DEBUG_VALUE: state <- 0
	#DEBUG_VALUE: next_state <- 0
	#DEBUG_VALUE: sda_val <- 0
	#DEBUG_VALUE: bitnum <- 0
	#DEBUG_VALUE: rw <- 0
	#DEBUG_VALUE: stop_bit_check <- 0
	#DEBUG_VALUE: ignore_stop_bit <- 1
	.loc	2 39 5                  # C:/Users/user/workspace/lib_i2c/src/i2c_slave.xc:39:5
	setd res[r7], r4
	.loc	2 39 5                  # C:/Users/user/workspace/lib_i2c/src/i2c_slave.xc:39:5
	setc res[r7], 17
	ldap r11, .Ltmp235
	.loc	2 39 5                  # C:/Users/user/workspace/lib_i2c/src/i2c_slave.xc:39:5
	setv res[r7], r11
	.loc	2 39 5                  # C:/Users/user/workspace/lib_i2c/src/i2c_slave.xc:39:5
	eeu res[r7]
	.loc	2 39 5                  # C:/Users/user/workspace/lib_i2c/src/i2c_slave.xc:39:5
	ldw r2, sp[10]                  # 4-byte Folded Reload
	bf r2, .LBB38_4
.Ltmp236:
.LBB38_3:                               # %selectguardtrue10
                                        #   in Loop: Header=BB38_1 Depth=1
	#DEBUG_VALUE: i2c_slave:i <- R10
	#DEBUG_VALUE: i2c_slave:p_scl <- R7
	#DEBUG_VALUE: i2c_slave:p_sda <- R6
	#DEBUG_VALUE: i2c_slave:device_addr <- undef
	#DEBUG_VALUE: state <- 0
	#DEBUG_VALUE: next_state <- 0
	#DEBUG_VALUE: sda_val <- 0
	#DEBUG_VALUE: bitnum <- 0
	#DEBUG_VALUE: rw <- 0
	#DEBUG_VALUE: stop_bit_check <- 0
	#DEBUG_VALUE: ignore_stop_bit <- 1
	.loc	2 39 5                  # C:/Users/user/workspace/lib_i2c/src/i2c_slave.xc:39:5
	ldw r2, sp[11]                  # 4-byte Folded Reload
	setd res[r6], r2
	.loc	2 39 5                  # C:/Users/user/workspace/lib_i2c/src/i2c_slave.xc:39:5
	setc res[r6], 17
	ldap r11, .Ltmp237
	.loc	2 39 5                  # C:/Users/user/workspace/lib_i2c/src/i2c_slave.xc:39:5
	setv res[r6], r11
	.loc	2 39 5                  # C:/Users/user/workspace/lib_i2c/src/i2c_slave.xc:39:5
	eeu res[r6]
.Ltmp238:
.LBB38_4:                               # %selectguarddone11
                                        #   in Loop: Header=BB38_1 Depth=1
	#DEBUG_VALUE: i2c_slave:i <- R10
	#DEBUG_VALUE: i2c_slave:p_scl <- R7
	#DEBUG_VALUE: i2c_slave:p_sda <- R6
	#DEBUG_VALUE: i2c_slave:device_addr <- undef
	#DEBUG_VALUE: state <- 0
	#DEBUG_VALUE: next_state <- 0
	#DEBUG_VALUE: sda_val <- 0
	#DEBUG_VALUE: bitnum <- 0
	#DEBUG_VALUE: rw <- 0
	#DEBUG_VALUE: stop_bit_check <- 0
	#DEBUG_VALUE: ignore_stop_bit <- 1
	.loc	2 265 0                 # C:/Users/user/workspace/lib_i2c/src/i2c_slave.xc:265:0

	.xtabranch .LBB38_5, .LBB38_6, .LBB38_55
	waiteu
.Ltmp239:
.Ltmp235:                               # Block address taken
.LBB38_6:                               # %selectcase1
                                        #   in Loop: Header=BB38_1 Depth=1
.Lxtalabel3:
	#DEBUG_VALUE: i2c_slave:i <- R10
	#DEBUG_VALUE: i2c_slave:p_scl <- R7
	#DEBUG_VALUE: i2c_slave:p_sda <- R6
	#DEBUG_VALUE: i2c_slave:device_addr <- undef
	#DEBUG_VALUE: state <- 0
	#DEBUG_VALUE: next_state <- 0
	#DEBUG_VALUE: sda_val <- 0
	#DEBUG_VALUE: bitnum <- 0
	#DEBUG_VALUE: rw <- 0
	#DEBUG_VALUE: stop_bit_check <- 0
	#DEBUG_VALUE: ignore_stop_bit <- 1
	.loc	2 42 0                  # C:/Users/user/workspace/lib_i2c/src/i2c_slave.xc:42:0
.Lxta.endpoint_labels1:
	in r0, res[r7]
.Ltmp240:
	.loc	2 43 0                  # C:/Users/user/workspace/lib_i2c/src/i2c_slave.xc:43:0
	sub r3, r1, 1
	ldc r0, 6
	lsu r11, r0, r3
	mov r0, r5
	mov r2, r4
	mov r8, r9
	bt r11, .LBB38_1
.Ltmp241:
# BB#7:                                 # %selectcase1
                                        #   in Loop: Header=BB38_1 Depth=1
.Lxtalabel4:
	#DEBUG_VALUE: i2c_slave:i <- R10
	#DEBUG_VALUE: i2c_slave:p_scl <- R7
	#DEBUG_VALUE: i2c_slave:p_sda <- R6
	#DEBUG_VALUE: i2c_slave:device_addr <- undef

	.xtabranch .Ljumptable0+2,.Ljumptable0+4,.Ljumptable0+6,.Ljumptable0+8,.Ljumptable0+10,.Ljumptable0+12,.Ljumptable0+14
.Ljumptable0:
		
	bru r3
	.jmptable .LBB38_9,.LBB38_18,.LBB38_17,.LBB38_25,.LBB38_8,.LBB38_46,.LBB38_29
.Ltmp242:
.LBB38_9:                               # %switchcase
                                        #   in Loop: Header=BB38_1 Depth=1
.Lxtalabel5:
	#DEBUG_VALUE: i2c_slave:i <- R10
	#DEBUG_VALUE: i2c_slave:p_scl <- R7
	#DEBUG_VALUE: i2c_slave:p_sda <- R6
	#DEBUG_VALUE: i2c_slave:device_addr <- undef
	mov r0, r5
	mkmsk r1, 1
	mov r2, r1
	mov r8, r9
	bf r4, .LBB38_1
.Ltmp243:
# BB#10:                                # %ifdone20
                                        #   in Loop: Header=BB38_1 Depth=1
.Lxtalabel6:
	#DEBUG_VALUE: i2c_slave:i <- R10
	#DEBUG_VALUE: i2c_slave:p_scl <- R7
	#DEBUG_VALUE: i2c_slave:p_sda <- R6
	#DEBUG_VALUE: i2c_slave:device_addr <- undef
	.loc	2 52 0                  # C:/Users/user/workspace/lib_i2c/src/i2c_slave.xc:52:0
	setc res[r6], 1
	.loc	2 52 0                  # C:/Users/user/workspace/lib_i2c/src/i2c_slave.xc:52:0
.Lxta.endpoint_labels2:
	in r2, res[r6]
.Ltmp244:
	#DEBUG_VALUE: bit <- R2
	ldc r0, 6
	ldw r1, sp[9]                   # 4-byte Folded Reload
	.loc	2 53 9                  # C:/Users/user/workspace/lib_i2c/src/i2c_slave.xc:53:9
	lss r0, r0, r1
	bt r0, .LBB38_12
.Ltmp245:
# BB#11:                                # %iftrue26
                                        #   in Loop: Header=BB38_1 Depth=1
.Lxtalabel7:
	#DEBUG_VALUE: i2c_slave:i <- R10
	#DEBUG_VALUE: i2c_slave:p_scl <- R7
	#DEBUG_VALUE: i2c_slave:p_sda <- R6
	#DEBUG_VALUE: i2c_slave:device_addr <- undef
	#DEBUG_VALUE: bit <- R2
	.loc	2 54 0                  # C:/Users/user/workspace/lib_i2c/src/i2c_slave.xc:54:0
	ldw r0, sp[8]                   # 4-byte Folded Reload
	shl r0, r0, 1
	.loc	2 54 0                  # C:/Users/user/workspace/lib_i2c/src/i2c_slave.xc:54:0
	or r0, r2, r0
.Ltmp246:
	#DEBUG_VALUE: data <- [SP+32]
	.loc	2 55 0                  # C:/Users/user/workspace/lib_i2c/src/i2c_slave.xc:55:0
	stw r0, sp[8]                   # 4-byte Folded Spill
	add r1, r1, 1
.Ltmp247:
	#DEBUG_VALUE: scl_val <- 0
	#DEBUG_VALUE: bitnum <- R1
	stw r1, sp[9]                   # 4-byte Folded Spill
.Ltmp248:
	#DEBUG_VALUE: bitnum <- [SP+36]
	mov r0, r5
	ldc r2, 0
.Ltmp249:
	mov r8, r9
	mkmsk r1, 1
	bu .LBB38_1
.Ltmp250:
.Ltmp237:                               # Block address taken
.LBB38_55:                              # %selectcase3
                                        #   in Loop: Header=BB38_1 Depth=1
.Lxtalabel8:
	#DEBUG_VALUE: i2c_slave:i <- R10
	#DEBUG_VALUE: i2c_slave:p_scl <- R7
	#DEBUG_VALUE: i2c_slave:p_sda <- R6
	#DEBUG_VALUE: i2c_slave:device_addr <- undef
	#DEBUG_VALUE: state <- 0
	#DEBUG_VALUE: next_state <- 0
	#DEBUG_VALUE: sda_val <- 0
	#DEBUG_VALUE: bitnum <- 0
	#DEBUG_VALUE: rw <- 0
	#DEBUG_VALUE: stop_bit_check <- 0
	#DEBUG_VALUE: ignore_stop_bit <- 1
	.loc	2 235 0                 # C:/Users/user/workspace/lib_i2c/src/i2c_slave.xc:235:0
.Lxta.endpoint_labels3:
	in r0, res[r6]
.Ltmp251:
	.loc	2 236 7                 # C:/Users/user/workspace/lib_i2c/src/i2c_slave.xc:236:7
	ldw r0, sp[11]                  # 4-byte Folded Reload
	eq r0, r0, 1
	.loc	2 240 0                 # C:/Users/user/workspace/lib_i2c/src/i2c_slave.xc:240:0
.Ltmp252:
	setc res[r7], 1
	.loc	2 240 0                 # C:/Users/user/workspace/lib_i2c/src/i2c_slave.xc:240:0
	in r3, res[r7]
.Ltmp253:
	#DEBUG_VALUE: val <- R3
	#DEBUG_VALUE: val <- R3
	.loc	2 236 7                 # C:/Users/user/workspace/lib_i2c/src/i2c_slave.xc:236:7
	bf r0, .LBB38_59
.Ltmp254:
# BB#56:                                # %iftrue230
                                        #   in Loop: Header=BB38_1 Depth=1
.Lxtalabel9:
	#DEBUG_VALUE: i2c_slave:i <- R10
	#DEBUG_VALUE: i2c_slave:p_scl <- R7
	#DEBUG_VALUE: i2c_slave:p_sda <- R6
	#DEBUG_VALUE: i2c_slave:device_addr <- undef
	#DEBUG_VALUE: state <- 0
	#DEBUG_VALUE: next_state <- 0
	#DEBUG_VALUE: sda_val <- 0
	#DEBUG_VALUE: bitnum <- 0
	#DEBUG_VALUE: rw <- 0
	#DEBUG_VALUE: stop_bit_check <- 0
	#DEBUG_VALUE: ignore_stop_bit <- 1
	#DEBUG_VALUE: val <- R3
	mov r0, r5
	mov r2, r4
	ldc r11, 0
	stw r11, sp[11]                 # 4-byte Folded Spill
	mov r8, r9
	bf r3, .LBB38_1
.Ltmp255:
# BB#57:                                # %iftrue238
                                        #   in Loop: Header=BB38_1 Depth=1
.Lxtalabel10:
	#DEBUG_VALUE: i2c_slave:i <- R10
	#DEBUG_VALUE: i2c_slave:p_scl <- R7
	#DEBUG_VALUE: i2c_slave:p_sda <- R6
	#DEBUG_VALUE: i2c_slave:device_addr <- undef
	#DEBUG_VALUE: state <- 0
	#DEBUG_VALUE: next_state <- 0
	#DEBUG_VALUE: sda_val <- 0
	#DEBUG_VALUE: bitnum <- 0
	#DEBUG_VALUE: rw <- 0
	#DEBUG_VALUE: stop_bit_check <- 0
	#DEBUG_VALUE: ignore_stop_bit <- 1
	mkmsk r0, 1
	ldc r1, 0
	stw r1, sp[10]                  # 4-byte Folded Spill
	mov r2, r4
	stw r1, sp[11]                  # 4-byte Folded Spill
	mov r8, r9
	bt r5, .LBB38_1
.Ltmp256:
# BB#58:                                # %iftrue241
                                        #   in Loop: Header=BB38_1 Depth=1
.Lxtalabel11:
	#DEBUG_VALUE: i2c_slave:i <- R10
	#DEBUG_VALUE: i2c_slave:p_scl <- R7
	#DEBUG_VALUE: i2c_slave:p_sda <- R6
	#DEBUG_VALUE: i2c_slave:device_addr <- undef
	#DEBUG_VALUE: state <- 0
	#DEBUG_VALUE: next_state <- 0
	#DEBUG_VALUE: sda_val <- 0
	#DEBUG_VALUE: bitnum <- 0
	#DEBUG_VALUE: rw <- 0
	#DEBUG_VALUE: stop_bit_check <- 0
	#DEBUG_VALUE: ignore_stop_bit <- 1
	.loc	2 243 0                 # C:/Users/user/workspace/lib_i2c/src/i2c_slave.xc:243:0
	ldw r0, r10[0]
	.loc	2 243 0                 # C:/Users/user/workspace/lib_i2c/src/i2c_slave.xc:243:0
	ldw r1, r10[3]
	.loc	2 243 0                 # C:/Users/user/workspace/lib_i2c/src/i2c_slave.xc:243:0
	ldw r1, r1[8]
	.loc	2 243 0                 # C:/Users/user/workspace/lib_i2c/src/i2c_slave.xc:243:0
.Lxta.call_labels0:
	bla r1
	mkmsk r0, 1
	ldc r1, 0
	stw r1, sp[10]                  # 4-byte Folded Spill
	mov r2, r4
	stw r1, sp[11]                  # 4-byte Folded Spill
	mov r8, r9
	bu .LBB38_1
.Ltmp257:
.LBB38_59:                              # %iffalse236
                                        #   in Loop: Header=BB38_1 Depth=1
.Lxtalabel12:
	#DEBUG_VALUE: i2c_slave:i <- R10
	#DEBUG_VALUE: i2c_slave:p_scl <- R7
	#DEBUG_VALUE: i2c_slave:p_sda <- R6
	#DEBUG_VALUE: i2c_slave:device_addr <- undef
	#DEBUG_VALUE: state <- 0
	#DEBUG_VALUE: next_state <- 0
	#DEBUG_VALUE: sda_val <- 0
	#DEBUG_VALUE: bitnum <- 0
	#DEBUG_VALUE: rw <- 0
	#DEBUG_VALUE: stop_bit_check <- 0
	#DEBUG_VALUE: ignore_stop_bit <- 1
	#DEBUG_VALUE: val <- R3
	.loc	2 255 9                 # C:/Users/user/workspace/lib_i2c/src/i2c_slave.xc:255:9
	eq r0, r3, 1
	ldc r2, 0
	.loc	2 260 0                 # C:/Users/user/workspace/lib_i2c/src/i2c_slave.xc:260:0
	mov r3, r2
.Ltmp258:
	bt r0, .LBB38_61
.Ltmp259:
# BB#60:                                # %iffalse236
                                        #   in Loop: Header=BB38_1 Depth=1
.Lxtalabel13:
	#DEBUG_VALUE: i2c_slave:i <- R10
	#DEBUG_VALUE: i2c_slave:p_scl <- R7
	#DEBUG_VALUE: i2c_slave:p_sda <- R6
	#DEBUG_VALUE: i2c_slave:device_addr <- undef
	#DEBUG_VALUE: state <- 0
	#DEBUG_VALUE: next_state <- 0
	#DEBUG_VALUE: sda_val <- 0
	#DEBUG_VALUE: bitnum <- 0
	#DEBUG_VALUE: rw <- 0
	#DEBUG_VALUE: stop_bit_check <- 0
	#DEBUG_VALUE: ignore_stop_bit <- 1
	ldw r3, sp[10]                  # 4-byte Folded Reload
.Ltmp260:
.LBB38_61:                              # %iffalse236
                                        #   in Loop: Header=BB38_1 Depth=1
.Lxtalabel14:
	#DEBUG_VALUE: i2c_slave:i <- R10
	#DEBUG_VALUE: i2c_slave:p_scl <- R7
	#DEBUG_VALUE: i2c_slave:p_sda <- R6
	#DEBUG_VALUE: i2c_slave:device_addr <- undef
	#DEBUG_VALUE: state <- 0
	#DEBUG_VALUE: next_state <- 0
	#DEBUG_VALUE: sda_val <- 0
	#DEBUG_VALUE: bitnum <- 0
	#DEBUG_VALUE: rw <- 0
	#DEBUG_VALUE: stop_bit_check <- 0
	#DEBUG_VALUE: ignore_stop_bit <- 1
	.loc	2 260 0                 # C:/Users/user/workspace/lib_i2c/src/i2c_slave.xc:260:0
	mov r11, r2
	bt r0, .LBB38_63
.Ltmp261:
# BB#62:                                # %iffalse236
                                        #   in Loop: Header=BB38_1 Depth=1
.Lxtalabel15:
	#DEBUG_VALUE: i2c_slave:i <- R10
	#DEBUG_VALUE: i2c_slave:p_scl <- R7
	#DEBUG_VALUE: i2c_slave:p_sda <- R6
	#DEBUG_VALUE: i2c_slave:device_addr <- undef
	#DEBUG_VALUE: state <- 0
	#DEBUG_VALUE: next_state <- 0
	#DEBUG_VALUE: sda_val <- 0
	#DEBUG_VALUE: bitnum <- 0
	#DEBUG_VALUE: rw <- 0
	#DEBUG_VALUE: stop_bit_check <- 0
	#DEBUG_VALUE: ignore_stop_bit <- 1
	ldw r11, sp[8]                  # 4-byte Folded Reload
.Ltmp262:
.LBB38_63:                              # %iffalse236
                                        #   in Loop: Header=BB38_1 Depth=1
.Lxtalabel16:
	#DEBUG_VALUE: i2c_slave:i <- R10
	#DEBUG_VALUE: i2c_slave:p_scl <- R7
	#DEBUG_VALUE: i2c_slave:p_sda <- R6
	#DEBUG_VALUE: i2c_slave:device_addr <- undef
	#DEBUG_VALUE: state <- 0
	#DEBUG_VALUE: next_state <- 0
	#DEBUG_VALUE: sda_val <- 0
	#DEBUG_VALUE: bitnum <- 0
	#DEBUG_VALUE: rw <- 0
	#DEBUG_VALUE: stop_bit_check <- 0
	#DEBUG_VALUE: ignore_stop_bit <- 1
	.loc	2 260 0                 # C:/Users/user/workspace/lib_i2c/src/i2c_slave.xc:260:0
	mov r8, r2
	bt r0, .LBB38_65
.Ltmp263:
# BB#64:                                # %iffalse236
                                        #   in Loop: Header=BB38_1 Depth=1
.Lxtalabel17:
	#DEBUG_VALUE: i2c_slave:i <- R10
	#DEBUG_VALUE: i2c_slave:p_scl <- R7
	#DEBUG_VALUE: i2c_slave:p_sda <- R6
	#DEBUG_VALUE: i2c_slave:device_addr <- undef
	#DEBUG_VALUE: state <- 0
	#DEBUG_VALUE: next_state <- 0
	#DEBUG_VALUE: sda_val <- 0
	#DEBUG_VALUE: bitnum <- 0
	#DEBUG_VALUE: rw <- 0
	#DEBUG_VALUE: stop_bit_check <- 0
	#DEBUG_VALUE: ignore_stop_bit <- 1
	ldw r8, sp[9]                   # 4-byte Folded Reload
.Ltmp264:
.LBB38_65:                              # %iffalse236
                                        #   in Loop: Header=BB38_1 Depth=1
.Lxtalabel18:
	#DEBUG_VALUE: i2c_slave:i <- R10
	#DEBUG_VALUE: i2c_slave:p_scl <- R7
	#DEBUG_VALUE: i2c_slave:p_sda <- R6
	#DEBUG_VALUE: i2c_slave:device_addr <- undef
	#DEBUG_VALUE: state <- 0
	#DEBUG_VALUE: next_state <- 0
	#DEBUG_VALUE: sda_val <- 0
	#DEBUG_VALUE: bitnum <- 0
	#DEBUG_VALUE: rw <- 0
	#DEBUG_VALUE: stop_bit_check <- 0
	#DEBUG_VALUE: ignore_stop_bit <- 1
	bt r0, .LBB38_67
.Ltmp265:
# BB#66:                                # %iffalse236
                                        #   in Loop: Header=BB38_1 Depth=1
.Lxtalabel19:
	#DEBUG_VALUE: i2c_slave:i <- R10
	#DEBUG_VALUE: i2c_slave:p_scl <- R7
	#DEBUG_VALUE: i2c_slave:p_sda <- R6
	#DEBUG_VALUE: i2c_slave:device_addr <- undef
	#DEBUG_VALUE: state <- 0
	#DEBUG_VALUE: next_state <- 0
	#DEBUG_VALUE: sda_val <- 0
	#DEBUG_VALUE: bitnum <- 0
	#DEBUG_VALUE: rw <- 0
	#DEBUG_VALUE: stop_bit_check <- 0
	#DEBUG_VALUE: ignore_stop_bit <- 1
	.loc	2 260 0                 # C:/Users/user/workspace/lib_i2c/src/i2c_slave.xc:260:0
	mov r2, r4
.Ltmp266:
.LBB38_67:                              # %iffalse236
                                        #   in Loop: Header=BB38_1 Depth=1
.Lxtalabel20:
	#DEBUG_VALUE: i2c_slave:i <- R10
	#DEBUG_VALUE: i2c_slave:p_scl <- R7
	#DEBUG_VALUE: i2c_slave:p_sda <- R6
	#DEBUG_VALUE: i2c_slave:device_addr <- undef
	#DEBUG_VALUE: state <- 0
	#DEBUG_VALUE: next_state <- 0
	#DEBUG_VALUE: sda_val <- 0
	#DEBUG_VALUE: bitnum <- 0
	#DEBUG_VALUE: rw <- 0
	#DEBUG_VALUE: stop_bit_check <- 0
	#DEBUG_VALUE: ignore_stop_bit <- 1
	bt r0, .LBB38_69
.Ltmp267:
# BB#68:                                # %iffalse236
                                        #   in Loop: Header=BB38_1 Depth=1
.Lxtalabel21:
	#DEBUG_VALUE: i2c_slave:i <- R10
	#DEBUG_VALUE: i2c_slave:p_scl <- R7
	#DEBUG_VALUE: i2c_slave:p_sda <- R6
	#DEBUG_VALUE: i2c_slave:device_addr <- undef
	#DEBUG_VALUE: state <- 0
	#DEBUG_VALUE: next_state <- 0
	#DEBUG_VALUE: sda_val <- 0
	#DEBUG_VALUE: bitnum <- 0
	#DEBUG_VALUE: rw <- 0
	#DEBUG_VALUE: stop_bit_check <- 0
	#DEBUG_VALUE: ignore_stop_bit <- 1
	mkmsk r4, 1
	.loc	2 260 0                 # C:/Users/user/workspace/lib_i2c/src/i2c_slave.xc:260:0
	stw r4, sp[11]                  # 4-byte Folded Spill
.Ltmp268:
.LBB38_69:                              # %iffalse236
                                        #   in Loop: Header=BB38_1 Depth=1
.Lxtalabel22:
	#DEBUG_VALUE: i2c_slave:i <- R10
	#DEBUG_VALUE: i2c_slave:p_scl <- R7
	#DEBUG_VALUE: i2c_slave:p_sda <- R6
	#DEBUG_VALUE: i2c_slave:device_addr <- undef
	mkmsk r4, 1
	bt r0, .LBB38_71
.Ltmp269:
# BB#70:                                # %iffalse236
                                        #   in Loop: Header=BB38_1 Depth=1
.Lxtalabel23:
	#DEBUG_VALUE: i2c_slave:i <- R10
	#DEBUG_VALUE: i2c_slave:p_scl <- R7
	#DEBUG_VALUE: i2c_slave:p_sda <- R6
	#DEBUG_VALUE: i2c_slave:device_addr <- undef
	mov r4, r1
	bu .LBB38_71
.Ltmp270:
.LBB38_18:                              # %switchcase43
                                        #   in Loop: Header=BB38_1 Depth=1
.Lxtalabel24:
	#DEBUG_VALUE: i2c_slave:i <- R10
	#DEBUG_VALUE: i2c_slave:p_scl <- R7
	#DEBUG_VALUE: i2c_slave:p_sda <- R6
	#DEBUG_VALUE: i2c_slave:device_addr <- undef
	ldc r2, 0
	.loc	2 79 19                 # C:/Users/user/workspace/lib_i2c/src/i2c_slave.xc:79:19
.Lxta.endpoint_labels4:
	out res[r7], r2
	.loc	2 85 0                  # C:/Users/user/workspace/lib_i2c/src/i2c_slave.xc:85:0
.Ltmp271:
	ldw r0, r10[0]
	.loc	2 85 0                  # C:/Users/user/workspace/lib_i2c/src/i2c_slave.xc:85:0
	ldw r1, r10[3]
	.loc	2 84 9                  # C:/Users/user/workspace/lib_i2c/src/i2c_slave.xc:84:9
	ldw r3, sp[7]                   # 4-byte Folded Reload
	bf r3, .LBB38_72
.Ltmp272:
# BB#19:                                # %iftrue47
                                        #   in Loop: Header=BB38_1 Depth=1
.Lxtalabel25:
	#DEBUG_VALUE: i2c_slave:i <- R10
	#DEBUG_VALUE: i2c_slave:p_scl <- R7
	#DEBUG_VALUE: i2c_slave:p_sda <- R6
	#DEBUG_VALUE: i2c_slave:device_addr <- undef
	.loc	2 85 0                  # C:/Users/user/workspace/lib_i2c/src/i2c_slave.xc:85:0
	ldw r1, r1[0]
	mov r4, r2
	.loc	2 85 0                  # C:/Users/user/workspace/lib_i2c/src/i2c_slave.xc:85:0
.Lxta.call_labels1:
	bla r1
	.loc	2 86 0                  # C:/Users/user/workspace/lib_i2c/src/i2c_slave.xc:86:0
	ldw r0, r10[0]
	.loc	2 86 0                  # C:/Users/user/workspace/lib_i2c/src/i2c_slave.xc:86:0
	ldw r1, r10[3]
	.loc	2 86 0                  # C:/Users/user/workspace/lib_i2c/src/i2c_slave.xc:86:0
	ldw r1, r1[1]
	bu .LBB38_20
.Ltmp273:
.LBB38_17:                              # %switchcase45
                                        #   in Loop: Header=BB38_1 Depth=1
.Lxtalabel26:
	#DEBUG_VALUE: i2c_slave:i <- R10
	#DEBUG_VALUE: i2c_slave:p_scl <- R7
	#DEBUG_VALUE: i2c_slave:p_sda <- R6
	#DEBUG_VALUE: i2c_slave:device_addr <- undef
	#DEBUG_VALUE: state <- 4
	#DEBUG_VALUE: scl_val <- 0
	mov r0, r5
	ldc r2, 0
	mov r8, r9
	ldc r1, 4
	bu .LBB38_1
.Ltmp274:
.LBB38_25:                              # %switchcase85
                                        #   in Loop: Header=BB38_1 Depth=1
.Lxtalabel27:
	#DEBUG_VALUE: i2c_slave:i <- R10
	#DEBUG_VALUE: i2c_slave:p_scl <- R7
	#DEBUG_VALUE: i2c_slave:p_sda <- R6
	#DEBUG_VALUE: i2c_slave:device_addr <- undef
	.loc	2 123 0                 # C:/Users/user/workspace/lib_i2c/src/i2c_slave.xc:123:0
	setc res[r6], 1
	.loc	2 123 0                 # C:/Users/user/workspace/lib_i2c/src/i2c_slave.xc:123:0
.Ltmp275:
.Lxta.endpoint_labels5:
	in r0, res[r6]
	.loc	2 124 9                 # C:/Users/user/workspace/lib_i2c/src/i2c_slave.xc:124:9
	eq r3, r9, 7
	mov r0, r5
	ldc r1, 0
	stw r1, sp[9]                   # 4-byte Folded Spill
	mov r2, r1
	mkmsk r1, 3
	mov r8, r1
	bt r3, .LBB38_1
.Ltmp276:
# BB#26:                                # %switchcase85
                                        #   in Loop: Header=BB38_1 Depth=1
.Lxtalabel28:
	#DEBUG_VALUE: i2c_slave:i <- R10
	#DEBUG_VALUE: i2c_slave:p_scl <- R7
	#DEBUG_VALUE: i2c_slave:p_sda <- R6
	#DEBUG_VALUE: i2c_slave:device_addr <- undef
	eq r0, r9, 6
	bf r0, .LBB38_28
.Ltmp277:
# BB#27:                                # %iftrue96
                                        #   in Loop: Header=BB38_1 Depth=1
.Lxtalabel29:
	#DEBUG_VALUE: i2c_slave:i <- R10
	#DEBUG_VALUE: i2c_slave:p_scl <- R7
	#DEBUG_VALUE: i2c_slave:p_sda <- R6
	#DEBUG_VALUE: i2c_slave:device_addr <- undef
	#DEBUG_VALUE: scl_val <- 1
	#DEBUG_VALUE: data <- 0
	mov r0, r5
	ldc r1, 0
	stw r1, sp[8]                   # 4-byte Folded Spill
	stw r1, sp[9]                   # 4-byte Folded Spill
	mkmsk r2, 1
	ldc r1, 6
	mov r8, r1
	bu .LBB38_1
.Ltmp278:
.LBB38_8:                               # %switchcase18
                                        #   in Loop: Header=BB38_1 Depth=1
.Lxtalabel30:
	#DEBUG_VALUE: i2c_slave:i <- R10
	#DEBUG_VALUE: i2c_slave:p_scl <- R7
	#DEBUG_VALUE: i2c_slave:p_sda <- R6
	#DEBUG_VALUE: i2c_slave:device_addr <- undef
	#DEBUG_VALUE: state <- 3
	#DEBUG_VALUE: next_state <- 0
	#DEBUG_VALUE: scl_val <- 1
	mov r0, r5
	mkmsk r2, 1
	ldc r8, 0
	mkmsk r1, 2
	bu .LBB38_1
.Ltmp279:
.LBB38_46:                              # %switchcase105
                                        #   in Loop: Header=BB38_1 Depth=1
.Lxtalabel31:
	#DEBUG_VALUE: i2c_slave:i <- R10
	#DEBUG_VALUE: i2c_slave:p_scl <- R7
	#DEBUG_VALUE: i2c_slave:p_sda <- R6
	#DEBUG_VALUE: i2c_slave:device_addr <- undef
	.loc	2 187 9                 # C:/Users/user/workspace/lib_i2c/src/i2c_slave.xc:187:9
	eq r0, r4, 1
	.loc	2 187 9                 # C:/Users/user/workspace/lib_i2c/src/i2c_slave.xc:187:9
	bf r0, .LBB38_50
.Ltmp280:
# BB#47:                                # %iftrue169
                                        #   in Loop: Header=BB38_1 Depth=1
.Lxtalabel32:
	#DEBUG_VALUE: i2c_slave:i <- R10
	#DEBUG_VALUE: i2c_slave:p_scl <- R7
	#DEBUG_VALUE: i2c_slave:p_sda <- R6
	#DEBUG_VALUE: i2c_slave:device_addr <- undef
	.loc	2 190 0                 # C:/Users/user/workspace/lib_i2c/src/i2c_slave.xc:190:0
	setc res[r6], 1
	.loc	2 190 0                 # C:/Users/user/workspace/lib_i2c/src/i2c_slave.xc:190:0
.Lxta.endpoint_labels6:
	in r2, res[r6]
.Ltmp281:
	#DEBUG_VALUE: bit <- R2
	.loc	2 191 0                 # C:/Users/user/workspace/lib_i2c/src/i2c_slave.xc:191:0
	ldw r0, sp[8]                   # 4-byte Folded Reload
	shl r0, r0, 1
	.loc	2 191 0                 # C:/Users/user/workspace/lib_i2c/src/i2c_slave.xc:191:0
	mov r1, r2
	zext r1, 1
	ldw r3, sp[9]                   # 4-byte Folded Reload
	bt r3, .LBB38_49
.Ltmp282:
# BB#48:                                # %iftrue182
                                        #   in Loop: Header=BB38_1 Depth=1
.Lxtalabel33:
	#DEBUG_VALUE: i2c_slave:i <- R10
	#DEBUG_VALUE: i2c_slave:p_scl <- R7
	#DEBUG_VALUE: i2c_slave:p_sda <- R6
	#DEBUG_VALUE: i2c_slave:device_addr <- undef
	#DEBUG_VALUE: bit <- R2
	.loc	2 193 13                # C:/Users/user/workspace/lib_i2c/src/i2c_slave.xc:193:13
	eq r2, r2, 0
.Ltmp283:
	stw r2, sp[11]                  # 4-byte Folded Spill
	mkmsk r2, 1
	stw r2, sp[10]                  # 4-byte Folded Spill
.Ltmp284:
.LBB38_49:                              # %ifdone183
                                        #   in Loop: Header=BB38_1 Depth=1
.Lxtalabel34:
	#DEBUG_VALUE: i2c_slave:i <- R10
	#DEBUG_VALUE: i2c_slave:p_scl <- R7
	#DEBUG_VALUE: i2c_slave:p_sda <- R6
	#DEBUG_VALUE: i2c_slave:device_addr <- undef
	.loc	2 191 0                 # C:/Users/user/workspace/lib_i2c/src/i2c_slave.xc:191:0
	or r0, r1, r0
.Ltmp285:
	#DEBUG_VALUE: data <- [SP+32]
	#DEBUG_VALUE: scl_val <- 0
	.loc	2 202 0                 # C:/Users/user/workspace/lib_i2c/src/i2c_slave.xc:202:0
	stw r0, sp[8]                   # 4-byte Folded Spill
	add r3, r3, 1
.Ltmp286:
	#DEBUG_VALUE: bitnum <- R3
	stw r3, sp[9]                   # 4-byte Folded Spill
.Ltmp287:
	#DEBUG_VALUE: bitnum <- [SP+36]
	mov r0, r5
	ldc r2, 0
	mov r8, r9
	ldc r1, 6
	bu .LBB38_1
.Ltmp288:
.LBB38_29:                              # %switchcase87
                                        #   in Loop: Header=BB38_1 Depth=1
.Lxtalabel35:
	#DEBUG_VALUE: i2c_slave:i <- R10
	#DEBUG_VALUE: i2c_slave:p_scl <- R7
	#DEBUG_VALUE: i2c_slave:p_sda <- R6
	#DEBUG_VALUE: i2c_slave:device_addr <- undef
	.loc	2 137 9                 # C:/Users/user/workspace/lib_i2c/src/i2c_slave.xc:137:9
	eq r0, r4, 1
	.loc	2 137 9                 # C:/Users/user/workspace/lib_i2c/src/i2c_slave.xc:137:9
	bf r0, .LBB38_39
.Ltmp289:
# BB#30:                                # %iftrue106
                                        #   in Loop: Header=BB38_1 Depth=1
.Lxtalabel36:
	#DEBUG_VALUE: i2c_slave:i <- R10
	#DEBUG_VALUE: i2c_slave:p_scl <- R7
	#DEBUG_VALUE: i2c_slave:p_sda <- R6
	#DEBUG_VALUE: i2c_slave:device_addr <- undef
	ldw r2, sp[9]                   # 4-byte Folded Reload
	.loc	2 139 11                # C:/Users/user/workspace/lib_i2c/src/i2c_slave.xc:139:11
	eq r0, r2, 8
	ldc r1, 0
	.loc	2 139 11                # C:/Users/user/workspace/lib_i2c/src/i2c_slave.xc:139:11
	bf r0, .LBB38_38
.Ltmp290:
# BB#31:                                # %iftrue113
                                        #   in Loop: Header=BB38_1 Depth=1
.Lxtalabel37:
	#DEBUG_VALUE: i2c_slave:i <- R10
	#DEBUG_VALUE: i2c_slave:p_scl <- R7
	#DEBUG_VALUE: i2c_slave:p_sda <- R6
	#DEBUG_VALUE: i2c_slave:device_addr <- undef
	.loc	2 142 0                 # C:/Users/user/workspace/lib_i2c/src/i2c_slave.xc:142:0
	setc res[r6], 1
	.loc	2 142 0                 # C:/Users/user/workspace/lib_i2c/src/i2c_slave.xc:142:0
.Lxta.endpoint_labels7:
	in r0, res[r6]
.Ltmp291:
	#DEBUG_VALUE: bit <- R0
	ldc r2, 8
	bt r0, .LBB38_33
.Ltmp292:
# BB#32:                                # %iftrue113
                                        #   in Loop: Header=BB38_1 Depth=1
.Lxtalabel38:
	#DEBUG_VALUE: i2c_slave:i <- R10
	#DEBUG_VALUE: i2c_slave:p_scl <- R7
	#DEBUG_VALUE: i2c_slave:p_sda <- R6
	#DEBUG_VALUE: i2c_slave:device_addr <- undef
	#DEBUG_VALUE: bit <- R0
	.loc	2 149 0                 # C:/Users/user/workspace/lib_i2c/src/i2c_slave.xc:149:0
	mov r2, r1
.Ltmp293:
.LBB38_33:                              # %iftrue113
                                        #   in Loop: Header=BB38_1 Depth=1
.Lxtalabel39:
	#DEBUG_VALUE: i2c_slave:i <- R10
	#DEBUG_VALUE: i2c_slave:p_scl <- R7
	#DEBUG_VALUE: i2c_slave:p_sda <- R6
	#DEBUG_VALUE: i2c_slave:device_addr <- undef
	#DEBUG_VALUE: bit <- R0
	.loc	2 149 0                 # C:/Users/user/workspace/lib_i2c/src/i2c_slave.xc:149:0
	mov r3, r1
	bt r0, .LBB38_35
.Ltmp294:
# BB#34:                                # %iftrue113
                                        #   in Loop: Header=BB38_1 Depth=1
.Lxtalabel40:
	#DEBUG_VALUE: i2c_slave:i <- R10
	#DEBUG_VALUE: i2c_slave:p_scl <- R7
	#DEBUG_VALUE: i2c_slave:p_sda <- R6
	#DEBUG_VALUE: i2c_slave:device_addr <- undef
	#DEBUG_VALUE: bit <- R0
	ldw r3, sp[11]                  # 4-byte Folded Reload
.Ltmp295:
.LBB38_35:                              # %iftrue113
                                        #   in Loop: Header=BB38_1 Depth=1
.Lxtalabel41:
	#DEBUG_VALUE: i2c_slave:i <- R10
	#DEBUG_VALUE: i2c_slave:p_scl <- R7
	#DEBUG_VALUE: i2c_slave:p_sda <- R6
	#DEBUG_VALUE: i2c_slave:device_addr <- undef
	#DEBUG_VALUE: bit <- R0
	stw r2, sp[9]                   # 4-byte Folded Spill
	.loc	2 149 0                 # C:/Users/user/workspace/lib_i2c/src/i2c_slave.xc:149:0
	eq r2, r0, 0
	bt r0, .LBB38_37
.Ltmp296:
# BB#36:                                # %iftrue113
                                        #   in Loop: Header=BB38_1 Depth=1
.Lxtalabel42:
	#DEBUG_VALUE: i2c_slave:i <- R10
	#DEBUG_VALUE: i2c_slave:p_scl <- R7
	#DEBUG_VALUE: i2c_slave:p_sda <- R6
	#DEBUG_VALUE: i2c_slave:device_addr <- undef
	mkmsk r1, 3
.Ltmp297:
.LBB38_37:                              # %iftrue113
                                        #   in Loop: Header=BB38_1 Depth=1
.Lxtalabel43:
	#DEBUG_VALUE: i2c_slave:i <- R10
	#DEBUG_VALUE: i2c_slave:p_scl <- R7
	#DEBUG_VALUE: i2c_slave:p_sda <- R6
	#DEBUG_VALUE: i2c_slave:device_addr <- undef
	eq r2, r2, 0
	mov r0, r5
	stw r3, sp[11]                  # 4-byte Folded Spill
	mov r8, r9
	bu .LBB38_1
.Ltmp298:
.LBB38_50:                              # %iffalse175
                                        #   in Loop: Header=BB38_1 Depth=1
.Lxtalabel44:
	#DEBUG_VALUE: i2c_slave:i <- R10
	#DEBUG_VALUE: i2c_slave:p_scl <- R7
	#DEBUG_VALUE: i2c_slave:p_sda <- R6
	#DEBUG_VALUE: i2c_slave:device_addr <- undef
	#DEBUG_VALUE: stop_bit_check <- 0
	.loc	2 209 11                # C:/Users/user/workspace/lib_i2c/src/i2c_slave.xc:209:11
	ldw r0, sp[9]                   # 4-byte Folded Reload
	eq r3, r0, 8
	mov r0, r5
	ldc r1, 0
	stw r1, sp[10]                  # 4-byte Folded Spill
	mkmsk r2, 1
	mov r8, r9
	ldc r1, 6
	bf r3, .LBB38_1
.Ltmp299:
# BB#51:                                # %iftrue195
                                        #   in Loop: Header=BB38_1 Depth=1
.Lxtalabel45:
	#DEBUG_VALUE: i2c_slave:i <- R10
	#DEBUG_VALUE: i2c_slave:p_scl <- R7
	#DEBUG_VALUE: i2c_slave:p_sda <- R6
	#DEBUG_VALUE: i2c_slave:device_addr <- undef
	#DEBUG_VALUE: stop_bit_check <- 0
	ldc r4, 0
	.loc	2 211 23                # C:/Users/user/workspace/lib_i2c/src/i2c_slave.xc:211:23
.Lxta.endpoint_labels8:
	out res[r7], r4
	.loc	2 212 0                 # C:/Users/user/workspace/lib_i2c/src/i2c_slave.xc:212:0
	ldw r0, r10[0]
	.loc	2 212 0                 # C:/Users/user/workspace/lib_i2c/src/i2c_slave.xc:212:0
	ldw r1, r10[3]
	.loc	2 212 0                 # C:/Users/user/workspace/lib_i2c/src/i2c_slave.xc:212:0
	ldw r1, r1[6]
	.loc	2 212 0                 # C:/Users/user/workspace/lib_i2c/src/i2c_slave.xc:212:0
.Lxta.call_labels2:
	bla r1
	.loc	2 213 0                 # C:/Users/user/workspace/lib_i2c/src/i2c_slave.xc:213:0
.Ltmp300:
	ldw r0, r10[0]
	.loc	2 213 0                 # C:/Users/user/workspace/lib_i2c/src/i2c_slave.xc:213:0
	ldw r1, r10[3]
	.loc	2 213 0                 # C:/Users/user/workspace/lib_i2c/src/i2c_slave.xc:213:0
	ldw r2, r1[7]
	.loc	2 213 0                 # C:/Users/user/workspace/lib_i2c/src/i2c_slave.xc:213:0
	ldw r1, sp[8]                   # 4-byte Folded Reload
	zext r1, 8
.Lxta.call_labels3:
	bla r2
.Ltmp301:
	#DEBUG_VALUE: ack <- R0
	.loc	2 214 13                # C:/Users/user/workspace/lib_i2c/src/i2c_slave.xc:214:13
	eq r0, r0, 1
.Ltmp302:
	bf r0, .LBB38_54
.Ltmp303:
# BB#52:                                # %iftrue215
                                        #   in Loop: Header=BB38_1 Depth=1
.Lxtalabel46:
	#DEBUG_VALUE: i2c_slave:i <- R10
	#DEBUG_VALUE: i2c_slave:p_scl <- R7
	#DEBUG_VALUE: i2c_slave:p_sda <- R6
	#DEBUG_VALUE: i2c_slave:device_addr <- undef
	#DEBUG_VALUE: stop_bit_check <- 0
	.loc	2 216 0                 # C:/Users/user/workspace/lib_i2c/src/i2c_slave.xc:216:0
	setc res[r6], 1
	.loc	2 216 0                 # C:/Users/user/workspace/lib_i2c/src/i2c_slave.xc:216:0
.Ltmp304:
.Lxta.endpoint_labels9:
	in r0, res[r6]
	bu .LBB38_53
.Ltmp305:
.LBB38_39:                              # %iffalse112
                                        #   in Loop: Header=BB38_1 Depth=1
.Lxtalabel47:
	#DEBUG_VALUE: i2c_slave:i <- R10
	#DEBUG_VALUE: i2c_slave:p_scl <- R7
	#DEBUG_VALUE: i2c_slave:p_sda <- R6
	#DEBUG_VALUE: i2c_slave:device_addr <- undef
	ldc r0, 8
	ldw r1, sp[9]                   # 4-byte Folded Reload
	.loc	2 158 11                # C:/Users/user/workspace/lib_i2c/src/i2c_slave.xc:158:11
	lss r0, r1, r0
	.loc	2 158 11                # C:/Users/user/workspace/lib_i2c/src/i2c_slave.xc:158:11
	bf r0, .LBB38_73
.Ltmp306:
# BB#40:                                # %iftrue128
                                        #   in Loop: Header=BB38_1 Depth=1
.Lxtalabel48:
	#DEBUG_VALUE: i2c_slave:i <- R10
	#DEBUG_VALUE: i2c_slave:p_scl <- R7
	#DEBUG_VALUE: i2c_slave:p_sda <- R6
	#DEBUG_VALUE: i2c_slave:device_addr <- undef
	ldw r4, sp[8]                   # 4-byte Folded Reload
	.loc	2 159 13                # C:/Users/user/workspace/lib_i2c/src/i2c_slave.xc:159:13
	bf r1, .LBB38_41
.Ltmp307:
# BB#45:                                # %iffalse141
                                        #   in Loop: Header=BB38_1 Depth=1
.Lxtalabel49:
	#DEBUG_VALUE: i2c_slave:i <- R10
	#DEBUG_VALUE: i2c_slave:p_scl <- R7
	#DEBUG_VALUE: i2c_slave:p_sda <- R6
	#DEBUG_VALUE: i2c_slave:device_addr <- undef
	.loc	2 175 34                # C:/Users/user/workspace/lib_i2c/src/i2c_slave.xc:175:34
	mov r0, r4
	zext r0, 1
	.loc	2 175 34                # C:/Users/user/workspace/lib_i2c/src/i2c_slave.xc:175:34
.Lxta.endpoint_labels10:
	out res[r6], r0
	bu .LBB38_42
.Ltmp308:
.LBB38_72:                              # %iffalse50
                                        #   in Loop: Header=BB38_1 Depth=1
.Lxtalabel50:
	#DEBUG_VALUE: i2c_slave:i <- R10
	#DEBUG_VALUE: i2c_slave:p_scl <- R7
	#DEBUG_VALUE: i2c_slave:p_sda <- R6
	#DEBUG_VALUE: i2c_slave:device_addr <- undef
	.loc	2 88 0                  # C:/Users/user/workspace/lib_i2c/src/i2c_slave.xc:88:0
	ldw r1, r1[2]
	mov r4, r2
	.loc	2 88 0                  # C:/Users/user/workspace/lib_i2c/src/i2c_slave.xc:88:0
.Lxta.call_labels4:
	bla r1
	.loc	2 89 0                  # C:/Users/user/workspace/lib_i2c/src/i2c_slave.xc:89:0
	ldw r0, r10[0]
	.loc	2 89 0                  # C:/Users/user/workspace/lib_i2c/src/i2c_slave.xc:89:0
	ldw r1, r10[3]
	.loc	2 89 0                  # C:/Users/user/workspace/lib_i2c/src/i2c_slave.xc:89:0
	ldw r1, r1[3]
.Ltmp309:
.LBB38_20:                              # %ifdone48
                                        #   in Loop: Header=BB38_1 Depth=1
.Lxtalabel51:
	.loc	2 86 0                  # C:/Users/user/workspace/lib_i2c/src/i2c_slave.xc:86:0
.Lxta.call_labels5:
	bla r1
	mov r1, r4
.Ltmp310:
	#DEBUG_VALUE: ack <- R0
	#DEBUG_VALUE: i2c_slave:i <- R10
	#DEBUG_VALUE: i2c_slave:p_scl <- R7
	#DEBUG_VALUE: i2c_slave:p_sda <- R6
	#DEBUG_VALUE: i2c_slave:device_addr <- undef
	#DEBUG_VALUE: ignore_stop_bit <- 0
	.loc	2 93 9                  # C:/Users/user/workspace/lib_i2c/src/i2c_slave.xc:93:9
	eq r0, r0, 1
.Ltmp311:
	.loc	2 93 9                  # C:/Users/user/workspace/lib_i2c/src/i2c_slave.xc:93:9
	bf r0, .LBB38_23
.Ltmp312:
# BB#21:                                # %iftrue68
                                        #   in Loop: Header=BB38_1 Depth=1
.Lxtalabel52:
	#DEBUG_VALUE: i2c_slave:i <- R10
	#DEBUG_VALUE: i2c_slave:p_scl <- R7
	#DEBUG_VALUE: i2c_slave:p_sda <- R6
	#DEBUG_VALUE: i2c_slave:device_addr <- undef
	#DEBUG_VALUE: ignore_stop_bit <- 0
	.loc	2 95 0                  # C:/Users/user/workspace/lib_i2c/src/i2c_slave.xc:95:0
	setc res[r6], 1
	.loc	2 95 0                  # C:/Users/user/workspace/lib_i2c/src/i2c_slave.xc:95:0
.Ltmp313:
.Lxta.endpoint_labels11:
	in r0, res[r6]
	#DEBUG_VALUE: next_state <- 0
	mov r8, r1
	bu .LBB38_22
.Ltmp314:
.LBB38_23:                              # %iffalse73
                                        #   in Loop: Header=BB38_1 Depth=1
.Lxtalabel53:
	#DEBUG_VALUE: i2c_slave:i <- R10
	#DEBUG_VALUE: i2c_slave:p_scl <- R7
	#DEBUG_VALUE: i2c_slave:p_sda <- R6
	#DEBUG_VALUE: i2c_slave:device_addr <- undef
	#DEBUG_VALUE: ignore_stop_bit <- 0
	.loc	2 99 21                 # C:/Users/user/workspace/lib_i2c/src/i2c_slave.xc:99:21
.Lxta.endpoint_labels12:
	out res[r6], r1
	mkmsk r8, 3
	.loc	2 101 0                 # C:/Users/user/workspace/lib_i2c/src/i2c_slave.xc:101:0
	ldw r0, sp[7]                   # 4-byte Folded Reload
	bt r0, .LBB38_22
.Ltmp315:
# BB#24:                                # %iffalse73
                                        #   in Loop: Header=BB38_1 Depth=1
.Lxtalabel54:
	#DEBUG_VALUE: i2c_slave:i <- R10
	#DEBUG_VALUE: i2c_slave:p_scl <- R7
	#DEBUG_VALUE: i2c_slave:p_sda <- R6
	#DEBUG_VALUE: i2c_slave:device_addr <- undef
	#DEBUG_VALUE: ignore_stop_bit <- 0
	ldc r8, 6
.Ltmp316:
.LBB38_22:                              # %ifdone69
                                        #   in Loop: Header=BB38_1 Depth=1
.Lxtalabel55:
	mov r4, r1
.Ltmp317:
	#DEBUG_VALUE: i2c_slave:i <- R10
	#DEBUG_VALUE: i2c_slave:p_scl <- R7
	#DEBUG_VALUE: i2c_slave:p_sda <- R6
	#DEBUG_VALUE: i2c_slave:device_addr <- undef
	#DEBUG_VALUE: state <- 3
	#DEBUG_VALUE: ignore_stop_bit <- 0
	#DEBUG_VALUE: scl_val <- 1
	ldc r0, 10
	.loc	2 20 0                  # C:/Users/user/workspace/lib_i2c/src/i2c_slave.xc:20:0
.Ltmp318:
.Lxta.call_labels6:
	bl delay_ticks
.Ltmp319:
	.loc	2 112 0                 # C:/Users/user/workspace/lib_i2c/src/i2c_slave.xc:112:0
	setc res[r7], 1
	.loc	2 112 0                 # C:/Users/user/workspace/lib_i2c/src/i2c_slave.xc:112:0
.Ltmp320:
.Lxta.endpoint_labels13:
	in r0, res[r7]
	mov r0, r4
	mkmsk r2, 1
	mkmsk r1, 2
	bu .LBB38_1
.Ltmp321:
.LBB38_12:                              # %ifdone27
                                        #   in Loop: Header=BB38_1 Depth=1
.Lxtalabel56:
	#DEBUG_VALUE: i2c_slave:i <- R10
	#DEBUG_VALUE: i2c_slave:p_scl <- R7
	#DEBUG_VALUE: i2c_slave:p_sda <- R6
	#DEBUG_VALUE: i2c_slave:device_addr <- undef
	#DEBUG_VALUE: bit <- R2
	.loc	2 61 9                  # C:/Users/user/workspace/lib_i2c/src/i2c_slave.xc:61:9
	ldw r0, sp[6]                   # 4-byte Folded Reload
	ldw r1, sp[8]                   # 4-byte Folded Reload
	eq r0, r1, r0
	bt r0, .LBB38_14
.Ltmp322:
# BB#13:                                # %ifdone27
                                        #   in Loop: Header=BB38_1 Depth=1
.Lxtalabel57:
	#DEBUG_VALUE: i2c_slave:i <- R10
	#DEBUG_VALUE: i2c_slave:p_scl <- R7
	#DEBUG_VALUE: i2c_slave:p_sda <- R6
	#DEBUG_VALUE: i2c_slave:device_addr <- undef
	.loc	2 65 0                  # C:/Users/user/workspace/lib_i2c/src/i2c_slave.xc:65:0
	ldw r2, sp[7]                   # 4-byte Folded Reload
.Ltmp323:
.LBB38_14:                              # %ifdone27
                                        #   in Loop: Header=BB38_1 Depth=1
.Lxtalabel58:
	#DEBUG_VALUE: i2c_slave:i <- R10
	#DEBUG_VALUE: i2c_slave:p_scl <- R7
	#DEBUG_VALUE: i2c_slave:p_sda <- R6
	#DEBUG_VALUE: i2c_slave:device_addr <- undef
	ldc r1, 2
	bt r0, .LBB38_16
.Ltmp324:
# BB#15:                                # %ifdone27
                                        #   in Loop: Header=BB38_1 Depth=1
.Lxtalabel59:
	#DEBUG_VALUE: i2c_slave:i <- R10
	#DEBUG_VALUE: i2c_slave:p_scl <- R7
	#DEBUG_VALUE: i2c_slave:p_sda <- R6
	#DEBUG_VALUE: i2c_slave:device_addr <- undef
	ldc r1, 5
.Ltmp325:
.LBB38_16:                              # %ifdone27
                                        #   in Loop: Header=BB38_1 Depth=1
.Lxtalabel60:
	#DEBUG_VALUE: i2c_slave:i <- R10
	#DEBUG_VALUE: i2c_slave:p_scl <- R7
	#DEBUG_VALUE: i2c_slave:p_sda <- R6
	#DEBUG_VALUE: i2c_slave:device_addr <- undef
	mov r0, r5
	stw r2, sp[7]                   # 4-byte Folded Spill
	ldc r2, 0
	mov r8, r9
	bu .LBB38_1
.Ltmp326:
.LBB38_38:                              # %iffalse119
                                        #   in Loop: Header=BB38_1 Depth=1
.Lxtalabel61:
	#DEBUG_VALUE: i2c_slave:i <- R10
	#DEBUG_VALUE: i2c_slave:p_scl <- R7
	#DEBUG_VALUE: i2c_slave:p_sda <- R6
	#DEBUG_VALUE: i2c_slave:device_addr <- undef
	#DEBUG_VALUE: scl_val <- 0
	.loc	2 154 0                 # C:/Users/user/workspace/lib_i2c/src/i2c_slave.xc:154:0
	add r2, r2, 1
.Ltmp327:
	#DEBUG_VALUE: bitnum <- R2
	stw r2, sp[9]                   # 4-byte Folded Spill
.Ltmp328:
	#DEBUG_VALUE: bitnum <- [SP+36]
	mov r0, r5
	mov r2, r1
	bu .LBB38_44
.Ltmp329:
.LBB38_73:                              # %iffalse134
                                        #   in Loop: Header=BB38_1 Depth=1
.Lxtalabel62:
	#DEBUG_VALUE: i2c_slave:i <- R10
	#DEBUG_VALUE: i2c_slave:p_scl <- R7
	#DEBUG_VALUE: i2c_slave:p_sda <- R6
	#DEBUG_VALUE: i2c_slave:device_addr <- undef
	.loc	2 180 0                 # C:/Users/user/workspace/lib_i2c/src/i2c_slave.xc:180:0
	setc res[r6], 1
	.loc	2 180 0                 # C:/Users/user/workspace/lib_i2c/src/i2c_slave.xc:180:0
.Ltmp330:
.Lxta.endpoint_labels14:
	in r0, res[r6]
	bu .LBB38_43
.Ltmp331:
.LBB38_28:                              # %iffalse102
                                        #   in Loop: Header=BB38_1 Depth=1
.Lxtalabel63:
	#DEBUG_VALUE: i2c_slave:i <- R10
	#DEBUG_VALUE: i2c_slave:p_scl <- R7
	#DEBUG_VALUE: i2c_slave:p_sda <- R6
	#DEBUG_VALUE: i2c_slave:device_addr <- undef
	#DEBUG_VALUE: sda_val <- 0
	mov r0, r5
	ldc r1, 0
	stw r1, sp[9]                   # 4-byte Folded Spill
	mov r2, r4
	stw r1, sp[11]                  # 4-byte Folded Spill
	mov r8, r9
	mov r1, r9
	bu .LBB38_1
.Ltmp332:
.LBB38_54:                              # %iffalse220
                                        #   in Loop: Header=BB38_1 Depth=1
.Lxtalabel64:
	#DEBUG_VALUE: i2c_slave:i <- R10
	#DEBUG_VALUE: i2c_slave:p_scl <- R7
	#DEBUG_VALUE: i2c_slave:p_sda <- R6
	#DEBUG_VALUE: i2c_slave:device_addr <- undef
	#DEBUG_VALUE: stop_bit_check <- 0
	.loc	2 219 25                # C:/Users/user/workspace/lib_i2c/src/i2c_slave.xc:219:25
.Lxta.endpoint_labels15:
	out res[r6], r4
.Ltmp333:
.LBB38_53:                              # %ifdone216
                                        #   in Loop: Header=BB38_1 Depth=1
.Lxtalabel65:
	#DEBUG_VALUE: i2c_slave:i <- R10
	#DEBUG_VALUE: i2c_slave:p_scl <- R7
	#DEBUG_VALUE: i2c_slave:p_sda <- R6
	#DEBUG_VALUE: i2c_slave:device_addr <- undef
	#DEBUG_VALUE: state <- 3
	#DEBUG_VALUE: stop_bit_check <- 0
	ldc r0, 10
	.loc	2 20 0                  # C:/Users/user/workspace/lib_i2c/src/i2c_slave.xc:20:0
.Ltmp334:
.Lxta.call_labels7:
	bl delay_ticks
.Ltmp335:
	.loc	2 226 0                 # C:/Users/user/workspace/lib_i2c/src/i2c_slave.xc:226:0
	setc res[r7], 1
	.loc	2 226 0                 # C:/Users/user/workspace/lib_i2c/src/i2c_slave.xc:226:0
.Ltmp336:
.Lxta.endpoint_labels16:
	in r0, res[r7]
	mov r0, r5
	stw r4, sp[10]                  # 4-byte Folded Spill
	ldc r1, 8
	stw r1, sp[9]                   # 4-byte Folded Spill
	mkmsk r2, 1
	mov r8, r9
	mkmsk r1, 2
	bu .LBB38_1
.Ltmp337:
.LBB38_41:                              # %iftrue135
                                        #   in Loop: Header=BB38_1 Depth=1
.Lxtalabel66:
	#DEBUG_VALUE: i2c_slave:i <- R10
	#DEBUG_VALUE: i2c_slave:p_scl <- R7
	#DEBUG_VALUE: i2c_slave:p_sda <- R6
	#DEBUG_VALUE: i2c_slave:device_addr <- undef
	ldc r0, 0
	.loc	2 161 25                # C:/Users/user/workspace/lib_i2c/src/i2c_slave.xc:161:25
.Lxta.endpoint_labels17:
	out res[r7], r0
	.loc	2 162 0                 # C:/Users/user/workspace/lib_i2c/src/i2c_slave.xc:162:0
	ldw r0, r10[0]
	.loc	2 162 0                 # C:/Users/user/workspace/lib_i2c/src/i2c_slave.xc:162:0
	ldw r1, r10[3]
	.loc	2 162 0                 # C:/Users/user/workspace/lib_i2c/src/i2c_slave.xc:162:0
	ldw r1, r1[4]
	.loc	2 162 0                 # C:/Users/user/workspace/lib_i2c/src/i2c_slave.xc:162:0
.Lxta.call_labels8:
	bla r1
	.loc	2 163 0                 # C:/Users/user/workspace/lib_i2c/src/i2c_slave.xc:163:0
	ldw r0, r10[0]
	.loc	2 163 0                 # C:/Users/user/workspace/lib_i2c/src/i2c_slave.xc:163:0
	ldw r1, r10[3]
	.loc	2 163 0                 # C:/Users/user/workspace/lib_i2c/src/i2c_slave.xc:163:0
	ldw r1, r1[5]
	.loc	2 163 0                 # C:/Users/user/workspace/lib_i2c/src/i2c_slave.xc:163:0
.Lxta.call_labels9:
	bla r1
	.loc	2 165 0                 # C:/Users/user/workspace/lib_i2c/src/i2c_slave.xc:165:0
	bitrev r0, r0
	.loc	2 165 0                 # C:/Users/user/workspace/lib_i2c/src/i2c_slave.xc:165:0
	shr r4, r0, 24
.Ltmp338:
	#DEBUG_VALUE: data <- R4
	.loc	2 168 34                # C:/Users/user/workspace/lib_i2c/src/i2c_slave.xc:168:34
	mov r0, r4
	zext r0, 1
	.loc	2 168 34                # C:/Users/user/workspace/lib_i2c/src/i2c_slave.xc:168:34
.Lxta.endpoint_labels18:
	out res[r6], r0
	ldc r0, 10
	.loc	2 20 0                  # C:/Users/user/workspace/lib_i2c/src/i2c_slave.xc:20:0
.Ltmp339:
.Lxta.call_labels10:
	bl delay_ticks
.Ltmp340:
	.loc	2 173 0                 # C:/Users/user/workspace/lib_i2c/src/i2c_slave.xc:173:0
	setc res[r7], 1
	.loc	2 173 0                 # C:/Users/user/workspace/lib_i2c/src/i2c_slave.xc:173:0
.Ltmp341:
.Lxta.endpoint_labels19:
	in r0, res[r7]
.Ltmp342:
.LBB38_42:                              # %ifdone136
                                        #   in Loop: Header=BB38_1 Depth=1
.Lxtalabel67:
	#DEBUG_VALUE: i2c_slave:i <- R10
	#DEBUG_VALUE: i2c_slave:p_scl <- R7
	#DEBUG_VALUE: i2c_slave:p_sda <- R6
	#DEBUG_VALUE: i2c_slave:device_addr <- undef
	.loc	2 177 0                 # C:/Users/user/workspace/lib_i2c/src/i2c_slave.xc:177:0
	ashr r4, r4, 1
.Ltmp343:
	#DEBUG_VALUE: data <- R4
	stw r4, sp[8]                   # 4-byte Folded Spill
.Ltmp344:
.LBB38_43:                              # %LoopBody
                                        #   in Loop: Header=BB38_1 Depth=1
.Lxtalabel68:
	#DEBUG_VALUE: data <- [SP+32]
	mov r0, r5
	mkmsk r2, 1
.Ltmp345:
.LBB38_44:                              # %LoopBody
                                        #   in Loop: Header=BB38_1 Depth=1
.Lxtalabel69:
	mov r8, r9
	mkmsk r1, 3
	bu .LBB38_1
.Ltmp233:                               # Block address taken
.LBB38_5:                               # %selectcase
.Lxtalabel70:
.Ltmp346:
	#DEBUG_VALUE: i2c_slave:i <- R10
	#DEBUG_VALUE: i2c_slave:device_addr <- undef
	#DEBUG_VALUE: state <- 0
	#DEBUG_VALUE: next_state <- 0
	#DEBUG_VALUE: sda_val <- 0
	#DEBUG_VALUE: bitnum <- 0
	#DEBUG_VALUE: rw <- 0
	#DEBUG_VALUE: stop_bit_check <- 0
	#DEBUG_VALUE: ignore_stop_bit <- 1
	.loc	2 40 0                  # C:/Users/user/workspace/lib_i2c/src/i2c_slave.xc:40:0
	chkct res[r0], 1
	mkmsk r0, 1
	.loc	2 40 0                  # C:/Users/user/workspace/lib_i2c/src/i2c_slave.xc:40:0
	stw r0, r10[2]
	ldw r10, sp[18]                 # 4-byte Folded Reload
.Ltmp347:
	ldd r9, r8, sp[8]               # 4-byte Folded Reload
	ldd r7, r6, sp[7]               # 4-byte Folded Reload
	ldd r5, r4, sp[6]               # 4-byte Folded Reload
	retsp 20
	# RETURN_REG_HOLDER
.Ltmp348:
	.cc_bottom i2c_slave.function
	.set	i2c_slave.nstackwords,((_i.i2c_slave_callback_if.start_read_request.max.nstackwords $M _i.i2c_slave_callback_if.ack_read_request.max.nstackwords $M _i.i2c_slave_callback_if.start_write_request.max.nstackwords $M _i.i2c_slave_callback_if.start_master_write.max.nstackwords $M _i.i2c_slave_callback_if.master_sent_data.max.nstackwords $M _i.i2c_slave_callback_if.start_master_read.max.nstackwords $M _i.i2c_slave_callback_if.master_requires_data.max.nstackwords $M delay_ticks.nstackwords $M _i.i2c_slave_callback_if.stop_bit.max.nstackwords) + 20)
	.globl	i2c_slave.nstackwords
	.set	i2c_slave.maxcores,_i.i2c_slave_callback_if.ack_read_request.max.maxcores $M _i.i2c_slave_callback_if.ack_write_request.max.maxcores $M _i.i2c_slave_callback_if.master_requires_data.max.maxcores $M _i.i2c_slave_callback_if.master_sent_data.max.maxcores $M _i.i2c_slave_callback_if.start_master_read.max.maxcores $M _i.i2c_slave_callback_if.start_master_write.max.maxcores $M _i.i2c_slave_callback_if.start_read_request.max.maxcores $M _i.i2c_slave_callback_if.start_write_request.max.maxcores $M _i.i2c_slave_callback_if.stop_bit.max.maxcores $M delay_ticks.maxcores $M 1
	.globl	i2c_slave.maxcores
	.set	i2c_slave.maxtimers,_i.i2c_slave_callback_if.ack_read_request.max.maxtimers $M _i.i2c_slave_callback_if.ack_write_request.max.maxtimers $M _i.i2c_slave_callback_if.master_requires_data.max.maxtimers $M _i.i2c_slave_callback_if.master_sent_data.max.maxtimers $M _i.i2c_slave_callback_if.start_master_read.max.maxtimers $M _i.i2c_slave_callback_if.start_master_write.max.maxtimers $M _i.i2c_slave_callback_if.start_read_request.max.maxtimers $M _i.i2c_slave_callback_if.start_write_request.max.maxtimers $M _i.i2c_slave_callback_if.stop_bit.max.maxtimers $M delay_ticks.maxtimers $M 0
	.globl	i2c_slave.maxtimers
	.set	i2c_slave.maxchanends,_i.i2c_slave_callback_if.ack_read_request.max.maxchanends $M _i.i2c_slave_callback_if.ack_write_request.max.maxchanends $M _i.i2c_slave_callback_if.master_requires_data.max.maxchanends $M _i.i2c_slave_callback_if.master_sent_data.max.maxchanends $M _i.i2c_slave_callback_if.start_master_read.max.maxchanends $M _i.i2c_slave_callback_if.start_master_write.max.maxchanends $M _i.i2c_slave_callback_if.start_read_request.max.maxchanends $M _i.i2c_slave_callback_if.start_write_request.max.maxchanends $M _i.i2c_slave_callback_if.stop_bit.max.maxchanends $M delay_ticks.maxchanends $M 0
	.globl	i2c_slave.maxchanends
.Ltmp349:
	.size	i2c_slave, .Ltmp349-i2c_slave
.Lfunc_end38:
	.cfi_endproc

	.globl	i2c_slave.init.1
	.align	4
	.type	i2c_slave.init.1,@function
	.cc_top i2c_slave.init.1.function,i2c_slave.init.1
i2c_slave.init.1:                       # @i2c_slave.init.1
.Lfunc_begin39:
	.file	3 "<synthesized>"
	.loc	3 0 0                   # <synthesized>:0:0
	.cfi_startproc
	.issue_mode single
# BB#0:                                 # %allocas
	ENTSP_lu6 0
	#DEBUG_VALUE: i2c_slave.init.1:i2c_slave.init.1.state_ptr <- R0
	ldw r1, r0[1]
	bf r1, .LBB39_2
# BB#1:                                 # %iffalse
	#DEBUG_VALUE: i2c_slave.init.1:i2c_slave.init.1.state_ptr <- R0
	ldc r1, 0
	stw r1, r0[1]
	.loc	2 28 0 prologue_end     # C:/Users/user/workspace/lib_i2c/src/i2c_slave.xc:28:0
.Ltmp350:
	stw r1, r0[6]
	.loc	2 29 0                  # C:/Users/user/workspace/lib_i2c/src/i2c_slave.xc:29:0
.Ltmp351:
	stw r1, r0[7]
	.loc	2 30 0                  # C:/Users/user/workspace/lib_i2c/src/i2c_slave.xc:30:0
.Ltmp352:
	stw r1, r0[8]
	.loc	2 32 0                  # C:/Users/user/workspace/lib_i2c/src/i2c_slave.xc:32:0
.Ltmp353:
	stw r1, r0[10]
	ldc r2, 48
	.loc	2 34 0                  # C:/Users/user/workspace/lib_i2c/src/i2c_slave.xc:34:0
.Ltmp354:
	add r2, r0, r2
	.loc	2 34 0                  # C:/Users/user/workspace/lib_i2c/src/i2c_slave.xc:34:0
	stw r1, r2[0]
	ldc r2, 52
	.loc	2 35 0                  # C:/Users/user/workspace/lib_i2c/src/i2c_slave.xc:35:0
.Ltmp355:
	add r2, r0, r2
	.loc	2 35 0                  # C:/Users/user/workspace/lib_i2c/src/i2c_slave.xc:35:0
	stw r1, r2[0]
	ldc r1, 56
	.loc	2 36 0                  # C:/Users/user/workspace/lib_i2c/src/i2c_slave.xc:36:0
.Ltmp356:
	add r1, r0, r1
	mkmsk r2, 1
	.loc	2 36 0                  # C:/Users/user/workspace/lib_i2c/src/i2c_slave.xc:36:0
	stw r2, r1[0]
	.loc	2 37 0                  # C:/Users/user/workspace/lib_i2c/src/i2c_slave.xc:37:0
	ldw r1, r0[4]
	.loc	2 37 0                  # C:/Users/user/workspace/lib_i2c/src/i2c_slave.xc:37:0
	setd res[r1], r2
	.loc	2 37 0                  # C:/Users/user/workspace/lib_i2c/src/i2c_slave.xc:37:0
	setc res[r1], 17
	.loc	2 37 0                  # C:/Users/user/workspace/lib_i2c/src/i2c_slave.xc:37:0
.Ltmp357:
.Lxta.endpoint_labels20:
	in r1, res[r1]
	stw r2, r0[0]
.Ltmp358:
.LBB39_2:                               # %return
	retsp 0
	# RETURN_REG_HOLDER
	.cc_bottom i2c_slave.init.1.function
	.set	i2c_slave.init.1.nstackwords,0
	.globl	i2c_slave.init.1.nstackwords
	.set	i2c_slave.init.1.maxcores,1
	.globl	i2c_slave.init.1.maxcores
	.set	i2c_slave.init.1.maxtimers,0
	.globl	i2c_slave.init.1.maxtimers
	.set	i2c_slave.init.1.maxchanends,0
	.globl	i2c_slave.init.1.maxchanends
.Ltmp359:
	.size	i2c_slave.init.1, .Ltmp359-i2c_slave.init.1
.Lfunc_end39:
	.cfi_endproc

	.globl	i2c_slave.init.0
	.align	4
	.type	i2c_slave.init.0,@function
	.cc_top i2c_slave.init.0.function,i2c_slave.init.0
i2c_slave.init.0:                       # @i2c_slave.init.0
	.cfi_startproc
	.issue_mode single
# BB#0:                                 # %allocas
.Lxtalabel71:
	ENTSP_lu6 0
	#DEBUG_VALUE: i2c_slave.init.0:i2c_slave.init.0.state_ptr <- R0
	ldw r11, sp[1]
	stw r1, r0[2]
	stw r2, r0[3]
	stw r3, r0[4]
	ldc r1, 20
	st8 r11, r0[r1]
	ldc r1, 0
	stw r1, r0[0]
	ldap r11, i2c_slave.init.1
	stw r11, r0[1]
	retsp 0
	# RETURN_REG_HOLDER
	.cc_bottom i2c_slave.init.0.function
	.set	i2c_slave.init.0.nstackwords,0
	.globl	i2c_slave.init.0.nstackwords
	.set	i2c_slave.init.0.maxcores,1
	.globl	i2c_slave.init.0.maxcores
	.set	i2c_slave.init.0.maxtimers,0
	.globl	i2c_slave.init.0.maxtimers
	.set	i2c_slave.init.0.maxchanends,0
	.globl	i2c_slave.init.0.maxchanends
.Ltmp360:
	.size	i2c_slave.init.0, .Ltmp360-i2c_slave.init.0
	.cfi_endproc

	.globl	i2c_slave.select.yield.enable
	.align	4
	.type	i2c_slave.select.yield.enable,@function
	.cc_top i2c_slave.select.yield.enable.function,i2c_slave.select.yield.enable
i2c_slave.select.yield.enable:          # @i2c_slave.select.yield.enable
.Lfunc_begin41:
	.loc	3 0 0                   # <synthesized>:0:0
	.cfi_startproc
	.issue_mode single
# BB#0:                                 # %allocas
	ENTSP_lu6 4
.Ltmp361:
	.cfi_def_cfa_offset 16
.Ltmp362:
	.cfi_offset 15, 0
	stw r4, sp[2]                   # 4-byte Folded Spill
.Ltmp363:
	.cfi_offset 4, -8
	#DEBUG_VALUE: i2c_slave.select.yield.enable:i2c_slave.select.state_ptr <- R0
	mov r4, r0
.Ltmp364:
	#DEBUG_VALUE: i2c_slave.select.yield.enable:i2c_slave.select.state_ptr <- R4
                                        # kill: R0<def> R4<kill>
	bl i2c_slave.init.1
	ldw r0, r4[0]
	bf r0, .LBB41_1
.Ltmp365:
# BB#2:                                 # %iftrue
	#DEBUG_VALUE: i2c_slave.select.yield.enable:i2c_slave.select.state_ptr <- R4
	.loc	3 39 5 prologue_end     # <synthesized>:39:5
	ldw r0, r4[2]
	.loc	3 39 5                  # <synthesized>:39:5
	ldw r0, r0[1]
	bf r0, .LBB41_4
.Ltmp366:
# BB#3:                                 # %interfacenotnull
	#DEBUG_VALUE: i2c_slave.select.yield.enable:i2c_slave.select.state_ptr <- R4
	.loc	3 39 5                  # <synthesized>:39:5
	ldap r11, i2c_slave.select.yield.case.0
	setv res[r0], r11
	.loc	3 39 5                  # <synthesized>:39:5
	mov r11, r4
	setev res[r0], r11
	.loc	3 39 5                  # <synthesized>:39:5
	eeu res[r0]
.Ltmp367:
.LBB41_4:                               # %selectguarddone
	#DEBUG_VALUE: i2c_slave.select.yield.enable:i2c_slave.select.state_ptr <- R4
	.loc	3 39 5                  # <synthesized>:39:5
	ldw r0, r4[6]
	bf r0, .LBB41_6
.Ltmp368:
# BB#5:                                 # %lhsfalse
	#DEBUG_VALUE: i2c_slave.select.yield.enable:i2c_slave.select.state_ptr <- R4
	.loc	3 39 5                  # <synthesized>:39:5
	ldw r0, r4[3]
	.loc	3 39 5                  # <synthesized>:39:5
	ldw r1, r4[9]
	.loc	3 39 5                  # <synthesized>:39:5
	setd res[r0], r1
	.loc	3 39 5                  # <synthesized>:39:5
	setc res[r0], 17
	.loc	3 39 5                  # <synthesized>:39:5
	ldap r11, i2c_slave.select.yield.case.1
	setv res[r0], r11
	.loc	3 39 5                  # <synthesized>:39:5
	mov r11, r4
	setev res[r0], r11
	.loc	3 39 5                  # <synthesized>:39:5
	eeu res[r0]
	ldc r0, 52
	.loc	3 39 5                  # <synthesized>:39:5
	add r0, r4, r0
	.loc	3 39 5                  # <synthesized>:39:5
	ldw r0, r0[0]
	bf r0, .LBB41_7
.Ltmp369:
.LBB41_6:                               # %selectguardtrue25.critedge
	.loc	3 39 5                  # <synthesized>:39:5
	ldw r0, r4[4]
	.loc	3 39 5                  # <synthesized>:39:5
	ldw r1, r4[8]
	.loc	3 39 5                  # <synthesized>:39:5
	setd res[r0], r1
	.loc	3 39 5                  # <synthesized>:39:5
	setc res[r0], 17
	.loc	3 39 5                  # <synthesized>:39:5
	ldap r11, i2c_slave.select.yield.case.2
	setv res[r0], r11
	.loc	3 39 5                  # <synthesized>:39:5
	mov r11, r4
	setev res[r0], r11
	.loc	3 39 5                  # <synthesized>:39:5
	eeu res[r0]
.Ltmp370:
.LBB41_7:                               # %return
	mkmsk r0, 1
	bu .LBB41_8
.LBB41_1:
	ldc r0, 0
.LBB41_8:                               # %return
	ldw r4, sp[2]                   # 4-byte Folded Reload
	retsp 4
	# RETURN_REG_HOLDER
	.cc_bottom i2c_slave.select.yield.enable.function
	.set	i2c_slave.select.yield.enable.nstackwords,(i2c_slave.init.1.nstackwords + 4)
	.globl	i2c_slave.select.yield.enable.nstackwords
	.set	i2c_slave.select.yield.enable.maxcores,i2c_slave.init.1.maxcores $M 1
	.globl	i2c_slave.select.yield.enable.maxcores
	.set	i2c_slave.select.yield.enable.maxtimers,i2c_slave.init.1.maxtimers $M 0
	.globl	i2c_slave.select.yield.enable.maxtimers
	.set	i2c_slave.select.yield.enable.maxchanends,i2c_slave.init.1.maxchanends $M 0
	.globl	i2c_slave.select.yield.enable.maxchanends
.Ltmp371:
	.size	i2c_slave.select.yield.enable, .Ltmp371-i2c_slave.select.yield.enable
.Lfunc_end41:
	.cfi_endproc

	.globl	i2c_slave.select.enable
	.align	4
	.type	i2c_slave.select.enable,@function
	.cc_top i2c_slave.select.enable.function,i2c_slave.select.enable
i2c_slave.select.enable:                # @i2c_slave.select.enable
.Lfunc_begin42:
	.loc	3 0 0                   # <synthesized>:0:0
	.cfi_startproc
	.issue_mode single
# BB#0:                                 # %allocas
	ENTSP_lu6 0
	#DEBUG_VALUE: i2c_slave.select.enable:i2c_slave.select.state_ptr <- R0
	ldw r1, r0[0]
	bf r1, .LBB42_1
.Ltmp372:
# BB#2:                                 # %iftrue
	#DEBUG_VALUE: i2c_slave.select.enable:i2c_slave.select.state_ptr <- R0
	.loc	3 39 5 prologue_end     # <synthesized>:39:5
	ldw r1, r0[2]
	.loc	3 39 5                  # <synthesized>:39:5
	ldw r1, r1[1]
	bf r1, .LBB42_4
.Ltmp373:
# BB#3:                                 # %interfacenotnull
	#DEBUG_VALUE: i2c_slave.select.enable:i2c_slave.select.state_ptr <- R0
	.loc	3 39 5                  # <synthesized>:39:5
	ldap r11, i2c_slave.select.case.0
	setv res[r1], r11
	.loc	3 39 5                  # <synthesized>:39:5
	mov r11, r0
	setev res[r1], r11
	.loc	3 39 5                  # <synthesized>:39:5
	eeu res[r1]
.Ltmp374:
.LBB42_4:                               # %selectguarddone
	#DEBUG_VALUE: i2c_slave.select.enable:i2c_slave.select.state_ptr <- R0
	.loc	3 39 5                  # <synthesized>:39:5
	ldw r1, r0[6]
	bf r1, .LBB42_6
.Ltmp375:
# BB#5:                                 # %lhsfalse
	#DEBUG_VALUE: i2c_slave.select.enable:i2c_slave.select.state_ptr <- R0
	.loc	3 39 5                  # <synthesized>:39:5
	ldw r1, r0[3]
	.loc	3 39 5                  # <synthesized>:39:5
	ldw r2, r0[9]
	.loc	3 39 5                  # <synthesized>:39:5
	setd res[r1], r2
	.loc	3 39 5                  # <synthesized>:39:5
	setc res[r1], 17
	.loc	3 39 5                  # <synthesized>:39:5
	ldap r11, i2c_slave.select.case.1
	setv res[r1], r11
	.loc	3 39 5                  # <synthesized>:39:5
	mov r11, r0
	setev res[r1], r11
	.loc	3 39 5                  # <synthesized>:39:5
	eeu res[r1]
	ldc r1, 52
	.loc	3 39 5                  # <synthesized>:39:5
	add r1, r0, r1
	.loc	3 39 5                  # <synthesized>:39:5
	ldw r1, r1[0]
	bf r1, .LBB42_7
.Ltmp376:
.LBB42_6:                               # %selectguardtrue24.critedge
	.loc	3 39 5                  # <synthesized>:39:5
	ldw r1, r0[4]
	.loc	3 39 5                  # <synthesized>:39:5
	ldw r2, r0[8]
	.loc	3 39 5                  # <synthesized>:39:5
	setd res[r1], r2
	.loc	3 39 5                  # <synthesized>:39:5
	setc res[r1], 17
	.loc	3 39 5                  # <synthesized>:39:5
	ldap r11, i2c_slave.select.case.2
	setv res[r1], r11
	.loc	3 39 5                  # <synthesized>:39:5
	mov r11, r0
	setev res[r1], r11
	.loc	3 39 5                  # <synthesized>:39:5
	eeu res[r1]
.Ltmp377:
.LBB42_7:                               # %return
	mkmsk r0, 1
	bu .LBB42_8
.LBB42_1:
	ldc r0, 0
.LBB42_8:                               # %return
	retsp 0
	# RETURN_REG_HOLDER
	.cc_bottom i2c_slave.select.enable.function
	.set	i2c_slave.select.enable.nstackwords,0
	.globl	i2c_slave.select.enable.nstackwords
	.set	i2c_slave.select.enable.maxcores,1
	.globl	i2c_slave.select.enable.maxcores
	.set	i2c_slave.select.enable.maxtimers,0
	.globl	i2c_slave.select.enable.maxtimers
	.set	i2c_slave.select.enable.maxchanends,0
	.globl	i2c_slave.select.enable.maxchanends
.Ltmp378:
	.size	i2c_slave.select.enable, .Ltmp378-i2c_slave.select.enable
.Lfunc_end42:
	.cfi_endproc

	.globl	i2c_slave.fini
	.align	4
	.type	i2c_slave.fini,@function
	.cc_top i2c_slave.fini.function,i2c_slave.fini
i2c_slave.fini:                         # @i2c_slave.fini
	.cfi_startproc
	.issue_mode single
# BB#0:                                 # %allocas
	ENTSP_lu6 0
	#DEBUG_VALUE: i2c_slave.fini:i2c_slave.fini.state_ptr <- R0
	ldw r0, r0[0]
	bf r0, .LBB43_2
.LBB43_1:                               # %LoopTest
                                        # =>This Inner Loop Header: Depth=1
	bu .LBB43_1
.LBB43_2:                               # %return
	retsp 0
	# RETURN_REG_HOLDER
	.cc_bottom i2c_slave.fini.function
	.set	i2c_slave.fini.nstackwords,0
	.globl	i2c_slave.fini.nstackwords
	.set	i2c_slave.fini.maxcores,1
	.globl	i2c_slave.fini.maxcores
	.set	i2c_slave.fini.maxtimers,0
	.globl	i2c_slave.fini.maxtimers
	.set	i2c_slave.fini.maxchanends,0
	.globl	i2c_slave.fini.maxchanends
.Ltmp379:
	.size	i2c_slave.fini, .Ltmp379-i2c_slave.fini
	.cfi_endproc

	.align	4
	.type	i2c_slave.select.yield.case.0,@function
	.cc_top i2c_slave.select.yield.case.0.function,i2c_slave.select.yield.case.0
i2c_slave.select.yield.case.0:          # @i2c_slave.select.yield.case.0
.Lfunc_begin44:
	.loc	2 40 0                  # C:/Users/user/workspace/lib_i2c/src/i2c_slave.xc:40:0
	.cfi_startproc
	.issue_mode single
# BB#0:                                 # %allocas
.Lxtalabel72:
	ENTSP_lu6 0
	get r11, ed
	.loc	2 40 0 prologue_end     # C:/Users/user/workspace/lib_i2c/src/i2c_slave.xc:40:0
.Ltmp380:
	ldw r0, r11[2]
	.loc	2 40 0                  # C:/Users/user/workspace/lib_i2c/src/i2c_slave.xc:40:0
	ldw r1, r0[1]
	.loc	2 40 0                  # C:/Users/user/workspace/lib_i2c/src/i2c_slave.xc:40:0
	chkct res[r1], 1
	mkmsk r1, 1
	.loc	2 40 0                  # C:/Users/user/workspace/lib_i2c/src/i2c_slave.xc:40:0
	stw r1, r0[2]
	ldc r0, 0
	stw r0, r11[0]
	retsp 0
	# RETURN_REG_HOLDER
.Ltmp381:
	.cc_bottom i2c_slave.select.yield.case.0.function
	.set	i2c_slave.select.yield.case.0.nstackwords,0
	.set	i2c_slave.select.yield.case.0.maxcores,1
	.set	i2c_slave.select.yield.case.0.maxtimers,0
	.set	i2c_slave.select.yield.case.0.maxchanends,0
.Ltmp382:
	.size	i2c_slave.select.yield.case.0, .Ltmp382-i2c_slave.select.yield.case.0
.Lfunc_end44:
	.cfi_endproc

	.align	4
	.type	i2c_slave.select.yield.case.1,@function
	.cc_top i2c_slave.select.yield.case.1.function,i2c_slave.select.yield.case.1
i2c_slave.select.yield.case.1:          # @i2c_slave.select.yield.case.1
.Lfunc_begin45:
	.loc	2 42 0                  # C:/Users/user/workspace/lib_i2c/src/i2c_slave.xc:42:0
	.cfi_startproc
	.issue_mode single
# BB#0:                                 # %allocas
.Lxtalabel73:
	ENTSP_lu6 6
.Ltmp383:
	.cfi_def_cfa_offset 24
.Ltmp384:
	.cfi_offset 15, 0
	std r5, r4, sp[1]               # 4-byte Folded Spill
.Ltmp385:
	.cfi_offset 4, -16
.Ltmp386:
	.cfi_offset 5, -12
	std r7, r6, sp[2]               # 4-byte Folded Spill
.Ltmp387:
	.cfi_offset 6, -8
.Ltmp388:
	.cfi_offset 7, -4
	get r11, ed
	mov r4, r11
	.loc	2 42 0 prologue_end     # C:/Users/user/workspace/lib_i2c/src/i2c_slave.xc:42:0
.Ltmp389:
	ldw r0, r4[3]
	.loc	2 42 0                  # C:/Users/user/workspace/lib_i2c/src/i2c_slave.xc:42:0
.Ltmp390:
.Lxta.endpoint_labels21:
	in r1, res[r0]
.Ltmp391:
	.loc	2 43 0                  # C:/Users/user/workspace/lib_i2c/src/i2c_slave.xc:43:0
	ldw r1, r4[6]
	.loc	2 43 0                  # C:/Users/user/workspace/lib_i2c/src/i2c_slave.xc:43:0
	sub r1, r1, 1
	ldc r5, 6
	lsu r2, r5, r1
	bt r2, .LBB45_48
# BB#1:                                 # %allocas
.Lxtalabel74:

	.xtabranch .Ljumptable1+2,.Ljumptable1+4,.Ljumptable1+6,.Ljumptable1+8,.Ljumptable1+10,.Ljumptable1+12,.Ljumptable1+14
.Ljumptable1:
		
	bru r1
	.jmptable .LBB45_2,.LBB45_15,.LBB45_11,.LBB45_21,.LBB45_47,.LBB45_38,.LBB45_28
.LBB45_2:                               # %switchcase
.Lxtalabel75:
	.loc	2 46 9                  # C:/Users/user/workspace/lib_i2c/src/i2c_slave.xc:46:9
	ldw r0, r4[9]
	.loc	2 46 9                  # C:/Users/user/workspace/lib_i2c/src/i2c_slave.xc:46:9
	bf r0, .LBB45_3
# BB#4:                                 # %ifdone
.Lxtalabel76:
	.loc	2 52 0                  # C:/Users/user/workspace/lib_i2c/src/i2c_slave.xc:52:0
.Ltmp392:
	ldw r0, r4[4]
	.loc	2 52 0                  # C:/Users/user/workspace/lib_i2c/src/i2c_slave.xc:52:0
	setc res[r0], 1
	.loc	2 52 0                  # C:/Users/user/workspace/lib_i2c/src/i2c_slave.xc:52:0
.Lxta.endpoint_labels22:
	in r0, res[r0]
.Ltmp393:
	#DEBUG_VALUE: bit <- R0
	.loc	2 53 9                  # C:/Users/user/workspace/lib_i2c/src/i2c_slave.xc:53:9
	ldw r1, r4[10]
	.loc	2 54 0                  # C:/Users/user/workspace/lib_i2c/src/i2c_slave.xc:54:0
	ldw r2, r4[11]
	.loc	2 53 9                  # C:/Users/user/workspace/lib_i2c/src/i2c_slave.xc:53:9
	lss r3, r5, r1
	bt r3, .LBB45_6
.Ltmp394:
# BB#5:                                 # %iftrue7
.Lxtalabel77:
	#DEBUG_VALUE: bit <- R0
	.loc	2 54 0                  # C:/Users/user/workspace/lib_i2c/src/i2c_slave.xc:54:0
	shl r2, r2, 1
	.loc	2 54 0                  # C:/Users/user/workspace/lib_i2c/src/i2c_slave.xc:54:0
	or r0, r2, r0
.Ltmp395:
	.loc	2 54 0                  # C:/Users/user/workspace/lib_i2c/src/i2c_slave.xc:54:0
	stw r0, r4[11]
	.loc	2 55 0                  # C:/Users/user/workspace/lib_i2c/src/i2c_slave.xc:55:0
	add r0, r1, 1
	.loc	2 55 0                  # C:/Users/user/workspace/lib_i2c/src/i2c_slave.xc:55:0
	stw r0, r4[10]
	bu .LBB45_9
.Ltmp396:
.LBB45_15:                              # %switchcase40
.Lxtalabel78:
	ldc r6, 0
	.loc	2 79 19                 # C:/Users/user/workspace/lib_i2c/src/i2c_slave.xc:79:19
.Lxta.endpoint_labels23:
	out res[r0], r6
	ldc r0, 48
	.loc	2 84 9                  # C:/Users/user/workspace/lib_i2c/src/i2c_slave.xc:84:9
.Ltmp397:
	add r7, r4, r0
	.loc	2 84 9                  # C:/Users/user/workspace/lib_i2c/src/i2c_slave.xc:84:9
	ldw r2, r7[0]
	.loc	2 85 0                  # C:/Users/user/workspace/lib_i2c/src/i2c_slave.xc:85:0
	ldw r1, r4[2]
	.loc	2 85 0                  # C:/Users/user/workspace/lib_i2c/src/i2c_slave.xc:85:0
	ldw r0, r1[0]
	.loc	2 85 0                  # C:/Users/user/workspace/lib_i2c/src/i2c_slave.xc:85:0
	ldw r1, r1[3]
	.loc	2 84 9                  # C:/Users/user/workspace/lib_i2c/src/i2c_slave.xc:84:9
	bf r2, .LBB45_16
# BB#12:                                # %iftrue50
.Lxtalabel79:
	.loc	2 85 0                  # C:/Users/user/workspace/lib_i2c/src/i2c_slave.xc:85:0
	ldw r1, r1[0]
	.loc	2 85 0                  # C:/Users/user/workspace/lib_i2c/src/i2c_slave.xc:85:0
.Lxta.call_labels11:
	bla r1
	.loc	2 86 0                  # C:/Users/user/workspace/lib_i2c/src/i2c_slave.xc:86:0
	ldw r1, r4[2]
	.loc	2 86 0                  # C:/Users/user/workspace/lib_i2c/src/i2c_slave.xc:86:0
	ldw r0, r1[0]
	.loc	2 86 0                  # C:/Users/user/workspace/lib_i2c/src/i2c_slave.xc:86:0
	ldw r1, r1[3]
	.loc	2 86 0                  # C:/Users/user/workspace/lib_i2c/src/i2c_slave.xc:86:0
	ldw r1, r1[1]
	bu .LBB45_13
.Ltmp398:
.LBB45_11:                              # %switchcase47
.Lxtalabel80:
	ldc r0, 4
.LBB45_8:                               # %ifdone23
.Lxtalabel81:
	.loc	2 62 0                  # C:/Users/user/workspace/lib_i2c/src/i2c_slave.xc:62:0
.Ltmp399:
	stw r0, r4[6]
.LBB45_9:                               # %ifdone23
.Lxtalabel82:
	ldc r0, 0
	.loc	2 67 0                  # C:/Users/user/workspace/lib_i2c/src/i2c_slave.xc:67:0
	stw r0, r4[9]
	bu .LBB45_48
.Ltmp400:
.LBB45_21:                              # %switchcase108
.Lxtalabel83:
	.loc	2 123 0                 # C:/Users/user/workspace/lib_i2c/src/i2c_slave.xc:123:0
	ldw r0, r4[4]
	.loc	2 123 0                 # C:/Users/user/workspace/lib_i2c/src/i2c_slave.xc:123:0
	setc res[r0], 1
	.loc	2 123 0                 # C:/Users/user/workspace/lib_i2c/src/i2c_slave.xc:123:0
.Ltmp401:
.Lxta.endpoint_labels24:
	in r0, res[r0]
	.loc	2 124 9                 # C:/Users/user/workspace/lib_i2c/src/i2c_slave.xc:124:9
	ldw r0, r4[7]
	.loc	2 124 9                 # C:/Users/user/workspace/lib_i2c/src/i2c_slave.xc:124:9
	eq r1, r0, 6
	bf r1, .LBB45_22
# BB#26:                                # %iftrue128
.Lxtalabel84:
	ldc r1, 0
	.loc	2 127 0                 # C:/Users/user/workspace/lib_i2c/src/i2c_slave.xc:127:0
	stw r1, r4[11]
	mkmsk r1, 1
	bu .LBB45_24
.Ltmp402:
.LBB45_47:                              # %switchcase2
.Lxtalabel85:
	ldc r0, 0
	.loc	2 72 0                  # C:/Users/user/workspace/lib_i2c/src/i2c_slave.xc:72:0
	stw r0, r4[7]
	mkmsk r0, 1
	.loc	2 73 0                  # C:/Users/user/workspace/lib_i2c/src/i2c_slave.xc:73:0
	stw r0, r4[9]
	mkmsk r0, 2
	.loc	2 74 0                  # C:/Users/user/workspace/lib_i2c/src/i2c_slave.xc:74:0
	stw r0, r4[6]
	bu .LBB45_48
.LBB45_38:                              # %switchcase148
.Lxtalabel86:
	.loc	2 187 9                 # C:/Users/user/workspace/lib_i2c/src/i2c_slave.xc:187:9
.Ltmp403:
	ldw r1, r4[9]
	.loc	2 187 9                 # C:/Users/user/workspace/lib_i2c/src/i2c_slave.xc:187:9
	eq r1, r1, 1
	.loc	2 187 9                 # C:/Users/user/workspace/lib_i2c/src/i2c_slave.xc:187:9
	bf r1, .LBB45_42
# BB#39:                                # %iftrue245
.Lxtalabel87:
	.loc	2 190 0                 # C:/Users/user/workspace/lib_i2c/src/i2c_slave.xc:190:0
.Ltmp404:
	ldw r0, r4[4]
	.loc	2 190 0                 # C:/Users/user/workspace/lib_i2c/src/i2c_slave.xc:190:0
	setc res[r0], 1
	.loc	2 190 0                 # C:/Users/user/workspace/lib_i2c/src/i2c_slave.xc:190:0
.Lxta.endpoint_labels25:
	in r1, res[r0]
.Ltmp405:
	#DEBUG_VALUE: bit <- R1
	.loc	2 191 0                 # C:/Users/user/workspace/lib_i2c/src/i2c_slave.xc:191:0
	ldw r0, r4[11]
	.loc	2 191 0                 # C:/Users/user/workspace/lib_i2c/src/i2c_slave.xc:191:0
	shl r0, r0, 1
	.loc	2 191 0                 # C:/Users/user/workspace/lib_i2c/src/i2c_slave.xc:191:0
	mov r2, r1
	zext r2, 1
	.loc	2 191 0                 # C:/Users/user/workspace/lib_i2c/src/i2c_slave.xc:191:0
	or r0, r0, r2
	.loc	2 191 0                 # C:/Users/user/workspace/lib_i2c/src/i2c_slave.xc:191:0
	stw r0, r4[11]
	.loc	2 192 11                # C:/Users/user/workspace/lib_i2c/src/i2c_slave.xc:192:11
	ldw r0, r4[10]
	bt r0, .LBB45_41
.Ltmp406:
# BB#40:                                # %iftrue263
.Lxtalabel88:
	#DEBUG_VALUE: bit <- R1
	.loc	2 193 13                # C:/Users/user/workspace/lib_i2c/src/i2c_slave.xc:193:13
	eq r1, r1, 0
.Ltmp407:
	.loc	2 196 0                 # C:/Users/user/workspace/lib_i2c/src/i2c_slave.xc:196:0
	stw r1, r4[8]
	ldc r1, 52
	.loc	2 199 0                 # C:/Users/user/workspace/lib_i2c/src/i2c_slave.xc:199:0
	add r1, r4, r1
	mkmsk r2, 1
	.loc	2 199 0                 # C:/Users/user/workspace/lib_i2c/src/i2c_slave.xc:199:0
	stw r2, r1[0]
.LBB45_41:                              # %ifdone264
.Lxtalabel89:
	ldc r1, 0
	.loc	2 201 0                 # C:/Users/user/workspace/lib_i2c/src/i2c_slave.xc:201:0
	stw r1, r4[9]
	.loc	2 202 0                 # C:/Users/user/workspace/lib_i2c/src/i2c_slave.xc:202:0
	add r0, r0, 1
	.loc	2 202 0                 # C:/Users/user/workspace/lib_i2c/src/i2c_slave.xc:202:0
	stw r0, r4[10]
	bu .LBB45_48
.Ltmp408:
.LBB45_28:                              # %switchcase114
.Lxtalabel90:
	.loc	2 137 9                 # C:/Users/user/workspace/lib_i2c/src/i2c_slave.xc:137:9
	ldw r1, r4[9]
	.loc	2 137 9                 # C:/Users/user/workspace/lib_i2c/src/i2c_slave.xc:137:9
	eq r2, r1, 1
	.loc	2 139 11                # C:/Users/user/workspace/lib_i2c/src/i2c_slave.xc:139:11
	ldw r1, r4[10]
	.loc	2 137 9                 # C:/Users/user/workspace/lib_i2c/src/i2c_slave.xc:137:9
	bf r2, .LBB45_33
# BB#29:                                # %iftrue149
.Lxtalabel91:
	.loc	2 139 11                # C:/Users/user/workspace/lib_i2c/src/i2c_slave.xc:139:11
	eq r0, r1, 8
	.loc	2 139 11                # C:/Users/user/workspace/lib_i2c/src/i2c_slave.xc:139:11
	bf r0, .LBB45_49
# BB#30:                                # %iftrue157
.Lxtalabel92:
	.loc	2 142 0                 # C:/Users/user/workspace/lib_i2c/src/i2c_slave.xc:142:0
.Ltmp409:
	ldw r0, r4[4]
	.loc	2 142 0                 # C:/Users/user/workspace/lib_i2c/src/i2c_slave.xc:142:0
	setc res[r0], 1
	.loc	2 142 0                 # C:/Users/user/workspace/lib_i2c/src/i2c_slave.xc:142:0
.Lxta.endpoint_labels26:
	in r0, res[r0]
.Ltmp410:
	#DEBUG_VALUE: bit <- R0
	.loc	2 143 13                # C:/Users/user/workspace/lib_i2c/src/i2c_slave.xc:143:13
	bf r0, .LBB45_32
.Ltmp411:
# BB#31:                                # %iftrue168
.Lxtalabel93:
	ldc r0, 0
	.loc	2 145 0                 # C:/Users/user/workspace/lib_i2c/src/i2c_slave.xc:145:0
	stw r0, r4[6]
	.loc	2 146 0                 # C:/Users/user/workspace/lib_i2c/src/i2c_slave.xc:146:0
	stw r0, r4[8]
	bu .LBB45_48
.Ltmp412:
.LBB45_22:                              # %switchcase108
.Lxtalabel94:
	eq r1, r0, 7
	bf r1, .LBB45_27
# BB#23:                                # %iftrue118
.Lxtalabel95:
	ldc r1, 0
.LBB45_24:                              # %ifdone119
.Lxtalabel96:
	.loc	2 125 0                 # C:/Users/user/workspace/lib_i2c/src/i2c_slave.xc:125:0
	stw r1, r4[9]
	bu .LBB45_25
.LBB45_42:                              # %iffalse252
.Lxtalabel97:
	ldc r1, 52
	.loc	2 207 0                 # C:/Users/user/workspace/lib_i2c/src/i2c_slave.xc:207:0
.Ltmp413:
	add r1, r4, r1
	ldc r5, 0
	.loc	2 207 0                 # C:/Users/user/workspace/lib_i2c/src/i2c_slave.xc:207:0
	stw r5, r1[0]
	.loc	2 209 11                # C:/Users/user/workspace/lib_i2c/src/i2c_slave.xc:209:11
	ldw r1, r4[10]
	.loc	2 209 11                # C:/Users/user/workspace/lib_i2c/src/i2c_slave.xc:209:11
	eq r1, r1, 8
	bf r1, .LBB45_3
# BB#43:                                # %iftrue287
.Lxtalabel98:
	.loc	2 211 23                # C:/Users/user/workspace/lib_i2c/src/i2c_slave.xc:211:23
.Lxta.endpoint_labels27:
	out res[r0], r5
	.loc	2 212 0                 # C:/Users/user/workspace/lib_i2c/src/i2c_slave.xc:212:0
	ldw r1, r4[2]
	.loc	2 212 0                 # C:/Users/user/workspace/lib_i2c/src/i2c_slave.xc:212:0
	ldw r0, r1[0]
	.loc	2 212 0                 # C:/Users/user/workspace/lib_i2c/src/i2c_slave.xc:212:0
	ldw r1, r1[3]
	.loc	2 212 0                 # C:/Users/user/workspace/lib_i2c/src/i2c_slave.xc:212:0
	ldw r1, r1[6]
	.loc	2 212 0                 # C:/Users/user/workspace/lib_i2c/src/i2c_slave.xc:212:0
.Lxta.call_labels12:
	bla r1
	.loc	2 213 0                 # C:/Users/user/workspace/lib_i2c/src/i2c_slave.xc:213:0
.Ltmp414:
	ldw r1, r4[2]
	.loc	2 213 0                 # C:/Users/user/workspace/lib_i2c/src/i2c_slave.xc:213:0
	ldw r0, r1[0]
	.loc	2 213 0                 # C:/Users/user/workspace/lib_i2c/src/i2c_slave.xc:213:0
	ldw r1, r1[3]
	.loc	2 213 0                 # C:/Users/user/workspace/lib_i2c/src/i2c_slave.xc:213:0
	ldw r2, r1[7]
	ldc r1, 44
	.loc	2 213 0                 # C:/Users/user/workspace/lib_i2c/src/i2c_slave.xc:213:0
	ld8u r1, r4[r1]
.Lxta.call_labels13:
	bla r2
.Ltmp415:
	#DEBUG_VALUE: ack <- R0
	.loc	2 214 13                # C:/Users/user/workspace/lib_i2c/src/i2c_slave.xc:214:13
	eq r1, r0, 1
	.loc	2 216 0                 # C:/Users/user/workspace/lib_i2c/src/i2c_slave.xc:216:0
	ldw r0, r4[4]
.Ltmp416:
	.loc	2 214 13                # C:/Users/user/workspace/lib_i2c/src/i2c_slave.xc:214:13
	bf r1, .LBB45_46
# BB#44:                                # %iftrue312
.Lxtalabel99:
	.loc	2 216 0                 # C:/Users/user/workspace/lib_i2c/src/i2c_slave.xc:216:0
	setc res[r0], 1
	.loc	2 216 0                 # C:/Users/user/workspace/lib_i2c/src/i2c_slave.xc:216:0
.Ltmp417:
.Lxta.endpoint_labels28:
	in r0, res[r0]
	bu .LBB45_45
.Ltmp418:
.LBB45_33:                              # %iffalse156
.Lxtalabel100:
	ldc r2, 8
	.loc	2 158 11                # C:/Users/user/workspace/lib_i2c/src/i2c_slave.xc:158:11
	lss r2, r1, r2
	.loc	2 158 11                # C:/Users/user/workspace/lib_i2c/src/i2c_slave.xc:158:11
	bf r2, .LBB45_50
# BB#34:                                # %iftrue185
.Lxtalabel101:
	.loc	2 159 13                # C:/Users/user/workspace/lib_i2c/src/i2c_slave.xc:159:13
	bf r1, .LBB45_35
# BB#37:                                # %iffalse200
.Lxtalabel102:
	.loc	2 175 34                # C:/Users/user/workspace/lib_i2c/src/i2c_slave.xc:175:34
.Ltmp419:
	ldw r1, r4[4]
	.loc	2 175 34                # C:/Users/user/workspace/lib_i2c/src/i2c_slave.xc:175:34
	ldw r0, r4[11]
	.loc	2 175 34                # C:/Users/user/workspace/lib_i2c/src/i2c_slave.xc:175:34
	mov r2, r0
	zext r2, 1
	.loc	2 175 34                # C:/Users/user/workspace/lib_i2c/src/i2c_slave.xc:175:34
.Lxta.endpoint_labels29:
	out res[r1], r2
	bu .LBB45_36
.Ltmp420:
.LBB45_16:                              # %iffalse55
.Lxtalabel103:
	.loc	2 88 0                  # C:/Users/user/workspace/lib_i2c/src/i2c_slave.xc:88:0
	ldw r1, r1[2]
	.loc	2 88 0                  # C:/Users/user/workspace/lib_i2c/src/i2c_slave.xc:88:0
.Lxta.call_labels14:
	bla r1
	.loc	2 89 0                  # C:/Users/user/workspace/lib_i2c/src/i2c_slave.xc:89:0
	ldw r1, r4[2]
	.loc	2 89 0                  # C:/Users/user/workspace/lib_i2c/src/i2c_slave.xc:89:0
	ldw r0, r1[0]
	.loc	2 89 0                  # C:/Users/user/workspace/lib_i2c/src/i2c_slave.xc:89:0
	ldw r1, r1[3]
	.loc	2 89 0                  # C:/Users/user/workspace/lib_i2c/src/i2c_slave.xc:89:0
	ldw r1, r1[3]
.LBB45_13:                              # %ifdone51
.Lxtalabel104:
	.loc	2 86 0                  # C:/Users/user/workspace/lib_i2c/src/i2c_slave.xc:86:0
.Lxta.call_labels15:
	bla r1
.Ltmp421:
	#DEBUG_VALUE: ack <- R0
	ldc r1, 56
	.loc	2 92 0                  # C:/Users/user/workspace/lib_i2c/src/i2c_slave.xc:92:0
	add r1, r4, r1
	.loc	2 92 0                  # C:/Users/user/workspace/lib_i2c/src/i2c_slave.xc:92:0
	stw r6, r1[0]
	.loc	2 93 9                  # C:/Users/user/workspace/lib_i2c/src/i2c_slave.xc:93:9
	eq r1, r0, 1
	.loc	2 95 0                  # C:/Users/user/workspace/lib_i2c/src/i2c_slave.xc:95:0
	ldw r0, r4[4]
.Ltmp422:
	.loc	2 93 9                  # C:/Users/user/workspace/lib_i2c/src/i2c_slave.xc:93:9
	bf r1, .LBB45_17
# BB#14:                                # %iftrue77
.Lxtalabel105:
	.loc	2 95 0                  # C:/Users/user/workspace/lib_i2c/src/i2c_slave.xc:95:0
	setc res[r0], 1
	.loc	2 95 0                  # C:/Users/user/workspace/lib_i2c/src/i2c_slave.xc:95:0
.Ltmp423:
.Lxta.endpoint_labels30:
	in r0, res[r0]
	.loc	2 96 0                  # C:/Users/user/workspace/lib_i2c/src/i2c_slave.xc:96:0
	stw r6, r4[7]
	bu .LBB45_19
.LBB45_17:                              # %iffalse82
.Lxtalabel106:
	.loc	2 99 21                 # C:/Users/user/workspace/lib_i2c/src/i2c_slave.xc:99:21
.Lxta.endpoint_labels31:
	out res[r0], r6
	.loc	2 100 11                # C:/Users/user/workspace/lib_i2c/src/i2c_slave.xc:100:11
	ldw r0, r7[0]
	.loc	2 100 11                # C:/Users/user/workspace/lib_i2c/src/i2c_slave.xc:100:11
	bf r0, .LBB45_20
# BB#18:                                # %iftrue90
.Lxtalabel107:
	mkmsk r0, 3
	.loc	2 101 0                 # C:/Users/user/workspace/lib_i2c/src/i2c_slave.xc:101:0
	stw r0, r4[7]
	bu .LBB45_19
.Ltmp424:
.LBB45_6:                               # %ifdone8
.Lxtalabel108:
	#DEBUG_VALUE: bit <- R0
	ldc r1, 20
	.loc	2 61 9                  # C:/Users/user/workspace/lib_i2c/src/i2c_slave.xc:61:9
.Ltmp425:
	ld8u r1, r4[r1]
	.loc	2 61 9                  # C:/Users/user/workspace/lib_i2c/src/i2c_slave.xc:61:9
	eq r1, r2, r1
	.loc	2 61 9                  # C:/Users/user/workspace/lib_i2c/src/i2c_slave.xc:61:9
	bf r1, .LBB45_7
.Ltmp426:
# BB#10:                                # %iffalse
.Lxtalabel109:
	#DEBUG_VALUE: bit <- R0
	ldc r1, 2
	.loc	2 64 0                  # C:/Users/user/workspace/lib_i2c/src/i2c_slave.xc:64:0
	stw r1, r4[6]
	ldc r1, 48
	.loc	2 65 0                  # C:/Users/user/workspace/lib_i2c/src/i2c_slave.xc:65:0
	add r1, r4, r1
	.loc	2 65 0                  # C:/Users/user/workspace/lib_i2c/src/i2c_slave.xc:65:0
	stw r0, r1[0]
	bu .LBB45_9
.Ltmp427:
.LBB45_49:                              # %iffalse164
.Lxtalabel110:
	ldc r0, 0
	.loc	2 153 0                 # C:/Users/user/workspace/lib_i2c/src/i2c_slave.xc:153:0
.Ltmp428:
	stw r0, r4[9]
	.loc	2 154 0                 # C:/Users/user/workspace/lib_i2c/src/i2c_slave.xc:154:0
	add r0, r1, 1
	.loc	2 154 0                 # C:/Users/user/workspace/lib_i2c/src/i2c_slave.xc:154:0
	stw r0, r4[10]
	bu .LBB45_48
.LBB45_27:                              # %iffalse135
.Lxtalabel111:
	ldc r1, 0
	.loc	2 130 0                 # C:/Users/user/workspace/lib_i2c/src/i2c_slave.xc:130:0
	stw r1, r4[8]
.LBB45_25:                              # %ifdone119
.Lxtalabel112:
	.loc	2 132 0                 # C:/Users/user/workspace/lib_i2c/src/i2c_slave.xc:132:0
	stw r0, r4[6]
	ldc r0, 0
	.loc	2 133 0                 # C:/Users/user/workspace/lib_i2c/src/i2c_slave.xc:133:0
	stw r0, r4[10]
	bu .LBB45_48
.LBB45_50:                              # %iffalse192
.Lxtalabel113:
	.loc	2 180 0                 # C:/Users/user/workspace/lib_i2c/src/i2c_slave.xc:180:0
.Ltmp429:
	ldw r0, r4[4]
	bu .LBB45_51
.Ltmp430:
.LBB45_20:                              # %iffalse95
.Lxtalabel114:
	.loc	2 103 0                 # C:/Users/user/workspace/lib_i2c/src/i2c_slave.xc:103:0
	stw r5, r4[7]
.LBB45_19:                              # %ifdone78
.Lxtalabel115:
	mkmsk r0, 1
	.loc	2 106 0                 # C:/Users/user/workspace/lib_i2c/src/i2c_slave.xc:106:0
	stw r0, r4[9]
	mkmsk r0, 2
	.loc	2 107 0                 # C:/Users/user/workspace/lib_i2c/src/i2c_slave.xc:107:0
	stw r0, r4[6]
	ldc r0, 10
	.loc	2 20 0                  # C:/Users/user/workspace/lib_i2c/src/i2c_slave.xc:20:0
.Ltmp431:
.Lxta.call_labels16:
	bl delay_ticks
.Ltmp432:
	.loc	2 112 0                 # C:/Users/user/workspace/lib_i2c/src/i2c_slave.xc:112:0
	ldw r0, r4[3]
	.loc	2 112 0                 # C:/Users/user/workspace/lib_i2c/src/i2c_slave.xc:112:0
	setc res[r0], 1
	.loc	2 112 0                 # C:/Users/user/workspace/lib_i2c/src/i2c_slave.xc:112:0
.Ltmp433:
.Lxta.endpoint_labels32:
	in r0, res[r0]
	bu .LBB45_48
.Ltmp434:
.LBB45_7:                               # %iftrue22
.Lxtalabel116:
	ldc r0, 5
	bu .LBB45_8
.LBB45_46:                              # %iffalse317
.Lxtalabel117:
	.loc	2 219 25                # C:/Users/user/workspace/lib_i2c/src/i2c_slave.xc:219:25
.Ltmp435:
.Lxta.endpoint_labels33:
	out res[r0], r5
.LBB45_45:                              # %ifdone313
.Lxtalabel118:
	mkmsk r0, 2
	.loc	2 221 0                 # C:/Users/user/workspace/lib_i2c/src/i2c_slave.xc:221:0
	stw r0, r4[6]
	ldc r0, 10
	.loc	2 20 0                  # C:/Users/user/workspace/lib_i2c/src/i2c_slave.xc:20:0
.Ltmp436:
.Lxta.call_labels17:
	bl delay_ticks
.Ltmp437:
	.loc	2 226 0                 # C:/Users/user/workspace/lib_i2c/src/i2c_slave.xc:226:0
	ldw r0, r4[3]
.Ltmp438:
.LBB45_51:                              # %iftrue
.Lxtalabel119:
	.loc	2 180 0                 # C:/Users/user/workspace/lib_i2c/src/i2c_slave.xc:180:0
	setc res[r0], 1
	.loc	2 180 0                 # C:/Users/user/workspace/lib_i2c/src/i2c_slave.xc:180:0
.Ltmp439:
.Lxta.endpoint_labels34:
	in r0, res[r0]
	bu .LBB45_3
.Ltmp440:
.LBB45_32:                              # %iffalse171
.Lxtalabel120:
	ldc r0, 0
	.loc	2 148 0                 # C:/Users/user/workspace/lib_i2c/src/i2c_slave.xc:148:0
.Ltmp441:
	stw r0, r4[10]
	.loc	2 149 0                 # C:/Users/user/workspace/lib_i2c/src/i2c_slave.xc:149:0
	stw r0, r4[9]
	bu .LBB45_48
.Ltmp442:
.LBB45_35:                              # %iftrue193
.Lxtalabel121:
	ldc r1, 0
	.loc	2 161 25                # C:/Users/user/workspace/lib_i2c/src/i2c_slave.xc:161:25
.Lxta.endpoint_labels35:
	out res[r0], r1
	.loc	2 162 0                 # C:/Users/user/workspace/lib_i2c/src/i2c_slave.xc:162:0
	ldw r1, r4[2]
	.loc	2 162 0                 # C:/Users/user/workspace/lib_i2c/src/i2c_slave.xc:162:0
	ldw r0, r1[0]
	.loc	2 162 0                 # C:/Users/user/workspace/lib_i2c/src/i2c_slave.xc:162:0
	ldw r1, r1[3]
	.loc	2 162 0                 # C:/Users/user/workspace/lib_i2c/src/i2c_slave.xc:162:0
	ldw r1, r1[4]
	.loc	2 162 0                 # C:/Users/user/workspace/lib_i2c/src/i2c_slave.xc:162:0
.Lxta.call_labels18:
	bla r1
	.loc	2 163 0                 # C:/Users/user/workspace/lib_i2c/src/i2c_slave.xc:163:0
	ldw r1, r4[2]
	.loc	2 163 0                 # C:/Users/user/workspace/lib_i2c/src/i2c_slave.xc:163:0
	ldw r0, r1[0]
	.loc	2 163 0                 # C:/Users/user/workspace/lib_i2c/src/i2c_slave.xc:163:0
	ldw r1, r1[3]
	.loc	2 163 0                 # C:/Users/user/workspace/lib_i2c/src/i2c_slave.xc:163:0
	ldw r1, r1[5]
	.loc	2 163 0                 # C:/Users/user/workspace/lib_i2c/src/i2c_slave.xc:163:0
.Lxta.call_labels19:
	bla r1
	.loc	2 165 0                 # C:/Users/user/workspace/lib_i2c/src/i2c_slave.xc:165:0
	bitrev r0, r0
	.loc	2 165 0                 # C:/Users/user/workspace/lib_i2c/src/i2c_slave.xc:165:0
	shr r0, r0, 24
	.loc	2 165 0                 # C:/Users/user/workspace/lib_i2c/src/i2c_slave.xc:165:0
	stw r0, r4[11]
	.loc	2 168 34                # C:/Users/user/workspace/lib_i2c/src/i2c_slave.xc:168:34
	ldw r1, r4[4]
	.loc	2 168 34                # C:/Users/user/workspace/lib_i2c/src/i2c_slave.xc:168:34
	zext r0, 1
	.loc	2 168 34                # C:/Users/user/workspace/lib_i2c/src/i2c_slave.xc:168:34
.Lxta.endpoint_labels36:
	out res[r1], r0
	ldc r0, 10
	.loc	2 20 0                  # C:/Users/user/workspace/lib_i2c/src/i2c_slave.xc:20:0
.Ltmp443:
.Lxta.call_labels20:
	bl delay_ticks
.Ltmp444:
	.loc	2 173 0                 # C:/Users/user/workspace/lib_i2c/src/i2c_slave.xc:173:0
	ldw r0, r4[3]
	.loc	2 173 0                 # C:/Users/user/workspace/lib_i2c/src/i2c_slave.xc:173:0
	setc res[r0], 1
	.loc	2 173 0                 # C:/Users/user/workspace/lib_i2c/src/i2c_slave.xc:173:0
.Ltmp445:
.Lxta.endpoint_labels37:
	in r0, res[r0]
	.loc	2 177 0                 # C:/Users/user/workspace/lib_i2c/src/i2c_slave.xc:177:0
	ldw r0, r4[11]
.LBB45_36:                              # %ifdone194
.Lxtalabel122:
	.loc	2 177 0                 # C:/Users/user/workspace/lib_i2c/src/i2c_slave.xc:177:0
	ashr r0, r0, 1
	.loc	2 177 0                 # C:/Users/user/workspace/lib_i2c/src/i2c_slave.xc:177:0
	stw r0, r4[11]
.Ltmp446:
.LBB45_3:                               # %iftrue
.Lxtalabel123:
	mkmsk r0, 1
	.loc	2 47 0                  # C:/Users/user/workspace/lib_i2c/src/i2c_slave.xc:47:0
	stw r0, r4[9]
.Ltmp447:
.LBB45_48:                              # %return
.Lxtalabel124:
	ldd r7, r6, sp[2]               # 4-byte Folded Reload
	ldd r5, r4, sp[1]               # 4-byte Folded Reload
	retsp 6
	# RETURN_REG_HOLDER
	.cc_bottom i2c_slave.select.yield.case.1.function
	.set	i2c_slave.select.yield.case.1.nstackwords,((_i.i2c_slave_callback_if.start_write_request.max.nstackwords $M _i.i2c_slave_callback_if.ack_read_request.max.nstackwords $M _i.i2c_slave_callback_if.start_read_request.max.nstackwords $M _i.i2c_slave_callback_if.start_master_write.max.nstackwords $M _i.i2c_slave_callback_if.master_sent_data.max.nstackwords $M _i.i2c_slave_callback_if.start_master_read.max.nstackwords $M _i.i2c_slave_callback_if.master_requires_data.max.nstackwords $M delay_ticks.nstackwords) + 6)
	.set	i2c_slave.select.yield.case.1.maxcores,_i.i2c_slave_callback_if.ack_read_request.max.maxcores $M _i.i2c_slave_callback_if.ack_write_request.max.maxcores $M _i.i2c_slave_callback_if.master_requires_data.max.maxcores $M _i.i2c_slave_callback_if.master_sent_data.max.maxcores $M _i.i2c_slave_callback_if.start_master_read.max.maxcores $M _i.i2c_slave_callback_if.start_master_write.max.maxcores $M _i.i2c_slave_callback_if.start_read_request.max.maxcores $M _i.i2c_slave_callback_if.start_write_request.max.maxcores $M delay_ticks.maxcores $M 1
	.set	i2c_slave.select.yield.case.1.maxtimers,_i.i2c_slave_callback_if.ack_read_request.max.maxtimers $M _i.i2c_slave_callback_if.ack_write_request.max.maxtimers $M _i.i2c_slave_callback_if.master_requires_data.max.maxtimers $M _i.i2c_slave_callback_if.master_sent_data.max.maxtimers $M _i.i2c_slave_callback_if.start_master_read.max.maxtimers $M _i.i2c_slave_callback_if.start_master_write.max.maxtimers $M _i.i2c_slave_callback_if.start_read_request.max.maxtimers $M _i.i2c_slave_callback_if.start_write_request.max.maxtimers $M delay_ticks.maxtimers $M 0
	.set	i2c_slave.select.yield.case.1.maxchanends,_i.i2c_slave_callback_if.ack_read_request.max.maxchanends $M _i.i2c_slave_callback_if.ack_write_request.max.maxchanends $M _i.i2c_slave_callback_if.master_requires_data.max.maxchanends $M _i.i2c_slave_callback_if.master_sent_data.max.maxchanends $M _i.i2c_slave_callback_if.start_master_read.max.maxchanends $M _i.i2c_slave_callback_if.start_master_write.max.maxchanends $M _i.i2c_slave_callback_if.start_read_request.max.maxchanends $M _i.i2c_slave_callback_if.start_write_request.max.maxchanends $M delay_ticks.maxchanends $M 0
.Ltmp448:
	.size	i2c_slave.select.yield.case.1, .Ltmp448-i2c_slave.select.yield.case.1
.Lfunc_end45:
	.cfi_endproc

	.align	4
