	.text
	.file	"../src/extensions/ledctrl.xc"
                                        # Start of file scope inline assembly
	.inline_definition delay_seconds
	.inline_definition delay_milliseconds
	.inline_definition delay_microseconds
	.inline_definition atanl
	.inline_definition cosl
	.inline_definition sinl
	.inline_definition tanl
	.inline_definition tanhl
	.inline_definition frexpl
	.inline_definition modfl
	.inline_definition ceill
	.inline_definition fabsl
	.inline_definition floorl
	.inline_definition log1pl
	.inline_definition expm1l
	.inline_definition acosl
	.inline_definition asinl
	.inline_definition atan2l
	.inline_definition coshl
	.inline_definition sinhl
	.inline_definition expl
	.inline_definition ldexpl
	.inline_definition logl
	.inline_definition log10l
	.inline_definition log2
	.inline_definition log2f
	.inline_definition log2l
	.inline_definition powl
	.inline_definition sqrtl
	.inline_definition fmodl
	.inline_definition hypotl
	.inline_definition copysignl
	.inline_definition nanl
	.inline_definition ilogbl
	.inline_definition logbl
	.inline_definition asinhl
	.inline_definition cbrtl
	.inline_definition nextafterl
	.inline_definition nexttoward
	.inline_definition nexttowardf
	.inline_definition nexttowardl
	.inline_definition rintl
	.inline_definition scalbnl
	.inline_definition exp2l
	.inline_definition scalblnl
	.inline_definition tgammal
	.inline_definition nearbyintl
	.inline_definition lrintl
	.inline_definition llrintl
	.inline_definition roundl
	.inline_definition lroundl
	.inline_definition llroundl
	.inline_definition truncl
	.inline_definition remquol
	.inline_definition fdiml
	.inline_definition fmaxl
	.inline_definition fminl
	.inline_definition fmal
	.inline_definition acoshl
	.inline_definition atanhl
	.inline_definition remainderl
	.inline_definition lgammal
	.inline_definition erfl
	.inline_definition erfcl
	.globalresource 0x80200,"p_led0_to_7","tile[0]"
	.globalresource 0x10900,"p_led8","tile[0]"
	.globalresource 0x10b00,"p_led9","tile[0]"
	.globalresource 0x80300,"p_led10_to_12","tile[0]"
	.inline_definition led12_high
	.inline_definition led12_low
	.inline_definition all_leds_low
	.inline_definition all_leds_high
	.set led_controller.dynalloc_maxchanends, 0
	.globl led_controller.dynalloc_maxchanends
	.set led_controller.dynalloc_maxcores, 0
	.globl led_controller.dynalloc_maxcores
	.set led_controller.dynalloc_maxtimers, 0
	.globl led_controller.dynalloc_maxtimers
	.set led_controller.init.0.savedstate,4
	.globl led_controller.init.0.savedstate
	.set led_controller.select.yield.enable.savedstate,4
	.globl led_controller.select.yield.enable.savedstate
	.set led_controller.select.yield.enable.cases.maxtimers,0 $M led_controller.select.yield.case.0.maxtimers
	.globl led_controller.select.yield.enable.cases.maxtimers
	.set led_controller.select.yield.enable.cases.maxcores,0 $M led_controller.select.yield.case.0.maxcores
	.globl led_controller.select.yield.enable.cases.maxcores
	.set led_controller.select.yield.enable.cases.maxchanends,0 $M led_controller.select.yield.case.0.maxchanends
	.globl led_controller.select.yield.enable.cases.maxchanends
	.set led_controller.select.yield.enable.cases,0
	.globl led_controller.select.yield.enable.cases
	.set led_controller.select.yield.enable.cases.nstackwords, 0 $M (led_controller.select.yield.case.0.nstackwords)
	.globl led_controller.select.yield.enable.cases.nstackwords
	.set led_controller.select.enable.savedstate,4
	.globl led_controller.select.enable.savedstate
	.set led_controller.select.enable.cases.maxtimers,0 $M led_controller.select.case.0.maxtimers
	.globl led_controller.select.enable.cases.maxtimers
	.set led_controller.select.enable.cases.maxcores,0 $M led_controller.select.case.0.maxcores
	.globl led_controller.select.enable.cases.maxcores
	.set led_controller.select.enable.cases.maxchanends,0 $M led_controller.select.case.0.maxchanends
	.globl led_controller.select.enable.cases.maxchanends
	.set led_controller.select.enable.cases,0
	.globl led_controller.select.enable.cases
	.set led_controller.select.enable.cases.nstackwords, 0 $M (led_controller.select.case.0.nstackwords)
	.globl led_controller.select.enable.cases.nstackwords
	.pushsection .netinfo, "", @netinfo
	.int      0x1eaba15c
.globl p_led0_to_7.info, "o:p"
p_led0_to_7.info:
	.int 0x00080200
	.long tile + 0
.globl p_led8.info, "o:p"
p_led8.info:
	.int 0x00010900
	.long tile + 0
.globl p_led9.info, "o:p"
p_led9.info:
	.int 0x00010b00
	.long tile + 0
.globl p_led10_to_12.info, "o:p"
p_led10_to_12.info:
	.int 0x00080300
	.long tile + 0
	.popsection
	.set usage.anon.0,0
	.set usage.anon.1,0
	.set usage.anon.2,0
	.set usage.anon.3,0
	.set usage.anon.4,0
	.set usage.anon.5,0
	.set usage.anon.6,0
	.set usage.anon.7,0
	.set usage.anon.8,0
	.set usage.anon.9,0
	.set usage.anon.10,0
	.set usage.anon.11,0
	.set usage.anon.12,0
	.set usage.anon.13,0
	.set usage.anon.14,0
	.set usage.anon.15,0
	.set usage.anon.16,0
	.set usage.anon.17,0
	.set usage.anon.18,0
	.set usage.anon.19,0
	.set usage.anon.20,0
	.set usage.anon.21,0
	.set usage.anon.22,0
	.set usage.anon.23,0
	.set usage.anon.24,0
	.set usage.anon.25,0
	.set usage.anon.26,0
	.set usage.anon.27,0
	.set usage.anon.28,0
	.set usage.anon.29,0
	.set usage.anon.30,0
	.set usage.anon.31,0
	.set usage.anon.32,0
	.set usage.anon.33,0
	.set usage.anon.34,0
	.set usage.anon.35,0
	.set usage.anon.36,0
	.set usage.anon.37,0
	.set usage.anon.38,0
	.set usage.anon.39,0
	.set usage.anon.40,0
	.set usage.anon.41,0
	.set usage.anon.42,0
	.set usage.anon.43,0
	.set usage.anon.44,0
	.set usage.anon.45,0
	.set usage.anon.46,0
	.set usage.anon.47,0
	.set usage.anon.48,0
	.set usage.anon.49,0
	.set usage.anon.50,0
	.set usage.anon.51,0
	.set usage.anon.52,0
	.set usage.anon.53,0
	.set usage.anon.54,0
	.set usage.anon.55,0
	.set usage.anon.56,0
	.set usage.anon.57,0
	.set usage.anon.58,0
	.set usage.anon.59,0
	.set usage.anon.60,0
	.set usage.anon.61,0
	.set usage.anon.62,0
	.set usage.anon.63,0
	.set usage.anon.64,0
	.set usage.anon.65,0
	.set usage.anon.66,0
	.set usage.anon.67,0
	.set usage.anon.68,0
	.globread SetLed,usage.anon.68,36,4,"../src/extensions/ledctrl.xc:102:16: note: object used here (bytes 36..40)\n    p_led9 <: (ledVals[9] == 0);\n               ^~~~~~~~~~"
	.globread SetLed,usage.anon.68,32,4,"../src/extensions/ledctrl.xc:101:16: note: object used here (bytes 32..36)\n    p_led8 <: (ledVals[8] == 0);\n               ^~~~~~~~~~"
	.globwrite SetLed,usage.anon.68,"../src/extensions/ledctrl.xc:93:5: note: object used here\n    ledVals[ledNo] = ledVal;\n    ^~~~~~~~~~~~~~"
	.globwrite SetLed,p_led10_to_12,"../src/extensions/ledctrl.xc:109:5: note: object used here\n    p_led10_to_12 <: d;\n    ^~~~~~~~~~~~~"
	.globwrite SetLed,p_led9,"../src/extensions/ledctrl.xc:102:5: note: object used here\n    p_led9 <: (ledVals[9] == 0);\n    ^~~~~~"
	.globwrite SetLed,p_led8,"../src/extensions/ledctrl.xc:101:5: note: object used here\n    p_led8 <: (ledVals[8] == 0);\n    ^~~~~~"
	.globwrite SetLed,p_led0_to_7,"../src/extensions/ledctrl.xc:100:5: note: object used here\n    p_led0_to_7 <: d;\n    ^~~~~~~~~~~"
	.globwrite usage.anon.67,p_led10_to_12,"../src/extensions/ledctrl.xc:80:30: note: object used here\n  unsigned port_value = peek(p_led10_to_12);\n                             ^~~~~~~~~~~~~\nC:\\Program Files (x86)\\XMOS\\xTIMEcomposer\\Community_14.3.3\\target/include\\xs1.h:1056:61: note: expanded from macro \'peek\'\n#define peek(p)                              __builtin_peek(p)\n                                                            ^"
	.globwrite usage.anon.67,p_led9,"../src/extensions/ledctrl.xc:84:3: note: object used here\n  p_led9 <: 1;\n  ^~~~~~"
	.globwrite usage.anon.67,p_led8,"../src/extensions/ledctrl.xc:83:3: note: object used here\n  p_led8 <: 1;\n  ^~~~~~"
	.globwrite usage.anon.67,p_led0_to_7,"../src/extensions/ledctrl.xc:82:3: note: object used here\n  p_led0_to_7 <: 0xff;\n  ^~~~~~~~~~~"
	.globwrite usage.anon.66,p_led10_to_12,"../src/extensions/ledctrl.xc:62:30: note: object used here\n  unsigned port_value = peek(p_led10_to_12);\n                             ^~~~~~~~~~~~~\nC:\\Program Files (x86)\\XMOS\\xTIMEcomposer\\Community_14.3.3\\target/include\\xs1.h:1056:61: note: expanded from macro \'peek\'\n#define peek(p)                              __builtin_peek(p)\n                                                            ^"
	.globwrite usage.anon.66,p_led9,"../src/extensions/ledctrl.xc:66:3: note: object used here\n  p_led9 <: 0;\n  ^~~~~~"
	.globwrite usage.anon.66,p_led8,"../src/extensions/ledctrl.xc:65:3: note: object used here\n  p_led8 <: 0;\n  ^~~~~~"
	.globwrite usage.anon.66,p_led0_to_7,"../src/extensions/ledctrl.xc:64:3: note: object used here\n  p_led0_to_7 <: 0;\n  ^~~~~~~~~~~"
	.globwrite usage.anon.65,p_led10_to_12,"../src/extensions/ledctrl.xc:46:30: note: object used here\n  unsigned port_value = peek(p_led10_to_12);\n                             ^~~~~~~~~~~~~\nC:\\Program Files (x86)\\XMOS\\xTIMEcomposer\\Community_14.3.3\\target/include\\xs1.h:1056:61: note: expanded from macro \'peek\'\n#define peek(p)                              __builtin_peek(p)\n                                                            ^"
	.globwrite usage.anon.64,p_led10_to_12,"../src/extensions/ledctrl.xc:35:30: note: object used here\n  unsigned port_value = peek(p_led10_to_12);\n                             ^~~~~~~~~~~~~\nC:\\Program Files (x86)\\XMOS\\xTIMEcomposer\\Community_14.3.3\\target/include\\xs1.h:1056:61: note: expanded from macro \'peek\'\n#define peek(p)                              __builtin_peek(p)\n                                                            ^"
	.call led_controller,SetLed
	.call usage.anon.63,erfc
	.call usage.anon.62,erf
	.call usage.anon.61,lgamma
	.call usage.anon.60,remainder
	.call usage.anon.59,atanh
	.call usage.anon.58,acosh
	.call usage.anon.57,fma
	.call usage.anon.56,fmin
	.call usage.anon.55,fmax
	.call usage.anon.54,fdim
	.call usage.anon.53,remquo
	.call usage.anon.52,usage.anon.52
	.call usage.anon.51,llround
	.call usage.anon.50,lround
	.call usage.anon.49,round
	.call usage.anon.48,llrint
	.call usage.anon.47,lrint
	.call usage.anon.46,nearbyint
	.call usage.anon.45,tgamma
	.call usage.anon.44,scalbln
	.call usage.anon.43,exp2
	.call usage.anon.42,scalbn
	.call usage.anon.41,rint
	.call usage.anon.40,usage.anon.37
	.call usage.anon.39,nextafterf
	.call usage.anon.38,nextafter
	.call usage.anon.37,nextafter
	.call usage.anon.36,cbrt
	.call usage.anon.35,asinh
	.call usage.anon.34,logb
	.call usage.anon.33,ilogb
	.call usage.anon.32,nan
	.call usage.anon.31,copysign
	.call usage.anon.30,hypot
	.call usage.anon.29,fmod
	.call usage.anon.28,sqrt
	.call usage.anon.27,pow
	.call usage.anon.26,log
	.call usage.anon.25,logf
	.call usage.anon.24,log
	.call usage.anon.23,log10
	.call usage.anon.22,log
	.call usage.anon.21,ldexp
	.call usage.anon.20,exp
	.call usage.anon.19,sinh
	.call usage.anon.18,cosh
	.call usage.anon.17,atan2
	.call usage.anon.16,asin
	.call usage.anon.15,acos
	.call usage.anon.14,expm1
	.call usage.anon.13,log1p
	.call usage.anon.12,floor
	.call usage.anon.11,fabs
	.call usage.anon.10,ceil
	.call usage.anon.9,modf
	.call usage.anon.8,frexp
	.call usage.anon.7,tanh
	.call usage.anon.6,tan
	.call usage.anon.5,sin
	.call usage.anon.4,cos
	.call usage.anon.3,atan
	.call usage.anon.2,delay_ticks_longlong
	.call usage.anon.1,delay_ticks_longlong
	.call usage.anon.0,delay_ticks_longlong
	.set usage.anon.64.locnoside, 0
	.set usage.anon.65.locnoside, 0
	.set usage.anon.66.locnoside, 0
	.set usage.anon.67.locnoside, 0
	.set SetLed.locnoside, 0
	.set led_init_chanend.locnoside, 0
	.set led_controller.locnoside, 0
	.set usage.anon.64.locnoglobalaccess, 0
	.set usage.anon.65.locnoglobalaccess, 0
	.set usage.anon.66.locnoglobalaccess, 0
	.set usage.anon.67.locnoglobalaccess, 0
	.set SetLed.locnoglobalaccess, 0
	.set led_init_chanend.locnoglobalaccess, 0
	.assert 1,SetLed.actnonotificationselect,"../src/extensions/ledctrl.xc:155:29: error: call to function `SetLed\' which selects on a notification in a combinable function select case\n                            SetLed(i, 0);\n                            ^~~~~~~~~~~~"

                                        # End of file scope inline assembly
	.text
	.globl	led_init_chanend
	.align	4
	.type	led_init_chanend,@function
	.cc_top led_init_chanend.function,led_init_chanend
led_init_chanend:                       # @led_init_chanend
.Lfunc_begin0:
	.loc	1 114 0                 # ../src/extensions/ledctrl.xc:114:0
	.cfi_startproc
	.issue_mode dual
# BB#0:                                 # %allocas
.Lxtalabel0:
	{
		nop
		dualentsp 0
	}
	#DEBUG_VALUE: led_init_chanend:c_led_init <- R0
	.loc	1 116 0 prologue_end    # ../src/extensions/ledctrl.xc:116:0
.Ltmp0:
	stw r0, dp[c_led]
	{
		nop
		retsp 0
	}
	# RETURN_REG_HOLDER
.Ltmp1:
	.cc_bottom led_init_chanend.function
	.set	led_init_chanend.nstackwords,0
	.globl	led_init_chanend.nstackwords
	.set	led_init_chanend.maxcores,1
	.globl	led_init_chanend.maxcores
	.set	led_init_chanend.maxtimers,0
	.globl	led_init_chanend.maxtimers
	.set	led_init_chanend.maxchanends,0
	.globl	led_init_chanend.maxchanends
.Ltmp2:
	.size	led_init_chanend, .Ltmp2-led_init_chanend
.Lfunc_end0:
	.cfi_endproc

	.globl	led_controller
	.align	4
	.type	led_controller,@function
	.cc_top led_controller.function,led_controller
led_controller:                         # @led_controller
.Lfunc_begin1:
	.loc	1 124 0                 # ../src/extensions/ledctrl.xc:124:0
	.cfi_startproc
	.issue_mode dual
# BB#0:                                 # %allocas
.Lxtalabel1:
	{
		nop
		dualentsp 10
	}
.Ltmp3:
	.cfi_def_cfa_offset 40
.Ltmp4:
	.cfi_offset 15, 0
	std r5, r4, sp[1]               # 4-byte Folded Spill
.Ltmp5:
	.cfi_offset 4, -32
.Ltmp6:
	.cfi_offset 5, -28
	std r7, r6, sp[2]               # 4-byte Folded Spill
.Ltmp7:
	.cfi_offset 6, -24
.Ltmp8:
	.cfi_offset 7, -20
	std r9, r8, sp[3]               # 4-byte Folded Spill
.Ltmp9:
	.cfi_offset 8, -16
.Ltmp10:
	.cfi_offset 9, -12
.Ltmp11:
	.cfi_offset 10, -8
	#DEBUG_VALUE: led_controller:c_led <- R0
.Ltmp12:
	#DEBUG_VALUE: led_controller:c_led <- R4
	{
		mov r4, r0
		stw r10, sp[8]
	}
.Ltmp13:
	ldap r11, .Ltmp14
	.loc	1 134 9 prologue_end    # ../src/extensions/ledctrl.xc:134:9
.Ltmp15:
	{
		setv res[r4], r11
		ldc r5, 0
	}
	{
		mkmsk r9, 2
		mkmsk r6, 1
	}
	{
		ldc r10, 12
		nop
	}
.LBB1_1:                                # %LoopBody
                                        # =>This Loop Header: Depth=1
                                        #     Child Loop BB1_2 Depth 2
                                        #     Child Loop BB1_6 Depth 2
                                        #     Child Loop BB1_7 Depth 2
.Lxtalabel2:
.Ltmp16:
	#DEBUG_VALUE: led_controller:c_led <- R4
	.loc	1 134 9                 # ../src/extensions/ledctrl.xc:134:9
	{
		clre
		nop
	}
	.loc	1 134 9                 # ../src/extensions/ledctrl.xc:134:9
	{
		eeu res[r4]
		nop
	}
	.loc	1 158 0                 # ../src/extensions/ledctrl.xc:158:0

	.xtabranch .LBB1_2
	{
		waiteu
		nop
	}
.Ltmp17:
.LBB1_5:                                # %switchcase2
                                        #   in Loop: Header=BB1_2 Depth=2
.Lxtalabel3:
	#DEBUG_VALUE: led_controller:c_led <- R4
	.loc	1 146 0                 # ../src/extensions/ledctrl.xc:146:0
	{
		chkct res[r4], 1
		nop
	}
	.loc	1 146 0                 # ../src/extensions/ledctrl.xc:146:0
	{
		outct res[r4], 1
		nop
	}
	.loc	1 146 0                 # ../src/extensions/ledctrl.xc:146:0
.Lxta.endpoint_labels0:
	{
		in r0, res[r4]
		nop
	}
.Ltmp18:
	#DEBUG_VALUE: led_high <- R0
	.loc	1 146 0                 # ../src/extensions/ledctrl.xc:146:0
	{
		chkct res[r4], 1
		nop
	}
	.loc	1 146 0                 # ../src/extensions/ledctrl.xc:146:0
	{
		outct res[r4], 1
		mov r1, r6
	}
	.loc	1 147 0                 # ../src/extensions/ledctrl.xc:147:0
.Lxta.call_labels0:
	bl SetLed
.Ltmp19:
	.loc	1 134 9                 # ../src/extensions/ledctrl.xc:134:9
	{
		clre
		nop
	}
	.loc	1 134 9                 # ../src/extensions/ledctrl.xc:134:9
	{
		eeu res[r4]
		nop
	}
	.loc	1 158 0                 # ../src/extensions/ledctrl.xc:158:0

	.xtabranch .LBB1_2
	{
		waiteu
		nop
	}
.Ltmp20:
.Ltmp14:                                # Block address taken
.LBB1_2:                                # %selectcase
                                        #   Parent Loop BB1_1 Depth=1
                                        # =>  This Inner Loop Header: Depth=2
.Lxtalabel4:
	#DEBUG_VALUE: led_controller:c_led <- R4
	.loc	1 136 0                 # ../src/extensions/ledctrl.xc:136:0
	{
		chkct res[r4], 1
		nop
	}
	.loc	1 136 0                 # ../src/extensions/ledctrl.xc:136:0
	{
		outct res[r4], 1
		nop
	}
	.loc	1 136 0                 # ../src/extensions/ledctrl.xc:136:0
.Lxta.endpoint_labels1:
	{
		in r0, res[r4]
		nop
	}
.Ltmp21:
	#DEBUG_VALUE: cmd <- R0
	.loc	1 136 0                 # ../src/extensions/ledctrl.xc:136:0
	{
		chkct res[r4], 1
		nop
	}
	.loc	1 136 0                 # ../src/extensions/ledctrl.xc:136:0
	{
		outct res[r4], 1
		lsu r1, r9, r0
	}
	bt r1, .LBB1_1
.Ltmp22:
# BB#3:                                 # %selectcase
                                        #   in Loop: Header=BB1_2 Depth=2
.Lxtalabel5:
	#DEBUG_VALUE: led_controller:c_led <- R4
	{
		mov r7, r5
		mov r8, r5
	}

	.xtabranch .Ljumptable0+4,.Ljumptable0+8,.Ljumptable0+12,.Ljumptable0+16
.Ljumptable0:
		
	{
		nop
		bru r0
	}
	.jmptable32 .LBB1_5,.LBB1_4,.LBB1_7,.LBB1_6
.Ltmp23:
.LBB1_4:                                # %switchcase
                                        #   in Loop: Header=BB1_2 Depth=2
.Lxtalabel6:
	#DEBUG_VALUE: led_controller:c_led <- R4
	.loc	1 141 0                 # ../src/extensions/ledctrl.xc:141:0
	{
		chkct res[r4], 1
		nop
	}
	.loc	1 141 0                 # ../src/extensions/ledctrl.xc:141:0
	{
		outct res[r4], 1
		nop
	}
	.loc	1 141 0                 # ../src/extensions/ledctrl.xc:141:0
.Lxta.endpoint_labels2:
	{
		in r0, res[r4]
		nop
	}
.Ltmp24:
	#DEBUG_VALUE: led_low <- R0
	.loc	1 141 0                 # ../src/extensions/ledctrl.xc:141:0
	{
		chkct res[r4], 1
		nop
	}
	.loc	1 141 0                 # ../src/extensions/ledctrl.xc:141:0
	{
		outct res[r4], 1
		mov r1, r5
	}
	.loc	1 142 0                 # ../src/extensions/ledctrl.xc:142:0
.Lxta.call_labels1:
	bl SetLed
.Ltmp25:
	.loc	1 134 9                 # ../src/extensions/ledctrl.xc:134:9
	{
		clre
		nop
	}
	.loc	1 134 9                 # ../src/extensions/ledctrl.xc:134:9
	{
		eeu res[r4]
		nop
	}
	.loc	1 158 0                 # ../src/extensions/ledctrl.xc:158:0

	.xtabranch .LBB1_2
	{
		waiteu
		nop
	}
.Ltmp26:
.LBB1_7:                                # %LoopBody27
                                        #   Parent Loop BB1_1 Depth=1
                                        # =>  This Inner Loop Header: Depth=2
.Lxtalabel7:
	#DEBUG_VALUE: led_controller:c_led <- R4
	.loc	1 155 0                 # ../src/extensions/ledctrl.xc:155:0
	{
		mov r0, r8
		mov r1, r5
	}
.Lxta.call_labels2:
	bl SetLed
	.loc	1 154 0                 # ../src/extensions/ledctrl.xc:154:0
	{
		add r8, r8, 1
		nop
	}
.Ltmp27:
	#DEBUG_VALUE: i <- R8
	.loc	1 154 0                 # ../src/extensions/ledctrl.xc:154:0
	{
		eq r0, r8, r10
		nop
	}
.xtaloop 12
	# LOOPMARKER 1
.Lxta.loop_labels0:
	# LOOPMARKER 0
	bf r0, .LBB1_7
	bu .LBB1_1
.Ltmp28:
.LBB1_6:                                # %LoopBody11
                                        #   Parent Loop BB1_1 Depth=1
                                        # =>  This Inner Loop Header: Depth=2
.Lxtalabel8:
	#DEBUG_VALUE: led_controller:c_led <- R4
	.loc	1 151 0                 # ../src/extensions/ledctrl.xc:151:0
	{
		mov r0, r7
		mov r1, r6
	}
.Lxta.call_labels3:
	bl SetLed
	.loc	1 150 0                 # ../src/extensions/ledctrl.xc:150:0
	{
		add r7, r7, 1
		nop
	}
.Ltmp29:
	#DEBUG_VALUE: i <- R7
	.loc	1 150 0                 # ../src/extensions/ledctrl.xc:150:0
	{
		eq r0, r7, r10
		nop
	}
.xtaloop 12
	# LOOPMARKER 3
.Lxta.loop_labels1:
	# LOOPMARKER 2
	bf r0, .LBB1_6
	bu .LBB1_1
.Ltmp30:
	.cc_bottom led_controller.function
	.set	led_controller.nstackwords,(SetLed.nstackwords + 10)
	.globl	led_controller.nstackwords
	.set	led_controller.maxcores,SetLed.maxcores $M 1
	.globl	led_controller.maxcores
	.set	led_controller.maxtimers,SetLed.maxtimers $M 0
	.globl	led_controller.maxtimers
	.set	led_controller.maxchanends,SetLed.maxchanends $M 0
	.globl	led_controller.maxchanends
.Ltmp31:
	.size	led_controller, .Ltmp31-led_controller
.Lfunc_end1:
	.cfi_endproc

	.globl	led_controller.init.1
	.align	4
	.type	led_controller.init.1,@function
	.cc_top led_controller.init.1.function,led_controller.init.1
led_controller.init.1:                  # @led_controller.init.1
	.cfi_startproc
	.issue_mode dual
# BB#0:                                 # %allocas
	{
		nop
		dualentsp 0
	}
	#DEBUG_VALUE: led_controller.init.1:led_controller.init.1.state_ptr <- R0
	{
		nop
		ldw r1, r0[1]
	}
	bf r1, .LBB2_2
# BB#1:                                 # %iffalse
	#DEBUG_VALUE: led_controller.init.1:led_controller.init.1.state_ptr <- R0
	{
		ldc r1, 0
		nop
	}
	{
		mkmsk r1, 1
		stw r1, r0[1]
	}
	{
		nop
		stw r1, r0[0]
	}
.LBB2_2:                                # %return
	{
		nop
		retsp 0
	}
	# RETURN_REG_HOLDER
	.cc_bottom led_controller.init.1.function
	.set	led_controller.init.1.nstackwords,0
	.globl	led_controller.init.1.nstackwords
	.set	led_controller.init.1.maxcores,1
	.globl	led_controller.init.1.maxcores
	.set	led_controller.init.1.maxtimers,0
	.globl	led_controller.init.1.maxtimers
	.set	led_controller.init.1.maxchanends,0
	.globl	led_controller.init.1.maxchanends
.Ltmp32:
	.size	led_controller.init.1, .Ltmp32-led_controller.init.1
	.cfi_endproc

	.globl	led_controller.init.0
	.align	4
	.type	led_controller.init.0,@function
	.cc_top led_controller.init.0.function,led_controller.init.0
led_controller.init.0:                  # @led_controller.init.0
	.cfi_startproc
	.issue_mode dual
# BB#0:                                 # %allocas
.Lxtalabel9:
	{
		nop
		dualentsp 0
	}
	#DEBUG_VALUE: led_controller.init.0:led_controller.init.0.state_ptr <- R0
	{
		ldc r1, 0
		stw r1, r0[2]
	}
	{
		nop
		stw r1, r0[0]
	}
	ldap r11, led_controller.init.1
	{
		nop
		stw r11, r0[1]
	}
	{
		nop
		retsp 0
	}
	# RETURN_REG_HOLDER
	.cc_bottom led_controller.init.0.function
	.set	led_controller.init.0.nstackwords,0
	.globl	led_controller.init.0.nstackwords
	.set	led_controller.init.0.maxcores,1
	.globl	led_controller.init.0.maxcores
	.set	led_controller.init.0.maxtimers,0
	.globl	led_controller.init.0.maxtimers
	.set	led_controller.init.0.maxchanends,0
	.globl	led_controller.init.0.maxchanends
.Ltmp33:
	.size	led_controller.init.0, .Ltmp33-led_controller.init.0
	.cfi_endproc

	.globl	led_controller.select.yield.enable
	.align	4
	.type	led_controller.select.yield.enable,@function
	.cc_top led_controller.select.yield.enable.function,led_controller.select.yield.enable
led_controller.select.yield.enable:     # @led_controller.select.yield.enable
.Lfunc_begin4:
	.file	2 "<synthesized>"
	.loc	2 0 0                   # <synthesized>:0:0
	.cfi_startproc
	.issue_mode dual
# BB#0:                                 # %allocas
	{
		nop
		dualentsp 4
	}
.Ltmp34:
	.cfi_def_cfa_offset 16
.Ltmp35:
	.cfi_offset 15, 0
.Ltmp36:
	.cfi_offset 4, -8
	#DEBUG_VALUE: led_controller.select.yield.enable:led_controller.select.state_ptr <- R0
.Ltmp37:
	#DEBUG_VALUE: led_controller.select.yield.enable:led_controller.select.state_ptr <- R4
	{
		mov r4, r0
		stw r4, sp[2]
	}
.Ltmp38:
	bl led_controller.init.1
	{
		nop
		ldw r0, r4[0]
	}
	bf r0, .LBB4_1
# BB#2:                                 # %iftrue
.Ltmp39:
	#DEBUG_VALUE: led_controller.select.yield.enable:led_controller.select.state_ptr <- R4
	{
		nop
		ldw r0, r4[2]
	}
	.loc	2 134 9 prologue_end    # <synthesized>:134:9
.Ltmp40:
	ldap r11, led_controller.select.yield.case.0
	{
		setv res[r0], r11
		mov r11, r4
	}
	.loc	2 134 9                 # <synthesized>:134:9
	{
		setev res[r0], r11
		nop
	}
	.loc	2 134 9                 # <synthesized>:134:9
	{
		eeu res[r0]
		mkmsk r0, 1
	}
	bu .LBB4_3
.Ltmp41:
.LBB4_1:
	{
		ldc r0, 0
		nop
	}
.LBB4_3:                                # %return
	{
		nop
		ldw r4, sp[2]
	}
	{
		nop
		retsp 4
	}
	# RETURN_REG_HOLDER
	.cc_bottom led_controller.select.yield.enable.function
	.set	led_controller.select.yield.enable.nstackwords,(led_controller.init.1.nstackwords + 4)
	.globl	led_controller.select.yield.enable.nstackwords
	.set	led_controller.select.yield.enable.maxcores,led_controller.init.1.maxcores $M 1
	.globl	led_controller.select.yield.enable.maxcores
	.set	led_controller.select.yield.enable.maxtimers,led_controller.init.1.maxtimers $M 0
	.globl	led_controller.select.yield.enable.maxtimers
	.set	led_controller.select.yield.enable.maxchanends,led_controller.init.1.maxchanends $M 0
	.globl	led_controller.select.yield.enable.maxchanends
.Ltmp42:
	.size	led_controller.select.yield.enable, .Ltmp42-led_controller.select.yield.enable
.Lfunc_end4:
	.cfi_endproc

	.globl	led_controller.select.enable
	.align	4
	.type	led_controller.select.enable,@function
	.cc_top led_controller.select.enable.function,led_controller.select.enable
led_controller.select.enable:           # @led_controller.select.enable
.Lfunc_begin5:
	.loc	2 0 0                   # <synthesized>:0:0
	.cfi_startproc
	.issue_mode dual
# BB#0:                                 # %allocas
	{
		nop
		dualentsp 0
	}
	#DEBUG_VALUE: led_controller.select.enable:led_controller.select.state_ptr <- R0
	{
		nop
		ldw r1, r0[0]
	}
	bf r1, .LBB5_1
.Ltmp43:
# BB#2:                                 # %iftrue
	#DEBUG_VALUE: led_controller.select.enable:led_controller.select.state_ptr <- R0
	{
		nop
		ldw r1, r0[2]
	}
	.loc	2 134 9 prologue_end    # <synthesized>:134:9
.Ltmp44:
	ldap r11, led_controller.select.case.0
	{
		setv res[r1], r11
		mov r11, r0
	}
	.loc	2 134 9                 # <synthesized>:134:9
	{
		setev res[r1], r11
		nop
	}
	.loc	2 134 9                 # <synthesized>:134:9
	{
		eeu res[r1]
		mkmsk r0, 1
	}
.Ltmp45:
	{
		nop
		retsp 0
	}
	# RETURN_REG_HOLDER
.Ltmp46:
.LBB5_1:
	{
		ldc r0, 0
		retsp 0
	}
	# RETURN_REG_HOLDER
	.cc_bottom led_controller.select.enable.function
	.set	led_controller.select.enable.nstackwords,0
	.globl	led_controller.select.enable.nstackwords
	.set	led_controller.select.enable.maxcores,1
	.globl	led_controller.select.enable.maxcores
	.set	led_controller.select.enable.maxtimers,0
	.globl	led_controller.select.enable.maxtimers
	.set	led_controller.select.enable.maxchanends,0
	.globl	led_controller.select.enable.maxchanends
.Ltmp47:
	.size	led_controller.select.enable, .Ltmp47-led_controller.select.enable
.Lfunc_end5:
	.cfi_endproc

	.globl	led_controller.fini
	.align	4
	.type	led_controller.fini,@function
	.cc_top led_controller.fini.function,led_controller.fini
led_controller.fini:                    # @led_controller.fini
	.cfi_startproc
	.issue_mode dual
# BB#0:                                 # %allocas
	{
		nop
		dualentsp 0
	}
	#DEBUG_VALUE: led_controller.fini:led_controller.fini.state_ptr <- R0
	{
		nop
		ldw r0, r0[0]
	}
	bf r0, .LBB6_2
.LBB6_1:                                # %LoopTest
                                        # =>This Inner Loop Header: Depth=1
	bu .LBB6_1
.LBB6_2:                                # %return
	{
		nop
		retsp 0
	}
	# RETURN_REG_HOLDER
	.cc_bottom led_controller.fini.function
	.set	led_controller.fini.nstackwords,0
	.globl	led_controller.fini.nstackwords
	.set	led_controller.fini.maxcores,1
	.globl	led_controller.fini.maxcores
	.set	led_controller.fini.maxtimers,0
	.globl	led_controller.fini.maxtimers
	.set	led_controller.fini.maxchanends,0
	.globl	led_controller.fini.maxchanends
.Ltmp48:
	.size	led_controller.fini, .Ltmp48-led_controller.fini
	.cfi_endproc

	.globl	SetLed
	.align	4
	.type	SetLed,@function
	.cc_top SetLed.function,SetLed
SetLed:                                 # @SetLed
.Lfunc_begin7:
	.loc	1 90 0                  # ../src/extensions/ledctrl.xc:90:0
	.cfi_startproc
	.issue_mode dual
# BB#0:                                 # %allocas
.Lxtalabel10:
	#DEBUG_VALUE: SetLed:ledNo <- R0
	#DEBUG_VALUE: SetLed:ledVal <- R1
	{
		ldc r2, 12
		dualentsp 0
	}
	.loc	1 93 0 prologue_end     # ../src/extensions/ledctrl.xc:93:0
.Ltmp49:
	{
		lsu r2, r2, r0
		nop
	}
.Ltrap_info0:
	{
		ecallt r2
		nop
	}
	#DEBUG_VALUE: SetLed:ledNo <- R0
	#DEBUG_VALUE: SetLed:ledVal <- R1
	.loc	1 93 0                  # ../src/extensions/ledctrl.xc:93:0
	ldaw r2, dp[ledVals]
	.loc	1 93 0                  # ../src/extensions/ledctrl.xc:93:0
	stw r1, r2[r0]
.Ltmp50:
	#DEBUG_VALUE: i <- 0
	#DEBUG_VALUE: d <- 0
	{
		ldc r0, 0
		ldc r1, 8
	}
.Ltmp51:
	{
		mov r3, r0
		nop
	}
.LBB7_1:                                # %afterboundcheck2
                                        # =>This Inner Loop Header: Depth=1
.Lxtalabel11:
	#DEBUG_VALUE: d <- 0
	#DEBUG_VALUE: i <- 0
	{
		nop
		ldw r11, r2[r3]
	}
	.loc	1 98 0                  # ../src/extensions/ledctrl.xc:98:0
.Ltmp52:
	{
		eq r11, r11, 0
		nop
	}
	.loc	1 98 0                  # ../src/extensions/ledctrl.xc:98:0
	{
		shl r11, r11, r3
		nop
	}
.Ltmp53:
	#DEBUG_VALUE: i <- R3
	.loc	1 98 0                  # ../src/extensions/ledctrl.xc:98:0
	{
		or r0, r11, r0
		add r3, r3, 1
	}
.Ltmp54:
	.loc	1 96 0                  # ../src/extensions/ledctrl.xc:96:0
	{
		lss r11, r3, r1
		nop
	}
.Lxta.loop_labels2:
	# LOOPMARKER 0
	.loc	1 96 0                  # ../src/extensions/ledctrl.xc:96:0
	bt r11, .LBB7_1
.Ltmp55:
# BB#2:                                 # %afterboundcheck32
.Lxtalabel12:
	#DEBUG_VALUE: d <- R0
	.loc	1 100 21                # ../src/extensions/ledctrl.xc:100:21
	ldw r1, dp[p_led0_to_7]
	.loc	1 100 21                # ../src/extensions/ledctrl.xc:100:21
.Lxta.endpoint_labels3:
	{
		out res[r1], r0
		nop
	}
	.loc	1 101 32                # ../src/extensions/ledctrl.xc:101:32
	ldw r0, dp[p_led8]
.Ltmp56:
	.loc	1 101 32                # ../src/extensions/ledctrl.xc:101:32
	ldw r1, dp[ledVals+32]
	.loc	1 101 32                # ../src/extensions/ledctrl.xc:101:32
	{
		eq r1, r1, 0
		nop
	}
	.loc	1 101 32                # ../src/extensions/ledctrl.xc:101:32
.Lxta.endpoint_labels4:
	{
		out res[r0], r1
		nop
	}
	.loc	1 102 32                # ../src/extensions/ledctrl.xc:102:32
	ldw r0, dp[p_led9]
	.loc	1 102 32                # ../src/extensions/ledctrl.xc:102:32
	ldw r1, dp[ledVals+36]
	.loc	1 102 32                # ../src/extensions/ledctrl.xc:102:32
	{
		eq r1, r1, 0
		nop
	}
	.loc	1 102 32                # ../src/extensions/ledctrl.xc:102:32
.Lxta.endpoint_labels5:
	{
		out res[r0], r1
		nop
	}
.Ltmp57:
	#DEBUG_VALUE: i <- 10
	#DEBUG_VALUE: d <- 0
	.loc	1 107 0                 # ../src/extensions/ledctrl.xc:107:0
	ldw r0, dp[ledVals+40]
	.loc	1 107 0                 # ../src/extensions/ledctrl.xc:107:0
	{
		eq r0, r0, 0
		nop
	}
.Ltmp58:
	#DEBUG_VALUE: i <- 11
	.loc	1 107 0                 # ../src/extensions/ledctrl.xc:107:0
	ldw r1, dp[ledVals+44]
	.loc	1 107 0                 # ../src/extensions/ledctrl.xc:107:0
	{
		eq r1, r1, 0
		nop
	}
	.loc	1 107 0                 # ../src/extensions/ledctrl.xc:107:0
	{
		shl r1, r1, 1
		nop
	}
	.loc	1 107 0                 # ../src/extensions/ledctrl.xc:107:0
	{
		or r0, r1, r0
		nop
	}
	.loc	1 107 0                 # ../src/extensions/ledctrl.xc:107:0
	ldw r1, dp[ledVals+48]
	.loc	1 107 0                 # ../src/extensions/ledctrl.xc:107:0
	{
		eq r1, r1, 0
		nop
	}
	.loc	1 107 0                 # ../src/extensions/ledctrl.xc:107:0
	{
		shl r1, r1, 2
		nop
	}
	.loc	1 107 0                 # ../src/extensions/ledctrl.xc:107:0
	{
		or r0, r1, r0
		nop
	}
.Ltmp59:
	#DEBUG_VALUE: d <- R0
	.loc	1 109 23                # ../src/extensions/ledctrl.xc:109:23
	ldw r1, dp[p_led10_to_12]
	.loc	1 109 23                # ../src/extensions/ledctrl.xc:109:23
.Lxta.endpoint_labels6:
	{
		out res[r1], r0
		retsp 0
	}
	# RETURN_REG_HOLDER
.Ltmp60:
	.cc_bottom SetLed.function
	.set	SetLed.nstackwords,0
	.globl	SetLed.nstackwords
	.set	SetLed.maxcores,1
	.globl	SetLed.maxcores
	.set	SetLed.maxtimers,0
	.globl	SetLed.maxtimers
	.set	SetLed.maxchanends,0
	.globl	SetLed.maxchanends
.Ltmp61:
	.size	SetLed, .Ltmp61-SetLed
.Lfunc_end7:
	.cfi_endproc

	.align	4
	.type	led_controller.select.yield.case.0,@function
	.cc_top led_controller.select.yield.case.0.function,led_controller.select.yield.case.0
led_controller.select.yield.case.0:     # @led_controller.select.yield.case.0
.Lfunc_begin8:
	.loc	1 136 0                 # ../src/extensions/ledctrl.xc:136:0
	.cfi_startproc
	.issue_mode dual
# BB#0:                                 # %allocas
.Lxtalabel13:
	{
		nop
		dualentsp 4
	}
.Ltmp62:
	.cfi_def_cfa_offset 16
.Ltmp63:
	.cfi_offset 15, 0
.Ltmp64:
	.cfi_offset 4, -8
	{
		get r11, ed
		stw r4, sp[2]
	}
	{
		nop
		ldw r1, r11[2]
	}
	.loc	1 136 0 prologue_end    # ../src/extensions/ledctrl.xc:136:0
.Ltmp65:
	{
		chkct res[r1], 1
		nop
	}
	.loc	1 136 0                 # ../src/extensions/ledctrl.xc:136:0
	{
		outct res[r1], 1
		nop
	}
	.loc	1 136 0                 # ../src/extensions/ledctrl.xc:136:0
.Lxta.endpoint_labels7:
	{
		in r0, res[r1]
		nop
	}
	.loc	1 136 0                 # ../src/extensions/ledctrl.xc:136:0
	{
		chkct res[r1], 1
		stw r0, r11[3]
	}
	.loc	1 136 0                 # ../src/extensions/ledctrl.xc:136:0
	{
		outct res[r1], 1
		mkmsk r2, 2
	}
	.loc	1 137 0                 # ../src/extensions/ledctrl.xc:137:0
	{
		lsu r2, r2, r0
		nop
	}
	bt r2, .LBB8_6
# BB#1:                                 # %allocas
.Lxtalabel14:
	{
		ldc r4, 0
		nop
	}

	.xtabranch .Ljumptable1+4,.Ljumptable1+8,.Ljumptable1+12,.Ljumptable1+16
.Ljumptable1:
		
	{
		nop
		bru r0
	}
	.jmptable32 .LBB8_3,.LBB8_2,.LBB8_5,.LBB8_4
.LBB8_3:                                # %switchcase4
.Lxtalabel15:
	.loc	1 146 0                 # ../src/extensions/ledctrl.xc:146:0
.Ltmp66:
	{
		chkct res[r1], 1
		nop
	}
	.loc	1 146 0                 # ../src/extensions/ledctrl.xc:146:0
	{
		outct res[r1], 1
		nop
	}
	.loc	1 146 0                 # ../src/extensions/ledctrl.xc:146:0
.Lxta.endpoint_labels8:
	{
		in r0, res[r1]
		nop
	}
.Ltmp67:
	#DEBUG_VALUE: led_high <- R0
	.loc	1 146 0                 # ../src/extensions/ledctrl.xc:146:0
	{
		chkct res[r1], 1
		nop
	}
	.loc	1 146 0                 # ../src/extensions/ledctrl.xc:146:0
	{
		outct res[r1], 1
		mkmsk r1, 1
	}
	.loc	1 147 0                 # ../src/extensions/ledctrl.xc:147:0
.Lxta.call_labels4:
	bl SetLed
.Ltmp68:
	bu .LBB8_6
.Ltmp69:
.LBB8_5:                                # %LoopBody26
                                        # =>This Inner Loop Header: Depth=1
.Lxtalabel16:
	{
		ldc r1, 0
		mov r0, r4
	}
	.loc	1 155 0                 # ../src/extensions/ledctrl.xc:155:0
.Ltmp70:
.Lxta.call_labels5:
	bl SetLed
	.loc	1 154 0                 # ../src/extensions/ledctrl.xc:154:0
	{
		add r4, r4, 1
		nop
	}
.Ltmp71:
	#DEBUG_VALUE: i <- R4
.xtaloop 12
	# LOOPMARKER 1
.Lxta.loop_labels3:
	# LOOPMARKER 0
	{
		ldc r0, 12
		nop
	}
	.loc	1 154 0                 # ../src/extensions/ledctrl.xc:154:0
	{
		eq r0, r4, r0
		nop
	}
	bf r0, .LBB8_5
	bu .LBB8_6
.Ltmp72:
.LBB8_4:                                # %LoopBody
                                        # =>This Inner Loop Header: Depth=1
.Lxtalabel17:
	{
		mkmsk r1, 1
		mov r0, r4
	}
	.loc	1 151 0                 # ../src/extensions/ledctrl.xc:151:0
.Ltmp73:
.Lxta.call_labels6:
	bl SetLed
.Ltmp74:
	#DEBUG_VALUE: i <- R4
	.loc	1 150 0                 # ../src/extensions/ledctrl.xc:150:0
	{
		add r4, r4, 1
		ldc r0, 12
	}
.Ltmp75:
	.loc	1 150 0                 # ../src/extensions/ledctrl.xc:150:0
	{
		eq r0, r4, r0
		nop
	}
.xtaloop 12
	# LOOPMARKER 3
.Lxta.loop_labels4:
	# LOOPMARKER 2
	bf r0, .LBB8_4
	bu .LBB8_6
.Ltmp76:
.LBB8_2:                                # %switchcase
.Lxtalabel18:
	.loc	1 141 0                 # ../src/extensions/ledctrl.xc:141:0
	{
		chkct res[r1], 1
		nop
	}
	.loc	1 141 0                 # ../src/extensions/ledctrl.xc:141:0
	{
		outct res[r1], 1
		nop
	}
	.loc	1 141 0                 # ../src/extensions/ledctrl.xc:141:0
.Lxta.endpoint_labels9:
	{
		in r0, res[r1]
		nop
	}
.Ltmp77:
	#DEBUG_VALUE: led_low <- R0
	.loc	1 141 0                 # ../src/extensions/ledctrl.xc:141:0
	{
		chkct res[r1], 1
		nop
	}
	.loc	1 141 0                 # ../src/extensions/ledctrl.xc:141:0
	{
		outct res[r1], 1
		ldc r1, 0
	}
	.loc	1 142 0                 # ../src/extensions/ledctrl.xc:142:0
.Lxta.call_labels7:
	bl SetLed
.Ltmp78:
.LBB8_6:                                # %return
.Lxtalabel19:
	{
		nop
		ldw r4, sp[2]
	}
	{
		nop
		retsp 4
	}
	# RETURN_REG_HOLDER
	.cc_bottom led_controller.select.yield.case.0.function
	.set	led_controller.select.yield.case.0.nstackwords,(SetLed.nstackwords + 4)
	.set	led_controller.select.yield.case.0.maxcores,SetLed.maxcores $M 1
	.set	led_controller.select.yield.case.0.maxtimers,SetLed.maxtimers $M 0
	.set	led_controller.select.yield.case.0.maxchanends,SetLed.maxchanends $M 0
.Ltmp79:
	.size	led_controller.select.yield.case.0, .Ltmp79-led_controller.select.yield.case.0
.Lfunc_end8:
	.cfi_endproc

	.align	4
	.type	led_controller.select.case.0,@function
	.cc_top led_controller.select.case.0.function,led_controller.select.case.0
led_controller.select.case.0:           # @led_controller.select.case.0
.Lfunc_begin9:
	.loc	1 136 0                 # ../src/extensions/ledctrl.xc:136:0
	.cfi_startproc
	.issue_mode dual
# BB#0:                                 # %allocas
.Lxtalabel20:
	{
		nop
		dualentsp 4
	}
.Ltmp80:
	.cfi_def_cfa_offset 16
.Ltmp81:
	.cfi_offset 15, 0
.Ltmp82:
	.cfi_offset 4, -8
	{
		get r11, ed
		stw r4, sp[2]
	}
	{
		nop
		ldw r1, r11[2]
	}
	.loc	1 136 0 prologue_end    # ../src/extensions/ledctrl.xc:136:0
.Ltmp83:
	{
		chkct res[r1], 1
		nop
	}
	.loc	1 136 0                 # ../src/extensions/ledctrl.xc:136:0
	{
		outct res[r1], 1
		nop
	}
	.loc	1 136 0                 # ../src/extensions/ledctrl.xc:136:0
.Lxta.endpoint_labels10:
	{
		in r0, res[r1]
		nop
	}
	.loc	1 136 0                 # ../src/extensions/ledctrl.xc:136:0
	{
		chkct res[r1], 1
		stw r0, r11[3]
	}
	.loc	1 136 0                 # ../src/extensions/ledctrl.xc:136:0
	{
		outct res[r1], 1
		mkmsk r2, 2
	}
	.loc	1 137 0                 # ../src/extensions/ledctrl.xc:137:0
	{
		lsu r2, r2, r0
		nop
	}
	bt r2, .LBB9_6
# BB#1:                                 # %allocas
.Lxtalabel21:
	{
		ldc r4, 0
		nop
	}

	.xtabranch .Ljumptable2+4,.Ljumptable2+8,.Ljumptable2+12,.Ljumptable2+16
.Ljumptable2:
		
	{
		nop
		bru r0
	}
	.jmptable32 .LBB9_3,.LBB9_2,.LBB9_5,.LBB9_4
.LBB9_3:                                # %switchcase4
.Lxtalabel22:
	.loc	1 146 0                 # ../src/extensions/ledctrl.xc:146:0
.Ltmp84:
	{
		chkct res[r1], 1
		nop
	}
	.loc	1 146 0                 # ../src/extensions/ledctrl.xc:146:0
	{
		outct res[r1], 1
		nop
	}
	.loc	1 146 0                 # ../src/extensions/ledctrl.xc:146:0
.Lxta.endpoint_labels11:
	{
		in r0, res[r1]
		nop
	}
.Ltmp85:
	#DEBUG_VALUE: led_high <- R0
	.loc	1 146 0                 # ../src/extensions/ledctrl.xc:146:0
	{
		chkct res[r1], 1
		nop
	}
	.loc	1 146 0                 # ../src/extensions/ledctrl.xc:146:0
	{
		outct res[r1], 1
		mkmsk r1, 1
	}
	.loc	1 147 0                 # ../src/extensions/ledctrl.xc:147:0
.Lxta.call_labels8:
	bl SetLed
.Ltmp86:
	bu .LBB9_6
.Ltmp87:
.LBB9_5:                                # %LoopBody26
                                        # =>This Inner Loop Header: Depth=1
.Lxtalabel23:
	{
		ldc r1, 0
		mov r0, r4
	}
	.loc	1 155 0                 # ../src/extensions/ledctrl.xc:155:0
.Ltmp88:
.Lxta.call_labels9:
	bl SetLed
	.loc	1 154 0                 # ../src/extensions/ledctrl.xc:154:0
	{
		add r4, r4, 1
		nop
	}
.Ltmp89:
	#DEBUG_VALUE: i <- R4
.xtaloop 12
	# LOOPMARKER 1
.Lxta.loop_labels5:
	# LOOPMARKER 0
	{
		ldc r0, 12
		nop
	}
	.loc	1 154 0                 # ../src/extensions/ledctrl.xc:154:0
	{
		eq r0, r4, r0
		nop
	}
	bf r0, .LBB9_5
	bu .LBB9_6
.Ltmp90:
.LBB9_4:                                # %LoopBody
                                        # =>This Inner Loop Header: Depth=1
.Lxtalabel24:
	{
		mkmsk r1, 1
		mov r0, r4
	}
	.loc	1 151 0                 # ../src/extensions/ledctrl.xc:151:0
.Ltmp91:
.Lxta.call_labels10:
	bl SetLed
.Ltmp92:
	#DEBUG_VALUE: i <- R4
	.loc	1 150 0                 # ../src/extensions/ledctrl.xc:150:0
	{
		add r4, r4, 1
		ldc r0, 12
	}
.Ltmp93:
	.loc	1 150 0                 # ../src/extensions/ledctrl.xc:150:0
	{
		eq r0, r4, r0
		nop
	}
.xtaloop 12
	# LOOPMARKER 3
.Lxta.loop_labels6:
	# LOOPMARKER 2
	bf r0, .LBB9_4
	bu .LBB9_6
.Ltmp94:
.LBB9_2:                                # %switchcase
.Lxtalabel25:
	.loc	1 141 0                 # ../src/extensions/ledctrl.xc:141:0
	{
		chkct res[r1], 1
		nop
	}
	.loc	1 141 0                 # ../src/extensions/ledctrl.xc:141:0
	{
		outct res[r1], 1
		nop
	}
	.loc	1 141 0                 # ../src/extensions/ledctrl.xc:141:0
.Lxta.endpoint_labels12:
	{
		in r0, res[r1]
		nop
	}
.Ltmp95:
	#DEBUG_VALUE: led_low <- R0
	.loc	1 141 0                 # ../src/extensions/ledctrl.xc:141:0
	{
		chkct res[r1], 1
		nop
	}
	.loc	1 141 0                 # ../src/extensions/ledctrl.xc:141:0
	{
		outct res[r1], 1
		ldc r1, 0
	}
	.loc	1 142 0                 # ../src/extensions/ledctrl.xc:142:0
.Lxta.call_labels11:
	bl SetLed
.Ltmp96:
.LBB9_6:                                # %return
.Lxtalabel26:
	{
		nop
		ldw r4, sp[2]
	}
	{
		nop
		retsp 4
	}
	# RETURN_REG_HOLDER
	.cc_bottom led_controller.select.case.0.function
	.set	led_controller.select.case.0.nstackwords,(SetLed.nstackwords + 4)
	.set	led_controller.select.case.0.maxcores,SetLed.maxcores $M 1
	.set	led_controller.select.case.0.maxtimers,SetLed.maxtimers $M 0
	.set	led_controller.select.case.0.maxchanends,SetLed.maxchanends $M 0
.Ltmp97:
	.size	led_controller.select.case.0, .Ltmp97-led_controller.select.case.0
.Lfunc_end9:
	.cfi_endproc

	.section	.dp.bss.4,"awd",@nobits
	.cc_top c_led.data,c_led
	.globl	c_led
	.align	4
	.type	c_led,@object
	.size	c_led, 4
c_led:
	.long	0
	.cc_bottom c_led.data
	.cc_top ledVals.data,ledVals
	.align	4
	.type	ledVals,@object
	.size	ledVals, 52
ledVals:
	.space	52
	.cc_bottom ledVals.data
.Ldebug_end1:
	.text
.Ldebug_end2:
	.file	3 "C:\\Program Files (x86)\\XMOS\\xTIMEcomposer\\Community_14.3.3\\target/include\\timer.h"
	.file	4 "C:\\Program Files (x86)\\XMOS\\xTIMEcomposer\\Community_14.3.3\\target/include\\math.h"
	.section	.xtacalltable,"",@progbits
.Lentries_start0:
	.long	.Lentries_end1-.Lentries_start0
	.long	0
	.ascii	"C:\\Users\\user\\workspace\\app_vf_spk_base\\.build_1i2o2_lin33_48k_farenddsp"
	.byte	0
.cc_top cc_0,.Lxta.call_labels1
	.ascii	"../src/extensions/ledctrl.xc"
	.byte	0
	.long	142
	.long	.Lxta.call_labels1
.cc_bottom cc_0
.cc_top cc_1,.Lxta.call_labels7
	.ascii	"../src/extensions/ledctrl.xc"
	.byte	0
	.long	142
	.long	.Lxta.call_labels7
.cc_bottom cc_1
.cc_top cc_2,.Lxta.call_labels11
	.ascii	"../src/extensions/ledctrl.xc"
	.byte	0
	.long	142
	.long	.Lxta.call_labels11
.cc_bottom cc_2
.cc_top cc_3,.Lxta.call_labels0
	.ascii	"../src/extensions/ledctrl.xc"
	.byte	0
	.long	147
	.long	.Lxta.call_labels0
.cc_bottom cc_3
.cc_top cc_4,.Lxta.call_labels4
	.ascii	"../src/extensions/ledctrl.xc"
	.byte	0
	.long	147
	.long	.Lxta.call_labels4
.cc_bottom cc_4
.cc_top cc_5,.Lxta.call_labels8
	.ascii	"../src/extensions/ledctrl.xc"
	.byte	0
	.long	147
	.long	.Lxta.call_labels8
.cc_bottom cc_5
.cc_top cc_6,.Lxta.call_labels3
	.ascii	"../src/extensions/ledctrl.xc"
	.byte	0
	.long	151
	.long	.Lxta.call_labels3
.cc_bottom cc_6
.cc_top cc_7,.Lxta.call_labels6
	.ascii	"../src/extensions/ledctrl.xc"
	.byte	0
	.long	151
	.long	.Lxta.call_labels6
.cc_bottom cc_7
.cc_top cc_8,.Lxta.call_labels10
	.ascii	"../src/extensions/ledctrl.xc"
	.byte	0
	.long	151
	.long	.Lxta.call_labels10
.cc_bottom cc_8
.cc_top cc_9,.Lxta.call_labels2
	.ascii	"../src/extensions/ledctrl.xc"
	.byte	0
	.long	155
	.long	.Lxta.call_labels2
.cc_bottom cc_9
.cc_top cc_10,.Lxta.call_labels5
	.ascii	"../src/extensions/ledctrl.xc"
	.byte	0
	.long	155
	.long	.Lxta.call_labels5
.cc_bottom cc_10
.cc_top cc_11,.Lxta.call_labels9
	.ascii	"../src/extensions/ledctrl.xc"
	.byte	0
	.long	155
	.long	.Lxta.call_labels9
.cc_bottom cc_11
.Lentries_end1:
	.section	.xtaendpointtable,"",@progbits
.Lentries_start2:
	.long	.Lentries_end3-.Lentries_start2
	.long	0
	.ascii	"C:\\Users\\user\\workspace\\app_vf_spk_base\\.build_1i2o2_lin33_48k_farenddsp"
	.byte	0
.cc_top cc_12,.Lxta.endpoint_labels3
	.ascii	"../src/extensions/ledctrl.xc"
	.byte	0
	.long	100
	.long	.Lxta.endpoint_labels3
.cc_bottom cc_12
.cc_top cc_13,.Lxta.endpoint_labels4
	.ascii	"../src/extensions/ledctrl.xc"
	.byte	0
	.long	101
	.long	.Lxta.endpoint_labels4
.cc_bottom cc_13
.cc_top cc_14,.Lxta.endpoint_labels5
	.ascii	"../src/extensions/ledctrl.xc"
	.byte	0
	.long	102
	.long	.Lxta.endpoint_labels5
.cc_bottom cc_14
.cc_top cc_15,.Lxta.endpoint_labels6
	.ascii	"../src/extensions/ledctrl.xc"
	.byte	0
	.long	109
	.long	.Lxta.endpoint_labels6
.cc_bottom cc_15
.cc_top cc_16,.Lxta.endpoint_labels1
	.ascii	"../src/extensions/ledctrl.xc"
	.byte	0
	.long	134
	.long	.Lxta.endpoint_labels1
.cc_bottom cc_16
.cc_top cc_17,.Lxta.endpoint_labels7
	.ascii	"../src/extensions/ledctrl.xc"
	.byte	0
	.long	136
	.long	.Lxta.endpoint_labels7
.cc_bottom cc_17
.cc_top cc_18,.Lxta.endpoint_labels10
	.ascii	"../src/extensions/ledctrl.xc"
	.byte	0
	.long	136
	.long	.Lxta.endpoint_labels10
.cc_bottom cc_18
.cc_top cc_19,.Lxta.endpoint_labels2
	.ascii	"../src/extensions/ledctrl.xc"
	.byte	0
	.long	141
	.long	.Lxta.endpoint_labels2
.cc_bottom cc_19
.cc_top cc_20,.Lxta.endpoint_labels9
	.ascii	"../src/extensions/ledctrl.xc"
	.byte	0
	.long	141
	.long	.Lxta.endpoint_labels9
.cc_bottom cc_20
.cc_top cc_21,.Lxta.endpoint_labels12
	.ascii	"../src/extensions/ledctrl.xc"
	.byte	0
	.long	141
	.long	.Lxta.endpoint_labels12
.cc_bottom cc_21
.cc_top cc_22,.Lxta.endpoint_labels0
	.ascii	"../src/extensions/ledctrl.xc"
	.byte	0
	.long	146
	.long	.Lxta.endpoint_labels0
.cc_bottom cc_22
.cc_top cc_23,.Lxta.endpoint_labels8
	.ascii	"../src/extensions/ledctrl.xc"
	.byte	0
	.long	146
	.long	.Lxta.endpoint_labels8
.cc_bottom cc_23
.cc_top cc_24,.Lxta.endpoint_labels11
	.ascii	"../src/extensions/ledctrl.xc"
	.byte	0
	.long	146
	.long	.Lxta.endpoint_labels11
.cc_bottom cc_24
.Lentries_end3:
	.section	.xtalabeltable,"",@progbits
.Lentries_start4:
	.long	.Lentries_end5-.Lentries_start4
	.long	0
	.ascii	"C:\\Users\\user\\workspace\\app_vf_spk_base\\.build_1i2o2_lin33_48k_farenddsp"
	.byte	0
.cc_top cc_25,.Lxtalabel10
	.ascii	"../src/extensions/ledctrl.xc"
	.byte	0
	.long	90
	.long	91
	.long	.Lxtalabel10
.cc_bottom cc_25
.cc_top cc_26,.Lxtalabel10
	.ascii	"../src/extensions/ledctrl.xc"
	.byte	0
	.long	93
	.long	93
	.long	.Lxtalabel10
.cc_bottom cc_26
.cc_top cc_27,.Lxtalabel10
	.ascii	"../src/extensions/ledctrl.xc"
	.byte	0
	.long	95
	.long	96
	.long	.Lxtalabel10
.cc_bottom cc_27
.cc_top cc_28,.Lxtalabel11
	.ascii	"../src/extensions/ledctrl.xc"
	.byte	0
	.long	97
	.long	99
	.long	.Lxtalabel11
.cc_bottom cc_28
.cc_top cc_29,.Lxtalabel12
	.ascii	"../src/extensions/ledctrl.xc"
	.byte	0
	.long	100
	.long	102
	.long	.Lxtalabel12
.cc_bottom cc_29
.cc_top cc_30,.Lxtalabel12
	.ascii	"../src/extensions/ledctrl.xc"
	.byte	0
	.long	104
	.long	105
	.long	.Lxtalabel12
.cc_bottom cc_30
.cc_top cc_31,.Lxtalabel12
	.ascii	"../src/extensions/ledctrl.xc"
	.byte	0
	.long	106
	.long	108
	.long	.Lxtalabel12
.cc_bottom cc_31
.cc_top cc_32,.Lxtalabel12
	.ascii	"../src/extensions/ledctrl.xc"
	.byte	0
	.long	106
	.long	108
	.long	.Lxtalabel12
.cc_bottom cc_32
.cc_top cc_33,.Lxtalabel12
	.ascii	"../src/extensions/ledctrl.xc"
	.byte	0
	.long	106
	.long	108
	.long	.Lxtalabel12
.cc_bottom cc_33
.cc_top cc_34,.Lxtalabel12
	.ascii	"../src/extensions/ledctrl.xc"
	.byte	0
	.long	109
	.long	110
	.long	.Lxtalabel12
.cc_bottom cc_34
.cc_top cc_35,.Lxtalabel0
	.ascii	"../src/extensions/ledctrl.xc"
	.byte	0
	.long	114
	.long	118
	.long	.Lxtalabel0
.cc_bottom cc_35
.cc_top cc_36,.Lxtalabel1
	.ascii	"../src/extensions/ledctrl.xc"
	.byte	0
	.long	124
	.long	124
	.long	.Lxtalabel1
.cc_bottom cc_36
.cc_top cc_37,.Lxtalabel9
	.ascii	"../src/extensions/ledctrl.xc"
	.byte	0
	.long	124
	.long	124
	.long	.Lxtalabel9
.cc_bottom cc_37
.cc_top cc_38,.Lxtalabel1
	.ascii	"../src/extensions/ledctrl.xc"
	.byte	0
	.long	130
	.long	130
	.long	.Lxtalabel1
.cc_bottom cc_38
.cc_top cc_39,.Lxtalabel9
	.ascii	"../src/extensions/ledctrl.xc"
	.byte	0
	.long	130
	.long	130
	.long	.Lxtalabel9
.cc_bottom cc_39
.cc_top cc_40,.Lxtalabel1
	.ascii	"../src/extensions/ledctrl.xc"
	.byte	0
	.long	132
	.long	132
	.long	.Lxtalabel1
.cc_bottom cc_40
.cc_top cc_41,.Lxtalabel9
	.ascii	"../src/extensions/ledctrl.xc"
	.byte	0
	.long	132
	.long	132
	.long	.Lxtalabel9
.cc_bottom cc_41
.cc_top cc_42,.Lxtalabel2
	.ascii	"../src/extensions/ledctrl.xc"
	.byte	0
	.long	133
	.long	136
	.long	.Lxtalabel2
.cc_bottom cc_42
.cc_top cc_43,.Lxtalabel21
	.ascii	"../src/extensions/ledctrl.xc"
	.byte	0
	.long	137
	.long	139
	.long	.Lxtalabel21
.cc_bottom cc_43
.cc_top cc_44,.Lxtalabel4
	.ascii	"../src/extensions/ledctrl.xc"
	.byte	0
	.long	137
	.long	139
	.long	.Lxtalabel4
.cc_bottom cc_44
.cc_top cc_45,.Lxtalabel20
	.ascii	"../src/extensions/ledctrl.xc"
	.byte	0
	.long	137
	.long	139
	.long	.Lxtalabel20
.cc_bottom cc_45
.cc_top cc_46,.Lxtalabel14
	.ascii	"../src/extensions/ledctrl.xc"
	.byte	0
	.long	137
	.long	139
	.long	.Lxtalabel14
.cc_bottom cc_46
.cc_top cc_47,.Lxtalabel5
	.ascii	"../src/extensions/ledctrl.xc"
	.byte	0
	.long	137
	.long	139
	.long	.Lxtalabel5
.cc_bottom cc_47
.cc_top cc_48,.Lxtalabel13
	.ascii	"../src/extensions/ledctrl.xc"
	.byte	0
	.long	137
	.long	139
	.long	.Lxtalabel13
.cc_bottom cc_48
.cc_top cc_49,.Lxtalabel25
	.ascii	"../src/extensions/ledctrl.xc"
	.byte	0
	.long	140
	.long	144
	.long	.Lxtalabel25
.cc_bottom cc_49
.cc_top cc_50,.Lxtalabel6
	.ascii	"../src/extensions/ledctrl.xc"
	.byte	0
	.long	140
	.long	144
	.long	.Lxtalabel6
.cc_bottom cc_50
.cc_top cc_51,.Lxtalabel18
	.ascii	"../src/extensions/ledctrl.xc"
	.byte	0
	.long	140
	.long	144
	.long	.Lxtalabel18
.cc_bottom cc_51
.cc_top cc_52,.Lxtalabel3
	.ascii	"../src/extensions/ledctrl.xc"
	.byte	0
	.long	145
	.long	149
	.long	.Lxtalabel3
.cc_bottom cc_52
.cc_top cc_53,.Lxtalabel15
	.ascii	"../src/extensions/ledctrl.xc"
	.byte	0
	.long	145
	.long	149
	.long	.Lxtalabel15
.cc_bottom cc_53
.cc_top cc_54,.Lxtalabel22
	.ascii	"../src/extensions/ledctrl.xc"
	.byte	0
	.long	145
	.long	149
	.long	.Lxtalabel22
.cc_bottom cc_54
.cc_top cc_55,.Lxtalabel13
	.ascii	"../src/extensions/ledctrl.xc"
	.byte	0
	.long	150
	.long	150
	.long	.Lxtalabel13
.cc_bottom cc_55
.cc_top cc_56,.Lxtalabel14
	.ascii	"../src/extensions/ledctrl.xc"
	.byte	0
	.long	150
	.long	150
	.long	.Lxtalabel14
.cc_bottom cc_56
.cc_top cc_57,.Lxtalabel5
	.ascii	"../src/extensions/ledctrl.xc"
	.byte	0
	.long	150
	.long	150
	.long	.Lxtalabel5
.cc_bottom cc_57
.cc_top cc_58,.Lxtalabel20
	.ascii	"../src/extensions/ledctrl.xc"
	.byte	0
	.long	150
	.long	150
	.long	.Lxtalabel20
.cc_bottom cc_58
.cc_top cc_59,.Lxtalabel21
	.ascii	"../src/extensions/ledctrl.xc"
	.byte	0
	.long	150
	.long	150
	.long	.Lxtalabel21
.cc_bottom cc_59
.cc_top cc_60,.Lxtalabel4
	.ascii	"../src/extensions/ledctrl.xc"
	.byte	0
	.long	150
	.long	150
	.long	.Lxtalabel4
.cc_bottom cc_60
.cc_top cc_61,.Lxtalabel17
	.ascii	"../src/extensions/ledctrl.xc"
	.byte	0
	.long	151
	.long	151
	.long	.Lxtalabel17
.cc_bottom cc_61
.cc_top cc_62,.Lxtalabel8
	.ascii	"../src/extensions/ledctrl.xc"
	.byte	0
	.long	151
	.long	151
	.long	.Lxtalabel8
.cc_bottom cc_62
.cc_top cc_63,.Lxtalabel24
	.ascii	"../src/extensions/ledctrl.xc"
	.byte	0
	.long	151
	.long	151
	.long	.Lxtalabel24
.cc_bottom cc_63
.cc_top cc_64,.Lxtalabel13
	.ascii	"../src/extensions/ledctrl.xc"
	.byte	0
	.long	154
	.long	154
	.long	.Lxtalabel13
.cc_bottom cc_64
.cc_top cc_65,.Lxtalabel4
	.ascii	"../src/extensions/ledctrl.xc"
	.byte	0
	.long	154
	.long	154
	.long	.Lxtalabel4
.cc_bottom cc_65
.cc_top cc_66,.Lxtalabel14
	.ascii	"../src/extensions/ledctrl.xc"
	.byte	0
	.long	154
	.long	154
	.long	.Lxtalabel14
.cc_bottom cc_66
.cc_top cc_67,.Lxtalabel20
	.ascii	"../src/extensions/ledctrl.xc"
	.byte	0
	.long	154
	.long	154
	.long	.Lxtalabel20
.cc_bottom cc_67
.cc_top cc_68,.Lxtalabel5
	.ascii	"../src/extensions/ledctrl.xc"
	.byte	0
	.long	154
	.long	154
	.long	.Lxtalabel5
.cc_bottom cc_68
.cc_top cc_69,.Lxtalabel21
	.ascii	"../src/extensions/ledctrl.xc"
	.byte	0
	.long	154
	.long	154
	.long	.Lxtalabel21
.cc_bottom cc_69
.cc_top cc_70,.Lxtalabel16
	.ascii	"../src/extensions/ledctrl.xc"
	.byte	0
	.long	155
	.long	155
	.long	.Lxtalabel16
.cc_bottom cc_70
.cc_top cc_71,.Lxtalabel23
	.ascii	"../src/extensions/ledctrl.xc"
	.byte	0
	.long	155
	.long	155
	.long	.Lxtalabel23
.cc_bottom cc_71
.cc_top cc_72,.Lxtalabel7
	.ascii	"../src/extensions/ledctrl.xc"
	.byte	0
	.long	155
	.long	155
	.long	.Lxtalabel7
.cc_bottom cc_72
.cc_top cc_73,.Lxtalabel19
	.ascii	"../src/extensions/ledctrl.xc"
	.byte	0
	.long	158
	.long	159
	.long	.Lxtalabel19
.cc_bottom cc_73
.cc_top cc_74,.Lxtalabel26
	.ascii	"../src/extensions/ledctrl.xc"
	.byte	0
	.long	158
	.long	159
	.long	.Lxtalabel26
.cc_bottom cc_74
.Lentries_end5:
	.section	.xtalooplabeltable,"",@progbits
.Lentries_start6:
	.long	.Lentries_end7-.Lentries_start6
	.long	0
	.ascii	"C:\\Users\\user\\workspace\\app_vf_spk_base\\.build_1i2o2_lin33_48k_farenddsp"
	.byte	0
.cc_top cc_75,.Lxta.loop_labels2
	.ascii	"../src/extensions/ledctrl.xc"
	.byte	0
	.long	97
	.long	99
	.long	.Lxta.loop_labels2
.cc_bottom cc_75
.cc_top cc_76,.Lxta.loop_labels1
	.ascii	"../src/extensions/ledctrl.xc"
	.byte	0
	.long	151
	.long	151
	.long	.Lxta.loop_labels1
.cc_bottom cc_76
.cc_top cc_77,.Lxta.loop_labels4
	.ascii	"../src/extensions/ledctrl.xc"
	.byte	0
	.long	151
	.long	151
	.long	.Lxta.loop_labels4
.cc_bottom cc_77
.cc_top cc_78,.Lxta.loop_labels6
	.ascii	"../src/extensions/ledctrl.xc"
	.byte	0
	.long	151
	.long	151
	.long	.Lxta.loop_labels6
.cc_bottom cc_78
.cc_top cc_79,.Lxta.loop_labels0
	.ascii	"../src/extensions/ledctrl.xc"
	.byte	0
	.long	155
	.long	155
	.long	.Lxta.loop_labels0
.cc_bottom cc_79
.cc_top cc_80,.Lxta.loop_labels3
	.ascii	"../src/extensions/ledctrl.xc"
	.byte	0
	.long	155
	.long	155
	.long	.Lxta.loop_labels3
.cc_bottom cc_80
.cc_top cc_81,.Lxta.loop_labels5
	.ascii	"../src/extensions/ledctrl.xc"
	.byte	0
	.long	155
	.long	155
	.long	.Lxta.loop_labels5
.cc_bottom cc_81
.Lentries_end7:
	.section	.trap_info,"",@progbits
.Ltrap_info_entries_start0:
	.long	.Ltrap_info_entries_end0-.Ltrap_info_entries_start0
	.long	1
	.section	.trap_info_str,"MS",@progbits
.Ltrap_info_str0:
.asciiz"../src/extensions/ledctrl.xc:93:5: error: out of bounds array access\n    ledVals[ledNo] = ledVal;\n    ^~~~~~~~~~~~~~\n"
	.section	.trap_info,"",@progbits
.cc_top cc_trapinfo_0,.Ltrap_info0
	.long	.Ltrap_info0
	.long	.Ltrap_info_str0
.cc_bottom cc_trapinfo_0
.Ltrap_info_entries_end0: