	.text
	.file	"C:/Users/user/workspace/lib_spi/src/spi_sync.xc"
                                        # Start of file scope inline assembly
	.inline_definition delay_seconds
	.inline_definition delay_milliseconds
	.inline_definition delay_microseconds
	.weak spi_master.1.maxargsize.group
	.globl spi_master.1.maxargsize.group
	.add_to_set spi_master.1.maxargsize.group, 1
	.weak spi_master.1.maxargsize
	.globl spi_master.1.maxargsize
	.max_reduce spi_master.1.maxargsize, spi_master.1.maxargsize.group, 0
	.weak spi_master.6.maxargsize.group
	.globl spi_master.6.maxargsize.group
	.add_to_set spi_master.6.maxargsize.group, 1
	.weak spi_master.6.maxargsize
	.globl spi_master.6.maxargsize
	.max_reduce spi_master.6.maxargsize, spi_master.6.maxargsize.group, 0
	.set spi_master.select.0.enable.savedstate,48
	.globl spi_master.select.0.enable.savedstate
	.set spi_master.select.0.enable.cases.maxtimers,0 $M spi_master.select.0.case.0.maxtimers
	.globl spi_master.select.0.enable.cases.maxtimers
	.set spi_master.select.0.enable.cases.maxcores,0 $M spi_master.select.0.case.0.maxcores
	.globl spi_master.select.0.enable.cases.maxcores
	.set spi_master.select.0.enable.cases.maxchanends,0 $M spi_master.select.0.case.0.maxchanends
	.globl spi_master.select.0.enable.cases.maxchanends
	.set spi_master.select.0.enable.cases,0
	.globl spi_master.select.0.enable.cases
	.set spi_master.select.0.enable.cases.nstackwords, 0 $M (spi_master.select.0.case.0.nstackwords)
	.globl spi_master.select.0.enable.cases.nstackwords
	.set spi_master.dynalloc_maxchanends, 0
	.globl spi_master.dynalloc_maxchanends
	.set spi_master.dynalloc_maxcores, 0
	.globl spi_master.dynalloc_maxcores
	.set spi_master.dynalloc_maxtimers, 0
	.globl spi_master.dynalloc_maxtimers
	.set spi_master.init.0.savedstate,48
	.globl spi_master.init.0.savedstate
	.set spi_master.select.yield.enable.savedstate,48
	.globl spi_master.select.yield.enable.savedstate
	.set spi_master.select.yield.enable.cases.maxtimers,0 $M spi_master.select.yield.case.0.maxtimers
	.globl spi_master.select.yield.enable.cases.maxtimers
	.set spi_master.select.yield.enable.cases.maxcores,0 $M spi_master.select.yield.case.0.maxcores
	.globl spi_master.select.yield.enable.cases.maxcores
	.set spi_master.select.yield.enable.cases.maxchanends,0 $M spi_master.select.yield.case.0.maxchanends
	.globl spi_master.select.yield.enable.cases.maxchanends
	.set spi_master.select.yield.enable.cases,0
	.globl spi_master.select.yield.enable.cases
	.set spi_master.select.yield.enable.cases.nstackwords, 0 $M (spi_master.select.yield.case.0.nstackwords)
	.globl spi_master.select.yield.enable.cases.nstackwords
	.set spi_master.select.enable.savedstate,48
	.globl spi_master.select.enable.savedstate
	.set spi_master.select.enable.cases.maxtimers,0 $M spi_master.select.case.0.maxtimers
	.globl spi_master.select.enable.cases.maxtimers
	.set spi_master.select.enable.cases.maxcores,0 $M spi_master.select.case.0.maxcores
	.globl spi_master.select.enable.cases.maxcores
	.set spi_master.select.enable.cases.maxchanends,0 $M spi_master.select.case.0.maxchanends
	.globl spi_master.select.enable.cases.maxchanends
	.set spi_master.select.enable.cases,0
	.globl spi_master.select.enable.cases
	.set spi_master.select.enable.cases.nstackwords, 0 $M (spi_master.select.case.0.nstackwords)
	.globl spi_master.select.enable.cases.nstackwords
	.weak _i.spi_slave_callback_if.master_ends_transaction.maxchanends.group
	.max_reduce _i.spi_slave_callback_if.master_ends_transaction.max.maxchanends, _i.spi_slave_callback_if.master_ends_transaction.maxchanends.group, 0
	.weak _i.spi_slave_callback_if.master_ends_transaction.maxcores.group
	.max_reduce _i.spi_slave_callback_if.master_ends_transaction.max.maxcores, _i.spi_slave_callback_if.master_ends_transaction.maxcores.group, 0
	.weak _i.spi_slave_callback_if.master_ends_transaction.maxtimers.group
	.max_reduce _i.spi_slave_callback_if.master_ends_transaction.max.maxtimers, _i.spi_slave_callback_if.master_ends_transaction.maxtimers.group, 0
	.weak _i.spi_slave_callback_if.master_ends_transaction.nstackwords.group
	.globl _i.spi_slave_callback_if.master_ends_transaction.nstackwords.group
	.weak _i.spi_slave_callback_if.master_ends_transaction.fns.group
	.globl _i.spi_slave_callback_if.master_ends_transaction.fns.group
	.max_reduce _i.spi_slave_callback_if.master_ends_transaction.max.nstackwords, _i.spi_slave_callback_if.master_ends_transaction.nstackwords.group, 0
	.max_reduce _i.spi_slave_callback_if.master_ends_transaction.fns, _i.spi_slave_callback_if.master_ends_transaction.fns.group, 0
	.weak _i.spi_slave_callback_if.master_requires_data.maxchanends.group
	.max_reduce _i.spi_slave_callback_if.master_requires_data.max.maxchanends, _i.spi_slave_callback_if.master_requires_data.maxchanends.group, 0
	.weak _i.spi_slave_callback_if.master_requires_data.maxcores.group
	.max_reduce _i.spi_slave_callback_if.master_requires_data.max.maxcores, _i.spi_slave_callback_if.master_requires_data.maxcores.group, 0
	.weak _i.spi_slave_callback_if.master_requires_data.maxtimers.group
	.max_reduce _i.spi_slave_callback_if.master_requires_data.max.maxtimers, _i.spi_slave_callback_if.master_requires_data.maxtimers.group, 0
	.weak _i.spi_slave_callback_if.master_requires_data.nstackwords.group
	.globl _i.spi_slave_callback_if.master_requires_data.nstackwords.group
	.weak _i.spi_slave_callback_if.master_requires_data.fns.group
	.globl _i.spi_slave_callback_if.master_requires_data.fns.group
	.max_reduce _i.spi_slave_callback_if.master_requires_data.max.nstackwords, _i.spi_slave_callback_if.master_requires_data.nstackwords.group, 0
	.max_reduce _i.spi_slave_callback_if.master_requires_data.fns, _i.spi_slave_callback_if.master_requires_data.fns.group, 0
	.weak _i.spi_slave_callback_if.master_supplied_data.maxchanends.group
	.max_reduce _i.spi_slave_callback_if.master_supplied_data.max.maxchanends, _i.spi_slave_callback_if.master_supplied_data.maxchanends.group, 0
	.weak _i.spi_slave_callback_if.master_supplied_data.maxcores.group
	.max_reduce _i.spi_slave_callback_if.master_supplied_data.max.maxcores, _i.spi_slave_callback_if.master_supplied_data.maxcores.group, 0
	.weak _i.spi_slave_callback_if.master_supplied_data.maxtimers.group
	.max_reduce _i.spi_slave_callback_if.master_supplied_data.max.maxtimers, _i.spi_slave_callback_if.master_supplied_data.maxtimers.group, 0
	.weak _i.spi_slave_callback_if.master_supplied_data.nstackwords.group
	.globl _i.spi_slave_callback_if.master_supplied_data.nstackwords.group
	.weak _i.spi_slave_callback_if.master_supplied_data.fns.group
	.globl _i.spi_slave_callback_if.master_supplied_data.fns.group
	.max_reduce _i.spi_slave_callback_if.master_supplied_data.max.nstackwords, _i.spi_slave_callback_if.master_supplied_data.nstackwords.group, 0
	.max_reduce _i.spi_slave_callback_if.master_supplied_data.fns, _i.spi_slave_callback_if.master_supplied_data.fns.group, 0
	.weak _i.spi_slave_callback_if.__interface_init.maxchanends.group
	.max_reduce _i.spi_slave_callback_if.__interface_init.max.maxchanends, _i.spi_slave_callback_if.__interface_init.maxchanends.group, 0
	.weak _i.spi_slave_callback_if.__interface_init.maxcores.group
	.max_reduce _i.spi_slave_callback_if.__interface_init.max.maxcores, _i.spi_slave_callback_if.__interface_init.maxcores.group, 0
	.weak _i.spi_slave_callback_if.__interface_init.maxtimers.group
	.max_reduce _i.spi_slave_callback_if.__interface_init.max.maxtimers, _i.spi_slave_callback_if.__interface_init.maxtimers.group, 0
	.weak _i.spi_slave_callback_if.__interface_init.nstackwords.group
	.globl _i.spi_slave_callback_if.__interface_init.nstackwords.group
	.weak _i.spi_slave_callback_if.__interface_init.fns.group
	.globl _i.spi_slave_callback_if.__interface_init.fns.group
	.max_reduce _i.spi_slave_callback_if.__interface_init.max.nstackwords, _i.spi_slave_callback_if.__interface_init.nstackwords.group, 0
	.max_reduce _i.spi_slave_callback_if.__interface_init.fns, _i.spi_slave_callback_if.__interface_init.fns.group, 0
	.weak _i.spi_slave_callback_if._client_call_y.maxchanends.group
	.add_to_set _i.spi_slave_callback_if._client_call_y.maxchanends.group, (__interface_client_call_y_other.maxchanends + __interface_client_call_y_extra.maxchanends), __interface_client_call_y_other
	.max_reduce _i.spi_slave_callback_if._client_call_y.max.maxchanends, _i.spi_slave_callback_if._client_call_y.maxchanends.group, 0
	.weak _i.spi_slave_callback_if._client_call_y.maxcores.group
	.add_to_set _i.spi_slave_callback_if._client_call_y.maxcores.group, (__interface_client_call_y_other.maxcores + __interface_client_call_y_extra.maxcores), __interface_client_call_y_other
	.max_reduce _i.spi_slave_callback_if._client_call_y.max.maxcores, _i.spi_slave_callback_if._client_call_y.maxcores.group, 0
	.weak _i.spi_slave_callback_if._client_call_y.maxtimers.group
	.add_to_set _i.spi_slave_callback_if._client_call_y.maxtimers.group, (__interface_client_call_y_other.maxtimers + __interface_client_call_y_extra.maxtimers), __interface_client_call_y_other
	.max_reduce _i.spi_slave_callback_if._client_call_y.max.maxtimers, _i.spi_slave_callback_if._client_call_y.maxtimers.group, 0
	.weak _i.spi_slave_callback_if._client_call_y.nstackwords.group
	.globl _i.spi_slave_callback_if._client_call_y.nstackwords.group
	.weak _i.spi_slave_callback_if._client_call_y.fns.group
	.globl _i.spi_slave_callback_if._client_call_y.fns.group
	.add_to_set _i.spi_slave_callback_if._client_call_y.nstackwords.group, (__interface_client_call_y_other.nstackwords + __interface_client_call_y_extra.nstackwords), __interface_client_call_y_other
	.add_to_set _i.spi_slave_callback_if._client_call_y.fns.group, __interface_client_call_y_other, __interface_client_call_y_other
	.max_reduce _i.spi_slave_callback_if._client_call_y.max.nstackwords, _i.spi_slave_callback_if._client_call_y.nstackwords.group, 0
	.max_reduce _i.spi_slave_callback_if._client_call_y.fns, _i.spi_slave_callback_if._client_call_y.fns.group, 0
	.weak _i.spi_master_async_if.begin_transaction.maxchanends.group
	.max_reduce _i.spi_master_async_if.begin_transaction.max.maxchanends, _i.spi_master_async_if.begin_transaction.maxchanends.group, 0
	.weak _i.spi_master_async_if.begin_transaction.maxcores.group
	.max_reduce _i.spi_master_async_if.begin_transaction.max.maxcores, _i.spi_master_async_if.begin_transaction.maxcores.group, 0
	.weak _i.spi_master_async_if.begin_transaction.maxtimers.group
	.max_reduce _i.spi_master_async_if.begin_transaction.max.maxtimers, _i.spi_master_async_if.begin_transaction.maxtimers.group, 0
	.weak _i.spi_master_async_if.begin_transaction.nstackwords.group
	.globl _i.spi_master_async_if.begin_transaction.nstackwords.group
	.weak _i.spi_master_async_if.begin_transaction.fns.group
	.globl _i.spi_master_async_if.begin_transaction.fns.group
	.max_reduce _i.spi_master_async_if.begin_transaction.max.nstackwords, _i.spi_master_async_if.begin_transaction.nstackwords.group, 0
	.max_reduce _i.spi_master_async_if.begin_transaction.fns, _i.spi_master_async_if.begin_transaction.fns.group, 0
	.weak _i.spi_master_async_if.end_transaction.maxchanends.group
	.max_reduce _i.spi_master_async_if.end_transaction.max.maxchanends, _i.spi_master_async_if.end_transaction.maxchanends.group, 0
	.weak _i.spi_master_async_if.end_transaction.maxcores.group
	.max_reduce _i.spi_master_async_if.end_transaction.max.maxcores, _i.spi_master_async_if.end_transaction.maxcores.group, 0
	.weak _i.spi_master_async_if.end_transaction.maxtimers.group
	.max_reduce _i.spi_master_async_if.end_transaction.max.maxtimers, _i.spi_master_async_if.end_transaction.maxtimers.group, 0
	.weak _i.spi_master_async_if.end_transaction.nstackwords.group
	.globl _i.spi_master_async_if.end_transaction.nstackwords.group
	.weak _i.spi_master_async_if.end_transaction.fns.group
	.globl _i.spi_master_async_if.end_transaction.fns.group
	.max_reduce _i.spi_master_async_if.end_transaction.max.nstackwords, _i.spi_master_async_if.end_transaction.nstackwords.group, 0
	.max_reduce _i.spi_master_async_if.end_transaction.fns, _i.spi_master_async_if.end_transaction.fns.group, 0
	.weak _i.spi_master_async_if.init_transfer_array_8.maxchanends.group
	.max_reduce _i.spi_master_async_if.init_transfer_array_8.max.maxchanends, _i.spi_master_async_if.init_transfer_array_8.maxchanends.group, 0
	.weak _i.spi_master_async_if.init_transfer_array_8.maxcores.group
	.max_reduce _i.spi_master_async_if.init_transfer_array_8.max.maxcores, _i.spi_master_async_if.init_transfer_array_8.maxcores.group, 0
	.weak _i.spi_master_async_if.init_transfer_array_8.maxtimers.group
	.max_reduce _i.spi_master_async_if.init_transfer_array_8.max.maxtimers, _i.spi_master_async_if.init_transfer_array_8.maxtimers.group, 0
	.weak _i.spi_master_async_if.init_transfer_array_8.nstackwords.group
	.globl _i.spi_master_async_if.init_transfer_array_8.nstackwords.group
	.weak _i.spi_master_async_if.init_transfer_array_8.fns.group
	.globl _i.spi_master_async_if.init_transfer_array_8.fns.group
	.max_reduce _i.spi_master_async_if.init_transfer_array_8.max.nstackwords, _i.spi_master_async_if.init_transfer_array_8.nstackwords.group, 0
	.max_reduce _i.spi_master_async_if.init_transfer_array_8.fns, _i.spi_master_async_if.init_transfer_array_8.fns.group, 0
	.weak _i.spi_master_async_if.init_transfer_array_32.maxchanends.group
	.max_reduce _i.spi_master_async_if.init_transfer_array_32.max.maxchanends, _i.spi_master_async_if.init_transfer_array_32.maxchanends.group, 0
	.weak _i.spi_master_async_if.init_transfer_array_32.maxcores.group
	.max_reduce _i.spi_master_async_if.init_transfer_array_32.max.maxcores, _i.spi_master_async_if.init_transfer_array_32.maxcores.group, 0
	.weak _i.spi_master_async_if.init_transfer_array_32.maxtimers.group
	.max_reduce _i.spi_master_async_if.init_transfer_array_32.max.maxtimers, _i.spi_master_async_if.init_transfer_array_32.maxtimers.group, 0
	.weak _i.spi_master_async_if.init_transfer_array_32.nstackwords.group
	.globl _i.spi_master_async_if.init_transfer_array_32.nstackwords.group
	.weak _i.spi_master_async_if.init_transfer_array_32.fns.group
	.globl _i.spi_master_async_if.init_transfer_array_32.fns.group
	.max_reduce _i.spi_master_async_if.init_transfer_array_32.max.nstackwords, _i.spi_master_async_if.init_transfer_array_32.nstackwords.group, 0
	.max_reduce _i.spi_master_async_if.init_transfer_array_32.fns, _i.spi_master_async_if.init_transfer_array_32.fns.group, 0
	.weak _i.spi_master_async_if.retrieve_transfer_buffers_8.maxchanends.group
	.max_reduce _i.spi_master_async_if.retrieve_transfer_buffers_8.max.maxchanends, _i.spi_master_async_if.retrieve_transfer_buffers_8.maxchanends.group, 0
	.weak _i.spi_master_async_if.retrieve_transfer_buffers_8.maxcores.group
	.max_reduce _i.spi_master_async_if.retrieve_transfer_buffers_8.max.maxcores, _i.spi_master_async_if.retrieve_transfer_buffers_8.maxcores.group, 0
	.weak _i.spi_master_async_if.retrieve_transfer_buffers_8.maxtimers.group
	.max_reduce _i.spi_master_async_if.retrieve_transfer_buffers_8.max.maxtimers, _i.spi_master_async_if.retrieve_transfer_buffers_8.maxtimers.group, 0
	.weak _i.spi_master_async_if.retrieve_transfer_buffers_8.nstackwords.group
	.globl _i.spi_master_async_if.retrieve_transfer_buffers_8.nstackwords.group
	.weak _i.spi_master_async_if.retrieve_transfer_buffers_8.fns.group
	.globl _i.spi_master_async_if.retrieve_transfer_buffers_8.fns.group
	.max_reduce _i.spi_master_async_if.retrieve_transfer_buffers_8.max.nstackwords, _i.spi_master_async_if.retrieve_transfer_buffers_8.nstackwords.group, 0
	.max_reduce _i.spi_master_async_if.retrieve_transfer_buffers_8.fns, _i.spi_master_async_if.retrieve_transfer_buffers_8.fns.group, 0
	.weak _i.spi_master_async_if.retrieve_transfer_buffers_32.maxchanends.group
	.max_reduce _i.spi_master_async_if.retrieve_transfer_buffers_32.max.maxchanends, _i.spi_master_async_if.retrieve_transfer_buffers_32.maxchanends.group, 0
	.weak _i.spi_master_async_if.retrieve_transfer_buffers_32.maxcores.group
	.max_reduce _i.spi_master_async_if.retrieve_transfer_buffers_32.max.maxcores, _i.spi_master_async_if.retrieve_transfer_buffers_32.maxcores.group, 0
	.weak _i.spi_master_async_if.retrieve_transfer_buffers_32.maxtimers.group
	.max_reduce _i.spi_master_async_if.retrieve_transfer_buffers_32.max.maxtimers, _i.spi_master_async_if.retrieve_transfer_buffers_32.maxtimers.group, 0
	.weak _i.spi_master_async_if.retrieve_transfer_buffers_32.nstackwords.group
	.globl _i.spi_master_async_if.retrieve_transfer_buffers_32.nstackwords.group
	.weak _i.spi_master_async_if.retrieve_transfer_buffers_32.fns.group
	.globl _i.spi_master_async_if.retrieve_transfer_buffers_32.fns.group
	.max_reduce _i.spi_master_async_if.retrieve_transfer_buffers_32.max.nstackwords, _i.spi_master_async_if.retrieve_transfer_buffers_32.nstackwords.group, 0
	.max_reduce _i.spi_master_async_if.retrieve_transfer_buffers_32.fns, _i.spi_master_async_if.retrieve_transfer_buffers_32.fns.group, 0
	.weak _i.spi_master_async_if.__interface_init.maxchanends.group
	.max_reduce _i.spi_master_async_if.__interface_init.max.maxchanends, _i.spi_master_async_if.__interface_init.maxchanends.group, 0
	.weak _i.spi_master_async_if.__interface_init.maxcores.group
	.max_reduce _i.spi_master_async_if.__interface_init.max.maxcores, _i.spi_master_async_if.__interface_init.maxcores.group, 0
	.weak _i.spi_master_async_if.__interface_init.maxtimers.group
	.max_reduce _i.spi_master_async_if.__interface_init.max.maxtimers, _i.spi_master_async_if.__interface_init.maxtimers.group, 0
	.weak _i.spi_master_async_if.__interface_init.nstackwords.group
	.globl _i.spi_master_async_if.__interface_init.nstackwords.group
	.weak _i.spi_master_async_if.__interface_init.fns.group
	.globl _i.spi_master_async_if.__interface_init.fns.group
	.max_reduce _i.spi_master_async_if.__interface_init.max.nstackwords, _i.spi_master_async_if.__interface_init.nstackwords.group, 0
	.max_reduce _i.spi_master_async_if.__interface_init.fns, _i.spi_master_async_if.__interface_init.fns.group, 0
	.weak _i.spi_master_async_if._client_call_y.maxchanends.group
	.add_to_set _i.spi_master_async_if._client_call_y.maxchanends.group, (__interface_client_call_y_other.maxchanends + __interface_client_call_y_extra.maxchanends), __interface_client_call_y_other
	.max_reduce _i.spi_master_async_if._client_call_y.max.maxchanends, _i.spi_master_async_if._client_call_y.maxchanends.group, 0
	.weak _i.spi_master_async_if._client_call_y.maxcores.group
	.add_to_set _i.spi_master_async_if._client_call_y.maxcores.group, (__interface_client_call_y_other.maxcores + __interface_client_call_y_extra.maxcores), __interface_client_call_y_other
	.max_reduce _i.spi_master_async_if._client_call_y.max.maxcores, _i.spi_master_async_if._client_call_y.maxcores.group, 0
	.weak _i.spi_master_async_if._client_call_y.maxtimers.group
	.add_to_set _i.spi_master_async_if._client_call_y.maxtimers.group, (__interface_client_call_y_other.maxtimers + __interface_client_call_y_extra.maxtimers), __interface_client_call_y_other
	.max_reduce _i.spi_master_async_if._client_call_y.max.maxtimers, _i.spi_master_async_if._client_call_y.maxtimers.group, 0
	.weak _i.spi_master_async_if._client_call_y.nstackwords.group
	.globl _i.spi_master_async_if._client_call_y.nstackwords.group
	.weak _i.spi_master_async_if._client_call_y.fns.group
	.globl _i.spi_master_async_if._client_call_y.fns.group
	.add_to_set _i.spi_master_async_if._client_call_y.nstackwords.group, (__interface_client_call_y_other.nstackwords + __interface_client_call_y_extra.nstackwords), __interface_client_call_y_other
	.add_to_set _i.spi_master_async_if._client_call_y.fns.group, __interface_client_call_y_other, __interface_client_call_y_other
	.max_reduce _i.spi_master_async_if._client_call_y.max.nstackwords, _i.spi_master_async_if._client_call_y.nstackwords.group, 0
	.max_reduce _i.spi_master_async_if._client_call_y.fns, _i.spi_master_async_if._client_call_y.fns.group, 0
	.weak _i.spi_master_if.begin_transaction.maxchanends.group
	.max_reduce _i.spi_master_if.begin_transaction.max.maxchanends, _i.spi_master_if.begin_transaction.maxchanends.group, 0
	.weak _i.spi_master_if.begin_transaction.maxcores.group
	.max_reduce _i.spi_master_if.begin_transaction.max.maxcores, _i.spi_master_if.begin_transaction.maxcores.group, 0
	.weak _i.spi_master_if.begin_transaction.maxtimers.group
	.max_reduce _i.spi_master_if.begin_transaction.max.maxtimers, _i.spi_master_if.begin_transaction.maxtimers.group, 0
	.weak _i.spi_master_if.begin_transaction.nstackwords.group
	.globl _i.spi_master_if.begin_transaction.nstackwords.group
	.weak _i.spi_master_if.begin_transaction.fns.group
	.globl _i.spi_master_if.begin_transaction.fns.group
	.max_reduce _i.spi_master_if.begin_transaction.max.nstackwords, _i.spi_master_if.begin_transaction.nstackwords.group, 0
	.max_reduce _i.spi_master_if.begin_transaction.fns, _i.spi_master_if.begin_transaction.fns.group, 0
	.weak _i.spi_master_if.end_transaction.maxchanends.group
	.max_reduce _i.spi_master_if.end_transaction.max.maxchanends, _i.spi_master_if.end_transaction.maxchanends.group, 0
	.weak _i.spi_master_if.end_transaction.maxcores.group
	.max_reduce _i.spi_master_if.end_transaction.max.maxcores, _i.spi_master_if.end_transaction.maxcores.group, 0
	.weak _i.spi_master_if.end_transaction.maxtimers.group
	.max_reduce _i.spi_master_if.end_transaction.max.maxtimers, _i.spi_master_if.end_transaction.maxtimers.group, 0
	.weak _i.spi_master_if.end_transaction.nstackwords.group
	.globl _i.spi_master_if.end_transaction.nstackwords.group
	.weak _i.spi_master_if.end_transaction.fns.group
	.globl _i.spi_master_if.end_transaction.fns.group
	.max_reduce _i.spi_master_if.end_transaction.max.nstackwords, _i.spi_master_if.end_transaction.nstackwords.group, 0
	.max_reduce _i.spi_master_if.end_transaction.fns, _i.spi_master_if.end_transaction.fns.group, 0
	.weak _i.spi_master_if.transfer8.maxchanends.group
	.max_reduce _i.spi_master_if.transfer8.max.maxchanends, _i.spi_master_if.transfer8.maxchanends.group, 0
	.weak _i.spi_master_if.transfer8.maxcores.group
	.max_reduce _i.spi_master_if.transfer8.max.maxcores, _i.spi_master_if.transfer8.maxcores.group, 0
	.weak _i.spi_master_if.transfer8.maxtimers.group
	.max_reduce _i.spi_master_if.transfer8.max.maxtimers, _i.spi_master_if.transfer8.maxtimers.group, 0
	.weak _i.spi_master_if.transfer8.nstackwords.group
	.globl _i.spi_master_if.transfer8.nstackwords.group
	.weak _i.spi_master_if.transfer8.fns.group
	.globl _i.spi_master_if.transfer8.fns.group
	.max_reduce _i.spi_master_if.transfer8.max.nstackwords, _i.spi_master_if.transfer8.nstackwords.group, 0
	.max_reduce _i.spi_master_if.transfer8.fns, _i.spi_master_if.transfer8.fns.group, 0
	.weak _i.spi_master_if.transfer32.maxchanends.group
	.max_reduce _i.spi_master_if.transfer32.max.maxchanends, _i.spi_master_if.transfer32.maxchanends.group, 0
	.weak _i.spi_master_if.transfer32.maxcores.group
	.max_reduce _i.spi_master_if.transfer32.max.maxcores, _i.spi_master_if.transfer32.maxcores.group, 0
	.weak _i.spi_master_if.transfer32.maxtimers.group
	.max_reduce _i.spi_master_if.transfer32.max.maxtimers, _i.spi_master_if.transfer32.maxtimers.group, 0
	.weak _i.spi_master_if.transfer32.nstackwords.group
	.globl _i.spi_master_if.transfer32.nstackwords.group
	.weak _i.spi_master_if.transfer32.fns.group
	.globl _i.spi_master_if.transfer32.fns.group
	.max_reduce _i.spi_master_if.transfer32.max.nstackwords, _i.spi_master_if.transfer32.nstackwords.group, 0
	.max_reduce _i.spi_master_if.transfer32.fns, _i.spi_master_if.transfer32.fns.group, 0
	.weak _i.spi_master_if.__interface_init.maxchanends.group
	.max_reduce _i.spi_master_if.__interface_init.max.maxchanends, _i.spi_master_if.__interface_init.maxchanends.group, 0
	.weak _i.spi_master_if.__interface_init.maxcores.group
	.max_reduce _i.spi_master_if.__interface_init.max.maxcores, _i.spi_master_if.__interface_init.maxcores.group, 0
	.weak _i.spi_master_if.__interface_init.maxtimers.group
	.max_reduce _i.spi_master_if.__interface_init.max.maxtimers, _i.spi_master_if.__interface_init.maxtimers.group, 0
	.weak _i.spi_master_if.__interface_init.nstackwords.group
	.globl _i.spi_master_if.__interface_init.nstackwords.group
	.weak _i.spi_master_if.__interface_init.fns.group
	.globl _i.spi_master_if.__interface_init.fns.group
	.max_reduce _i.spi_master_if.__interface_init.max.nstackwords, _i.spi_master_if.__interface_init.nstackwords.group, 0
	.max_reduce _i.spi_master_if.__interface_init.fns, _i.spi_master_if.__interface_init.fns.group, 0
	.weak _i.spi_master_if._client_call_y.maxchanends.group
	.add_to_set _i.spi_master_if._client_call_y.maxchanends.group, (__interface_client_call_y_other.maxchanends + __interface_client_call_y_extra.maxchanends), __interface_client_call_y_other
	.max_reduce _i.spi_master_if._client_call_y.max.maxchanends, _i.spi_master_if._client_call_y.maxchanends.group, 0
	.weak _i.spi_master_if._client_call_y.maxcores.group
	.add_to_set _i.spi_master_if._client_call_y.maxcores.group, (__interface_client_call_y_other.maxcores + __interface_client_call_y_extra.maxcores), __interface_client_call_y_other
	.max_reduce _i.spi_master_if._client_call_y.max.maxcores, _i.spi_master_if._client_call_y.maxcores.group, 0
	.weak _i.spi_master_if._client_call_y.maxtimers.group
	.add_to_set _i.spi_master_if._client_call_y.maxtimers.group, (__interface_client_call_y_other.maxtimers + __interface_client_call_y_extra.maxtimers), __interface_client_call_y_other
	.max_reduce _i.spi_master_if._client_call_y.max.maxtimers, _i.spi_master_if._client_call_y.maxtimers.group, 0
	.weak _i.spi_master_if._client_call_y.nstackwords.group
	.globl _i.spi_master_if._client_call_y.nstackwords.group
	.weak _i.spi_master_if._client_call_y.fns.group
	.globl _i.spi_master_if._client_call_y.fns.group
	.add_to_set _i.spi_master_if._client_call_y.nstackwords.group, (__interface_client_call_y_other.nstackwords + __interface_client_call_y_extra.nstackwords), __interface_client_call_y_other
	.add_to_set _i.spi_master_if._client_call_y.fns.group, __interface_client_call_y_other, __interface_client_call_y_other
	.max_reduce _i.spi_master_if._client_call_y.max.nstackwords, _i.spi_master_if._client_call_y.nstackwords.group, 0
	.max_reduce _i.spi_master_if._client_call_y.fns, _i.spi_master_if._client_call_y.fns.group, 0
	.set usage.anon.0,0
	.set usage.anon.1,0
	.set usage.anon.2,0
	.set usage.anon.3,0
	.set usage.anon.4,0
	.set usage.anon.5,0
	.set usage.anon.6,0
	.set usage.anon.7,0
	.set usage.anon.8,0
	.set usage.anon.9,0
	.set usage.anon.10,0
	.set usage.anon.11,0
	.set usage.anon.12,0
	.set usage.anon.13,0
	.set usage.anon.14,0
	.globread usage.anon.8,usage.anon.9,"C:/Users/user/workspace/lib_spi/src/spi_sync.xc:173:19: note: object used here\n    return bitrev(unshuffle[d&0xff])>>24;\n                  ^~~~~~~~~~~~~~~~~\nC:\\Program Files (x86)\\XMOS\\xTIMEcomposer\\Community_14.3.3\\target/include\\xclib.h:36:44: note: expanded from macro \'bitrev\'\n#define bitrev(x)         __builtin_bitrev(x)\n                                           ^"
	.globread usage.anon.5,usage.anon.6,"C:/Users/user/workspace/lib_spi/src/spi_sync.xc:154:15: note: object used here\n       return ziptable[a];\n              ^~~~~~~~~~~"
	.call spi_master,usage.anon.4
	.call spi_master,usage.anon.3
	.call spi_master,usage.anon.14
	.call spi_master,usage.anon.13
	.call spi_master,usage.anon.12
	.call spi_master,delay_ticks
	.call spi_master,configure_out_port
	.call spi_master,configure_in_port
	.call spi_master,configure_clock_ref
	.call usage.anon.13,usage.anon.7
	.call usage.anon.13,usage.anon.10
	.call usage.anon.12,usage.anon.8
	.call usage.anon.12,usage.anon.5
	.call usage.anon.12,usage.anon.11
	.call usage.anon.10,usage.anon.8
	.call usage.anon.7,usage.anon.5
	.call usage.anon.2,delay_ticks_longlong
	.call usage.anon.1,delay_ticks_longlong
	.call usage.anon.0,delay_ticks_longlong
	.par usage.anon.10,usage.anon.10,"C:/Users/user/workspace/lib_spi/src/spi_sync.xc:222:20: error: use of `%s\' causes an ambiguous evaluation\n    return byterev(unzip_32(double_data_0) | (unzip_32(double_data_1)<<16));\n                   ^~~~~~~~~~~~~~~~~~~~~~~~~~~~~~~~~~~~~~~~~~~~~~~~~~~~~~~\nC:\\Program Files (x86)\\XMOS\\xTIMEcomposer\\Community_14.3.3\\target/include\\xclib.h:50:45: note: expanded from macro \'byterev\'\n#define byterev(x)        __builtin_byterev(x)\n                                            ^"
	.par usage.anon.8,usage.anon.8,"C:/Users/user/workspace/lib_spi/src/spi_sync.xc:178:12: error: use of `%s\' causes an ambiguous evaluation\n    return unzip_16(d&0xffff) |(unzip_16(d>>16)<<8);\n           ^~~~~~~~~~~~~~~~~~~~~~~~~~~~~~~~~~~~~~~~"
	.set usage.anon.3.locnoside, 0
	.set usage.anon.4.locnoside, 0
	.set usage.anon.7.locnoside, 0
	.set usage.anon.12.locnoside, 0
	.set usage.anon.13.locnoside, 0
	.set usage.anon.14.locnoside, 0
	.set spi_master.locnoside, 0
	.set usage.anon.5.locnoglobalaccess, 0
	.set usage.anon.8.locnoglobalaccess, 0
	.set spi_master.locnointerfaceaccess, 0
	.assert 1,usage.anon.14.actnonotificationselect,"C:/Users/user/workspace/lib_spi/src/spi_sync.xc:272:17: error: call to function `get_mode_bits\' which selects on a notification in a combinable function select case\n                get_mode_bits(mode, cpol, cpha);\n                ^~~~~~~~~~~~~~~~~~~~~~~~~~~~~~~"
	.assert 1,usage.anon.13.actnonotificationselect,"C:/Users/user/workspace/lib_spi/src/spi_sync.xc:334:25: error: call to function `transfer32_sync_one_clkblk\' which selects on a notification in a combinable function select case\n                    r = transfer32_sync_one_clkblk(sclk, mosi, miso, data, cpol, cpha);\n                        ^~~~~~~~~~~~~~~~~~~~~~~~~~~~~~~~~~~~~~~~~~~~~~~~~~~~~~~~~~~~~~"
	.assert 1,usage.anon.12.actnonotificationselect,"C:/Users/user/workspace/lib_spi/src/spi_sync.xc:326:25: error: call to function `transfer8_sync_one_clkblk\' which selects on a notification in a combinable function select case\n                    r = transfer8_sync_one_clkblk(sclk, mosi, miso, data, cpol, cpha);\n                        ^~~~~~~~~~~~~~~~~~~~~~~~~~~~~~~~~~~~~~~~~~~~~~~~~~~~~~~~~~~~~"
	.assert 1,usage.anon.4.actnonotificationselect,"C:/Users/user/workspace/lib_spi/src/spi_sync.xc:332:25: error: call to function `transfer32_sync_zero_clkblk\' which selects on a notification in a combinable function select case\n                    r = transfer32_sync_zero_clkblk(sclk, mosi, miso, data, period, cpol, cpha);\n                        ^~~~~~~~~~~~~~~~~~~~~~~~~~~~~~~~~~~~~~~~~~~~~~~~~~~~~~~~~~~~~~~~~~~~~~~"
	.assert 1,usage.anon.3.actnonotificationselect,"C:/Users/user/workspace/lib_spi/src/spi_sync.xc:324:25: error: call to function `transfer8_sync_zero_clkblk\' which selects on a notification in a combinable function select case\n                    r = transfer8_sync_zero_clkblk(sclk, mosi, miso, data, period, cpol, cpha);\n                        ^~~~~~~~~~~~~~~~~~~~~~~~~~~~~~~~~~~~~~~~~~~~~~~~~~~~~~~~~~~~~~~~~~~~~~"
	.assert 1,configure_clock_ref.actnonotificationselect,"C:/Users/user/workspace/lib_spi/src/spi_sync.xc:292:21: error: call to function `configure_clock_ref\' which selects on a notification in a combinable function select case\n                    configure_clock_ref(cb, d);\n                    ^~~~~~~~~~~~~~~~~~~~~~~~~~"
	.assert 1,delay_ticks.actnonotificationselect,"C:/Users/user/workspace/lib_spi/src/spi_sync.xc:315:20: error: call to function `delay_ticks\' which selects on a notification in a combinable function select case\n                   delay_ticks(ss_deassert_time&0xffff0000);\n                   ^~~~~~~~~~~~~~~~~~~~~~~~~~~~~~~~~~~~~~~~"

                                        # End of file scope inline assembly
	.text
	.globl	_i.spi_master_if.spi_master._c0.transfer32
	.align	4
	.type	_i.spi_master_if.spi_master._c0.transfer32,@function
	.cc_top _i.spi_master_if.spi_master._c0.transfer32.function,_i.spi_master_if.spi_master._c0.transfer32
_i.spi_master_if.spi_master._c0.transfer32: # @_i.spi_master_if.spi_master._c0.transfer32
.Lfunc_begin0:
	.loc	1 330 0                 # C:/Users/user/workspace/lib_spi/src/spi_sync.xc:330:0
	.cfi_startproc
	.issue_mode dual
# BB#0:                                 # %allocas
	{
		nop
		dualentsp 8
	}
.Ltmp0:
	.cfi_def_cfa_offset 32
.Ltmp1:
	.cfi_offset 15, 0
	std r5, r4, sp[2]               # 4-byte Folded Spill
.Ltmp2:
	.cfi_offset 4, -16
.Ltmp3:
	.cfi_offset 5, -12
.Ltmp4:
	.cfi_offset 6, -8
	#DEBUG_VALUE: _i.spi_master_if.spi_master._c0.transfer32:p <- R0
	#DEBUG_VALUE: _i.spi_master_if.spi_master._c0.transfer32:data <- R1
.Ltmp5:
	#DEBUG_VALUE: _i.spi_master_if.spi_master._c0.transfer32:data <- R3
	{
		mov r3, r1
		stw r6, sp[6]
	}
.Ltmp6:
	{
		nop
		ldw r4, r0[0]
	}
.Ltmp7:
.LBB0_1:                                # %allocas
                                        # =>This Inner Loop Header: Depth=1
	{
		nop
		ldw r0, r4[0]
	}
	bf r0, .LBB0_1
# BB#2:                                 # %ifdone
.Ltmp8:
	#DEBUG_VALUE: _i.spi_master_if.spi_master._c0.transfer32:data <- R3
	{
		ldc r0, 0
		nop
	}
	{
		ldc r0, 56
		stw r0, r4[0]
	}
	.loc	1 331 17 prologue_end   # C:/Users/user/workspace/lib_spi/src/spi_sync.xc:331:17
.Ltmp9:
	{
		add r0, r4, r0
		nop
	}
	{
		nop
		ldw r6, r0[0]
	}
	{
		nop
		ldw r0, r4[8]
	}
	{
		nop
		ldw r1, r4[9]
	}
	.loc	1 332 0                 # C:/Users/user/workspace/lib_spi/src/spi_sync.xc:332:0
	{
		ldc r11, 60
		ldw r2, r4[10]
	}
	{
		add r11, r4, r11
		nop
	}
	{
		nop
		ldw r11, r11[0]
	}
	ldc r5, 64
	{
		add r5, r4, r5
		nop
	}
	{
		nop
		ldw r5, r5[0]
	}
	.loc	1 331 17                # C:/Users/user/workspace/lib_spi/src/spi_sync.xc:331:17
	bf r6, .LBB0_3
.Ltmp10:
# BB#4:                                 # %iffalse25
.Lxtalabel0:
	#DEBUG_VALUE: _i.spi_master_if.spi_master._c0.transfer32:data <- R3
	{
		nop
		stw r5, sp[2]
	}
	{
		nop
		stw r11, sp[1]
	}
	.loc	1 334 0                 # C:/Users/user/workspace/lib_spi/src/spi_sync.xc:334:0
.Lxta.call_labels0:
	bl transfer32_sync_one_clkblk
.Ltmp11:
	bu .LBB0_5
.LBB0_3:                                # %iftrue20
.Lxtalabel1:
.Ltmp12:
	#DEBUG_VALUE: _i.spi_master_if.spi_master._c0.transfer32:data <- R3
	ldc r6, 68
	.loc	1 332 0                 # C:/Users/user/workspace/lib_spi/src/spi_sync.xc:332:0
	{
		add r6, r4, r6
		nop
	}
	{
		nop
		ldw r6, r6[0]
	}
	.loc	1 332 0                 # C:/Users/user/workspace/lib_spi/src/spi_sync.xc:332:0
	std r5, r11, sp[1]
	{
		nop
		stw r6, sp[1]
	}
.Lxta.call_labels1:
	bl transfer32_sync_zero_clkblk
.Ltmp13:
.LBB0_5:                                # %ifdone21
.Lxtalabel2:
	{
		mkmsk r1, 1
		nop
	}
	{
		nop
		stw r1, r4[0]
	}
	{
		nop
		ldw r6, sp[6]
	}
	ldd r5, r4, sp[2]               # 4-byte Folded Reload
	{
		nop
		retsp 8
	}
	# RETURN_REG_HOLDER
	.cc_bottom _i.spi_master_if.spi_master._c0.transfer32.function
	.set	_i.spi_master_if.spi_master._c0.transfer32.nstackwords,((transfer32_sync_zero_clkblk.nstackwords $M transfer32_sync_one_clkblk.nstackwords) + 8)
	.globl	_i.spi_master_if.spi_master._c0.transfer32.nstackwords
	.set	_i.spi_master_if.spi_master._c0.transfer32.maxcores,transfer32_sync_one_clkblk.maxcores $M transfer32_sync_zero_clkblk.maxcores $M 1
	.globl	_i.spi_master_if.spi_master._c0.transfer32.maxcores
	.set	_i.spi_master_if.spi_master._c0.transfer32.maxtimers,transfer32_sync_one_clkblk.maxtimers $M transfer32_sync_zero_clkblk.maxtimers $M 0
	.globl	_i.spi_master_if.spi_master._c0.transfer32.maxtimers
	.set	_i.spi_master_if.spi_master._c0.transfer32.maxchanends,transfer32_sync_one_clkblk.maxchanends $M transfer32_sync_zero_clkblk.maxchanends $M 0
	.globl	_i.spi_master_if.spi_master._c0.transfer32.maxchanends
.Ltmp14:
	.size	_i.spi_master_if.spi_master._c0.transfer32, .Ltmp14-_i.spi_master_if.spi_master._c0.transfer32
.Lfunc_end0:
	.cfi_endproc

	.globl	_i.spi_master_if.spi_master._c0.transfer8
	.align	4
	.type	_i.spi_master_if.spi_master._c0.transfer8,@function
	.cc_top _i.spi_master_if.spi_master._c0.transfer8.function,_i.spi_master_if.spi_master._c0.transfer8
_i.spi_master_if.spi_master._c0.transfer8: # @_i.spi_master_if.spi_master._c0.transfer8
.Lfunc_begin1:
	.loc	1 322 0                 # C:/Users/user/workspace/lib_spi/src/spi_sync.xc:322:0
	.cfi_startproc
	.issue_mode dual
# BB#0:                                 # %allocas
	{
		nop
		dualentsp 8
	}
.Ltmp15:
	.cfi_def_cfa_offset 32
.Ltmp16:
	.cfi_offset 15, 0
	std r5, r4, sp[2]               # 4-byte Folded Spill
.Ltmp17:
	.cfi_offset 4, -16
.Ltmp18:
	.cfi_offset 5, -12
.Ltmp19:
	.cfi_offset 6, -8
	#DEBUG_VALUE: _i.spi_master_if.spi_master._c0.transfer8:p <- R0
	#DEBUG_VALUE: _i.spi_master_if.spi_master._c0.transfer8:data <- R1
.Ltmp20:
	#DEBUG_VALUE: _i.spi_master_if.spi_master._c0.transfer8:data <- R3
	{
		mov r3, r1
		stw r6, sp[6]
	}
.Ltmp21:
	{
		nop
		ldw r4, r0[0]
	}
.Ltmp22:
.LBB1_1:                                # %allocas
                                        # =>This Inner Loop Header: Depth=1
	{
		nop
		ldw r0, r4[0]
	}
	bf r0, .LBB1_1
# BB#2:                                 # %ifdone
.Ltmp23:
	#DEBUG_VALUE: _i.spi_master_if.spi_master._c0.transfer8:data <- R3
	{
		ldc r0, 0
		nop
	}
	{
		ldc r0, 56
		stw r0, r4[0]
	}
	.loc	1 323 17 prologue_end   # C:/Users/user/workspace/lib_spi/src/spi_sync.xc:323:17
.Ltmp24:
	{
		add r0, r4, r0
		nop
	}
	{
		nop
		ldw r6, r0[0]
	}
	{
		nop
		ldw r0, r4[8]
	}
	{
		nop
		ldw r1, r4[9]
	}
	.loc	1 324 0                 # C:/Users/user/workspace/lib_spi/src/spi_sync.xc:324:0
	{
		ldc r11, 60
		ldw r2, r4[10]
	}
	{
		add r11, r4, r11
		nop
	}
	{
		nop
		ldw r11, r11[0]
	}
	ldc r5, 64
	{
		add r5, r4, r5
		nop
	}
	{
		nop
		ldw r5, r5[0]
	}
	.loc	1 323 17                # C:/Users/user/workspace/lib_spi/src/spi_sync.xc:323:17
	bf r6, .LBB1_3
.Ltmp25:
# BB#4:                                 # %iffalse25
.Lxtalabel3:
	#DEBUG_VALUE: _i.spi_master_if.spi_master._c0.transfer8:data <- R3
	{
		nop
		stw r5, sp[2]
	}
	{
		nop
		stw r11, sp[1]
	}
	.loc	1 326 0                 # C:/Users/user/workspace/lib_spi/src/spi_sync.xc:326:0
.Lxta.call_labels2:
	bl transfer8_sync_one_clkblk
.Ltmp26:
	bu .LBB1_5
.LBB1_3:                                # %iftrue20
.Lxtalabel4:
.Ltmp27:
	#DEBUG_VALUE: _i.spi_master_if.spi_master._c0.transfer8:data <- R3
	ldc r6, 68
	.loc	1 324 0                 # C:/Users/user/workspace/lib_spi/src/spi_sync.xc:324:0
	{
		add r6, r4, r6
		nop
	}
	{
		nop
		ldw r6, r6[0]
	}
	.loc	1 324 0                 # C:/Users/user/workspace/lib_spi/src/spi_sync.xc:324:0
	std r5, r11, sp[1]
	{
		nop
		stw r6, sp[1]
	}
.Lxta.call_labels3:
	bl transfer8_sync_zero_clkblk
.Ltmp28:
.LBB1_5:                                # %ifdone21
.Lxtalabel5:
	{
		mkmsk r1, 1
		nop
	}
	{
		nop
		stw r1, r4[0]
	}
	{
		nop
		ldw r6, sp[6]
	}
	ldd r5, r4, sp[2]               # 4-byte Folded Reload
	{
		nop
		retsp 8
	}
	# RETURN_REG_HOLDER
	.cc_bottom _i.spi_master_if.spi_master._c0.transfer8.function
	.set	_i.spi_master_if.spi_master._c0.transfer8.nstackwords,((transfer8_sync_zero_clkblk.nstackwords $M transfer8_sync_one_clkblk.nstackwords) + 8)
	.globl	_i.spi_master_if.spi_master._c0.transfer8.nstackwords
	.set	_i.spi_master_if.spi_master._c0.transfer8.maxcores,transfer8_sync_one_clkblk.maxcores $M transfer8_sync_zero_clkblk.maxcores $M 1
	.globl	_i.spi_master_if.spi_master._c0.transfer8.maxcores
	.set	_i.spi_master_if.spi_master._c0.transfer8.maxtimers,transfer8_sync_one_clkblk.maxtimers $M transfer8_sync_zero_clkblk.maxtimers $M 0
	.globl	_i.spi_master_if.spi_master._c0.transfer8.maxtimers
	.set	_i.spi_master_if.spi_master._c0.transfer8.maxchanends,transfer8_sync_one_clkblk.maxchanends $M transfer8_sync_zero_clkblk.maxchanends $M 0
	.globl	_i.spi_master_if.spi_master._c0.transfer8.maxchanends
.Ltmp29:
	.size	_i.spi_master_if.spi_master._c0.transfer8, .Ltmp29-_i.spi_master_if.spi_master._c0.transfer8
.Lfunc_end1:
	.cfi_endproc

	.section	.cp.rodata.cst4,"aMc",@progbits,4
	.cc_top .LCPI2_0.data,.LCPI2_0
	.align	4
	.type	.LCPI2_0,@object
	.size	.LCPI2_0, 4
.LCPI2_0:
	.long	4294901760              # 0xffff0000
	.cc_bottom .LCPI2_0.data
	.text
	.globl	_i.spi_master_if.spi_master._c0.end_transaction
	.align	4
	.type	_i.spi_master_if.spi_master._c0.end_transaction,@function
	.cc_top _i.spi_master_if.spi_master._c0.end_transaction.function,_i.spi_master_if.spi_master._c0.end_transaction
_i.spi_master_if.spi_master._c0.end_transaction: # @_i.spi_master_if.spi_master._c0.end_transaction
.Lfunc_begin2:
	.loc	1 304 0                 # C:/Users/user/workspace/lib_spi/src/spi_sync.xc:304:0
	.cfi_startproc
	.issue_mode dual
# BB#0:                                 # %allocas
	{
		nop
		dualentsp 8
	}
.Ltmp30:
	.cfi_def_cfa_offset 32
.Ltmp31:
	.cfi_offset 15, 0
	std r5, r4, sp[1]               # 4-byte Folded Spill
.Ltmp32:
	.cfi_offset 4, -24
.Ltmp33:
	.cfi_offset 5, -20
	std r7, r6, sp[2]               # 4-byte Folded Spill
.Ltmp34:
	.cfi_offset 6, -16
.Ltmp35:
	.cfi_offset 7, -12
.Ltmp36:
	.cfi_offset 8, -8
	#DEBUG_VALUE: _i.spi_master_if.spi_master._c0.end_transaction:p <- R0
	#DEBUG_VALUE: _i.spi_master_if.spi_master._c0.end_transaction:ss_deassert_time <- R1
.Ltmp37:
	#DEBUG_VALUE: _i.spi_master_if.spi_master._c0.end_transaction:ss_deassert_time <- R4
	{
		mov r4, r1
		stw r8, sp[6]
	}
.Ltmp38:
	{
		nop
		ldw r5, r0[0]
	}
.Ltmp39:
.LBB2_1:                                # %allocas
                                        # =>This Inner Loop Header: Depth=1
	{
		nop
		ldw r0, r5[0]
	}
	bf r0, .LBB2_1
# BB#2:                                 # %ifdone
.Ltmp40:
	#DEBUG_VALUE: _i.spi_master_if.spi_master._c0.end_transaction:ss_deassert_time <- R4
	{
		ldc r0, 0
		nop
	}
	{
		nop
		stw r0, r5[0]
	}
	ldc r0, 76
	.loc	1 306 0 prologue_end    # C:/Users/user/workspace/lib_spi/src/spi_sync.xc:306:0
.Ltmp41:
	{
		add r0, r5, r0
		mkmsk r6, 1
	}
	{
		nop
		stw r6, r0[0]
	}
	.loc	1 309 0                 # C:/Users/user/workspace/lib_spi/src/spi_sync.xc:309:0
.Ltmp42:
	{
		ldc r1, 60
		ldw r0, r5[8]
	}
	.loc	1 309 0                 # C:/Users/user/workspace/lib_spi/src/spi_sync.xc:309:0
	{
		add r1, r5, r1
		nop
	}
	{
		nop
		ldw r1, r1[0]
	}
	.loc	1 309 0                 # C:/Users/user/workspace/lib_spi/src/spi_sync.xc:309:0
.Lxta.endpoint_labels0:
	outpw res[r0], r1, 1
	.loc	1 310 0                 # C:/Users/user/workspace/lib_spi/src/spi_sync.xc:310:0
	{
		syncr res[r0]
		ldw r0, r5[11]
	}
	ldc r1, 72
	.loc	1 311 50                # C:/Users/user/workspace/lib_spi/src/spi_sync.xc:311:50
	{
		add r7, r5, r1
		nop
	}
	{
		nop
		ldw r1, r7[0]
	}
	{
		nop
		ldw r0, r0[r1]
	}
	.loc	1 311 50                # C:/Users/user/workspace/lib_spi/src/spi_sync.xc:311:50
.Lxta.endpoint_labels1:
	{
		out res[r0], r6
		nop
	}
	.loc	1 311 50                # C:/Users/user/workspace/lib_spi/src/spi_sync.xc:311:50
	{
		syncr res[r0]
		nop
	}
.Ltmp43:
	#DEBUG_VALUE: time <- R8
	.loc	1 311 50                # C:/Users/user/workspace/lib_spi/src/spi_sync.xc:311:50
	{
		getts r8, res[r0]
		shr r1, r4, 16
	}
.Ltmp44:
	bf r1, .LBB2_4
.Ltmp45:
# BB#3:                                 # %iftrue29
.Lxtalabel6:
	#DEBUG_VALUE: _i.spi_master_if.spi_master._c0.end_transaction:ss_deassert_time <- R4
	#DEBUG_VALUE: time <- R8
	ldw r0, cp[.LCPI2_0]
	.loc	1 315 0                 # C:/Users/user/workspace/lib_spi/src/spi_sync.xc:315:0
	{
		and r0, r4, r0
		nop
	}
	.loc	1 315 0                 # C:/Users/user/workspace/lib_spi/src/spi_sync.xc:315:0
.Lxta.call_labels4:
	bl delay_ticks
	{
		nop
		ldw r0, r5[11]
	}
	{
		nop
		ldw r1, r7[0]
	}
	{
		nop
		ldw r0, r0[r1]
	}
.Ltmp46:
.LBB2_4:                                # %ifdone30
.Lxtalabel7:
	#DEBUG_VALUE: _i.spi_master_if.spi_master._c0.end_transaction:ss_deassert_time <- R4
	#DEBUG_VALUE: time <- R8
	.loc	1 317 0                 # C:/Users/user/workspace/lib_spi/src/spi_sync.xc:317:0
	{
		add r1, r8, r4
		nop
	}
.Ltmp47:
	#DEBUG_VALUE: time <- R1
	.loc	1 319 50                # C:/Users/user/workspace/lib_spi/src/spi_sync.xc:319:50
	{
		setpt res[r0], r1
		nop
	}
	.loc	1 319 50                # C:/Users/user/workspace/lib_spi/src/spi_sync.xc:319:50
.Lxta.endpoint_labels2:
	{
		out res[r0], r6
		stw r6, r5[0]
	}
	{
		nop
		ldw r8, sp[6]
	}
	ldd r7, r6, sp[2]               # 4-byte Folded Reload
	ldd r5, r4, sp[1]               # 4-byte Folded Reload
.Ltmp48:
	{
		nop
		retsp 8
	}
	# RETURN_REG_HOLDER
.Ltmp49:
	.cc_bottom _i.spi_master_if.spi_master._c0.end_transaction.function
	.set	_i.spi_master_if.spi_master._c0.end_transaction.nstackwords,(delay_ticks.nstackwords + 8)
	.globl	_i.spi_master_if.spi_master._c0.end_transaction.nstackwords
	.set	_i.spi_master_if.spi_master._c0.end_transaction.maxcores,delay_ticks.maxcores $M 1
	.globl	_i.spi_master_if.spi_master._c0.end_transaction.maxcores
	.set	_i.spi_master_if.spi_master._c0.end_transaction.maxtimers,delay_ticks.maxtimers $M 0
	.globl	_i.spi_master_if.spi_master._c0.end_transaction.maxtimers
	.set	_i.spi_master_if.spi_master._c0.end_transaction.maxchanends,delay_ticks.maxchanends $M 0
	.globl	_i.spi_master_if.spi_master._c0.end_transaction.maxchanends
.Ltmp50:
	.size	_i.spi_master_if.spi_master._c0.end_transaction, .Ltmp50-_i.spi_master_if.spi_master._c0.end_transaction
.Lfunc_end2:
	.cfi_endproc

	.section	.cp.rodata.cst4,"aMc",@progbits,4
	.cc_top .LCPI3_0.data,.LCPI3_0
	.align	4
	.type	.LCPI3_0,@object
	.size	.LCPI3_0, 4
.LCPI3_0:
	.long	99999                   # 0x1869f
	.cc_bottom .LCPI3_0.data
	.text
	.globl	_i.spi_master_if.spi_master._c0.begin_transaction
	.align	4
	.type	_i.spi_master_if.spi_master._c0.begin_transaction,@function
	.cc_top _i.spi_master_if.spi_master._c0.begin_transaction.function,_i.spi_master_if.spi_master._c0.begin_transaction
_i.spi_master_if.spi_master._c0.begin_transaction: # @_i.spi_master_if.spi_master._c0.begin_transaction
.Lfunc_begin3:
	.loc	1 269 0                 # C:/Users/user/workspace/lib_spi/src/spi_sync.xc:269:0
	.cfi_startproc
	.issue_mode dual
# BB#0:                                 # %allocas
	{
		nop
		dualentsp 10
	}
.Ltmp51:
	.cfi_def_cfa_offset 40
.Ltmp52:
	.cfi_offset 15, 0
	std r5, r4, sp[1]               # 4-byte Folded Spill
.Ltmp53:
	.cfi_offset 4, -32
.Ltmp54:
	.cfi_offset 5, -28
	std r7, r6, sp[2]               # 4-byte Folded Spill
.Ltmp55:
	.cfi_offset 6, -24
.Ltmp56:
	.cfi_offset 7, -20
	std r9, r8, sp[3]               # 4-byte Folded Spill
.Ltmp57:
	.cfi_offset 8, -16
.Ltmp58:
	.cfi_offset 9, -12
.Ltmp59:
	.cfi_offset 10, -8
	#DEBUG_VALUE: _i.spi_master_if.spi_master._c0.begin_transaction:p <- R0
	#DEBUG_VALUE: _i.spi_master_if.spi_master._c0.begin_transaction:device_index <- R1
	#DEBUG_VALUE: _i.spi_master_if.spi_master._c0.begin_transaction:speed_in_khz <- R2
	#DEBUG_VALUE: _i.spi_master_if.spi_master._c0.begin_transaction:mode <- R3
.Ltmp60:
	#DEBUG_VALUE: _i.spi_master_if.spi_master._c0.begin_transaction:mode <- R6
	{
		mov r6, r3
		stw r10, sp[8]
	}
.Ltmp61:
	#DEBUG_VALUE: _i.spi_master_if.spi_master._c0.begin_transaction:speed_in_khz <- R5
	#DEBUG_VALUE: _i.spi_master_if.spi_master._c0.begin_transaction:device_index <- R4
	{
		mov r5, r2
		mov r4, r1
	}
.Ltmp62:
	{
		nop
		ldw r8, r0[0]
	}
	{
		nop
		ldw r7, r0[1]
	}
.Ltmp63:
.LBB3_1:                                # %allocas
                                        # =>This Inner Loop Header: Depth=1
	{
		nop
		ldw r0, r8[0]
	}
	bf r0, .LBB3_1
# BB#2:                                 # %ifdone
.Ltmp64:
	#DEBUG_VALUE: _i.spi_master_if.spi_master._c0.begin_transaction:device_index <- R4
	#DEBUG_VALUE: _i.spi_master_if.spi_master._c0.begin_transaction:speed_in_khz <- R5
	#DEBUG_VALUE: _i.spi_master_if.spi_master._c0.begin_transaction:mode <- R6
	ldc r0, 76
	{
		add r9, r8, r0
		nop
	}
	bu .LBB3_3
.Ltmp65:
.LBB3_17:                               # %LoopBody25
                                        #   in Loop: Header=BB3_3 Depth=1
	#DEBUG_VALUE: _i.spi_master_if.spi_master._c0.begin_transaction:device_index <- R4
	#DEBUG_VALUE: _i.spi_master_if.spi_master._c0.begin_transaction:speed_in_khz <- R5
	#DEBUG_VALUE: _i.spi_master_if.spi_master._c0.begin_transaction:mode <- R6
	{
		mov r0, r7
		nop
	}
	bl __interface_yield_once
.Ltmp66:
.LBB3_3:                                # %ifdone
                                        # =>This Inner Loop Header: Depth=1
	{
		nop
		ldw r0, r9[0]
	}
	bf r0, .LBB3_17
# BB#4:                                 # %ifdone19
.Lxtalabel8:
.Ltmp67:
	#DEBUG_VALUE: _i.spi_master_if.spi_master._c0.begin_transaction:device_index <- R4
	#DEBUG_VALUE: _i.spi_master_if.spi_master._c0.begin_transaction:speed_in_khz <- R5
	#DEBUG_VALUE: _i.spi_master_if.spi_master._c0.begin_transaction:mode <- R6
	{
		ldc r7, 0
		nop
	}
	{
		ldc r0, 60
		stw r7, r8[0]
	}
.Ltmp68:
	#DEBUG_VALUE: get_mode_bits:mode <- R6
	#DEBUG_VALUE: get_mode_bits:cpha <- R1
	#DEBUG_VALUE: get_mode_bits:cpol <- R0
	.loc	1 272 0 prologue_end    # C:/Users/user/workspace/lib_spi/src/spi_sync.xc:272:0
	{
		add r0, r8, r0
		mkmsk r1, 2
	}
.Ltmp69:
	.loc	1 226 0                 # C:/Users/user/workspace/lib_spi/src/spi_sync.xc:226:0
	{
		lsu r1, r1, r6
		nop
	}
	bt r1, .LBB3_11
.Ltmp70:
# BB#5:                                 # %ifdone19
.Lxtalabel9:
	#DEBUG_VALUE: _i.spi_master_if.spi_master._c0.begin_transaction:device_index <- R4
	#DEBUG_VALUE: _i.spi_master_if.spi_master._c0.begin_transaction:speed_in_khz <- R5
	#DEBUG_VALUE: _i.spi_master_if.spi_master._c0.begin_transaction:mode <- R6
	ldc r1, 64
	.loc	1 272 0                 # C:/Users/user/workspace/lib_spi/src/spi_sync.xc:272:0
	{
		add r1, r8, r1
		nop
	}

	.xtabranch .Ljumptable0+4,.Ljumptable0+8,.Ljumptable0+12,.Ljumptable0+16
.Ljumptable0:
		
	{
		nop
		bru r6
	}
	.jmptable32 .LBB3_6,.LBB3_7,.LBB3_8,.LBB3_9
.Ltmp71:
.LBB3_6:                                # %switchcase.i
.Lxtalabel10:
	#DEBUG_VALUE: _i.spi_master_if.spi_master._c0.begin_transaction:device_index <- R4
	#DEBUG_VALUE: _i.spi_master_if.spi_master._c0.begin_transaction:speed_in_khz <- R5
	.loc	1 227 0                 # C:/Users/user/workspace/lib_spi/src/spi_sync.xc:227:0
	{
		mkmsk r2, 1
		stw r7, r0[0]
	}
	bu .LBB3_10
.Ltmp72:
.LBB3_7:                                # %switchcase1.i
.Lxtalabel11:
	#DEBUG_VALUE: _i.spi_master_if.spi_master._c0.begin_transaction:device_index <- R4
	#DEBUG_VALUE: _i.spi_master_if.spi_master._c0.begin_transaction:speed_in_khz <- R5
	{
		nop
		stw r7, r0[0]
	}
	{
		nop
		stw r7, r1[0]
	}
	bu .LBB3_11
.Ltmp73:
.LBB3_8:                                # %switchcase2.i
.Lxtalabel12:
	#DEBUG_VALUE: _i.spi_master_if.spi_master._c0.begin_transaction:device_index <- R4
	#DEBUG_VALUE: _i.spi_master_if.spi_master._c0.begin_transaction:speed_in_khz <- R5
	{
		mkmsk r2, 1
		nop
	}
	{
		nop
		stw r2, r0[0]
	}
	{
		nop
		stw r7, r1[0]
	}
	bu .LBB3_11
.Ltmp74:
.LBB3_9:                                # %switchcase6.i
.Lxtalabel13:
	#DEBUG_VALUE: _i.spi_master_if.spi_master._c0.begin_transaction:device_index <- R4
	#DEBUG_VALUE: _i.spi_master_if.spi_master._c0.begin_transaction:speed_in_khz <- R5
	{
		mkmsk r2, 1
		nop
	}
	{
		nop
		stw r2, r0[0]
	}
.Ltmp75:
.LBB3_10:                               # %get_mode_bits.exit
.Lxtalabel14:
	{
		nop
		stw r2, r1[0]
	}
.LBB3_11:                               # %get_mode_bits.exit
.Lxtalabel15:
.Ltmp76:
	#DEBUG_VALUE: _i.spi_master_if.spi_master._c0.begin_transaction:device_index <- R4
	#DEBUG_VALUE: _i.spi_master_if.spi_master._c0.begin_transaction:speed_in_khz <- R5
	{
		nop
		ldw r1, r8[8]
	}
	.loc	1 276 0                 # C:/Users/user/workspace/lib_spi/src/spi_sync.xc:276:0
	{
		syncr res[r1]
		nop
	}
	ldc r2, 72
	.loc	1 278 17                # C:/Users/user/workspace/lib_spi/src/spi_sync.xc:278:17
	{
		add r6, r8, r2
		nop
	}
	{
		nop
		ldw r2, r6[0]
	}
	.loc	1 278 17                # C:/Users/user/workspace/lib_spi/src/spi_sync.xc:278:17
	{
		eq r2, r2, r4
		nop
	}
	bf r2, .LBB3_13
.Ltmp77:
# BB#12:                                # %iftrue37
.Lxtalabel16:
	#DEBUG_VALUE: _i.spi_master_if.spi_master._c0.begin_transaction:device_index <- R4
	#DEBUG_VALUE: _i.spi_master_if.spi_master._c0.begin_transaction:speed_in_khz <- R5
	{
		nop
		ldw r2, r8[11]
	}
	{
		nop
		ldw r2, r2[r4]
	}
	.loc	1 279 0                 # C:/Users/user/workspace/lib_spi/src/spi_sync.xc:279:0
	{
		syncr res[r2]
		nop
	}
.Ltmp78:
.LBB3_13:                               # %ifdone38
.Lxtalabel17:
	#DEBUG_VALUE: _i.spi_master_if.spi_master._c0.begin_transaction:device_index <- R4
	#DEBUG_VALUE: _i.spi_master_if.spi_master._c0.begin_transaction:speed_in_khz <- R5
	{
		nop
		ldw r0, r0[0]
	}
	.loc	1 282 0                 # C:/Users/user/workspace/lib_spi/src/spi_sync.xc:282:0
.Lxta.endpoint_labels3:
	outpw res[r1], r0, 1
	.loc	1 283 0                 # C:/Users/user/workspace/lib_spi/src/spi_sync.xc:283:0
	{
		syncr res[r1]
		ldc r0, 56
	}
	.loc	1 285 17                # C:/Users/user/workspace/lib_spi/src/spi_sync.xc:285:17
	{
		add r10, r8, r0
		nop
	}
	{
		nop
		ldw r0, r10[0]
	}
	.loc	1 285 17                # C:/Users/user/workspace/lib_spi/src/spi_sync.xc:285:17
	bf r0, .LBB3_14
.Ltmp79:
# BB#16:                                # %afternullcheck76
.Lxtalabel18:
	#DEBUG_VALUE: _i.spi_master_if.spi_master._c0.begin_transaction:device_index <- R4
	#DEBUG_VALUE: _i.spi_master_if.spi_master._c0.begin_transaction:speed_in_khz <- R5
	.loc	1 290 0                 # C:/Users/user/workspace/lib_spi/src/spi_sync.xc:290:0
	{
		setc res[r0], 7
		shl r1, r5, 2
	}
	ldw r2, cp[.LCPI3_0]
	.loc	1 291 0                 # C:/Users/user/workspace/lib_spi/src/spi_sync.xc:291:0
.Ltmp80:
	ldaw r2, r2[r5]
	.loc	1 291 0                 # C:/Users/user/workspace/lib_spi/src/spi_sync.xc:291:0
	divu r1, r2, r1
.Ltmp81:
	#DEBUG_VALUE: d <- R1
	.loc	1 292 0                 # C:/Users/user/workspace/lib_spi/src/spi_sync.xc:292:0
	{
		zext r1, 8
		nop
	}
.Ltmp82:
.Lxta.call_labels5:
	bl configure_clock_ref
	{
		nop
		ldw r0, r10[0]
	}
.Ltrap_info0:
	{
		ecallf r0
		nop
	}
	#DEBUG_VALUE: _i.spi_master_if.spi_master._c0.begin_transaction:device_index <- R4
	.loc	1 293 0                 # C:/Users/user/workspace/lib_spi/src/spi_sync.xc:293:0
	{
		setc res[r0], 15
		nop
	}
	bu .LBB3_15
.Ltmp83:
.LBB3_14:                               # %iftrue53
.Lxtalabel19:
	#DEBUG_VALUE: _i.spi_master_if.spi_master._c0.begin_transaction:device_index <- R4
	#DEBUG_VALUE: _i.spi_master_if.spi_master._c0.begin_transaction:speed_in_khz <- R5
	ldc r0, 68
	.loc	1 287 0                 # C:/Users/user/workspace/lib_spi/src/spi_sync.xc:287:0
	{
		add r0, r8, r0
		nop
	}
	ldw r1, cp[.LCPI3_0]
	.loc	1 287 0                 # C:/Users/user/workspace/lib_spi/src/spi_sync.xc:287:0
	{
		add r1, r5, r1
		nop
	}
	.loc	1 287 0                 # C:/Users/user/workspace/lib_spi/src/spi_sync.xc:287:0
	divu r1, r1, r5
	{
		nop
		stw r1, r0[0]
	}
.Ltmp84:
.LBB3_15:                               # %ifdone54
.Lxtalabel20:
	#DEBUG_VALUE: _i.spi_master_if.spi_master._c0.begin_transaction:device_index <- R4
	{
		nop
		stw r7, r9[0]
	}
	{
		nop
		stw r4, r6[0]
	}
	{
		nop
		ldw r0, r8[11]
	}
	{
		nop
		ldw r0, r0[r4]
	}
	.loc	1 301 43                # C:/Users/user/workspace/lib_spi/src/spi_sync.xc:301:43
.Lxta.endpoint_labels4:
	{
		out res[r0], r7
		mkmsk r0, 1
	}
	{
		nop
		stw r0, r8[0]
	}
	{
		nop
		ldw r10, sp[8]
	}
	ldd r9, r8, sp[3]               # 4-byte Folded Reload
	ldd r7, r6, sp[2]               # 4-byte Folded Reload
	ldd r5, r4, sp[1]               # 4-byte Folded Reload
.Ltmp85:
	{
		nop
		retsp 10
	}
	# RETURN_REG_HOLDER
.Ltmp86:
	.cc_bottom _i.spi_master_if.spi_master._c0.begin_transaction.function
	.set	_i.spi_master_if.spi_master._c0.begin_transaction.nstackwords,((_i.spi_master_if._client_call_y.max.nstackwords $M ($D __interface_yield_once.nstackwords ? __interface_yield_once.nstackwords $: _i.spi_master_if._client_call_y.max.nstackwords) $M configure_clock_ref.nstackwords) + 10)
	.globl	_i.spi_master_if.spi_master._c0.begin_transaction.nstackwords
	.set	_i.spi_master_if.spi_master._c0.begin_transaction.maxcores,($D __interface_yield_once.maxcores ? __interface_yield_once.maxcores $: _i.spi_master_if._client_call_y.max.maxcores) $M configure_clock_ref.maxcores $M 1
	.globl	_i.spi_master_if.spi_master._c0.begin_transaction.maxcores
	.set	_i.spi_master_if.spi_master._c0.begin_transaction.maxtimers,($D __interface_yield_once.maxtimers ? __interface_yield_once.maxtimers $: _i.spi_master_if._client_call_y.max.maxtimers) $M configure_clock_ref.maxtimers $M 0
	.globl	_i.spi_master_if.spi_master._c0.begin_transaction.maxtimers
	.set	_i.spi_master_if.spi_master._c0.begin_transaction.maxchanends,($D __interface_yield_once.maxchanends ? __interface_yield_once.maxchanends $: _i.spi_master_if._client_call_y.max.maxchanends) $M configure_clock_ref.maxchanends $M 0
	.globl	_i.spi_master_if.spi_master._c0.begin_transaction.maxchanends
.Ltmp87:
	.size	_i.spi_master_if.spi_master._c0.begin_transaction, .Ltmp87-_i.spi_master_if.spi_master._c0.begin_transaction
.Lfunc_end3:
	.cfi_endproc

	.globl	_i.spi_master_if.spi_master.0.transfer32
	.align	4
	.type	_i.spi_master_if.spi_master.0.transfer32,@function
	.cc_top _i.spi_master_if.spi_master.0.transfer32.function,_i.spi_master_if.spi_master.0.transfer32
_i.spi_master_if.spi_master.0.transfer32: # @_i.spi_master_if.spi_master.0.transfer32
.Lfunc_begin4:
	.loc	1 330 0                 # C:/Users/user/workspace/lib_spi/src/spi_sync.xc:330:0
	.cfi_startproc
	.issue_mode dual
# BB#0:                                 # %allocas
	{
		nop
		dualentsp 8
	}
.Ltmp88:
	.cfi_def_cfa_offset 32
.Ltmp89:
	.cfi_offset 15, 0
	std r5, r4, sp[2]               # 4-byte Folded Spill
.Ltmp90:
	.cfi_offset 4, -16
.Ltmp91:
	.cfi_offset 5, -12
	std r7, r6, sp[3]               # 4-byte Folded Spill
.Ltmp92:
	.cfi_offset 6, -8
.Ltmp93:
	.cfi_offset 7, -4
	#DEBUG_VALUE: _i.spi_master_if.spi_master.0.transfer32:p <- R0
	#DEBUG_VALUE: _i.spi_master_if.spi_master.0.transfer32:data <- R1
.Ltmp94:
	#DEBUG_VALUE: _i.spi_master_if.spi_master.0.transfer32:data <- R5
	{
		mov r5, r1
		ldw r6, r0[0]
	}
.Ltmp95:
	{
		add r4, r6, 8
		nop
	}
	{
		mov r0, r4
		nop
	}
.Ltmp96:
	bl __lock_fair_acquire
	{
		ldc r0, 56
		nop
	}
	.loc	1 331 17 prologue_end   # C:/Users/user/workspace/lib_spi/src/spi_sync.xc:331:17
.Ltmp97:
	{
		add r0, r6, r0
		nop
	}
	{
		nop
		ldw r7, r0[0]
	}
	{
		nop
		ldw r0, r6[8]
	}
	{
		nop
		ldw r1, r6[9]
	}
	.loc	1 332 0                 # C:/Users/user/workspace/lib_spi/src/spi_sync.xc:332:0
	{
		ldc r3, 60
		ldw r2, r6[10]
	}
	{
		add r3, r6, r3
		nop
	}
	{
		nop
		ldw r3, r3[0]
	}
	ldc r11, 64
	{
		add r11, r6, r11
		nop
	}
	{
		nop
		ldw r11, r11[0]
	}
	.loc	1 331 17                # C:/Users/user/workspace/lib_spi/src/spi_sync.xc:331:17
	bf r7, .LBB4_1
# BB#3:                                 # %iffalse
.Lxtalabel21:
.Ltmp98:
	#DEBUG_VALUE: _i.spi_master_if.spi_master.0.transfer32:data <- R5
	{
		nop
		stw r11, sp[2]
	}
	.loc	1 334 0                 # C:/Users/user/workspace/lib_spi/src/spi_sync.xc:334:0
	{
		mov r3, r5
		stw r3, sp[1]
	}
.Lxta.call_labels6:
	bl transfer32_sync_one_clkblk
	bu .LBB4_2
.Ltmp99:
.LBB4_1:                                # %iftrue
.Lxtalabel22:
	#DEBUG_VALUE: _i.spi_master_if.spi_master.0.transfer32:data <- R5
	ldc r7, 68
	.loc	1 332 0                 # C:/Users/user/workspace/lib_spi/src/spi_sync.xc:332:0
	{
		add r7, r6, r7
		nop
	}
	{
		nop
		ldw r7, r7[0]
	}
	.loc	1 332 0                 # C:/Users/user/workspace/lib_spi/src/spi_sync.xc:332:0
	std r11, r3, sp[1]
	{
		mov r3, r5
		stw r7, sp[1]
	}
.Lxta.call_labels7:
	bl transfer32_sync_zero_clkblk
.Ltmp100:
.LBB4_2:                                # %ifdone
.Lxtalabel23:
	{
		clre
		mov r5, r0
	}
	{
		mov r0, r4
		nop
	}
	bl __lock_fair_release
	{
		nop
		ldw r0, r6[4]
	}
	{
		add r0, r0, 1
		nop
	}
	{
		mov r0, r5
		stw r0, r6[4]
	}
	ldd r7, r6, sp[3]               # 4-byte Folded Reload
	ldd r5, r4, sp[2]               # 4-byte Folded Reload
	{
		nop
		retsp 8
	}
	# RETURN_REG_HOLDER
.Ltmp101:
	.cc_bottom _i.spi_master_if.spi_master.0.transfer32.function
	.set	_i.spi_master_if.spi_master.0.transfer32.nstackwords,((__lock_fair_acquire.nstackwords $M transfer32_sync_zero_clkblk.nstackwords $M __lock_fair_release.nstackwords $M transfer32_sync_one_clkblk.nstackwords) + 8)
	.globl	_i.spi_master_if.spi_master.0.transfer32.nstackwords
	.set	_i.spi_master_if.spi_master.0.transfer32.maxcores,__lock_fair_acquire.maxcores $M __lock_fair_release.maxcores $M transfer32_sync_one_clkblk.maxcores $M transfer32_sync_zero_clkblk.maxcores $M 1
	.globl	_i.spi_master_if.spi_master.0.transfer32.maxcores
	.set	_i.spi_master_if.spi_master.0.transfer32.maxtimers,__lock_fair_acquire.maxtimers $M __lock_fair_release.maxtimers $M transfer32_sync_one_clkblk.maxtimers $M transfer32_sync_zero_clkblk.maxtimers $M 0
	.globl	_i.spi_master_if.spi_master.0.transfer32.maxtimers
	.set	_i.spi_master_if.spi_master.0.transfer32.maxchanends,__lock_fair_acquire.maxchanends $M __lock_fair_release.maxchanends $M transfer32_sync_one_clkblk.maxchanends $M transfer32_sync_zero_clkblk.maxchanends $M 0
	.globl	_i.spi_master_if.spi_master.0.transfer32.maxchanends
.Ltmp102:
	.size	_i.spi_master_if.spi_master.0.transfer32, .Ltmp102-_i.spi_master_if.spi_master.0.transfer32
.Lfunc_end4:
	.cfi_endproc

	.globl	_i.spi_master_if.spi_master.0.transfer8
	.align	4
	.type	_i.spi_master_if.spi_master.0.transfer8,@function
	.cc_top _i.spi_master_if.spi_master.0.transfer8.function,_i.spi_master_if.spi_master.0.transfer8
_i.spi_master_if.spi_master.0.transfer8: # @_i.spi_master_if.spi_master.0.transfer8
.Lfunc_begin5:
	.loc	1 322 0                 # C:/Users/user/workspace/lib_spi/src/spi_sync.xc:322:0
	.cfi_startproc
	.issue_mode dual
# BB#0:                                 # %allocas
	{
		nop
		dualentsp 8
	}
.Ltmp103:
	.cfi_def_cfa_offset 32
.Ltmp104:
	.cfi_offset 15, 0
	std r5, r4, sp[2]               # 4-byte Folded Spill
.Ltmp105:
	.cfi_offset 4, -16
.Ltmp106:
	.cfi_offset 5, -12
	std r7, r6, sp[3]               # 4-byte Folded Spill
.Ltmp107:
	.cfi_offset 6, -8
.Ltmp108:
	.cfi_offset 7, -4
	#DEBUG_VALUE: _i.spi_master_if.spi_master.0.transfer8:p <- R0
	#DEBUG_VALUE: _i.spi_master_if.spi_master.0.transfer8:data <- R1
.Ltmp109:
	#DEBUG_VALUE: _i.spi_master_if.spi_master.0.transfer8:data <- R5
	{
		mov r5, r1
		ldw r6, r0[0]
	}
.Ltmp110:
	{
		add r4, r6, 8
		nop
	}
	{
		mov r0, r4
		nop
	}
.Ltmp111:
	bl __lock_fair_acquire
	{
		ldc r0, 56
		nop
	}
	.loc	1 323 17 prologue_end   # C:/Users/user/workspace/lib_spi/src/spi_sync.xc:323:17
.Ltmp112:
	{
		add r0, r6, r0
		nop
	}
	{
		nop
		ldw r7, r0[0]
	}
	{
		nop
		ldw r0, r6[8]
	}
	{
		nop
		ldw r1, r6[9]
	}
	.loc	1 324 0                 # C:/Users/user/workspace/lib_spi/src/spi_sync.xc:324:0
	{
		ldc r3, 60
		ldw r2, r6[10]
	}
	{
		add r3, r6, r3
		nop
	}
	{
		nop
		ldw r3, r3[0]
	}
	ldc r11, 64
	{
		add r11, r6, r11
		nop
	}
	{
		nop
		ldw r11, r11[0]
	}
	.loc	1 323 17                # C:/Users/user/workspace/lib_spi/src/spi_sync.xc:323:17
	bf r7, .LBB5_1
# BB#3:                                 # %iffalse
.Lxtalabel24:
.Ltmp113:
	#DEBUG_VALUE: _i.spi_master_if.spi_master.0.transfer8:data <- R5
	{
		nop
		stw r11, sp[2]
	}
	.loc	1 326 0                 # C:/Users/user/workspace/lib_spi/src/spi_sync.xc:326:0
	{
		mov r3, r5
		stw r3, sp[1]
	}
.Lxta.call_labels8:
	bl transfer8_sync_one_clkblk
	bu .LBB5_2
.Ltmp114:
.LBB5_1:                                # %iftrue
.Lxtalabel25:
	#DEBUG_VALUE: _i.spi_master_if.spi_master.0.transfer8:data <- R5
	ldc r7, 68
	.loc	1 324 0                 # C:/Users/user/workspace/lib_spi/src/spi_sync.xc:324:0
	{
		add r7, r6, r7
		nop
	}
	{
		nop
		ldw r7, r7[0]
	}
	.loc	1 324 0                 # C:/Users/user/workspace/lib_spi/src/spi_sync.xc:324:0
	std r11, r3, sp[1]
	{
		mov r3, r5
		stw r7, sp[1]
	}
.Lxta.call_labels9:
	bl transfer8_sync_zero_clkblk
.Ltmp115:
.LBB5_2:                                # %ifdone
.Lxtalabel26:
	{
		clre
		mov r5, r0
	}
	{
		mov r0, r4
		nop
	}
	bl __lock_fair_release
	{
		nop
		ldw r0, r6[4]
	}
	{
		add r0, r0, 1
		nop
	}
	{
		mov r0, r5
		stw r0, r6[4]
	}
	ldd r7, r6, sp[3]               # 4-byte Folded Reload
	ldd r5, r4, sp[2]               # 4-byte Folded Reload
	{
		nop
		retsp 8
	}
	# RETURN_REG_HOLDER
.Ltmp116:
	.cc_bottom _i.spi_master_if.spi_master.0.transfer8.function
	.set	_i.spi_master_if.spi_master.0.transfer8.nstackwords,((__lock_fair_acquire.nstackwords $M transfer8_sync_zero_clkblk.nstackwords $M __lock_fair_release.nstackwords $M transfer8_sync_one_clkblk.nstackwords) + 8)
	.globl	_i.spi_master_if.spi_master.0.transfer8.nstackwords
	.set	_i.spi_master_if.spi_master.0.transfer8.maxcores,__lock_fair_acquire.maxcores $M __lock_fair_release.maxcores $M transfer8_sync_one_clkblk.maxcores $M transfer8_sync_zero_clkblk.maxcores $M 1
	.globl	_i.spi_master_if.spi_master.0.transfer8.maxcores
	.set	_i.spi_master_if.spi_master.0.transfer8.maxtimers,__lock_fair_acquire.maxtimers $M __lock_fair_release.maxtimers $M transfer8_sync_one_clkblk.maxtimers $M transfer8_sync_zero_clkblk.maxtimers $M 0
	.globl	_i.spi_master_if.spi_master.0.transfer8.maxtimers
	.set	_i.spi_master_if.spi_master.0.transfer8.maxchanends,__lock_fair_acquire.maxchanends $M __lock_fair_release.maxchanends $M transfer8_sync_one_clkblk.maxchanends $M transfer8_sync_zero_clkblk.maxchanends $M 0
	.globl	_i.spi_master_if.spi_master.0.transfer8.maxchanends
.Ltmp117:
	.size	_i.spi_master_if.spi_master.0.transfer8, .Ltmp117-_i.spi_master_if.spi_master.0.transfer8
.Lfunc_end5:
	.cfi_endproc

	.section	.cp.rodata.cst4,"aMc",@progbits,4
	.cc_top .LCPI6_0.data,.LCPI6_0
	.align	4
	.type	.LCPI6_0,@object
	.size	.LCPI6_0, 4
.LCPI6_0:
	.long	4294901760              # 0xffff0000
	.cc_bottom .LCPI6_0.data
	.text
	.globl	_i.spi_master_if.spi_master.0.end_transaction
	.align	4
	.type	_i.spi_master_if.spi_master.0.end_transaction,@function
	.cc_top _i.spi_master_if.spi_master.0.end_transaction.function,_i.spi_master_if.spi_master.0.end_transaction
_i.spi_master_if.spi_master.0.end_transaction: # @_i.spi_master_if.spi_master.0.end_transaction
.Lfunc_begin6:
	.loc	1 304 0                 # C:/Users/user/workspace/lib_spi/src/spi_sync.xc:304:0
	.cfi_startproc
	.issue_mode dual
# BB#0:                                 # %allocas
	{
		nop
		dualentsp 8
	}
.Ltmp118:
	.cfi_def_cfa_offset 32
.Ltmp119:
	.cfi_offset 15, 0
	std r5, r4, sp[1]               # 4-byte Folded Spill
.Ltmp120:
	.cfi_offset 4, -24
.Ltmp121:
	.cfi_offset 5, -20
	std r7, r6, sp[2]               # 4-byte Folded Spill
.Ltmp122:
	.cfi_offset 6, -16
.Ltmp123:
	.cfi_offset 7, -12
	std r9, r8, sp[3]               # 4-byte Folded Spill
.Ltmp124:
	.cfi_offset 8, -8
.Ltmp125:
	.cfi_offset 9, -4
	#DEBUG_VALUE: _i.spi_master_if.spi_master.0.end_transaction:p <- R0
	#DEBUG_VALUE: _i.spi_master_if.spi_master.0.end_transaction:ss_deassert_time <- R1
.Ltmp126:
	#DEBUG_VALUE: _i.spi_master_if.spi_master.0.end_transaction:ss_deassert_time <- R5
	{
		mov r5, r1
		ldw r6, r0[0]
	}
.Ltmp127:
	{
		add r4, r6, 8
		nop
	}
	{
		mov r0, r4
		nop
	}
.Ltmp128:
	bl __lock_fair_acquire
	ldc r0, 76
	.loc	1 306 0 prologue_end    # C:/Users/user/workspace/lib_spi/src/spi_sync.xc:306:0
.Ltmp129:
	{
		add r0, r6, r0
		mkmsk r7, 1
	}
	{
		nop
		stw r7, r0[0]
	}
	.loc	1 309 0                 # C:/Users/user/workspace/lib_spi/src/spi_sync.xc:309:0
.Ltmp130:
	{
		ldc r1, 60
		ldw r0, r6[8]
	}
	.loc	1 309 0                 # C:/Users/user/workspace/lib_spi/src/spi_sync.xc:309:0
	{
		add r1, r6, r1
		nop
	}
	{
		nop
		ldw r1, r1[0]
	}
	.loc	1 309 0                 # C:/Users/user/workspace/lib_spi/src/spi_sync.xc:309:0
.Lxta.endpoint_labels5:
	outpw res[r0], r1, 1
	.loc	1 310 0                 # C:/Users/user/workspace/lib_spi/src/spi_sync.xc:310:0
	{
		syncr res[r0]
		ldw r0, r6[11]
	}
	ldc r1, 72
	.loc	1 311 50                # C:/Users/user/workspace/lib_spi/src/spi_sync.xc:311:50
	{
		add r8, r6, r1
		nop
	}
	{
		nop
		ldw r1, r8[0]
	}
	{
		nop
		ldw r0, r0[r1]
	}
	.loc	1 311 50                # C:/Users/user/workspace/lib_spi/src/spi_sync.xc:311:50
.Lxta.endpoint_labels6:
	{
		out res[r0], r7
		nop
	}
	.loc	1 311 50                # C:/Users/user/workspace/lib_spi/src/spi_sync.xc:311:50
	{
		syncr res[r0]
		nop
	}
.Ltmp131:
	#DEBUG_VALUE: time <- R9
	.loc	1 311 50                # C:/Users/user/workspace/lib_spi/src/spi_sync.xc:311:50
	{
		getts r9, res[r0]
		shr r1, r5, 16
	}
.Ltmp132:
	bf r1, .LBB6_2
# BB#1:                                 # %iftrue
.Lxtalabel27:
.Ltmp133:
	#DEBUG_VALUE: _i.spi_master_if.spi_master.0.end_transaction:ss_deassert_time <- R5
	#DEBUG_VALUE: time <- R9
	ldw r0, cp[.LCPI6_0]
	.loc	1 315 0                 # C:/Users/user/workspace/lib_spi/src/spi_sync.xc:315:0
	{
		and r0, r5, r0
		nop
	}
	.loc	1 315 0                 # C:/Users/user/workspace/lib_spi/src/spi_sync.xc:315:0
.Lxta.call_labels10:
	bl delay_ticks
	{
		nop
		ldw r0, r6[11]
	}
	{
		nop
		ldw r1, r8[0]
	}
	{
		nop
		ldw r0, r0[r1]
	}
.Ltmp134:
.LBB6_2:                                # %ifdone
.Lxtalabel28:
	#DEBUG_VALUE: _i.spi_master_if.spi_master.0.end_transaction:ss_deassert_time <- R5
	#DEBUG_VALUE: time <- R9
	.loc	1 317 0                 # C:/Users/user/workspace/lib_spi/src/spi_sync.xc:317:0
	{
		add r1, r9, r5
		nop
	}
.Ltmp135:
	#DEBUG_VALUE: time <- R1
	.loc	1 319 50                # C:/Users/user/workspace/lib_spi/src/spi_sync.xc:319:50
	{
		setpt res[r0], r1
		nop
	}
	.loc	1 319 50                # C:/Users/user/workspace/lib_spi/src/spi_sync.xc:319:50
.Lxta.endpoint_labels7:
	{
		out res[r0], r7
		nop
	}
	{
		clre
		mov r0, r4
	}
	bl __lock_fair_release
.Ltmp136:
	{
		nop
		ldw r0, r6[4]
	}
	{
		add r0, r0, 1
		nop
	}
	{
		nop
		stw r0, r6[4]
	}
	ldd r9, r8, sp[3]               # 4-byte Folded Reload
	ldd r7, r6, sp[2]               # 4-byte Folded Reload
	ldd r5, r4, sp[1]               # 4-byte Folded Reload
.Ltmp137:
	{
		nop
		retsp 8
	}
	# RETURN_REG_HOLDER
.Ltmp138:
	.cc_bottom _i.spi_master_if.spi_master.0.end_transaction.function
	.set	_i.spi_master_if.spi_master.0.end_transaction.nstackwords,((__lock_fair_acquire.nstackwords $M delay_ticks.nstackwords $M __lock_fair_release.nstackwords) + 8)
	.globl	_i.spi_master_if.spi_master.0.end_transaction.nstackwords
	.set	_i.spi_master_if.spi_master.0.end_transaction.maxcores,__lock_fair_acquire.maxcores $M __lock_fair_release.maxcores $M delay_ticks.maxcores $M 1
	.globl	_i.spi_master_if.spi_master.0.end_transaction.maxcores
	.set	_i.spi_master_if.spi_master.0.end_transaction.maxtimers,__lock_fair_acquire.maxtimers $M __lock_fair_release.maxtimers $M delay_ticks.maxtimers $M 0
	.globl	_i.spi_master_if.spi_master.0.end_transaction.maxtimers
	.set	_i.spi_master_if.spi_master.0.end_transaction.maxchanends,__lock_fair_acquire.maxchanends $M __lock_fair_release.maxchanends $M delay_ticks.maxchanends $M 0
	.globl	_i.spi_master_if.spi_master.0.end_transaction.maxchanends
.Ltmp139:
	.size	_i.spi_master_if.spi_master.0.end_transaction, .Ltmp139-_i.spi_master_if.spi_master.0.end_transaction
.Lfunc_end6:
	.cfi_endproc

	.section	.cp.rodata.cst4,"aMc",@progbits,4
	.cc_top .LCPI7_0.data,.LCPI7_0
	.align	4
	.type	.LCPI7_0,@object
	.size	.LCPI7_0, 4
.LCPI7_0:
	.long	99999                   # 0x1869f
	.cc_bottom .LCPI7_0.data
	.text
	.globl	_i.spi_master_if.spi_master.0.begin_transaction
	.align	4
	.type	_i.spi_master_if.spi_master.0.begin_transaction,@function
	.cc_top _i.spi_master_if.spi_master.0.begin_transaction.function,_i.spi_master_if.spi_master.0.begin_transaction
_i.spi_master_if.spi_master.0.begin_transaction: # @_i.spi_master_if.spi_master.0.begin_transaction
.Lfunc_begin7:
	.loc	1 269 0                 # C:/Users/user/workspace/lib_spi/src/spi_sync.xc:269:0
	.cfi_startproc
	.issue_mode dual
# BB#0:                                 # %allocas
	{
		nop
		dualentsp 10
	}
.Ltmp140:
	.cfi_def_cfa_offset 40
.Ltmp141:
	.cfi_offset 15, 0
	std r5, r4, sp[1]               # 4-byte Folded Spill
.Ltmp142:
	.cfi_offset 4, -32
.Ltmp143:
	.cfi_offset 5, -28
	std r7, r6, sp[2]               # 4-byte Folded Spill
.Ltmp144:
	.cfi_offset 6, -24
.Ltmp145:
	.cfi_offset 7, -20
	std r9, r8, sp[3]               # 4-byte Folded Spill
.Ltmp146:
	.cfi_offset 8, -16
.Ltmp147:
	.cfi_offset 9, -12
.Ltmp148:
	.cfi_offset 10, -8
	#DEBUG_VALUE: _i.spi_master_if.spi_master.0.begin_transaction:p <- R0
	#DEBUG_VALUE: _i.spi_master_if.spi_master.0.begin_transaction:device_index <- R1
	#DEBUG_VALUE: _i.spi_master_if.spi_master.0.begin_transaction:speed_in_khz <- R2
	#DEBUG_VALUE: _i.spi_master_if.spi_master.0.begin_transaction:mode <- R3
.Ltmp149:
	#DEBUG_VALUE: _i.spi_master_if.spi_master.0.begin_transaction:mode <- R7
	{
		mov r7, r3
		stw r10, sp[8]
	}
.Ltmp150:
	#DEBUG_VALUE: _i.spi_master_if.spi_master.0.begin_transaction:speed_in_khz <- [SP+4]
	#DEBUG_VALUE: _i.spi_master_if.spi_master.0.begin_transaction:device_index <- R5
	{
		mov r5, r1
		stw r2, sp[1]
	}
.Ltmp151:
	{
		nop
		ldw r10, r0[0]
	}
	{
		add r4, r10, 8
		nop
	}
	{
		mov r0, r4
		nop
	}
.Ltmp152:
	bl __lock_fair_acquire
	ldc r0, 76
	{
		add r6, r10, r0
		nop
	}
	{
		nop
		ldw r0, r6[0]
	}
	bt r0, .LBB7_1
.Ltmp153:
# BB#14:                                # %iffalse
	#DEBUG_VALUE: _i.spi_master_if.spi_master.0.begin_transaction:device_index <- R5
	#DEBUG_VALUE: _i.spi_master_if.spi_master.0.begin_transaction:speed_in_khz <- [SP+4]
	#DEBUG_VALUE: _i.spi_master_if.spi_master.0.begin_transaction:mode <- R7
	ldaw r8, r10[4]
.Ltmp154:
.LBB7_15:                               # %LoopBody
                                        # =>This Inner Loop Header: Depth=1
	#DEBUG_VALUE: _i.spi_master_if.spi_master.0.begin_transaction:device_index <- R5
	#DEBUG_VALUE: _i.spi_master_if.spi_master.0.begin_transaction:speed_in_khz <- [SP+4]
	#DEBUG_VALUE: _i.spi_master_if.spi_master.0.begin_transaction:mode <- R7
	{
		mov r0, r4
		ldw r9, r8[0]
	}
	bl __lock_fair_release
	{
		mov r0, r8
		mov r1, r9
	}
	bl __wait_until_gt
	{
		mov r0, r4
		nop
	}
	bl __lock_fair_acquire
	{
		nop
		ldw r0, r6[0]
	}
	bf r0, .LBB7_15
.Ltmp155:
.LBB7_1:                                # %ifdone
.Lxtalabel29:
	#DEBUG_VALUE: _i.spi_master_if.spi_master.0.begin_transaction:device_index <- R5
	#DEBUG_VALUE: _i.spi_master_if.spi_master.0.begin_transaction:speed_in_khz <- [SP+4]
	#DEBUG_VALUE: _i.spi_master_if.spi_master.0.begin_transaction:mode <- R7
	{
		ldc r0, 60
		nop
	}
.Ltmp156:
	#DEBUG_VALUE: get_mode_bits:mode <- R7
	#DEBUG_VALUE: get_mode_bits:cpha <- R1
	#DEBUG_VALUE: get_mode_bits:cpol <- R0
	.loc	1 272 0 prologue_end    # C:/Users/user/workspace/lib_spi/src/spi_sync.xc:272:0
	{
		add r0, r10, r0
		mkmsk r1, 2
	}
.Ltmp157:
	.loc	1 226 0                 # C:/Users/user/workspace/lib_spi/src/spi_sync.xc:226:0
	{
		lsu r1, r1, r7
		nop
	}
	bt r1, .LBB7_9
.Ltmp158:
# BB#2:                                 # %ifdone
.Lxtalabel30:
	#DEBUG_VALUE: _i.spi_master_if.spi_master.0.begin_transaction:device_index <- R5
	#DEBUG_VALUE: _i.spi_master_if.spi_master.0.begin_transaction:speed_in_khz <- [SP+4]
	#DEBUG_VALUE: _i.spi_master_if.spi_master.0.begin_transaction:mode <- R7
	ldc r1, 64
	.loc	1 272 0                 # C:/Users/user/workspace/lib_spi/src/spi_sync.xc:272:0
	{
		add r1, r10, r1
		nop
	}

	.xtabranch .Ljumptable1+4,.Ljumptable1+8,.Ljumptable1+12,.Ljumptable1+16
.Ljumptable1:
		
	{
		nop
		bru r7
	}
	.jmptable32 .LBB7_3,.LBB7_4,.LBB7_5,.LBB7_6
.Ltmp159:
.LBB7_3:                                # %switchcase.i
.Lxtalabel31:
	#DEBUG_VALUE: _i.spi_master_if.spi_master.0.begin_transaction:device_index <- R5
	#DEBUG_VALUE: _i.spi_master_if.spi_master.0.begin_transaction:speed_in_khz <- [SP+4]
	{
		ldc r2, 0
		nop
	}
	.loc	1 227 0                 # C:/Users/user/workspace/lib_spi/src/spi_sync.xc:227:0
.Ltmp160:
	{
		mkmsk r2, 1
		stw r2, r0[0]
	}
	bu .LBB7_8
.Ltmp161:
.LBB7_4:                                # %switchcase1.i
.Lxtalabel32:
	#DEBUG_VALUE: _i.spi_master_if.spi_master.0.begin_transaction:device_index <- R5
	#DEBUG_VALUE: _i.spi_master_if.spi_master.0.begin_transaction:speed_in_khz <- [SP+4]
	{
		ldc r2, 0
		nop
	}
	bu .LBB7_7
.Ltmp162:
.LBB7_5:                                # %switchcase2.i
.Lxtalabel33:
	#DEBUG_VALUE: _i.spi_master_if.spi_master.0.begin_transaction:device_index <- R5
	#DEBUG_VALUE: _i.spi_master_if.spi_master.0.begin_transaction:speed_in_khz <- [SP+4]
	{
		mkmsk r2, 1
		nop
	}
	.loc	1 229 0                 # C:/Users/user/workspace/lib_spi/src/spi_sync.xc:229:0
	{
		ldc r2, 0
		stw r2, r0[0]
	}
	bu .LBB7_8
.Ltmp163:
.LBB7_6:                                # %switchcase6.i
.Lxtalabel34:
	#DEBUG_VALUE: _i.spi_master_if.spi_master.0.begin_transaction:device_index <- R5
	#DEBUG_VALUE: _i.spi_master_if.spi_master.0.begin_transaction:speed_in_khz <- [SP+4]
	{
		mkmsk r2, 1
		nop
	}
.Ltmp164:
.LBB7_7:                                # %get_mode_bits.exit
.Lxtalabel35:
	{
		nop
		stw r2, r0[0]
	}
.LBB7_8:                                # %get_mode_bits.exit
.Lxtalabel36:
	{
		nop
		stw r2, r1[0]
	}
.LBB7_9:                                # %get_mode_bits.exit
.Lxtalabel37:
.Ltmp165:
	#DEBUG_VALUE: _i.spi_master_if.spi_master.0.begin_transaction:device_index <- R5
	#DEBUG_VALUE: _i.spi_master_if.spi_master.0.begin_transaction:speed_in_khz <- [SP+4]
	{
		nop
		ldw r1, r10[8]
	}
	.loc	1 276 0                 # C:/Users/user/workspace/lib_spi/src/spi_sync.xc:276:0
	{
		syncr res[r1]
		nop
	}
	ldc r2, 72
	.loc	1 278 17                # C:/Users/user/workspace/lib_spi/src/spi_sync.xc:278:17
	{
		add r7, r10, r2
		nop
	}
	{
		nop
		ldw r2, r7[0]
	}
	.loc	1 278 17                # C:/Users/user/workspace/lib_spi/src/spi_sync.xc:278:17
	{
		eq r2, r2, r5
		nop
	}
	bf r2, .LBB7_11
.Ltmp166:
# BB#10:                                # %iftrue32
.Lxtalabel38:
	#DEBUG_VALUE: _i.spi_master_if.spi_master.0.begin_transaction:device_index <- R5
	#DEBUG_VALUE: _i.spi_master_if.spi_master.0.begin_transaction:speed_in_khz <- [SP+4]
	{
		nop
		ldw r2, r10[11]
	}
	{
		nop
		ldw r2, r2[r5]
	}
	.loc	1 279 0                 # C:/Users/user/workspace/lib_spi/src/spi_sync.xc:279:0
	{
		syncr res[r2]
		nop
	}
.Ltmp167:
.LBB7_11:                               # %ifdone33
.Lxtalabel39:
	#DEBUG_VALUE: _i.spi_master_if.spi_master.0.begin_transaction:device_index <- R5
	#DEBUG_VALUE: _i.spi_master_if.spi_master.0.begin_transaction:speed_in_khz <- [SP+4]
	{
		nop
		ldw r0, r0[0]
	}
	.loc	1 282 0                 # C:/Users/user/workspace/lib_spi/src/spi_sync.xc:282:0
.Lxta.endpoint_labels8:
	outpw res[r1], r0, 1
	.loc	1 283 0                 # C:/Users/user/workspace/lib_spi/src/spi_sync.xc:283:0
	{
		syncr res[r1]
		ldc r0, 56
	}
	.loc	1 285 17                # C:/Users/user/workspace/lib_spi/src/spi_sync.xc:285:17
	{
		add r8, r10, r0
		nop
	}
	{
		nop
		ldw r0, r8[0]
	}
	bf r0, .LBB7_12
.Ltmp168:
# BB#16:                                # %afternullcheck71
.Lxtalabel40:
	#DEBUG_VALUE: _i.spi_master_if.spi_master.0.begin_transaction:device_index <- R5
	#DEBUG_VALUE: _i.spi_master_if.spi_master.0.begin_transaction:speed_in_khz <- [SP+4]
	#DEBUG_VALUE: _i.spi_master_if.spi_master.0.begin_transaction:speed_in_khz <- R3
	.loc	1 290 0                 # C:/Users/user/workspace/lib_spi/src/spi_sync.xc:290:0
	{
		setc res[r0], 7
		ldw r3, sp[1]
	}
.Ltmp169:
	.loc	1 291 0                 # C:/Users/user/workspace/lib_spi/src/spi_sync.xc:291:0
	{
		shl r1, r3, 2
		nop
	}
	ldw r2, cp[.LCPI7_0]
	.loc	1 291 0                 # C:/Users/user/workspace/lib_spi/src/spi_sync.xc:291:0
	ldaw r2, r2[r3]
	.loc	1 291 0                 # C:/Users/user/workspace/lib_spi/src/spi_sync.xc:291:0
	divu r1, r2, r1
.Ltmp170:
	#DEBUG_VALUE: d <- R1
	.loc	1 292 0                 # C:/Users/user/workspace/lib_spi/src/spi_sync.xc:292:0
	{
		zext r1, 8
		nop
	}
.Ltmp171:
.Lxta.call_labels11:
	bl configure_clock_ref
	{
		nop
		ldw r0, r8[0]
	}
.Ltrap_info1:
	{
		ecallf r0
		nop
	}
	#DEBUG_VALUE: _i.spi_master_if.spi_master.0.begin_transaction:device_index <- R5
	.loc	1 293 0                 # C:/Users/user/workspace/lib_spi/src/spi_sync.xc:293:0
	{
		setc res[r0], 15
		nop
	}
	bu .LBB7_13
.Ltmp172:
.LBB7_12:                               # %iftrue48
.Lxtalabel41:
	#DEBUG_VALUE: _i.spi_master_if.spi_master.0.begin_transaction:device_index <- R5
	#DEBUG_VALUE: _i.spi_master_if.spi_master.0.begin_transaction:speed_in_khz <- [SP+4]
	ldc r0, 68
	.loc	1 287 0                 # C:/Users/user/workspace/lib_spi/src/spi_sync.xc:287:0
	{
		add r0, r10, r0
		nop
	}
	ldw r1, cp[.LCPI7_0]
	{
		nop
		ldw r2, sp[1]
	}
.Ltmp173:
	#DEBUG_VALUE: _i.spi_master_if.spi_master.0.begin_transaction:speed_in_khz <- R2
	.loc	1 287 0                 # C:/Users/user/workspace/lib_spi/src/spi_sync.xc:287:0
	{
		add r1, r2, r1
		nop
	}
	.loc	1 287 0                 # C:/Users/user/workspace/lib_spi/src/spi_sync.xc:287:0
	divu r1, r1, r2
	{
		nop
		stw r1, r0[0]
	}
.Ltmp174:
.LBB7_13:                               # %ifdone49
.Lxtalabel42:
	#DEBUG_VALUE: _i.spi_master_if.spi_master.0.begin_transaction:device_index <- R5
	{
		ldc r0, 0
		nop
	}
	{
		nop
		stw r0, r6[0]
	}
	{
		nop
		stw r5, r7[0]
	}
	{
		nop
		ldw r1, r10[11]
	}
	{
		nop
		ldw r1, r1[r5]
	}
	.loc	1 301 43                # C:/Users/user/workspace/lib_spi/src/spi_sync.xc:301:43
.Lxta.endpoint_labels9:
	{
		out res[r1], r0
		nop
	}
	{
		clre
		mov r0, r4
	}
	bl __lock_fair_release
	{
		nop
		ldw r0, r10[4]
	}
	{
		add r0, r0, 1
		nop
	}
	{
		nop
		stw r0, r10[4]
	}
	{
		nop
		ldw r10, sp[8]
	}
	ldd r9, r8, sp[3]               # 4-byte Folded Reload
	ldd r7, r6, sp[2]               # 4-byte Folded Reload
	ldd r5, r4, sp[1]               # 4-byte Folded Reload
.Ltmp175:
	{
		nop
		retsp 10
	}
	# RETURN_REG_HOLDER
.Ltmp176:
	.cc_bottom _i.spi_master_if.spi_master.0.begin_transaction.function
	.set	_i.spi_master_if.spi_master.0.begin_transaction.nstackwords,((__wait_until_gt.nstackwords $M __lock_fair_acquire.nstackwords $M __lock_fair_release.nstackwords $M configure_clock_ref.nstackwords) + 10)
	.globl	_i.spi_master_if.spi_master.0.begin_transaction.nstackwords
	.set	_i.spi_master_if.spi_master.0.begin_transaction.maxcores,__lock_fair_acquire.maxcores $M __lock_fair_release.maxcores $M __wait_until_gt.maxcores $M configure_clock_ref.maxcores $M 1
	.globl	_i.spi_master_if.spi_master.0.begin_transaction.maxcores
	.set	_i.spi_master_if.spi_master.0.begin_transaction.maxtimers,__lock_fair_acquire.maxtimers $M __lock_fair_release.maxtimers $M __wait_until_gt.maxtimers $M configure_clock_ref.maxtimers $M 0
	.globl	_i.spi_master_if.spi_master.0.begin_transaction.maxtimers
	.set	_i.spi_master_if.spi_master.0.begin_transaction.maxchanends,__lock_fair_acquire.maxchanends $M __lock_fair_release.maxchanends $M __wait_until_gt.maxchanends $M configure_clock_ref.maxchanends $M 0
	.globl	_i.spi_master_if.spi_master.0.begin_transaction.maxchanends
.Ltmp177:
	.size	_i.spi_master_if.spi_master.0.begin_transaction, .Ltmp177-_i.spi_master_if.spi_master.0.begin_transaction
.Lfunc_end7:
	.cfi_endproc

	.weak	_i.spi_master_if._chan.transfer32
	.align	4
	.type	_i.spi_master_if._chan.transfer32,@function
	.cc_top _i.spi_master_if._chan.transfer32.function,_i.spi_master_if._chan.transfer32
_i.spi_master_if._chan.transfer32:      # @_i.spi_master_if._chan.transfer32
	.cfi_startproc
	.issue_mode dual
# BB#0:                                 # %allocas
	{
		nop
		dualentsp 4
	}
.Ltmp178:
	.cfi_def_cfa_offset 16
.Ltmp179:
	.cfi_offset 15, 0
	std r5, r4, sp[1]               # 4-byte Folded Spill
.Ltmp180:
	.cfi_offset 4, -8
.Ltmp181:
	.cfi_offset 5, -4
	#DEBUG_VALUE: _i.spi_master_if._chan.transfer32:dest <- R0
	#DEBUG_VALUE: _i.spi_master_if._chan.transfer32:param1 <- R1
	#DEBUG_VALUE: _i.spi_master_if._chan.transfer32:param1 <- R4
	{
		getr r5, 2
		mov r4, r1
	}
	{
		setd res[r5], r0
		add r0, r5, 3
	}
	{
		out res[r5], r0
		nop
	}
	{
		outct res[r5], 2
		ldc r1, 0
	}
	{
		mov r0, r5
		nop
	}
	bl __interface_wait_and_yield
	{
		chkct res[r5], 1
		nop
	}
	{
		out res[r5], r4
		nop
	}
	{
		outct res[r5], 2
		nop
	}
	{
		in r0, res[r5]
		nop
	}
	{
		in r0, res[r5]
		nop
	}
	{
		chkct res[r5], 1
		nop
	}
	{
		freer res[r5]
		nop
	}
	ldd r5, r4, sp[1]               # 4-byte Folded Reload
	{
		nop
		retsp 4
	}
	# RETURN_REG_HOLDER
	.cc_bottom _i.spi_master_if._chan.transfer32.function
	.set	_i.spi_master_if._chan.transfer32.nstackwords,((_i.spi_master_if._client_call_y.max.nstackwords $M ($D __interface_wait_and_yield.nstackwords ? __interface_wait_and_yield.nstackwords $: _i.spi_master_if._client_call_y.max.nstackwords)) + 4)
	.globl	_i.spi_master_if._chan.transfer32.nstackwords
	.weak	_i.spi_master_if._chan.transfer32.nstackwords
	.set	_i.spi_master_if._chan.transfer32.maxcores,($D __interface_wait_and_yield.maxcores ? __interface_wait_and_yield.maxcores $: _i.spi_master_if._client_call_y.max.maxcores) $M 1
	.globl	_i.spi_master_if._chan.transfer32.maxcores
	.weak	_i.spi_master_if._chan.transfer32.maxcores
	.set	_i.spi_master_if._chan.transfer32.maxtimers,($D __interface_wait_and_yield.maxtimers ? __interface_wait_and_yield.maxtimers $: _i.spi_master_if._client_call_y.max.maxtimers) $M 0
	.globl	_i.spi_master_if._chan.transfer32.maxtimers
	.weak	_i.spi_master_if._chan.transfer32.maxtimers
	.set	_i.spi_master_if._chan.transfer32.maxchanends,(1 + ($D __interface_wait_and_yield.maxchanends ? __interface_wait_and_yield.maxchanends $: _i.spi_master_if._client_call_y.max.maxchanends)) $M 1
	.globl	_i.spi_master_if._chan.transfer32.maxchanends
	.weak	_i.spi_master_if._chan.transfer32.maxchanends
.Ltmp182:
	.size	_i.spi_master_if._chan.transfer32, .Ltmp182-_i.spi_master_if._chan.transfer32
	.cfi_endproc

	.weak	_i.spi_master_if._chan.transfer8
	.align	4
	.type	_i.spi_master_if._chan.transfer8,@function
	.cc_top _i.spi_master_if._chan.transfer8.function,_i.spi_master_if._chan.transfer8
_i.spi_master_if._chan.transfer8:       # @_i.spi_master_if._chan.transfer8
	.cfi_startproc
	.issue_mode dual
# BB#0:                                 # %allocas
	{
		nop
		dualentsp 4
	}
.Ltmp183:
	.cfi_def_cfa_offset 16
.Ltmp184:
	.cfi_offset 15, 0
	std r5, r4, sp[1]               # 4-byte Folded Spill
.Ltmp185:
	.cfi_offset 4, -8
.Ltmp186:
	.cfi_offset 5, -4
	#DEBUG_VALUE: _i.spi_master_if._chan.transfer8:dest <- R0
	#DEBUG_VALUE: _i.spi_master_if._chan.transfer8:param1 <- R1
	#DEBUG_VALUE: _i.spi_master_if._chan.transfer8:param1 <- R4
	{
		getr r5, 2
		mov r4, r1
	}
	{
		setd res[r5], r0
		add r0, r5, 2
	}
	{
		out res[r5], r0
		nop
	}
	{
		outct res[r5], 2
		ldc r1, 0
	}
	{
		mov r0, r5
		nop
	}
	bl __interface_wait_and_yield
	{
		chkct res[r5], 1
		nop
	}
	{
		outt res[r5], r4
		nop
	}
	{
		outct res[r5], 2
		nop
	}
	{
		in r0, res[r5]
		nop
	}
	{
		int r0, res[r5]
		nop
	}
	{
		chkct res[r5], 1
		nop
	}
	{
		freer res[r5]
		nop
	}
	ldd r5, r4, sp[1]               # 4-byte Folded Reload
	{
		nop
		retsp 4
	}
	# RETURN_REG_HOLDER
	.cc_bottom _i.spi_master_if._chan.transfer8.function
	.set	_i.spi_master_if._chan.transfer8.nstackwords,((_i.spi_master_if._client_call_y.max.nstackwords $M ($D __interface_wait_and_yield.nstackwords ? __interface_wait_and_yield.nstackwords $: _i.spi_master_if._client_call_y.max.nstackwords)) + 4)
	.globl	_i.spi_master_if._chan.transfer8.nstackwords
	.weak	_i.spi_master_if._chan.transfer8.nstackwords
	.set	_i.spi_master_if._chan.transfer8.maxcores,($D __interface_wait_and_yield.maxcores ? __interface_wait_and_yield.maxcores $: _i.spi_master_if._client_call_y.max.maxcores) $M 1
	.globl	_i.spi_master_if._chan.transfer8.maxcores
	.weak	_i.spi_master_if._chan.transfer8.maxcores
	.set	_i.spi_master_if._chan.transfer8.maxtimers,($D __interface_wait_and_yield.maxtimers ? __interface_wait_and_yield.maxtimers $: _i.spi_master_if._client_call_y.max.maxtimers) $M 0
	.globl	_i.spi_master_if._chan.transfer8.maxtimers
	.weak	_i.spi_master_if._chan.transfer8.maxtimers
	.set	_i.spi_master_if._chan.transfer8.maxchanends,(1 + ($D __interface_wait_and_yield.maxchanends ? __interface_wait_and_yield.maxchanends $: _i.spi_master_if._client_call_y.max.maxchanends)) $M 1
	.globl	_i.spi_master_if._chan.transfer8.maxchanends
	.weak	_i.spi_master_if._chan.transfer8.maxchanends
.Ltmp187:
	.size	_i.spi_master_if._chan.transfer8, .Ltmp187-_i.spi_master_if._chan.transfer8
	.cfi_endproc

	.weak	_i.spi_master_if._chan.end_transaction
	.align	4
	.type	_i.spi_master_if._chan.end_transaction,@function
	.cc_top _i.spi_master_if._chan.end_transaction.function,_i.spi_master_if._chan.end_transaction
_i.spi_master_if._chan.end_transaction: # @_i.spi_master_if._chan.end_transaction
	.cfi_startproc
	.issue_mode dual
# BB#0:                                 # %allocas
	{
		nop
		dualentsp 4
	}
.Ltmp188:
	.cfi_def_cfa_offset 16
.Ltmp189:
	.cfi_offset 15, 0
	std r5, r4, sp[1]               # 4-byte Folded Spill
.Ltmp190:
	.cfi_offset 4, -8
.Ltmp191:
	.cfi_offset 5, -4
	#DEBUG_VALUE: _i.spi_master_if._chan.end_transaction:dest <- R0
	#DEBUG_VALUE: _i.spi_master_if._chan.end_transaction:param1 <- R1
	#DEBUG_VALUE: _i.spi_master_if._chan.end_transaction:param1 <- R4
	{
		getr r5, 2
		mov r4, r1
	}
	{
		setd res[r5], r0
		add r0, r5, 1
	}
	{
		out res[r5], r0
		nop
	}
	{
		outct res[r5], 2
		ldc r1, 0
	}
	{
		mov r0, r5
		nop
	}
	bl __interface_wait_and_yield
	{
		chkct res[r5], 1
		nop
	}
	{
		out res[r5], r4
		nop
	}
	{
		outct res[r5], 2
		nop
	}
	{
		in r0, res[r5]
		nop
	}
	{
		chkct res[r5], 1
		nop
	}
	{
		freer res[r5]
		nop
	}
	ldd r5, r4, sp[1]               # 4-byte Folded Reload
	{
		nop
		retsp 4
	}
	# RETURN_REG_HOLDER
	.cc_bottom _i.spi_master_if._chan.end_transaction.function
	.set	_i.spi_master_if._chan.end_transaction.nstackwords,((_i.spi_master_if._client_call_y.max.nstackwords $M ($D __interface_wait_and_yield.nstackwords ? __interface_wait_and_yield.nstackwords $: _i.spi_master_if._client_call_y.max.nstackwords)) + 4)
	.globl	_i.spi_master_if._chan.end_transaction.nstackwords
	.weak	_i.spi_master_if._chan.end_transaction.nstackwords
	.set	_i.spi_master_if._chan.end_transaction.maxcores,($D __interface_wait_and_yield.maxcores ? __interface_wait_and_yield.maxcores $: _i.spi_master_if._client_call_y.max.maxcores) $M 1
	.globl	_i.spi_master_if._chan.end_transaction.maxcores
	.weak	_i.spi_master_if._chan.end_transaction.maxcores
	.set	_i.spi_master_if._chan.end_transaction.maxtimers,($D __interface_wait_and_yield.maxtimers ? __interface_wait_and_yield.maxtimers $: _i.spi_master_if._client_call_y.max.maxtimers) $M 0
	.globl	_i.spi_master_if._chan.end_transaction.maxtimers
	.weak	_i.spi_master_if._chan.end_transaction.maxtimers
	.set	_i.spi_master_if._chan.end_transaction.maxchanends,(1 + ($D __interface_wait_and_yield.maxchanends ? __interface_wait_and_yield.maxchanends $: _i.spi_master_if._client_call_y.max.maxchanends)) $M 1
	.globl	_i.spi_master_if._chan.end_transaction.maxchanends
	.weak	_i.spi_master_if._chan.end_transaction.maxchanends
.Ltmp192:
	.size	_i.spi_master_if._chan.end_transaction, .Ltmp192-_i.spi_master_if._chan.end_transaction
	.cfi_endproc

	.weak	_i.spi_master_if._chan.begin_transaction
	.align	4
	.type	_i.spi_master_if._chan.begin_transaction,@function
	.cc_top _i.spi_master_if._chan.begin_transaction.function,_i.spi_master_if._chan.begin_transaction
_i.spi_master_if._chan.begin_transaction: # @_i.spi_master_if._chan.begin_transaction
	.cfi_startproc
	.issue_mode dual
# BB#0:                                 # %allocas
	{
		nop
		dualentsp 6
	}
.Ltmp193:
	.cfi_def_cfa_offset 24
.Ltmp194:
	.cfi_offset 15, 0
	std r5, r4, sp[1]               # 4-byte Folded Spill
.Ltmp195:
	.cfi_offset 4, -16
.Ltmp196:
	.cfi_offset 5, -12
	std r7, r6, sp[2]               # 4-byte Folded Spill
.Ltmp197:
	.cfi_offset 6, -8
.Ltmp198:
	.cfi_offset 7, -4
	#DEBUG_VALUE: _i.spi_master_if._chan.begin_transaction:dest <- R0
	#DEBUG_VALUE: _i.spi_master_if._chan.begin_transaction:param1 <- R1
	#DEBUG_VALUE: _i.spi_master_if._chan.begin_transaction:param2 <- R2
	#DEBUG_VALUE: _i.spi_master_if._chan.begin_transaction:param3 <- R3
	#DEBUG_VALUE: _i.spi_master_if._chan.begin_transaction:param3 <- R4
	#DEBUG_VALUE: _i.spi_master_if._chan.begin_transaction:param2 <- R5
	{
		mov r4, r3
		mov r5, r2
	}
	#DEBUG_VALUE: _i.spi_master_if._chan.begin_transaction:param1 <- R6
	{
		getr r7, 2
		mov r6, r1
	}
	{
		setd res[r7], r0
		nop
	}
	{
		out res[r7], r7
		nop
	}
	{
		outct res[r7], 2
		ldc r1, 0
	}
	{
		mov r0, r7
		nop
	}
	bl __interface_wait_and_yield
	{
		chkct res[r7], 1
		nop
	}
	{
		out res[r7], r6
		nop
	}
	{
		out res[r7], r5
		nop
	}
	{
		out res[r7], r4
		nop
	}
	{
		outct res[r7], 2
		nop
	}
	{
		in r0, res[r7]
		nop
	}
	{
		chkct res[r7], 1
		nop
	}
	{
		freer res[r7]
		nop
	}
	ldd r7, r6, sp[2]               # 4-byte Folded Reload
	ldd r5, r4, sp[1]               # 4-byte Folded Reload
	{
		nop
		retsp 6
	}
	# RETURN_REG_HOLDER
	.cc_bottom _i.spi_master_if._chan.begin_transaction.function
	.set	_i.spi_master_if._chan.begin_transaction.nstackwords,((_i.spi_master_if._client_call_y.max.nstackwords $M ($D __interface_wait_and_yield.nstackwords ? __interface_wait_and_yield.nstackwords $: _i.spi_master_if._client_call_y.max.nstackwords)) + 6)
	.globl	_i.spi_master_if._chan.begin_transaction.nstackwords
	.weak	_i.spi_master_if._chan.begin_transaction.nstackwords
	.set	_i.spi_master_if._chan.begin_transaction.maxcores,($D __interface_wait_and_yield.maxcores ? __interface_wait_and_yield.maxcores $: _i.spi_master_if._client_call_y.max.maxcores) $M 1
	.globl	_i.spi_master_if._chan.begin_transaction.maxcores
	.weak	_i.spi_master_if._chan.begin_transaction.maxcores
	.set	_i.spi_master_if._chan.begin_transaction.maxtimers,($D __interface_wait_and_yield.maxtimers ? __interface_wait_and_yield.maxtimers $: _i.spi_master_if._client_call_y.max.maxtimers) $M 0
	.globl	_i.spi_master_if._chan.begin_transaction.maxtimers
	.weak	_i.spi_master_if._chan.begin_transaction.maxtimers
	.set	_i.spi_master_if._chan.begin_transaction.maxchanends,(1 + ($D __interface_wait_and_yield.maxchanends ? __interface_wait_and_yield.maxchanends $: _i.spi_master_if._client_call_y.max.maxchanends)) $M 1
	.globl	_i.spi_master_if._chan.begin_transaction.maxchanends
	.weak	_i.spi_master_if._chan.begin_transaction.maxchanends
.Ltmp199:
	.size	_i.spi_master_if._chan.begin_transaction, .Ltmp199-_i.spi_master_if._chan.begin_transaction
	.cfi_endproc

	.weak	_i.spi_master_if._chan_yield.transfer32
	.align	4
	.type	_i.spi_master_if._chan_yield.transfer32,@function
	.cc_top _i.spi_master_if._chan_yield.transfer32.function,_i.spi_master_if._chan_yield.transfer32
_i.spi_master_if._chan_yield.transfer32: # @_i.spi_master_if._chan_yield.transfer32
	.cfi_startproc
	.issue_mode dual
# BB#0:                                 # %allocas
	{
		nop
		dualentsp 6
	}
.Ltmp200:
	.cfi_def_cfa_offset 24
.Ltmp201:
	.cfi_offset 15, 0
	std r5, r4, sp[1]               # 4-byte Folded Spill
.Ltmp202:
	.cfi_offset 4, -16
.Ltmp203:
	.cfi_offset 5, -12
.Ltmp204:
	.cfi_offset 6, -8
	#DEBUG_VALUE: _i.spi_master_if._chan_yield.transfer32:s <- R0
	#DEBUG_VALUE: _i.spi_master_if._chan_yield.transfer32:param1 <- R1
	#DEBUG_VALUE: _i.spi_master_if._chan_yield.transfer32:param1 <- R4
	{
		mov r4, r1
		stw r6, sp[4]
	}
	{
		getr r5, 2
		ldw r1, r0[0]
	}
	{
		setd res[r5], r1
		add r1, r5, 3
	}
	{
		out res[r5], r1
		nop
	}
	{
		outct res[r5], 2
		ldw r6, r0[1]
	}
	{
		mov r0, r5
		mov r1, r6
	}
	bl __interface_wait_and_yield
	{
		chkct res[r5], 1
		nop
	}
	{
		out res[r5], r4
		nop
	}
	{
		outct res[r5], 2
		ldc r1, 0
	}
	{
		mov r0, r5
		mov r2, r6
	}
	bl __interface_client_call_y
	{
		in r0, res[r5]
		nop
	}
	{
		chkct res[r5], 1
		nop
	}
	{
		freer res[r5]
		ldw r6, sp[4]
	}
	ldd r5, r4, sp[1]               # 4-byte Folded Reload
	{
		nop
		retsp 6
	}
	# RETURN_REG_HOLDER
	.cc_bottom _i.spi_master_if._chan_yield.transfer32.function
	.set	_i.spi_master_if._chan_yield.transfer32.nstackwords,((($D __interface_wait_and_yield.nstackwords ? __interface_wait_and_yield.nstackwords $: _i.spi_master_if._client_call_y.max.nstackwords) $M _i.spi_master_if._client_call_y.max.nstackwords $M ($D __interface_client_call_y.nstackwords ? __interface_client_call_y.nstackwords $: _i.spi_master_if._client_call_y.max.nstackwords)) + 6)
	.globl	_i.spi_master_if._chan_yield.transfer32.nstackwords
	.weak	_i.spi_master_if._chan_yield.transfer32.nstackwords
	.set	_i.spi_master_if._chan_yield.transfer32.maxcores,($D __interface_client_call_y.maxcores ? __interface_client_call_y.maxcores $: _i.spi_master_if._client_call_y.max.maxcores) $M ($D __interface_wait_and_yield.maxcores ? __interface_wait_and_yield.maxcores $: _i.spi_master_if._client_call_y.max.maxcores) $M 1
	.globl	_i.spi_master_if._chan_yield.transfer32.maxcores
	.weak	_i.spi_master_if._chan_yield.transfer32.maxcores
	.set	_i.spi_master_if._chan_yield.transfer32.maxtimers,($D __interface_client_call_y.maxtimers ? __interface_client_call_y.maxtimers $: _i.spi_master_if._client_call_y.max.maxtimers) $M ($D __interface_wait_and_yield.maxtimers ? __interface_wait_and_yield.maxtimers $: _i.spi_master_if._client_call_y.max.maxtimers) $M 0
	.globl	_i.spi_master_if._chan_yield.transfer32.maxtimers
	.weak	_i.spi_master_if._chan_yield.transfer32.maxtimers
	.set	_i.spi_master_if._chan_yield.transfer32.maxchanends,(1 + ($D __interface_client_call_y.maxchanends ? __interface_client_call_y.maxchanends $: _i.spi_master_if._client_call_y.max.maxchanends)) $M (1 + ($D __interface_wait_and_yield.maxchanends ? __interface_wait_and_yield.maxchanends $: _i.spi_master_if._client_call_y.max.maxchanends)) $M 1
	.globl	_i.spi_master_if._chan_yield.transfer32.maxchanends
	.weak	_i.spi_master_if._chan_yield.transfer32.maxchanends
.Ltmp205:
	.size	_i.spi_master_if._chan_yield.transfer32, .Ltmp205-_i.spi_master_if._chan_yield.transfer32
	.cfi_endproc

	.weak	_i.spi_master_if._chan_yield.transfer8
	.align	4
	.type	_i.spi_master_if._chan_yield.transfer8,@function
	.cc_top _i.spi_master_if._chan_yield.transfer8.function,_i.spi_master_if._chan_yield.transfer8
_i.spi_master_if._chan_yield.transfer8: # @_i.spi_master_if._chan_yield.transfer8
	.cfi_startproc
	.issue_mode dual
# BB#0:                                 # %allocas
	{
		nop
		dualentsp 6
	}
.Ltmp206:
	.cfi_def_cfa_offset 24
.Ltmp207:
	.cfi_offset 15, 0
	std r5, r4, sp[1]               # 4-byte Folded Spill
.Ltmp208:
	.cfi_offset 4, -16
.Ltmp209:
	.cfi_offset 5, -12
.Ltmp210:
	.cfi_offset 6, -8
	#DEBUG_VALUE: _i.spi_master_if._chan_yield.transfer8:s <- R0
	#DEBUG_VALUE: _i.spi_master_if._chan_yield.transfer8:param1 <- R1
	#DEBUG_VALUE: _i.spi_master_if._chan_yield.transfer8:param1 <- R4
	{
		mov r4, r1
		stw r6, sp[4]
	}
	{
		getr r5, 2
		ldw r1, r0[0]
	}
	{
		setd res[r5], r1
		add r1, r5, 2
	}
	{
		out res[r5], r1
		nop
	}
	{
		outct res[r5], 2
		ldw r6, r0[1]
	}
	{
		mov r0, r5
		mov r1, r6
	}
	bl __interface_wait_and_yield
	{
		chkct res[r5], 1
		nop
	}
	{
		outt res[r5], r4
		nop
	}
	{
		outct res[r5], 2
		ldc r1, 0
	}
	{
		mov r0, r5
		mov r2, r6
	}
	bl __interface_client_call_y
	{
		int r0, res[r5]
		nop
	}
	{
		chkct res[r5], 1
		nop
	}
	{
		freer res[r5]
		ldw r6, sp[4]
	}
	ldd r5, r4, sp[1]               # 4-byte Folded Reload
	{
		nop
		retsp 6
	}
	# RETURN_REG_HOLDER
	.cc_bottom _i.spi_master_if._chan_yield.transfer8.function
	.set	_i.spi_master_if._chan_yield.transfer8.nstackwords,((($D __interface_wait_and_yield.nstackwords ? __interface_wait_and_yield.nstackwords $: _i.spi_master_if._client_call_y.max.nstackwords) $M _i.spi_master_if._client_call_y.max.nstackwords $M ($D __interface_client_call_y.nstackwords ? __interface_client_call_y.nstackwords $: _i.spi_master_if._client_call_y.max.nstackwords)) + 6)
	.globl	_i.spi_master_if._chan_yield.transfer8.nstackwords
	.weak	_i.spi_master_if._chan_yield.transfer8.nstackwords
	.set	_i.spi_master_if._chan_yield.transfer8.maxcores,($D __interface_client_call_y.maxcores ? __interface_client_call_y.maxcores $: _i.spi_master_if._client_call_y.max.maxcores) $M ($D __interface_wait_and_yield.maxcores ? __interface_wait_and_yield.maxcores $: _i.spi_master_if._client_call_y.max.maxcores) $M 1
	.globl	_i.spi_master_if._chan_yield.transfer8.maxcores
	.weak	_i.spi_master_if._chan_yield.transfer8.maxcores
	.set	_i.spi_master_if._chan_yield.transfer8.maxtimers,($D __interface_client_call_y.maxtimers ? __interface_client_call_y.maxtimers $: _i.spi_master_if._client_call_y.max.maxtimers) $M ($D __interface_wait_and_yield.maxtimers ? __interface_wait_and_yield.maxtimers $: _i.spi_master_if._client_call_y.max.maxtimers) $M 0
	.globl	_i.spi_master_if._chan_yield.transfer8.maxtimers
	.weak	_i.spi_master_if._chan_yield.transfer8.maxtimers
	.set	_i.spi_master_if._chan_yield.transfer8.maxchanends,(1 + ($D __interface_client_call_y.maxchanends ? __interface_client_call_y.maxchanends $: _i.spi_master_if._client_call_y.max.maxchanends)) $M (1 + ($D __interface_wait_and_yield.maxchanends ? __interface_wait_and_yield.maxchanends $: _i.spi_master_if._client_call_y.max.maxchanends)) $M 1
	.globl	_i.spi_master_if._chan_yield.transfer8.maxchanends
	.weak	_i.spi_master_if._chan_yield.transfer8.maxchanends
.Ltmp211:
	.size	_i.spi_master_if._chan_yield.transfer8, .Ltmp211-_i.spi_master_if._chan_yield.transfer8
	.cfi_endproc

	.weak	_i.spi_master_if._chan_yield.end_transaction
	.align	4
	.type	_i.spi_master_if._chan_yield.end_transaction,@function
	.cc_top _i.spi_master_if._chan_yield.end_transaction.function,_i.spi_master_if._chan_yield.end_transaction
_i.spi_master_if._chan_yield.end_transaction: # @_i.spi_master_if._chan_yield.end_transaction
	.cfi_startproc
	.issue_mode dual
# BB#0:                                 # %allocas
	{
		nop
		dualentsp 6
	}
.Ltmp212:
	.cfi_def_cfa_offset 24
.Ltmp213:
	.cfi_offset 15, 0
	std r5, r4, sp[1]               # 4-byte Folded Spill
.Ltmp214:
	.cfi_offset 4, -16
.Ltmp215:
	.cfi_offset 5, -12
.Ltmp216:
	.cfi_offset 6, -8
	#DEBUG_VALUE: _i.spi_master_if._chan_yield.end_transaction:s <- R0
	#DEBUG_VALUE: _i.spi_master_if._chan_yield.end_transaction:param1 <- R1
	#DEBUG_VALUE: _i.spi_master_if._chan_yield.end_transaction:param1 <- R4
	{
		mov r4, r1
		stw r6, sp[4]
	}
	{
		getr r5, 2
		ldw r1, r0[0]
	}
	{
		setd res[r5], r1
		add r1, r5, 1
	}
	{
		out res[r5], r1
		nop
	}
	{
		outct res[r5], 2
		ldw r6, r0[1]
	}
	{
		mov r0, r5
		mov r1, r6
	}
	bl __interface_wait_and_yield
	{
		chkct res[r5], 1
		nop
	}
	{
		out res[r5], r4
		nop
	}
	{
		outct res[r5], 2
		ldc r1, 0
	}
	{
		mov r0, r5
		mov r2, r6
	}
	bl __interface_client_call_y
	{
		chkct res[r5], 1
		nop
	}
	{
		freer res[r5]
		ldw r6, sp[4]
	}
	ldd r5, r4, sp[1]               # 4-byte Folded Reload
	{
		nop
		retsp 6
	}
	# RETURN_REG_HOLDER
	.cc_bottom _i.spi_master_if._chan_yield.end_transaction.function
	.set	_i.spi_master_if._chan_yield.end_transaction.nstackwords,((($D __interface_wait_and_yield.nstackwords ? __interface_wait_and_yield.nstackwords $: _i.spi_master_if._client_call_y.max.nstackwords) $M _i.spi_master_if._client_call_y.max.nstackwords $M ($D __interface_client_call_y.nstackwords ? __interface_client_call_y.nstackwords $: _i.spi_master_if._client_call_y.max.nstackwords)) + 6)
	.globl	_i.spi_master_if._chan_yield.end_transaction.nstackwords
	.weak	_i.spi_master_if._chan_yield.end_transaction.nstackwords
	.set	_i.spi_master_if._chan_yield.end_transaction.maxcores,($D __interface_client_call_y.maxcores ? __interface_client_call_y.maxcores $: _i.spi_master_if._client_call_y.max.maxcores) $M ($D __interface_wait_and_yield.maxcores ? __interface_wait_and_yield.maxcores $: _i.spi_master_if._client_call_y.max.maxcores) $M 1
	.globl	_i.spi_master_if._chan_yield.end_transaction.maxcores
	.weak	_i.spi_master_if._chan_yield.end_transaction.maxcores
	.set	_i.spi_master_if._chan_yield.end_transaction.maxtimers,($D __interface_client_call_y.maxtimers ? __interface_client_call_y.maxtimers $: _i.spi_master_if._client_call_y.max.maxtimers) $M ($D __interface_wait_and_yield.maxtimers ? __interface_wait_and_yield.maxtimers $: _i.spi_master_if._client_call_y.max.maxtimers) $M 0
	.globl	_i.spi_master_if._chan_yield.end_transaction.maxtimers
	.weak	_i.spi_master_if._chan_yield.end_transaction.maxtimers
	.set	_i.spi_master_if._chan_yield.end_transaction.maxchanends,(1 + ($D __interface_client_call_y.maxchanends ? __interface_client_call_y.maxchanends $: _i.spi_master_if._client_call_y.max.maxchanends)) $M (1 + ($D __interface_wait_and_yield.maxchanends ? __interface_wait_and_yield.maxchanends $: _i.spi_master_if._client_call_y.max.maxchanends)) $M 1
	.globl	_i.spi_master_if._chan_yield.end_transaction.maxchanends
	.weak	_i.spi_master_if._chan_yield.end_transaction.maxchanends
.Ltmp217:
	.size	_i.spi_master_if._chan_yield.end_transaction, .Ltmp217-_i.spi_master_if._chan_yield.end_transaction
	.cfi_endproc

	.weak	_i.spi_master_if._chan_yield.begin_transaction
	.align	4
	.type	_i.spi_master_if._chan_yield.begin_transaction,@function
	.cc_top _i.spi_master_if._chan_yield.begin_transaction.function,_i.spi_master_if._chan_yield.begin_transaction
_i.spi_master_if._chan_yield.begin_transaction: # @_i.spi_master_if._chan_yield.begin_transaction
	.cfi_startproc
	.issue_mode dual
# BB#0:                                 # %allocas
	{
		nop
		dualentsp 8
	}
.Ltmp218:
	.cfi_def_cfa_offset 32
.Ltmp219:
	.cfi_offset 15, 0
	std r5, r4, sp[1]               # 4-byte Folded Spill
.Ltmp220:
	.cfi_offset 4, -24
.Ltmp221:
	.cfi_offset 5, -20
	std r7, r6, sp[2]               # 4-byte Folded Spill
.Ltmp222:
	.cfi_offset 6, -16
.Ltmp223:
	.cfi_offset 7, -12
.Ltmp224:
	.cfi_offset 8, -8
	#DEBUG_VALUE: _i.spi_master_if._chan_yield.begin_transaction:s <- R0
	#DEBUG_VALUE: _i.spi_master_if._chan_yield.begin_transaction:param1 <- R1
	#DEBUG_VALUE: _i.spi_master_if._chan_yield.begin_transaction:param2 <- R2
	#DEBUG_VALUE: _i.spi_master_if._chan_yield.begin_transaction:param3 <- R3
	#DEBUG_VALUE: _i.spi_master_if._chan_yield.begin_transaction:param3 <- R4
	{
		mov r4, r3
		stw r8, sp[6]
	}
	#DEBUG_VALUE: _i.spi_master_if._chan_yield.begin_transaction:param2 <- R5
	#DEBUG_VALUE: _i.spi_master_if._chan_yield.begin_transaction:param1 <- R6
	{
		mov r5, r2
		mov r6, r1
	}
	{
		getr r7, 2
		ldw r1, r0[0]
	}
	{
		setd res[r7], r1
		nop
	}
	{
		out res[r7], r7
		nop
	}
	{
		outct res[r7], 2
		ldw r8, r0[1]
	}
	{
		mov r0, r7
		mov r1, r8
	}
	bl __interface_wait_and_yield
	{
		chkct res[r7], 1
		nop
	}
	{
		out res[r7], r6
		nop
	}
	{
		out res[r7], r5
		nop
	}
	{
		out res[r7], r4
		nop
	}
	{
		outct res[r7], 2
		ldc r1, 0
	}
	{
		mov r0, r7
		mov r2, r8
	}
	bl __interface_client_call_y
	{
		chkct res[r7], 1
		nop
	}
	{
		freer res[r7]
		ldw r8, sp[6]
	}
	ldd r7, r6, sp[2]               # 4-byte Folded Reload
	ldd r5, r4, sp[1]               # 4-byte Folded Reload
	{
		nop
		retsp 8
	}
	# RETURN_REG_HOLDER
	.cc_bottom _i.spi_master_if._chan_yield.begin_transaction.function
	.set	_i.spi_master_if._chan_yield.begin_transaction.nstackwords,((($D __interface_wait_and_yield.nstackwords ? __interface_wait_and_yield.nstackwords $: _i.spi_master_if._client_call_y.max.nstackwords) $M _i.spi_master_if._client_call_y.max.nstackwords $M ($D __interface_client_call_y.nstackwords ? __interface_client_call_y.nstackwords $: _i.spi_master_if._client_call_y.max.nstackwords)) + 8)
	.globl	_i.spi_master_if._chan_yield.begin_transaction.nstackwords
	.weak	_i.spi_master_if._chan_yield.begin_transaction.nstackwords
	.set	_i.spi_master_if._chan_yield.begin_transaction.maxcores,($D __interface_client_call_y.maxcores ? __interface_client_call_y.maxcores $: _i.spi_master_if._client_call_y.max.maxcores) $M ($D __interface_wait_and_yield.maxcores ? __interface_wait_and_yield.maxcores $: _i.spi_master_if._client_call_y.max.maxcores) $M 1
	.globl	_i.spi_master_if._chan_yield.begin_transaction.maxcores
	.weak	_i.spi_master_if._chan_yield.begin_transaction.maxcores
	.set	_i.spi_master_if._chan_yield.begin_transaction.maxtimers,($D __interface_client_call_y.maxtimers ? __interface_client_call_y.maxtimers $: _i.spi_master_if._client_call_y.max.maxtimers) $M ($D __interface_wait_and_yield.maxtimers ? __interface_wait_and_yield.maxtimers $: _i.spi_master_if._client_call_y.max.maxtimers) $M 0
	.globl	_i.spi_master_if._chan_yield.begin_transaction.maxtimers
	.weak	_i.spi_master_if._chan_yield.begin_transaction.maxtimers
	.set	_i.spi_master_if._chan_yield.begin_transaction.maxchanends,(1 + ($D __interface_client_call_y.maxchanends ? __interface_client_call_y.maxchanends $: _i.spi_master_if._client_call_y.max.maxchanends)) $M (1 + ($D __interface_wait_and_yield.maxchanends ? __interface_wait_and_yield.maxchanends $: _i.spi_master_if._client_call_y.max.maxchanends)) $M 1
	.globl	_i.spi_master_if._chan_yield.begin_transaction.maxchanends
	.weak	_i.spi_master_if._chan_yield.begin_transaction.maxchanends
.Ltmp225:
	.size	_i.spi_master_if._chan_yield.begin_transaction, .Ltmp225-_i.spi_master_if._chan_yield.begin_transaction
	.cfi_endproc

	.weak	_i.spi_master_async_if._chan.retrieve_transfer_buffers_32
	.align	4
	.type	_i.spi_master_async_if._chan.retrieve_transfer_buffers_32,@function
	.cc_top _i.spi_master_async_if._chan.retrieve_transfer_buffers_32.function,_i.spi_master_async_if._chan.retrieve_transfer_buffers_32
_i.spi_master_async_if._chan.retrieve_transfer_buffers_32: # @_i.spi_master_async_if._chan.retrieve_transfer_buffers_32
	.cfi_startproc
	.issue_mode dual
# BB#0:                                 # %allocas
	#DEBUG_VALUE: _i.spi_master_async_if._chan.retrieve_transfer_buffers_32:dest <- R0
	#DEBUG_VALUE: _i.spi_master_async_if._chan.retrieve_transfer_buffers_32:clientNotifyFlag <- R1
	#DEBUG_VALUE: _i.spi_master_async_if._chan.retrieve_transfer_buffers_32:param2 <- R2
	#DEBUG_VALUE: _i.spi_master_async_if._chan.retrieve_transfer_buffers_32:param3 <- R3
	{
		getr r11, 2
		dualentsp 0
	}
	{
		setd res[r11], r0
		add r0, r11, 5
	}
	{
		out res[r11], r0
		nop
	}
	{
		outct res[r11], 2
		nop
	}
	{
		chkct res[r11], 1
		nop
	}
	{
		out res[r11], r1
		nop
	}
	#APP
	#NO_APP
	{
		out res[r11], r2
		nop
	}
	#APP
	#NO_APP
	{
		out res[r11], r3
		nop
	}
	{
		outct res[r11], 2
		nop
	}
	{
		in r0, res[r11]
		nop
	}
	{
		chkct res[r11], 1
		nop
	}
	{
		freer res[r11]
		retsp 0
	}
	# RETURN_REG_HOLDER
	.cc_bottom _i.spi_master_async_if._chan.retrieve_transfer_buffers_32.function
	.set	_i.spi_master_async_if._chan.retrieve_transfer_buffers_32.nstackwords,0
	.globl	_i.spi_master_async_if._chan.retrieve_transfer_buffers_32.nstackwords
	.weak	_i.spi_master_async_if._chan.retrieve_transfer_buffers_32.nstackwords
	.set	_i.spi_master_async_if._chan.retrieve_transfer_buffers_32.maxcores,1
	.globl	_i.spi_master_async_if._chan.retrieve_transfer_buffers_32.maxcores
	.weak	_i.spi_master_async_if._chan.retrieve_transfer_buffers_32.maxcores
	.set	_i.spi_master_async_if._chan.retrieve_transfer_buffers_32.maxtimers,0
	.globl	_i.spi_master_async_if._chan.retrieve_transfer_buffers_32.maxtimers
	.weak	_i.spi_master_async_if._chan.retrieve_transfer_buffers_32.maxtimers
	.set	_i.spi_master_async_if._chan.retrieve_transfer_buffers_32.maxchanends,1
	.globl	_i.spi_master_async_if._chan.retrieve_transfer_buffers_32.maxchanends
	.weak	_i.spi_master_async_if._chan.retrieve_transfer_buffers_32.maxchanends
.Ltmp226:
	.size	_i.spi_master_async_if._chan.retrieve_transfer_buffers_32, .Ltmp226-_i.spi_master_async_if._chan.retrieve_transfer_buffers_32
	.cfi_endproc

	.weak	_i.spi_master_async_if._chan.retrieve_transfer_buffers_8
	.align	4
	.type	_i.spi_master_async_if._chan.retrieve_transfer_buffers_8,@function
	.cc_top _i.spi_master_async_if._chan.retrieve_transfer_buffers_8.function,_i.spi_master_async_if._chan.retrieve_transfer_buffers_8
_i.spi_master_async_if._chan.retrieve_transfer_buffers_8: # @_i.spi_master_async_if._chan.retrieve_transfer_buffers_8
	.cfi_startproc
	.issue_mode dual
# BB#0:                                 # %allocas
	#DEBUG_VALUE: _i.spi_master_async_if._chan.retrieve_transfer_buffers_8:dest <- R0
	#DEBUG_VALUE: _i.spi_master_async_if._chan.retrieve_transfer_buffers_8:clientNotifyFlag <- R1
	#DEBUG_VALUE: _i.spi_master_async_if._chan.retrieve_transfer_buffers_8:param2 <- R2
	#DEBUG_VALUE: _i.spi_master_async_if._chan.retrieve_transfer_buffers_8:param3 <- R3
	{
		getr r11, 2
		dualentsp 0
	}
	{
		setd res[r11], r0
		add r0, r11, 4
	}
	{
		out res[r11], r0
		nop
	}
	{
		outct res[r11], 2
		nop
	}
	{
		chkct res[r11], 1
		nop
	}
	{
		out res[r11], r1
		nop
	}
	#APP
	#NO_APP
	{
		out res[r11], r2
		nop
	}
	#APP
	#NO_APP
	{
		out res[r11], r3
		nop
	}
	{
		outct res[r11], 2
		nop
	}
	{
		in r0, res[r11]
		nop
	}
	{
		chkct res[r11], 1
		nop
	}
	{
		freer res[r11]
		retsp 0
	}
	# RETURN_REG_HOLDER
	.cc_bottom _i.spi_master_async_if._chan.retrieve_transfer_buffers_8.function
	.set	_i.spi_master_async_if._chan.retrieve_transfer_buffers_8.nstackwords,0
	.globl	_i.spi_master_async_if._chan.retrieve_transfer_buffers_8.nstackwords
	.weak	_i.spi_master_async_if._chan.retrieve_transfer_buffers_8.nstackwords
	.set	_i.spi_master_async_if._chan.retrieve_transfer_buffers_8.maxcores,1
	.globl	_i.spi_master_async_if._chan.retrieve_transfer_buffers_8.maxcores
	.weak	_i.spi_master_async_if._chan.retrieve_transfer_buffers_8.maxcores
	.set	_i.spi_master_async_if._chan.retrieve_transfer_buffers_8.maxtimers,0
	.globl	_i.spi_master_async_if._chan.retrieve_transfer_buffers_8.maxtimers
	.weak	_i.spi_master_async_if._chan.retrieve_transfer_buffers_8.maxtimers
	.set	_i.spi_master_async_if._chan.retrieve_transfer_buffers_8.maxchanends,1
	.globl	_i.spi_master_async_if._chan.retrieve_transfer_buffers_8.maxchanends
	.weak	_i.spi_master_async_if._chan.retrieve_transfer_buffers_8.maxchanends
.Ltmp227:
	.size	_i.spi_master_async_if._chan.retrieve_transfer_buffers_8, .Ltmp227-_i.spi_master_async_if._chan.retrieve_transfer_buffers_8
	.cfi_endproc

	.weak	_i.spi_master_async_if._chan.init_transfer_array_32
	.align	4
	.type	_i.spi_master_async_if._chan.init_transfer_array_32,@function
	.cc_top _i.spi_master_async_if._chan.init_transfer_array_32.function,_i.spi_master_async_if._chan.init_transfer_array_32
_i.spi_master_async_if._chan.init_transfer_array_32: # @_i.spi_master_async_if._chan.init_transfer_array_32
	.cfi_startproc
	.issue_mode dual
# BB#0:                                 # %allocas
	{
		nop
		dualentsp 0
	}
	{
		extsp 4
		nop
	}
.Ltmp228:
	.cfi_def_cfa_offset 16
	std r5, r4, sp[0]               # 4-byte Folded Spill
.Ltmp229:
	.cfi_offset 4, -16
.Ltmp230:
	.cfi_offset 5, -12
	std r7, r6, sp[1]               # 4-byte Folded Spill
.Ltmp231:
	.cfi_offset 6, -8
.Ltmp232:
	.cfi_offset 7, -4
	#DEBUG_VALUE: _i.spi_master_async_if._chan.init_transfer_array_32:dest <- R0
	#DEBUG_VALUE: _i.spi_master_async_if._chan.init_transfer_array_32:param3 <- R3
	{
		nop
		ldw r11, sp[8]
	}
	ldd r5, r4, sp[3]
	{
		getr r7, 2
		ldw r6, sp[5]
	}
	{
		setd res[r7], r0
		add r0, r7, 3
	}
	{
		out res[r7], r0
		nop
	}
	{
		outct res[r7], 2
		nop
	}
	{
		chkct res[r7], 1
		nop
	}
	#APP
	#NO_APP
	{
		out res[r7], r1
		nop
	}
	{
		out res[r7], r6
		nop
	}
	{
		out res[r7], r4
		nop
	}
	#APP
	#NO_APP
	{
		out res[r7], r2
		nop
	}
	{
		out res[r7], r5
		nop
	}
	{
		out res[r7], r11
		nop
	}
	{
		out res[r7], r3
		nop
	}
	{
		outct res[r7], 2
		nop
	}
	{
		in r0, res[r7]
		nop
	}
	{
		chkct res[r7], 1
		nop
	}
	{
		freer res[r7]
		nop
	}
	ldd r7, r6, sp[1]               # 4-byte Folded Reload
	ldd r5, r4, sp[0]               # 4-byte Folded Reload
	{
		ldaw sp, sp[4]
		nop
	}
	{
		nop
		retsp 0
	}
	# RETURN_REG_HOLDER
	.cc_bottom _i.spi_master_async_if._chan.init_transfer_array_32.function
	.set	_i.spi_master_async_if._chan.init_transfer_array_32.nstackwords,4
	.globl	_i.spi_master_async_if._chan.init_transfer_array_32.nstackwords
	.weak	_i.spi_master_async_if._chan.init_transfer_array_32.nstackwords
	.set	_i.spi_master_async_if._chan.init_transfer_array_32.maxcores,1
	.globl	_i.spi_master_async_if._chan.init_transfer_array_32.maxcores
	.weak	_i.spi_master_async_if._chan.init_transfer_array_32.maxcores
	.set	_i.spi_master_async_if._chan.init_transfer_array_32.maxtimers,0
	.globl	_i.spi_master_async_if._chan.init_transfer_array_32.maxtimers
	.weak	_i.spi_master_async_if._chan.init_transfer_array_32.maxtimers
	.set	_i.spi_master_async_if._chan.init_transfer_array_32.maxchanends,1
	.globl	_i.spi_master_async_if._chan.init_transfer_array_32.maxchanends
	.weak	_i.spi_master_async_if._chan.init_transfer_array_32.maxchanends
.Ltmp233:
	.size	_i.spi_master_async_if._chan.init_transfer_array_32, .Ltmp233-_i.spi_master_async_if._chan.init_transfer_array_32
	.cfi_endproc

	.weak	_i.spi_master_async_if._chan.init_transfer_array_8
	.align	4
	.type	_i.spi_master_async_if._chan.init_transfer_array_8,@function
	.cc_top _i.spi_master_async_if._chan.init_transfer_array_8.function,_i.spi_master_async_if._chan.init_transfer_array_8
_i.spi_master_async_if._chan.init_transfer_array_8: # @_i.spi_master_async_if._chan.init_transfer_array_8
	.cfi_startproc
	.issue_mode dual
# BB#0:                                 # %allocas
	{
		nop
		dualentsp 0
	}
	{
		extsp 4
		nop
	}
.Ltmp234:
	.cfi_def_cfa_offset 16
	std r5, r4, sp[0]               # 4-byte Folded Spill
.Ltmp235:
	.cfi_offset 4, -16
.Ltmp236:
	.cfi_offset 5, -12
	std r7, r6, sp[1]               # 4-byte Folded Spill
.Ltmp237:
	.cfi_offset 6, -8
.Ltmp238:
	.cfi_offset 7, -4
	#DEBUG_VALUE: _i.spi_master_async_if._chan.init_transfer_array_8:dest <- R0
	#DEBUG_VALUE: _i.spi_master_async_if._chan.init_transfer_array_8:param3 <- R3
	{
		nop
		ldw r11, sp[8]
	}
	ldd r5, r4, sp[3]
	{
		getr r7, 2
		ldw r6, sp[5]
	}
	{
		setd res[r7], r0
		add r0, r7, 2
	}
	{
		out res[r7], r0
		nop
	}
	{
		outct res[r7], 2
		nop
	}
	{
		chkct res[r7], 1
		nop
	}
	#APP
	#NO_APP
	{
		out res[r7], r1
		nop
	}
	{
		out res[r7], r6
		nop
	}
	{
		out res[r7], r4
		nop
	}
	#APP
	#NO_APP
	{
		out res[r7], r2
		nop
	}
	{
		out res[r7], r5
		nop
	}
	{
		out res[r7], r11
		nop
	}
	{
		out res[r7], r3
		nop
	}
	{
		outct res[r7], 2
		nop
	}
	{
		in r0, res[r7]
		nop
	}
	{
		chkct res[r7], 1
		nop
	}
	{
		freer res[r7]
		nop
	}
	ldd r7, r6, sp[1]               # 4-byte Folded Reload
	ldd r5, r4, sp[0]               # 4-byte Folded Reload
	{
		ldaw sp, sp[4]
		nop
	}
	{
		nop
		retsp 0
	}
	# RETURN_REG_HOLDER
	.cc_bottom _i.spi_master_async_if._chan.init_transfer_array_8.function
	.set	_i.spi_master_async_if._chan.init_transfer_array_8.nstackwords,4
	.globl	_i.spi_master_async_if._chan.init_transfer_array_8.nstackwords
	.weak	_i.spi_master_async_if._chan.init_transfer_array_8.nstackwords
	.set	_i.spi_master_async_if._chan.init_transfer_array_8.maxcores,1
	.globl	_i.spi_master_async_if._chan.init_transfer_array_8.maxcores
	.weak	_i.spi_master_async_if._chan.init_transfer_array_8.maxcores
	.set	_i.spi_master_async_if._chan.init_transfer_array_8.maxtimers,0
	.globl	_i.spi_master_async_if._chan.init_transfer_array_8.maxtimers
	.weak	_i.spi_master_async_if._chan.init_transfer_array_8.maxtimers
	.set	_i.spi_master_async_if._chan.init_transfer_array_8.maxchanends,1
	.globl	_i.spi_master_async_if._chan.init_transfer_array_8.maxchanends
	.weak	_i.spi_master_async_if._chan.init_transfer_array_8.maxchanends
.Ltmp239:
	.size	_i.spi_master_async_if._chan.init_transfer_array_8, .Ltmp239-_i.spi_master_async_if._chan.init_transfer_array_8
	.cfi_endproc

	.weak	_i.spi_master_async_if._chan.end_transaction
	.align	4
	.type	_i.spi_master_async_if._chan.end_transaction,@function
	.cc_top _i.spi_master_async_if._chan.end_transaction.function,_i.spi_master_async_if._chan.end_transaction
_i.spi_master_async_if._chan.end_transaction: # @_i.spi_master_async_if._chan.end_transaction
	.cfi_startproc
	.issue_mode dual
# BB#0:                                 # %allocas
	#DEBUG_VALUE: _i.spi_master_async_if._chan.end_transaction:dest <- R0
	#DEBUG_VALUE: _i.spi_master_async_if._chan.end_transaction:param1 <- R1
	{
		getr r2, 2
		dualentsp 0
	}
	{
		setd res[r2], r0
		add r0, r2, 1
	}
	{
		out res[r2], r0
		nop
	}
	{
		outct res[r2], 2
		nop
	}
	{
		chkct res[r2], 1
		nop
	}
	{
		out res[r2], r1
		nop
	}
	{
		outct res[r2], 2
		nop
	}
	{
		in r0, res[r2]
		nop
	}
	{
		chkct res[r2], 1
		nop
	}
	{
		freer res[r2]
		retsp 0
	}
	# RETURN_REG_HOLDER
	.cc_bottom _i.spi_master_async_if._chan.end_transaction.function
	.set	_i.spi_master_async_if._chan.end_transaction.nstackwords,0
	.globl	_i.spi_master_async_if._chan.end_transaction.nstackwords
	.weak	_i.spi_master_async_if._chan.end_transaction.nstackwords
	.set	_i.spi_master_async_if._chan.end_transaction.maxcores,1
	.globl	_i.spi_master_async_if._chan.end_transaction.maxcores
	.weak	_i.spi_master_async_if._chan.end_transaction.maxcores
	.set	_i.spi_master_async_if._chan.end_transaction.maxtimers,0
	.globl	_i.spi_master_async_if._chan.end_transaction.maxtimers
	.weak	_i.spi_master_async_if._chan.end_transaction.maxtimers
	.set	_i.spi_master_async_if._chan.end_transaction.maxchanends,1
	.globl	_i.spi_master_async_if._chan.end_transaction.maxchanends
	.weak	_i.spi_master_async_if._chan.end_transaction.maxchanends
.Ltmp240:
	.size	_i.spi_master_async_if._chan.end_transaction, .Ltmp240-_i.spi_master_async_if._chan.end_transaction
	.cfi_endproc

	.weak	_i.spi_master_async_if._chan.begin_transaction
	.align	4
	.type	_i.spi_master_async_if._chan.begin_transaction,@function
	.cc_top _i.spi_master_async_if._chan.begin_transaction.function,_i.spi_master_async_if._chan.begin_transaction
_i.spi_master_async_if._chan.begin_transaction: # @_i.spi_master_async_if._chan.begin_transaction
	.cfi_startproc
	.issue_mode dual
# BB#0:                                 # %allocas
	#DEBUG_VALUE: _i.spi_master_async_if._chan.begin_transaction:dest <- R0
	#DEBUG_VALUE: _i.spi_master_async_if._chan.begin_transaction:param1 <- R1
	#DEBUG_VALUE: _i.spi_master_async_if._chan.begin_transaction:param2 <- R2
	#DEBUG_VALUE: _i.spi_master_async_if._chan.begin_transaction:param3 <- R3
	{
		getr r11, 2
		dualentsp 0
	}
	{
		setd res[r11], r0
		nop
	}
	{
		out res[r11], r11
		nop
	}
	{
		outct res[r11], 2
		nop
	}
	{
		chkct res[r11], 1
		nop
	}
	{
		out res[r11], r1
		nop
	}
	{
		out res[r11], r2
		nop
	}
	{
		out res[r11], r3
		nop
	}
	{
		outct res[r11], 2
		nop
	}
	{
		in r0, res[r11]
		nop
	}
	{
		chkct res[r11], 1
		nop
	}
	{
		freer res[r11]
		retsp 0
	}
	# RETURN_REG_HOLDER
	.cc_bottom _i.spi_master_async_if._chan.begin_transaction.function
	.set	_i.spi_master_async_if._chan.begin_transaction.nstackwords,0
	.globl	_i.spi_master_async_if._chan.begin_transaction.nstackwords
	.weak	_i.spi_master_async_if._chan.begin_transaction.nstackwords
	.set	_i.spi_master_async_if._chan.begin_transaction.maxcores,1
	.globl	_i.spi_master_async_if._chan.begin_transaction.maxcores
	.weak	_i.spi_master_async_if._chan.begin_transaction.maxcores
	.set	_i.spi_master_async_if._chan.begin_transaction.maxtimers,0
	.globl	_i.spi_master_async_if._chan.begin_transaction.maxtimers
	.weak	_i.spi_master_async_if._chan.begin_transaction.maxtimers
	.set	_i.spi_master_async_if._chan.begin_transaction.maxchanends,1
	.globl	_i.spi_master_async_if._chan.begin_transaction.maxchanends
	.weak	_i.spi_master_async_if._chan.begin_transaction.maxchanends
.Ltmp241:
	.size	_i.spi_master_async_if._chan.begin_transaction, .Ltmp241-_i.spi_master_async_if._chan.begin_transaction
	.cfi_endproc

	.weak	_i.spi_master_async_if._chan_yield.retrieve_transfer_buffers_32
	.align	4
	.type	_i.spi_master_async_if._chan_yield.retrieve_transfer_buffers_32,@function
	.cc_top _i.spi_master_async_if._chan_yield.retrieve_transfer_buffers_32.function,_i.spi_master_async_if._chan_yield.retrieve_transfer_buffers_32
_i.spi_master_async_if._chan_yield.retrieve_transfer_buffers_32: # @_i.spi_master_async_if._chan_yield.retrieve_transfer_buffers_32
	.cfi_startproc
	.issue_mode dual
# BB#0:                                 # %allocas
	{
		nop
		dualentsp 4
	}
.Ltmp242:
	.cfi_def_cfa_offset 16
.Ltmp243:
	.cfi_offset 15, 0
	{
		nop
		stw r4, sp[2]
	}
.Ltmp244:
	.cfi_offset 4, -8
	#DEBUG_VALUE: _i.spi_master_async_if._chan_yield.retrieve_transfer_buffers_32:s <- R0
	#DEBUG_VALUE: _i.spi_master_async_if._chan_yield.retrieve_transfer_buffers_32:clientNotifyFlag <- R1
	#DEBUG_VALUE: _i.spi_master_async_if._chan_yield.retrieve_transfer_buffers_32:param2 <- R2
	#DEBUG_VALUE: _i.spi_master_async_if._chan_yield.retrieve_transfer_buffers_32:param3 <- R3
	{
		getr r4, 2
		ldw r11, r0[0]
	}
	{
		setd res[r4], r11
		add r11, r4, 5
	}
	{
		out res[r4], r11
		nop
	}
	{
		outct res[r4], 2
		nop
	}
	{
		chkct res[r4], 1
		nop
	}
	{
		out res[r4], r1
		nop
	}
	#APP
	#NO_APP
	{
		out res[r4], r2
		nop
	}
	#APP
	#NO_APP
	{
		out res[r4], r3
		nop
	}
	{
		outct res[r4], 2
		ldw r2, r0[1]
	}
	{
		ldc r1, 0
		mov r0, r4
	}
	bl __interface_client_call_y
	{
		chkct res[r4], 1
		nop
	}
	{
		freer res[r4]
		ldw r4, sp[2]
	}
	{
		nop
		retsp 4
	}
	# RETURN_REG_HOLDER
	.cc_bottom _i.spi_master_async_if._chan_yield.retrieve_transfer_buffers_32.function
	.set	_i.spi_master_async_if._chan_yield.retrieve_transfer_buffers_32.nstackwords,((_i.spi_master_async_if._client_call_y.max.nstackwords $M ($D __interface_client_call_y.nstackwords ? __interface_client_call_y.nstackwords $: _i.spi_master_async_if._client_call_y.max.nstackwords)) + 4)
	.globl	_i.spi_master_async_if._chan_yield.retrieve_transfer_buffers_32.nstackwords
	.weak	_i.spi_master_async_if._chan_yield.retrieve_transfer_buffers_32.nstackwords
	.set	_i.spi_master_async_if._chan_yield.retrieve_transfer_buffers_32.maxcores,($D __interface_client_call_y.maxcores ? __interface_client_call_y.maxcores $: _i.spi_master_async_if._client_call_y.max.maxcores) $M 1
	.globl	_i.spi_master_async_if._chan_yield.retrieve_transfer_buffers_32.maxcores
	.weak	_i.spi_master_async_if._chan_yield.retrieve_transfer_buffers_32.maxcores
	.set	_i.spi_master_async_if._chan_yield.retrieve_transfer_buffers_32.maxtimers,($D __interface_client_call_y.maxtimers ? __interface_client_call_y.maxtimers $: _i.spi_master_async_if._client_call_y.max.maxtimers) $M 0
	.globl	_i.spi_master_async_if._chan_yield.retrieve_transfer_buffers_32.maxtimers
	.weak	_i.spi_master_async_if._chan_yield.retrieve_transfer_buffers_32.maxtimers
	.set	_i.spi_master_async_if._chan_yield.retrieve_transfer_buffers_32.maxchanends,(1 + ($D __interface_client_call_y.maxchanends ? __interface_client_call_y.maxchanends $: _i.spi_master_async_if._client_call_y.max.maxchanends)) $M 1
	.globl	_i.spi_master_async_if._chan_yield.retrieve_transfer_buffers_32.maxchanends
	.weak	_i.spi_master_async_if._chan_yield.retrieve_transfer_buffers_32.maxchanends
.Ltmp245:
	.size	_i.spi_master_async_if._chan_yield.retrieve_transfer_buffers_32, .Ltmp245-_i.spi_master_async_if._chan_yield.retrieve_transfer_buffers_32
	.cfi_endproc

	.weak	_i.spi_master_async_if._chan_yield.retrieve_transfer_buffers_8
	.align	4
	.type	_i.spi_master_async_if._chan_yield.retrieve_transfer_buffers_8,@function
	.cc_top _i.spi_master_async_if._chan_yield.retrieve_transfer_buffers_8.function,_i.spi_master_async_if._chan_yield.retrieve_transfer_buffers_8
_i.spi_master_async_if._chan_yield.retrieve_transfer_buffers_8: # @_i.spi_master_async_if._chan_yield.retrieve_transfer_buffers_8
	.cfi_startproc
	.issue_mode dual
# BB#0:                                 # %allocas
	{
		nop
		dualentsp 4
	}
.Ltmp246:
	.cfi_def_cfa_offset 16
.Ltmp247:
	.cfi_offset 15, 0
	{
		nop
		stw r4, sp[2]
	}
.Ltmp248:
	.cfi_offset 4, -8
	#DEBUG_VALUE: _i.spi_master_async_if._chan_yield.retrieve_transfer_buffers_8:s <- R0
	#DEBUG_VALUE: _i.spi_master_async_if._chan_yield.retrieve_transfer_buffers_8:clientNotifyFlag <- R1
	#DEBUG_VALUE: _i.spi_master_async_if._chan_yield.retrieve_transfer_buffers_8:param2 <- R2
	#DEBUG_VALUE: _i.spi_master_async_if._chan_yield.retrieve_transfer_buffers_8:param3 <- R3
	{
		getr r4, 2
		ldw r11, r0[0]
	}
	{
		setd res[r4], r11
		add r11, r4, 4
	}
	{
		out res[r4], r11
		nop
	}
	{
		outct res[r4], 2
		nop
	}
	{
		chkct res[r4], 1
		nop
	}
	{
		out res[r4], r1
		nop
	}
	#APP
	#NO_APP
	{
		out res[r4], r2
		nop
	}
	#APP
	#NO_APP
	{
		out res[r4], r3
		nop
	}
	{
		outct res[r4], 2
		ldw r2, r0[1]
	}
	{
		ldc r1, 0
		mov r0, r4
	}
	bl __interface_client_call_y
	{
		chkct res[r4], 1
		nop
	}
	{
		freer res[r4]
		ldw r4, sp[2]
	}
	{
		nop
		retsp 4
	}
	# RETURN_REG_HOLDER
	.cc_bottom _i.spi_master_async_if._chan_yield.retrieve_transfer_buffers_8.function
	.set	_i.spi_master_async_if._chan_yield.retrieve_transfer_buffers_8.nstackwords,((_i.spi_master_async_if._client_call_y.max.nstackwords $M ($D __interface_client_call_y.nstackwords ? __interface_client_call_y.nstackwords $: _i.spi_master_async_if._client_call_y.max.nstackwords)) + 4)
	.globl	_i.spi_master_async_if._chan_yield.retrieve_transfer_buffers_8.nstackwords
	.weak	_i.spi_master_async_if._chan_yield.retrieve_transfer_buffers_8.nstackwords
	.set	_i.spi_master_async_if._chan_yield.retrieve_transfer_buffers_8.maxcores,($D __interface_client_call_y.maxcores ? __interface_client_call_y.maxcores $: _i.spi_master_async_if._client_call_y.max.maxcores) $M 1
	.globl	_i.spi_master_async_if._chan_yield.retrieve_transfer_buffers_8.maxcores
	.weak	_i.spi_master_async_if._chan_yield.retrieve_transfer_buffers_8.maxcores
	.set	_i.spi_master_async_if._chan_yield.retrieve_transfer_buffers_8.maxtimers,($D __interface_client_call_y.maxtimers ? __interface_client_call_y.maxtimers $: _i.spi_master_async_if._client_call_y.max.maxtimers) $M 0
	.globl	_i.spi_master_async_if._chan_yield.retrieve_transfer_buffers_8.maxtimers
	.weak	_i.spi_master_async_if._chan_yield.retrieve_transfer_buffers_8.maxtimers
	.set	_i.spi_master_async_if._chan_yield.retrieve_transfer_buffers_8.maxchanends,(1 + ($D __interface_client_call_y.maxchanends ? __interface_client_call_y.maxchanends $: _i.spi_master_async_if._client_call_y.max.maxchanends)) $M 1
	.globl	_i.spi_master_async_if._chan_yield.retrieve_transfer_buffers_8.maxchanends
	.weak	_i.spi_master_async_if._chan_yield.retrieve_transfer_buffers_8.maxchanends
.Ltmp249:
	.size	_i.spi_master_async_if._chan_yield.retrieve_transfer_buffers_8, .Ltmp249-_i.spi_master_async_if._chan_yield.retrieve_transfer_buffers_8
	.cfi_endproc

	.weak	_i.spi_master_async_if._chan_yield.init_transfer_array_32
	.align	4
	.type	_i.spi_master_async_if._chan_yield.init_transfer_array_32,@function
	.cc_top _i.spi_master_async_if._chan_yield.init_transfer_array_32.function,_i.spi_master_async_if._chan_yield.init_transfer_array_32
_i.spi_master_async_if._chan_yield.init_transfer_array_32: # @_i.spi_master_async_if._chan_yield.init_transfer_array_32
	.cfi_startproc
	.issue_mode dual
# BB#0:                                 # %allocas
	{
		nop
		dualentsp 8
	}
.Ltmp250:
	.cfi_def_cfa_offset 32
.Ltmp251:
	.cfi_offset 15, 0
	std r5, r4, sp[1]               # 4-byte Folded Spill
.Ltmp252:
	.cfi_offset 4, -24
.Ltmp253:
	.cfi_offset 5, -20
	std r7, r6, sp[2]               # 4-byte Folded Spill
.Ltmp254:
	.cfi_offset 6, -16
.Ltmp255:
	.cfi_offset 7, -12
	{
		nop
		stw r8, sp[6]
	}
.Ltmp256:
	.cfi_offset 8, -8
	#DEBUG_VALUE: _i.spi_master_async_if._chan_yield.init_transfer_array_32:s <- R0
	#DEBUG_VALUE: _i.spi_master_async_if._chan_yield.init_transfer_array_32:param3 <- R3
	{
		nop
		ldw r11, sp[12]
	}
	ldd r6, r5, sp[5]
	{
		nop
		ldw r7, sp[9]
	}
	{
		getr r4, 2
		ldw r8, r0[0]
	}
	{
		setd res[r4], r8
		add r8, r4, 3
	}
	{
		out res[r4], r8
		nop
	}
	{
		outct res[r4], 2
		nop
	}
	{
		chkct res[r4], 1
		nop
	}
	#APP
	#NO_APP
	{
		out res[r4], r1
		nop
	}
	{
		out res[r4], r7
		nop
	}
	{
		out res[r4], r5
		nop
	}
	#APP
	#NO_APP
	{
		out res[r4], r2
		nop
	}
	{
		out res[r4], r6
		nop
	}
	{
		out res[r4], r11
		nop
	}
	{
		out res[r4], r3
		nop
	}
	{
		outct res[r4], 2
		ldw r2, r0[1]
	}
	{
		ldc r1, 0
		mov r0, r4
	}
	bl __interface_client_call_y
	{
		chkct res[r4], 1
		nop
	}
	{
		freer res[r4]
		ldw r8, sp[6]
	}
	ldd r7, r6, sp[2]               # 4-byte Folded Reload
	ldd r5, r4, sp[1]               # 4-byte Folded Reload
	{
		nop
		retsp 8
	}
	# RETURN_REG_HOLDER
	.cc_bottom _i.spi_master_async_if._chan_yield.init_transfer_array_32.function
	.set	_i.spi_master_async_if._chan_yield.init_transfer_array_32.nstackwords,((_i.spi_master_async_if._client_call_y.max.nstackwords $M ($D __interface_client_call_y.nstackwords ? __interface_client_call_y.nstackwords $: _i.spi_master_async_if._client_call_y.max.nstackwords)) + 8)
	.globl	_i.spi_master_async_if._chan_yield.init_transfer_array_32.nstackwords
	.weak	_i.spi_master_async_if._chan_yield.init_transfer_array_32.nstackwords
	.set	_i.spi_master_async_if._chan_yield.init_transfer_array_32.maxcores,($D __interface_client_call_y.maxcores ? __interface_client_call_y.maxcores $: _i.spi_master_async_if._client_call_y.max.maxcores) $M 1
	.globl	_i.spi_master_async_if._chan_yield.init_transfer_array_32.maxcores
	.weak	_i.spi_master_async_if._chan_yield.init_transfer_array_32.maxcores
	.set	_i.spi_master_async_if._chan_yield.init_transfer_array_32.maxtimers,($D __interface_client_call_y.maxtimers ? __interface_client_call_y.maxtimers $: _i.spi_master_async_if._client_call_y.max.maxtimers) $M 0
	.globl	_i.spi_master_async_if._chan_yield.init_transfer_array_32.maxtimers
	.weak	_i.spi_master_async_if._chan_yield.init_transfer_array_32.maxtimers
	.set	_i.spi_master_async_if._chan_yield.init_transfer_array_32.maxchanends,(1 + ($D __interface_client_call_y.maxchanends ? __interface_client_call_y.maxchanends $: _i.spi_master_async_if._client_call_y.max.maxchanends)) $M 1
	.globl	_i.spi_master_async_if._chan_yield.init_transfer_array_32.maxchanends
	.weak	_i.spi_master_async_if._chan_yield.init_transfer_array_32.maxchanends
.Ltmp257:
	.size	_i.spi_master_async_if._chan_yield.init_transfer_array_32, .Ltmp257-_i.spi_master_async_if._chan_yield.init_transfer_array_32
	.cfi_endproc

	.weak	_i.spi_master_async_if._chan_yield.init_transfer_array_8
	.align	4
	.type	_i.spi_master_async_if._chan_yield.init_transfer_array_8,@function
	.cc_top _i.spi_master_async_if._chan_yield.init_transfer_array_8.function,_i.spi_master_async_if._chan_yield.init_transfer_array_8
_i.spi_master_async_if._chan_yield.init_transfer_array_8: # @_i.spi_master_async_if._chan_yield.init_transfer_array_8
	.cfi_startproc
	.issue_mode dual
# BB#0:                                 # %allocas
	{
		nop
		dualentsp 8
	}
.Ltmp258:
	.cfi_def_cfa_offset 32
.Ltmp259:
	.cfi_offset 15, 0
	std r5, r4, sp[1]               # 4-byte Folded Spill
.Ltmp260:
	.cfi_offset 4, -24
.Ltmp261:
	.cfi_offset 5, -20
	std r7, r6, sp[2]               # 4-byte Folded Spill
.Ltmp262:
	.cfi_offset 6, -16
.Ltmp263:
	.cfi_offset 7, -12
	{
		nop
		stw r8, sp[6]
	}
.Ltmp264:
	.cfi_offset 8, -8
	#DEBUG_VALUE: _i.spi_master_async_if._chan_yield.init_transfer_array_8:s <- R0
	#DEBUG_VALUE: _i.spi_master_async_if._chan_yield.init_transfer_array_8:param3 <- R3
	{
		nop
		ldw r11, sp[12]
	}
	ldd r6, r5, sp[5]
	{
		nop
		ldw r7, sp[9]
	}
	{
		getr r4, 2
		ldw r8, r0[0]
	}
	{
		setd res[r4], r8
		add r8, r4, 2
	}
	{
		out res[r4], r8
		nop
	}
	{
		outct res[r4], 2
		nop
	}
	{
		chkct res[r4], 1
		nop
	}
	#APP
	#NO_APP
	{
		out res[r4], r1
		nop
	}
	{
		out res[r4], r7
		nop
	}
	{
		out res[r4], r5
		nop
	}
	#APP
	#NO_APP
	{
		out res[r4], r2
		nop
	}
	{
		out res[r4], r6
		nop
	}
	{
		out res[r4], r11
		nop
	}
	{
		out res[r4], r3
		nop
	}
	{
		outct res[r4], 2
		ldw r2, r0[1]
	}
	{
		ldc r1, 0
		mov r0, r4
	}
	bl __interface_client_call_y
	{
		chkct res[r4], 1
		nop
	}
	{
		freer res[r4]
		ldw r8, sp[6]
	}
	ldd r7, r6, sp[2]               # 4-byte Folded Reload
	ldd r5, r4, sp[1]               # 4-byte Folded Reload
	{
		nop
		retsp 8
	}
	# RETURN_REG_HOLDER
	.cc_bottom _i.spi_master_async_if._chan_yield.init_transfer_array_8.function
	.set	_i.spi_master_async_if._chan_yield.init_transfer_array_8.nstackwords,((_i.spi_master_async_if._client_call_y.max.nstackwords $M ($D __interface_client_call_y.nstackwords ? __interface_client_call_y.nstackwords $: _i.spi_master_async_if._client_call_y.max.nstackwords)) + 8)
	.globl	_i.spi_master_async_if._chan_yield.init_transfer_array_8.nstackwords
	.weak	_i.spi_master_async_if._chan_yield.init_transfer_array_8.nstackwords
	.set	_i.spi_master_async_if._chan_yield.init_transfer_array_8.maxcores,($D __interface_client_call_y.maxcores ? __interface_client_call_y.maxcores $: _i.spi_master_async_if._client_call_y.max.maxcores) $M 1
	.globl	_i.spi_master_async_if._chan_yield.init_transfer_array_8.maxcores
	.weak	_i.spi_master_async_if._chan_yield.init_transfer_array_8.maxcores
	.set	_i.spi_master_async_if._chan_yield.init_transfer_array_8.maxtimers,($D __interface_client_call_y.maxtimers ? __interface_client_call_y.maxtimers $: _i.spi_master_async_if._client_call_y.max.maxtimers) $M 0
	.globl	_i.spi_master_async_if._chan_yield.init_transfer_array_8.maxtimers
	.weak	_i.spi_master_async_if._chan_yield.init_transfer_array_8.maxtimers
	.set	_i.spi_master_async_if._chan_yield.init_transfer_array_8.maxchanends,(1 + ($D __interface_client_call_y.maxchanends ? __interface_client_call_y.maxchanends $: _i.spi_master_async_if._client_call_y.max.maxchanends)) $M 1
	.globl	_i.spi_master_async_if._chan_yield.init_transfer_array_8.maxchanends
	.weak	_i.spi_master_async_if._chan_yield.init_transfer_array_8.maxchanends
.Ltmp265:
	.size	_i.spi_master_async_if._chan_yield.init_transfer_array_8, .Ltmp265-_i.spi_master_async_if._chan_yield.init_transfer_array_8
	.cfi_endproc

	.weak	_i.spi_master_async_if._chan_yield.end_transaction
	.align	4
	.type	_i.spi_master_async_if._chan_yield.end_transaction,@function
	.cc_top _i.spi_master_async_if._chan_yield.end_transaction.function,_i.spi_master_async_if._chan_yield.end_transaction
_i.spi_master_async_if._chan_yield.end_transaction: # @_i.spi_master_async_if._chan_yield.end_transaction
	.cfi_startproc
	.issue_mode dual
# BB#0:                                 # %allocas
	{
		nop
		dualentsp 4
	}
.Ltmp266:
	.cfi_def_cfa_offset 16
.Ltmp267:
	.cfi_offset 15, 0
	{
		nop
		stw r4, sp[2]
	}
.Ltmp268:
	.cfi_offset 4, -8
	#DEBUG_VALUE: _i.spi_master_async_if._chan_yield.end_transaction:s <- R0
	#DEBUG_VALUE: _i.spi_master_async_if._chan_yield.end_transaction:param1 <- R1
	{
		getr r4, 2
		ldw r2, r0[0]
	}
	{
		setd res[r4], r2
		add r2, r4, 1
	}
	{
		out res[r4], r2
		nop
	}
	{
		outct res[r4], 2
		nop
	}
	{
		chkct res[r4], 1
		nop
	}
	{
		out res[r4], r1
		nop
	}
	{
		outct res[r4], 2
		ldw r2, r0[1]
	}
	{
		ldc r1, 0
		mov r0, r4
	}
	bl __interface_client_call_y
	{
		chkct res[r4], 1
		nop
	}
	{
		freer res[r4]
		ldw r4, sp[2]
	}
	{
		nop
		retsp 4
	}
	# RETURN_REG_HOLDER
	.cc_bottom _i.spi_master_async_if._chan_yield.end_transaction.function
	.set	_i.spi_master_async_if._chan_yield.end_transaction.nstackwords,((_i.spi_master_async_if._client_call_y.max.nstackwords $M ($D __interface_client_call_y.nstackwords ? __interface_client_call_y.nstackwords $: _i.spi_master_async_if._client_call_y.max.nstackwords)) + 4)
	.globl	_i.spi_master_async_if._chan_yield.end_transaction.nstackwords
	.weak	_i.spi_master_async_if._chan_yield.end_transaction.nstackwords
	.set	_i.spi_master_async_if._chan_yield.end_transaction.maxcores,($D __interface_client_call_y.maxcores ? __interface_client_call_y.maxcores $: _i.spi_master_async_if._client_call_y.max.maxcores) $M 1
	.globl	_i.spi_master_async_if._chan_yield.end_transaction.maxcores
	.weak	_i.spi_master_async_if._chan_yield.end_transaction.maxcores
	.set	_i.spi_master_async_if._chan_yield.end_transaction.maxtimers,($D __interface_client_call_y.maxtimers ? __interface_client_call_y.maxtimers $: _i.spi_master_async_if._client_call_y.max.maxtimers) $M 0
	.globl	_i.spi_master_async_if._chan_yield.end_transaction.maxtimers
	.weak	_i.spi_master_async_if._chan_yield.end_transaction.maxtimers
	.set	_i.spi_master_async_if._chan_yield.end_transaction.maxchanends,(1 + ($D __interface_client_call_y.maxchanends ? __interface_client_call_y.maxchanends $: _i.spi_master_async_if._client_call_y.max.maxchanends)) $M 1
	.globl	_i.spi_master_async_if._chan_yield.end_transaction.maxchanends
	.weak	_i.spi_master_async_if._chan_yield.end_transaction.maxchanends
.Ltmp269:
	.size	_i.spi_master_async_if._chan_yield.end_transaction, .Ltmp269-_i.spi_master_async_if._chan_yield.end_transaction
	.cfi_endproc

	.weak	_i.spi_master_async_if._chan_yield.begin_transaction
	.align	4
	.type	_i.spi_master_async_if._chan_yield.begin_transaction,@function
	.cc_top _i.spi_master_async_if._chan_yield.begin_transaction.function,_i.spi_master_async_if._chan_yield.begin_transaction
_i.spi_master_async_if._chan_yield.begin_transaction: # @_i.spi_master_async_if._chan_yield.begin_transaction
	.cfi_startproc
	.issue_mode dual
# BB#0:                                 # %allocas
	{
		nop
		dualentsp 4
	}
.Ltmp270:
	.cfi_def_cfa_offset 16
.Ltmp271:
	.cfi_offset 15, 0
	{
		nop
		stw r4, sp[2]
	}
.Ltmp272:
	.cfi_offset 4, -8
	#DEBUG_VALUE: _i.spi_master_async_if._chan_yield.begin_transaction:s <- R0
	#DEBUG_VALUE: _i.spi_master_async_if._chan_yield.begin_transaction:param1 <- R1
	#DEBUG_VALUE: _i.spi_master_async_if._chan_yield.begin_transaction:param2 <- R2
	#DEBUG_VALUE: _i.spi_master_async_if._chan_yield.begin_transaction:param3 <- R3
	{
		getr r4, 2
		ldw r11, r0[0]
	}
	{
		setd res[r4], r11
		nop
	}
	{
		out res[r4], r4
		nop
	}
	{
		outct res[r4], 2
		nop
	}
	{
		chkct res[r4], 1
		nop
	}
	{
		out res[r4], r1
		nop
	}
	{
		out res[r4], r2
		nop
	}
	{
		out res[r4], r3
		nop
	}
	{
		outct res[r4], 2
		ldw r2, r0[1]
	}
	{
		ldc r1, 0
		mov r0, r4
	}
	bl __interface_client_call_y
	{
		chkct res[r4], 1
		nop
	}
	{
		freer res[r4]
		ldw r4, sp[2]
	}
	{
		nop
		retsp 4
	}
	# RETURN_REG_HOLDER
	.cc_bottom _i.spi_master_async_if._chan_yield.begin_transaction.function
	.set	_i.spi_master_async_if._chan_yield.begin_transaction.nstackwords,((_i.spi_master_async_if._client_call_y.max.nstackwords $M ($D __interface_client_call_y.nstackwords ? __interface_client_call_y.nstackwords $: _i.spi_master_async_if._client_call_y.max.nstackwords)) + 4)
	.globl	_i.spi_master_async_if._chan_yield.begin_transaction.nstackwords
	.weak	_i.spi_master_async_if._chan_yield.begin_transaction.nstackwords
	.set	_i.spi_master_async_if._chan_yield.begin_transaction.maxcores,($D __interface_client_call_y.maxcores ? __interface_client_call_y.maxcores $: _i.spi_master_async_if._client_call_y.max.maxcores) $M 1
	.globl	_i.spi_master_async_if._chan_yield.begin_transaction.maxcores
	.weak	_i.spi_master_async_if._chan_yield.begin_transaction.maxcores
	.set	_i.spi_master_async_if._chan_yield.begin_transaction.maxtimers,($D __interface_client_call_y.maxtimers ? __interface_client_call_y.maxtimers $: _i.spi_master_async_if._client_call_y.max.maxtimers) $M 0
	.globl	_i.spi_master_async_if._chan_yield.begin_transaction.maxtimers
	.weak	_i.spi_master_async_if._chan_yield.begin_transaction.maxtimers
	.set	_i.spi_master_async_if._chan_yield.begin_transaction.maxchanends,(1 + ($D __interface_client_call_y.maxchanends ? __interface_client_call_y.maxchanends $: _i.spi_master_async_if._client_call_y.max.maxchanends)) $M 1
	.globl	_i.spi_master_async_if._chan_yield.begin_transaction.maxchanends
	.weak	_i.spi_master_async_if._chan_yield.begin_transaction.maxchanends
.Ltmp273:
	.size	_i.spi_master_async_if._chan_yield.begin_transaction, .Ltmp273-_i.spi_master_async_if._chan_yield.begin_transaction
	.cfi_endproc

	.weak	_i.spi_slave_callback_if._chan.master_supplied_data
	.align	4
	.type	_i.spi_slave_callback_if._chan.master_supplied_data,@function
	.cc_top _i.spi_slave_callback_if._chan.master_supplied_data.function,_i.spi_slave_callback_if._chan.master_supplied_data
_i.spi_slave_callback_if._chan.master_supplied_data: # @_i.spi_slave_callback_if._chan.master_supplied_data
	.cfi_startproc
	.issue_mode dual
# BB#0:                                 # %allocas
	#DEBUG_VALUE: _i.spi_slave_callback_if._chan.master_supplied_data:dest <- R0
	#DEBUG_VALUE: _i.spi_slave_callback_if._chan.master_supplied_data:param1 <- R1
	#DEBUG_VALUE: _i.spi_slave_callback_if._chan.master_supplied_data:param2 <- R2
	{
		getr r3, 2
		dualentsp 0
	}
	{
		setd res[r3], r0
		add r0, r3, 2
	}
	{
		out res[r3], r0
		nop
	}
	{
		outct res[r3], 2
		nop
	}
	{
		chkct res[r3], 1
		nop
	}
	{
		out res[r3], r1
		nop
	}
	{
		out res[r3], r2
		nop
	}
	{
		outct res[r3], 2
		nop
	}
	{
		in r0, res[r3]
		nop
	}
	{
		chkct res[r3], 1
		nop
	}
	{
		freer res[r3]
		retsp 0
	}
	# RETURN_REG_HOLDER
	.cc_bottom _i.spi_slave_callback_if._chan.master_supplied_data.function
	.set	_i.spi_slave_callback_if._chan.master_supplied_data.nstackwords,0
	.globl	_i.spi_slave_callback_if._chan.master_supplied_data.nstackwords
	.weak	_i.spi_slave_callback_if._chan.master_supplied_data.nstackwords
	.set	_i.spi_slave_callback_if._chan.master_supplied_data.maxcores,1
	.globl	_i.spi_slave_callback_if._chan.master_supplied_data.maxcores
	.weak	_i.spi_slave_callback_if._chan.master_supplied_data.maxcores
	.set	_i.spi_slave_callback_if._chan.master_supplied_data.maxtimers,0
	.globl	_i.spi_slave_callback_if._chan.master_supplied_data.maxtimers
	.weak	_i.spi_slave_callback_if._chan.master_supplied_data.maxtimers
	.set	_i.spi_slave_callback_if._chan.master_supplied_data.maxchanends,1
	.globl	_i.spi_slave_callback_if._chan.master_supplied_data.maxchanends
	.weak	_i.spi_slave_callback_if._chan.master_supplied_data.maxchanends
.Ltmp274:
	.size	_i.spi_slave_callback_if._chan.master_supplied_data, .Ltmp274-_i.spi_slave_callback_if._chan.master_supplied_data
	.cfi_endproc

	.weak	_i.spi_slave_callback_if._chan.master_requires_data
	.align	4
	.type	_i.spi_slave_callback_if._chan.master_requires_data,@function
	.cc_top _i.spi_slave_callback_if._chan.master_requires_data.function,_i.spi_slave_callback_if._chan.master_requires_data
_i.spi_slave_callback_if._chan.master_requires_data: # @_i.spi_slave_callback_if._chan.master_requires_data
	.cfi_startproc
	.issue_mode dual
# BB#0:                                 # %allocas
	#DEBUG_VALUE: _i.spi_slave_callback_if._chan.master_requires_data:dest <- R0
	{
		getr r1, 2
		dualentsp 0
	}
	{
		setd res[r1], r0
		add r0, r1, 1
	}
	{
		out res[r1], r0
		nop
	}
	{
		outct res[r1], 2
		nop
	}
	{
		in r0, res[r1]
		nop
	}
	{
		in r0, res[r1]
		nop
	}
	{
		chkct res[r1], 1
		nop
	}
	{
		freer res[r1]
		retsp 0
	}
	# RETURN_REG_HOLDER
	.cc_bottom _i.spi_slave_callback_if._chan.master_requires_data.function
	.set	_i.spi_slave_callback_if._chan.master_requires_data.nstackwords,0
	.globl	_i.spi_slave_callback_if._chan.master_requires_data.nstackwords
	.weak	_i.spi_slave_callback_if._chan.master_requires_data.nstackwords
	.set	_i.spi_slave_callback_if._chan.master_requires_data.maxcores,1
	.globl	_i.spi_slave_callback_if._chan.master_requires_data.maxcores
	.weak	_i.spi_slave_callback_if._chan.master_requires_data.maxcores
	.set	_i.spi_slave_callback_if._chan.master_requires_data.maxtimers,0
	.globl	_i.spi_slave_callback_if._chan.master_requires_data.maxtimers
	.weak	_i.spi_slave_callback_if._chan.master_requires_data.maxtimers
	.set	_i.spi_slave_callback_if._chan.master_requires_data.maxchanends,1
	.globl	_i.spi_slave_callback_if._chan.master_requires_data.maxchanends
	.weak	_i.spi_slave_callback_if._chan.master_requires_data.maxchanends
.Ltmp275:
	.size	_i.spi_slave_callback_if._chan.master_requires_data, .Ltmp275-_i.spi_slave_callback_if._chan.master_requires_data
	.cfi_endproc

	.weak	_i.spi_slave_callback_if._chan.master_ends_transaction
	.align	4
	.type	_i.spi_slave_callback_if._chan.master_ends_transaction,@function
	.cc_top _i.spi_slave_callback_if._chan.master_ends_transaction.function,_i.spi_slave_callback_if._chan.master_ends_transaction
_i.spi_slave_callback_if._chan.master_ends_transaction: # @_i.spi_slave_callback_if._chan.master_ends_transaction
	.cfi_startproc
	.issue_mode dual
# BB#0:                                 # %allocas
	#DEBUG_VALUE: _i.spi_slave_callback_if._chan.master_ends_transaction:dest <- R0
	{
		getr r1, 2
		dualentsp 0
	}
	{
		setd res[r1], r0
		nop
	}
	{
		out res[r1], r1
		nop
	}
	{
		outct res[r1], 2
		nop
	}
	{
		in r0, res[r1]
		nop
	}
	{
		chkct res[r1], 1
		nop
	}
	{
		freer res[r1]
		retsp 0
	}
	# RETURN_REG_HOLDER
	.cc_bottom _i.spi_slave_callback_if._chan.master_ends_transaction.function
	.set	_i.spi_slave_callback_if._chan.master_ends_transaction.nstackwords,0
	.globl	_i.spi_slave_callback_if._chan.master_ends_transaction.nstackwords
	.weak	_i.spi_slave_callback_if._chan.master_ends_transaction.nstackwords
	.set	_i.spi_slave_callback_if._chan.master_ends_transaction.maxcores,1
	.globl	_i.spi_slave_callback_if._chan.master_ends_transaction.maxcores
	.weak	_i.spi_slave_callback_if._chan.master_ends_transaction.maxcores
	.set	_i.spi_slave_callback_if._chan.master_ends_transaction.maxtimers,0
	.globl	_i.spi_slave_callback_if._chan.master_ends_transaction.maxtimers
	.weak	_i.spi_slave_callback_if._chan.master_ends_transaction.maxtimers
	.set	_i.spi_slave_callback_if._chan.master_ends_transaction.maxchanends,1
	.globl	_i.spi_slave_callback_if._chan.master_ends_transaction.maxchanends
	.weak	_i.spi_slave_callback_if._chan.master_ends_transaction.maxchanends
.Ltmp276:
	.size	_i.spi_slave_callback_if._chan.master_ends_transaction, .Ltmp276-_i.spi_slave_callback_if._chan.master_ends_transaction
	.cfi_endproc

	.weak	_i.spi_slave_callback_if._chan_yield.master_supplied_data
	.align	4
	.type	_i.spi_slave_callback_if._chan_yield.master_supplied_data,@function
	.cc_top _i.spi_slave_callback_if._chan_yield.master_supplied_data.function,_i.spi_slave_callback_if._chan_yield.master_supplied_data
_i.spi_slave_callback_if._chan_yield.master_supplied_data: # @_i.spi_slave_callback_if._chan_yield.master_supplied_data
	.cfi_startproc
	.issue_mode dual
# BB#0:                                 # %allocas
	{
		nop
		dualentsp 4
	}
.Ltmp277:
	.cfi_def_cfa_offset 16
.Ltmp278:
	.cfi_offset 15, 0
	{
		nop
		stw r4, sp[2]
	}
.Ltmp279:
	.cfi_offset 4, -8
	#DEBUG_VALUE: _i.spi_slave_callback_if._chan_yield.master_supplied_data:s <- R0
	#DEBUG_VALUE: _i.spi_slave_callback_if._chan_yield.master_supplied_data:param1 <- R1
	#DEBUG_VALUE: _i.spi_slave_callback_if._chan_yield.master_supplied_data:param2 <- R2
	{
		getr r4, 2
		ldw r3, r0[0]
	}
	{
		setd res[r4], r3
		add r3, r4, 2
	}
	{
		out res[r4], r3
		nop
	}
	{
		outct res[r4], 2
		nop
	}
	{
		chkct res[r4], 1
		nop
	}
	{
		out res[r4], r1
		nop
	}
	{
		out res[r4], r2
		nop
	}
	{
		outct res[r4], 2
		ldw r2, r0[1]
	}
	{
		ldc r1, 0
		mov r0, r4
	}
	bl __interface_client_call_y
	{
		chkct res[r4], 1
		nop
	}
	{
		freer res[r4]
		ldw r4, sp[2]
	}
	{
		nop
		retsp 4
	}
	# RETURN_REG_HOLDER
	.cc_bottom _i.spi_slave_callback_if._chan_yield.master_supplied_data.function
	.set	_i.spi_slave_callback_if._chan_yield.master_supplied_data.nstackwords,((_i.spi_slave_callback_if._client_call_y.max.nstackwords $M ($D __interface_client_call_y.nstackwords ? __interface_client_call_y.nstackwords $: _i.spi_slave_callback_if._client_call_y.max.nstackwords)) + 4)
	.globl	_i.spi_slave_callback_if._chan_yield.master_supplied_data.nstackwords
	.weak	_i.spi_slave_callback_if._chan_yield.master_supplied_data.nstackwords
	.set	_i.spi_slave_callback_if._chan_yield.master_supplied_data.maxcores,($D __interface_client_call_y.maxcores ? __interface_client_call_y.maxcores $: _i.spi_slave_callback_if._client_call_y.max.maxcores) $M 1
	.globl	_i.spi_slave_callback_if._chan_yield.master_supplied_data.maxcores
	.weak	_i.spi_slave_callback_if._chan_yield.master_supplied_data.maxcores
	.set	_i.spi_slave_callback_if._chan_yield.master_supplied_data.maxtimers,($D __interface_client_call_y.maxtimers ? __interface_client_call_y.maxtimers $: _i.spi_slave_callback_if._client_call_y.max.maxtimers) $M 0
	.globl	_i.spi_slave_callback_if._chan_yield.master_supplied_data.maxtimers
	.weak	_i.spi_slave_callback_if._chan_yield.master_supplied_data.maxtimers
	.set	_i.spi_slave_callback_if._chan_yield.master_supplied_data.maxchanends,(1 + ($D __interface_client_call_y.maxchanends ? __interface_client_call_y.maxchanends $: _i.spi_slave_callback_if._client_call_y.max.maxchanends)) $M 1
	.globl	_i.spi_slave_callback_if._chan_yield.master_supplied_data.maxchanends
	.weak	_i.spi_slave_callback_if._chan_yield.master_supplied_data.maxchanends
.Ltmp280:
	.size	_i.spi_slave_callback_if._chan_yield.master_supplied_data, .Ltmp280-_i.spi_slave_callback_if._chan_yield.master_supplied_data
	.cfi_endproc

	.weak	_i.spi_slave_callback_if._chan_yield.master_requires_data
	.align	4
	.type	_i.spi_slave_callback_if._chan_yield.master_requires_data,@function
	.cc_top _i.spi_slave_callback_if._chan_yield.master_requires_data.function,_i.spi_slave_callback_if._chan_yield.master_requires_data
_i.spi_slave_callback_if._chan_yield.master_requires_data: # @_i.spi_slave_callback_if._chan_yield.master_requires_data
	.cfi_startproc
	.issue_mode dual
# BB#0:                                 # %allocas
	{
		nop
		dualentsp 4
	}
.Ltmp281:
	.cfi_def_cfa_offset 16
.Ltmp282:
	.cfi_offset 15, 0
	{
		nop
		stw r4, sp[2]
	}
.Ltmp283:
	.cfi_offset 4, -8
	#DEBUG_VALUE: _i.spi_slave_callback_if._chan_yield.master_requires_data:s <- R0
	{
		getr r4, 2
		ldw r1, r0[0]
	}
	{
		setd res[r4], r1
		add r1, r4, 1
	}
	{
		out res[r4], r1
		nop
	}
	{
		outct res[r4], 2
		ldw r2, r0[1]
	}
	{
		ldc r1, 0
		mov r0, r4
	}
	bl __interface_client_call_y
	{
		in r0, res[r4]
		nop
	}
	{
		chkct res[r4], 1
		nop
	}
	{
		freer res[r4]
		ldw r4, sp[2]
	}
	{
		nop
		retsp 4
	}
	# RETURN_REG_HOLDER
	.cc_bottom _i.spi_slave_callback_if._chan_yield.master_requires_data.function
	.set	_i.spi_slave_callback_if._chan_yield.master_requires_data.nstackwords,((_i.spi_slave_callback_if._client_call_y.max.nstackwords $M ($D __interface_client_call_y.nstackwords ? __interface_client_call_y.nstackwords $: _i.spi_slave_callback_if._client_call_y.max.nstackwords)) + 4)
	.globl	_i.spi_slave_callback_if._chan_yield.master_requires_data.nstackwords
	.weak	_i.spi_slave_callback_if._chan_yield.master_requires_data.nstackwords
	.set	_i.spi_slave_callback_if._chan_yield.master_requires_data.maxcores,($D __interface_client_call_y.maxcores ? __interface_client_call_y.maxcores $: _i.spi_slave_callback_if._client_call_y.max.maxcores) $M 1
	.globl	_i.spi_slave_callback_if._chan_yield.master_requires_data.maxcores
	.weak	_i.spi_slave_callback_if._chan_yield.master_requires_data.maxcores
	.set	_i.spi_slave_callback_if._chan_yield.master_requires_data.maxtimers,($D __interface_client_call_y.maxtimers ? __interface_client_call_y.maxtimers $: _i.spi_slave_callback_if._client_call_y.max.maxtimers) $M 0
	.globl	_i.spi_slave_callback_if._chan_yield.master_requires_data.maxtimers
	.weak	_i.spi_slave_callback_if._chan_yield.master_requires_data.maxtimers
	.set	_i.spi_slave_callback_if._chan_yield.master_requires_data.maxchanends,(1 + ($D __interface_client_call_y.maxchanends ? __interface_client_call_y.maxchanends $: _i.spi_slave_callback_if._client_call_y.max.maxchanends)) $M 1
	.globl	_i.spi_slave_callback_if._chan_yield.master_requires_data.maxchanends
	.weak	_i.spi_slave_callback_if._chan_yield.master_requires_data.maxchanends
.Ltmp284:
	.size	_i.spi_slave_callback_if._chan_yield.master_requires_data, .Ltmp284-_i.spi_slave_callback_if._chan_yield.master_requires_data
	.cfi_endproc

	.weak	_i.spi_slave_callback_if._chan_yield.master_ends_transaction
	.align	4
	.type	_i.spi_slave_callback_if._chan_yield.master_ends_transaction,@function
	.cc_top _i.spi_slave_callback_if._chan_yield.master_ends_transaction.function,_i.spi_slave_callback_if._chan_yield.master_ends_transaction
_i.spi_slave_callback_if._chan_yield.master_ends_transaction: # @_i.spi_slave_callback_if._chan_yield.master_ends_transaction
	.cfi_startproc
	.issue_mode dual
# BB#0:                                 # %allocas
	{
		nop
		dualentsp 4
	}
.Ltmp285:
	.cfi_def_cfa_offset 16
.Ltmp286:
	.cfi_offset 15, 0
	{
		nop
		stw r4, sp[2]
	}
.Ltmp287:
	.cfi_offset 4, -8
	#DEBUG_VALUE: _i.spi_slave_callback_if._chan_yield.master_ends_transaction:s <- R0
	{
		getr r4, 2
		ldw r1, r0[0]
	}
	{
		setd res[r4], r1
		nop
	}
	{
		out res[r4], r4
		nop
	}
	{
		outct res[r4], 2
		ldw r2, r0[1]
	}
	{
		ldc r1, 0
		mov r0, r4
	}
	bl __interface_client_call_y
	{
		chkct res[r4], 1
		nop
	}
	{
		freer res[r4]
		ldw r4, sp[2]
	}
	{
		nop
		retsp 4
	}
	# RETURN_REG_HOLDER
	.cc_bottom _i.spi_slave_callback_if._chan_yield.master_ends_transaction.function
	.set	_i.spi_slave_callback_if._chan_yield.master_ends_transaction.nstackwords,((_i.spi_slave_callback_if._client_call_y.max.nstackwords $M ($D __interface_client_call_y.nstackwords ? __interface_client_call_y.nstackwords $: _i.spi_slave_callback_if._client_call_y.max.nstackwords)) + 4)
	.globl	_i.spi_slave_callback_if._chan_yield.master_ends_transaction.nstackwords
	.weak	_i.spi_slave_callback_if._chan_yield.master_ends_transaction.nstackwords
	.set	_i.spi_slave_callback_if._chan_yield.master_ends_transaction.maxcores,($D __interface_client_call_y.maxcores ? __interface_client_call_y.maxcores $: _i.spi_slave_callback_if._client_call_y.max.maxcores) $M 1
	.globl	_i.spi_slave_callback_if._chan_yield.master_ends_transaction.maxcores
	.weak	_i.spi_slave_callback_if._chan_yield.master_ends_transaction.maxcores
	.set	_i.spi_slave_callback_if._chan_yield.master_ends_transaction.maxtimers,($D __interface_client_call_y.maxtimers ? __interface_client_call_y.maxtimers $: _i.spi_slave_callback_if._client_call_y.max.maxtimers) $M 0
	.globl	_i.spi_slave_callback_if._chan_yield.master_ends_transaction.maxtimers
	.weak	_i.spi_slave_callback_if._chan_yield.master_ends_transaction.maxtimers
	.set	_i.spi_slave_callback_if._chan_yield.master_ends_transaction.maxchanends,(1 + ($D __interface_client_call_y.maxchanends ? __interface_client_call_y.maxchanends $: _i.spi_slave_callback_if._client_call_y.max.maxchanends)) $M 1
	.globl	_i.spi_slave_callback_if._chan_yield.master_ends_transaction.maxchanends
	.weak	_i.spi_slave_callback_if._chan_yield.master_ends_transaction.maxchanends
.Ltmp288:
	.size	_i.spi_slave_callback_if._chan_yield.master_ends_transaction, .Ltmp288-_i.spi_slave_callback_if._chan_yield.master_ends_transaction
	.cfi_endproc

	.section	.cp.rodata.cst4,"aMc",@progbits,4
	.cc_top .LCPI34_0.data,.LCPI34_0
	.align	4
	.type	.LCPI34_0,@object
	.size	.LCPI34_0, 4
.LCPI34_0:
	.long	4294901760              # 0xffff0000
	.cc_bottom .LCPI34_0.data
	.cc_top .LCPI34_1.data,.LCPI34_1
	.align	4
	.type	.LCPI34_1,@object
	.size	.LCPI34_1, 4
.LCPI34_1:
	.long	99999                   # 0x1869f
	.cc_bottom .LCPI34_1.data
	.text
	.globl	spi_master
	.align	4
	.type	spi_master,@function
	.cc_top spi_master.function,spi_master
spi_master:                             # @spi_master
.Lfunc_begin34:
	.loc	1 244 0                 # C:/Users/user/workspace/lib_spi/src/spi_sync.xc:244:0
	.cfi_startproc
	.issue_mode dual
# BB#0:                                 # %allocas
.Lxtalabel43:
	{
		nop
		dualentsp 22
	}
.Ltmp289:
	.cfi_def_cfa_offset 88
.Ltmp290:
	.cfi_offset 15, 0
	std r5, r4, sp[7]               # 4-byte Folded Spill
.Ltmp291:
	.cfi_offset 4, -32
.Ltmp292:
	.cfi_offset 5, -28
	std r7, r6, sp[8]               # 4-byte Folded Spill
.Ltmp293:
	.cfi_offset 6, -24
.Ltmp294:
	.cfi_offset 7, -20
	std r9, r8, sp[9]               # 4-byte Folded Spill
.Ltmp295:
	.cfi_offset 8, -16
.Ltmp296:
	.cfi_offset 9, -12
.Ltmp297:
	.cfi_offset 10, -8
	#DEBUG_VALUE: spi_master:i <- R0
	#DEBUG_VALUE: spi_master:num_clients <- R1
	#DEBUG_VALUE: spi_master:sclk <- R2
	#DEBUG_VALUE: spi_master:mosi <- R3
.Ltmp298:
	#DEBUG_VALUE: spi_master:mosi <- R5
	{
		mov r5, r3
		stw r10, sp[20]
	}
.Ltmp299:
	{
		nop
		stw r5, sp[7]
	}
.Ltmp300:
	#DEBUG_VALUE: spi_master:sclk <- [SP+52]
	#DEBUG_VALUE: spi_master:num_clients <- R6
	{
		mov r6, r1
		stw r2, sp[13]
	}
.Ltmp301:
	#DEBUG_VALUE: i <- 0
	#DEBUG_VALUE: spi_master:i <- R7
	#DEBUG_VALUE: spi_master:cb <- R4
	{
		mov r7, r0
		ldw r4, sp[26]
	}
.Ltmp302:
	{
		nop
		ldw r1, sp[24]
	}
	{
		nop
		ldw r0, sp[25]
	}
	#DEBUG_VALUE: spi_master:num_slaves <- R0
	#DEBUG_VALUE: spi_master:p_ss <- [SP+40]
	{
		nop
		stw r1, sp[10]
	}
	bf r0, .LBB34_3
.Ltmp303:
# BB#1:
	#DEBUG_VALUE: spi_master:i <- R7
	#DEBUG_VALUE: spi_master:num_clients <- R6
	#DEBUG_VALUE: spi_master:sclk <- [SP+52]
	#DEBUG_VALUE: spi_master:mosi <- R5
	#DEBUG_VALUE: spi_master:cb <- R4
	#DEBUG_VALUE: spi_master:p_ss <- [SP+40]
	#DEBUG_VALUE: spi_master:num_slaves <- R0
	{
		mkmsk r1, 1
		ldw r2, sp[10]
	}
.Ltmp304:
.LBB34_2:                               # %LoopBody
                                        # =>This Inner Loop Header: Depth=1
.Lxtalabel44:
	#DEBUG_VALUE: spi_master:i <- R7
	#DEBUG_VALUE: spi_master:num_clients <- R6
	#DEBUG_VALUE: spi_master:sclk <- [SP+52]
	#DEBUG_VALUE: spi_master:mosi <- R5
	#DEBUG_VALUE: spi_master:cb <- R4
	#DEBUG_VALUE: spi_master:p_ss <- [SP+40]
	{
		nop
		ldw r3, r2[0]
	}
	.loc	1 247 21 prologue_end   # C:/Users/user/workspace/lib_spi/src/spi_sync.xc:247:21
.Ltmp305:
.Lxta.endpoint_labels10:
	{
		out res[r3], r1
		add r2, r2, 4
	}
	.loc	1 246 0                 # C:/Users/user/workspace/lib_spi/src/spi_sync.xc:246:0
	{
		sub r0, r0, 1
		nop
	}
.Lxta.loop_labels0:
	# LOOPMARKER 0
	bt r0, .LBB34_2
.Ltmp306:
.LBB34_3:                               # %ifdone
.Lxtalabel45:
	#DEBUG_VALUE: spi_master:i <- R7
	#DEBUG_VALUE: spi_master:num_clients <- R6
	#DEBUG_VALUE: spi_master:sclk <- [SP+52]
	#DEBUG_VALUE: spi_master:mosi <- R5
	#DEBUG_VALUE: spi_master:cb <- R4
	#DEBUG_VALUE: spi_master:p_ss <- [SP+40]
	{
		nop
		ldw r8, sp[23]
	}
	#DEBUG_VALUE: spi_master:miso <- R8
	.loc	1 249 5                 # C:/Users/user/workspace/lib_spi/src/spi_sync.xc:249:5
	bf r4, .LBB34_4
.Ltmp307:
# BB#6:                                 # %afternullcheck
.Lxtalabel46:
	#DEBUG_VALUE: spi_master:i <- R7
	#DEBUG_VALUE: spi_master:num_clients <- R6
	#DEBUG_VALUE: spi_master:sclk <- [SP+52]
	#DEBUG_VALUE: spi_master:mosi <- R5
	#DEBUG_VALUE: spi_master:cb <- R4
	#DEBUG_VALUE: spi_master:p_ss <- [SP+40]
	#DEBUG_VALUE: spi_master:miso <- R8
	.loc	1 250 0                 # C:/Users/user/workspace/lib_spi/src/spi_sync.xc:250:0
	{
		setc res[r4], 7
		ldc r1, 2
	}
	.loc	1 251 0                 # C:/Users/user/workspace/lib_spi/src/spi_sync.xc:251:0
	{
		mov r0, r4
		nop
	}
.Lxta.call_labels12:
	bl configure_clock_ref
	bf r8, .LBB34_7
.Ltmp308:
# BB#45:                                # %afternullcheck46
.Lxtalabel47:
	#DEBUG_VALUE: spi_master:i <- R7
	#DEBUG_VALUE: spi_master:num_clients <- R6
	#DEBUG_VALUE: spi_master:sclk <- [SP+52]
	#DEBUG_VALUE: spi_master:mosi <- R5
	#DEBUG_VALUE: spi_master:cb <- R4
	#DEBUG_VALUE: spi_master:p_ss <- [SP+40]
	#DEBUG_VALUE: spi_master:miso <- R8
	.loc	1 252 0                 # C:/Users/user/workspace/lib_spi/src/spi_sync.xc:252:0
	{
		mov r0, r8
		mov r1, r4
	}
.Lxta.call_labels13:
	bl configure_in_port
	.loc	1 253 0                 # C:/Users/user/workspace/lib_spi/src/spi_sync.xc:253:0
	setc res[r8], 16399
.Ltmp309:
.LBB34_7:                               # %ifdone37
.Lxtalabel48:
	#DEBUG_VALUE: spi_master:i <- R7
	#DEBUG_VALUE: spi_master:num_clients <- R6
	#DEBUG_VALUE: spi_master:sclk <- [SP+52]
	#DEBUG_VALUE: spi_master:mosi <- R5
	#DEBUG_VALUE: spi_master:cb <- R4
	#DEBUG_VALUE: spi_master:p_ss <- [SP+40]
	#DEBUG_VALUE: spi_master:miso <- R8
	bf r5, .LBB34_9
.Ltmp310:
# BB#8:                                 # %afternullcheck61
	#DEBUG_VALUE: spi_master:i <- R7
	#DEBUG_VALUE: spi_master:num_clients <- R6
	#DEBUG_VALUE: spi_master:sclk <- [SP+52]
	#DEBUG_VALUE: spi_master:mosi <- R5
	#DEBUG_VALUE: spi_master:cb <- R4
	#DEBUG_VALUE: spi_master:p_ss <- [SP+40]
	#DEBUG_VALUE: spi_master:miso <- R8
	{
		ldc r2, 0
		mov r0, r5
	}
	.loc	1 254 0                 # C:/Users/user/workspace/lib_spi/src/spi_sync.xc:254:0
	{
		mov r1, r4
		nop
	}
.Lxta.call_labels14:
	bl configure_out_port
.Ltmp311:
.LBB34_9:                               # %afternullcheck65
.Lxtalabel49:
	#DEBUG_VALUE: spi_master:i <- R7
	#DEBUG_VALUE: spi_master:num_clients <- R6
	#DEBUG_VALUE: spi_master:sclk <- [SP+52]
	#DEBUG_VALUE: spi_master:mosi <- R5
	#DEBUG_VALUE: spi_master:cb <- R4
	#DEBUG_VALUE: spi_master:p_ss <- [SP+40]
	#DEBUG_VALUE: spi_master:miso <- R8
	{
		ldc r2, 0
		ldw r0, sp[13]
	}
	.loc	1 255 0                 # C:/Users/user/workspace/lib_spi/src/spi_sync.xc:255:0
	{
		mov r1, r4
		nop
	}
.Lxta.call_labels15:
	bl configure_out_port
	.loc	1 256 0                 # C:/Users/user/workspace/lib_spi/src/spi_sync.xc:256:0
	{
		setc res[r4], 15
		nop
	}
	bu .LBB34_10
.Ltmp312:
.LBB34_4:                               # %iffalse
.Lxtalabel50:
	#DEBUG_VALUE: spi_master:i <- R7
	#DEBUG_VALUE: spi_master:num_clients <- R6
	#DEBUG_VALUE: spi_master:sclk <- [SP+52]
	#DEBUG_VALUE: spi_master:mosi <- R5
	#DEBUG_VALUE: spi_master:cb <- R4
	#DEBUG_VALUE: spi_master:p_ss <- [SP+40]
	#DEBUG_VALUE: spi_master:miso <- R8
	bf r8, .LBB34_10
.Ltmp313:
# BB#5:                                 # %afternullcheck81
	#DEBUG_VALUE: spi_master:i <- R7
	#DEBUG_VALUE: spi_master:num_clients <- R6
	#DEBUG_VALUE: spi_master:sclk <- [SP+52]
	#DEBUG_VALUE: spi_master:mosi <- R5
	#DEBUG_VALUE: spi_master:cb <- R4
	#DEBUG_VALUE: spi_master:p_ss <- [SP+40]
	#DEBUG_VALUE: spi_master:miso <- R8
	.loc	1 258 0                 # C:/Users/user/workspace/lib_spi/src/spi_sync.xc:258:0
	setc res[r8], 16399
.Ltmp314:
.LBB34_10:                              # %ifdone10
.Lxtalabel51:
	#DEBUG_VALUE: spi_master:i <- R7
	#DEBUG_VALUE: spi_master:num_clients <- R6
	#DEBUG_VALUE: spi_master:sclk <- [SP+52]
	#DEBUG_VALUE: spi_master:mosi <- R5
	#DEBUG_VALUE: spi_master:cb <- R4
	#DEBUG_VALUE: spi_master:cb <- [SP+20]
	#DEBUG_VALUE: spi_master:p_ss <- [SP+40]
	#DEBUG_VALUE: spi_master:miso <- R8
	#DEBUG_VALUE: spi_master:miso <- undef
	bf r5, .LBB34_12
.Ltmp315:
# BB#11:                                # %iftrue83
.Lxtalabel52:
	#DEBUG_VALUE: spi_master:i <- R7
	#DEBUG_VALUE: spi_master:num_clients <- R6
	#DEBUG_VALUE: spi_master:sclk <- [SP+52]
	#DEBUG_VALUE: spi_master:mosi <- R5
	#DEBUG_VALUE: spi_master:cb <- [SP+20]
	#DEBUG_VALUE: spi_master:p_ss <- [SP+40]
	#DEBUG_VALUE: spi_master:miso <- undef
	{
		mkmsk r0, 32
		nop
	}
	.loc	1 262 27                # C:/Users/user/workspace/lib_spi/src/spi_sync.xc:262:27
.Lxta.endpoint_labels11:
	{
		out res[r5], r0
		nop
	}
.Ltmp316:
.LBB34_12:                              # %LoopBody95.preheader
	#DEBUG_VALUE: spi_master:i <- R7
	#DEBUG_VALUE: spi_master:num_clients <- R6
	#DEBUG_VALUE: spi_master:sclk <- [SP+52]
	#DEBUG_VALUE: spi_master:mosi <- R5
	#DEBUG_VALUE: spi_master:cb <- [SP+20]
	#DEBUG_VALUE: spi_master:p_ss <- [SP+40]
	#DEBUG_VALUE: spi_master:miso <- undef
	#DEBUG_VALUE: spi_master:mosi <- [SP+28]
	{
		ldc r0, 0
		stw r5, sp[7]
	}
	{
		mkmsk r9, 1
		nop
	}
	ldc r4, 254
                                        # implicit-def: R1
	{
		nop
		stw r1, sp[11]
	}
                                        # implicit-def: R1
	{
		mov r1, r0
		stw r1, sp[9]
	}
                                        # implicit-def: R0
	{
		mov r5, r0
		stw r0, sp[8]
	}
	bu .LBB34_13
.Ltmp317:
.LBB34_44:                              # %ifdone317
                                        #   in Loop: Header=BB34_13 Depth=1
.Lxtalabel53:
	#DEBUG_VALUE: spi_master:i <- R7
	#DEBUG_VALUE: spi_master:num_clients <- R6
	#DEBUG_VALUE: spi_master:sclk <- [SP+52]
	#DEBUG_VALUE: spi_master:mosi <- [SP+28]
	#DEBUG_VALUE: spi_master:cb <- [SP+20]
	#DEBUG_VALUE: spi_master:p_ss <- [SP+40]
	#DEBUG_VALUE: spi_master:miso <- undef
	#DEBUG_VALUE: accepting_new_transactions <- 0
	#DEBUG_VALUE: selected_device <- R10
	#DEBUG_VALUE: device_index <- R10
	{
		nop
		ldw r1, sp[10]
	}
	{
		nop
		ldw r1, r1[r10]
	}
	.loc	1 301 43                # C:/Users/user/workspace/lib_spi/src/spi_sync.xc:301:43
.Ltmp318:
.Lxta.endpoint_labels12:
	{
		out res[r1], r5
		nop
	}
	{
		out res[r0], r5
		nop
	}
	{
		outct res[r0], 1
		mov r9, r5
	}
	{
		mov r1, r10
		nop
	}
.Ltmp319:
	#DEBUG_VALUE: device_index <- R1
	#DEBUG_VALUE: selected_device <- R1
.LBB34_13:                              # %LoopBody95.outer
                                        # =>This Loop Header: Depth=1
                                        #     Child Loop BB34_14 Depth 2
                                        #       Child Loop BB34_46 Depth 3
                                        #       Child Loop BB34_16 Depth 3
	#DEBUG_VALUE: spi_master:i <- R7
	#DEBUG_VALUE: spi_master:num_clients <- R6
	#DEBUG_VALUE: spi_master:sclk <- [SP+52]
	#DEBUG_VALUE: spi_master:mosi <- [SP+28]
	#DEBUG_VALUE: spi_master:cb <- [SP+20]
	#DEBUG_VALUE: spi_master:p_ss <- [SP+40]
	#DEBUG_VALUE: spi_master:miso <- undef
	{
		nop
		stw r1, sp[12]
	}
	bu .LBB34_14
.Ltmp320:
.LBB34_29:                              # %ifdone228
                                        #   in Loop: Header=BB34_14 Depth=2
.Lxtalabel54:
	#DEBUG_VALUE: spi_master:i <- R7
	#DEBUG_VALUE: spi_master:num_clients <- R6
	#DEBUG_VALUE: spi_master:sclk <- [SP+52]
	#DEBUG_VALUE: spi_master:mosi <- [SP+28]
	#DEBUG_VALUE: spi_master:cb <- [SP+20]
	#DEBUG_VALUE: spi_master:p_ss <- [SP+40]
	#DEBUG_VALUE: spi_master:miso <- undef
	#DEBUG_VALUE: accepting_new_transactions <- 1
	#DEBUG_VALUE: ss_deassert_time <- R9
	#DEBUG_VALUE: time <- R2
	.loc	1 317 0                 # C:/Users/user/workspace/lib_spi/src/spi_sync.xc:317:0
	{
		add r1, r2, r9
		nop
	}
.Ltmp321:
	#DEBUG_VALUE: time <- R1
	.loc	1 319 50                # C:/Users/user/workspace/lib_spi/src/spi_sync.xc:319:50
	{
		setpt res[r10], r1
		mkmsk r1, 1
	}
.Ltmp322:
	.loc	1 319 50                # C:/Users/user/workspace/lib_spi/src/spi_sync.xc:319:50
.Lxta.endpoint_labels13:
	{
		out res[r10], r1
		nop
	}
	{
		out res[r0], r5
		nop
	}
	{
		outct res[r0], 1
		mov r9, r1
	}
.Ltmp323:
.LBB34_14:                              # %LoopBody95
                                        #   Parent Loop BB34_13 Depth=1
                                        # =>  This Loop Header: Depth=2
                                        #       Child Loop BB34_46 Depth 3
                                        #       Child Loop BB34_16 Depth 3
.Lxtalabel55:
	#DEBUG_VALUE: spi_master:i <- R7
	#DEBUG_VALUE: spi_master:num_clients <- R6
	#DEBUG_VALUE: spi_master:sclk <- [SP+52]
	#DEBUG_VALUE: spi_master:mosi <- [SP+28]
	#DEBUG_VALUE: spi_master:cb <- [SP+20]
	#DEBUG_VALUE: spi_master:p_ss <- [SP+40]
	#DEBUG_VALUE: spi_master:miso <- undef
	#DEBUG_VALUE: x <- 0
	.loc	1 268 9                 # C:/Users/user/workspace/lib_spi/src/spi_sync.xc:268:9
	{
		clre
		mov r0, r5
	}
	bf r6, .LBB34_15
.Ltmp324:
.LBB34_46:                              # %selectguardtrue
                                        #   Parent Loop BB34_13 Depth=1
                                        #     Parent Loop BB34_14 Depth=2
                                        # =>    This Inner Loop Header: Depth=3
	#DEBUG_VALUE: spi_master:i <- R7
	#DEBUG_VALUE: spi_master:num_clients <- R6
	#DEBUG_VALUE: spi_master:sclk <- [SP+52]
	#DEBUG_VALUE: spi_master:mosi <- [SP+28]
	#DEBUG_VALUE: spi_master:cb <- [SP+20]
	#DEBUG_VALUE: spi_master:p_ss <- [SP+40]
	#DEBUG_VALUE: spi_master:miso <- undef
	#DEBUG_VALUE: x <- 0
	{
		nop
		ldw r1, r7[r0]
	}
	{
		nop
		ldw r1, r1[0]
	}
	ldap r11, .Ltmp325
	.loc	1 269 0                 # C:/Users/user/workspace/lib_spi/src/spi_sync.xc:269:0
.Ltmp326:
	{
		setv res[r1], r11
		mov r11, r0
	}
	.loc	1 269 0                 # C:/Users/user/workspace/lib_spi/src/spi_sync.xc:269:0
	{
		setev res[r1], r11
		nop
	}
.Ltmp327:
	#DEBUG_VALUE: x <- R0
	.loc	1 269 0                 # C:/Users/user/workspace/lib_spi/src/spi_sync.xc:269:0
	{
		eeu res[r1]
		add r0, r0, 1
	}
.Ltmp328:
	.loc	1 269 0                 # C:/Users/user/workspace/lib_spi/src/spi_sync.xc:269:0
	{
		eq r1, r6, r0
		nop
	}
	bf r1, .LBB34_46
.Ltmp329:
.LBB34_15:                              # %reselect
                                        #   in Loop: Header=BB34_14 Depth=2
	#DEBUG_VALUE: spi_master:i <- R7
	#DEBUG_VALUE: spi_master:num_clients <- R6
	#DEBUG_VALUE: spi_master:sclk <- [SP+52]
	#DEBUG_VALUE: spi_master:mosi <- [SP+28]
	#DEBUG_VALUE: spi_master:cb <- [SP+20]
	#DEBUG_VALUE: spi_master:p_ss <- [SP+40]
	#DEBUG_VALUE: spi_master:miso <- undef

	.xtabranch .LBB34_16
	{
		waiteu
		nop
	}
.Ltmp330:
.LBB34_42:                              # %iffalse254
                                        #   in Loop: Header=BB34_16 Depth=3
	#DEBUG_VALUE: spi_master:i <- R7
	#DEBUG_VALUE: spi_master:num_clients <- R6
	#DEBUG_VALUE: spi_master:sclk <- [SP+52]
	#DEBUG_VALUE: spi_master:mosi <- [SP+28]
	#DEBUG_VALUE: spi_master:cb <- [SP+20]
	#DEBUG_VALUE: spi_master:p_ss <- [SP+40]
	#DEBUG_VALUE: spi_master:miso <- undef
	{
		setd res[r0], r0
		nop
	}
	{
		out res[r0], r1
		nop
	}
	{
		outct res[r0], 2
		nop
	}
	{
		edu res[r0]
		nop
	}

	.xtabranch .LBB34_16
	{
		waiteu
		nop
	}
.Ltmp331:
.Ltmp325:                               # Block address taken
.LBB34_16:                              # %selectcase
                                        #   Parent Loop BB34_13 Depth=1
                                        #     Parent Loop BB34_14 Depth=2
                                        # =>    This Inner Loop Header: Depth=3
.Lxtalabel56:
	#DEBUG_VALUE: spi_master:i <- R7
	#DEBUG_VALUE: spi_master:num_clients <- R6
	#DEBUG_VALUE: spi_master:sclk <- [SP+52]
	#DEBUG_VALUE: spi_master:mosi <- [SP+28]
	#DEBUG_VALUE: spi_master:cb <- [SP+20]
	#DEBUG_VALUE: spi_master:p_ss <- [SP+40]
	#DEBUG_VALUE: spi_master:miso <- undef
	.loc	1 269 0                 # C:/Users/user/workspace/lib_spi/src/spi_sync.xc:269:0
	{
		get r11, ed
		nop
	}
	.loc	1 269 0                 # C:/Users/user/workspace/lib_spi/src/spi_sync.xc:269:0
	{
		zext r11, 16
		nop
	}
.Ltmp332:
	#DEBUG_VALUE: x <- R11
	{
		nop
		ldw r8, r7[r11]
	}
	{
		nop
		ldw r0, r8[0]
	}
	{
		in r1, res[r0]
		nop
	}
	{
		add r2, r1, r4
		nop
	}
	{
		zext r2, 8
		nop
	}
	{
		sub r3, r1, r2
		nop
	}
	{
		setd res[r0], r3
		nop
	}
	bt r2, .LBB34_17
.Ltmp333:
# BB#41:                                # %switchcase211
                                        #   in Loop: Header=BB34_16 Depth=3
	#DEBUG_VALUE: spi_master:i <- R7
	#DEBUG_VALUE: spi_master:num_clients <- R6
	#DEBUG_VALUE: spi_master:sclk <- [SP+52]
	#DEBUG_VALUE: spi_master:mosi <- [SP+28]
	#DEBUG_VALUE: spi_master:cb <- [SP+20]
	#DEBUG_VALUE: spi_master:p_ss <- [SP+40]
	#DEBUG_VALUE: spi_master:miso <- undef
	bf r9, .LBB34_42
	bu .LBB34_30
.Ltmp334:
.LBB34_17:                              # %selectcase
                                        #   in Loop: Header=BB34_14 Depth=2
.Lxtalabel57:
	#DEBUG_VALUE: spi_master:i <- R7
	#DEBUG_VALUE: spi_master:num_clients <- R6
	#DEBUG_VALUE: spi_master:sclk <- [SP+52]
	#DEBUG_VALUE: spi_master:mosi <- [SP+28]
	#DEBUG_VALUE: spi_master:cb <- [SP+20]
	#DEBUG_VALUE: spi_master:p_ss <- [SP+40]
	#DEBUG_VALUE: spi_master:miso <- undef
	{
		eq r1, r2, 1
		nop
	}
	bf r1, .LBB34_18
.Ltmp335:
# BB#27:                                # %switchcase163
                                        #   in Loop: Header=BB34_14 Depth=2
	#DEBUG_VALUE: spi_master:i <- R7
	#DEBUG_VALUE: spi_master:num_clients <- R6
	#DEBUG_VALUE: spi_master:sclk <- [SP+52]
	#DEBUG_VALUE: spi_master:mosi <- [SP+28]
	#DEBUG_VALUE: spi_master:cb <- [SP+20]
	#DEBUG_VALUE: spi_master:p_ss <- [SP+40]
	#DEBUG_VALUE: spi_master:miso <- undef
	{
		outct res[r0], 1
		nop
	}
.Ltmp336:
	#DEBUG_VALUE: ss_deassert_time <- R9
	#DEBUG_VALUE: accepting_new_transactions <- 1
	#DEBUG_VALUE: spi_master:sclk <- R1
	{
		in r9, res[r0]
		ldw r1, sp[13]
	}
.Ltmp337:
	{
		nop
		ldw r2, sp[11]
	}
	.loc	1 309 0                 # C:/Users/user/workspace/lib_spi/src/spi_sync.xc:309:0
.Ltmp338:
.Lxta.endpoint_labels14:
	outpw res[r1], r2, 1
.Ltmp339:
	#DEBUG_VALUE: spi_master:sclk <- [SP+52]
	.loc	1 310 0                 # C:/Users/user/workspace/lib_spi/src/spi_sync.xc:310:0
	{
		syncr res[r1]
		ldw r1, sp[10]
	}
	{
		nop
		ldw r2, sp[12]
	}
	.loc	1 311 50                # C:/Users/user/workspace/lib_spi/src/spi_sync.xc:311:50
	{
		mkmsk r1, 1
		ldw r10, r1[r2]
	}
	.loc	1 311 50                # C:/Users/user/workspace/lib_spi/src/spi_sync.xc:311:50
.Lxta.endpoint_labels15:
	{
		out res[r10], r1
		nop
	}
	.loc	1 311 50                # C:/Users/user/workspace/lib_spi/src/spi_sync.xc:311:50
	{
		syncr res[r10]
		nop
	}
.Ltmp340:
	#DEBUG_VALUE: time <- R2
	.loc	1 311 50                # C:/Users/user/workspace/lib_spi/src/spi_sync.xc:311:50
	{
		getts r2, res[r10]
		shr r1, r9, 16
	}
.Ltmp341:
	bf r1, .LBB34_29
.Ltmp342:
# BB#28:                                # %iftrue227
                                        #   in Loop: Header=BB34_14 Depth=2
.Lxtalabel58:
	#DEBUG_VALUE: spi_master:i <- R7
	#DEBUG_VALUE: spi_master:num_clients <- R6
	#DEBUG_VALUE: spi_master:sclk <- [SP+52]
	#DEBUG_VALUE: spi_master:mosi <- [SP+28]
	#DEBUG_VALUE: spi_master:cb <- [SP+20]
	#DEBUG_VALUE: spi_master:p_ss <- [SP+40]
	#DEBUG_VALUE: spi_master:miso <- undef
	#DEBUG_VALUE: accepting_new_transactions <- 1
	#DEBUG_VALUE: ss_deassert_time <- R9
	#DEBUG_VALUE: time <- R2
	ldw r0, cp[.LCPI34_0]
.Ltmp343:
	#DEBUG_VALUE: time <- [SP+24]
	.loc	1 315 0                 # C:/Users/user/workspace/lib_spi/src/spi_sync.xc:315:0
	{
		and r0, r9, r0
		stw r2, sp[6]
	}
	.loc	1 315 0                 # C:/Users/user/workspace/lib_spi/src/spi_sync.xc:315:0
.Lxta.call_labels16:
	bl delay_ticks
	{
		nop
		ldw r2, sp[6]
	}
.Ltmp344:
	#DEBUG_VALUE: time <- R2
	{
		nop
		ldw r0, r8[0]
	}
	bu .LBB34_29
.Ltmp345:
.LBB34_18:                              # %selectcase
                                        #   in Loop: Header=BB34_14 Depth=2
.Lxtalabel59:
	#DEBUG_VALUE: spi_master:i <- R7
	#DEBUG_VALUE: spi_master:num_clients <- R6
	#DEBUG_VALUE: spi_master:sclk <- [SP+52]
	#DEBUG_VALUE: spi_master:mosi <- [SP+28]
	#DEBUG_VALUE: spi_master:cb <- [SP+20]
	#DEBUG_VALUE: spi_master:p_ss <- [SP+40]
	#DEBUG_VALUE: spi_master:miso <- undef
	{
		eq r1, r2, 2
		nop
	}
	bf r1, .LBB34_19
.Ltmp346:
# BB#23:                                # %switchcase121
                                        #   in Loop: Header=BB34_14 Depth=2
	#DEBUG_VALUE: spi_master:i <- R7
	#DEBUG_VALUE: spi_master:num_clients <- R6
	#DEBUG_VALUE: spi_master:sclk <- [SP+52]
	#DEBUG_VALUE: spi_master:mosi <- [SP+28]
	#DEBUG_VALUE: spi_master:cb <- [SP+20]
	#DEBUG_VALUE: spi_master:p_ss <- [SP+40]
	#DEBUG_VALUE: spi_master:miso <- undef
	{
		outct res[r0], 1
		nop
	}
	{
		int r3, res[r0]
		ldw r0, sp[26]
	}
	.loc	1 323 17                # C:/Users/user/workspace/lib_spi/src/spi_sync.xc:323:17
	bf r0, .LBB34_24
.Ltmp347:
# BB#26:                                # %iffalse182
                                        #   in Loop: Header=BB34_14 Depth=2
.Lxtalabel60:
	#DEBUG_VALUE: spi_master:i <- R7
	#DEBUG_VALUE: spi_master:num_clients <- R6
	#DEBUG_VALUE: spi_master:sclk <- [SP+52]
	#DEBUG_VALUE: spi_master:mosi <- [SP+28]
	#DEBUG_VALUE: spi_master:cb <- [SP+20]
	#DEBUG_VALUE: spi_master:p_ss <- [SP+40]
	#DEBUG_VALUE: spi_master:miso <- undef
	{
		nop
		ldw r0, sp[9]
	}
	{
		nop
		stw r0, sp[2]
	}
	{
		nop
		ldw r0, sp[11]
	}
	{
		nop
		stw r0, sp[1]
	}
	{
		nop
		ldw r0, sp[13]
	}
	{
		nop
		ldw r1, sp[7]
	}
	{
		nop
		ldw r2, sp[23]
	}
	.loc	1 326 0                 # C:/Users/user/workspace/lib_spi/src/spi_sync.xc:326:0
.Lxta.call_labels17:
	bl transfer8_sync_one_clkblk
	bu .LBB34_25
.Ltmp348:
.LBB34_19:                              # %switchcase
                                        #   in Loop: Header=BB34_14 Depth=2
	#DEBUG_VALUE: spi_master:i <- R7
	#DEBUG_VALUE: spi_master:num_clients <- R6
	#DEBUG_VALUE: spi_master:sclk <- [SP+52]
	#DEBUG_VALUE: spi_master:mosi <- [SP+28]
	#DEBUG_VALUE: spi_master:cb <- [SP+20]
	#DEBUG_VALUE: spi_master:p_ss <- [SP+40]
	#DEBUG_VALUE: spi_master:miso <- undef
	{
		outct res[r0], 1
		nop
	}
.Ltmp349:
	#DEBUG_VALUE: data <- R3
	{
		in r3, res[r0]
		ldw r0, sp[26]
	}
.Ltmp350:
	.loc	1 331 17                # C:/Users/user/workspace/lib_spi/src/spi_sync.xc:331:17
	bf r0, .LBB34_20
.Ltmp351:
# BB#22:                                # %iffalse138
                                        #   in Loop: Header=BB34_14 Depth=2
.Lxtalabel61:
	#DEBUG_VALUE: spi_master:i <- R7
	#DEBUG_VALUE: spi_master:num_clients <- R6
	#DEBUG_VALUE: spi_master:sclk <- [SP+52]
	#DEBUG_VALUE: spi_master:mosi <- [SP+28]
	#DEBUG_VALUE: spi_master:cb <- [SP+20]
	#DEBUG_VALUE: spi_master:p_ss <- [SP+40]
	#DEBUG_VALUE: spi_master:miso <- undef
	#DEBUG_VALUE: data <- R3
	{
		nop
		ldw r0, sp[9]
	}
	{
		nop
		stw r0, sp[2]
	}
	{
		nop
		ldw r0, sp[11]
	}
	{
		nop
		stw r0, sp[1]
	}
	{
		nop
		ldw r0, sp[13]
	}
	{
		nop
		ldw r1, sp[7]
	}
	{
		nop
		ldw r2, sp[23]
	}
	.loc	1 334 0                 # C:/Users/user/workspace/lib_spi/src/spi_sync.xc:334:0
.Lxta.call_labels18:
	bl transfer32_sync_one_clkblk
.Ltmp352:
	#DEBUG_VALUE: r <- R0
	bu .LBB34_21
.Ltmp353:
.LBB34_24:                              # %iftrue176
                                        #   in Loop: Header=BB34_14 Depth=2
.Lxtalabel62:
	#DEBUG_VALUE: spi_master:i <- R7
	#DEBUG_VALUE: spi_master:num_clients <- R6
	#DEBUG_VALUE: spi_master:sclk <- [SP+52]
	#DEBUG_VALUE: spi_master:mosi <- [SP+28]
	#DEBUG_VALUE: spi_master:cb <- [SP+20]
	#DEBUG_VALUE: spi_master:p_ss <- [SP+40]
	#DEBUG_VALUE: spi_master:miso <- undef
	{
		nop
		ldw r0, sp[11]
	}
	{
		nop
		ldw r1, sp[9]
	}
	.loc	1 324 0                 # C:/Users/user/workspace/lib_spi/src/spi_sync.xc:324:0
	std r1, r0, sp[1]
	{
		nop
		ldw r0, sp[8]
	}
	{
		nop
		stw r0, sp[1]
	}
	{
		nop
		ldw r0, sp[13]
	}
	{
		nop
		ldw r1, sp[7]
	}
	{
		nop
		ldw r2, sp[23]
	}
.Lxta.call_labels19:
	bl transfer8_sync_zero_clkblk
.Ltmp354:
.LBB34_25:                              # %ifdone177
                                        #   in Loop: Header=BB34_14 Depth=2
.Lxtalabel63:
	#DEBUG_VALUE: spi_master:i <- R7
	#DEBUG_VALUE: spi_master:num_clients <- R6
	#DEBUG_VALUE: spi_master:sclk <- [SP+52]
	#DEBUG_VALUE: spi_master:mosi <- [SP+28]
	#DEBUG_VALUE: spi_master:cb <- [SP+20]
	#DEBUG_VALUE: spi_master:p_ss <- [SP+40]
	#DEBUG_VALUE: spi_master:miso <- undef
	{
		nop
		ldw r1, r8[0]
	}
	{
		out res[r1], r5
		nop
	}
	{
		outt res[r1], r0
		nop
	}
	{
		outct res[r1], 1
		nop
	}
	bu .LBB34_14
.Ltmp355:
.LBB34_20:                              # %iftrue132
                                        #   in Loop: Header=BB34_14 Depth=2
.Lxtalabel64:
	#DEBUG_VALUE: spi_master:i <- R7
	#DEBUG_VALUE: spi_master:num_clients <- R6
	#DEBUG_VALUE: spi_master:sclk <- [SP+52]
	#DEBUG_VALUE: spi_master:mosi <- [SP+28]
	#DEBUG_VALUE: spi_master:cb <- [SP+20]
	#DEBUG_VALUE: spi_master:p_ss <- [SP+40]
	#DEBUG_VALUE: spi_master:miso <- undef
	#DEBUG_VALUE: data <- R3
	{
		nop
		ldw r0, sp[11]
	}
	{
		nop
		ldw r1, sp[9]
	}
	.loc	1 332 0                 # C:/Users/user/workspace/lib_spi/src/spi_sync.xc:332:0
	std r1, r0, sp[1]
	{
		nop
		ldw r0, sp[8]
	}
	{
		nop
		stw r0, sp[1]
	}
	{
		nop
		ldw r0, sp[13]
	}
	{
		nop
		ldw r1, sp[7]
	}
	{
		nop
		ldw r2, sp[23]
	}
.Lxta.call_labels20:
	bl transfer32_sync_zero_clkblk
.Ltmp356:
	#DEBUG_VALUE: r <- R0
.LBB34_21:                              # %ifdone133
                                        #   in Loop: Header=BB34_14 Depth=2
.Lxtalabel65:
	#DEBUG_VALUE: spi_master:i <- R7
	#DEBUG_VALUE: spi_master:num_clients <- R6
	#DEBUG_VALUE: spi_master:sclk <- [SP+52]
	#DEBUG_VALUE: spi_master:mosi <- [SP+28]
	#DEBUG_VALUE: spi_master:cb <- [SP+20]
	#DEBUG_VALUE: spi_master:p_ss <- [SP+40]
	#DEBUG_VALUE: spi_master:miso <- undef
	{
		nop
		ldw r1, r8[0]
	}
	{
		out res[r1], r5
		nop
	}
	{
		out res[r1], r0
		nop
	}
	{
		outct res[r1], 1
		nop
	}
	bu .LBB34_14
.Ltmp357:
.LBB34_30:                              # %ifdone252
                                        #   in Loop: Header=BB34_13 Depth=1
.Lxtalabel66:
	#DEBUG_VALUE: spi_master:i <- R7
	#DEBUG_VALUE: spi_master:num_clients <- R6
	#DEBUG_VALUE: spi_master:sclk <- [SP+52]
	#DEBUG_VALUE: spi_master:mosi <- [SP+28]
	#DEBUG_VALUE: spi_master:cb <- [SP+20]
	#DEBUG_VALUE: spi_master:p_ss <- [SP+40]
	#DEBUG_VALUE: spi_master:miso <- undef
	{
		outct res[r0], 1
		nop
	}
	{
		in r10, res[r0]
		nop
	}
.Ltmp358:
	#DEBUG_VALUE: device_index <- R10
	#DEBUG_VALUE: selected_device <- R10
	{
		in r1, res[r0]
		nop
	}
.Ltmp359:
	#DEBUG_VALUE: speed_in_khz <- R1
	#DEBUG_VALUE: get_mode_bits:mode <- R2
	#DEBUG_VALUE: mode <- R2
	{
		in r2, res[r0]
		mkmsk r3, 2
	}
.Ltmp360:
	#DEBUG_VALUE: spi_master:cb <- R9
	.loc	1 226 0                 # C:/Users/user/workspace/lib_spi/src/spi_sync.xc:226:0
	{
		lsu r3, r3, r2
		ldw r9, sp[26]
	}
.Ltmp361:
	bt r3, .LBB34_37
.Ltmp362:
# BB#31:                                # %ifdone252
                                        #   in Loop: Header=BB34_13 Depth=1
.Lxtalabel67:
	#DEBUG_VALUE: spi_master:i <- R7
	#DEBUG_VALUE: spi_master:num_clients <- R6
	#DEBUG_VALUE: spi_master:sclk <- [SP+52]
	#DEBUG_VALUE: spi_master:mosi <- [SP+28]
	#DEBUG_VALUE: spi_master:cb <- R9
	#DEBUG_VALUE: spi_master:p_ss <- [SP+40]
	#DEBUG_VALUE: spi_master:miso <- undef

	.xtabranch .Ljumptable2+4,.Ljumptable2+8,.Ljumptable2+12,.Ljumptable2+16
.Ljumptable2:
		
	{
		nop
		bru r2
	}
	.jmptable32 .LBB34_32,.LBB34_33,.LBB34_34,.LBB34_35
.Ltmp363:
.LBB34_32:                              # %switchcase.i
                                        #   in Loop: Header=BB34_13 Depth=1
.Lxtalabel68:
	#DEBUG_VALUE: spi_master:i <- R7
	#DEBUG_VALUE: spi_master:num_clients <- R6
	#DEBUG_VALUE: spi_master:sclk <- [SP+52]
	#DEBUG_VALUE: spi_master:mosi <- [SP+28]
	#DEBUG_VALUE: spi_master:cb <- R9
	#DEBUG_VALUE: spi_master:p_ss <- [SP+40]
	#DEBUG_VALUE: spi_master:miso <- undef
	#DEBUG_VALUE: get_mode_bits:cpol <- 0
	#DEBUG_VALUE: cpol <- 0
	#DEBUG_VALUE: get_mode_bits:cpha <- 1
	#DEBUG_VALUE: cpha <- 1
	{
		mkmsk r2, 1
		stw r5, sp[11]
	}
	bu .LBB34_36
.Ltmp364:
.LBB34_33:                              # %switchcase1.i
                                        #   in Loop: Header=BB34_13 Depth=1
.Lxtalabel69:
	#DEBUG_VALUE: spi_master:i <- R7
	#DEBUG_VALUE: spi_master:num_clients <- R6
	#DEBUG_VALUE: spi_master:sclk <- [SP+52]
	#DEBUG_VALUE: spi_master:mosi <- [SP+28]
	#DEBUG_VALUE: spi_master:cb <- R9
	#DEBUG_VALUE: spi_master:p_ss <- [SP+40]
	#DEBUG_VALUE: spi_master:miso <- undef
	#DEBUG_VALUE: get_mode_bits:cpol <- 0
	#DEBUG_VALUE: cpol <- 0
	#DEBUG_VALUE: get_mode_bits:cpha <- 0
	#DEBUG_VALUE: cpha <- 0
	{
		nop
		stw r5, sp[11]
	}
	{
		nop
		stw r5, sp[9]
	}
	bu .LBB34_37
.Ltmp365:
.LBB34_34:                              # %switchcase2.i
                                        #   in Loop: Header=BB34_13 Depth=1
.Lxtalabel70:
	#DEBUG_VALUE: spi_master:i <- R7
	#DEBUG_VALUE: spi_master:num_clients <- R6
	#DEBUG_VALUE: spi_master:sclk <- [SP+52]
	#DEBUG_VALUE: spi_master:mosi <- [SP+28]
	#DEBUG_VALUE: spi_master:cb <- R9
	#DEBUG_VALUE: spi_master:p_ss <- [SP+40]
	#DEBUG_VALUE: spi_master:miso <- undef
	#DEBUG_VALUE: get_mode_bits:cpol <- 1
	#DEBUG_VALUE: cpol <- 1
	#DEBUG_VALUE: get_mode_bits:cpha <- 0
	#DEBUG_VALUE: cpha <- 0
	{
		mkmsk r2, 1
		nop
	}
	{
		nop
		stw r2, sp[11]
	}
	{
		nop
		stw r5, sp[9]
	}
	bu .LBB34_37
.Ltmp366:
.LBB34_35:                              # %switchcase6.i
                                        #   in Loop: Header=BB34_13 Depth=1
.Lxtalabel71:
	#DEBUG_VALUE: spi_master:i <- R7
	#DEBUG_VALUE: spi_master:num_clients <- R6
	#DEBUG_VALUE: spi_master:sclk <- [SP+52]
	#DEBUG_VALUE: spi_master:mosi <- [SP+28]
	#DEBUG_VALUE: spi_master:cb <- R9
	#DEBUG_VALUE: spi_master:p_ss <- [SP+40]
	#DEBUG_VALUE: spi_master:miso <- undef
	#DEBUG_VALUE: get_mode_bits:cpol <- 1
	#DEBUG_VALUE: cpol <- 1
	#DEBUG_VALUE: get_mode_bits:cpha <- 1
	#DEBUG_VALUE: cpha <- 1
	{
		mkmsk r2, 1
		nop
	}
	{
		nop
		stw r2, sp[11]
	}
.Ltmp367:
.LBB34_36:                              # %get_mode_bits.exit
                                        #   in Loop: Header=BB34_13 Depth=1
.Lxtalabel72:
	{
		nop
		stw r2, sp[9]
	}
.LBB34_37:                              # %get_mode_bits.exit
                                        #   in Loop: Header=BB34_13 Depth=1
.Lxtalabel73:
.Ltmp368:
	#DEBUG_VALUE: spi_master:i <- R7
	#DEBUG_VALUE: spi_master:num_clients <- R6
	#DEBUG_VALUE: spi_master:sclk <- [SP+52]
	#DEBUG_VALUE: spi_master:mosi <- [SP+28]
	#DEBUG_VALUE: spi_master:cb <- R9
	#DEBUG_VALUE: spi_master:p_ss <- [SP+40]
	#DEBUG_VALUE: spi_master:miso <- undef
	#DEBUG_VALUE: selected_device <- R10
	#DEBUG_VALUE: device_index <- R10
	#DEBUG_VALUE: speed_in_khz <- R1
	{
		nop
		ldw r2, sp[13]
	}
	.loc	1 276 0                 # C:/Users/user/workspace/lib_spi/src/spi_sync.xc:276:0
	{
		syncr res[r2]
		ldw r3, sp[12]
	}
	.loc	1 278 17                # C:/Users/user/workspace/lib_spi/src/spi_sync.xc:278:17
	{
		eq r2, r10, r3
		nop
	}
	bf r2, .LBB34_39
.Ltmp369:
# BB#38:                                # %iftrue304
                                        #   in Loop: Header=BB34_13 Depth=1
.Lxtalabel74:
	#DEBUG_VALUE: spi_master:i <- R7
	#DEBUG_VALUE: spi_master:num_clients <- R6
	#DEBUG_VALUE: spi_master:sclk <- [SP+52]
	#DEBUG_VALUE: spi_master:mosi <- [SP+28]
	#DEBUG_VALUE: spi_master:cb <- R9
	#DEBUG_VALUE: spi_master:p_ss <- [SP+40]
	#DEBUG_VALUE: spi_master:miso <- undef
	#DEBUG_VALUE: selected_device <- R10
	#DEBUG_VALUE: device_index <- R10
	#DEBUG_VALUE: speed_in_khz <- R1
	{
		nop
		ldw r2, sp[10]
	}
	{
		nop
		ldw r2, r2[r3]
	}
	.loc	1 279 0                 # C:/Users/user/workspace/lib_spi/src/spi_sync.xc:279:0
	{
		syncr res[r2]
		nop
	}
.Ltmp370:
.LBB34_39:                              # %ifdone305
                                        #   in Loop: Header=BB34_13 Depth=1
.Lxtalabel75:
	#DEBUG_VALUE: spi_master:i <- R7
	#DEBUG_VALUE: spi_master:num_clients <- R6
	#DEBUG_VALUE: spi_master:sclk <- [SP+52]
	#DEBUG_VALUE: spi_master:mosi <- [SP+28]
	#DEBUG_VALUE: spi_master:cb <- R9
	#DEBUG_VALUE: spi_master:p_ss <- [SP+40]
	#DEBUG_VALUE: spi_master:miso <- undef
	#DEBUG_VALUE: selected_device <- R10
	#DEBUG_VALUE: device_index <- R10
	#DEBUG_VALUE: speed_in_khz <- R1
	{
		nop
		ldw r2, sp[13]
	}
.Ltmp371:
	#DEBUG_VALUE: spi_master:sclk <- R2
	{
		nop
		ldw r3, sp[11]
	}
	.loc	1 282 0                 # C:/Users/user/workspace/lib_spi/src/spi_sync.xc:282:0
.Lxta.endpoint_labels16:
	outpw res[r2], r3, 1
	.loc	1 283 0                 # C:/Users/user/workspace/lib_spi/src/spi_sync.xc:283:0
	{
		syncr res[r2]
		nop
	}
.Ltmp372:
	#DEBUG_VALUE: spi_master:sclk <- [SP+52]
	bf r9, .LBB34_40
.Ltmp373:
# BB#43:                                # %afternullcheck329
                                        #   in Loop: Header=BB34_13 Depth=1
.Lxtalabel76:
	#DEBUG_VALUE: spi_master:i <- R7
	#DEBUG_VALUE: spi_master:num_clients <- R6
	#DEBUG_VALUE: spi_master:sclk <- [SP+52]
	#DEBUG_VALUE: spi_master:mosi <- [SP+28]
	#DEBUG_VALUE: spi_master:cb <- R9
	#DEBUG_VALUE: spi_master:p_ss <- [SP+40]
	#DEBUG_VALUE: spi_master:miso <- undef
	#DEBUG_VALUE: selected_device <- R10
	#DEBUG_VALUE: device_index <- R10
	#DEBUG_VALUE: speed_in_khz <- R1
	.loc	1 290 0                 # C:/Users/user/workspace/lib_spi/src/spi_sync.xc:290:0
	{
		setc res[r9], 7
		shl r0, r1, 2
	}
	ldw r2, cp[.LCPI34_1]
	.loc	1 291 0                 # C:/Users/user/workspace/lib_spi/src/spi_sync.xc:291:0
.Ltmp374:
	ldaw r1, r2[r1]
.Ltmp375:
	.loc	1 291 0                 # C:/Users/user/workspace/lib_spi/src/spi_sync.xc:291:0
	divu r1, r1, r0
.Ltmp376:
	#DEBUG_VALUE: d <- R1
	.loc	1 292 0                 # C:/Users/user/workspace/lib_spi/src/spi_sync.xc:292:0
	{
		zext r1, 8
		mov r0, r9
	}
.Ltmp377:
.Lxta.call_labels21:
	bl configure_clock_ref
.Ltmp378:
	#DEBUG_VALUE: spi_master:cb <- [SP+20]
	.loc	1 293 0                 # C:/Users/user/workspace/lib_spi/src/spi_sync.xc:293:0
	{
		setc res[r9], 15
		ldw r0, r8[0]
	}
	bu .LBB34_44
.Ltmp379:
.LBB34_40:                              # %iftrue316
                                        #   in Loop: Header=BB34_13 Depth=1
.Lxtalabel77:
	#DEBUG_VALUE: spi_master:i <- R7
	#DEBUG_VALUE: spi_master:num_clients <- R6
	#DEBUG_VALUE: spi_master:sclk <- [SP+52]
	#DEBUG_VALUE: spi_master:mosi <- [SP+28]
	#DEBUG_VALUE: spi_master:cb <- R9
	#DEBUG_VALUE: spi_master:p_ss <- [SP+40]
	#DEBUG_VALUE: spi_master:miso <- undef
	#DEBUG_VALUE: selected_device <- R10
	#DEBUG_VALUE: device_index <- R10
	#DEBUG_VALUE: speed_in_khz <- R1
	ldw r2, cp[.LCPI34_1]
.Ltmp380:
	#DEBUG_VALUE: spi_master:cb <- [SP+20]
	.loc	1 287 0                 # C:/Users/user/workspace/lib_spi/src/spi_sync.xc:287:0
	{
		add r2, r1, r2
		nop
	}
	.loc	1 287 0                 # C:/Users/user/workspace/lib_spi/src/spi_sync.xc:287:0
	divu r1, r2, r1
.Ltmp381:
	#DEBUG_VALUE: period <- [SP+32]
	{
		nop
		stw r1, sp[8]
	}
	bu .LBB34_44
.Ltmp382:
	.cc_bottom spi_master.function
	.set	spi_master.nstackwords,((delay_ticks.nstackwords $M transfer8_sync_zero_clkblk.nstackwords $M transfer8_sync_one_clkblk.nstackwords $M transfer32_sync_zero_clkblk.nstackwords $M transfer32_sync_one_clkblk.nstackwords $M configure_clock_ref.nstackwords $M configure_out_port.nstackwords $M configure_in_port.nstackwords) + 22)
	.globl	spi_master.nstackwords
	.set	spi_master.maxcores,configure_clock_ref.maxcores $M configure_in_port.maxcores $M configure_out_port.maxcores $M delay_ticks.maxcores $M transfer32_sync_one_clkblk.maxcores $M transfer32_sync_zero_clkblk.maxcores $M transfer8_sync_one_clkblk.maxcores $M transfer8_sync_zero_clkblk.maxcores $M 1
	.globl	spi_master.maxcores
	.set	spi_master.maxtimers,configure_clock_ref.maxtimers $M configure_in_port.maxtimers $M configure_out_port.maxtimers $M delay_ticks.maxtimers $M transfer32_sync_one_clkblk.maxtimers $M transfer32_sync_zero_clkblk.maxtimers $M transfer8_sync_one_clkblk.maxtimers $M transfer8_sync_zero_clkblk.maxtimers $M 0
	.globl	spi_master.maxtimers
	.set	spi_master.maxchanends,configure_clock_ref.maxchanends $M configure_in_port.maxchanends $M configure_out_port.maxchanends $M delay_ticks.maxchanends $M transfer32_sync_one_clkblk.maxchanends $M transfer32_sync_zero_clkblk.maxchanends $M transfer8_sync_one_clkblk.maxchanends $M transfer8_sync_zero_clkblk.maxchanends $M 0
	.globl	spi_master.maxchanends
.Ltmp383:
	.size	spi_master, .Ltmp383-spi_master
.Lfunc_end34:
	.cfi_endproc

	.section	.cp.rodata.cst4,"aMc",@progbits,4
	.cc_top .LCPI35_0.data,.LCPI35_0
	.align	4
	.type	.LCPI35_0,@object
	.size	.LCPI35_0, 4
.LCPI35_0:
	.long	670763580               # 0x27fb0a3c
	.cc_bottom .LCPI35_0.data
	.cc_top .LCPI35_1.data,.LCPI35_1
	.align	4
	.type	.LCPI35_1,@object
	.size	.LCPI35_1, 4
.LCPI35_1:
	.long	3624163008              # 0xd80456c0
	.cc_bottom .LCPI35_1.data
	.cc_top .LCPI35_2.data,.LCPI35_2
	.align	4
	.type	.LCPI35_2,@object
	.size	.LCPI35_2, 4
.LCPI35_2:
	.long	171759621               # 0xa3cd805
	.cc_bottom .LCPI35_2.data
	.cc_top .LCPI35_3.data,.LCPI35_3
	.align	4
	.type	.LCPI35_3,@object
	.size	.LCPI35_3, 4
.LCPI35_3:
	.long	2000744448              # 0x7740f000
	.cc_bottom .LCPI35_3.data
	.text
	.globl	spi_master.select.0.enable
	.align	4
	.type	spi_master.select.0.enable,@function
	.cc_top spi_master.select.0.enable.function,spi_master.select.0.enable
spi_master.select.0.enable:             # @spi_master.select.0.enable
.Lfunc_begin35:
	.file	2 "<synthesized>"
	.loc	2 0 0                   # <synthesized>:0:0
	.cfi_startproc
	.issue_mode dual
# BB#0:                                 # %allocas
	{
		nop
		dualentsp 4
	}
.Ltmp384:
	.cfi_def_cfa_offset 16
.Ltmp385:
	.cfi_offset 15, 0
	std r5, r4, sp[1]               # 4-byte Folded Spill
.Ltmp386:
	.cfi_offset 4, -8
.Ltmp387:
	.cfi_offset 5, -4
	#DEBUG_VALUE: spi_master.select.0.enable:spi_master.select.state_ptr <- R0
	{
		mov r4, r0
		nop
	}
.Ltmp388:
	#DEBUG_VALUE: spi_master.select.0.enable:spi_master.select.state_ptr <- R4
	bl spi_master.init.1
	{
		nop
		ldw r0, r4[0]
	}
	bf r0, .LBB35_1
.Ltmp389:
# BB#2:                                 # %iftrue
	#DEBUG_VALUE: spi_master.select.0.enable:spi_master.select.state_ptr <- R4
	ldc r0, 80
	.loc	2 268 9 prologue_end    # <synthesized>:268:9
.Ltmp390:
	{
		add r1, r4, r0
		nop
	}
	ldc r0, 100
	.loc	2 268 9                 # <synthesized>:268:9
	{
		add r0, r4, r0
		nop
	}
	ldap r11, spi_master.select.0.case.0
	{
		nop
		stw r11, r0[0]
	}
	ldc r0, 96
	{
		add r0, r4, r0
		nop
	}
	{
		nop
		stw r4, r0[0]
	}
	ldc r0, 92
	{
		add r0, r4, r0
		nop
	}
	ldw r2, cp[.LCPI35_0]
	{
		nop
		stw r2, r0[0]
	}
	ldc r0, 88
	{
		add r0, r4, r0
		nop
	}
	ldw r2, cp[.LCPI35_1]
	{
		nop
		stw r2, r0[0]
	}
	ldc r0, 84
	{
		add r0, r4, r0
		nop
	}
	ldw r2, cp[.LCPI35_2]
	{
		nop
		stw r2, r0[0]
	}
	ldw r0, cp[.LCPI35_3]
	{
		nop
		stw r0, r1[0]
	}
.Ltmp391:
	#DEBUG_VALUE: x <- 0
	.loc	1 269 0                 # C:/Users/user/workspace/lib_spi/src/spi_sync.xc:269:0
	{
		mkmsk r0, 1
		ldw r3, r4[6]
	}
	bf r3, .LBB35_6
.Ltmp392:
# BB#3:                                 # %selectguardtrue.lr.ph
	#DEBUG_VALUE: spi_master.select.0.enable:spi_master.select.state_ptr <- R4
	#DEBUG_VALUE: x <- 0
	.loc	1 269 0                 # C:/Users/user/workspace/lib_spi/src/spi_sync.xc:269:0
	{
		ldc r2, 0
		ldw r4, r4[5]
	}
.Ltmp393:
.LBB35_4:                               # %selectguardtrue
                                        # =>This Inner Loop Header: Depth=1
	#DEBUG_VALUE: x <- 0
	{
		nop
		ldw r11, r4[r2]
	}
	{
		nop
		ldw r5, r11[0]
	}
	bf r5, .LBB35_5
# BB#7:                                 # %interfacenotnull
                                        #   in Loop: Header=BB35_4 Depth=1
	#DEBUG_VALUE: x <- 0
	.loc	1 269 0                 # C:/Users/user/workspace/lib_spi/src/spi_sync.xc:269:0
	{
		mov r11, r1
		nop
	}
	{
		setv res[r5], r11
		mov r11, r2
	}
	.loc	1 269 0                 # C:/Users/user/workspace/lib_spi/src/spi_sync.xc:269:0
	{
		setev res[r5], r11
		nop
	}
	.loc	1 269 0                 # C:/Users/user/workspace/lib_spi/src/spi_sync.xc:269:0
	{
		eeu res[r5]
		nop
	}
.LBB35_5:                               # %selectguarddone
                                        #   in Loop: Header=BB35_4 Depth=1
	#DEBUG_VALUE: x <- 0
	.loc	1 269 0                 # C:/Users/user/workspace/lib_spi/src/spi_sync.xc:269:0
	{
		add r2, r2, 1
		nop
	}
.Ltmp394:
	#DEBUG_VALUE: x <- R2
	.loc	1 269 0                 # C:/Users/user/workspace/lib_spi/src/spi_sync.xc:269:0
	{
		lsu r11, r2, r3
		nop
	}
	bt r11, .LBB35_4
	bu .LBB35_6
.Ltmp395:
.LBB35_1:
	{
		ldc r0, 0
		nop
	}
.LBB35_6:                               # %return
	ldd r5, r4, sp[1]               # 4-byte Folded Reload
	{
		nop
		retsp 4
	}
	# RETURN_REG_HOLDER
	.cc_bottom spi_master.select.0.enable.function
	.set	spi_master.select.0.enable.nstackwords,(spi_master.init.1.nstackwords + 4)
	.globl	spi_master.select.0.enable.nstackwords
	.set	spi_master.select.0.enable.maxcores,spi_master.init.1.maxcores $M 1
	.globl	spi_master.select.0.enable.maxcores
	.set	spi_master.select.0.enable.maxtimers,spi_master.init.1.maxtimers $M 0
	.globl	spi_master.select.0.enable.maxtimers
	.set	spi_master.select.0.enable.maxchanends,spi_master.init.1.maxchanends $M 0
	.globl	spi_master.select.0.enable.maxchanends
.Ltmp396:
	.size	spi_master.select.0.enable, .Ltmp396-spi_master.select.0.enable
.Lfunc_end35:
	.cfi_endproc

	.globl	spi_master.init.1
	.align	4
	.type	spi_master.init.1,@function
	.cc_top spi_master.init.1.function,spi_master.init.1
spi_master.init.1:                      # @spi_master.init.1
.Lfunc_begin36:
	.loc	2 0 0                   # <synthesized>:0:0
	.cfi_startproc
	.issue_mode dual
# BB#0:                                 # %allocas
	{
		nop
		dualentsp 6
	}
.Ltmp397:
	.cfi_def_cfa_offset 24
.Ltmp398:
	.cfi_offset 15, 0
	std r5, r4, sp[1]               # 4-byte Folded Spill
.Ltmp399:
	.cfi_offset 4, -16
.Ltmp400:
	.cfi_offset 5, -12
.Ltmp401:
	.cfi_offset 6, -8
	#DEBUG_VALUE: spi_master.init.1:spi_master.init.1.state_ptr <- R0
.Ltmp402:
	#DEBUG_VALUE: spi_master.init.1:spi_master.init.1.state_ptr <- R4
	{
		mov r4, r0
		stw r6, sp[4]
	}
.Ltmp403:
	{
		nop
		ldw r0, r4[1]
	}
	bf r0, .LBB36_14
# BB#1:                                 # %iffalse
.Ltmp404:
	#DEBUG_VALUE: spi_master.init.1:spi_master.init.1.state_ptr <- R4
	{
		ldc r0, 0
		nop
	}
.Ltmp405:
	#DEBUG_VALUE: i <- 0
	{
		ldc r1, 52
		stw r0, r4[1]
	}
	.loc	1 246 0 prologue_end    # C:/Users/user/workspace/lib_spi/src/spi_sync.xc:246:0
.Ltmp406:
	{
		add r1, r4, r1
		nop
	}
	{
		nop
		ldw r1, r1[0]
	}
	bf r1, .LBB36_4
.Ltmp407:
# BB#2:                                 # %LoopBody.preheader
	#DEBUG_VALUE: spi_master.init.1:spi_master.init.1.state_ptr <- R4
	#DEBUG_VALUE: i <- 0
	.loc	1 247 21                # C:/Users/user/workspace/lib_spi/src/spi_sync.xc:247:21
	{
		mkmsk r3, 1
		ldw r2, r4[11]
	}
.Ltmp408:
.LBB36_3:                               # %LoopBody
                                        # =>This Inner Loop Header: Depth=1
.Lxtalabel78:
	#DEBUG_VALUE: spi_master.init.1:spi_master.init.1.state_ptr <- R4
	#DEBUG_VALUE: i <- 0
	{
		nop
		ldw r11, r2[r0]
	}
.Ltmp409:
	#DEBUG_VALUE: i <- R0
	.loc	1 247 21                # C:/Users/user/workspace/lib_spi/src/spi_sync.xc:247:21
.Lxta.endpoint_labels17:
	{
		out res[r11], r3
		add r0, r0, 1
	}
.Ltmp410:
	.loc	1 246 0                 # C:/Users/user/workspace/lib_spi/src/spi_sync.xc:246:0
	{
		lsu r11, r0, r1
		nop
	}
.Lxta.loop_labels1:
	# LOOPMARKER 0
	bt r11, .LBB36_3
.Ltmp411:
.LBB36_4:                               # %ifdone6
.Lxtalabel79:
	#DEBUG_VALUE: spi_master.init.1:spi_master.init.1.state_ptr <- R4
	{
		ldc r0, 56
		nop
	}
	.loc	2 249 5                 # <synthesized>:249:5
	{
		add r0, r4, r0
		nop
	}
	{
		nop
		ldw r5, r0[0]
	}
	.loc	2 249 5                 # <synthesized>:249:5
	bf r5, .LBB36_5
.Ltmp412:
# BB#7:                                 # %afternullcheck35
.Lxtalabel80:
	#DEBUG_VALUE: spi_master.init.1:spi_master.init.1.state_ptr <- R4
	.loc	2 250 0                 # <synthesized>:250:0
	{
		setc res[r5], 7
		ldc r1, 2
	}
	.loc	2 251 0                 # <synthesized>:251:0
	{
		mov r0, r5
		nop
	}
.Lxta.call_labels22:
	bl configure_clock_ref
	{
		nop
		ldw r6, r4[10]
	}
	bf r6, .LBB36_8
.Ltmp413:
# BB#15:                                # %afternullcheck67
.Lxtalabel81:
	#DEBUG_VALUE: spi_master.init.1:spi_master.init.1.state_ptr <- R4
	.loc	2 252 0                 # <synthesized>:252:0
	{
		mov r0, r6
		mov r1, r5
	}
.Lxta.call_labels23:
	bl configure_in_port
	.loc	2 253 0                 # <synthesized>:253:0
	setc res[r6], 16399
.Ltmp414:
.LBB36_8:                               # %ifdone56
.Lxtalabel82:
	#DEBUG_VALUE: spi_master.init.1:spi_master.init.1.state_ptr <- R4
	{
		nop
		ldw r0, r4[9]
	}
	bf r0, .LBB36_10
.Ltmp415:
# BB#9:                                 # %afternullcheck85
	#DEBUG_VALUE: spi_master.init.1:spi_master.init.1.state_ptr <- R4
	{
		ldc r2, 0
		mov r1, r5
	}
	.loc	2 254 0                 # <synthesized>:254:0
.Lxta.call_labels24:
	bl configure_out_port
.Ltmp416:
.LBB36_10:                              # %afternullcheck96
.Lxtalabel83:
	#DEBUG_VALUE: spi_master.init.1:spi_master.init.1.state_ptr <- R4
	.loc	2 255 0                 # <synthesized>:255:0
	{
		ldc r2, 0
		ldw r0, r4[8]
	}
	.loc	2 255 0                 # <synthesized>:255:0
	{
		mov r1, r5
		nop
	}
.Lxta.call_labels25:
	bl configure_out_port
	.loc	2 256 0                 # <synthesized>:256:0
	{
		setc res[r5], 15
		nop
	}
	bu .LBB36_11
.Ltmp417:
.LBB36_5:                               # %iffalse28
.Lxtalabel84:
	#DEBUG_VALUE: spi_master.init.1:spi_master.init.1.state_ptr <- R4
	{
		nop
		ldw r0, r4[10]
	}
	bf r0, .LBB36_11
.Ltmp418:
# BB#6:                                 # %afternullcheck110
	#DEBUG_VALUE: spi_master.init.1:spi_master.init.1.state_ptr <- R4
	.loc	2 258 0                 # <synthesized>:258:0
	setc res[r0], 16399
.Ltmp419:
.LBB36_11:                              # %ifdone22
.Lxtalabel85:
	#DEBUG_VALUE: spi_master.init.1:spi_master.init.1.state_ptr <- R4
	{
		nop
		ldw r0, r4[9]
	}
	bf r0, .LBB36_13
.Ltmp420:
# BB#12:                                # %iftrue112
.Lxtalabel86:
	#DEBUG_VALUE: spi_master.init.1:spi_master.init.1.state_ptr <- R4
	{
		mkmsk r1, 32
		nop
	}
	.loc	2 262 27                # <synthesized>:262:27
.Lxta.endpoint_labels18:
	{
		out res[r0], r1
		nop
	}
.Ltmp421:
.LBB36_13:                              # %ifdone113
.Lxtalabel87:
	#DEBUG_VALUE: spi_master.init.1:spi_master.init.1.state_ptr <- R4
	ldc r0, 72
	.loc	1 264 0                 # C:/Users/user/workspace/lib_spi/src/spi_sync.xc:264:0
.Ltmp422:
	{
		add r0, r4, r0
		ldc r1, 0
	}
	{
		nop
		stw r1, r0[0]
	}
	ldc r0, 76
	.loc	1 265 0                 # C:/Users/user/workspace/lib_spi/src/spi_sync.xc:265:0
.Ltmp423:
	{
		add r0, r4, r0
		mkmsk r1, 1
	}
	{
		nop
		stw r1, r0[0]
	}
	{
		nop
		stw r1, r4[0]
	}
.Ltmp424:
.LBB36_14:                              # %return
	{
		nop
		ldw r6, sp[4]
	}
	ldd r5, r4, sp[1]               # 4-byte Folded Reload
	{
		nop
		retsp 6
	}
	# RETURN_REG_HOLDER
	.cc_bottom spi_master.init.1.function
	.set	spi_master.init.1.nstackwords,((configure_clock_ref.nstackwords $M configure_out_port.nstackwords $M configure_in_port.nstackwords) + 6)
	.globl	spi_master.init.1.nstackwords
	.set	spi_master.init.1.maxcores,configure_clock_ref.maxcores $M configure_in_port.maxcores $M configure_out_port.maxcores $M 1
	.globl	spi_master.init.1.maxcores
	.set	spi_master.init.1.maxtimers,configure_clock_ref.maxtimers $M configure_in_port.maxtimers $M configure_out_port.maxtimers $M 0
	.globl	spi_master.init.1.maxtimers
	.set	spi_master.init.1.maxchanends,configure_clock_ref.maxchanends $M configure_in_port.maxchanends $M configure_out_port.maxchanends $M 0
	.globl	spi_master.init.1.maxchanends
.Ltmp425:
	.size	spi_master.init.1, .Ltmp425-spi_master.init.1
.Lfunc_end36:
	.cfi_endproc

	.globl	spi_master.init.0
	.align	4
	.type	spi_master.init.0,@function
	.cc_top spi_master.init.0.function,spi_master.init.0
spi_master.init.0:                      # @spi_master.init.0
	.cfi_startproc
	.issue_mode dual
# BB#0:                                 # %allocas
.Lxtalabel88:
	{
		nop
		dualentsp 6
	}
.Ltmp426:
	.cfi_def_cfa_offset 24
.Ltmp427:
	.cfi_offset 15, 0
	std r5, r4, sp[1]               # 4-byte Folded Spill
.Ltmp428:
	.cfi_offset 4, -16
.Ltmp429:
	.cfi_offset 5, -12
	std r7, r6, sp[2]               # 4-byte Folded Spill
.Ltmp430:
	.cfi_offset 6, -8
.Ltmp431:
	.cfi_offset 7, -4
	#DEBUG_VALUE: spi_master.init.0:spi_master.init.0.state_ptr <- R0
	ldd r4, r11, sp[5]
	ldd r6, r5, sp[4]
	{
		nop
		ldw r7, sp[7]
	}
	{
		nop
		stw r1, r0[5]
	}
	{
		nop
		stw r2, r0[6]
	}
	{
		nop
		stw r2, r0[7]
	}
	{
		nop
		stw r3, r0[8]
	}
	{
		nop
		stw r7, r0[9]
	}
	{
		nop
		stw r5, r0[10]
	}
	{
		ldc r3, 48
		stw r6, r0[11]
	}
	{
		add r3, r0, r3
		nop
	}
	{
		ldc r3, 52
		stw r11, r3[0]
	}
	{
		add r3, r0, r3
		nop
	}
	{
		ldc r3, 56
		stw r11, r3[0]
	}
	{
		add r3, r0, r3
		nop
	}
	{
		ldc r3, 0
		stw r4, r3[0]
	}
	{
		nop
		stw r3, r0[0]
	}
	ldap r11, spi_master.init.1
	{
		sub r1, r1, 4
		stw r11, r0[1]
	}
.LBB37_1:                               # %body21
                                        # =>This Inner Loop Header: Depth=1
	#DEBUG_VALUE: spi_master.init.0:spi_master.init.0.state_ptr <- R0
	{
		sub r3, r2, 1
		ldw r2, r1[r2]
	}
	{
		nop
		ldw r11, r2[0]
	}
	bt r11, .LBB37_2
# BB#4:                                 # %distinterface
                                        #   in Loop: Header=BB37_1 Depth=1
	#DEBUG_VALUE: spi_master.init.0:spi_master.init.0.state_ptr <- R0
	{
		nop
		ldw r2, r2[1]
	}
	{
		nop
		stw r0, r2[0]
	}
.LBB37_2:                               # %interfaceinitdone
                                        #   in Loop: Header=BB37_1 Depth=1
	#DEBUG_VALUE: spi_master.init.0:spi_master.init.0.state_ptr <- R0
	{
		mov r2, r3
		nop
	}
	bt r3, .LBB37_1
# BB#3:                                 # %done
	#DEBUG_VALUE: spi_master.init.0:spi_master.init.0.state_ptr <- R0
	{
		add r0, r0, 8
		nop
	}
	bl __lock_fair_init
	ldd r7, r6, sp[2]               # 4-byte Folded Reload
	ldd r5, r4, sp[1]               # 4-byte Folded Reload
	{
		nop
		retsp 6
	}
	# RETURN_REG_HOLDER
	.cc_bottom spi_master.init.0.function
	.set	spi_master.init.0.nstackwords,(__lock_fair_init.nstackwords + 6)
	.globl	spi_master.init.0.nstackwords
	.set	spi_master.init.0.maxcores,__lock_fair_init.maxcores $M 1
	.globl	spi_master.init.0.maxcores
	.set	spi_master.init.0.maxtimers,__lock_fair_init.maxtimers $M 0
	.globl	spi_master.init.0.maxtimers
	.set	spi_master.init.0.maxchanends,__lock_fair_init.maxchanends $M 0
	.globl	spi_master.init.0.maxchanends
.Ltmp432:
	.size	spi_master.init.0, .Ltmp432-spi_master.init.0
	.cfi_endproc

	.section	.cp.rodata.cst4,"aMc",@progbits,4
	.cc_top .LCPI38_0.data,.LCPI38_0
	.align	4
	.type	.LCPI38_0,@object
	.size	.LCPI38_0, 4
.LCPI38_0:
	.long	670763580               # 0x27fb0a3c
	.cc_bottom .LCPI38_0.data
	.cc_top .LCPI38_1.data,.LCPI38_1
	.align	4
	.type	.LCPI38_1,@object
	.size	.LCPI38_1, 4
.LCPI38_1:
	.long	3624163008              # 0xd80456c0
	.cc_bottom .LCPI38_1.data
	.cc_top .LCPI38_2.data,.LCPI38_2
	.align	4
	.type	.LCPI38_2,@object
	.size	.LCPI38_2, 4
.LCPI38_2:
	.long	171759621               # 0xa3cd805
	.cc_bottom .LCPI38_2.data
	.cc_top .LCPI38_3.data,.LCPI38_3
	.align	4
	.type	.LCPI38_3,@object
	.size	.LCPI38_3, 4
.LCPI38_3:
	.long	2000744448              # 0x7740f000
	.cc_bottom .LCPI38_3.data
	.text
	.globl	spi_master.select.yield.enable
	.align	4
	.type	spi_master.select.yield.enable,@function
	.cc_top spi_master.select.yield.enable.function,spi_master.select.yield.enable
spi_master.select.yield.enable:         # @spi_master.select.yield.enable
.Lfunc_begin38:
	.loc	2 0 0                   # <synthesized>:0:0
	.cfi_startproc
	.issue_mode dual
# BB#0:                                 # %allocas
	{
		nop
		dualentsp 4
	}
.Ltmp433:
	.cfi_def_cfa_offset 16
.Ltmp434:
	.cfi_offset 15, 0
	std r5, r4, sp[1]               # 4-byte Folded Spill
.Ltmp435:
	.cfi_offset 4, -8
.Ltmp436:
	.cfi_offset 5, -4
	#DEBUG_VALUE: spi_master.select.yield.enable:spi_master.select.state_ptr <- R0
	{
		mov r4, r0
		nop
	}
.Ltmp437:
	#DEBUG_VALUE: spi_master.select.yield.enable:spi_master.select.state_ptr <- R4
	bl spi_master.init.1
	{
		nop
		ldw r0, r4[0]
	}
	bf r0, .LBB38_1
.Ltmp438:
# BB#2:                                 # %iftrue
	#DEBUG_VALUE: spi_master.select.yield.enable:spi_master.select.state_ptr <- R4
	ldc r0, 80
	.loc	2 268 9 prologue_end    # <synthesized>:268:9
.Ltmp439:
	{
		add r1, r4, r0
		nop
	}
	ldc r0, 100
	.loc	2 268 9                 # <synthesized>:268:9
	{
		add r0, r4, r0
		nop
	}
	ldap r11, spi_master.select.yield.case.0
	{
		nop
		stw r11, r0[0]
	}
	ldc r0, 96
	{
		add r0, r4, r0
		nop
	}
	{
		nop
		stw r4, r0[0]
	}
	ldc r0, 92
	{
		add r0, r4, r0
		nop
	}
	ldw r2, cp[.LCPI38_0]
	{
		nop
		stw r2, r0[0]
	}
	ldc r0, 88
	{
		add r0, r4, r0
		nop
	}
	ldw r2, cp[.LCPI38_1]
	{
		nop
		stw r2, r0[0]
	}
	ldc r0, 84
	{
		add r0, r4, r0
		nop
	}
	ldw r2, cp[.LCPI38_2]
	{
		nop
		stw r2, r0[0]
	}
	ldw r0, cp[.LCPI38_3]
	{
		nop
		stw r0, r1[0]
	}
.Ltmp440:
	#DEBUG_VALUE: x <- 0
	.loc	1 269 0                 # C:/Users/user/workspace/lib_spi/src/spi_sync.xc:269:0
	{
		mkmsk r0, 1
		ldw r3, r4[6]
	}
	bf r3, .LBB38_6
.Ltmp441:
# BB#3:                                 # %selectguardtrue.lr.ph
	#DEBUG_VALUE: spi_master.select.yield.enable:spi_master.select.state_ptr <- R4
	#DEBUG_VALUE: x <- 0
	.loc	1 269 0                 # C:/Users/user/workspace/lib_spi/src/spi_sync.xc:269:0
	{
		ldc r2, 0
		ldw r4, r4[5]
	}
.Ltmp442:
.LBB38_4:                               # %selectguardtrue
                                        # =>This Inner Loop Header: Depth=1
	#DEBUG_VALUE: x <- 0
	{
		nop
		ldw r11, r4[r2]
	}
	{
		nop
		ldw r5, r11[0]
	}
	bf r5, .LBB38_5
# BB#7:                                 # %interfacenotnull
                                        #   in Loop: Header=BB38_4 Depth=1
	#DEBUG_VALUE: x <- 0
	.loc	1 269 0                 # C:/Users/user/workspace/lib_spi/src/spi_sync.xc:269:0
	{
		mov r11, r1
		nop
	}
	{
		setv res[r5], r11
		mov r11, r2
	}
	.loc	1 269 0                 # C:/Users/user/workspace/lib_spi/src/spi_sync.xc:269:0
	{
		setev res[r5], r11
		nop
	}
	.loc	1 269 0                 # C:/Users/user/workspace/lib_spi/src/spi_sync.xc:269:0
	{
		eeu res[r5]
		nop
	}
.LBB38_5:                               # %selectguarddone
                                        #   in Loop: Header=BB38_4 Depth=1
	#DEBUG_VALUE: x <- 0
	.loc	1 269 0                 # C:/Users/user/workspace/lib_spi/src/spi_sync.xc:269:0
	{
		add r2, r2, 1
		nop
	}
.Ltmp443:
	#DEBUG_VALUE: x <- R2
	.loc	1 269 0                 # C:/Users/user/workspace/lib_spi/src/spi_sync.xc:269:0
	{
		lsu r11, r2, r3
		nop
	}
	bt r11, .LBB38_4
	bu .LBB38_6
.Ltmp444:
.LBB38_1:
	{
		ldc r0, 0
		nop
	}
.LBB38_6:                               # %return
	ldd r5, r4, sp[1]               # 4-byte Folded Reload
	{
		nop
		retsp 4
	}
	# RETURN_REG_HOLDER
	.cc_bottom spi_master.select.yield.enable.function
	.set	spi_master.select.yield.enable.nstackwords,(spi_master.init.1.nstackwords + 4)
	.globl	spi_master.select.yield.enable.nstackwords
	.set	spi_master.select.yield.enable.maxcores,spi_master.init.1.maxcores $M 1
	.globl	spi_master.select.yield.enable.maxcores
	.set	spi_master.select.yield.enable.maxtimers,spi_master.init.1.maxtimers $M 0
	.globl	spi_master.select.yield.enable.maxtimers
	.set	spi_master.select.yield.enable.maxchanends,spi_master.init.1.maxchanends $M 0
	.globl	spi_master.select.yield.enable.maxchanends
.Ltmp445:
	.size	spi_master.select.yield.enable, .Ltmp445-spi_master.select.yield.enable
.Lfunc_end38:
	.cfi_endproc

	.section	.cp.rodata.cst4,"aMc",@progbits,4
	.cc_top .LCPI39_0.data,.LCPI39_0
	.align	4
	.type	.LCPI39_0,@object
	.size	.LCPI39_0, 4
.LCPI39_0:
	.long	670763580               # 0x27fb0a3c
	.cc_bottom .LCPI39_0.data
	.cc_top .LCPI39_1.data,.LCPI39_1
	.align	4
	.type	.LCPI39_1,@object
	.size	.LCPI39_1, 4
.LCPI39_1:
	.long	3624163008              # 0xd80456c0
	.cc_bottom .LCPI39_1.data
	.cc_top .LCPI39_2.data,.LCPI39_2
	.align	4
	.type	.LCPI39_2,@object
	.size	.LCPI39_2, 4
.LCPI39_2:
	.long	171759621               # 0xa3cd805
	.cc_bottom .LCPI39_2.data
	.cc_top .LCPI39_3.data,.LCPI39_3
	.align	4
	.type	.LCPI39_3,@object
	.size	.LCPI39_3, 4
.LCPI39_3:
	.long	2000744448              # 0x7740f000
	.cc_bottom .LCPI39_3.data
	.text
	.globl	spi_master.select.enable
	.align	4
	.type	spi_master.select.enable,@function
	.cc_top spi_master.select.enable.function,spi_master.select.enable
spi_master.select.enable:               # @spi_master.select.enable
.Lfunc_begin39:
	.loc	2 0 0                   # <synthesized>:0:0
	.cfi_startproc
	.issue_mode dual
# BB#0:                                 # %allocas
	{
		nop
		dualentsp 0
	}
	{
		extsp 2
		nop
	}
.Ltmp446:
	.cfi_def_cfa_offset 8
	std r5, r4, sp[0]               # 4-byte Folded Spill
.Ltmp447:
	.cfi_offset 4, -8
.Ltmp448:
	.cfi_offset 5, -4
	#DEBUG_VALUE: spi_master.select.enable:spi_master.select.state_ptr <- R0
	{
		mov r2, r0
		nop
	}
.Ltmp449:
	#DEBUG_VALUE: spi_master.select.enable:spi_master.select.state_ptr <- R2
	{
		nop
		ldw r0, r2[0]
	}
	bf r0, .LBB39_1
.Ltmp450:
# BB#2:                                 # %iftrue
	#DEBUG_VALUE: spi_master.select.enable:spi_master.select.state_ptr <- R2
	ldc r0, 80
	.loc	2 268 9 prologue_end    # <synthesized>:268:9
.Ltmp451:
	{
		add r1, r2, r0
		nop
	}
	ldc r0, 100
	.loc	2 268 9                 # <synthesized>:268:9
	{
		add r0, r2, r0
		nop
	}
	ldap r11, spi_master.select.case.0
	{
		nop
		stw r11, r0[0]
	}
	ldc r0, 96
	{
		add r0, r2, r0
		nop
	}
	{
		nop
		stw r2, r0[0]
	}
	ldc r0, 92
	{
		add r0, r2, r0
		nop
	}
	ldw r3, cp[.LCPI39_0]
	{
		nop
		stw r3, r0[0]
	}
	ldc r0, 88
	{
		add r0, r2, r0
		nop
	}
	ldw r3, cp[.LCPI39_1]
	{
		nop
		stw r3, r0[0]
	}
	ldc r0, 84
	{
		add r0, r2, r0
		nop
	}
	ldw r3, cp[.LCPI39_2]
	{
		nop
		stw r3, r0[0]
	}
	ldw r0, cp[.LCPI39_3]
	{
		nop
		stw r0, r1[0]
	}
.Ltmp452:
	#DEBUG_VALUE: x <- 0
	.loc	1 269 0                 # C:/Users/user/workspace/lib_spi/src/spi_sync.xc:269:0
	{
		mkmsk r0, 1
		ldw r3, r2[6]
	}
	bf r3, .LBB39_6
.Ltmp453:
# BB#3:                                 # %selectguardtrue.lr.ph
	#DEBUG_VALUE: spi_master.select.enable:spi_master.select.state_ptr <- R2
	#DEBUG_VALUE: x <- 0
	.loc	1 269 0                 # C:/Users/user/workspace/lib_spi/src/spi_sync.xc:269:0
	{
		ldc r2, 0
		ldw r4, r2[5]
	}
.Ltmp454:
.LBB39_4:                               # %selectguardtrue
                                        # =>This Inner Loop Header: Depth=1
	#DEBUG_VALUE: x <- 0
	{
		nop
		ldw r11, r4[r2]
	}
	{
		nop
		ldw r5, r11[0]
	}
	bf r5, .LBB39_5
# BB#7:                                 # %interfacenotnull
                                        #   in Loop: Header=BB39_4 Depth=1
	#DEBUG_VALUE: x <- 0
	.loc	1 269 0                 # C:/Users/user/workspace/lib_spi/src/spi_sync.xc:269:0
	{
		mov r11, r1
		nop
	}
	{
		setv res[r5], r11
		mov r11, r2
	}
	.loc	1 269 0                 # C:/Users/user/workspace/lib_spi/src/spi_sync.xc:269:0
	{
		setev res[r5], r11
		nop
	}
	.loc	1 269 0                 # C:/Users/user/workspace/lib_spi/src/spi_sync.xc:269:0
	{
		eeu res[r5]
		nop
	}
.LBB39_5:                               # %selectguarddone
                                        #   in Loop: Header=BB39_4 Depth=1
	#DEBUG_VALUE: x <- 0
	.loc	1 269 0                 # C:/Users/user/workspace/lib_spi/src/spi_sync.xc:269:0
	{
		add r2, r2, 1
		nop
	}
.Ltmp455:
	#DEBUG_VALUE: x <- R2
	.loc	1 269 0                 # C:/Users/user/workspace/lib_spi/src/spi_sync.xc:269:0
	{
		lsu r11, r2, r3
		nop
	}
	bt r11, .LBB39_4
	bu .LBB39_6
.Ltmp456:
.LBB39_1:
	{
		ldc r0, 0
		nop
	}
.LBB39_6:                               # %return
	ldd r5, r4, sp[0]               # 4-byte Folded Reload
	{
		ldaw sp, sp[2]
		nop
	}
	{
		nop
		retsp 0
	}
	# RETURN_REG_HOLDER
	.cc_bottom spi_master.select.enable.function
	.set	spi_master.select.enable.nstackwords,2
	.globl	spi_master.select.enable.nstackwords
	.set	spi_master.select.enable.maxcores,1
	.globl	spi_master.select.enable.maxcores
	.set	spi_master.select.enable.maxtimers,0
	.globl	spi_master.select.enable.maxtimers
	.set	spi_master.select.enable.maxchanends,0
	.globl	spi_master.select.enable.maxchanends
.Ltmp457:
	.size	spi_master.select.enable, .Ltmp457-spi_master.select.enable
.Lfunc_end39:
	.cfi_endproc

	.globl	spi_master.fini
	.align	4
	.type	spi_master.fini,@function
	.cc_top spi_master.fini.function,spi_master.fini
spi_master.fini:                        # @spi_master.fini
	.cfi_startproc
	.issue_mode dual
# BB#0:                                 # %allocas
	{
		nop
		dualentsp 0
	}
	#DEBUG_VALUE: spi_master.fini:spi_master.fini.state_ptr <- R0
	{
		nop
		ldw r0, r0[0]
	}
	bf r0, .LBB40_2
.LBB40_1:                               # %LoopTest
                                        # =>This Inner Loop Header: Depth=1
	bu .LBB40_1
.LBB40_2:                               # %return
	{
		nop
		retsp 0
	}
	# RETURN_REG_HOLDER
	.cc_bottom spi_master.fini.function
	.set	spi_master.fini.nstackwords,0
	.globl	spi_master.fini.nstackwords
	.set	spi_master.fini.maxcores,1
	.globl	spi_master.fini.maxcores
	.set	spi_master.fini.maxtimers,0
	.globl	spi_master.fini.maxtimers
	.set	spi_master.fini.maxchanends,0
	.globl	spi_master.fini.maxchanends
.Ltmp458:
	.size	spi_master.fini, .Ltmp458-spi_master.fini
	.cfi_endproc

	.align	4
	.type	transfer8_sync_zero_clkblk,@function
	.cc_top transfer8_sync_zero_clkblk.function,transfer8_sync_zero_clkblk
transfer8_sync_zero_clkblk:             # @transfer8_sync_zero_clkblk
.Lfunc_begin41:
	.loc	1 83 0                  # C:/Users/user/workspace/lib_spi/src/spi_sync.xc:83:0
	.cfi_startproc
	.issue_mode dual
# BB#0:                                 # %allocas
.Lxtalabel89:
	{
		nop
		dualentsp 14
	}
.Ltmp459:
	.cfi_def_cfa_offset 56
.Ltmp460:
	.cfi_offset 15, 0
	std r5, r4, sp[3]               # 4-byte Folded Spill
.Ltmp461:
	.cfi_offset 4, -32
.Ltmp462:
	.cfi_offset 5, -28
	std r7, r6, sp[4]               # 4-byte Folded Spill
.Ltmp463:
	.cfi_offset 6, -24
.Ltmp464:
	.cfi_offset 7, -20
	std r9, r8, sp[5]               # 4-byte Folded Spill
.Ltmp465:
	.cfi_offset 8, -16
.Ltmp466:
	.cfi_offset 9, -12
	{
		nop
		stw r10, sp[12]
	}
.Ltmp467:
	.cfi_offset 10, -8
	#DEBUG_VALUE: transfer8_sync_zero_clkblk:sclk <- R0
	#DEBUG_VALUE: transfer8_sync_zero_clkblk:mosi <- R1
	#DEBUG_VALUE: transfer8_sync_zero_clkblk:miso <- R2
	#DEBUG_VALUE: transfer8_sync_zero_clkblk:data <- R3
	ldd r11, r4, sp[8]
	#DEBUG_VALUE: transfer8_sync_zero_clkblk:cpol <- R4
	{
		nop
		stw r4, sp[3]
	}
	{
		nop
		ldw r5, sp[15]
	}
	#DEBUG_VALUE: transfer8_sync_zero_clkblk:period <- R5
	.loc	1 84 0 prologue_end     # C:/Users/user/workspace/lib_spi/src/spi_sync.xc:84:0
.Ltmp468:
	xor r11, r11, r4
	ldc r6, 43690
	.loc	1 84 0                  # C:/Users/user/workspace/lib_spi/src/spi_sync.xc:84:0
	{
		shr r6, r6, r11
		nop
	}
.Ltmp469:
	#DEBUG_VALUE: c <- R6
	.loc	1 85 0                  # C:/Users/user/workspace/lib_spi/src/spi_sync.xc:85:0
.Lxta.endpoint_labels19:
	outpw res[r0], r4, 1
.Ltmp470:
	#DEBUG_VALUE: transfer8_sync_zero_clkblk:cpol <- [SP+12]
	.loc	1 85 0                  # C:/Users/user/workspace/lib_spi/src/spi_sync.xc:85:0
	{
		syncr res[r0]
		nop
	}
.Ltmp471:
	#DEBUG_VALUE: i <- 0
	#DEBUG_VALUE: time <- R4
	.loc	1 85 0                  # C:/Users/user/workspace/lib_spi/src/spi_sync.xc:85:0
	{
		getts r4, res[r0]
		shr r10, r5, 1
	}
.Ltmp472:
	.loc	1 106 0                 # C:/Users/user/workspace/lib_spi/src/spi_sync.xc:106:0
	{
		add r11, r5, 1
		nop
	}
	.loc	1 106 0                 # C:/Users/user/workspace/lib_spi/src/spi_sync.xc:106:0
	{
		shr r5, r11, 1
		nop
	}
.Ltmp473:
	bf r1, .LBB41_5
.Ltmp474:
# BB#1:                                 # %ifdone9.preheader
	#DEBUG_VALUE: transfer8_sync_zero_clkblk:sclk <- R0
	#DEBUG_VALUE: transfer8_sync_zero_clkblk:mosi <- R1
	#DEBUG_VALUE: transfer8_sync_zero_clkblk:miso <- R2
	#DEBUG_VALUE: transfer8_sync_zero_clkblk:data <- R3
	#DEBUG_VALUE: transfer8_sync_zero_clkblk:cpol <- [SP+12]
	#DEBUG_VALUE: c <- R6
	#DEBUG_VALUE: time <- R4
	#DEBUG_VALUE: i <- 0
	{
		ldc r11, 39
		nop
	}
	.loc	1 89 0                  # C:/Users/user/workspace/lib_spi/src/spi_sync.xc:89:0
	{
		add r11, r10, r11
		nop
	}
	.loc	1 89 0                  # C:/Users/user/workspace/lib_spi/src/spi_sync.xc:89:0
	{
		add r11, r10, r5
		stw r11, sp[4]
	}
	{
		nop
		stw r11, sp[5]
	}
	{
		ldc r5, 8
		stw r5, sp[1]
	}
.Ltmp475:
	#DEBUG_VALUE: time <- [SP+8]
                                        # implicit-def: R11
	{
		mov r8, r4
		stw r4, sp[2]
	}
.Ltmp476:
.LBB41_2:                               # %ifdone9
                                        # =>This Inner Loop Header: Depth=1
.Lxtalabel90:
	#DEBUG_VALUE: transfer8_sync_zero_clkblk:sclk <- R0
	#DEBUG_VALUE: transfer8_sync_zero_clkblk:mosi <- R1
	#DEBUG_VALUE: transfer8_sync_zero_clkblk:miso <- R2
	#DEBUG_VALUE: transfer8_sync_zero_clkblk:cpol <- [SP+12]
	#DEBUG_VALUE: time <- [SP+8]
	#DEBUG_VALUE: i <- 0
	.loc	1 89 0                  # C:/Users/user/workspace/lib_spi/src/spi_sync.xc:89:0
	ldaw r4, r8[10]
	.loc	1 89 0                  # C:/Users/user/workspace/lib_spi/src/spi_sync.xc:89:0
	{
		setpt res[r0], r4
		nop
	}
	.loc	1 89 0                  # C:/Users/user/workspace/lib_spi/src/spi_sync.xc:89:0
.Lxta.endpoint_labels20:
	outpw res[r0], r6, 1
.Ltmp477:
	#DEBUG_VALUE: c <- R9
	.loc	1 90 0                  # C:/Users/user/workspace/lib_spi/src/spi_sync.xc:90:0
	{
		shr r9, r6, 1
		zext r3, 8
	}
.Ltmp478:
	.loc	1 94 0                  # C:/Users/user/workspace/lib_spi/src/spi_sync.xc:94:0
	{
		setpt res[r1], r4
		shr r7, r3, 7
	}
	.loc	1 94 0                  # C:/Users/user/workspace/lib_spi/src/spi_sync.xc:94:0
.Lxta.endpoint_labels21:
	outpw res[r1], r7, 1
	.loc	1 99 0                  # C:/Users/user/workspace/lib_spi/src/spi_sync.xc:99:0
	{
		add r4, r10, r8
		nop
	}
	.loc	1 99 0                  # C:/Users/user/workspace/lib_spi/src/spi_sync.xc:99:0
	ldaw r4, r4[10]
	.loc	1 99 0                  # C:/Users/user/workspace/lib_spi/src/spi_sync.xc:99:0
	{
		setpt res[r0], r4
		nop
	}
	.loc	1 99 0                  # C:/Users/user/workspace/lib_spi/src/spi_sync.xc:99:0
.Lxta.endpoint_labels22:
	outpw res[r0], r9, 1
	bf r2, .LBB41_4
.Ltmp479:
# BB#3:                                 # %iftrue31
                                        #   in Loop: Header=BB41_2 Depth=1
.Lxtalabel91:
	#DEBUG_VALUE: transfer8_sync_zero_clkblk:sclk <- R0
	#DEBUG_VALUE: transfer8_sync_zero_clkblk:mosi <- R1
	#DEBUG_VALUE: transfer8_sync_zero_clkblk:miso <- R2
	#DEBUG_VALUE: transfer8_sync_zero_clkblk:cpol <- [SP+12]
	#DEBUG_VALUE: time <- [SP+8]
	#DEBUG_VALUE: i <- 0
	{
		nop
		ldw r4, sp[4]
	}
	.loc	1 103 0                 # C:/Users/user/workspace/lib_spi/src/spi_sync.xc:103:0
.Ltmp480:
	{
		add r4, r4, r8
		nop
	}
	.loc	1 103 0                 # C:/Users/user/workspace/lib_spi/src/spi_sync.xc:103:0
	{
		setpt res[r2], r4
		nop
	}
	.loc	1 103 0                 # C:/Users/user/workspace/lib_spi/src/spi_sync.xc:103:0
	{
		setc res[r2], 1
		nop
	}
.Ltmp481:
	#DEBUG_VALUE: t <- R4
	.loc	1 103 0                 # C:/Users/user/workspace/lib_spi/src/spi_sync.xc:103:0
.Lxta.endpoint_labels23:
	{
		in r4, res[r2]
		shl r11, r11, 1
	}
.Ltmp482:
	.loc	1 104 0                 # C:/Users/user/workspace/lib_spi/src/spi_sync.xc:104:0
	{
		zext r4, 1
		nop
	}
	.loc	1 104 0                 # C:/Users/user/workspace/lib_spi/src/spi_sync.xc:104:0
	{
		or r11, r4, r11
		nop
	}
.Ltmp483:
	#DEBUG_VALUE: d <- R11
.LBB41_4:                               # %ifdone32
                                        #   in Loop: Header=BB41_2 Depth=1
.Lxtalabel92:
	#DEBUG_VALUE: transfer8_sync_zero_clkblk:sclk <- R0
	#DEBUG_VALUE: transfer8_sync_zero_clkblk:mosi <- R1
	#DEBUG_VALUE: transfer8_sync_zero_clkblk:miso <- R2
	#DEBUG_VALUE: transfer8_sync_zero_clkblk:cpol <- [SP+12]
	#DEBUG_VALUE: time <- [SP+8]
	#DEBUG_VALUE: i <- 0
	#DEBUG_VALUE: c <- R6
	.loc	1 95 0                  # C:/Users/user/workspace/lib_spi/src/spi_sync.xc:95:0
	{
		shl r3, r3, 1
		shr r6, r6, 2
	}
.Ltmp484:
	{
		nop
		ldw r4, sp[5]
	}
	.loc	1 88 0                  # C:/Users/user/workspace/lib_spi/src/spi_sync.xc:88:0
	{
		add r8, r8, r4
		sub r5, r5, 1
	}
.xtaloop 8
	# LOOPMARKER 1
.Lxta.loop_labels2:
	# LOOPMARKER 0
	bt r5, .LBB41_2
	bu .LBB41_9
.Ltmp485:
.LBB41_5:                               # %ifdone9.us.preheader
	#DEBUG_VALUE: transfer8_sync_zero_clkblk:sclk <- R0
	#DEBUG_VALUE: transfer8_sync_zero_clkblk:miso <- R2
	#DEBUG_VALUE: transfer8_sync_zero_clkblk:cpol <- [SP+12]
	#DEBUG_VALUE: c <- R6
	#DEBUG_VALUE: time <- R4
	#DEBUG_VALUE: i <- 0
	{
		ldc r1, 39
		nop
	}
	.loc	1 89 0                  # C:/Users/user/workspace/lib_spi/src/spi_sync.xc:89:0
	{
		add r1, r10, r1
		add r3, r10, r5
	}
	{
		ldc r5, 8
		stw r5, sp[1]
	}
.Ltmp486:
	#DEBUG_VALUE: time <- [SP+8]
                                        # implicit-def: R11
	{
		mov r8, r4
		stw r4, sp[2]
	}
.Ltmp487:
.LBB41_6:                               # %ifdone9.us
                                        # =>This Inner Loop Header: Depth=1
.Lxtalabel93:
	#DEBUG_VALUE: transfer8_sync_zero_clkblk:sclk <- R0
	#DEBUG_VALUE: transfer8_sync_zero_clkblk:miso <- R2
	#DEBUG_VALUE: transfer8_sync_zero_clkblk:cpol <- [SP+12]
	#DEBUG_VALUE: time <- [SP+8]
	#DEBUG_VALUE: i <- 0
	.loc	1 89 0                  # C:/Users/user/workspace/lib_spi/src/spi_sync.xc:89:0
	ldaw r9, r8[10]
	.loc	1 89 0                  # C:/Users/user/workspace/lib_spi/src/spi_sync.xc:89:0
	{
		setpt res[r0], r9
		nop
	}
	.loc	1 89 0                  # C:/Users/user/workspace/lib_spi/src/spi_sync.xc:89:0
.Lxta.endpoint_labels24:
	outpw res[r0], r6, 1
.Ltmp488:
	#DEBUG_VALUE: c <- R9
	.loc	1 90 0                  # C:/Users/user/workspace/lib_spi/src/spi_sync.xc:90:0
	{
		shr r9, r6, 1
		mov r4, r10
	}
.Ltmp489:
	.loc	1 99 0                  # C:/Users/user/workspace/lib_spi/src/spi_sync.xc:99:0
	{
		add r10, r4, r8
		nop
	}
	.loc	1 99 0                  # C:/Users/user/workspace/lib_spi/src/spi_sync.xc:99:0
	ldaw r10, r10[10]
	.loc	1 99 0                  # C:/Users/user/workspace/lib_spi/src/spi_sync.xc:99:0
	{
		setpt res[r0], r10
		nop
	}
	.loc	1 99 0                  # C:/Users/user/workspace/lib_spi/src/spi_sync.xc:99:0
.Lxta.endpoint_labels25:
	outpw res[r0], r9, 1
	#DEBUG_VALUE: transfer8_sync_zero_clkblk:sclk <- R0
	#DEBUG_VALUE: transfer8_sync_zero_clkblk:miso <- R2
	#DEBUG_VALUE: transfer8_sync_zero_clkblk:cpol <- [SP+12]
	#DEBUG_VALUE: time <- [SP+8]
	#DEBUG_VALUE: i <- 0
	{
		mov r10, r4
		nop
	}
	bf r2, .LBB41_8
.Ltmp490:
# BB#7:                                 # %iftrue31.us
                                        #   in Loop: Header=BB41_6 Depth=1
.Lxtalabel94:
	.loc	1 103 0                 # C:/Users/user/workspace/lib_spi/src/spi_sync.xc:103:0
	{
		add r9, r1, r8
		nop
	}
	.loc	1 103 0                 # C:/Users/user/workspace/lib_spi/src/spi_sync.xc:103:0
	{
		setpt res[r2], r9
		nop
	}
	.loc	1 103 0                 # C:/Users/user/workspace/lib_spi/src/spi_sync.xc:103:0
	{
		setc res[r2], 1
		nop
	}
.Ltmp491:
	#DEBUG_VALUE: t <- R9
	.loc	1 103 0                 # C:/Users/user/workspace/lib_spi/src/spi_sync.xc:103:0
.Lxta.endpoint_labels26:
	{
		in r9, res[r2]
		shl r11, r11, 1
	}
.Ltmp492:
	.loc	1 104 0                 # C:/Users/user/workspace/lib_spi/src/spi_sync.xc:104:0
	{
		zext r9, 1
		nop
	}
	.loc	1 104 0                 # C:/Users/user/workspace/lib_spi/src/spi_sync.xc:104:0
	{
		or r11, r9, r11
		nop
	}
.Ltmp493:
	#DEBUG_VALUE: d <- R11
.LBB41_8:                               # %ifdone32.us
                                        #   in Loop: Header=BB41_6 Depth=1
.Lxtalabel95:
	#DEBUG_VALUE: transfer8_sync_zero_clkblk:sclk <- R0
	#DEBUG_VALUE: transfer8_sync_zero_clkblk:miso <- R2
	#DEBUG_VALUE: transfer8_sync_zero_clkblk:cpol <- [SP+12]
	#DEBUG_VALUE: time <- [SP+8]
	#DEBUG_VALUE: i <- 0
	#DEBUG_VALUE: c <- R6
	.loc	1 100 0                 # C:/Users/user/workspace/lib_spi/src/spi_sync.xc:100:0
	{
		shr r6, r6, 2
		add r8, r8, r3
	}
.Ltmp494:
	.loc	1 88 0                  # C:/Users/user/workspace/lib_spi/src/spi_sync.xc:88:0
	{
		sub r5, r5, 1
		nop
	}
.xtaloop 8
	# LOOPMARKER 3
.Lxta.loop_labels3:
	# LOOPMARKER 2
	bt r5, .LBB41_6
.Ltmp495:
.LBB41_9:                               # %ifdone
.Lxtalabel96:
	#DEBUG_VALUE: transfer8_sync_zero_clkblk:sclk <- R0
	#DEBUG_VALUE: transfer8_sync_zero_clkblk:cpol <- [SP+12]
	#DEBUG_VALUE: time <- [SP+8]
	#DEBUG_VALUE: i <- 0
	{
		nop
		ldw r1, sp[1]
	}
	.loc	1 88 0                  # C:/Users/user/workspace/lib_spi/src/spi_sync.xc:88:0
	{
		add r1, r10, r1
		nop
	}
	.loc	1 88 0                  # C:/Users/user/workspace/lib_spi/src/spi_sync.xc:88:0
	{
		shl r1, r1, 3
		ldw r2, sp[2]
	}
	.loc	1 88 0                  # C:/Users/user/workspace/lib_spi/src/spi_sync.xc:88:0
	{
		add r1, r2, r1
		nop
	}
	.loc	1 88 0                  # C:/Users/user/workspace/lib_spi/src/spi_sync.xc:88:0
	ldaw r1, r1[10]
.Ltmp496:
	#DEBUG_VALUE: time <- R1
	.loc	1 108 0                 # C:/Users/user/workspace/lib_spi/src/spi_sync.xc:108:0
	{
		setpt res[r0], r1
		ldw r1, sp[3]
	}
.Ltmp497:
	.loc	1 108 0                 # C:/Users/user/workspace/lib_spi/src/spi_sync.xc:108:0
.Lxta.endpoint_labels27:
	outpw res[r0], r1, 1
	.loc	1 109 0                 # C:/Users/user/workspace/lib_spi/src/spi_sync.xc:109:0
	{
		syncr res[r0]
		zext r11, 8
	}
	{
		mov r0, r11
		ldw r10, sp[12]
	}
.Ltmp498:
	ldd r9, r8, sp[5]               # 4-byte Folded Reload
	ldd r7, r6, sp[4]               # 4-byte Folded Reload
	ldd r5, r4, sp[3]               # 4-byte Folded Reload
	{
		nop
		retsp 14
	}
.Ltmp499:
	# RETURN_REG_HOLDER
.Ltmp500:
	.cc_bottom transfer8_sync_zero_clkblk.function
	.set	transfer8_sync_zero_clkblk.nstackwords,14
	.set	transfer8_sync_zero_clkblk.maxcores,1
	.set	transfer8_sync_zero_clkblk.maxtimers,0
	.set	transfer8_sync_zero_clkblk.maxchanends,0
.Ltmp501:
	.size	transfer8_sync_zero_clkblk, .Ltmp501-transfer8_sync_zero_clkblk
.Lfunc_end41:
	.cfi_endproc

	.section	.cp.rodata.cst4,"aMc",@progbits,4
	.cc_top .LCPI42_0.data,.LCPI42_0
	.align	4
	.type	.LCPI42_0,@object
	.size	.LCPI42_0, 4
.LCPI42_0:
	.long	2863311530              # 0xaaaaaaaa
	.cc_bottom .LCPI42_0.data
	.text
	.align	4
	.type	transfer32_sync_zero_clkblk,@function
	.cc_top transfer32_sync_zero_clkblk.function,transfer32_sync_zero_clkblk
transfer32_sync_zero_clkblk:            # @transfer32_sync_zero_clkblk
.Lfunc_begin42:
	.loc	1 119 0                 # C:/Users/user/workspace/lib_spi/src/spi_sync.xc:119:0
	.cfi_startproc
	.issue_mode dual
# BB#0:                                 # %allocas
.Lxtalabel97:
	{
		nop
		dualentsp 22
	}
.Ltmp502:
	.cfi_def_cfa_offset 88
.Ltmp503:
	.cfi_offset 15, 0
	std r5, r4, sp[7]               # 4-byte Folded Spill
.Ltmp504:
	.cfi_offset 4, -32
.Ltmp505:
	.cfi_offset 5, -28
	std r7, r6, sp[8]               # 4-byte Folded Spill
.Ltmp506:
	.cfi_offset 6, -24
.Ltmp507:
	.cfi_offset 7, -20
	std r9, r8, sp[9]               # 4-byte Folded Spill
.Ltmp508:
	.cfi_offset 8, -16
.Ltmp509:
	.cfi_offset 9, -12
	{
		nop
		stw r10, sp[20]
	}
.Ltmp510:
	.cfi_offset 10, -8
	#DEBUG_VALUE: transfer32_sync_zero_clkblk:sclk <- R0
	#DEBUG_VALUE: transfer32_sync_zero_clkblk:mosi <- R1
	#DEBUG_VALUE: transfer32_sync_zero_clkblk:miso <- R2
	#DEBUG_VALUE: transfer32_sync_zero_clkblk:data <- R3
	#DEBUG_VALUE: transfer32_sync_zero_clkblk:period <- [SP+92]
.Ltmp511:
	#DEBUG_VALUE: transfer32_sync_zero_clkblk:miso <- [SP+40]
	#DEBUG_VALUE: transfer32_sync_zero_clkblk:mosi <- R2
	{
		mov r2, r1
		stw r2, sp[10]
	}
.Ltmp512:
	{
		nop
		stw r2, sp[11]
	}
	{
		nop
		ldw r6, sp[24]
	}
	{
		nop
		ldw r11, sp[25]
	}
	#DEBUG_VALUE: transfer32_sync_zero_clkblk:cpol <- R6
	{
		nop
		stw r6, sp[1]
	}
	{
		nop
		ldw r4, sp[23]
	}
	.loc	1 122 0 prologue_end    # C:/Users/user/workspace/lib_spi/src/spi_sync.xc:122:0
.Ltmp513:
.Lxta.endpoint_labels28:
	outpw res[r0], r6, 1
	.loc	1 122 0                 # C:/Users/user/workspace/lib_spi/src/spi_sync.xc:122:0
	{
		syncr res[r0]
		nop
	}
	.loc	1 122 0                 # C:/Users/user/workspace/lib_spi/src/spi_sync.xc:122:0
	{
		getts r5, res[r0]
		nop
	}
.Ltmp514:
	#DEBUG_VALUE: j <- 0
	#DEBUG_VALUE: time <- R5
	.loc	1 127 0                 # C:/Users/user/workspace/lib_spi/src/spi_sync.xc:127:0
	xor r11, r11, r6
.Ltmp515:
	#DEBUG_VALUE: transfer32_sync_zero_clkblk:cpol <- [SP+4]
	ldw r6, cp[.LCPI42_0]
	.loc	1 127 0                 # C:/Users/user/workspace/lib_spi/src/spi_sync.xc:127:0
	{
		shr r11, r6, r11
		nop
	}
.Ltmp516:
	#DEBUG_VALUE: c <- [SP+24]
	.loc	1 135 0                 # C:/Users/user/workspace/lib_spi/src/spi_sync.xc:135:0
	{
		shr r1, r4, 1
		stw r11, sp[6]
	}
	.loc	1 143 0                 # C:/Users/user/workspace/lib_spi/src/spi_sync.xc:143:0
	{
		add r11, r4, 1
		stw r1, sp[2]
	}
	.loc	1 143 0                 # C:/Users/user/workspace/lib_spi/src/spi_sync.xc:143:0
	{
		shr r6, r11, 1
		nop
	}
.Ltmp517:
	.loc	1 126 0                 # C:/Users/user/workspace/lib_spi/src/spi_sync.xc:126:0
	{
		add r8, r1, r6
		stw r6, sp[3]
	}
	{
		add r11, r5, r1
		stw r8, sp[4]
	}
	{
		mov r7, r1
		nop
	}
	ldc r4, 99
	.loc	1 126 0                 # C:/Users/user/workspace/lib_spi/src/spi_sync.xc:126:0
	{
		add r9, r11, r4
		shl r11, r8, 4
	}
	ldc r4, 80
	.loc	1 126 0                 # C:/Users/user/workspace/lib_spi/src/spi_sync.xc:126:0
	{
		add r1, r11, r4
		nop
	}
	{
		nop
		stw r1, sp[5]
	}
	ldc r11, 100
                                        # implicit-def: R11
	.loc	1 126 0                 # C:/Users/user/workspace/lib_spi/src/spi_sync.xc:126:0
	{
		add r5, r5, r11
		ldc r1, 0
	}
.Ltmp518:
	{
		mov r8, r1
		stw r11, sp[13]
	}
.Ltmp519:
.LBB42_1:                               # %LoopBody
                                        # =>This Loop Header: Depth=1
                                        #     Child Loop BB42_4 Depth 2
                                        #     Child Loop BB42_10 Depth 2
                                        #     Child Loop BB42_7 Depth 2
                                        #     Child Loop BB42_9 Depth 2
.Lxtalabel98:
	#DEBUG_VALUE: transfer32_sync_zero_clkblk:sclk <- R0
	#DEBUG_VALUE: transfer32_sync_zero_clkblk:mosi <- R2
	#DEBUG_VALUE: transfer32_sync_zero_clkblk:miso <- [SP+40]
	#DEBUG_VALUE: transfer32_sync_zero_clkblk:period <- [SP+92]
	#DEBUG_VALUE: transfer32_sync_zero_clkblk:cpol <- [SP+4]
	#DEBUG_VALUE: i <- 0
	{
		nop
		stw r9, sp[9]
	}
	bf r2, .LBB42_5
.Ltmp520:
# BB#2:                                 # %LoopBody.LoopBody.split_crit_edge
                                        #   in Loop: Header=BB42_1 Depth=1
	#DEBUG_VALUE: transfer32_sync_zero_clkblk:sclk <- R0
	#DEBUG_VALUE: transfer32_sync_zero_clkblk:mosi <- R2
	#DEBUG_VALUE: transfer32_sync_zero_clkblk:miso <- [SP+40]
	#DEBUG_VALUE: transfer32_sync_zero_clkblk:period <- [SP+92]
	#DEBUG_VALUE: transfer32_sync_zero_clkblk:cpol <- [SP+4]
	{
		ldc r4, 16
		stw r8, sp[7]
	}
	{
		mov r9, r5
		stw r5, sp[8]
	}
	{
		mov r1, r7
		ldw r5, sp[6]
	}
	{
		mkmsk r7, 5
		ldw r8, sp[10]
	}
	bf r8, .LBB42_10
.Ltmp521:
# BB#3:                                 #   in Loop: Header=BB42_1 Depth=1
	#DEBUG_VALUE: transfer32_sync_zero_clkblk:sclk <- R0
	#DEBUG_VALUE: transfer32_sync_zero_clkblk:mosi <- R2
	#DEBUG_VALUE: transfer32_sync_zero_clkblk:mosi <- [SP+44]
	#DEBUG_VALUE: transfer32_sync_zero_clkblk:miso <- [SP+40]
	#DEBUG_VALUE: transfer32_sync_zero_clkblk:period <- [SP+92]
	#DEBUG_VALUE: transfer32_sync_zero_clkblk:cpol <- [SP+4]
	{
		ldc r10, 16
		ldw r9, sp[9]
	}
	{
		nop
		ldw r4, sp[8]
	}
	{
		nop
		ldw r5, sp[6]
	}
	{
		nop
		ldw r8, sp[4]
	}
.Ltmp522:
.LBB42_4:                               # %ifdone38
                                        #   Parent Loop BB42_1 Depth=1
                                        # =>  This Inner Loop Header: Depth=2
.Lxtalabel99:
	#DEBUG_VALUE: transfer32_sync_zero_clkblk:sclk <- R0
	#DEBUG_VALUE: transfer32_sync_zero_clkblk:mosi <- [SP+44]
	#DEBUG_VALUE: transfer32_sync_zero_clkblk:miso <- [SP+40]
	#DEBUG_VALUE: transfer32_sync_zero_clkblk:period <- [SP+92]
	#DEBUG_VALUE: transfer32_sync_zero_clkblk:cpol <- [SP+4]
	.loc	1 129 0                 # C:/Users/user/workspace/lib_spi/src/spi_sync.xc:129:0
	{
		setpt res[r0], r4
		nop
	}
	.loc	1 129 0                 # C:/Users/user/workspace/lib_spi/src/spi_sync.xc:129:0
.Lxta.endpoint_labels29:
	outpw res[r0], r5, 1
	{
		mov r2, r7
		nop
	}
.Ltmp523:
	#DEBUG_VALUE: transfer32_sync_zero_clkblk:mosi <- R11
	.loc	1 131 0                 # C:/Users/user/workspace/lib_spi/src/spi_sync.xc:131:0
	{
		shr r7, r3, r2
		ldw r11, sp[11]
	}
.Ltmp524:
	.loc	1 131 0                 # C:/Users/user/workspace/lib_spi/src/spi_sync.xc:131:0
	{
		setpt res[r11], r4
		nop
	}
	.loc	1 131 0                 # C:/Users/user/workspace/lib_spi/src/spi_sync.xc:131:0
.Lxta.endpoint_labels30:
	outpw res[r11], r7, 1
.Ltmp525:
	#DEBUG_VALUE: transfer32_sync_zero_clkblk:mosi <- [SP+44]
	#DEBUG_VALUE: c <- R7
	.loc	1 132 0                 # C:/Users/user/workspace/lib_spi/src/spi_sync.xc:132:0
	{
		shl r3, r3, 1
		shr r7, r5, 1
	}
.Ltmp526:
	.loc	1 135 0                 # C:/Users/user/workspace/lib_spi/src/spi_sync.xc:135:0
	{
		add r11, r4, r1
		nop
	}
.Ltmp527:
	#DEBUG_VALUE: time <- [SP+48]
	{
		mov r4, r3
		stw r11, sp[12]
	}
	{
		mov r11, r1
		mov r1, r6
	}
	{
		mov r6, r8
		add r8, r9, 1
	}
	.loc	1 136 0                 # C:/Users/user/workspace/lib_spi/src/spi_sync.xc:136:0
	{
		setpt res[r0], r8
		mov r8, r6
	}
	{
		mov r6, r1
		mov r1, r11
	}
	.loc	1 136 0                 # C:/Users/user/workspace/lib_spi/src/spi_sync.xc:136:0
.Lxta.endpoint_labels31:
	outpw res[r0], r7, 1
.Ltmp528:
	#DEBUG_VALUE: c <- R5
	#DEBUG_VALUE: transfer32_sync_zero_clkblk:miso <- R11
	.loc	1 137 0                 # C:/Users/user/workspace/lib_spi/src/spi_sync.xc:137:0
	{
		shr r5, r5, 2
		ldw r11, sp[10]
	}
.Ltmp529:
	.loc	1 140 0                 # C:/Users/user/workspace/lib_spi/src/spi_sync.xc:140:0
	{
		setpt res[r11], r9
		nop
	}
	.loc	1 140 0                 # C:/Users/user/workspace/lib_spi/src/spi_sync.xc:140:0
	{
		setc res[r11], 1
		nop
	}
.Ltmp530:
	#DEBUG_VALUE: t <- R7
	#DEBUG_VALUE: transfer32_sync_zero_clkblk:miso <- [SP+40]
	.loc	1 140 0                 # C:/Users/user/workspace/lib_spi/src/spi_sync.xc:140:0
.Lxta.endpoint_labels32:
	{
		in r7, res[r11]
		ldw r3, sp[13]
	}
.Ltmp531:
	.loc	1 141 0                 # C:/Users/user/workspace/lib_spi/src/spi_sync.xc:141:0
	{
		shl r11, r3, 1
		mov r3, r4
	}
	.loc	1 141 0                 # C:/Users/user/workspace/lib_spi/src/spi_sync.xc:141:0
	{
		zext r7, 1
		nop
	}
	.loc	1 141 0                 # C:/Users/user/workspace/lib_spi/src/spi_sync.xc:141:0
	{
		or r11, r7, r11
		nop
	}
	{
		mov r7, r2
		stw r11, sp[13]
	}
	{
		nop
		ldw r2, sp[12]
	}
.Ltmp532:
	.loc	1 143 0                 # C:/Users/user/workspace/lib_spi/src/spi_sync.xc:143:0
	{
		add r4, r2, r6
		add r9, r9, r8
	}
	.loc	1 128 0                 # C:/Users/user/workspace/lib_spi/src/spi_sync.xc:128:0
	{
		sub r10, r10, 1
		nop
	}
.xtaloop 16
	# LOOPMARKER 1
.Lxta.loop_labels4:
	# LOOPMARKER 0
	bt r10, .LBB42_4
	bu .LBB42_11
.Ltmp533:
.LBB42_10:                              # %ifdone38.us93
                                        #   Parent Loop BB42_1 Depth=1
                                        # =>  This Inner Loop Header: Depth=2
.Lxtalabel100:
	#DEBUG_VALUE: transfer32_sync_zero_clkblk:sclk <- R0
	#DEBUG_VALUE: transfer32_sync_zero_clkblk:mosi <- R2
	#DEBUG_VALUE: transfer32_sync_zero_clkblk:miso <- [SP+40]
	#DEBUG_VALUE: transfer32_sync_zero_clkblk:period <- [SP+92]
	#DEBUG_VALUE: transfer32_sync_zero_clkblk:cpol <- [SP+4]
	.loc	1 129 0                 # C:/Users/user/workspace/lib_spi/src/spi_sync.xc:129:0
	{
		setpt res[r0], r9
		nop
	}
	.loc	1 129 0                 # C:/Users/user/workspace/lib_spi/src/spi_sync.xc:129:0
.Lxta.endpoint_labels33:
	outpw res[r0], r5, 1
	.loc	1 131 0                 # C:/Users/user/workspace/lib_spi/src/spi_sync.xc:131:0
	{
		setpt res[r2], r9
		shr r8, r3, r7
	}
	.loc	1 131 0                 # C:/Users/user/workspace/lib_spi/src/spi_sync.xc:131:0
.Lxta.endpoint_labels34:
	outpw res[r2], r8, 1
.Ltmp534:
	#DEBUG_VALUE: c <- R10
	.loc	1 132 0                 # C:/Users/user/workspace/lib_spi/src/spi_sync.xc:132:0
	{
		shl r3, r3, 1
		shr r10, r5, 1
	}
.Ltmp535:
	#DEBUG_VALUE: time <- R8
	.loc	1 135 0                 # C:/Users/user/workspace/lib_spi/src/spi_sync.xc:135:0
	{
		add r8, r9, r1
		add r9, r1, r9
	}
.Ltmp536:
	.loc	1 136 0                 # C:/Users/user/workspace/lib_spi/src/spi_sync.xc:136:0
	{
		setpt res[r0], r9
		nop
	}
