	.text
	.file	"dsp_filters.c"
	.section	.cp.rodata.cst4,"aMc",@progbits,4
	.cc_top .LCPI0_0.data,.LCPI0_0
	.align	4
	.type	.LCPI0_0,@object
	.size	.LCPI0_0, 4
.LCPI0_0:
	.long	3435973837
	.cc_bottom .LCPI0_0.data
	.text
	.globl	dsp_filters_fir
	.align	4
	.type	dsp_filters_fir,@function
	.cc_top dsp_filters_fir.function,dsp_filters_fir
dsp_filters_fir:
.Lfunc_begin0:
	.file	1 "C:/Users/user/workspace/lib_dsp/src\\dsp_filters.c"
	.loc	1 19 0
	.cfi_startproc
	.issue_mode dual
	{
		nop
		dualentsp 12
	}
.Ltmp0:
	.cfi_def_cfa_offset 48
.Ltmp1:
	.cfi_offset 15, 0
	std r5, r4, sp[2]
.Ltmp2:
	.cfi_offset 4, -32
.Ltmp3:
	.cfi_offset 5, -28
	std r7, r6, sp[3]
.Ltmp4:
	.cfi_offset 6, -24
.Ltmp5:
	.cfi_offset 7, -20
	std r9, r8, sp[4]
.Ltmp6:
	.cfi_offset 8, -16
.Ltmp7:
	.cfi_offset 9, -12
	{
		nop
		stw r10, sp[10]
	}
.Ltmp8:
	.cfi_offset 10, -8
.Ltmp9:
	{
		nop
		ldw r7, sp[13]
	}
	.loc	1 21 5 prologue_end
.Ltmp10:
	{
		sub r11, r7, 1
		mkmsk r4, 1
	}
.Ltmp11:
	.loc	1 21 5
	{
		shl r4, r4, r11
		ldc r11, 20
	}
.Ltmp12:
	.loc	1 25 5
	{
		lss r5, r3, r11
		nop
	}
	bt r5, .LBB0_1
.Ltmp13:
	.loc	1 25 5
	ldaw r6, r3[-5]
	{
		ldc r5, 0
		nop
	}
	ldw r7, cp[.LCPI0_0]
	.loc	1 25 5
	lmul r7, r8, r6, r7, r5, r5
	{
		shr r7, r7, 4
		nop
	}
	mul r11, r7, r11
	{
		sub r6, r6, r11
		nop
	}
.Ltmp14:
	{
		nop
		stw r6, sp[2]
	}
	.loc	1 25 5
	ldaw r11, r11[5]
	{
		nop
		stw r11, sp[1]
	}
	ldaw r11, r1[r11]
.Ltmp15:
	{
		nop
		stw r11, sp[3]
	}
	ldc r9, 80
	{
		mov r10, r2
		nop
	}
.Ltmp16:
.LBB0_3:
	.loc	1 27 9
	#APP
	ldd r11,r6,r1[0]
	#NO_APP
	.loc	1 28 9
	#APP
	ldd r8,r7,r10[0]
	#NO_APP
	.loc	1 29 9
	#APP
	std r7,r0,r10[0]
	#NO_APP
	.loc	1 30 9
	#APP
	maccs r5,r4,r6,r0
	#NO_APP
	.loc	1 31 9
	#APP
	maccs r5,r4,r11,r7
	#NO_APP
	.loc	1 33 9
	#APP
	ldd r0,r11,r1[1]
	#NO_APP
	.loc	1 34 9
	#APP
	ldd r7,r6,r10[1]
	#NO_APP
	.loc	1 35 9
	#APP
	std r6,r8,r10[1]
	#NO_APP
	.loc	1 36 9
	#APP
	maccs r5,r4,r11,r8
	#NO_APP
	.loc	1 37 9
	#APP
	maccs r5,r4,r0,r6
	#NO_APP
	.loc	1 39 9
	#APP
	ldd r0,r11,r1[2]
	#NO_APP
	.loc	1 40 9
	#APP
	ldd r8,r6,r10[2]
	#NO_APP
	.loc	1 41 9
	#APP
	std r6,r7,r10[2]
	#NO_APP
	.loc	1 42 9
	#APP
	maccs r5,r4,r11,r7
	#NO_APP
	.loc	1 43 9
	#APP
	maccs r5,r4,r0,r6
	#NO_APP
	.loc	1 45 9
	#APP
	ldd r0,r11,r1[3]
	#NO_APP
	.loc	1 46 9
	#APP
	ldd r7,r6,r10[3]
	#NO_APP
	.loc	1 47 9
	#APP
	std r6,r8,r10[3]
	#NO_APP
	.loc	1 48 9
	#APP
	maccs r5,r4,r11,r8
	#NO_APP
	.loc	1 49 9
	#APP
	maccs r5,r4,r0,r6
	#NO_APP
	.loc	1 51 9
	#APP
	ldd r0,r11,r1[4]
	#NO_APP
	.loc	1 52 9
	#APP
	ldd r8,r6,r10[4]
	#NO_APP
	.loc	1 53 9
	#APP
	std r6,r7,r10[4]
	#NO_APP
	.loc	1 54 9
	#APP
	maccs r5,r4,r11,r7
	#NO_APP
	.loc	1 55 9
	#APP
	maccs r5,r4,r0,r6
	#NO_APP
	.loc	1 57 9
	#APP
	ldd r0,r11,r1[5]
	#NO_APP
	.loc	1 58 9
	#APP
	ldd r7,r6,r10[5]
	#NO_APP
	.loc	1 59 9
	#APP
	std r6,r8,r10[5]
	#NO_APP
	.loc	1 60 9
	#APP
	maccs r5,r4,r11,r8
	#NO_APP
	.loc	1 61 9
	#APP
	maccs r5,r4,r0,r6
	#NO_APP
	.loc	1 63 9
	#APP
	ldd r0,r11,r1[6]
	#NO_APP
	.loc	1 64 9
	#APP
	ldd r8,r6,r10[6]
	#NO_APP
	.loc	1 65 9
	#APP
	std r6,r7,r10[6]
	#NO_APP
	.loc	1 66 9
	#APP
	maccs r5,r4,r11,r7
	#NO_APP
	.loc	1 67 9
	#APP
	maccs r5,r4,r0,r6
	#NO_APP
	.loc	1 69 9
	#APP
	ldd r0,r11,r1[7]
	#NO_APP
	.loc	1 70 9
	#APP
	ldd r7,r6,r10[7]
	#NO_APP
	.loc	1 71 9
	#APP
	std r6,r8,r10[7]
	#NO_APP
	.loc	1 72 9
	#APP
	maccs r5,r4,r11,r8
	#NO_APP
	.loc	1 73 9
	#APP
	maccs r5,r4,r0,r6
	#NO_APP
	.loc	1 75 9
	#APP
	ldd r0,r11,r1[8]
	#NO_APP
	.loc	1 76 9
	#APP
	ldd r8,r6,r10[8]
	#NO_APP
	.loc	1 77 9
	#APP
	std r6,r7,r10[8]
	#NO_APP
	.loc	1 78 9
	#APP
	maccs r5,r4,r11,r7
	#NO_APP
	.loc	1 79 9
	#APP
	maccs r5,r4,r0,r6
	#NO_APP
	.loc	1 81 9
	#APP
	ldd r11,r6,r1[9]
	#NO_APP
	.loc	1 82 9
	#APP
	ldd r0,r7,r10[9]
	#NO_APP
	.loc	1 83 9
	#APP
	std r7,r8,r10[9]
	#NO_APP
	.loc	1 84 9
	#APP
	maccs r5,r4,r6,r8
	#NO_APP
	.loc	1 85 9
	#APP
	maccs r5,r4,r11,r7
	#NO_APP
	.loc	1 87 9
	ldaw r3, r3[-5]
	.loc	1 87 19
	{
		add r1, r1, r9
		add r10, r10, r9
	}
	{
		ldc r11, 19
		nop
	}
.Ltmp17:
	.loc	1 25 5
	{
		lss r11, r11, r3
		nop
	}
	.loc	1 25 5
	bt r11, .LBB0_3
.Ltmp18:
	{
		nop
		ldw r1, sp[1]
	}
	ldaw r2, r2[r1]
.Ltmp19:
	{
		nop
		ldw r3, sp[2]
	}
.Ltmp20:
	{
		nop
		ldw r1, sp[3]
	}
.Ltmp21:
	{
		nop
		ldw r7, sp[13]
	}
.Ltmp22:
	bu .LBB0_5
.Ltmp23:
.LBB0_1:
	{
		ldc r5, 0
		nop
	}
.Ltmp24:
.LBB0_5:
	.loc	1 89 5
	{
		sub r11, r3, 1
		ldc r3, 18
	}
	{
		lsu r3, r3, r11
		nop
	}
	bt r3, .LBB0_26
.Ltmp25:
	{
		mov r6, r2
		nop
	}

	.xtabranch .Ljumptable0+4,.Ljumptable0+8,.Ljumptable0+12,.Ljumptable0+16,.Ljumptable0+20,.Ljumptable0+24,.Ljumptable0+28,.Ljumptable0+32,.Ljumptable0+36,.Ljumptable0+40,.Ljumptable0+44,.Ljumptable0+48,.Ljumptable0+52,.Ljumptable0+56,.Ljumptable0+60,.Ljumptable0+64,.Ljumptable0+68,.Ljumptable0+72,.Ljumptable0+76
.Ljumptable0:
		
	{
		nop
		bru r11
	}
	.jmptable32 .LBB0_25,.LBB0_24,.LBB0_23,.LBB0_22,.LBB0_21,.LBB0_20,.LBB0_19,.LBB0_18,.LBB0_17,.LBB0_16,.LBB0_15,.LBB0_14,.LBB0_13,.LBB0_12,.LBB0_11,.LBB0_10,.LBB0_9,.LBB0_8,.LBB0_7
.Ltmp26:
.LBB0_25:
	{
		nop
		stw r0, r6[0]
	}
	{
		nop
		ldw r1, r1[0]
	}
	.loc	1 710 9
.Ltmp27:
	#APP
	maccs r5,r4,r1,r0
	#NO_APP
	bu .LBB0_26
.Ltmp28:
.LBB0_24:
	.loc	1 700 9
	#APP
	ldd r2,r1,r1[0]
	#NO_APP
	{
		nop
		ldw r3, r6[0]
	}
.Ltmp29:
	.loc	1 702 9
	#APP
	std r3,r0,r6[0]
	#NO_APP
	.loc	1 703 9
	#APP
	maccs r5,r4,r1,r0
	#NO_APP
	.loc	1 704 9
	#APP
	maccs r5,r4,r2,r3
	#NO_APP
	bu .LBB0_26
.Ltmp30:
.LBB0_23:
	.loc	1 689 9
	#APP
	ldd r11,r3,r1[0]
	#NO_APP
	{
		mov r8, r6
		nop
	}
	.loc	1 690 9
	#APP
	ldd r2,r6,r8[0]
	#NO_APP
	.loc	1 691 9
	#APP
	std r6,r0,r8[0]
	#NO_APP
	.loc	1 692 9
	#APP
	maccs r5,r4,r3,r0
	#NO_APP
	.loc	1 693 9
	#APP
	maccs r5,r4,r11,r6
	#NO_APP
	{
		nop
		stw r2, r8[2]
	}
	{
		nop
		ldw r0, r1[2]
	}
	.loc	1 695 9
	#APP
	maccs r5,r4,r0,r2
	#NO_APP
	bu .LBB0_26
.Ltmp31:
.LBB0_22:
	.loc	1 674 9
	#APP
	ldd r11,r3,r1[0]
	#NO_APP
	{
		mov r8, r6
		nop
	}
	.loc	1 675 9
	#APP
	ldd r2,r6,r8[0]
	#NO_APP
	.loc	1 676 9
	#APP
	std r6,r0,r8[0]
	#NO_APP
	.loc	1 677 9
	#APP
	maccs r5,r4,r3,r0
	#NO_APP
	.loc	1 678 9
	#APP
	maccs r5,r4,r11,r6
	#NO_APP
	.loc	1 680 9
	#APP
	ldd r1,r0,r1[1]
	#NO_APP
	.loc	1 681 9
	#APP
	ldd r3,r11,r8[1]
	#NO_APP
	.loc	1 682 9
	#APP
	std r11,r2,r8[1]
	#NO_APP
	.loc	1 683 9
	#APP
	maccs r5,r4,r0,r2
	#NO_APP
	.loc	1 684 9
	#APP
	maccs r5,r4,r1,r11
	#NO_APP
	bu .LBB0_26
.Ltmp32:
.LBB0_21:
	.loc	1 656 9
	#APP
	ldd r11,r3,r1[0]
	#NO_APP
	{
		mov r8, r6
		nop
	}
	.loc	1 657 9
	#APP
	ldd r2,r6,r8[0]
	#NO_APP
	.loc	1 658 9
	#APP
	std r6,r0,r8[0]
	#NO_APP
	.loc	1 659 9
	#APP
	maccs r5,r4,r3,r0
	#NO_APP
	.loc	1 660 9
	#APP
	maccs r5,r4,r11,r6
	#NO_APP
	.loc	1 662 9
	#APP
	ldd r11,r3,r1[1]
	#NO_APP
	.loc	1 663 9
	#APP
	ldd r0,r6,r8[1]
	#NO_APP
	.loc	1 664 9
	#APP
	std r6,r2,r8[1]
	#NO_APP
	.loc	1 665 9
	#APP
	maccs r5,r4,r3,r2
	#NO_APP
	.loc	1 666 9
	#APP
	maccs r5,r4,r11,r6
	#NO_APP
	{
		nop
		stw r0, r8[4]
	}
	{
		nop
		ldw r1, r1[4]
	}
	.loc	1 669 9
	#APP
	maccs r5,r4,r1,r0
	#NO_APP
	bu .LBB0_26
.Ltmp33:
.LBB0_20:
	.loc	1 635 9
	#APP
	ldd r11,r3,r1[0]
	#NO_APP
	{
		mov r8, r6
		nop
	}
	.loc	1 636 9
	#APP
	ldd r2,r6,r8[0]
	#NO_APP
	.loc	1 637 9
	#APP
	std r6,r0,r8[0]
	#NO_APP
	.loc	1 638 9
	#APP
	maccs r5,r4,r3,r0
	#NO_APP
	.loc	1 639 9
	#APP
	maccs r5,r4,r11,r6
	#NO_APP
	.loc	1 641 9
	#APP
	ldd r11,r3,r1[1]
	#NO_APP
	.loc	1 642 9
	#APP
	ldd r0,r6,r8[1]
	#NO_APP
	.loc	1 643 9
	#APP
	std r6,r2,r8[1]
	#NO_APP
	.loc	1 644 9
	#APP
	maccs r5,r4,r3,r2
	#NO_APP
	.loc	1 645 9
	#APP
	maccs r5,r4,r11,r6
	#NO_APP
	.loc	1 647 9
	#APP
	ldd r2,r1,r1[2]
	#NO_APP
	{
		nop
		ldw r3, r8[4]
	}
.Ltmp34:
	.loc	1 649 9
	#APP
	std r3,r0,r8[2]
	#NO_APP
	.loc	1 650 9
	#APP
	maccs r5,r4,r1,r0
	#NO_APP
	.loc	1 651 9
	#APP
	maccs r5,r4,r2,r3
	#NO_APP
	bu .LBB0_26
.Ltmp35:
.LBB0_19:
	.loc	1 612 9
	#APP
	ldd r11,r3,r1[0]
	#NO_APP
	{
		mov r8, r6
		nop
	}
	.loc	1 613 9
	#APP
	ldd r2,r6,r8[0]
	#NO_APP
	.loc	1 614 9
	#APP
	std r6,r0,r8[0]
	#NO_APP
	.loc	1 615 9
	#APP
	maccs r5,r4,r3,r0
	#NO_APP
	.loc	1 616 9
	#APP
	maccs r5,r4,r11,r6
	#NO_APP
	.loc	1 618 9
	#APP
	ldd r11,r3,r1[1]
	#NO_APP
	.loc	1 619 9
	#APP
	ldd r0,r6,r8[1]
	#NO_APP
	.loc	1 620 9
	#APP
	std r6,r2,r8[1]
	#NO_APP
	.loc	1 621 9
	#APP
	maccs r5,r4,r3,r2
	#NO_APP
	.loc	1 622 9
	#APP
	maccs r5,r4,r11,r6
	#NO_APP
	.loc	1 624 9
	#APP
	ldd r11,r3,r1[2]
	#NO_APP
	.loc	1 625 9
	#APP
	ldd r2,r6,r8[2]
	#NO_APP
	.loc	1 626 9
	#APP
	std r6,r0,r8[2]
	#NO_APP
	.loc	1 627 9
	#APP
	maccs r5,r4,r3,r0
	#NO_APP
	.loc	1 628 9
	#APP
	maccs r5,r4,r11,r6
	#NO_APP
	{
		nop
		stw r2, r8[6]
	}
	{
		nop
		ldw r0, r1[6]
	}
	.loc	1 630 9
	#APP
	maccs r5,r4,r0,r2
	#NO_APP
	bu .LBB0_26
.Ltmp36:
.LBB0_18:
	.loc	1 585 9
	#APP
	ldd r11,r3,r1[0]
	#NO_APP
	{
		mov r8, r6
		nop
	}
	.loc	1 586 9
	#APP
	ldd r2,r6,r8[0]
	#NO_APP
	.loc	1 587 9
	#APP
	std r6,r0,r8[0]
	#NO_APP
	.loc	1 588 9
	#APP
	maccs r5,r4,r3,r0
	#NO_APP
	.loc	1 589 9
	#APP
	maccs r5,r4,r11,r6
	#NO_APP
	.loc	1 591 9
	#APP
	ldd r11,r3,r1[1]
	#NO_APP
	.loc	1 592 9
	#APP
	ldd r0,r6,r8[1]
	#NO_APP
	.loc	1 593 9
	#APP
	std r6,r2,r8[1]
	#NO_APP
	.loc	1 594 9
	#APP
	maccs r5,r4,r3,r2
	#NO_APP
	.loc	1 595 9
	#APP
	maccs r5,r4,r11,r6
	#NO_APP
	.loc	1 597 9
	#APP
	ldd r11,r3,r1[2]
	#NO_APP
	.loc	1 598 9
	#APP
	ldd r2,r6,r8[2]
	#NO_APP
	.loc	1 599 9
	#APP
	std r6,r0,r8[2]
	#NO_APP
	.loc	1 600 9
	#APP
	maccs r5,r4,r3,r0
	#NO_APP
	.loc	1 601 9
	#APP
	maccs r5,r4,r11,r6
	#NO_APP
	.loc	1 603 9
	#APP
	ldd r1,r0,r1[3]
	#NO_APP
	.loc	1 604 9
	#APP
	ldd r3,r11,r8[3]
	#NO_APP
	.loc	1 605 9
	#APP
	std r11,r2,r8[3]
	#NO_APP
	.loc	1 606 9
	#APP
	maccs r5,r4,r0,r2
	#NO_APP
	.loc	1 607 9
	#APP
	maccs r5,r4,r1,r11
	#NO_APP
	bu .LBB0_26
.Ltmp37:
.LBB0_17:
	.loc	1 555 9
	#APP
	ldd r11,r3,r1[0]
	#NO_APP
	{
		mov r8, r6
		nop
	}
	.loc	1 556 9
	#APP
	ldd r2,r6,r8[0]
	#NO_APP
	.loc	1 557 9
	#APP
	std r6,r0,r8[0]
	#NO_APP
	.loc	1 558 9
	#APP
	maccs r5,r4,r3,r0
	#NO_APP
	.loc	1 559 9
	#APP
	maccs r5,r4,r11,r6
	#NO_APP
	.loc	1 561 9
	#APP
	ldd r11,r3,r1[1]
	#NO_APP
	.loc	1 562 9
	#APP
	ldd r0,r6,r8[1]
	#NO_APP
	.loc	1 563 9
	#APP
	std r6,r2,r8[1]
	#NO_APP
	.loc	1 564 9
	#APP
	maccs r5,r4,r3,r2
	#NO_APP
	.loc	1 565 9
	#APP
	maccs r5,r4,r11,r6
	#NO_APP
	.loc	1 567 9
	#APP
	ldd r11,r3,r1[2]
	#NO_APP
	.loc	1 568 9
	#APP
	ldd r2,r6,r8[2]
	#NO_APP
	.loc	1 569 9
	#APP
	std r6,r0,r8[2]
	#NO_APP
	.loc	1 570 9
	#APP
	maccs r5,r4,r3,r0
	#NO_APP
	.loc	1 571 9
	#APP
	maccs r5,r4,r11,r6
	#NO_APP
	.loc	1 573 9
	#APP
	ldd r11,r3,r1[3]
	#NO_APP
	.loc	1 574 9
	#APP
	ldd r0,r6,r8[3]
	#NO_APP
	.loc	1 575 9
	#APP
	std r6,r2,r8[3]
	#NO_APP
	.loc	1 576 9
	#APP
	maccs r5,r4,r3,r2
	#NO_APP
	.loc	1 577 9
	#APP
	maccs r5,r4,r11,r6
	#NO_APP
	{
		nop
		stw r0, r8[8]
	}
	{
		nop
		ldw r1, r1[8]
	}
	.loc	1 580 9
	#APP
	maccs r5,r4,r1,r0
	#NO_APP
	bu .LBB0_26
.Ltmp38:
.LBB0_16:
	.loc	1 522 9
	#APP
	ldd r11,r3,r1[0]
	#NO_APP
	{
		mov r8, r6
		nop
	}
	.loc	1 523 9
	#APP
	ldd r2,r6,r8[0]
	#NO_APP
	.loc	1 524 9
	#APP
	std r6,r0,r8[0]
	#NO_APP
	.loc	1 525 9
	#APP
	maccs r5,r4,r3,r0
	#NO_APP
	.loc	1 526 9
	#APP
	maccs r5,r4,r11,r6
	#NO_APP
	.loc	1 528 9
	#APP
	ldd r11,r3,r1[1]
	#NO_APP
	.loc	1 529 9
	#APP
	ldd r0,r6,r8[1]
	#NO_APP
	.loc	1 530 9
	#APP
	std r6,r2,r8[1]
	#NO_APP
	.loc	1 531 9
	#APP
	maccs r5,r4,r3,r2
	#NO_APP
	.loc	1 532 9
	#APP
	maccs r5,r4,r11,r6
	#NO_APP
	.loc	1 534 9
	#APP
	ldd r11,r3,r1[2]
	#NO_APP
	.loc	1 535 9
	#APP
	ldd r2,r6,r8[2]
	#NO_APP
	.loc	1 536 9
	#APP
	std r6,r0,r8[2]
	#NO_APP
	.loc	1 537 9
	#APP
	maccs r5,r4,r3,r0
	#NO_APP
	.loc	1 538 9
	#APP
	maccs r5,r4,r11,r6
	#NO_APP
	.loc	1 540 9
	#APP
	ldd r11,r3,r1[3]
	#NO_APP
	.loc	1 541 9
	#APP
	ldd r0,r6,r8[3]
	#NO_APP
	.loc	1 542 9
	#APP
	std r6,r2,r8[3]
	#NO_APP
	.loc	1 543 9
	#APP
	maccs r5,r4,r3,r2
	#NO_APP
	.loc	1 544 9
	#APP
	maccs r5,r4,r11,r6
	#NO_APP
	.loc	1 546 9
	#APP
	ldd r2,r1,r1[4]
	#NO_APP
	{
		nop
		ldw r3, r8[8]
	}
.Ltmp39:
	.loc	1 548 9
	#APP
	std r3,r0,r8[4]
	#NO_APP
	.loc	1 549 9
	#APP
	maccs r5,r4,r1,r0
	#NO_APP
	.loc	1 550 9
	#APP
	maccs r5,r4,r2,r3
	#NO_APP
	bu .LBB0_26
.Ltmp40:
.LBB0_15:
	.loc	1 487 9
	#APP
	ldd r11,r3,r1[0]
	#NO_APP
	{
		mov r8, r6
		nop
	}
	.loc	1 488 9
	#APP
	ldd r2,r6,r8[0]
	#NO_APP
	.loc	1 489 9
	#APP
	std r6,r0,r8[0]
	#NO_APP
	.loc	1 490 9
	#APP
	maccs r5,r4,r3,r0
	#NO_APP
	.loc	1 491 9
	#APP
	maccs r5,r4,r11,r6
	#NO_APP
	.loc	1 493 9
	#APP
	ldd r11,r3,r1[1]
	#NO_APP
	.loc	1 494 9
	#APP
	ldd r0,r6,r8[1]
	#NO_APP
	.loc	1 495 9
	#APP
	std r6,r2,r8[1]
	#NO_APP
	.loc	1 496 9
	#APP
	maccs r5,r4,r3,r2
	#NO_APP
	.loc	1 497 9
	#APP
	maccs r5,r4,r11,r6
	#NO_APP
	.loc	1 499 9
	#APP
	ldd r11,r3,r1[2]
	#NO_APP
	.loc	1 500 9
	#APP
	ldd r2,r6,r8[2]
	#NO_APP
	.loc	1 501 9
	#APP
	std r6,r0,r8[2]
	#NO_APP
	.loc	1 502 9
	#APP
	maccs r5,r4,r3,r0
	#NO_APP
	.loc	1 503 9
	#APP
	maccs r5,r4,r11,r6
	#NO_APP
	.loc	1 505 9
	#APP
	ldd r11,r3,r1[3]
	#NO_APP
	.loc	1 506 9
	#APP
	ldd r0,r6,r8[3]
	#NO_APP
	.loc	1 507 9
	#APP
	std r6,r2,r8[3]
	#NO_APP
	.loc	1 508 9
	#APP
	maccs r5,r4,r3,r2
	#NO_APP
	.loc	1 509 9
	#APP
	maccs r5,r4,r11,r6
	#NO_APP
	.loc	1 511 9
	#APP
	ldd r11,r3,r1[4]
	#NO_APP
	.loc	1 512 9
	#APP
	ldd r2,r6,r8[4]
	#NO_APP
	.loc	1 513 9
	#APP
	std r6,r0,r8[4]
	#NO_APP
	.loc	1 514 9
	#APP
	maccs r5,r4,r3,r0
	#NO_APP
	.loc	1 515 9
	#APP
	maccs r5,r4,r11,r6
	#NO_APP
	{
		nop
		stw r2, r8[10]
	}
	{
		nop
		ldw r0, r1[10]
	}
	.loc	1 517 9
	#APP
	maccs r5,r4,r0,r2
	#NO_APP
	bu .LBB0_26
.Ltmp41:
.LBB0_14:
	.loc	1 448 9
	#APP
	ldd r11,r3,r1[0]
	#NO_APP
	{
		mov r8, r6
		nop
	}
	.loc	1 449 9
	#APP
	ldd r2,r6,r8[0]
	#NO_APP
	.loc	1 450 9
	#APP
	std r6,r0,r8[0]
	#NO_APP
	.loc	1 451 9
	#APP
	maccs r5,r4,r3,r0
	#NO_APP
	.loc	1 452 9
	#APP
	maccs r5,r4,r11,r6
	#NO_APP
	.loc	1 454 9
	#APP
	ldd r11,r3,r1[1]
	#NO_APP
	.loc	1 455 9
	#APP
	ldd r0,r6,r8[1]
	#NO_APP
	.loc	1 456 9
	#APP
	std r6,r2,r8[1]
	#NO_APP
	.loc	1 457 9
	#APP
	maccs r5,r4,r3,r2
	#NO_APP
	.loc	1 458 9
	#APP
	maccs r5,r4,r11,r6
	#NO_APP
	.loc	1 460 9
	#APP
	ldd r11,r3,r1[2]
	#NO_APP
	.loc	1 461 9
	#APP
	ldd r2,r6,r8[2]
	#NO_APP
	.loc	1 462 9
	#APP
	std r6,r0,r8[2]
	#NO_APP
	.loc	1 463 9
	#APP
	maccs r5,r4,r3,r0
	#NO_APP
	.loc	1 464 9
	#APP
	maccs r5,r4,r11,r6
	#NO_APP
	.loc	1 466 9
	#APP
	ldd r11,r3,r1[3]
	#NO_APP
	.loc	1 467 9
	#APP
	ldd r0,r6,r8[3]
	#NO_APP
	.loc	1 468 9
	#APP
	std r6,r2,r8[3]
	#NO_APP
	.loc	1 469 9
	#APP
	maccs r5,r4,r3,r2
	#NO_APP
	.loc	1 470 9
	#APP
	maccs r5,r4,r11,r6
	#NO_APP
	.loc	1 472 9
	#APP
	ldd r11,r3,r1[4]
	#NO_APP
	.loc	1 473 9
	#APP
	ldd r2,r6,r8[4]
	#NO_APP
	.loc	1 474 9
	#APP
	std r6,r0,r8[4]
	#NO_APP
	.loc	1 475 9
	#APP
	maccs r5,r4,r3,r0
	#NO_APP
	.loc	1 476 9
	#APP
	maccs r5,r4,r11,r6
	#NO_APP
	.loc	1 478 9
	#APP
	ldd r1,r0,r1[5]
	#NO_APP
	.loc	1 479 9
	#APP
	ldd r3,r11,r8[5]
	#NO_APP
	.loc	1 480 9
	#APP
	std r11,r2,r8[5]
	#NO_APP
	.loc	1 481 9
	#APP
	maccs r5,r4,r0,r2
	#NO_APP
	.loc	1 482 9
	#APP
	maccs r5,r4,r1,r11
	#NO_APP
	bu .LBB0_26
.Ltmp42:
.LBB0_13:
	.loc	1 406 9
	#APP
	ldd r11,r3,r1[0]
	#NO_APP
	{
		mov r8, r6
		nop
	}
	.loc	1 407 9
	#APP
	ldd r2,r6,r8[0]
	#NO_APP
	.loc	1 408 9
	#APP
	std r6,r0,r8[0]
	#NO_APP
	.loc	1 409 9
	#APP
	maccs r5,r4,r3,r0
	#NO_APP
	.loc	1 410 9
	#APP
	maccs r5,r4,r11,r6
	#NO_APP
	.loc	1 412 9
	#APP
	ldd r11,r3,r1[1]
	#NO_APP
	.loc	1 413 9
	#APP
	ldd r0,r6,r8[1]
	#NO_APP
	.loc	1 414 9
	#APP
	std r6,r2,r8[1]
	#NO_APP
	.loc	1 415 9
	#APP
	maccs r5,r4,r3,r2
	#NO_APP
	.loc	1 416 9
	#APP
	maccs r5,r4,r11,r6
	#NO_APP
	.loc	1 418 9
	#APP
	ldd r11,r3,r1[2]
	#NO_APP
	.loc	1 419 9
	#APP
	ldd r2,r6,r8[2]
	#NO_APP
	.loc	1 420 9
	#APP
	std r6,r0,r8[2]
	#NO_APP
	.loc	1 421 9
	#APP
	maccs r5,r4,r3,r0
	#NO_APP
	.loc	1 422 9
	#APP
	maccs r5,r4,r11,r6
	#NO_APP
	.loc	1 424 9
	#APP
	ldd r11,r3,r1[3]
	#NO_APP
	.loc	1 425 9
	#APP
	ldd r0,r6,r8[3]
	#NO_APP
	.loc	1 426 9
	#APP
	std r6,r2,r8[3]
	#NO_APP
	.loc	1 427 9
	#APP
	maccs r5,r4,r3,r2
	#NO_APP
	.loc	1 428 9
	#APP
	maccs r5,r4,r11,r6
	#NO_APP
	.loc	1 430 9
	#APP
	ldd r11,r3,r1[4]
	#NO_APP
	.loc	1 431 9
	#APP
	ldd r2,r6,r8[4]
	#NO_APP
	.loc	1 432 9
	#APP
	std r6,r0,r8[4]
	#NO_APP
	.loc	1 433 9
	#APP
	maccs r5,r4,r3,r0
	#NO_APP
	.loc	1 434 9
	#APP
	maccs r5,r4,r11,r6
	#NO_APP
	.loc	1 436 9
	#APP
	ldd r11,r3,r1[5]
	#NO_APP
	.loc	1 437 9
	#APP
	ldd r0,r6,r8[5]
	#NO_APP
	.loc	1 438 9
	#APP
	std r6,r2,r8[5]
	#NO_APP
	.loc	1 439 9
	#APP
	maccs r5,r4,r3,r2
	#NO_APP
	.loc	1 440 9
	#APP
	maccs r5,r4,r11,r6
	#NO_APP
	{
		ldc r2, 48
		nop
	}
	.loc	1 442 9
	{
		add r3, r8, r2
		nop
	}
	.loc	1 442 9
	{
		add r1, r1, r2
		stw r0, r3[0]
	}
	{
		nop
		ldw r1, r1[0]
	}
	.loc	1 443 9
	#APP
	maccs r5,r4,r1,r0
	#NO_APP
	bu .LBB0_26
.Ltmp43:
.LBB0_12:
	.loc	1 361 9
	#APP
	ldd r11,r3,r1[0]
	#NO_APP
	{
		mov r8, r6
		nop
	}
	.loc	1 362 9
	#APP
	ldd r2,r6,r8[0]
	#NO_APP
	.loc	1 363 9
	#APP
	std r6,r0,r8[0]
	#NO_APP
	.loc	1 364 9
	#APP
	maccs r5,r4,r3,r0
	#NO_APP
	.loc	1 365 9
	#APP
	maccs r5,r4,r11,r6
	#NO_APP
	.loc	1 367 9
	#APP
	ldd r11,r3,r1[1]
	#NO_APP
	.loc	1 368 9
	#APP
	ldd r0,r6,r8[1]
	#NO_APP
	.loc	1 369 9
	#APP
	std r6,r2,r8[1]
	#NO_APP
	.loc	1 370 9
	#APP
	maccs r5,r4,r3,r2
	#NO_APP
	.loc	1 371 9
	#APP
	maccs r5,r4,r11,r6
	#NO_APP
	.loc	1 373 9
	#APP
	ldd r11,r3,r1[2]
	#NO_APP
	.loc	1 374 9
	#APP
	ldd r2,r6,r8[2]
	#NO_APP
	.loc	1 375 9
	#APP
	std r6,r0,r8[2]
	#NO_APP
	.loc	1 376 9
	#APP
	maccs r5,r4,r3,r0
	#NO_APP
	.loc	1 377 9
	#APP
	maccs r5,r4,r11,r6
	#NO_APP
	.loc	1 379 9
	#APP
	ldd r11,r3,r1[3]
	#NO_APP
	.loc	1 380 9
	#APP
	ldd r0,r6,r8[3]
	#NO_APP
	.loc	1 381 9
	#APP
	std r6,r2,r8[3]
	#NO_APP
	.loc	1 382 9
	#APP
	maccs r5,r4,r3,r2
	#NO_APP
	.loc	1 383 9
	#APP
	maccs r5,r4,r11,r6
	#NO_APP
	.loc	1 385 9
	#APP
	ldd r11,r3,r1[4]
	#NO_APP
	.loc	1 386 9
	#APP
	ldd r2,r6,r8[4]
	#NO_APP
	.loc	1 387 9
	#APP
	std r6,r0,r8[4]
	#NO_APP
	.loc	1 388 9
	#APP
	maccs r5,r4,r3,r0
	#NO_APP
	.loc	1 389 9
	#APP
	maccs r5,r4,r11,r6
	#NO_APP
	.loc	1 391 9
	#APP
	ldd r11,r3,r1[5]
	#NO_APP
	.loc	1 392 9
	#APP
	ldd r0,r6,r8[5]
	#NO_APP
	.loc	1 393 9
	#APP
	std r6,r2,r8[5]
	#NO_APP
	.loc	1 394 9
	#APP
	maccs r5,r4,r3,r2
	#NO_APP
	.loc	1 395 9
	#APP
	maccs r5,r4,r11,r6
	#NO_APP
	.loc	1 397 9
	#APP
	ldd r2,r1,r1[6]
	#NO_APP
	{
		ldc r3, 48
		nop
	}
	.loc	1 398 9
	{
		add r3, r8, r3
		nop
	}
	{
		nop
		ldw r3, r3[0]
	}
.Ltmp44:
	.loc	1 399 9
	#APP
	std r3,r0,r8[6]
	#NO_APP
	.loc	1 400 9
	#APP
	maccs r5,r4,r1,r0
	#NO_APP
	.loc	1 401 9
	#APP
	maccs r5,r4,r2,r3
	#NO_APP
	bu .LBB0_26
.Ltmp45:
.LBB0_11:
	.loc	1 314 9
	#APP
	ldd r11,r3,r1[0]
	#NO_APP
	{
		mov r8, r6
		nop
	}
	.loc	1 315 9
	#APP
	ldd r2,r6,r8[0]
	#NO_APP
	.loc	1 316 9
	#APP
	std r6,r0,r8[0]
	#NO_APP
	.loc	1 317 9
	#APP
	maccs r5,r4,r3,r0
	#NO_APP
	.loc	1 318 9
	#APP
	maccs r5,r4,r11,r6
	#NO_APP
	.loc	1 320 9
	#APP
	ldd r11,r3,r1[1]
	#NO_APP
	.loc	1 321 9
	#APP
	ldd r0,r6,r8[1]
	#NO_APP
	.loc	1 322 9
	#APP
	std r6,r2,r8[1]
	#NO_APP
	.loc	1 323 9
	#APP
	maccs r5,r4,r3,r2
	#NO_APP
	.loc	1 324 9
	#APP
	maccs r5,r4,r11,r6
	#NO_APP
	.loc	1 326 9
	#APP
	ldd r11,r3,r1[2]
	#NO_APP
	.loc	1 327 9
	#APP
	ldd r2,r6,r8[2]
	#NO_APP
	.loc	1 328 9
	#APP
	std r6,r0,r8[2]
	#NO_APP
	.loc	1 329 9
	#APP
	maccs r5,r4,r3,r0
	#NO_APP
	.loc	1 330 9
	#APP
	maccs r5,r4,r11,r6
	#NO_APP
	.loc	1 332 9
	#APP
	ldd r11,r3,r1[3]
	#NO_APP
	.loc	1 333 9
	#APP
	ldd r0,r6,r8[3]
	#NO_APP
	.loc	1 334 9
	#APP
	std r6,r2,r8[3]
	#NO_APP
	.loc	1 335 9
	#APP
	maccs r5,r4,r3,r2
	#NO_APP
	.loc	1 336 9
	#APP
	maccs r5,r4,r11,r6
	#NO_APP
	.loc	1 338 9
	#APP
	ldd r11,r3,r1[4]
	#NO_APP
	.loc	1 339 9
	#APP
	ldd r2,r6,r8[4]
	#NO_APP
	.loc	1 340 9
	#APP
	std r6,r0,r8[4]
	#NO_APP
	.loc	1 341 9
	#APP
	maccs r5,r4,r3,r0
	#NO_APP
	.loc	1 342 9
	#APP
	maccs r5,r4,r11,r6
	#NO_APP
	.loc	1 344 9
	#APP
	ldd r11,r3,r1[5]
	#NO_APP
	.loc	1 345 9
	#APP
	ldd r0,r6,r8[5]
	#NO_APP
	.loc	1 346 9
	#APP
	std r6,r2,r8[5]
	#NO_APP
	.loc	1 347 9
	#APP
	maccs r5,r4,r3,r2
	#NO_APP
	.loc	1 348 9
	#APP
	maccs r5,r4,r11,r6
	#NO_APP
	.loc	1 350 9
	#APP
	ldd r11,r3,r1[6]
	#NO_APP
	.loc	1 351 9
	#APP
	ldd r2,r6,r8[6]
	#NO_APP
	.loc	1 352 9
	#APP
	std r6,r0,r8[6]
	#NO_APP
	.loc	1 353 9
	#APP
	maccs r5,r4,r3,r0
	#NO_APP
	.loc	1 354 9
	#APP
	maccs r5,r4,r11,r6
	#NO_APP
	{
		ldc r0, 56
		nop
	}
	.loc	1 355 9
	{
		add r3, r8, r0
		nop
	}
	.loc	1 355 9
	{
		add r0, r1, r0
		stw r2, r3[0]
	}
	{
		nop
		ldw r0, r0[0]
	}
	.loc	1 356 9
	#APP
	maccs r5,r4,r0,r2
	#NO_APP
	bu .LBB0_26
.Ltmp46:
.LBB0_10:
	.loc	1 263 9
	#APP
	ldd r11,r3,r1[0]
	#NO_APP
	{
		mov r8, r6
		nop
	}
	.loc	1 264 9
	#APP
	ldd r2,r6,r8[0]
	#NO_APP
	.loc	1 265 9
	#APP
	std r6,r0,r8[0]
	#NO_APP
	.loc	1 266 9
	#APP
	maccs r5,r4,r3,r0
	#NO_APP
	.loc	1 267 9
	#APP
	maccs r5,r4,r11,r6
	#NO_APP
	.loc	1 269 9
	#APP
	ldd r11,r3,r1[1]
	#NO_APP
	.loc	1 270 9
	#APP
	ldd r0,r6,r8[1]
	#NO_APP
	.loc	1 271 9
	#APP
	std r6,r2,r8[1]
	#NO_APP
	.loc	1 272 9
	#APP
	maccs r5,r4,r3,r2
	#NO_APP
	.loc	1 273 9
	#APP
	maccs r5,r4,r11,r6
	#NO_APP
	.loc	1 275 9
	#APP
	ldd r11,r3,r1[2]
	#NO_APP
	.loc	1 276 9
	#APP
	ldd r2,r6,r8[2]
	#NO_APP
	.loc	1 277 9
	#APP
	std r6,r0,r8[2]
	#NO_APP
	.loc	1 278 9
	#APP
	maccs r5,r4,r3,r0
	#NO_APP
	.loc	1 279 9
	#APP
	maccs r5,r4,r11,r6
	#NO_APP
	.loc	1 281 9
	#APP
	ldd r11,r3,r1[3]
	#NO_APP
	.loc	1 282 9
	#APP
	ldd r0,r6,r8[3]
	#NO_APP
	.loc	1 283 9
	#APP
	std r6,r2,r8[3]
	#NO_APP
	.loc	1 284 9
	#APP
	maccs r5,r4,r3,r2
	#NO_APP
	.loc	1 285 9
	#APP
	maccs r5,r4,r11,r6
	#NO_APP
	.loc	1 287 9
	#APP
	ldd r11,r3,r1[4]
	#NO_APP
	.loc	1 288 9
	#APP
	ldd r2,r6,r8[4]
	#NO_APP
	.loc	1 289 9
	#APP
	std r6,r0,r8[4]
	#NO_APP
	.loc	1 290 9
	#APP
	maccs r5,r4,r3,r0
	#NO_APP
	.loc	1 291 9
	#APP
	maccs r5,r4,r11,r6
	#NO_APP
	.loc	1 293 9
	#APP
	ldd r11,r3,r1[5]
	#NO_APP
	.loc	1 294 9
	#APP
	ldd r0,r6,r8[5]
	#NO_APP
	.loc	1 295 9
	#APP
	std r6,r2,r8[5]
	#NO_APP
	.loc	1 296 9
	#APP
	maccs r5,r4,r3,r2
	#NO_APP
	.loc	1 297 9
	#APP
	maccs r5,r4,r11,r6
	#NO_APP
	.loc	1 299 9
	#APP
	ldd r11,r3,r1[6]
	#NO_APP
	.loc	1 300 9
	#APP
	ldd r2,r6,r8[6]
	#NO_APP
	.loc	1 301 9
	#APP
	std r6,r0,r8[6]
	#NO_APP
	.loc	1 302 9
	#APP
	maccs r5,r4,r3,r0
	#NO_APP
	.loc	1 303 9
	#APP
	maccs r5,r4,r11,r6
	#NO_APP
	.loc	1 305 9
	#APP
	ldd r1,r0,r1[7]
	#NO_APP
	.loc	1 306 9
	#APP
	ldd r3,r11,r8[7]
	#NO_APP
	.loc	1 307 9
	#APP
	std r11,r2,r8[7]
	#NO_APP
	.loc	1 308 9
	#APP
	maccs r5,r4,r0,r2
	#NO_APP
	.loc	1 309 9
	#APP
	maccs r5,r4,r1,r11
	#NO_APP
	bu .LBB0_26
.Ltmp47:
.LBB0_9:
	.loc	1 209 9
	#APP
	ldd r11,r3,r1[0]
	#NO_APP
	{
		mov r8, r6
		nop
	}
	.loc	1 210 9
	#APP
	ldd r2,r6,r8[0]
	#NO_APP
	.loc	1 211 9
	#APP
	std r6,r0,r8[0]
	#NO_APP
	.loc	1 212 9
	#APP
	maccs r5,r4,r3,r0
	#NO_APP
	.loc	1 213 9
	#APP
	maccs r5,r4,r11,r6
	#NO_APP
	.loc	1 215 9
	#APP
	ldd r11,r3,r1[1]
	#NO_APP
	.loc	1 216 9
	#APP
	ldd r0,r6,r8[1]
	#NO_APP
	.loc	1 217 9
	#APP
	std r6,r2,r8[1]
	#NO_APP
	.loc	1 218 9
	#APP
	maccs r5,r4,r3,r2
	#NO_APP
	.loc	1 219 9
	#APP
	maccs r5,r4,r11,r6
	#NO_APP
	.loc	1 221 9
	#APP
	ldd r11,r3,r1[2]
	#NO_APP
	.loc	1 222 9
	#APP
	ldd r2,r6,r8[2]
	#NO_APP
	.loc	1 223 9
	#APP
	std r6,r0,r8[2]
	#NO_APP
	.loc	1 224 9
	#APP
	maccs r5,r4,r3,r0
	#NO_APP
	.loc	1 225 9
	#APP
	maccs r5,r4,r11,r6
	#NO_APP
	.loc	1 227 9
	#APP
	ldd r11,r3,r1[3]
	#NO_APP
	.loc	1 228 9
	#APP
	ldd r0,r6,r8[3]
	#NO_APP
	.loc	1 229 9
	#APP
	std r6,r2,r8[3]
	#NO_APP
	.loc	1 230 9
	#APP
	maccs r5,r4,r3,r2
	#NO_APP
	.loc	1 231 9
	#APP
	maccs r5,r4,r11,r6
	#NO_APP
	.loc	1 233 9
	#APP
	ldd r11,r3,r1[4]
	#NO_APP
	.loc	1 234 9
	#APP
	ldd r2,r6,r8[4]
	#NO_APP
	.loc	1 235 9
	#APP
	std r6,r0,r8[4]
	#NO_APP
	.loc	1 236 9
	#APP
	maccs r5,r4,r3,r0
	#NO_APP
	.loc	1 237 9
	#APP
	maccs r5,r4,r11,r6
	#NO_APP
	.loc	1 239 9
	#APP
	ldd r11,r3,r1[5]
	#NO_APP
	.loc	1 240 9
	#APP
	ldd r0,r6,r8[5]
	#NO_APP
	.loc	1 241 9
	#APP
	std r6,r2,r8[5]
	#NO_APP
	.loc	1 242 9
	#APP
	maccs r5,r4,r3,r2
	#NO_APP
	.loc	1 243 9
	#APP
	maccs r5,r4,r11,r6
	#NO_APP
	.loc	1 245 9
	#APP
	ldd r11,r3,r1[6]
	#NO_APP
	.loc	1 246 9
	#APP
	ldd r2,r6,r8[6]
	#NO_APP
	.loc	1 247 9
	#APP
	std r6,r0,r8[6]
	#NO_APP
	.loc	1 248 9
	#APP
	maccs r5,r4,r3,r0
	#NO_APP
	.loc	1 249 9
	#APP
	maccs r5,r4,r11,r6
	#NO_APP
	.loc	1 251 9
	#APP
	ldd r11,r3,r1[7]
	#NO_APP
	.loc	1 252 9
	#APP
	ldd r0,r6,r8[7]
	#NO_APP
	.loc	1 253 9
	#APP
	std r6,r2,r8[7]
	#NO_APP
	.loc	1 254 9
	#APP
	maccs r5,r4,r3,r2
	#NO_APP
	.loc	1 255 9
	#APP
	maccs r5,r4,r11,r6
	#NO_APP
	ldc r2, 64
	.loc	1 257 9
	{
		add r3, r8, r2
		nop
	}
	.loc	1 257 9
	{
		add r1, r1, r2
		stw r0, r3[0]
	}
	{
		nop
		ldw r1, r1[0]
	}
	.loc	1 258 9
	#APP
	maccs r5,r4,r1,r0
	#NO_APP
	bu .LBB0_26
.Ltmp48:
.LBB0_8:
	.loc	1 152 9
	#APP
	ldd r11,r3,r1[0]
	#NO_APP
	{
		mov r8, r6
		nop
	}
	.loc	1 153 9
	#APP
	ldd r2,r6,r8[0]
	#NO_APP
	.loc	1 154 9
	#APP
	std r6,r0,r8[0]
	#NO_APP
	.loc	1 155 9
	#APP
	maccs r5,r4,r3,r0
	#NO_APP
	.loc	1 156 9
	#APP
	maccs r5,r4,r11,r6
	#NO_APP
	.loc	1 158 9
	#APP
	ldd r11,r3,r1[1]
	#NO_APP
	.loc	1 159 9
	#APP
	ldd r0,r6,r8[1]
	#NO_APP
	.loc	1 160 9
	#APP
	std r6,r2,r8[1]
	#NO_APP
	.loc	1 161 9
	#APP
	maccs r5,r4,r3,r2
	#NO_APP
	.loc	1 162 9
	#APP
	maccs r5,r4,r11,r6
	#NO_APP
	.loc	1 164 9
	#APP
	ldd r11,r3,r1[2]
	#NO_APP
	.loc	1 165 9
	#APP
	ldd r2,r6,r8[2]
	#NO_APP
	.loc	1 166 9
	#APP
	std r6,r0,r8[2]
	#NO_APP
	.loc	1 167 9
	#APP
	maccs r5,r4,r3,r0
	#NO_APP
	.loc	1 168 9
	#APP
	maccs r5,r4,r11,r6
	#NO_APP
	.loc	1 170 9
	#APP
	ldd r11,r3,r1[3]
	#NO_APP
	.loc	1 171 9
	#APP
	ldd r0,r6,r8[3]
	#NO_APP
	.loc	1 172 9
	#APP
	std r6,r2,r8[3]
	#NO_APP
	.loc	1 173 9
	#APP
	maccs r5,r4,r3,r2
	#NO_APP
	.loc	1 174 9
	#APP
	maccs r5,r4,r11,r6
	#NO_APP
	.loc	1 176 9
	#APP
	ldd r11,r3,r1[4]
	#NO_APP
	.loc	1 177 9
	#APP
	ldd r2,r6,r8[4]
	#NO_APP
	.loc	1 178 9
	#APP
	std r6,r0,r8[4]
	#NO_APP
	.loc	1 179 9
	#APP
	maccs r5,r4,r3,r0
	#NO_APP
	.loc	1 180 9
	#APP
	maccs r5,r4,r11,r6
	#NO_APP
	.loc	1 182 9
	#APP
	ldd r11,r3,r1[5]
	#NO_APP
	.loc	1 183 9
	#APP
	ldd r0,r6,r8[5]
	#NO_APP
	.loc	1 184 9
	#APP
	std r6,r2,r8[5]
	#NO_APP
	.loc	1 185 9
	#APP
	maccs r5,r4,r3,r2
	#NO_APP
	.loc	1 186 9
	#APP
	maccs r5,r4,r11,r6
	#NO_APP
	.loc	1 188 9
	#APP
	ldd r11,r3,r1[6]
	#NO_APP
	.loc	1 189 9
	#APP
	ldd r2,r6,r8[6]
	#NO_APP
	.loc	1 190 9
	#APP
	std r6,r0,r8[6]
	#NO_APP
	.loc	1 191 9
	#APP
	maccs r5,r4,r3,r0
	#NO_APP
	.loc	1 192 9
	#APP
	maccs r5,r4,r11,r6
	#NO_APP
	.loc	1 194 9
	#APP
	ldd r11,r3,r1[7]
	#NO_APP
	.loc	1 195 9
	#APP
	ldd r0,r6,r8[7]
	#NO_APP
	.loc	1 196 9
	#APP
	std r6,r2,r8[7]
	#NO_APP
	.loc	1 197 9
	#APP
	maccs r5,r4,r3,r2
	#NO_APP
	.loc	1 198 9
	#APP
	maccs r5,r4,r11,r6
	#NO_APP
	.loc	1 200 9
	#APP
	ldd r2,r1,r1[8]
	#NO_APP
	ldc r3, 64
	.loc	1 201 9
	{
		add r3, r8, r3
		nop
	}
	{
		nop
		ldw r3, r3[0]
	}
.Ltmp49:
	.loc	1 202 9
	#APP
	std r3,r0,r8[8]
	#NO_APP
	.loc	1 203 9
	#APP
	maccs r5,r4,r1,r0
	#NO_APP
	.loc	1 204 9
	#APP
	maccs r5,r4,r2,r3
	#NO_APP
	bu .LBB0_26
.Ltmp50:
.LBB0_7:
	.loc	1 93 9
	#APP
	ldd r11,r3,r1[0]
	#NO_APP
	{
		mov r8, r6
		nop
	}
	.loc	1 94 9
	#APP
	ldd r2,r6,r8[0]
	#NO_APP
	.loc	1 95 9
	#APP
	std r6,r0,r8[0]
	#NO_APP
	.loc	1 96 9
	#APP
	maccs r5,r4,r3,r0
	#NO_APP
	.loc	1 97 9
	#APP
	maccs r5,r4,r11,r6
	#NO_APP
	.loc	1 99 9
	#APP
	ldd r11,r3,r1[1]
	#NO_APP
	.loc	1 100 9
	#APP
	ldd r0,r6,r8[1]
	#NO_APP
	.loc	1 101 9
	#APP
	std r6,r2,r8[1]
	#NO_APP
	.loc	1 102 9
	#APP
	maccs r5,r4,r3,r2
	#NO_APP
	.loc	1 103 9
	#APP
	maccs r5,r4,r11,r6
	#NO_APP
	.loc	1 105 9
	#APP
	ldd r11,r3,r1[2]
	#NO_APP
	.loc	1 106 9
	#APP
	ldd r2,r6,r8[2]
	#NO_APP
	.loc	1 107 9
	#APP
	std r6,r0,r8[2]
	#NO_APP
	.loc	1 108 9
	#APP
	maccs r5,r4,r3,r0
	#NO_APP
	.loc	1 109 9
	#APP
	maccs r5,r4,r11,r6
	#NO_APP
	.loc	1 111 9
	#APP
	ldd r11,r3,r1[3]
	#NO_APP
	.loc	1 112 9
	#APP
	ldd r0,r6,r8[3]
	#NO_APP
	.loc	1 113 9
	#APP
	std r6,r2,r8[3]
	#NO_APP
	.loc	1 114 9
	#APP
	maccs r5,r4,r3,r2
	#NO_APP
	.loc	1 115 9
	#APP
	maccs r5,r4,r11,r6
	#NO_APP
	.loc	1 117 9
	#APP
	ldd r11,r3,r1[4]
	#NO_APP
	.loc	1 118 9
	#APP
	ldd r2,r6,r8[4]
	#NO_APP
	.loc	1 119 9
	#APP
	std r6,r0,r8[4]
	#NO_APP
	.loc	1 120 9
	#APP
	maccs r5,r4,r3,r0
	#NO_APP
	.loc	1 121 9
	#APP
	maccs r5,r4,r11,r6
	#NO_APP
	.loc	1 123 9
	#APP
	ldd r11,r3,r1[5]
	#NO_APP
	.loc	1 124 9
	#APP
	ldd r0,r6,r8[5]
	#NO_APP
	.loc	1 125 9
	#APP
	std r6,r2,r8[5]
	#NO_APP
	.loc	1 126 9
	#APP
	maccs r5,r4,r3,r2
	#NO_APP
	.loc	1 127 9
	#APP
	maccs r5,r4,r11,r6
	#NO_APP
	.loc	1 129 9
	#APP
	ldd r11,r3,r1[6]
	#NO_APP
	.loc	1 130 9
	#APP
	ldd r2,r6,r8[6]
	#NO_APP
	.loc	1 131 9
	#APP
	std r6,r0,r8[6]
	#NO_APP
	.loc	1 132 9
	#APP
	maccs r5,r4,r3,r0
	#NO_APP
	.loc	1 133 9
	#APP
	maccs r5,r4,r11,r6
	#NO_APP
	.loc	1 135 9
	#APP
	ldd r11,r3,r1[7]
	#NO_APP
	.loc	1 136 9
	#APP
	ldd r0,r6,r8[7]
	#NO_APP
	.loc	1 137 9
	#APP
	std r6,r2,r8[7]
	#NO_APP
	.loc	1 138 9
	#APP
	maccs r5,r4,r3,r2
	#NO_APP
	.loc	1 139 9
	#APP
	maccs r5,r4,r11,r6
	#NO_APP
	.loc	1 141 9
	#APP
	ldd r11,r3,r1[8]
	#NO_APP
	.loc	1 142 9
	#APP
	ldd r2,r6,r8[8]
	#NO_APP
	.loc	1 143 9
	#APP
	std r6,r0,r8[8]
	#NO_APP
	.loc	1 144 9
	#APP
	maccs r5,r4,r3,r0
	#NO_APP
	.loc	1 145 9
	#APP
	maccs r5,r4,r11,r6
	#NO_APP
	ldc r0, 72
	.loc	1 146 9
	{
		add r3, r8, r0
		nop
	}
	.loc	1 146 9
	{
		add r0, r1, r0
		stw r2, r3[0]
	}
	{
		nop
		ldw r0, r0[0]
	}
	.loc	1 147 9
	#APP
	maccs r5,r4,r0,r2
	#NO_APP
.Ltmp51:
.LBB0_26:
	.loc	1 713 5
	#APP
	lsats r5,r4,r7
	#NO_APP
	.loc	1 714 5
	#APP
	lextract r0,r5,r4,r7,32
	#NO_APP
.Ltmp52:
	{
		nop
		ldw r10, sp[10]
	}
	.loc	1 715 5
	ldd r9, r8, sp[4]
	ldd r7, r6, sp[3]
.Ltmp53:
	ldd r5, r4, sp[2]
	{
		nop
		retsp 12
	}
	# RETURN_REG_HOLDER
.Ltmp54:
	.cc_bottom dsp_filters_fir.function
	.set	dsp_filters_fir.nstackwords,12
	.globl	dsp_filters_fir.nstackwords
	.set	dsp_filters_fir.maxcores,1
	.globl	dsp_filters_fir.maxcores
	.set	dsp_filters_fir.maxtimers,0
	.globl	dsp_filters_fir.maxtimers
	.set	dsp_filters_fir.maxchanends,0
	.globl	dsp_filters_fir.maxchanends
.Ltmp55:
	.size	dsp_filters_fir, .Ltmp55-dsp_filters_fir
.Lfunc_end0:
	.cfi_endproc

	.section	.cp.rodata.cst4,"aMc",@progbits,4
	.cc_top .LCPI1_0.data,.LCPI1_0
	.align	4
	.type	.LCPI1_0,@object
	.size	.LCPI1_0, 4
.LCPI1_0:
	.long	4294967288
	.cc_bottom .LCPI1_0.data
	.text
	.globl	_dsp_filters_interpolate__fir_even
	.align	4
	.type	_dsp_filters_interpolate__fir_even,@function
	.cc_top _dsp_filters_interpolate__fir_even.function,_dsp_filters_interpolate__fir_even
_dsp_filters_interpolate__fir_even:
.Lfunc_begin1:
	.loc	1 726 0
	.cfi_startproc
	.issue_mode dual
	{
		nop
		dualentsp 12
	}
.Ltmp56:
	.cfi_def_cfa_offset 48
.Ltmp57:
	.cfi_offset 15, 0
	std r5, r4, sp[2]
.Ltmp58:
	.cfi_offset 4, -32
.Ltmp59:
	.cfi_offset 5, -28
	std r7, r6, sp[3]
.Ltmp60:
	.cfi_offset 6, -24
.Ltmp61:
	.cfi_offset 7, -20
	std r9, r8, sp[4]
.Ltmp62:
	.cfi_offset 8, -16
.Ltmp63:
	.cfi_offset 9, -12
.Ltmp64:
	.cfi_offset 10, -8
.Ltmp65:
	{
		mov r6, r3
		stw r10, sp[10]
	}
.Ltmp66:
	{
		mov r3, r1
		sub r1, r6, 1
	}
.Ltmp67:
	{
		mkmsk r11, 1
		nop
	}
.Ltmp68:
	.loc	1 728 5 prologue_end
	{
		shl r11, r11, r1
		ldc r1, 8
	}
.Ltmp69:
	.loc	1 730 5
	{
		lss r1, r2, r1
		nop
	}
	bt r1, .LBB1_1
.Ltmp70:
	{
		sub r4, r2, 8
		stw r6, sp[3]
	}
	{
		nop
		stw r4, sp[0]
	}
	ldw r1, cp[.LCPI1_0]
	.loc	1 730 5
	{
		and r7, r4, r1
		nop
	}
	.loc	1 730 5
	{
		add r8, r7, 8
		nop
	}
	ldaw r1, r0[r8]
.Ltmp71:
	{
		ldc r4, 0
		stw r1, sp[1]
	}
	{
		mkmsk r10, 3
		mov r1, r3
	}
	{
		nop
		stw r3, sp[2]
	}
.Ltmp72:
.LBB1_3:
	.loc	1 732 9
	#APP
	ldd r5,r9,r0[0]
	#NO_APP
	.loc	1 733 9
	#APP
	ldd r3,r6,r1[0]
	#NO_APP
	.loc	1 734 9
	#APP
	maccs r4,r11,r9,r6
	#NO_APP
	.loc	1 735 9
	#APP
	maccs r4,r11,r5,r3
	#NO_APP
	.loc	1 736 9
	#APP
	ldd r3,r5,r0[1]
	#NO_APP
	.loc	1 737 9
	#APP
	ldd r6,r9,r1[1]
	#NO_APP
	.loc	1 738 9
	#APP
	maccs r4,r11,r5,r9
	#NO_APP
	.loc	1 739 9
	#APP
	maccs r4,r11,r3,r6
	#NO_APP
	.loc	1 740 9
	#APP
	ldd r3,r5,r0[2]
	#NO_APP
	.loc	1 741 9
	#APP
	ldd r6,r9,r1[2]
	#NO_APP
	.loc	1 742 9
	#APP
	maccs r4,r11,r5,r9
	#NO_APP
	.loc	1 743 9
	#APP
	maccs r4,r11,r3,r6
	#NO_APP
	.loc	1 744 9
	#APP
	ldd r3,r6,r0[3]
	#NO_APP
	.loc	1 745 9
	#APP
	ldd r9,r5,r1[3]
	#NO_APP
	.loc	1 746 9
	#APP
	maccs r4,r11,r6,r5
	#NO_APP
	.loc	1 747 9
	#APP
	maccs r4,r11,r3,r9
	#NO_APP
	.loc	1 748 9
	{
		sub r2, r2, 8
		nop
	}
	.loc	1 748 20
	ldaw r0, r0[8]
	.loc	1 748 32
	ldaw r1, r1[8]
.Ltmp73:
	.loc	1 730 5
	{
		lss r3, r10, r2
		nop
	}
	.loc	1 730 5
	bt r3, .LBB1_3
.Ltmp74:
	{
		nop
		ldw r3, sp[2]
	}
.Ltmp75:
	ldaw r3, r3[r8]
.Ltmp76:
	{
		nop
		ldw r0, sp[0]
	}
.Ltmp77:
	.loc	1 730 5
	{
		sub r2, r0, r7
		ldw r0, sp[1]
	}
.Ltmp78:
	{
		nop
		ldw r6, sp[3]
	}
.Ltmp79:
	bu .LBB1_5
.Ltmp80:
.LBB1_1:
	{
		ldc r4, 0
		nop
	}
.Ltmp81:
.LBB1_5:
	.loc	1 750 5
	{
		sub r1, r2, 1
		ldc r2, 6
	}
	{
		lsu r2, r2, r1
		nop
	}
	bt r2, .LBB1_14
.Ltmp82:

	.xtabranch .Ljumptable1+4,.Ljumptable1+8,.Ljumptable1+12,.Ljumptable1+16,.Ljumptable1+20,.Ljumptable1+24,.Ljumptable1+28
.Ljumptable1:
		
	{
		nop
		bru r1
	}
	.jmptable32 .LBB1_13,.LBB1_12,.LBB1_11,.LBB1_10,.LBB1_9,.LBB1_8,.LBB1_7
.Ltmp83:
.LBB1_13:
	{
		nop
		ldw r0, r0[0]
	}
	{
		nop
		ldw r1, r3[0]
	}
	.loc	1 820 9
.Ltmp84:
	#APP
	maccs r4,r11,r0,r1
	#NO_APP
	bu .LBB1_14
.Ltmp85:
.LBB1_12:
	.loc	1 814 9
	#APP
	ldd r1,r0,r0[0]
	#NO_APP
	.loc	1 815 9
	#APP
	maccs r4,r11,r0,r5
	#NO_APP
	.loc	1 816 9
	#APP
	maccs r4,r11,r1,r9
	#NO_APP
	bu .LBB1_14
.Ltmp86:
.LBB1_11:
	.loc	1 806 9
	#APP
	ldd r2,r1,r0[0]
	#NO_APP
	{
		mov r7, r3
		nop
	}
	.loc	1 807 9
	#APP
	ldd r5,r3,r7[0]
	#NO_APP
	.loc	1 808 9
	#APP
	maccs r4,r11,r1,r3
	#NO_APP
	.loc	1 809 9
	#APP
	maccs r4,r11,r2,r5
	#NO_APP
	{
		nop
		ldw r0, r0[2]
	}
	{
		nop
		ldw r1, r7[2]
	}
	.loc	1 810 9
	#APP
	maccs r4,r11,r0,r1
	#NO_APP
	bu .LBB1_14
.Ltmp87:
.LBB1_10:
	.loc	1 795 9
	#APP
	ldd r2,r1,r0[0]
	#NO_APP
	{
		mov r7, r3
		nop
	}
	.loc	1 796 9
	#APP
	ldd r5,r3,r7[0]
	#NO_APP
	.loc	1 797 9
	#APP
	maccs r4,r11,r1,r3
	#NO_APP
	.loc	1 798 9
	#APP
	maccs r4,r11,r2,r5
	#NO_APP
	.loc	1 799 9
	#APP
	ldd r1,r0,r0[1]
	#NO_APP
	.loc	1 800 9
	#APP
	ldd r3,r2,r7[1]
	#NO_APP
	.loc	1 801 9
	#APP
	maccs r4,r11,r0,r2
	#NO_APP
	.loc	1 802 9
	#APP
	maccs r4,r11,r1,r3
	#NO_APP
	bu .LBB1_14
.Ltmp88:
.LBB1_9:
	.loc	1 783 9
	#APP
	ldd r2,r1,r0[0]
	#NO_APP
	{
		mov r7, r3
		nop
	}
	.loc	1 784 9
	#APP
	ldd r5,r3,r7[0]
	#NO_APP
	.loc	1 785 9
	#APP
	maccs r4,r11,r1,r3
	#NO_APP
	.loc	1 786 9
	#APP
	maccs r4,r11,r2,r5
	#NO_APP
	.loc	1 787 9
	#APP
	ldd r2,r1,r0[1]
	#NO_APP
	.loc	1 788 9
	#APP
	ldd r5,r3,r7[1]
	#NO_APP
	.loc	1 789 9
	#APP
	maccs r4,r11,r1,r3
	#NO_APP
	.loc	1 790 9
	#APP
	maccs r4,r11,r2,r5
	#NO_APP
	{
		nop
		ldw r0, r0[4]
	}
	{
		nop
		ldw r1, r7[4]
	}
	.loc	1 791 9
	#APP
	maccs r4,r11,r0,r1
	#NO_APP
	bu .LBB1_14
.Ltmp89:
.LBB1_8:
	.loc	1 769 9
	#APP
	ldd r2,r1,r0[0]
	#NO_APP
	{
		mov r7, r3
		nop
	}
	.loc	1 770 9
	#APP
	ldd r5,r3,r7[0]
	#NO_APP
	.loc	1 771 9
	#APP
	maccs r4,r11,r1,r3
	#NO_APP
	.loc	1 772 9
	#APP
	maccs r4,r11,r2,r5
	#NO_APP
	.loc	1 773 9
	#APP
	ldd r3,r2,r0[1]
	#NO_APP
	.loc	1 774 9
	#APP
	ldd r1,r5,r7[1]
	#NO_APP
	.loc	1 775 9
	#APP
	maccs r4,r11,r2,r5
	#NO_APP
	.loc	1 776 9
	#APP
	maccs r4,r11,r3,r1
	#NO_APP
	.loc	1 777 9
	#APP
	ldd r2,r0,r0[2]
	#NO_APP
	.loc	1 778 9
	#APP
	maccs r4,r11,r0,r5
	#NO_APP
	.loc	1 779 9
	#APP
	maccs r4,r11,r2,r1
	#NO_APP
	bu .LBB1_14
.Ltmp90:
.LBB1_7:
	.loc	1 753 9
	#APP
	ldd r2,r1,r0[0]
	#NO_APP
	{
		mov r7, r3
		nop
	}
	.loc	1 754 9
	#APP
	ldd r5,r3,r7[0]
	#NO_APP
	.loc	1 755 9
	#APP
	maccs r4,r11,r1,r3
	#NO_APP
	.loc	1 756 9
	#APP
	maccs r4,r11,r2,r5
	#NO_APP
	.loc	1 757 9
	#APP
	ldd r2,r1,r0[1]
	#NO_APP
	.loc	1 758 9
	#APP
	ldd r5,r3,r7[1]
	#NO_APP
	.loc	1 759 9
	#APP
	maccs r4,r11,r1,r3
	#NO_APP
	.loc	1 760 9
	#APP
	maccs r4,r11,r2,r5
	#NO_APP
	.loc	1 761 9
	#APP
	ldd r2,r1,r0[2]
	#NO_APP
	.loc	1 762 9
	#APP
	ldd r5,r3,r7[2]
	#NO_APP
	.loc	1 763 9
	#APP
	maccs r4,r11,r1,r3
	#NO_APP
	.loc	1 764 9
	#APP
	maccs r4,r11,r2,r5
	#NO_APP
	{
		nop
		ldw r0, r0[6]
	}
	{
		nop
		ldw r1, r7[6]
	}
	.loc	1 765 9
	#APP
	maccs r4,r11,r0,r1
	#NO_APP
.Ltmp91:
.LBB1_14:
	.loc	1 823 5
	#APP
	lsats r4,r11,r6
	#NO_APP
	.loc	1 824 5
	#APP
	lextract r0,r4,r11,r6,32
	#NO_APP
.Ltmp92:
	{
		nop
		ldw r10, sp[10]
	}
	.loc	1 825 5
	ldd r9, r8, sp[4]
	ldd r7, r6, sp[3]
.Ltmp93:
	ldd r5, r4, sp[2]
	{
		nop
		retsp 12
	}
	# RETURN_REG_HOLDER
.Ltmp94:
	.cc_bottom _dsp_filters_interpolate__fir_even.function
	.set	_dsp_filters_interpolate__fir_even.nstackwords,12
	.globl	_dsp_filters_interpolate__fir_even.nstackwords
	.set	_dsp_filters_interpolate__fir_even.maxcores,1
	.globl	_dsp_filters_interpolate__fir_even.maxcores
	.set	_dsp_filters_interpolate__fir_even.maxtimers,0
	.globl	_dsp_filters_interpolate__fir_even.maxtimers
	.set	_dsp_filters_interpolate__fir_even.maxchanends,0
	.globl	_dsp_filters_interpolate__fir_even.maxchanends
.Ltmp95:
	.size	_dsp_filters_interpolate__fir_even, .Ltmp95-_dsp_filters_interpolate__fir_even
.Lfunc_end1:
	.cfi_endproc

	.section	.cp.rodata.cst4,"aMc",@progbits,4
	.cc_top .LCPI2_0.data,.LCPI2_0
	.align	4
	.type	.LCPI2_0,@object
	.size	.LCPI2_0, 4
.LCPI2_0:
	.long	4294967288
	.cc_bottom .LCPI2_0.data
	.text
	.globl	_dsp_filters_interpolate__fir_odd
	.align	4
	.type	_dsp_filters_interpolate__fir_odd,@function
	.cc_top _dsp_filters_interpolate__fir_odd.function,_dsp_filters_interpolate__fir_odd
_dsp_filters_interpolate__fir_odd:
.Lfunc_begin2:
	.loc	1 836 0
	.cfi_startproc
	.issue_mode dual
	{
		nop
		dualentsp 12
	}
.Ltmp96:
	.cfi_def_cfa_offset 48
.Ltmp97:
	.cfi_offset 15, 0
	std r5, r4, sp[2]
.Ltmp98:
	.cfi_offset 4, -32
.Ltmp99:
	.cfi_offset 5, -28
	std r7, r6, sp[3]
.Ltmp100:
	.cfi_offset 6, -24
.Ltmp101:
	.cfi_offset 7, -20
	std r9, r8, sp[4]
.Ltmp102:
	.cfi_offset 8, -16
.Ltmp103:
	.cfi_offset 9, -12
.Ltmp104:
	.cfi_offset 10, -8
.Ltmp105:
	{
		mov r6, r3
		stw r10, sp[10]
	}
.Ltmp106:
	{
		mov r3, r1
		sub r1, r6, 1
	}
.Ltmp107:
	{
		mkmsk r11, 1
		nop
	}
.Ltmp108:
	.loc	1 838 5 prologue_end
	{
		shl r11, r11, r1
		ldw r1, r0[0]
	}
.Ltmp109:
	.loc	1 840 5
	{
		ldc r4, 0
		ldw r5, r3[0]
	}
	.loc	1 840 5
	#APP
	maccs r4,r11,r1,r5
	#NO_APP
.Ltmp110:
	.loc	1 841 5
	{
		sub r5, r2, 1
		ldc r1, 8
	}
.Ltmp111:
	.loc	1 843 5
	{
		lss r1, r5, r1
		nop
	}
	bt r1, .LBB2_1
.Ltmp112:
	{
		sub r2, r2, 9
		stw r6, sp[3]
	}
	{
		nop
		stw r2, sp[0]
	}
	ldw r1, cp[.LCPI2_0]
	.loc	1 843 5
	{
		and r7, r2, r1
		nop
	}
	.loc	1 843 5
	{
		add r8, r7, 8
		nop
	}
	ldaw r1, r0[r8]
.Ltmp113:
	{
		mkmsk r10, 3
		stw r1, sp[1]
	}
.Ltmp114:
	{
		mov r1, r3
		stw r3, sp[2]
	}
.Ltmp115:
.LBB2_3:
	.loc	1 845 9
	#APP
	ldd r2,r9,r0[0]
	#NO_APP
	.loc	1 846 9
	#APP
	ldd r3,r6,r1[0]
	#NO_APP
	.loc	1 847 9
	#APP
	maccs r4,r11,r9,r6
	#NO_APP
	.loc	1 848 9
	#APP
	maccs r4,r11,r2,r3
	#NO_APP
	.loc	1 849 9
	#APP
	ldd r2,r3,r0[1]
	#NO_APP
	.loc	1 850 9
	#APP
	ldd r6,r9,r1[1]
	#NO_APP
	.loc	1 851 9
	#APP
	maccs r4,r11,r3,r9
	#NO_APP
	.loc	1 852 9
	#APP
	maccs r4,r11,r2,r6
	#NO_APP
	.loc	1 853 9
	#APP
	ldd r2,r3,r0[2]
	#NO_APP
	.loc	1 854 9
	#APP
	ldd r6,r9,r1[2]
	#NO_APP
	.loc	1 855 9
	#APP
	maccs r4,r11,r3,r9
	#NO_APP
	.loc	1 856 9
	#APP
	maccs r4,r11,r2,r6
	#NO_APP
	.loc	1 857 9
	#APP
	ldd r3,r6,r0[3]
	#NO_APP
	.loc	1 858 9
	#APP
	ldd r9,r2,r1[3]
	#NO_APP
	.loc	1 859 9
	#APP
	maccs r4,r11,r6,r2
	#NO_APP
	.loc	1 860 9
	#APP
	maccs r4,r11,r3,r9
	#NO_APP
	.loc	1 861 9
	{
		sub r5, r5, 8
		nop
	}
	.loc	1 861 20
	ldaw r0, r0[8]
	.loc	1 861 32
	ldaw r1, r1[8]
.Ltmp116:
	.loc	1 843 5
	{
		lss r3, r10, r5
		nop
	}
	.loc	1 843 5
	bt r3, .LBB2_3
.Ltmp117:
	{
		nop
		ldw r3, sp[2]
	}
.Ltmp118:
	ldaw r3, r3[r8]
.Ltmp119:
	{
		nop
		ldw r0, sp[0]
	}
.Ltmp120:
	.loc	1 843 5
	{
		sub r5, r0, r7
		ldw r6, sp[3]
	}
.Ltmp121:
	{
		nop
		ldw r7, sp[1]
	}
.Ltmp122:
	bu .LBB2_5
.Ltmp123:
.LBB2_1:
	{
		mov r7, r0
		nop
	}
.Ltmp124:
.LBB2_5:
	.loc	1 863 5
	{
		sub r0, r5, 1
		ldc r1, 6
	}
	{
		lsu r1, r1, r0
		nop
	}
	bt r1, .LBB2_14
.Ltmp125:

	.xtabranch .Ljumptable2+4,.Ljumptable2+8,.Ljumptable2+12,.Ljumptable2+16,.Ljumptable2+20,.Ljumptable2+24,.Ljumptable2+28
.Ljumptable2:
		
	{
		nop
		bru r0
	}
	.jmptable32 .LBB2_13,.LBB2_12,.LBB2_11,.LBB2_10,.LBB2_9,.LBB2_8,.LBB2_7
.Ltmp126:
.LBB2_13:
	{
		nop
		ldw r0, r7[0]
	}
	{
		nop
		ldw r1, r3[0]
	}
	.loc	1 933 9
.Ltmp127:
	#APP
	maccs r4,r11,r0,r1
	#NO_APP
	bu .LBB2_14
.Ltmp128:
.LBB2_12:
	.loc	1 927 9
	#APP
	ldd r1,r0,r7[0]
	#NO_APP
	.loc	1 928 9
	#APP
	maccs r4,r11,r0,r2
	#NO_APP
	.loc	1 929 9
	#APP
	maccs r4,r11,r1,r9
	#NO_APP
	bu .LBB2_14
.Ltmp129:
.LBB2_11:
	.loc	1 919 9
	#APP
	ldd r1,r0,r7[0]
	#NO_APP
	{
		mov r5, r3
		nop
	}
	.loc	1 920 9
	#APP
	ldd r3,r2,r5[0]
	#NO_APP
	.loc	1 921 9
	#APP
	maccs r4,r11,r0,r2
	#NO_APP
	.loc	1 922 9
	#APP
	maccs r4,r11,r1,r3
	#NO_APP
	{
		nop
		ldw r0, r7[2]
	}
	{
		nop
		ldw r1, r5[2]
	}
	.loc	1 923 9
	#APP
	maccs r4,r11,r0,r1
	#NO_APP
	bu .LBB2_14
.Ltmp130:
.LBB2_10:
	.loc	1 908 9
	#APP
	ldd r1,r0,r7[0]
	#NO_APP
	{
		mov r5, r3
		nop
	}
	.loc	1 909 9
	#APP
	ldd r3,r2,r5[0]
	#NO_APP
	.loc	1 910 9
	#APP
	maccs r4,r11,r0,r2
	#NO_APP
	.loc	1 911 9
	#APP
	maccs r4,r11,r1,r3
	#NO_APP
	.loc	1 912 9
	#APP
	ldd r1,r0,r7[1]
	#NO_APP
	.loc	1 913 9
	#APP
	ldd r3,r2,r5[1]
	#NO_APP
	.loc	1 914 9
	#APP
	maccs r4,r11,r0,r2
	#NO_APP
	.loc	1 915 9
	#APP
	maccs r4,r11,r1,r3
	#NO_APP
	bu .LBB2_14
.Ltmp131:
.LBB2_9:
	.loc	1 896 9
	#APP
	ldd r1,r0,r7[0]
	#NO_APP
	{
		mov r5, r3
		nop
	}
	.loc	1 897 9
	#APP
	ldd r3,r2,r5[0]
	#NO_APP
	.loc	1 898 9
	#APP
	maccs r4,r11,r0,r2
	#NO_APP
	.loc	1 899 9
	#APP
	maccs r4,r11,r1,r3
	#NO_APP
	.loc	1 900 9
	#APP
	ldd r1,r0,r7[1]
	#NO_APP
	.loc	1 901 9
	#APP
	ldd r3,r2,r5[1]
	#NO_APP
	.loc	1 902 9
	#APP
	maccs r4,r11,r0,r2
	#NO_APP
	.loc	1 903 9
	#APP
	maccs r4,r11,r1,r3
	#NO_APP
	{
		nop
		ldw r0, r7[4]
	}
	{
		nop
		ldw r1, r5[4]
	}
	.loc	1 904 9
	#APP
	maccs r4,r11,r0,r1
	#NO_APP
	bu .LBB2_14
.Ltmp132:
.LBB2_8:
	.loc	1 882 9
	#APP
	ldd r1,r0,r7[0]
	#NO_APP
	{
		mov r5, r3
		nop
	}
	.loc	1 883 9
	#APP
	ldd r3,r2,r5[0]
	#NO_APP
	.loc	1 884 9
	#APP
	maccs r4,r11,r0,r2
	#NO_APP
	.loc	1 885 9
	#APP
	maccs r4,r11,r1,r3
	#NO_APP
	.loc	1 886 9
	#APP
	ldd r2,r1,r7[1]
	#NO_APP
	.loc	1 887 9
	#APP
	ldd r0,r3,r5[1]
	#NO_APP
	.loc	1 888 9
	#APP
	maccs r4,r11,r1,r3
	#NO_APP
	.loc	1 889 9
	#APP
	maccs r4,r11,r2,r0
	#NO_APP
	.loc	1 890 9
	#APP
	ldd r2,r1,r7[2]
	#NO_APP
	.loc	1 891 9
	#APP
	maccs r4,r11,r1,r3
	#NO_APP
	.loc	1 892 9
	#APP
	maccs r4,r11,r2,r0
	#NO_APP
	bu .LBB2_14
.Ltmp133:
.LBB2_7:
	.loc	1 866 9
	#APP
	ldd r1,r0,r7[0]
	#NO_APP
	{
		mov r5, r3
		nop
	}
	.loc	1 867 9
	#APP
	ldd r3,r2,r5[0]
	#NO_APP
	.loc	1 868 9
	#APP
	maccs r4,r11,r0,r2
	#NO_APP
	.loc	1 869 9
	#APP
	maccs r4,r11,r1,r3
	#NO_APP
	.loc	1 870 9
	#APP
	ldd r1,r0,r7[1]
	#NO_APP
	.loc	1 871 9
	#APP
	ldd r3,r2,r5[1]
	#NO_APP
	.loc	1 872 9
	#APP
	maccs r4,r11,r0,r2
	#NO_APP
	.loc	1 873 9
	#APP
	maccs r4,r11,r1,r3
	#NO_APP
	.loc	1 874 9
	#APP
	ldd r1,r0,r7[2]
	#NO_APP
	.loc	1 875 9
	#APP
	ldd r3,r2,r5[2]
	#NO_APP
	.loc	1 876 9
	#APP
	maccs r4,r11,r0,r2
	#NO_APP
	.loc	1 877 9
	#APP
	maccs r4,r11,r1,r3
	#NO_APP
	{
		nop
		ldw r0, r7[6]
	}
	{
		nop
		ldw r1, r5[6]
	}
	.loc	1 878 9
	#APP
	maccs r4,r11,r0,r1
	#NO_APP
.Ltmp134:
.LBB2_14:
	.loc	1 936 5
	#APP
	lsats r4,r11,r6
	#NO_APP
	.loc	1 937 5
	#APP
	lextract r0,r4,r11,r6,32
	#NO_APP
.Ltmp135:
	{
		nop
		ldw r10, sp[10]
	}
	.loc	1 938 5
	ldd r9, r8, sp[4]
	ldd r7, r6, sp[3]
.Ltmp136:
	ldd r5, r4, sp[2]
	{
		nop
		retsp 12
	}
	# RETURN_REG_HOLDER
.Ltmp137:
	.cc_bottom _dsp_filters_interpolate__fir_odd.function
	.set	_dsp_filters_interpolate__fir_odd.nstackwords,12
	.globl	_dsp_filters_interpolate__fir_odd.nstackwords
	.set	_dsp_filters_interpolate__fir_odd.maxcores,1
	.globl	_dsp_filters_interpolate__fir_odd.maxcores
	.set	_dsp_filters_interpolate__fir_odd.maxtimers,0
	.globl	_dsp_filters_interpolate__fir_odd.maxtimers
	.set	_dsp_filters_interpolate__fir_odd.maxchanends,0
	.globl	_dsp_filters_interpolate__fir_odd.maxchanends
.Ltmp138:
	.size	_dsp_filters_interpolate__fir_odd, .Ltmp138-_dsp_filters_interpolate__fir_odd
.Lfunc_end2:
	.cfi_endproc

	.section	.cp.rodata.cst4,"aMc",@progbits,4
	.cc_top .LCPI3_0.data,.LCPI3_0
	.align	4
	.type	.LCPI3_0,@object
	.size	.LCPI3_0, 4
.LCPI3_0:
	.long	4294967288
	.cc_bottom .LCPI3_0.data
	.text
	.globl	dsp_filters_interpolate
	.align	4
	.type	dsp_filters_interpolate,@function
	.cc_top dsp_filters_interpolate.function,dsp_filters_interpolate
dsp_filters_interpolate:
.Lfunc_begin3:
	.loc	1 952 0
	.cfi_startproc
	.issue_mode dual
	{
		nop
		dualentsp 14
	}
.Ltmp139:
	.cfi_def_cfa_offset 56
.Ltmp140:
	.cfi_offset 15, 0
	std r5, r4, sp[3]
.Ltmp141:
	.cfi_offset 4, -32
.Ltmp142:
	.cfi_offset 5, -28
	std r7, r6, sp[4]
.Ltmp143:
	.cfi_offset 6, -24
.Ltmp144:
	.cfi_offset 7, -20
	std r9, r8, sp[5]
.Ltmp145:
	.cfi_offset 8, -16
.Ltmp146:
	.cfi_offset 9, -12
.Ltmp147:
	.cfi_offset 10, -8
.Ltmp148:
	{
		mov r5, r1
		stw r10, sp[12]
	}
.Ltmp149:
	ldd r1, r8, sp[8]
	{
		nop
		stw r1, sp[5]
	}
	{
		nop
		ldw r9, sp[15]
	}
	.loc	1 954 5 prologue_end
.Ltmp150:
	divs r7, r3, r9
.Ltmp151:
	{
		ldc r1, 8
		nop
	}
.Ltmp152:
	.loc	1 976 5
	{
		lss r1, r7, r1
		nop
	}
	bt r1, .LBB3_1
.Ltmp153:
	.loc	1 976 5
	{
		sub r3, r7, 8
		nop
	}
	{
		nop
		stw r3, sp[2]
	}
	ldw r1, cp[.LCPI3_0]
	.loc	1 976 5
	{
		and r3, r3, r1
		nop
	}
	ldaw r1, r2[r3]
	ldaw r1, r1[8]
.Ltmp154:
	{
		mkmsk r11, 3
		stw r1, sp[3]
	}
.Ltmp155:
	{
		mov r4, r2
		stw r2, sp[4]
	}
	{
		mov r6, r7
		nop
	}
.Ltmp156:
.LBB3_3:
	.loc	1 978 9
	#APP
	ldd r10,r1,r4[0]
	#NO_APP
	.loc	1 979 9
	#APP
	std r1,r0,r4[0]
	#NO_APP
	.loc	1 980 9
	#APP
	ldd r0,r1,r4[1]
	#NO_APP
	.loc	1 981 9
	#APP
	std r1,r10,r4[1]
	#NO_APP
	.loc	1 982 9
	#APP
	ldd r1,r10,r4[2]
	#NO_APP
	.loc	1 983 9
	#APP
	std r10,r0,r4[2]
	#NO_APP
	.loc	1 984 9
	#APP
	ldd r0,r10,r4[3]
	#NO_APP
	.loc	1 985 9
	#APP
	std r10,r1,r4[3]
	#NO_APP
	.loc	1 986 9
	{
		sub r6, r6, 8
		nop
	}
	.loc	1 986 19
	ldaw r4, r4[8]
.Ltmp157:
	.loc	1 976 5
	{
		lss r1, r11, r6
		nop
	}
	.loc	1 976 5
	bt r1, .LBB3_3
.Ltmp158:
	{
		nop
		ldw r1, sp[2]
	}
.Ltmp159:
	.loc	1 976 5
	{
		sub r2, r1, r3
		ldw r3, sp[3]
	}
.Ltmp160:
	bu .LBB3_5
.Ltmp161:
.LBB3_1:
	{
		mov r3, r2
		stw r2, sp[4]
	}
	{
		mov r2, r7
		nop
	}
.Ltmp162:
.LBB3_5:
	.loc	1 988 5
	{
		sub r2, r2, 1
		ldc r1, 6
	}
	{
		lsu r1, r1, r2
		nop
	}
	bt r1, .LBB3_14
.Ltmp163:

	.xtabranch .Ljumptable3+4,.Ljumptable3+8,.Ljumptable3+12,.Ljumptable3+16,.Ljumptable3+20,.Ljumptable3+24,.Ljumptable3+28
.Ljumptable3:
		
	{
		nop
		bru r2
	}
	.jmptable32 .LBB3_13,.LBB3_12,.LBB3_11,.LBB3_10,.LBB3_9,.LBB3_8,.LBB3_7
.Ltmp164:
.LBB3_13:
	{
		nop
		stw r0, r3[0]
	}
	bu .LBB3_14
.Ltmp165:
.LBB3_12:
	.loc	1 1031 9
	#APP
	ldd r1,r2,r3[0]
	#NO_APP
	.loc	1 1032 9
	#APP
	std r2,r0,r3[0]
	#NO_APP
	bu .LBB3_14
.Ltmp166:
.LBB3_11:
	.loc	1 1025 9
	#APP
	ldd r1,r2,r3[0]
	#NO_APP
	.loc	1 1026 9
	#APP
	std r2,r0,r3[0]
	#NO_APP
	{
		nop
		stw r1, r3[2]
	}
	bu .LBB3_14
.Ltmp167:
.LBB3_10:
	.loc	1 1018 9
	#APP
	ldd r2,r1,r3[0]
	#NO_APP
	.loc	1 1019 9
	#APP
	std r1,r0,r3[0]
	#NO_APP
	.loc	1 1020 9
	#APP
	ldd r0,r1,r3[1]
	#NO_APP
	.loc	1 1021 9
	#APP
	std r1,r2,r3[1]
	#NO_APP
	bu .LBB3_14
.Ltmp168:
.LBB3_9:
	.loc	1 1010 9
	#APP
	ldd r2,r1,r3[0]
	#NO_APP
	.loc	1 1011 9
	#APP
	std r1,r0,r3[0]
	#NO_APP
	.loc	1 1012 9
	#APP
	ldd r0,r1,r3[1]
	#NO_APP
	.loc	1 1013 9
	#APP
	std r1,r2,r3[1]
	#NO_APP
	{
		nop
		stw r0, r3[4]
	}
	bu .LBB3_14
.Ltmp169:
.LBB3_8:
	.loc	1 1001 9
	#APP
	ldd r2,r1,r3[0]
	#NO_APP
	.loc	1 1002 9
	#APP
	std r1,r0,r3[0]
	#NO_APP
	.loc	1 1003 9
	#APP
	ldd r1,r0,r3[1]
	#NO_APP
	.loc	1 1004 9
	#APP
	std r0,r2,r3[1]
	#NO_APP
	.loc	1 1005 9
	#APP
	ldd r0,r2,r3[2]
	#NO_APP
	.loc	1 1006 9
	#APP
	std r2,r1,r3[2]
	#NO_APP
	bu .LBB3_14
.Ltmp170:
.LBB3_7:
	.loc	1 991 9
	#APP
	ldd r2,r1,r3[0]
	#NO_APP
	.loc	1 992 9
	#APP
	std r1,r0,r3[0]
	#NO_APP
	.loc	1 993 9
	#APP
	ldd r1,r0,r3[1]
	#NO_APP
	.loc	1 994 9
	#APP
	std r0,r2,r3[1]
	#NO_APP
	.loc	1 995 9
	#APP
	ldd r0,r2,r3[2]
	#NO_APP
	.loc	1 996 9
	#APP
	std r2,r1,r3[2]
	#NO_APP
	{
		nop
		stw r0, r3[6]
	}
.Ltmp171:
.LBB3_14:
	{
		mkmsk r0, 1
		nop
	}
	.loc	1 1038 5
.Ltmp172:
	{
		lss r0, r9, r0
		nop
	}
	bt r0, .LBB3_20
.Ltmp173:
	.loc	1 1045 9
	{
		mov r10, r7
		nop
	}
	{
		zext r10, 1
		shl r6, r7, 2
	}
	{
		ldc r4, 0
		nop
	}
.Ltmp174:
.LBB3_16:
	.loc	1 1043 33
	{
		mov r0, r5
		nop
	}
	.loc	1 1040 13
	bf r4, .LBB3_18
.Ltmp175:
	.loc	1 1041 33
	{
		mov r2, r7
		ldw r1, sp[4]
	}
	{
		nop
		ldw r3, sp[5]
	}
	bl _dsp_filters_interpolate__fir_odd
	bu .LBB3_19
.LBB3_18:
	.loc	1 1043 33
	{
		mov r2, r7
		ldw r1, sp[4]
	}
	{
		nop
		ldw r3, sp[5]
	}
	bl _dsp_filters_interpolate__fir_even
.Ltmp176:
.LBB3_19:
	{
		nop
		stw r0, r8[0]
	}
	.loc	1 1045 9
	xor r4, r4, r10
.Ltmp177:
	.loc	1 1038 5
	{
		add r8, r8, 4
		sub r9, r9, 1
	}
	.loc	1 1038 5
	{
		add r5, r5, r6
		nop
	}
	bt r9, .LBB3_16
.Ltmp178:
.LBB3_20:
	{
		nop
		ldw r10, sp[12]
	}
	.loc	1 1047 1
	ldd r9, r8, sp[5]
	ldd r7, r6, sp[4]
	ldd r5, r4, sp[3]
	{
		nop
		retsp 14
	}
	# RETURN_REG_HOLDER
.Ltmp179:
	.cc_bottom dsp_filters_interpolate.function
	.set	dsp_filters_interpolate.nstackwords,((_dsp_filters_interpolate__fir_even.nstackwords $M _dsp_filters_interpolate__fir_odd.nstackwords) + 14)
	.globl	dsp_filters_interpolate.nstackwords
	.set	dsp_filters_interpolate.maxcores,_dsp_filters_interpolate__fir_even.maxcores $M _dsp_filters_interpolate__fir_odd.maxcores $M 1
	.globl	dsp_filters_interpolate.maxcores
	.set	dsp_filters_interpolate.maxtimers,_dsp_filters_interpolate__fir_even.maxtimers $M _dsp_filters_interpolate__fir_odd.maxtimers $M 0
	.globl	dsp_filters_interpolate.maxtimers
	.set	dsp_filters_interpolate.maxchanends,_dsp_filters_interpolate__fir_even.maxchanends $M _dsp_filters_interpolate__fir_odd.maxchanends $M 0
	.globl	dsp_filters_interpolate.maxchanends
.Ltmp180:
	.size	dsp_filters_interpolate, .Ltmp180-dsp_filters_interpolate
.Lfunc_end3:
	.cfi_endproc

	.globl	dsp_filters_decimate
	.align	4
	.type	dsp_filters_decimate,@function
	.cc_top dsp_filters_decimate.function,dsp_filters_decimate
dsp_filters_decimate:
.Lfunc_begin4:
	.loc	1 1059 0
	.cfi_startproc
	.issue_mode dual
	{
		nop
		dualentsp 8
	}
.Ltmp181:
	.cfi_def_cfa_offset 32
.Ltmp182:
	.cfi_offset 15, 0
	std r5, r4, sp[1]
.Ltmp183:
	.cfi_offset 4, -24
.Ltmp184:
	.cfi_offset 5, -20
	std r7, r6, sp[2]
.Ltmp185:
	.cfi_offset 6, -16
.Ltmp186:
	.cfi_offset 7, -12
.Ltmp187:
	.cfi_offset 8, -8
.Ltmp188:
	{
		mov r6, r3
		stw r8, sp[6]
	}
.Ltmp189:
	{
		mov r4, r2
		mov r5, r0
	}
.Ltmp190:
	{
		nop
		ldw r8, sp[9]
	}
	{
		sub r7, r8, 1
		ldw r2, sp[10]
	}
	{
		nop
		ldw r0, r5[0]
	}
	.loc	1 1071 14 prologue_end
.Ltmp191:
	{
		mov r2, r4
		stw r2, sp[1]
	}
	bl dsp_filters_fir
.Ltmp192:
	.loc	1 1072 5
	{
		sub r2, r6, r7
		mkmsk r1, 1
	}
	.loc	1 1072 5
	{
		lss r2, r2, r1
		nop
	}
	bt r2, .LBB4_3
.Ltmp193:
	.loc	1 1072 5
	{
		sub r3, r6, r8
		sub r2, r6, 1
	}
.Ltmp194:
.LBB4_2:
	{
		mov r11, r3
		nop
	}
	{
		nop
		ldw r3, r4[r11]
	}
	.loc	1 1072 64
	stw r3, r4[r2]
	.loc	1 1072 5
	{
		sub r3, r11, 1
		sub r2, r2, 1
	}
	bt r11, .LBB4_2
.Ltmp195:
.LBB4_3:
	.loc	1 1073 5
	{
		lss r1, r7, r1
		nop
	}
	bt r1, .LBB4_6
.Ltmp196:
	{
		add r1, r5, 4
		nop
	}
.Ltmp197:
.LBB4_5:
	{
		nop
		ldw r2, r1[0]
	}
	.loc	1 1073 51
	{
		sub r7, r7, 1
		stw r2, r4[0]
	}
	.loc	1 1073 5
	{
		add r1, r1, 4
		add r4, r4, 4
	}
	bt r7, .LBB4_5
.Ltmp198:
.LBB4_6:
	{
		nop
		ldw r8, sp[6]
	}
	.loc	1 1074 5
	ldd r7, r6, sp[2]
	ldd r5, r4, sp[1]
	{
		nop
		retsp 8
	}
.Ltmp199:
	# RETURN_REG_HOLDER
.Ltmp200:
	.cc_bottom dsp_filters_decimate.function
	.set	dsp_filters_decimate.nstackwords,(dsp_filters_fir.nstackwords + 8)
	.globl	dsp_filters_decimate.nstackwords
	.set	dsp_filters_decimate.maxcores,dsp_filters_fir.maxcores $M 1
	.globl	dsp_filters_decimate.maxcores
	.set	dsp_filters_decimate.maxtimers,dsp_filters_fir.maxtimers $M 0
	.globl	dsp_filters_decimate.maxtimers
	.set	dsp_filters_decimate.maxchanends,dsp_filters_fir.maxchanends $M 0
	.globl	dsp_filters_decimate.maxchanends
.Ltmp201:
	.size	dsp_filters_decimate, .Ltmp201-dsp_filters_decimate
.Lfunc_end4:
	.cfi_endproc

	.globl	dsp_filters_biquad
	.align	4
	.type	dsp_filters_biquad,@function
	.cc_top dsp_filters_biquad.function,dsp_filters_biquad
dsp_filters_biquad:
.Lfunc_begin5:
	.loc	1 1085 0
	.cfi_startproc
	.issue_mode dual
	{
		nop
		dualentsp 0
	}
	{
		extsp 4
		nop
	}
.Ltmp202:
	.cfi_def_cfa_offset 16
	std r5, r4, sp[0]
.Ltmp203:
	.cfi_offset 4, -16
.Ltmp204:
	.cfi_offset 5, -12
	std r7, r6, sp[1]
.Ltmp205:
	.cfi_offset 6, -8
.Ltmp206:
	.cfi_offset 7, -4
	.loc	1 1087 5 prologue_end
.Ltmp207:
	#APP
	ldd r6,r5,r1[0]
	#NO_APP
	.loc	1 1088 5
	{
		sub r11, r3, 1
		mkmsk r4, 1
	}
	.loc	1 1088 5
	{
		shl r11, r4, r11
		ldc r4, 0
	}
	.loc	1 1088 5
	#APP
	maccs r4,r11,r0,r5
	#NO_APP
	.loc	1 1089 5
	#APP
	ldd r7,r5,r2[0]
	#NO_APP
	.loc	1 1090 5
	#APP
	std r5,r0,r2[0]
	#NO_APP
	.loc	1 1091 5
	#APP
	maccs r4,r11,r5,r6
	#NO_APP
	.loc	1 1092 5
	#APP
	ldd r6,r0,r1[1]
	#NO_APP
.Ltmp208:
	.loc	1 1093 5
	#APP
	maccs r4,r11,r7,r0
	#NO_APP
	.loc	1 1094 5
	#APP
	ldd r0,r5,r2[1]
	#NO_APP
	.loc	1 1095 5
	#APP
	maccs r4,r11,r5,r6
	#NO_APP
	{
		nop
		ldw r1, r1[4]
	}
.Ltmp209:
	.loc	1 1096 5
	#APP
	maccs r4,r11,r0,r1
	#NO_APP
	.loc	1 1097 5
	#APP
	lsats r4,r11,r3
	#NO_APP
	.loc	1 1098 5
	#APP
	lextract r0,r4,r11,r3,32
	#NO_APP
.Ltmp210:
	.loc	1 1099 5
	#APP
	std r5,r0,r2[1]
	#NO_APP
	.loc	1 1100 5
	ldd r7, r6, sp[1]
	ldd r5, r4, sp[0]
	{
		ldaw sp, sp[4]
		nop
	}
	{
		nop
		retsp 0
	}
	# RETURN_REG_HOLDER
.Ltmp211:
	.cc_bottom dsp_filters_biquad.function
	.set	dsp_filters_biquad.nstackwords,4
	.globl	dsp_filters_biquad.nstackwords
	.set	dsp_filters_biquad.maxcores,1
	.globl	dsp_filters_biquad.maxcores
	.set	dsp_filters_biquad.maxtimers,0
	.globl	dsp_filters_biquad.maxtimers
	.set	dsp_filters_biquad.maxchanends,0
	.globl	dsp_filters_biquad.maxchanends
.Ltmp212:
	.size	dsp_filters_biquad, .Ltmp212-dsp_filters_biquad
.Lfunc_end5:
	.cfi_endproc

	.globl	dsp_filters_biquads
	.align	4
	.type	dsp_filters_biquads,@function
	.cc_top dsp_filters_biquads.function,dsp_filters_biquads
dsp_filters_biquads:
.Lfunc_begin6:
	.loc	1 1112 0
	.cfi_startproc
	.issue_mode dual
	{
		nop
		dualentsp 10
	}
.Ltmp213:
	.cfi_def_cfa_offset 40
.Ltmp214:
	.cfi_offset 15, 0
	std r5, r4, sp[1]
.Ltmp215:
	.cfi_offset 4, -32
.Ltmp216:
	.cfi_offset 5, -28
	std r7, r6, sp[2]
.Ltmp217:
	.cfi_offset 6, -24
.Ltmp218:
	.cfi_offset 7, -20
	std r9, r8, sp[3]
.Ltmp219:
	.cfi_offset 8, -16
.Ltmp220:
	.cfi_offset 9, -12
	{
		nop
		stw r10, sp[8]
	}
.Ltmp221:
	.cfi_offset 10, -8
.Ltmp222:
	{
		nop
		ldw r11, sp[11]
	}
	.loc	1 1274 13 prologue_end
.Ltmp223:
	{
		sub r4, r11, 1
		mkmsk r5, 1
	}
	.loc	1 1274 13
	{
		shl r5, r5, r4
		nop
	}
	bu .LBB6_1
.Ltmp224:
.LBB6_6:
	.loc	1 1273 13
	#APP
	ldd r8,r7,r1[0]
	#NO_APP
	.loc	1 1274 13
	{
		mov r9, r5
		stw r3, sp[1]
	}
	{
		ldc r3, 0
		nop
	}
	{
		mov r10, r3
		nop
	}
	#APP
	maccs r10,r9,r0,r7
	#NO_APP
	.loc	1 1275 13
	#APP
	ldd r6,r7,r2[0]
	#NO_APP
	.loc	1 1276 13
	#APP
	std r7,r0,r2[0]
	#NO_APP
	.loc	1 1277 13
	#APP
	maccs r10,r9,r7,r8
	#NO_APP
	.loc	1 1278 13
	#APP
	ldd r7,r0,r1[1]
	#NO_APP
	.loc	1 1279 13
	#APP
	maccs r10,r9,r6,r0
	#NO_APP
	.loc	1 1280 13
	#APP
	ldd r6,r0,r2[1]
	#NO_APP
	.loc	1 1281 13
	#APP
	maccs r10,r9,r0,r7
	#NO_APP
	.loc	1 1282 13
	#APP
	ldd r7,r8,r1[2]
	#NO_APP
	.loc	1 1283 13
	#APP
	maccs r10,r9,r6,r8
	#NO_APP
	{
		mov r4, r11
		nop
	}
.Ltmp225:
	.loc	1 1284 13
	#APP
	lsats r10,r9,r4
	#NO_APP
	.loc	1 1285 13
	#APP
	lextract r6,r10,r9,r4,32
	#NO_APP
.Ltmp226:
	.loc	1 1286 13
	#APP
	std r0,r6,r2[1]
	#NO_APP
	.loc	1 1288 13
	{
		mov r0, r3
		mov r9, r5
	}
	#APP
	maccs r0,r9,r6,r7
	#NO_APP
	.loc	1 1289 13
	#APP
	ldd r8,r7,r1[3]
	#NO_APP
	.loc	1 1290 13
	#APP
	ldd r11,r10,r2[2]
	#NO_APP
	.loc	1 1291 13
	#APP
	std r10,r6,r2[2]
	#NO_APP
	.loc	1 1292 13
	#APP
	maccs r0,r9,r10,r7
	#NO_APP
	.loc	1 1293 13
	#APP
	maccs r0,r9,r11,r8
	#NO_APP
	.loc	1 1294 13
	#APP
	ldd r6,r11,r1[4]
	#NO_APP
.Ltmp227:
	.loc	1 1295 13
	#APP
	ldd r8,r7,r2[3]
	#NO_APP
	.loc	1 1296 13
	#APP
	maccs r0,r9,r7,r11
	#NO_APP
	.loc	1 1297 13
	#APP
	maccs r0,r9,r8,r6
	#NO_APP
	.loc	1 1298 13
	#APP
	lsats r0,r9,r4
	#NO_APP
	.loc	1 1299 13
	#APP
	lextract r11,r0,r9,r4,32
	#NO_APP
.Ltmp228:
	.loc	1 1300 13
	#APP
	std r7,r11,r2[3]
	#NO_APP
	.loc	1 1302 13
	#APP
	ldd r7,r6,r1[5]
	#NO_APP
	.loc	1 1303 13
	{
		mov r0, r3
		mov r9, r5
	}
	#APP
	maccs r0,r9,r11,r6
	#NO_APP
	.loc	1 1304 13
	#APP
	ldd r8,r6,r2[4]
	#NO_APP
	.loc	1 1305 13
	#APP
	std r6,r11,r2[4]
	#NO_APP
	.loc	1 1306 13
	#APP
	maccs r0,r9,r6,r7
	#NO_APP
	.loc	1 1307 13
	#APP
	ldd r6,r11,r1[6]
	#NO_APP
.Ltmp229:
	.loc	1 1308 13
	#APP
	maccs r0,r9,r8,r11
	#NO_APP
	.loc	1 1309 13
	#APP
	ldd r11,r10,r2[5]
	#NO_APP
	.loc	1 1310 13
	#APP
	maccs r0,r9,r10,r6
	#NO_APP
	.loc	1 1311 13
	#APP
	ldd r7,r6,r1[7]
	#NO_APP
	.loc	1 1312 13
	#APP
	maccs r0,r9,r11,r6
	#NO_APP
	.loc	1 1313 13
	#APP
	lsats r0,r9,r4
	#NO_APP
	.loc	1 1314 13
	#APP
	lextract r11,r0,r9,r4,32
	#NO_APP
.Ltmp230:
	.loc	1 1315 13
	#APP
	std r10,r11,r2[5]
	#NO_APP
	.loc	1 1317 13
	{
		mov r0, r3
		ldw r3, sp[1]
	}
	{
		mov r9, r5
		nop
	}
	#APP
	maccs r0,r9,r11,r7
	#NO_APP
	.loc	1 1318 13
	#APP
	ldd r7,r6,r1[8]
	#NO_APP
	.loc	1 1319 13
	#APP
	ldd r10,r8,r2[6]
	#NO_APP
	.loc	1 1320 13
	#APP
	std r8,r11,r2[6]
	#NO_APP
	.loc	1 1321 13
	#APP
	maccs r0,r9,r8,r6
	#NO_APP
	.loc	1 1322 13
	#APP
	maccs r0,r9,r10,r7
	#NO_APP
	.loc	1 1323 13
	#APP
	ldd r6,r11,r1[9]
	#NO_APP
.Ltmp231:
	.loc	1 1324 13
	#APP
	ldd r7,r10,r2[7]
	#NO_APP
	.loc	1 1325 13
	#APP
	maccs r0,r9,r10,r11
	#NO_APP
	.loc	1 1326 13
	#APP
	maccs r0,r9,r7,r6
	#NO_APP
	.loc	1 1327 13
	#APP
	lsats r0,r9,r4
	#NO_APP
	.loc	1 1328 13
	#APP
	lextract r0,r0,r9,r4,32
	#NO_APP
.Ltmp232:
	{
		mov r11, r4
		nop
	}
.Ltmp233:
	.loc	1 1329 13
	#APP
	std r10,r0,r2[7]
	#NO_APP
	.loc	1 1330 13
	{
		sub r3, r3, 4
		nop
	}
.Ltmp234:
	ldc r4, 80
	.loc	1 1330 22
	{
		add r1, r1, r4
		nop
	}
.Ltmp235:
	ldc r4, 64
	.loc	1 1330 43
	{
		add r2, r2, r4
		nop
	}
.Ltmp236:
.LBB6_1:
	.loc	1 1118 9
	{
		sub r7, r3, 1
		mkmsk r4, 2
	}
	{
		lsu r9, r4, r7
		nop
	}
	bt r9, .LBB6_6
.Ltmp237:

	.xtabranch .Ljumptable4+4,.Ljumptable4+8,.Ljumptable4+12,.Ljumptable4+16
.Ljumptable4:
		
	{
		nop
		bru r7
	}
	.jmptable32 .LBB6_5,.LBB6_4,.LBB6_3,.LBB6_7
.Ltmp238:
.LBB6_5:
	.loc	1 1257 13
	#APP
	ldd r6,r3,r1[0]
	#NO_APP
	{
		ldc r4, 0
		nop
	}
	.loc	1 1258 13
	#APP
	maccs r4,r5,r0,r3
	#NO_APP
	.loc	1 1259 13
	#APP
	ldd r7,r3,r2[0]
	#NO_APP
	.loc	1 1260 13
	#APP
	std r3,r0,r2[0]
	#NO_APP
	.loc	1 1261 13
	#APP
	maccs r4,r5,r3,r6
	#NO_APP
	.loc	1 1262 13
	#APP
	ldd r6,r0,r1[1]
	#NO_APP
	.loc	1 1263 13
	#APP
	maccs r4,r5,r7,r0
	#NO_APP
	.loc	1 1264 13
	#APP
	ldd r0,r3,r2[1]
	#NO_APP
	.loc	1 1265 13
	#APP
	maccs r4,r5,r3,r6
	#NO_APP
	{
		nop
		ldw r1, r1[4]
	}
	.loc	1 1266 13
	#APP
	maccs r4,r5,r0,r1
	#NO_APP
	.loc	1 1267 13
	#APP
	lsats r4,r5,r11
	#NO_APP
	.loc	1 1268 13
	#APP
	lextract r0,r4,r5,r11,32
	#NO_APP
.Ltmp239:
	.loc	1 1269 13
	#APP
	std r3,r0,r2[1]
	#NO_APP
	bu .LBB6_8
.Ltmp240:
.LBB6_4:
	.loc	1 1226 13
	#APP
	ldd r8,r7,r1[0]
	#NO_APP
	{
		ldc r4, 0
		nop
	}
	.loc	1 1227 13
	{
		mov r3, r4
		mov r6, r5
	}
	#APP
	maccs r3,r6,r0,r7
	#NO_APP
	.loc	1 1228 13
	#APP
	ldd r9,r7,r2[0]
	#NO_APP
	.loc	1 1229 13
	#APP
	std r7,r0,r2[0]
	#NO_APP
	.loc	1 1230 13
	#APP
	maccs r3,r6,r7,r8
	#NO_APP
	.loc	1 1231 13
	#APP
	ldd r7,r0,r1[1]
	#NO_APP
	.loc	1 1232 13
	#APP
	maccs r3,r6,r9,r0
	#NO_APP
	.loc	1 1233 13
	#APP
	ldd r8,r0,r2[1]
	#NO_APP
	.loc	1 1234 13
	#APP
	maccs r3,r6,r0,r7
	#NO_APP
	.loc	1 1235 13
	#APP
	ldd r7,r9,r1[2]
	#NO_APP
	.loc	1 1236 13
	#APP
	maccs r3,r6,r8,r9
	#NO_APP
	.loc	1 1237 13
	#APP
	lsats r3,r6,r11
	#NO_APP
	.loc	1 1238 13
	#APP
	lextract r3,r3,r6,r11,32
	#NO_APP
.Ltmp241:
	.loc	1 1239 13
	#APP
	std r0,r3,r2[1]
	#NO_APP
	.loc	1 1241 13
	#APP
	maccs r4,r5,r3,r7
	#NO_APP
	.loc	1 1242 13
	#APP
	ldd r6,r0,r1[3]
	#NO_APP
	.loc	1 1243 13
	#APP
	ldd r8,r7,r2[2]
	#NO_APP
	.loc	1 1244 13
	#APP
	std r7,r3,r2[2]
	#NO_APP
	.loc	1 1245 13
	#APP
	maccs r4,r5,r7,r0
	#NO_APP
	.loc	1 1246 13
	#APP
	maccs r4,r5,r8,r6
	#NO_APP
	.loc	1 1247 13
	#APP
	ldd r3,r0,r1[4]
	#NO_APP
.Ltmp242:
	.loc	1 1248 13
	#APP
	ldd r6,r1,r2[3]
	#NO_APP
	.loc	1 1249 13
	#APP
	maccs r4,r5,r1,r0
	#NO_APP
	.loc	1 1250 13
	#APP
	maccs r4,r5,r6,r3
	#NO_APP
	.loc	1 1251 13
	#APP
	lsats r4,r5,r11
	#NO_APP
	.loc	1 1252 13
	#APP
	lextract r0,r4,r5,r11,32
	#NO_APP
.Ltmp243:
	.loc	1 1253 13
	#APP
	std r1,r0,r2[3]
	#NO_APP
	bu .LBB6_8
.Ltmp244:
.LBB6_3:
	.loc	1 1181 13
	#APP
	ldd r8,r7,r1[0]
	#NO_APP
	{
		ldc r10, 0
		nop
	}
	.loc	1 1182 13
	{
		mov r3, r10
		mov r4, r5
	}
	{
		mov r6, r4
		nop
	}
	#APP
	maccs r3,r6,r0,r7
	#NO_APP
	.loc	1 1183 13
	#APP
	ldd r9,r7,r2[0]
	#NO_APP
	.loc	1 1184 13
	#APP
	std r7,r0,r2[0]
	#NO_APP
	.loc	1 1185 13
	#APP
	maccs r3,r6,r7,r8
	#NO_APP
	.loc	1 1186 13
	#APP
	ldd r7,r0,r1[1]
	#NO_APP
	.loc	1 1187 13
	#APP
	maccs r3,r6,r9,r0
	#NO_APP
	.loc	1 1188 13
	#APP
	ldd r8,r0,r2[1]
	#NO_APP
	.loc	1 1189 13
	#APP
	maccs r3,r6,r0,r7
	#NO_APP
	.loc	1 1190 13
	#APP
	ldd r7,r9,r1[2]
	#NO_APP
	{
		mov r5, r1
		nop
	}
	.loc	1 1191 13
	#APP
	maccs r3,r6,r8,r9
	#NO_APP
	.loc	1 1192 13
	#APP
	lsats r3,r6,r11
	#NO_APP
	.loc	1 1193 13
	#APP
	lextract r6,r3,r6,r11,32
	#NO_APP
.Ltmp245:
	.loc	1 1194 13
	#APP
	std r0,r6,r2[1]
	#NO_APP
	.loc	1 1196 13
	{
		mov r0, r10
		mov r3, r4
	}
	#APP
	maccs r0,r3,r6,r7
	#NO_APP
	.loc	1 1197 13
	#APP
	ldd r8,r7,r5[3]
	#NO_APP
	.loc	1 1198 13
	#APP
	ldd r1,r9,r2[2]
	#NO_APP
	.loc	1 1199 13
	#APP
	std r9,r6,r2[2]
	#NO_APP
	.loc	1 1200 13
	#APP
	maccs r0,r3,r9,r7
	#NO_APP
	.loc	1 1201 13
	#APP
	maccs r0,r3,r1,r8
	#NO_APP
	.loc	1 1202 13
	#APP
	ldd r8,r7,r5[4]
	#NO_APP
	.loc	1 1203 13
	#APP
	ldd r9,r6,r2[3]
	#NO_APP
.Ltmp246:
	.loc	1 1204 13
	#APP
	maccs r0,r3,r6,r7
	#NO_APP
	.loc	1 1205 13
	#APP
	maccs r0,r3,r9,r8
	#NO_APP
	.loc	1 1206 13
	#APP
	lsats r0,r3,r11
	#NO_APP
	.loc	1 1207 13
	#APP
	lextract r0,r0,r3,r11,32
	#NO_APP
.Ltmp247:
	.loc	1 1208 13
	#APP
	std r6,r0,r2[3]
	#NO_APP
	.loc	1 1210 13
	#APP
	ldd r6,r3,r5[5]
	#NO_APP
	.loc	1 1211 13
	#APP
	maccs r10,r4,r0,r3
	#NO_APP
	.loc	1 1212 13
	#APP
	ldd r7,r3,r2[4]
	#NO_APP
	.loc	1 1213 13
	#APP
	std r3,r0,r2[4]
	#NO_APP
	.loc	1 1214 13
	#APP
	maccs r10,r4,r3,r6
	#NO_APP
	.loc	1 1215 13
	#APP
	ldd r6,r0,r5[6]
	#NO_APP
.Ltmp248:
	.loc	1 1216 13
	#APP
	maccs r10,r4,r7,r0
	#NO_APP
	.loc	1 1217 13
	#APP
	ldd r0,r3,r2[5]
	#NO_APP
	.loc	1 1218 13
	#APP
	maccs r10,r4,r3,r6
	#NO_APP
	{
		ldc r6, 56
		nop
	}
	.loc	1 1219 13
	{
		add r1, r5, r6
		nop
	}
	{
		nop
		ldw r1, r1[0]
	}
	.loc	1 1219 13
	#APP
	maccs r10,r4,r0,r1
	#NO_APP
	.loc	1 1220 13
	#APP
	lsats r10,r4,r11
	#NO_APP
	.loc	1 1221 13
	#APP
	lextract r0,r10,r4,r11,32
	#NO_APP
.Ltmp249:
	.loc	1 1222 13
	#APP
	std r3,r0,r2[5]
	#NO_APP
	bu .LBB6_8
.Ltmp250:
.LBB6_7:
	.loc	1 1121 13
	#APP
	ldd r8,r7,r1[0]
	#NO_APP
	{
		ldc r10, 0
		nop
	}
	.loc	1 1122 13
	{
		mov r3, r10
		mov r4, r5
	}
	{
		mov r6, r4
		nop
	}
	#APP
	maccs r3,r6,r0,r7
	#NO_APP
	.loc	1 1123 13
	#APP
	ldd r9,r7,r2[0]
	#NO_APP
	.loc	1 1124 13
	#APP
	std r7,r0,r2[0]
	#NO_APP
	.loc	1 1125 13
	#APP
	maccs r3,r6,r7,r8
	#NO_APP
	.loc	1 1126 13
	#APP
	ldd r7,r0,r1[1]
	#NO_APP
	.loc	1 1127 13
	#APP
	maccs r3,r6,r9,r0
	#NO_APP
	.loc	1 1128 13
	#APP
	ldd r8,r0,r2[1]
	#NO_APP
	.loc	1 1129 13
	#APP
	maccs r3,r6,r0,r7
	#NO_APP
	.loc	1 1130 13
	#APP
	ldd r7,r9,r1[2]
	#NO_APP
	{
		mov r5, r1
		nop
	}
	.loc	1 1131 13
	#APP
	maccs r3,r6,r8,r9
	#NO_APP
	.loc	1 1132 13
	#APP
	lsats r3,r6,r11
	#NO_APP
	.loc	1 1133 13
	#APP
	lextract r6,r3,r6,r11,32
	#NO_APP
.Ltmp251:
	.loc	1 1134 13
	#APP
	std r0,r6,r2[1]
	#NO_APP
	.loc	1 1136 13
	{
		mov r0, r10
		mov r3, r4
	}
	#APP
	maccs r0,r3,r6,r7
	#NO_APP
	.loc	1 1137 13
	#APP
	ldd r8,r7,r5[3]
	#NO_APP
	.loc	1 1138 13
	#APP
	ldd r1,r9,r2[2]
	#NO_APP
	.loc	1 1139 13
	#APP
	std r9,r6,r2[2]
	#NO_APP
	.loc	1 1140 13
	#APP
	maccs r0,r3,r9,r7
	#NO_APP
	.loc	1 1141 13
	#APP
	maccs r0,r3,r1,r8
	#NO_APP
	.loc	1 1142 13
	#APP
	ldd r8,r7,r5[4]
	#NO_APP
	.loc	1 1143 13
	#APP
	ldd r9,r6,r2[3]
	#NO_APP
.Ltmp252:
	.loc	1 1144 13
	#APP
	maccs r0,r3,r6,r7
	#NO_APP
	.loc	1 1145 13
	#APP
	maccs r0,r3,r9,r8
	#NO_APP
	.loc	1 1146 13
	#APP
	lsats r0,r3,r11
	#NO_APP
	.loc	1 1147 13
	#APP
	lextract r7,r0,r3,r11,32
	#NO_APP
.Ltmp253:
	.loc	1 1148 13
	#APP
	std r6,r7,r2[3]
	#NO_APP
	.loc	1 1150 13
	#APP
	ldd r8,r6,r5[5]
	#NO_APP
	.loc	1 1151 13
	{
		mov r0, r10
		mov r3, r4
	}
	#APP
	maccs r0,r3,r7,r6
	#NO_APP
	.loc	1 1152 13
	#APP
	ldd r9,r6,r2[4]
	#NO_APP
	.loc	1 1153 13
	#APP
	std r6,r7,r2[4]
	#NO_APP
	.loc	1 1154 13
	#APP
	maccs r0,r3,r6,r8
	#NO_APP
	.loc	1 1155 13
	#APP
	ldd r7,r6,r5[6]
	#NO_APP
.Ltmp254:
	.loc	1 1156 13
	#APP
	maccs r0,r3,r9,r6
	#NO_APP
	.loc	1 1157 13
	#APP
	ldd r8,r6,r2[5]
	#NO_APP
	.loc	1 1158 13
	#APP
	maccs r0,r3,r6,r7
	#NO_APP
	.loc	1 1159 13
	#APP
	ldd r7,r9,r5[7]
	#NO_APP
	.loc	1 1160 13
	#APP
	maccs r0,r3,r8,r9
	#NO_APP
	.loc	1 1161 13
	#APP
	lsats r0,r3,r11
	#NO_APP
	.loc	1 1162 13
	#APP
	lextract r0,r0,r3,r11,32
	#NO_APP
.Ltmp255:
	.loc	1 1163 13
	#APP
	std r6,r0,r2[5]
	#NO_APP
	.loc	1 1165 13
	#APP
	maccs r10,r4,r0,r7
	#NO_APP
	.loc	1 1166 13
	#APP
	ldd r6,r3,r5[8]
	#NO_APP
	.loc	1 1167 13
	#APP
	ldd r8,r7,r2[6]
	#NO_APP
	.loc	1 1168 13
	#APP
	std r7,r0,r2[6]
	#NO_APP
	.loc	1 1169 13
	#APP
	maccs r10,r4,r7,r3
	#NO_APP
	.loc	1 1170 13
	#APP
	maccs r10,r4,r8,r6
	#NO_APP
	.loc	1 1171 13
	#APP
	ldd r3,r0,r5[9]
	#NO_APP
.Ltmp256:
	.loc	1 1172 13
	#APP
	ldd r6,r1,r2[7]
	#NO_APP
	.loc	1 1173 13
	#APP
	maccs r10,r4,r1,r0
	#NO_APP
	.loc	1 1174 13
	#APP
	maccs r10,r4,r6,r3
	#NO_APP
	.loc	1 1175 13
	#APP
	lsats r10,r4,r11
	#NO_APP
	.loc	1 1176 13
	#APP
	lextract r0,r10,r4,r11,32
	#NO_APP
.Ltmp257:
	.loc	1 1177 13
	#APP
	std r1,r0,r2[7]
	#NO_APP
.Ltmp258:
.LBB6_8:
	{
		nop
		ldw r10, sp[8]
	}
	.loc	1 1336 1
	ldd r9, r8, sp[3]
	ldd r7, r6, sp[2]
	ldd r5, r4, sp[1]
	{
		nop
		retsp 10
	}
	# RETURN_REG_HOLDER
.Ltmp259:
	.cc_bottom dsp_filters_biquads.function
	.set	dsp_filters_biquads.nstackwords,10
	.globl	dsp_filters_biquads.nstackwords
	.set	dsp_filters_biquads.maxcores,1
	.globl	dsp_filters_biquads.maxcores
	.set	dsp_filters_biquads.maxtimers,0
	.globl	dsp_filters_biquads.maxtimers
	.set	dsp_filters_biquads.maxchanends,0
	.globl	dsp_filters_biquads.maxchanends
.Ltmp260:
	.size	dsp_filters_biquads, .Ltmp260-dsp_filters_biquads
.Lfunc_end6:
	.cfi_endproc

.Ldebug_end0:
	.file	2 "C:\\Program Files (x86)\\XMOS\\xTIMEcomposer\\Community_14.3.3\\target/include\\stdint.h"
	.section	.trap_info,"",@progbits
.Ltrap_info_entries_start0:
	.long	.Ltrap_info_entries_end0-.Ltrap_info_entries_start0
	.long	1
.Ltrap_info_entries_end0: