	.text
	.file	"C:/Users/user/workspace/lib_dsp/src/dsp_dct.xc"
                                        # Start of file scope inline assembly
	.set usage.anon.0,0
	.set usage.anon.1,0
	.set usage.anon.2,0
	.set usage.anon.3,0
	.set usage.anon.4,0
	.set usage.anon.5,0
	.set usage.anon.6,0
	.globread dsp_dct_forward32,usage.anon.6,"C:/Users/user/workspace/lib_dsp/src/dsp_dct.xc:147:1: note: object used here\nDCT(32,16)\n^~~~~~~~~~\nC:/Users/user/workspace/lib_dsp/src/dsp_dct.xc:101:29: note: expanded from here\n        temp[i] = mulcos(z, costable##N[i]); \\\n                            ^~~~~~~~~~~~~~\n<scratch space>:24:1: note: expanded from here\ncostable32\n^"
	.globread dsp_dct_forward24,usage.anon.5,"C:/Users/user/workspace/lib_dsp/src/dsp_dct.xc:146:1: note: object used here\nDCT(24,12)\n^~~~~~~~~~\nC:/Users/user/workspace/lib_dsp/src/dsp_dct.xc:101:29: note: expanded from here\n        temp[i] = mulcos(z, costable##N[i]); \\\n                            ^~~~~~~~~~~~~~\n<scratch space>:20:1: note: expanded from here\ncostable24\n^"
	.globread dsp_dct_forward16,usage.anon.4,"C:/Users/user/workspace/lib_dsp/src/dsp_dct.xc:145:1: note: object used here\nDCT(16,8)\n^~~~~~~~~\nC:/Users/user/workspace/lib_dsp/src/dsp_dct.xc:101:29: note: expanded from here\n        temp[i] = mulcos(z, costable##N[i]); \\\n                            ^~~~~~~~~~~~~~\n<scratch space>:16:1: note: expanded from here\ncostable16\n^"
	.globread dsp_dct_forward12,usage.anon.3,"C:/Users/user/workspace/lib_dsp/src/dsp_dct.xc:144:1: note: object used here\nDCT(12,6)\n^~~~~~~~~\nC:/Users/user/workspace/lib_dsp/src/dsp_dct.xc:101:29: note: expanded from here\n        temp[i] = mulcos(z, costable##N[i]); \\\n                            ^~~~~~~~~~~~~~\n<scratch space>:12:1: note: expanded from here\ncostable12\n^"
	.globread dsp_dct_forward8,usage.anon.2,"C:/Users/user/workspace/lib_dsp/src/dsp_dct.xc:143:1: note: object used here\nDCT(8,4)\n^~~~~~~~\nC:/Users/user/workspace/lib_dsp/src/dsp_dct.xc:101:29: note: expanded from here\n        temp[i] = mulcos(z, costable##N[i]); \\\n                            ^~~~~~~~~~~~~~\n<scratch space>:8:1: note: expanded from here\ncostable8\n^"
	.globread dsp_dct_forward6,usage.anon.1,"C:/Users/user/workspace/lib_dsp/src/dsp_dct.xc:142:1: note: object used here\nDCT(6,3)\n^~~~~~~~\nC:/Users/user/workspace/lib_dsp/src/dsp_dct.xc:101:29: note: expanded from here\n        temp[i] = mulcos(z, costable##N[i]); \\\n                            ^~~~~~~~~~~~~~\n<scratch space>:4:1: note: expanded from here\ncostable6\n^"
	.call dsp_dct_forward32,usage.anon.0
	.call dsp_dct_forward32,dsp_dct_forward16
	.call dsp_dct_forward24,usage.anon.0
	.call dsp_dct_forward24,dsp_dct_forward12
	.call dsp_dct_forward16,usage.anon.0
	.call dsp_dct_forward16,dsp_dct_forward8
	.call dsp_dct_forward12,usage.anon.0
	.call dsp_dct_forward12,dsp_dct_forward6
	.call dsp_dct_forward8,usage.anon.0
	.call dsp_dct_forward8,dsp_dct_forward4
	.call dsp_dct_forward6,usage.anon.0
	.call dsp_dct_forward6,dsp_dct_forward3
	.call dsp_dct_forward2,usage.anon.0
	.call dsp_dct_forward3,usage.anon.0
	.call dsp_dct_forward4,usage.anon.0
	.par usage.anon.0,usage.anon.0,"C:/Users/user/workspace/lib_dsp/src/dsp_dct.xc:121:17: error: use of `%s\' causes an ambiguous evaluation\n    output[3] = mulcos(i03_, 821806413) + \n                ^~~~~~~~~~~~~~~~~~~~~~~~~"
	.par usage.anon.0,usage.anon.0,"C:/Users/user/workspace/lib_dsp/src/dsp_dct.xc:119:18: error: use of `%s\' causes an ambiguous evaluation\n    output[1] =  mulcos(i03_, 1984016189) +\n                 ^~~~~~~~~~~~~~~~~~~~~~~~~~"
	.set dsp_dct_forward4.locnoside, 0
	.set dsp_dct_forward3.locnoside, 0
	.set dsp_dct_forward2.locnoside, 0
	.set dsp_dct_forward1.locnoside, 0
	.set dsp_dct_forward6.locnoside, 0
	.set dsp_dct_forward8.locnoside, 0
	.set dsp_dct_forward12.locnoside, 0
	.set dsp_dct_forward16.locnoside, 0
	.set dsp_dct_forward24.locnoside, 0
	.set dsp_dct_forward32.locnoside, 0
	.set dsp_dct_forward6.locnoglobalaccess, 0
	.set dsp_dct_forward8.locnoglobalaccess, 0
	.set dsp_dct_forward12.locnoglobalaccess, 0
	.set dsp_dct_forward16.locnoglobalaccess, 0
	.set dsp_dct_forward24.locnoglobalaccess, 0
	.set dsp_dct_forward32.locnoglobalaccess, 0

                                        # End of file scope inline assembly
	.text
	.globl	dsp_dct_forward32
	.align	4
	.type	dsp_dct_forward32,@function
	.cc_top dsp_dct_forward32.function,dsp_dct_forward32
dsp_dct_forward32:                      # @dsp_dct_forward32
.Lfunc_begin0:
	.loc	1 147 0                 # C:/Users/user/workspace/lib_dsp/src/dsp_dct.xc:147:0
	.cfi_startproc
	.issue_mode dual
# BB#0:                                 # %allocas
	{
		nop
		dualentsp 42
	}
.Ltmp0:
	.cfi_def_cfa_offset 168
.Ltmp1:
	.cfi_offset 15, 0
	{
		nop
		stw r4, sp[34]
	}
	{
		nop
		stw r5, sp[35]
	}
.Ltmp2:
	.cfi_offset 4, -32
.Ltmp3:
	.cfi_offset 5, -28
	{
		nop
		stw r6, sp[36]
	}
	{
		nop
		stw r7, sp[37]
	}
.Ltmp4:
	.cfi_offset 6, -24
.Ltmp5:
	.cfi_offset 7, -20
	{
		nop
		stw r8, sp[38]
	}
	{
		nop
		stw r9, sp[39]
	}
.Ltmp6:
	.cfi_offset 8, -16
.Ltmp7:
	.cfi_offset 9, -12
.Ltmp8:
	.cfi_offset 10, -8
	#DEBUG_VALUE: dsp_dct_forward32:output <- R0
	#DEBUG_VALUE: dsp_dct_forward32:input <- R1
.Ltmp9:
	#DEBUG_VALUE: dsp_dct_forward32:input <- R6
	{
		mov r6, r1
		stw r10, sp[40]
	}
.Ltmp10:
	#DEBUG_VALUE: dsp_dct_forward32:output <- R4
	#DEBUG_VALUE: i <- 0
	{
		mov r4, r0
		ldc r0, 0
	}
.Ltmp11:
	{
		mkmsk r1, 5
		ldaw r2, sp[18]
	}
	{
		ldc r8, 16
		nop
	}
.LBB0_1:                                # %afterboundcheck9
                                        # =>This Inner Loop Header: Depth=1
.Ltmp12:
	#DEBUG_VALUE: dsp_dct_forward32:output <- R4
	#DEBUG_VALUE: dsp_dct_forward32:input <- R6
	#DEBUG_VALUE: i <- 0
	{
		nop
		ldw r3, r6[r0]
	}
	{
		nop
		ldw r11, r6[r1]
	}
	.loc	1 147 0 prologue_end    # C:/Users/user/workspace/lib_dsp/src/dsp_dct.xc:147:0
.Ltmp13:
	{
		add r3, r11, r3
		nop
	}
	.loc	1 147 0                 # C:/Users/user/workspace/lib_dsp/src/dsp_dct.xc:147:0
	stw r3, r2[r0]
.Ltmp14:
	#DEBUG_VALUE: i <- R0
	.loc	1 147 0                 # C:/Users/user/workspace/lib_dsp/src/dsp_dct.xc:147:0
	{
		add r0, r0, 1
		sub r1, r1, 1
	}
.Ltmp15:
	.loc	1 147 0                 # C:/Users/user/workspace/lib_dsp/src/dsp_dct.xc:147:0
	{
		lss r3, r0, r8
		nop
	}
	.loc	1 147 0                 # C:/Users/user/workspace/lib_dsp/src/dsp_dct.xc:147:0
	bt r3, .LBB0_1
.Ltmp16:
# BB#2:                                 # %ifdone
	#DEBUG_VALUE: dsp_dct_forward32:output <- R4
	#DEBUG_VALUE: dsp_dct_forward32:input <- R6
	{
		ldaw r5, sp[2]
		ldaw r7, sp[18]
	}
	.loc	1 147 0                 # C:/Users/user/workspace/lib_dsp/src/dsp_dct.xc:147:0
	{
		mov r0, r5
		mov r1, r7
	}
.Lxta.call_labels0:
	bl dsp_dct_forward16
.Ltmp17:
	#DEBUG_VALUE: i <- 0
	{
		ldc r0, 0
		mkmsk r1, 5
	}
.Ltmp18:
	#DEBUG_VALUE: dsp_dct_forward32:output <- [SP+4]
	{
		mov r2, r4
		stw r4, sp[1]
	}
	{
		mov r3, r0
		nop
	}
.Ltmp19:
.LBB0_3:                                # %afterboundcheck40
                                        # =>This Inner Loop Header: Depth=1
	#DEBUG_VALUE: dsp_dct_forward32:output <- [SP+4]
	#DEBUG_VALUE: dsp_dct_forward32:input <- R6
	#DEBUG_VALUE: i <- 0
	{
		nop
		ldw r11, r5[r3]
	}
.Ltmp20:
	#DEBUG_VALUE: i <- R3
	.loc	1 147 0                 # C:/Users/user/workspace/lib_dsp/src/dsp_dct.xc:147:0
	{
		add r3, r3, 1
		stw r11, r2[0]
	}
.Ltmp21:
	.loc	1 147 0                 # C:/Users/user/workspace/lib_dsp/src/dsp_dct.xc:147:0
	{
		add r2, r2, 8
		lss r11, r3, r8
	}
	.loc	1 147 0                 # C:/Users/user/workspace/lib_dsp/src/dsp_dct.xc:147:0
	bt r11, .LBB0_3
.Ltmp22:
# BB#4:
	#DEBUG_VALUE: dsp_dct_forward32:output <- [SP+4]
	#DEBUG_VALUE: dsp_dct_forward32:input <- R6
	{
		ldc r4, 0
		mkmsk r3, 5
	}
.Ltmp23:
.LBB0_5:                                # %afterboundcheck80
                                        # =>This Inner Loop Header: Depth=1
.Lxtalabel0:
	#DEBUG_VALUE: dsp_dct_forward32:output <- [SP+4]
	#DEBUG_VALUE: dsp_dct_forward32:input <- R6
	{
		nop
		ldw r11, r6[r0]
	}
	{
		nop
		ldw r9, r6[r1]
	}
	.loc	1 147 0                 # C:/Users/user/workspace/lib_dsp/src/dsp_dct.xc:147:0
	{
		sub r9, r11, r9
		nop
	}
.Ltmp24:
	#DEBUG_VALUE: z <- R9
	#DEBUG_VALUE: mulcos:x <- R9
	ldaw r11, cp[costable32]
	.loc	1 85 0                  # C:/Users/user/workspace/lib_dsp/src/dsp_dct.xc:85:0
.Ltmp25:
	{
		mov r10, r4
		ldw r11, r11[r0]
	}
	.loc	1 85 0                  # C:/Users/user/workspace/lib_dsp/src/dsp_dct.xc:85:0
	{
		mov r2, r4
		nop
	}
	maccs r10, r2, r11, r9
	.loc	1 86 5                  # C:/Users/user/workspace/lib_dsp/src/dsp_dct.xc:86:5
	{
		shr r2, r2, r3
		shl r11, r10, 1
	}
	{
		or r2, r2, r11
		nop
	}
.Ltmp26:
	.loc	1 147 0                 # C:/Users/user/workspace/lib_dsp/src/dsp_dct.xc:147:0
	stw r2, r7[r0]
.Ltmp27:
	#DEBUG_VALUE: i <- R0
	.loc	1 147 0                 # C:/Users/user/workspace/lib_dsp/src/dsp_dct.xc:147:0
	{
		add r0, r0, 1
		sub r1, r1, 1
	}
.Ltmp28:
	.loc	1 147 0                 # C:/Users/user/workspace/lib_dsp/src/dsp_dct.xc:147:0
	{
		lss r2, r0, r8
		nop
	}
	.loc	1 147 0                 # C:/Users/user/workspace/lib_dsp/src/dsp_dct.xc:147:0
	bt r2, .LBB0_5
.Ltmp29:
# BB#6:                                 # %ifdone52
	#DEBUG_VALUE: dsp_dct_forward32:output <- [SP+4]
	{
		ldaw r1, sp[18]
		mov r0, r5
	}
	.loc	1 147 0                 # C:/Users/user/workspace/lib_dsp/src/dsp_dct.xc:147:0
	bl dsp_dct_forward16
	{
		nop
		ldw r0, sp[2]
	}
.Ltmp30:
	#DEBUG_VALUE: last <- R0
	{
		nop
		ldw r1, sp[1]
	}
.Ltmp31:
	#DEBUG_VALUE: dsp_dct_forward32:output <- R1
	{
		nop
		stw r0, r1[1]
	}
.Ltmp32:
	#DEBUG_VALUE: i <- 1
	ldaw r1, r1[3]
.Ltmp33:
	{
		mkmsk r2, 1
		nop
	}
.Ltmp34:
.LBB0_7:                                # %afterboundcheck119
                                        # =>This Inner Loop Header: Depth=1
	#DEBUG_VALUE: i <- 1
	{
		nop
		ldw r3, r5[r2]
	}
	.loc	1 147 0                 # C:/Users/user/workspace/lib_dsp/src/dsp_dct.xc:147:0
.Ltmp35:
	{
		shl r3, r3, 1
		nop
	}
	.loc	1 147 0                 # C:/Users/user/workspace/lib_dsp/src/dsp_dct.xc:147:0
	{
		sub r0, r3, r0
		nop
	}
.Ltmp36:
	#DEBUG_VALUE: last <- R0
	#DEBUG_VALUE: i <- R2
	.loc	1 147 0                 # C:/Users/user/workspace/lib_dsp/src/dsp_dct.xc:147:0
	{
		add r2, r2, 1
		stw r0, r1[0]
	}
.Ltmp37:
	.loc	1 147 0                 # C:/Users/user/workspace/lib_dsp/src/dsp_dct.xc:147:0
	{
		add r1, r1, 8
		lss r3, r2, r8
	}
	.loc	1 147 0                 # C:/Users/user/workspace/lib_dsp/src/dsp_dct.xc:147:0
	bt r3, .LBB0_7
.Ltmp38:
# BB#8:                                 # %return
	{
		nop
		ldw r10, sp[40]
	}
	{
		nop
		ldw r8, sp[38]
	}
	{
		nop
		ldw r9, sp[39]
	}
	{
		nop
		ldw r6, sp[36]
	}
	{
		nop
		ldw r7, sp[37]
	}
	{
		nop
		ldw r4, sp[34]
	}
	{
		nop
		ldw r5, sp[35]
	}
	{
		nop
		retsp 42
	}
	# RETURN_REG_HOLDER
	.cc_bottom dsp_dct_forward32.function
	.set	dsp_dct_forward32.nstackwords,(dsp_dct_forward16.nstackwords + 42)
	.globl	dsp_dct_forward32.nstackwords
	.set	dsp_dct_forward32.maxcores,dsp_dct_forward16.maxcores $M 1
	.globl	dsp_dct_forward32.maxcores
	.set	dsp_dct_forward32.maxtimers,dsp_dct_forward16.maxtimers $M 0
	.globl	dsp_dct_forward32.maxtimers
	.set	dsp_dct_forward32.maxchanends,dsp_dct_forward16.maxchanends $M 0
	.globl	dsp_dct_forward32.maxchanends
.Ltmp39:
	.size	dsp_dct_forward32, .Ltmp39-dsp_dct_forward32
.Lfunc_end0:
	.cfi_endproc

	.globl	dsp_dct_forward24
	.align	4
	.type	dsp_dct_forward24,@function
	.cc_top dsp_dct_forward24.function,dsp_dct_forward24
dsp_dct_forward24:                      # @dsp_dct_forward24
.Lfunc_begin1:
	.loc	1 146 0                 # C:/Users/user/workspace/lib_dsp/src/dsp_dct.xc:146:0
	.cfi_startproc
	.issue_mode dual
# BB#0:                                 # %allocas
	{
		nop
		dualentsp 34
	}
.Ltmp40:
	.cfi_def_cfa_offset 136
.Ltmp41:
	.cfi_offset 15, 0
	{
		nop
		stw r4, sp[26]
	}
	{
		nop
		stw r5, sp[27]
	}
.Ltmp42:
	.cfi_offset 4, -32
.Ltmp43:
	.cfi_offset 5, -28
	{
		nop
		stw r6, sp[28]
	}
	{
		nop
		stw r7, sp[29]
	}
.Ltmp44:
	.cfi_offset 6, -24
.Ltmp45:
	.cfi_offset 7, -20
	{
		nop
		stw r8, sp[30]
	}
	{
		nop
		stw r9, sp[31]
	}
.Ltmp46:
	.cfi_offset 8, -16
.Ltmp47:
	.cfi_offset 9, -12
.Ltmp48:
	.cfi_offset 10, -8
	#DEBUG_VALUE: dsp_dct_forward24:output <- R0
	#DEBUG_VALUE: dsp_dct_forward24:input <- R1
.Ltmp49:
	#DEBUG_VALUE: dsp_dct_forward24:input <- R6
	{
		mov r6, r1
		stw r10, sp[32]
	}
.Ltmp50:
	#DEBUG_VALUE: dsp_dct_forward24:output <- R4
	#DEBUG_VALUE: i <- 0
	{
		mov r4, r0
		ldc r0, 0
	}
.Ltmp51:
	{
		ldc r1, 23
		ldaw r2, sp[14]
	}
	{
		ldc r8, 12
		nop
	}
.LBB1_1:                                # %afterboundcheck9
                                        # =>This Inner Loop Header: Depth=1
.Ltmp52:
	#DEBUG_VALUE: dsp_dct_forward24:output <- R4
	#DEBUG_VALUE: dsp_dct_forward24:input <- R6
	#DEBUG_VALUE: i <- 0
	{
		nop
		ldw r3, r6[r0]
	}
	{
		nop
		ldw r11, r6[r1]
	}
	.loc	1 146 0 prologue_end    # C:/Users/user/workspace/lib_dsp/src/dsp_dct.xc:146:0
.Ltmp53:
	{
		add r3, r11, r3
		nop
	}
	.loc	1 146 0                 # C:/Users/user/workspace/lib_dsp/src/dsp_dct.xc:146:0
	stw r3, r2[r0]
.Ltmp54:
	#DEBUG_VALUE: i <- R0
	.loc	1 146 0                 # C:/Users/user/workspace/lib_dsp/src/dsp_dct.xc:146:0
	{
		add r0, r0, 1
		sub r1, r1, 1
	}
.Ltmp55:
	.loc	1 146 0                 # C:/Users/user/workspace/lib_dsp/src/dsp_dct.xc:146:0
	{
		lss r3, r0, r8
		nop
	}
	.loc	1 146 0                 # C:/Users/user/workspace/lib_dsp/src/dsp_dct.xc:146:0
	bt r3, .LBB1_1
.Ltmp56:
# BB#2:                                 # %ifdone
	#DEBUG_VALUE: dsp_dct_forward24:output <- R4
	#DEBUG_VALUE: dsp_dct_forward24:input <- R6
	{
		ldaw r5, sp[2]
		ldaw r7, sp[14]
	}
	.loc	1 146 0                 # C:/Users/user/workspace/lib_dsp/src/dsp_dct.xc:146:0
	{
		mov r0, r5
		mov r1, r7
	}
.Lxta.call_labels1:
	bl dsp_dct_forward12
.Ltmp57:
	#DEBUG_VALUE: i <- 0
	{
		ldc r0, 0
		ldc r1, 23
	}
.Ltmp58:
	#DEBUG_VALUE: dsp_dct_forward24:output <- [SP+4]
	{
		mov r2, r4
		stw r4, sp[1]
	}
	{
		mov r3, r0
		nop
	}
.Ltmp59:
.LBB1_3:                                # %afterboundcheck40
                                        # =>This Inner Loop Header: Depth=1
	#DEBUG_VALUE: dsp_dct_forward24:output <- [SP+4]
	#DEBUG_VALUE: dsp_dct_forward24:input <- R6
	#DEBUG_VALUE: i <- 0
	{
		nop
		ldw r11, r5[r3]
	}
.Ltmp60:
	#DEBUG_VALUE: i <- R3
	.loc	1 146 0                 # C:/Users/user/workspace/lib_dsp/src/dsp_dct.xc:146:0
	{
		add r3, r3, 1
		stw r11, r2[0]
	}
.Ltmp61:
	.loc	1 146 0                 # C:/Users/user/workspace/lib_dsp/src/dsp_dct.xc:146:0
	{
		add r2, r2, 8
		lss r11, r3, r8
	}
	.loc	1 146 0                 # C:/Users/user/workspace/lib_dsp/src/dsp_dct.xc:146:0
	bt r11, .LBB1_3
.Ltmp62:
# BB#4:
	#DEBUG_VALUE: dsp_dct_forward24:output <- [SP+4]
	#DEBUG_VALUE: dsp_dct_forward24:input <- R6
	{
		ldc r4, 0
		mkmsk r3, 5
	}
.Ltmp63:
.LBB1_5:                                # %afterboundcheck80
                                        # =>This Inner Loop Header: Depth=1
.Lxtalabel1:
	#DEBUG_VALUE: dsp_dct_forward24:output <- [SP+4]
	#DEBUG_VALUE: dsp_dct_forward24:input <- R6
	{
		nop
		ldw r11, r6[r0]
	}
	{
		nop
		ldw r9, r6[r1]
	}
	.loc	1 146 0                 # C:/Users/user/workspace/lib_dsp/src/dsp_dct.xc:146:0
	{
		sub r9, r11, r9
		nop
	}
.Ltmp64:
	#DEBUG_VALUE: z <- R9
	#DEBUG_VALUE: mulcos:x <- R9
	ldaw r11, cp[costable24]
	.loc	1 85 0                  # C:/Users/user/workspace/lib_dsp/src/dsp_dct.xc:85:0
.Ltmp65:
	{
		mov r10, r4
		ldw r11, r11[r0]
	}
	.loc	1 85 0                  # C:/Users/user/workspace/lib_dsp/src/dsp_dct.xc:85:0
	{
		mov r2, r4
		nop
	}
	maccs r10, r2, r11, r9
	.loc	1 86 5                  # C:/Users/user/workspace/lib_dsp/src/dsp_dct.xc:86:5
	{
		shr r2, r2, r3
		shl r11, r10, 1
	}
	{
		or r2, r2, r11
		nop
	}
.Ltmp66:
	.loc	1 146 0                 # C:/Users/user/workspace/lib_dsp/src/dsp_dct.xc:146:0
	stw r2, r7[r0]
.Ltmp67:
	#DEBUG_VALUE: i <- R0
	.loc	1 146 0                 # C:/Users/user/workspace/lib_dsp/src/dsp_dct.xc:146:0
	{
		add r0, r0, 1
		sub r1, r1, 1
	}
.Ltmp68:
	.loc	1 146 0                 # C:/Users/user/workspace/lib_dsp/src/dsp_dct.xc:146:0
	{
		lss r2, r0, r8
		nop
	}
	.loc	1 146 0                 # C:/Users/user/workspace/lib_dsp/src/dsp_dct.xc:146:0
	bt r2, .LBB1_5
.Ltmp69:
# BB#6:                                 # %ifdone52
	#DEBUG_VALUE: dsp_dct_forward24:output <- [SP+4]
	{
		ldaw r1, sp[14]
		mov r0, r5
	}
	.loc	1 146 0                 # C:/Users/user/workspace/lib_dsp/src/dsp_dct.xc:146:0
	bl dsp_dct_forward12
	{
		nop
		ldw r0, sp[2]
	}
.Ltmp70:
	#DEBUG_VALUE: last <- R0
	{
		nop
		ldw r1, sp[1]
	}
.Ltmp71:
	#DEBUG_VALUE: dsp_dct_forward24:output <- R1
	{
		nop
		stw r0, r1[1]
	}
.Ltmp72:
	#DEBUG_VALUE: i <- 1
	ldaw r1, r1[3]
.Ltmp73:
	{
		mkmsk r2, 1
		nop
	}
.Ltmp74:
.LBB1_7:                                # %afterboundcheck119
                                        # =>This Inner Loop Header: Depth=1
	#DEBUG_VALUE: i <- 1
	{
		nop
		ldw r3, r5[r2]
	}
	.loc	1 146 0                 # C:/Users/user/workspace/lib_dsp/src/dsp_dct.xc:146:0
.Ltmp75:
	{
		shl r3, r3, 1
		nop
	}
	.loc	1 146 0                 # C:/Users/user/workspace/lib_dsp/src/dsp_dct.xc:146:0
	{
		sub r0, r3, r0
		nop
	}
.Ltmp76:
	#DEBUG_VALUE: last <- R0
	#DEBUG_VALUE: i <- R2
	.loc	1 146 0                 # C:/Users/user/workspace/lib_dsp/src/dsp_dct.xc:146:0
	{
		add r2, r2, 1
		stw r0, r1[0]
	}
.Ltmp77:
	.loc	1 146 0                 # C:/Users/user/workspace/lib_dsp/src/dsp_dct.xc:146:0
	{
		add r1, r1, 8
		lss r3, r2, r8
	}
	.loc	1 146 0                 # C:/Users/user/workspace/lib_dsp/src/dsp_dct.xc:146:0
	bt r3, .LBB1_7
.Ltmp78:
# BB#8:                                 # %return
	{
		nop
		ldw r10, sp[32]
	}
	{
		nop
		ldw r8, sp[30]
	}
	{
		nop
		ldw r9, sp[31]
	}
	{
		nop
		ldw r6, sp[28]
	}
	{
		nop
		ldw r7, sp[29]
	}
	{
		nop
		ldw r4, sp[26]
	}
	{
		nop
		ldw r5, sp[27]
	}
	{
		nop
		retsp 34
	}
	# RETURN_REG_HOLDER
	.cc_bottom dsp_dct_forward24.function
	.set	dsp_dct_forward24.nstackwords,(dsp_dct_forward12.nstackwords + 34)
	.globl	dsp_dct_forward24.nstackwords
	.set	dsp_dct_forward24.maxcores,dsp_dct_forward12.maxcores $M 1
	.globl	dsp_dct_forward24.maxcores
	.set	dsp_dct_forward24.maxtimers,dsp_dct_forward12.maxtimers $M 0
	.globl	dsp_dct_forward24.maxtimers
	.set	dsp_dct_forward24.maxchanends,dsp_dct_forward12.maxchanends $M 0
	.globl	dsp_dct_forward24.maxchanends
.Ltmp79:
	.size	dsp_dct_forward24, .Ltmp79-dsp_dct_forward24
.Lfunc_end1:
	.cfi_endproc

	.globl	dsp_dct_forward16
	.align	4
	.type	dsp_dct_forward16,@function
	.cc_top dsp_dct_forward16.function,dsp_dct_forward16
dsp_dct_forward16:                      # @dsp_dct_forward16
.Lfunc_begin2:
	.loc	1 145 0                 # C:/Users/user/workspace/lib_dsp/src/dsp_dct.xc:145:0
	.cfi_startproc
	.issue_mode dual
# BB#0:                                 # %allocas
	{
		nop
		dualentsp 26
	}
.Ltmp80:
	.cfi_def_cfa_offset 104
.Ltmp81:
	.cfi_offset 15, 0
	std r5, r4, sp[9]               # 4-byte Folded Spill
.Ltmp82:
	.cfi_offset 4, -32
.Ltmp83:
	.cfi_offset 5, -28
	std r7, r6, sp[10]              # 4-byte Folded Spill
.Ltmp84:
	.cfi_offset 6, -24
.Ltmp85:
	.cfi_offset 7, -20
	std r9, r8, sp[11]              # 4-byte Folded Spill
.Ltmp86:
	.cfi_offset 8, -16
.Ltmp87:
	.cfi_offset 9, -12
.Ltmp88:
	.cfi_offset 10, -8
	#DEBUG_VALUE: dsp_dct_forward16:output <- R0
	#DEBUG_VALUE: dsp_dct_forward16:input <- R1
.Ltmp89:
	#DEBUG_VALUE: dsp_dct_forward16:input <- R6
	{
		mov r6, r1
		stw r10, sp[24]
	}
.Ltmp90:
	#DEBUG_VALUE: dsp_dct_forward16:output <- R4
	#DEBUG_VALUE: i <- 0
	{
		mov r4, r0
		ldc r0, 0
	}
.Ltmp91:
	{
		mkmsk r1, 4
		ldaw r2, sp[10]
	}
	{
		ldc r8, 8
		nop
	}
.LBB2_1:                                # %afterboundcheck9
                                        # =>This Inner Loop Header: Depth=1
.Ltmp92:
	#DEBUG_VALUE: dsp_dct_forward16:output <- R4
	#DEBUG_VALUE: dsp_dct_forward16:input <- R6
	#DEBUG_VALUE: i <- 0
	{
		nop
		ldw r3, r6[r0]
	}
	{
		nop
		ldw r11, r6[r1]
	}
	.loc	1 145 0 prologue_end    # C:/Users/user/workspace/lib_dsp/src/dsp_dct.xc:145:0
.Ltmp93:
	{
		add r3, r11, r3
		nop
	}
	.loc	1 145 0                 # C:/Users/user/workspace/lib_dsp/src/dsp_dct.xc:145:0
	stw r3, r2[r0]
.Ltmp94:
	#DEBUG_VALUE: i <- R0
	.loc	1 145 0                 # C:/Users/user/workspace/lib_dsp/src/dsp_dct.xc:145:0
	{
		add r0, r0, 1
		sub r1, r1, 1
	}
.Ltmp95:
	.loc	1 145 0                 # C:/Users/user/workspace/lib_dsp/src/dsp_dct.xc:145:0
	{
		lss r3, r0, r8
		nop
	}
	.loc	1 145 0                 # C:/Users/user/workspace/lib_dsp/src/dsp_dct.xc:145:0
	bt r3, .LBB2_1
.Ltmp96:
# BB#2:                                 # %ifdone
	#DEBUG_VALUE: dsp_dct_forward16:output <- R4
	#DEBUG_VALUE: dsp_dct_forward16:input <- R6
	{
		ldaw r5, sp[2]
		ldaw r7, sp[10]
	}
	.loc	1 145 0                 # C:/Users/user/workspace/lib_dsp/src/dsp_dct.xc:145:0
	{
		mov r0, r5
		mov r1, r7
	}
.Lxta.call_labels2:
	bl dsp_dct_forward8
.Ltmp97:
	#DEBUG_VALUE: i <- 0
	{
		ldc r0, 0
		mkmsk r1, 4
	}
.Ltmp98:
	#DEBUG_VALUE: dsp_dct_forward16:output <- [SP+4]
	{
		mov r2, r4
		stw r4, sp[1]
	}
	{
		mov r3, r0
		nop
	}
.Ltmp99:
.LBB2_3:                                # %afterboundcheck40
                                        # =>This Inner Loop Header: Depth=1
	#DEBUG_VALUE: dsp_dct_forward16:output <- [SP+4]
	#DEBUG_VALUE: dsp_dct_forward16:input <- R6
	#DEBUG_VALUE: i <- 0
	{
		nop
		ldw r11, r5[r3]
	}
.Ltmp100:
	#DEBUG_VALUE: i <- R3
	.loc	1 145 0                 # C:/Users/user/workspace/lib_dsp/src/dsp_dct.xc:145:0
	{
		add r3, r3, 1
		stw r11, r2[0]
	}
.Ltmp101:
	.loc	1 145 0                 # C:/Users/user/workspace/lib_dsp/src/dsp_dct.xc:145:0
	{
		add r2, r2, 8
		lss r11, r3, r8
	}
	.loc	1 145 0                 # C:/Users/user/workspace/lib_dsp/src/dsp_dct.xc:145:0
	bt r11, .LBB2_3
.Ltmp102:
# BB#4:
	#DEBUG_VALUE: dsp_dct_forward16:output <- [SP+4]
	#DEBUG_VALUE: dsp_dct_forward16:input <- R6
	{
		ldc r4, 0
		mkmsk r3, 5
	}
.Ltmp103:
.LBB2_5:                                # %afterboundcheck80
                                        # =>This Inner Loop Header: Depth=1
.Lxtalabel2:
	#DEBUG_VALUE: dsp_dct_forward16:output <- [SP+4]
	#DEBUG_VALUE: dsp_dct_forward16:input <- R6
	{
		nop
		ldw r11, r6[r0]
	}
	{
		nop
		ldw r9, r6[r1]
	}
	.loc	1 145 0                 # C:/Users/user/workspace/lib_dsp/src/dsp_dct.xc:145:0
	{
		sub r9, r11, r9
		nop
	}
.Ltmp104:
	#DEBUG_VALUE: z <- R9
	#DEBUG_VALUE: mulcos:x <- R9
	ldaw r11, cp[costable16]
	.loc	1 85 0                  # C:/Users/user/workspace/lib_dsp/src/dsp_dct.xc:85:0
.Ltmp105:
	{
		mov r10, r4
		ldw r11, r11[r0]
	}
	.loc	1 85 0                  # C:/Users/user/workspace/lib_dsp/src/dsp_dct.xc:85:0
	{
		mov r2, r4
		nop
	}
	maccs r10, r2, r11, r9
	.loc	1 86 5                  # C:/Users/user/workspace/lib_dsp/src/dsp_dct.xc:86:5
	{
		shr r2, r2, r3
		shl r11, r10, 1
	}
	{
		or r2, r2, r11
		nop
	}
.Ltmp106:
	.loc	1 145 0                 # C:/Users/user/workspace/lib_dsp/src/dsp_dct.xc:145:0
	stw r2, r7[r0]
.Ltmp107:
	#DEBUG_VALUE: i <- R0
	.loc	1 145 0                 # C:/Users/user/workspace/lib_dsp/src/dsp_dct.xc:145:0
	{
		add r0, r0, 1
		sub r1, r1, 1
	}
.Ltmp108:
	.loc	1 145 0                 # C:/Users/user/workspace/lib_dsp/src/dsp_dct.xc:145:0
	{
		lss r2, r0, r8
		nop
	}
	.loc	1 145 0                 # C:/Users/user/workspace/lib_dsp/src/dsp_dct.xc:145:0
	bt r2, .LBB2_5
.Ltmp109:
# BB#6:                                 # %ifdone52
	#DEBUG_VALUE: dsp_dct_forward16:output <- [SP+4]
	{
		ldaw r1, sp[10]
		mov r0, r5
	}
	.loc	1 145 0                 # C:/Users/user/workspace/lib_dsp/src/dsp_dct.xc:145:0
	bl dsp_dct_forward8
	{
		nop
		ldw r0, sp[2]
	}
.Ltmp110:
	#DEBUG_VALUE: last <- R0
	{
		nop
		ldw r1, sp[1]
	}
.Ltmp111:
	#DEBUG_VALUE: dsp_dct_forward16:output <- R1
	{
		nop
		stw r0, r1[1]
	}
.Ltmp112:
	#DEBUG_VALUE: i <- 1
	ldaw r1, r1[3]
.Ltmp113:
	{
		mkmsk r2, 1
		nop
	}
.Ltmp114:
.LBB2_7:                                # %afterboundcheck119
                                        # =>This Inner Loop Header: Depth=1
	#DEBUG_VALUE: i <- 1
	{
		nop
		ldw r3, r5[r2]
	}
	.loc	1 145 0                 # C:/Users/user/workspace/lib_dsp/src/dsp_dct.xc:145:0
.Ltmp115:
	{
		shl r3, r3, 1
		nop
	}
	.loc	1 145 0                 # C:/Users/user/workspace/lib_dsp/src/dsp_dct.xc:145:0
	{
		sub r0, r3, r0
		nop
	}
.Ltmp116:
	#DEBUG_VALUE: last <- R0
	#DEBUG_VALUE: i <- R2
	.loc	1 145 0                 # C:/Users/user/workspace/lib_dsp/src/dsp_dct.xc:145:0
	{
		add r2, r2, 1
		stw r0, r1[0]
	}
.Ltmp117:
	.loc	1 145 0                 # C:/Users/user/workspace/lib_dsp/src/dsp_dct.xc:145:0
	{
		add r1, r1, 8
		lss r3, r2, r8
	}
	.loc	1 145 0                 # C:/Users/user/workspace/lib_dsp/src/dsp_dct.xc:145:0
	bt r3, .LBB2_7
.Ltmp118:
# BB#8:                                 # %return
	{
		nop
		ldw r10, sp[24]
	}
	ldd r9, r8, sp[11]              # 4-byte Folded Reload
	ldd r7, r6, sp[10]              # 4-byte Folded Reload
	ldd r5, r4, sp[9]               # 4-byte Folded Reload
	{
		nop
		retsp 26
	}
	# RETURN_REG_HOLDER
	.cc_bottom dsp_dct_forward16.function
	.set	dsp_dct_forward16.nstackwords,(dsp_dct_forward8.nstackwords + 26)
	.globl	dsp_dct_forward16.nstackwords
	.set	dsp_dct_forward16.maxcores,dsp_dct_forward8.maxcores $M 1
	.globl	dsp_dct_forward16.maxcores
	.set	dsp_dct_forward16.maxtimers,dsp_dct_forward8.maxtimers $M 0
	.globl	dsp_dct_forward16.maxtimers
	.set	dsp_dct_forward16.maxchanends,dsp_dct_forward8.maxchanends $M 0
	.globl	dsp_dct_forward16.maxchanends
.Ltmp119:
	.size	dsp_dct_forward16, .Ltmp119-dsp_dct_forward16
.Lfunc_end2:
	.cfi_endproc

	.globl	dsp_dct_forward12
	.align	4
	.type	dsp_dct_forward12,@function
	.cc_top dsp_dct_forward12.function,dsp_dct_forward12
dsp_dct_forward12:                      # @dsp_dct_forward12
.Lfunc_begin3:
	.loc	1 144 0                 # C:/Users/user/workspace/lib_dsp/src/dsp_dct.xc:144:0
	.cfi_startproc
	.issue_mode dual
# BB#0:                                 # %allocas
	{
		nop
		dualentsp 22
	}
.Ltmp120:
	.cfi_def_cfa_offset 88
.Ltmp121:
	.cfi_offset 15, 0
	std r5, r4, sp[7]               # 4-byte Folded Spill
.Ltmp122:
	.cfi_offset 4, -32
.Ltmp123:
	.cfi_offset 5, -28
	std r7, r6, sp[8]               # 4-byte Folded Spill
.Ltmp124:
	.cfi_offset 6, -24
.Ltmp125:
	.cfi_offset 7, -20
	std r9, r8, sp[9]               # 4-byte Folded Spill
.Ltmp126:
	.cfi_offset 8, -16
.Ltmp127:
	.cfi_offset 9, -12
.Ltmp128:
	.cfi_offset 10, -8
	#DEBUG_VALUE: dsp_dct_forward12:output <- R0
	#DEBUG_VALUE: dsp_dct_forward12:input <- R1
.Ltmp129:
	#DEBUG_VALUE: dsp_dct_forward12:input <- R5
	{
		mov r5, r1
		stw r10, sp[20]
	}
.Ltmp130:
	#DEBUG_VALUE: dsp_dct_forward12:output <- R4
	#DEBUG_VALUE: i <- 0
	{
		mov r4, r0
		ldc r0, 0
	}
.Ltmp131:
	{
		ldc r1, 11
		ldaw r6, sp[8]
	}
	{
		ldc r7, 6
		nop
	}
.LBB3_1:                                # %afterboundcheck9
                                        # =>This Inner Loop Header: Depth=1
.Ltmp132:
	#DEBUG_VALUE: dsp_dct_forward12:output <- R4
	#DEBUG_VALUE: dsp_dct_forward12:input <- R5
	#DEBUG_VALUE: i <- 0
	{
		nop
		ldw r2, r5[r0]
	}
	{
		nop
		ldw r3, r5[r1]
	}
	.loc	1 144 0 prologue_end    # C:/Users/user/workspace/lib_dsp/src/dsp_dct.xc:144:0
.Ltmp133:
	{
		add r2, r3, r2
		nop
	}
	.loc	1 144 0                 # C:/Users/user/workspace/lib_dsp/src/dsp_dct.xc:144:0
	stw r2, r6[r0]
.Ltmp134:
	#DEBUG_VALUE: i <- R0
	.loc	1 144 0                 # C:/Users/user/workspace/lib_dsp/src/dsp_dct.xc:144:0
	{
		add r0, r0, 1
		sub r1, r1, 1
	}
.Ltmp135:
	.loc	1 144 0                 # C:/Users/user/workspace/lib_dsp/src/dsp_dct.xc:144:0
	{
		lss r2, r0, r7
		nop
	}
	.loc	1 144 0                 # C:/Users/user/workspace/lib_dsp/src/dsp_dct.xc:144:0
	bt r2, .LBB3_1
.Ltmp136:
# BB#2:                                 # %afterboundcheck40
	#DEBUG_VALUE: dsp_dct_forward12:output <- R4
	#DEBUG_VALUE: dsp_dct_forward12:input <- R5
	{
		ldaw r0, sp[2]
		mov r1, r6
	}
	.loc	1 144 0                 # C:/Users/user/workspace/lib_dsp/src/dsp_dct.xc:144:0
.Lxta.call_labels3:
	bl dsp_dct_forward6
.Ltmp137:
	#DEBUG_VALUE: i <- 0
	{
		nop
		ldw r0, sp[2]
	}
	{
		nop
		stw r0, r4[0]
	}
.Ltmp138:
	#DEBUG_VALUE: i <- 1
	{
		nop
		ldw r0, sp[3]
	}
	{
		nop
		stw r0, r4[2]
	}
	{
		nop
		ldw r0, sp[4]
	}
	{
		nop
		stw r0, r4[4]
	}
	{
		nop
		ldw r0, sp[5]
	}
	{
		nop
		stw r0, r4[6]
	}
	{
		nop
		ldw r0, sp[6]
	}
	{
		nop
		stw r0, r4[8]
	}
	{
		nop
		ldw r0, sp[7]
	}
	.loc	1 144 0                 # C:/Users/user/workspace/lib_dsp/src/dsp_dct.xc:144:0
.Ltmp139:
	{
		ldc r0, 0
		stw r0, r4[10]
	}
	{
		ldc r1, 11
		mkmsk r2, 5
	}
	{
		mov r3, r0
		nop
	}
.Ltmp140:
.LBB3_3:                                # %afterboundcheck80
                                        # =>This Inner Loop Header: Depth=1
.Lxtalabel3:
	#DEBUG_VALUE: dsp_dct_forward12:output <- R4
	#DEBUG_VALUE: dsp_dct_forward12:input <- R5
	{
		nop
		ldw r11, r5[r3]
	}
	{
		nop
		ldw r8, r5[r1]
	}
	.loc	1 144 0                 # C:/Users/user/workspace/lib_dsp/src/dsp_dct.xc:144:0
	{
		sub r8, r11, r8
		nop
	}
.Ltmp141:
	#DEBUG_VALUE: z <- R8
	#DEBUG_VALUE: mulcos:x <- R8
	ldaw r11, cp[costable12]
	.loc	1 85 0                  # C:/Users/user/workspace/lib_dsp/src/dsp_dct.xc:85:0
.Ltmp142:
	{
		mov r9, r0
		ldw r11, r11[r3]
	}
	.loc	1 85 0                  # C:/Users/user/workspace/lib_dsp/src/dsp_dct.xc:85:0
	{
		mov r10, r0
		nop
	}
	maccs r9, r10, r11, r8
	.loc	1 86 5                  # C:/Users/user/workspace/lib_dsp/src/dsp_dct.xc:86:5
	{
		shr r11, r10, r2
		shl r8, r9, 1
	}
.Ltmp143:
	{
		or r11, r11, r8
		nop
	}
.Ltmp144:
	.loc	1 144 0                 # C:/Users/user/workspace/lib_dsp/src/dsp_dct.xc:144:0
	stw r11, r6[r3]
.Ltmp145:
	#DEBUG_VALUE: i <- R3
	.loc	1 144 0                 # C:/Users/user/workspace/lib_dsp/src/dsp_dct.xc:144:0
	{
		add r3, r3, 1
		sub r1, r1, 1
	}
.Ltmp146:
	.loc	1 144 0                 # C:/Users/user/workspace/lib_dsp/src/dsp_dct.xc:144:0
	{
		lss r11, r3, r7
		nop
	}
	.loc	1 144 0                 # C:/Users/user/workspace/lib_dsp/src/dsp_dct.xc:144:0
	bt r11, .LBB3_3
.Ltmp147:
# BB#4:                                 # %afterboundcheck119
	#DEBUG_VALUE: dsp_dct_forward12:output <- R4
	{
		ldaw r0, sp[2]
		ldaw r1, sp[8]
	}
	.loc	1 144 0                 # C:/Users/user/workspace/lib_dsp/src/dsp_dct.xc:144:0
	bl dsp_dct_forward6
	{
		nop
		ldw r0, sp[2]
	}
.Ltmp148:
	#DEBUG_VALUE: last <- R0
	{
		nop
		stw r0, r4[1]
	}
.Ltmp149:
	#DEBUG_VALUE: i <- 1
	{
		nop
		ldw r1, sp[3]
	}
	.loc	1 144 0                 # C:/Users/user/workspace/lib_dsp/src/dsp_dct.xc:144:0
.Ltmp150:
	{
		shl r1, r1, 1
		nop
	}
	.loc	1 144 0                 # C:/Users/user/workspace/lib_dsp/src/dsp_dct.xc:144:0
	{
		sub r0, r1, r0
		nop
	}
.Ltmp151:
	{
		nop
		stw r0, r4[3]
	}
.Ltmp152:
	#DEBUG_VALUE: i <- 2
	{
		nop
		ldw r1, sp[4]
	}
	.loc	1 144 0                 # C:/Users/user/workspace/lib_dsp/src/dsp_dct.xc:144:0
	{
		shl r1, r1, 1
		nop
	}
	.loc	1 144 0                 # C:/Users/user/workspace/lib_dsp/src/dsp_dct.xc:144:0
	{
		sub r0, r1, r0
		nop
	}
	{
		nop
		stw r0, r4[5]
	}
	{
		nop
		ldw r1, sp[5]
	}
	.loc	1 144 0                 # C:/Users/user/workspace/lib_dsp/src/dsp_dct.xc:144:0
	{
		shl r1, r1, 1
		nop
	}
	.loc	1 144 0                 # C:/Users/user/workspace/lib_dsp/src/dsp_dct.xc:144:0
	{
		sub r0, r1, r0
		nop
	}
	{
		nop
		stw r0, r4[7]
	}
	{
		nop
		ldw r1, sp[6]
	}
	.loc	1 144 0                 # C:/Users/user/workspace/lib_dsp/src/dsp_dct.xc:144:0
	{
		shl r1, r1, 1
		nop
	}
	.loc	1 144 0                 # C:/Users/user/workspace/lib_dsp/src/dsp_dct.xc:144:0
	{
		sub r0, r1, r0
		nop
	}
	{
		nop
		stw r0, r4[9]
	}
	{
		nop
		ldw r1, sp[7]
	}
	.loc	1 144 0                 # C:/Users/user/workspace/lib_dsp/src/dsp_dct.xc:144:0
	{
		shl r1, r1, 1
		nop
	}
	.loc	1 144 0                 # C:/Users/user/workspace/lib_dsp/src/dsp_dct.xc:144:0
	{
		sub r0, r1, r0
		nop
	}
	{
		nop
		stw r0, r4[11]
	}
	{
		nop
		ldw r10, sp[20]
	}
	ldd r9, r8, sp[9]               # 4-byte Folded Reload
	ldd r7, r6, sp[8]               # 4-byte Folded Reload
	ldd r5, r4, sp[7]               # 4-byte Folded Reload
.Ltmp153:
	{
		nop
		retsp 22
	}
	# RETURN_REG_HOLDER
.Ltmp154:
	.cc_bottom dsp_dct_forward12.function
	.set	dsp_dct_forward12.nstackwords,(dsp_dct_forward6.nstackwords + 22)
	.globl	dsp_dct_forward12.nstackwords
	.set	dsp_dct_forward12.maxcores,dsp_dct_forward6.maxcores $M 1
	.globl	dsp_dct_forward12.maxcores
	.set	dsp_dct_forward12.maxtimers,dsp_dct_forward6.maxtimers $M 0
	.globl	dsp_dct_forward12.maxtimers
	.set	dsp_dct_forward12.maxchanends,dsp_dct_forward6.maxchanends $M 0
	.globl	dsp_dct_forward12.maxchanends
.Ltmp155:
	.size	dsp_dct_forward12, .Ltmp155-dsp_dct_forward12
.Lfunc_end3:
	.cfi_endproc

	.section	.cp.rodata.cst4,"aMc",@progbits,4
	.cc_top .LCPI4_0.data,.LCPI4_0
	.align	4
	.type	.LCPI4_0,@object
	.size	.LCPI4_0, 4
.LCPI4_0:
	.long	1518500250              # 0x5a82799a
	.cc_bottom .LCPI4_0.data
	.cc_top .LCPI4_1.data,.LCPI4_1
	.align	4
	.type	.LCPI4_1,@object
	.size	.LCPI4_1, 4
.LCPI4_1:
	.long	1984016189              # 0x7641af3d
	.cc_bottom .LCPI4_1.data
	.cc_top .LCPI4_2.data,.LCPI4_2
	.align	4
	.type	.LCPI4_2,@object
	.size	.LCPI4_2, 4
.LCPI4_2:
	.long	821806413               # 0x30fbc54d
	.cc_bottom .LCPI4_2.data
	.cc_top .LCPI4_3.data,.LCPI4_3
	.align	4
	.type	.LCPI4_3,@object
	.size	.LCPI4_3, 4
.LCPI4_3:
	.long	2310951107              # 0x89be50c3
	.cc_bottom .LCPI4_3.data
	.text
	.globl	dsp_dct_forward8
	.align	4
	.type	dsp_dct_forward8,@function
	.cc_top dsp_dct_forward8.function,dsp_dct_forward8
dsp_dct_forward8:                       # @dsp_dct_forward8
.Lfunc_begin4:
	.loc	1 143 0                 # C:/Users/user/workspace/lib_dsp/src/dsp_dct.xc:143:0
	.cfi_startproc
	.issue_mode dual
# BB#0:                                 # %afterboundcheck40
.Lxtalabel4:
	{
		nop
		dualentsp 18
	}
.Ltmp156:
	.cfi_def_cfa_offset 72
.Ltmp157:
	.cfi_offset 15, 0
	std r5, r4, sp[5]               # 4-byte Folded Spill
.Ltmp158:
	.cfi_offset 4, -32
.Ltmp159:
	.cfi_offset 5, -28
	std r7, r6, sp[6]               # 4-byte Folded Spill
.Ltmp160:
	.cfi_offset 6, -24
.Ltmp161:
	.cfi_offset 7, -20
	std r9, r8, sp[7]               # 4-byte Folded Spill
.Ltmp162:
	.cfi_offset 8, -16
.Ltmp163:
	.cfi_offset 9, -12
	{
		nop
		stw r10, sp[16]
	}
.Ltmp164:
	.cfi_offset 10, -8
	#DEBUG_VALUE: dsp_dct_forward8:output <- R0
	#DEBUG_VALUE: dsp_dct_forward8:input <- R1
.Ltmp165:
	#DEBUG_VALUE: i <- 0
	{
		nop
		stw r0, sp[1]
	}
	{
		nop
		ldw r2, r1[0]
	}
	{
		nop
		ldw r3, r1[7]
	}
	.loc	1 143 0 prologue_end    # C:/Users/user/workspace/lib_dsp/src/dsp_dct.xc:143:0
.Ltmp166:
	{
		add r2, r3, r2
		nop
	}
	{
		nop
		stw r2, sp[6]
	}
.Ltmp167:
	#DEBUG_VALUE: i <- 1
	{
		nop
		ldw r2, r1[1]
	}
	{
		nop
		ldw r3, r1[6]
	}
	.loc	1 143 0                 # C:/Users/user/workspace/lib_dsp/src/dsp_dct.xc:143:0
	{
		add r2, r3, r2
		nop
	}
	{
		nop
		stw r2, sp[7]
	}
	{
		nop
		ldw r2, r1[2]
	}
	{
		nop
		ldw r3, r1[5]
	}
	.loc	1 143 0                 # C:/Users/user/workspace/lib_dsp/src/dsp_dct.xc:143:0
	{
		add r2, r3, r2
		nop
	}
	{
		nop
		stw r2, sp[8]
	}
	{
		nop
		ldw r2, r1[3]
	}
	{
		nop
		ldw r3, r1[4]
	}
	.loc	1 143 0                 # C:/Users/user/workspace/lib_dsp/src/dsp_dct.xc:143:0
	{
		add r2, r3, r2
		nop
	}
	{
		nop
		stw r2, sp[9]
	}
	{
		nop
		ldw r3, sp[6]
	}
.Ltmp168:
	#DEBUG_VALUE: i03 <- R4
	.loc	1 113 0                 # C:/Users/user/workspace/lib_dsp/src/dsp_dct.xc:113:0
	{
		add r4, r2, r3
		ldw r11, sp[7]
	}
.Ltmp169:
	{
		nop
		ldw r5, sp[8]
	}
.Ltmp170:
	#DEBUG_VALUE: i12 <- R7
	#DEBUG_VALUE: i03_ <- R10
	#DEBUG_VALUE: mulcos:x <- R10
	#DEBUG_VALUE: mulcos:x <- R10
	.loc	1 114 0                 # C:/Users/user/workspace/lib_dsp/src/dsp_dct.xc:114:0
	{
		add r7, r5, r11
		sub r10, r3, r2
	}
.Ltmp171:
	#DEBUG_VALUE: i12_ <- R11
	#DEBUG_VALUE: mulcos:x <- R11
	#DEBUG_VALUE: mulcos:x <- R11
	.loc	1 116 0                 # C:/Users/user/workspace/lib_dsp/src/dsp_dct.xc:116:0
	{
		sub r11, r11, r5
		add r2, r7, r4
	}
.Ltmp172:
	#DEBUG_VALUE: mulcos:x <- R4
	.loc	1 117 0                 # C:/Users/user/workspace/lib_dsp/src/dsp_dct.xc:117:0
	{
		sub r4, r4, r7
		stw r2, sp[2]
	}
.Ltmp173:
	ldw r6, cp[.LCPI4_0]
	{
		ldc r2, 0
		nop
	}
.Ltmp174:
	#DEBUG_VALUE: mulcos:cos <- 1518500250
	.loc	1 85 0                  # C:/Users/user/workspace/lib_dsp/src/dsp_dct.xc:85:0
	{
		mov r3, r2
		mov r5, r2
	}
	maccs r3, r5, r4, r6
	{
		mkmsk r6, 5
		nop
	}
	.loc	1 86 5                  # C:/Users/user/workspace/lib_dsp/src/dsp_dct.xc:86:5
	{
		shr r5, r5, r6
		shl r3, r3, 1
	}
	{
		or r3, r5, r3
		nop
	}
	{
		nop
		stw r3, sp[4]
	}
	ldw r4, cp[.LCPI4_1]
.Ltmp175:
	#DEBUG_VALUE: mulcos:cos <- 1984016189
	.loc	1 85 0                  # C:/Users/user/workspace/lib_dsp/src/dsp_dct.xc:85:0
	{
		mov r3, r2
		mov r7, r2
	}
	maccs r3, r7, r10, r4
	.loc	1 86 5                  # C:/Users/user/workspace/lib_dsp/src/dsp_dct.xc:86:5
	{
		shr r7, r7, r6
		shl r3, r3, 1
	}
	{
		or r7, r7, r3
		nop
	}
	ldw r3, cp[.LCPI4_2]
.Ltmp176:
	#DEBUG_VALUE: mulcos:cos <- 821806413
	.loc	1 85 0                  # C:/Users/user/workspace/lib_dsp/src/dsp_dct.xc:85:0
	{
		mov r8, r2
		mov r9, r2
	}
	maccs r8, r9, r11, r3
	.loc	1 86 5                  # C:/Users/user/workspace/lib_dsp/src/dsp_dct.xc:86:5
	{
		shr r9, r9, r6
		shl r8, r8, 1
	}
	{
		or r8, r9, r8
		nop
	}
.Ltmp177:
	.loc	1 119 0                 # C:/Users/user/workspace/lib_dsp/src/dsp_dct.xc:119:0
	{
		add r7, r8, r7
		nop
	}
.Ltmp178:
	#DEBUG_VALUE: mulcos:cos <- 821806413
	.loc	1 119 0                 # C:/Users/user/workspace/lib_dsp/src/dsp_dct.xc:119:0
	{
		mov r7, r2
		stw r7, sp[3]
	}
	.loc	1 85 0                  # C:/Users/user/workspace/lib_dsp/src/dsp_dct.xc:85:0
.Ltmp179:
	{
		mov r8, r2
		nop
	}
	maccs r7, r8, r10, r3
	.loc	1 86 5                  # C:/Users/user/workspace/lib_dsp/src/dsp_dct.xc:86:5
	{
		shr r4, r8, r6
		shl r7, r7, 1
	}
	{
		or r7, r4, r7
		nop
	}
	ldw r4, cp[.LCPI4_3]
.Ltmp180:
	#DEBUG_VALUE: mulcos:cos <- -1984016189
	.loc	1 85 0                  # C:/Users/user/workspace/lib_dsp/src/dsp_dct.xc:85:0
	{
		mov r8, r2
		mov r9, r2
	}
	maccs r8, r9, r11, r4
	.loc	1 86 5                  # C:/Users/user/workspace/lib_dsp/src/dsp_dct.xc:86:5
	{
		shr r11, r9, r6
		shl r8, r8, 1
	}
	{
		or r11, r11, r8
		nop
	}
.Ltmp181:
	.loc	1 121 0                 # C:/Users/user/workspace/lib_dsp/src/dsp_dct.xc:121:0
	{
		add r11, r11, r7
		nop
	}
	{
		nop
		stw r11, sp[5]
	}
.Ltmp182:
	#DEBUG_VALUE: i <- 0
	{
		nop
		ldw r11, sp[2]
	}
	{
		nop
		stw r11, r0[0]
	}
.Ltmp183:
	#DEBUG_VALUE: i <- 1
	{
		nop
		ldw r11, sp[3]
	}
	{
		nop
		stw r11, r0[2]
	}
	{
		nop
		ldw r11, sp[4]
	}
	{
		nop
		stw r11, r0[4]
	}
	{
		nop
		ldw r11, sp[5]
	}
.Ltmp184:
	#DEBUG_VALUE: dsp_dct_forward8:output <- [SP+4]
	.loc	1 143 0                 # C:/Users/user/workspace/lib_dsp/src/dsp_dct.xc:143:0
	{
		mov r0, r6
		stw r11, r0[6]
	}
	{
		mkmsk r8, 3
		ldaw r9, sp[6]
	}
	{
		ldc r10, 4
		mov r7, r2
	}
.Ltmp185:
.LBB4_1:                                # %afterboundcheck80
                                        # =>This Inner Loop Header: Depth=1
.Lxtalabel5:
	#DEBUG_VALUE: dsp_dct_forward8:output <- [SP+4]
	#DEBUG_VALUE: dsp_dct_forward8:input <- R1
	{
		nop
		ldw r11, r1[r7]
	}
	{
		nop
		ldw r5, r1[r8]
	}
	.loc	1 143 0                 # C:/Users/user/workspace/lib_dsp/src/dsp_dct.xc:143:0
	{
		sub r5, r11, r5
		nop
	}
.Ltmp186:
	#DEBUG_VALUE: z <- R5
	#DEBUG_VALUE: mulcos:x <- R5
	ldaw r11, cp[costable8]
	.loc	1 85 0                  # C:/Users/user/workspace/lib_dsp/src/dsp_dct.xc:85:0
.Ltmp187:
	{
		mov r4, r2
		ldw r11, r11[r7]
	}
	.loc	1 85 0                  # C:/Users/user/workspace/lib_dsp/src/dsp_dct.xc:85:0
	{
		mov r6, r2
		nop
	}
	maccs r4, r6, r11, r5
	.loc	1 86 5                  # C:/Users/user/workspace/lib_dsp/src/dsp_dct.xc:86:5
	{
		shr r11, r6, r0
		shl r4, r4, 1
	}
	{
		or r11, r11, r4
		nop
	}
.Ltmp188:
	.loc	1 143 0                 # C:/Users/user/workspace/lib_dsp/src/dsp_dct.xc:143:0
	stw r11, r9[r7]
.Ltmp189:
	#DEBUG_VALUE: i <- R7
	.loc	1 143 0                 # C:/Users/user/workspace/lib_dsp/src/dsp_dct.xc:143:0
	{
		add r7, r7, 1
		sub r8, r8, 1
	}
.Ltmp190:
	.loc	1 143 0                 # C:/Users/user/workspace/lib_dsp/src/dsp_dct.xc:143:0
	{
		lss r11, r7, r10
		nop
	}
	.loc	1 143 0                 # C:/Users/user/workspace/lib_dsp/src/dsp_dct.xc:143:0
	bt r11, .LBB4_1
.Ltmp191:
# BB#2:                                 # %afterboundcheck119
.Lxtalabel6:
	#DEBUG_VALUE: dsp_dct_forward8:output <- [SP+4]
	{
		nop
		ldw r1, sp[6]
	}
	{
		nop
		ldw r2, sp[9]
	}
.Ltmp192:
	#DEBUG_VALUE: i03 <- R4
	.loc	1 113 0                 # C:/Users/user/workspace/lib_dsp/src/dsp_dct.xc:113:0
	{
		add r4, r2, r1
		ldw r11, sp[7]
	}
.Ltmp193:
	{
		nop
		ldw r5, sp[8]
	}
.Ltmp194:
	#DEBUG_VALUE: i12 <- R6
	#DEBUG_VALUE: i03_ <- R8
	#DEBUG_VALUE: mulcos:x <- R8
	#DEBUG_VALUE: mulcos:x <- R8
	.loc	1 114 0                 # C:/Users/user/workspace/lib_dsp/src/dsp_dct.xc:114:0
	{
		add r6, r5, r11
		sub r8, r1, r2
	}
.Ltmp195:
	#DEBUG_VALUE: i12_ <- R11
	#DEBUG_VALUE: mulcos:x <- R11
	#DEBUG_VALUE: mulcos:x <- R11
	#DEBUG_VALUE: last <- R1
	.loc	1 116 0                 # C:/Users/user/workspace/lib_dsp/src/dsp_dct.xc:116:0
	{
		sub r11, r11, r5
		add r1, r6, r4
	}
.Ltmp196:
	#DEBUG_VALUE: mulcos:x <- R2
	.loc	1 117 0                 # C:/Users/user/workspace/lib_dsp/src/dsp_dct.xc:117:0
	{
		sub r2, r4, r6
		stw r1, sp[2]
	}
.Ltmp197:
	{
		ldc r7, 0
		nop
	}
	#DEBUG_VALUE: mulcos:cos <- 1518500250
	.loc	1 85 0                  # C:/Users/user/workspace/lib_dsp/src/dsp_dct.xc:85:0
.Ltmp198:
	{
		mov r4, r7
		mov r5, r7
	}
	ldw r6, cp[.LCPI4_0]
	maccs r4, r5, r2, r6
	.loc	1 86 5                  # C:/Users/user/workspace/lib_dsp/src/dsp_dct.xc:86:5
	{
		shr r2, r5, r0
		shl r4, r4, 1
	}
	{
		or r2, r2, r4
		nop
	}
.Ltmp199:
	#DEBUG_VALUE: mulcos:cos <- 1984016189
	.loc	1 118 0                 # C:/Users/user/workspace/lib_dsp/src/dsp_dct.xc:118:0
	{
		mov r2, r7
		stw r2, sp[4]
	}
	.loc	1 85 0                  # C:/Users/user/workspace/lib_dsp/src/dsp_dct.xc:85:0
.Ltmp200:
	{
		mov r4, r7
		nop
	}
	ldw r5, cp[.LCPI4_1]
	maccs r2, r4, r8, r5
	.loc	1 86 5                  # C:/Users/user/workspace/lib_dsp/src/dsp_dct.xc:86:5
	{
		shr r4, r4, r0
		shl r2, r2, 1
	}
.Ltmp201:
	#DEBUG_VALUE: mulcos:cos <- 821806413
	{
		or r2, r4, r2
		mov r4, r7
	}
	.loc	1 85 0                  # C:/Users/user/workspace/lib_dsp/src/dsp_dct.xc:85:0
	{
		mov r5, r7
		nop
	}
	maccs r4, r5, r11, r3
	.loc	1 86 5                  # C:/Users/user/workspace/lib_dsp/src/dsp_dct.xc:86:5
	{
		shr r5, r5, r0
		shl r4, r4, 1
	}
	{
		or r4, r5, r4
		nop
	}
.Ltmp202:
	.loc	1 119 0                 # C:/Users/user/workspace/lib_dsp/src/dsp_dct.xc:119:0
	{
		add r2, r4, r2
		nop
	}
.Ltmp203:
	#DEBUG_VALUE: mulcos:cos <- 821806413
	.loc	1 119 0                 # C:/Users/user/workspace/lib_dsp/src/dsp_dct.xc:119:0
	{
		mov r2, r7
		stw r2, sp[3]
	}
	.loc	1 85 0                  # C:/Users/user/workspace/lib_dsp/src/dsp_dct.xc:85:0
.Ltmp204:
	{
		mov r4, r7
		nop
	}
	maccs r2, r4, r8, r3
	.loc	1 86 5                  # C:/Users/user/workspace/lib_dsp/src/dsp_dct.xc:86:5
	{
		shr r3, r4, r0
		shl r2, r2, 1
	}
.Ltmp205:
	#DEBUG_VALUE: mulcos:cos <- -1984016189
	{
		or r2, r3, r2
		mov r3, r7
	}
	ldw r4, cp[.LCPI4_3]
	.loc	1 85 0                  # C:/Users/user/workspace/lib_dsp/src/dsp_dct.xc:85:0
	maccs r7, r3, r11, r4
	.loc	1 86 5                  # C:/Users/user/workspace/lib_dsp/src/dsp_dct.xc:86:5
	{
		shr r0, r3, r0
		shl r3, r7, 1
	}
	{
		or r0, r0, r3
		nop
	}
.Ltmp206:
	.loc	1 121 0                 # C:/Users/user/workspace/lib_dsp/src/dsp_dct.xc:121:0
	{
		add r0, r0, r2
		nop
	}
	{
		nop
		stw r0, sp[5]
	}
	{
		nop
		ldw r2, sp[1]
	}
.Ltmp207:
	#DEBUG_VALUE: dsp_dct_forward8:output <- R2
	{
		nop
		stw r1, r2[1]
	}
.Ltmp208:
	#DEBUG_VALUE: i <- 1
	{
		nop
		ldw r0, sp[3]
	}
.Ltmp209:
	.loc	1 143 0                 # C:/Users/user/workspace/lib_dsp/src/dsp_dct.xc:143:0
	{
		shl r0, r0, 1
		nop
	}
	.loc	1 143 0                 # C:/Users/user/workspace/lib_dsp/src/dsp_dct.xc:143:0
	{
		sub r0, r0, r1
		nop
	}
.Ltmp210:
	#DEBUG_VALUE: last <- R0
	{
		nop
		stw r0, r2[3]
	}
.Ltmp211:
	#DEBUG_VALUE: i <- 2
	{
		nop
		ldw r1, sp[4]
	}
	.loc	1 143 0                 # C:/Users/user/workspace/lib_dsp/src/dsp_dct.xc:143:0
	{
		shl r1, r1, 1
		nop
	}
	.loc	1 143 0                 # C:/Users/user/workspace/lib_dsp/src/dsp_dct.xc:143:0
	{
		sub r0, r1, r0
		nop
	}
.Ltmp212:
	{
		nop
		stw r0, r2[5]
	}
	{
		nop
		ldw r1, sp[5]
	}
	.loc	1 143 0                 # C:/Users/user/workspace/lib_dsp/src/dsp_dct.xc:143:0
	{
		shl r1, r1, 1
		nop
	}
	.loc	1 143 0                 # C:/Users/user/workspace/lib_dsp/src/dsp_dct.xc:143:0
	{
		sub r0, r1, r0
		nop
	}
	{
		nop
		stw r0, r2[7]
	}
	{
		nop
		ldw r10, sp[16]
	}
	ldd r9, r8, sp[7]               # 4-byte Folded Reload
	ldd r7, r6, sp[6]               # 4-byte Folded Reload
	ldd r5, r4, sp[5]               # 4-byte Folded Reload
	{
		nop
		retsp 18
	}
	# RETURN_REG_HOLDER
.Ltmp213:
	.cc_bottom dsp_dct_forward8.function
	.set	dsp_dct_forward8.nstackwords,18
	.globl	dsp_dct_forward8.nstackwords
	.set	dsp_dct_forward8.maxcores,1
	.globl	dsp_dct_forward8.maxcores
	.set	dsp_dct_forward8.maxtimers,0
	.globl	dsp_dct_forward8.maxtimers
	.set	dsp_dct_forward8.maxchanends,0
	.globl	dsp_dct_forward8.maxchanends
.Ltmp214:
	.size	dsp_dct_forward8, .Ltmp214-dsp_dct_forward8
.Lfunc_end4:
	.cfi_endproc

	.section	.cp.rodata.cst4,"aMc",@progbits,4
	.cc_top .LCPI5_0.data,.LCPI5_0
	.align	4
	.type	.LCPI5_0,@object
	.size	.LCPI5_0, 4
.LCPI5_0:
	.long	1859775393              # 0x6ed9eba1
	.cc_bottom .LCPI5_0.data
	.cc_top .LCPI5_1.data,.LCPI5_1
	.align	4
	.type	.LCPI5_1,@object
	.size	.LCPI5_1, 4
.LCPI5_1:
	.long	2074309917              # 0x7ba3751d
	.cc_bottom .LCPI5_1.data
	.cc_top .LCPI5_2.data,.LCPI5_2
	.align	4
	.type	.LCPI5_2,@object
	.size	.LCPI5_2, 4
.LCPI5_2:
	.long	1518500250              # 0x5a82799a
	.cc_bottom .LCPI5_2.data
	.cc_top .LCPI5_3.data,.LCPI5_3
	.align	4
	.type	.LCPI5_3,@object
	.size	.LCPI5_3, 4
.LCPI5_3:
	.long	555809667               # 0x2120fb83
	.cc_bottom .LCPI5_3.data
	.text
	.globl	dsp_dct_forward6
	.align	4
	.type	dsp_dct_forward6,@function
	.cc_top dsp_dct_forward6.function,dsp_dct_forward6
dsp_dct_forward6:                       # @dsp_dct_forward6
.Lfunc_begin5:
	.loc	1 142 0                 # C:/Users/user/workspace/lib_dsp/src/dsp_dct.xc:142:0
	.cfi_startproc
	.issue_mode dual
# BB#0:                                 # %afterboundcheck119
.Lxtalabel7:
	{
		nop
		dualentsp 12
	}
.Ltmp215:
	.cfi_def_cfa_offset 48
.Ltmp216:
	.cfi_offset 15, 0
	std r5, r4, sp[3]               # 4-byte Folded Spill
.Ltmp217:
	.cfi_offset 4, -24
.Ltmp218:
	.cfi_offset 5, -20
	std r7, r6, sp[4]               # 4-byte Folded Spill
.Ltmp219:
	.cfi_offset 6, -16
.Ltmp220:
	.cfi_offset 7, -12
	{
		nop
		stw r8, sp[10]
	}
.Ltmp221:
	.cfi_offset 8, -8
	#DEBUG_VALUE: dsp_dct_forward6:output <- R0
	#DEBUG_VALUE: dsp_dct_forward6:input <- R1
.Ltmp222:
	#DEBUG_VALUE: i <- 0
	{
		nop
		ldw r2, r1[0]
	}
	{
		nop
		ldw r3, r1[5]
	}
	.loc	1 142 0 prologue_end    # C:/Users/user/workspace/lib_dsp/src/dsp_dct.xc:142:0
.Ltmp223:
	{
		add r2, r3, r2
		nop
	}
	{
		nop
		stw r2, sp[3]
	}
.Ltmp224:
	#DEBUG_VALUE: i <- 1
	{
		nop
		ldw r2, r1[1]
	}
	{
		nop
		ldw r3, r1[4]
	}
	.loc	1 142 0                 # C:/Users/user/workspace/lib_dsp/src/dsp_dct.xc:142:0
	{
		add r2, r3, r2
		nop
	}
	{
		nop
		stw r2, sp[4]
	}
	{
		nop
		ldw r2, r1[2]
	}
	{
		nop
		ldw r3, r1[3]
	}
	.loc	1 142 0                 # C:/Users/user/workspace/lib_dsp/src/dsp_dct.xc:142:0
	{
		add r4, r3, r2
		nop
	}
	{
		nop
		stw r4, sp[5]
	}
	{
		nop
		ldw r5, sp[3]
	}
	{
		nop
		ldw r6, sp[4]
	}
.Ltmp225:
	.loc	1 126 0                 # C:/Users/user/workspace/lib_dsp/src/dsp_dct.xc:126:0
	{
		add r2, r6, r5
		nop
	}
	.loc	1 126 0                 # C:/Users/user/workspace/lib_dsp/src/dsp_dct.xc:126:0
	{
		add r2, r2, r4
		nop
	}
.Ltmp226:
	#DEBUG_VALUE: mulcos:x <- R11
	.loc	1 126 0                 # C:/Users/user/workspace/lib_dsp/src/dsp_dct.xc:126:0
	{
		sub r11, r5, r4
		stw r2, sp[0]
	}
.Ltmp227:
	ldw r3, cp[.LCPI5_0]
	{
		ldc r2, 0
		nop
	}
.Ltmp228:
	#DEBUG_VALUE: mulcos:cos <- 1859775393
	.loc	1 85 0                  # C:/Users/user/workspace/lib_dsp/src/dsp_dct.xc:85:0
	{
		mov r7, r2
		mov r8, r2
	}
	maccs r7, r8, r11, r3
	{
		mkmsk r11, 5
		nop
	}
	.loc	1 86 5                  # C:/Users/user/workspace/lib_dsp/src/dsp_dct.xc:86:5
	{
		shr r8, r8, r11
		shl r7, r7, 1
	}
	{
		or r7, r8, r7
		nop
	}
.Ltmp229:
	.loc	1 127 0                 # C:/Users/user/workspace/lib_dsp/src/dsp_dct.xc:127:0
	{
		add r4, r4, r5
		stw r7, sp[1]
	}
	.loc	1 128 0                 # C:/Users/user/workspace/lib_dsp/src/dsp_dct.xc:128:0
	ashr r4, r4, 1
	.loc	1 128 0                 # C:/Users/user/workspace/lib_dsp/src/dsp_dct.xc:128:0
	{
		sub r4, r4, r6
		nop
	}
	{
		nop
		stw r4, sp[2]
	}
.Ltmp230:
	#DEBUG_VALUE: i <- 0
	{
		nop
		ldw r4, sp[0]
	}
	{
		nop
		stw r4, r0[0]
	}
.Ltmp231:
	#DEBUG_VALUE: i <- 1
	{
		nop
		ldw r4, sp[1]
	}
	{
		nop
		stw r4, r0[2]
	}
	{
		nop
		ldw r4, sp[2]
	}
	{
		nop
		stw r4, r0[4]
	}
	{
		nop
		ldw r4, r1[0]
	}
	{
		nop
		ldw r5, r1[5]
	}
.Ltmp232:
	.loc	1 142 0                 # C:/Users/user/workspace/lib_dsp/src/dsp_dct.xc:142:0
	{
		sub r4, r4, r5
		nop
	}
.Ltmp233:
	#DEBUG_VALUE: z <- R4
	#DEBUG_VALUE: mulcos:x <- R4
	ldw r5, cp[.LCPI5_1]
.Ltmp234:
	#DEBUG_VALUE: mulcos:cos <- 2074309917
	.loc	1 85 0                  # C:/Users/user/workspace/lib_dsp/src/dsp_dct.xc:85:0
	{
		mov r6, r2
		mov r7, r2
	}
	maccs r6, r7, r4, r5
	.loc	1 86 5                  # C:/Users/user/workspace/lib_dsp/src/dsp_dct.xc:86:5
	{
		shr r4, r7, r11
		shl r5, r6, 1
	}
.Ltmp235:
	{
		or r4, r4, r5
		nop
	}
	{
		nop
		stw r4, sp[3]
	}
.Ltmp236:
	#DEBUG_VALUE: i <- 1
	{
		nop
		ldw r4, r1[1]
	}
	{
		nop
		ldw r5, r1[4]
	}
.Ltmp237:
	.loc	1 142 0                 # C:/Users/user/workspace/lib_dsp/src/dsp_dct.xc:142:0
	{
		sub r4, r4, r5
		nop
	}
	ldw r5, cp[.LCPI5_2]
	.loc	1 85 0                  # C:/Users/user/workspace/lib_dsp/src/dsp_dct.xc:85:0
.Ltmp238:
	{
		mov r6, r2
		mov r7, r2
	}
	maccs r6, r7, r4, r5
	.loc	1 86 5                  # C:/Users/user/workspace/lib_dsp/src/dsp_dct.xc:86:5
	{
		shr r4, r7, r11
		shl r5, r6, 1
	}
	{
		or r4, r4, r5
		nop
	}
	{
		nop
		stw r4, sp[4]
	}
	{
		nop
		ldw r4, r1[2]
	}
	{
		nop
		ldw r1, r1[3]
	}
.Ltmp239:
	.loc	1 142 0                 # C:/Users/user/workspace/lib_dsp/src/dsp_dct.xc:142:0
	{
		sub r1, r4, r1
		nop
	}
	ldw r4, cp[.LCPI5_3]
	.loc	1 85 0                  # C:/Users/user/workspace/lib_dsp/src/dsp_dct.xc:85:0
.Ltmp240:
	{
		mov r5, r2
		mov r6, r2
	}
	maccs r5, r6, r1, r4
	.loc	1 86 5                  # C:/Users/user/workspace/lib_dsp/src/dsp_dct.xc:86:5
	{
		shr r1, r6, r11
		shl r4, r5, 1
	}
	{
		or r1, r1, r4
		nop
	}
	{
		nop
		stw r1, sp[5]
	}
	{
		nop
		ldw r4, sp[3]
	}
	{
		nop
		ldw r5, sp[4]
	}
.Ltmp241:
	.loc	1 126 0                 # C:/Users/user/workspace/lib_dsp/src/dsp_dct.xc:126:0
	{
		add r6, r5, r4
		nop
	}
	.loc	1 126 0                 # C:/Users/user/workspace/lib_dsp/src/dsp_dct.xc:126:0
	{
		add r6, r6, r1
		nop
	}
.Ltmp242:
	#DEBUG_VALUE: last <- R6
	#DEBUG_VALUE: mulcos:x <- R7
	.loc	1 126 0                 # C:/Users/user/workspace/lib_dsp/src/dsp_dct.xc:126:0
	{
		sub r7, r4, r1
		stw r6, sp[0]
	}
.Ltmp243:
	.loc	1 85 0                  # C:/Users/user/workspace/lib_dsp/src/dsp_dct.xc:85:0
	{
		mov r8, r2
		nop
	}
	maccs r2, r8, r7, r3
	.loc	1 86 5                  # C:/Users/user/workspace/lib_dsp/src/dsp_dct.xc:86:5
	{
		shr r3, r8, r11
		shl r2, r2, 1
	}
	{
		or r2, r3, r2
		nop
	}
.Ltmp244:
	.loc	1 127 0                 # C:/Users/user/workspace/lib_dsp/src/dsp_dct.xc:127:0
	{
		add r1, r1, r4
		stw r2, sp[1]
	}
	.loc	1 128 0                 # C:/Users/user/workspace/lib_dsp/src/dsp_dct.xc:128:0
	ashr r1, r1, 1
	.loc	1 128 0                 # C:/Users/user/workspace/lib_dsp/src/dsp_dct.xc:128:0
	{
		sub r1, r1, r5
		nop
	}
	{
		nop
		stw r1, sp[2]
	}
	{
		nop
		stw r6, r0[1]
	}
.Ltmp245:
	#DEBUG_VALUE: i <- 1
	{
		nop
		ldw r1, sp[1]
	}
.Ltmp246:
	.loc	1 142 0                 # C:/Users/user/workspace/lib_dsp/src/dsp_dct.xc:142:0
	{
		shl r1, r1, 1
		nop
	}
	.loc	1 142 0                 # C:/Users/user/workspace/lib_dsp/src/dsp_dct.xc:142:0
	{
		sub r1, r1, r6
		nop
	}
.Ltmp247:
	#DEBUG_VALUE: last <- R1
	{
		nop
		stw r1, r0[3]
	}
.Ltmp248:
	#DEBUG_VALUE: i <- 2
	{
		nop
		ldw r2, sp[2]
	}
	.loc	1 142 0                 # C:/Users/user/workspace/lib_dsp/src/dsp_dct.xc:142:0
	{
		shl r2, r2, 1
		nop
	}
	.loc	1 142 0                 # C:/Users/user/workspace/lib_dsp/src/dsp_dct.xc:142:0
	{
		sub r1, r2, r1
		nop
	}
.Ltmp249:
	{
		nop
		stw r1, r0[5]
	}
	{
		nop
		ldw r8, sp[10]
	}
	ldd r7, r6, sp[4]               # 4-byte Folded Reload
	ldd r5, r4, sp[3]               # 4-byte Folded Reload
	{
		nop
		retsp 12
	}
	# RETURN_REG_HOLDER
.Ltmp250:
	.cc_bottom dsp_dct_forward6.function
	.set	dsp_dct_forward6.nstackwords,12
	.globl	dsp_dct_forward6.nstackwords
	.set	dsp_dct_forward6.maxcores,1
	.globl	dsp_dct_forward6.maxcores
	.set	dsp_dct_forward6.maxtimers,0
	.globl	dsp_dct_forward6.maxtimers
	.set	dsp_dct_forward6.maxchanends,0
	.globl	dsp_dct_forward6.maxchanends
.Ltmp251:
	.size	dsp_dct_forward6, .Ltmp251-dsp_dct_forward6
.Lfunc_end5:
	.cfi_endproc

	.section	.cp.rodata.cst4,"aMc",@progbits,4
	.cc_top .LCPI6_0.data,.LCPI6_0
	.align	4
	.type	.LCPI6_0,@object
	.size	.LCPI6_0, 4
.LCPI6_0:
	.long	1518500250              # 0x5a82799a
	.cc_bottom .LCPI6_0.data
	.cc_top .LCPI6_1.data,.LCPI6_1
	.align	4
	.type	.LCPI6_1,@object
	.size	.LCPI6_1, 4
.LCPI6_1:
	.long	1984016189              # 0x7641af3d
	.cc_bottom .LCPI6_1.data
	.cc_top .LCPI6_2.data,.LCPI6_2
	.align	4
	.type	.LCPI6_2,@object
	.size	.LCPI6_2, 4
.LCPI6_2:
	.long	821806413               # 0x30fbc54d
	.cc_bottom .LCPI6_2.data
	.cc_top .LCPI6_3.data,.LCPI6_3
	.align	4
	.type	.LCPI6_3,@object
	.size	.LCPI6_3, 4
.LCPI6_3:
	.long	2310951107              # 0x89be50c3
	.cc_bottom .LCPI6_3.data
	.text
	.globl	dsp_dct_forward4
	.align	4
	.type	dsp_dct_forward4,@function
	.cc_top dsp_dct_forward4.function,dsp_dct_forward4
dsp_dct_forward4:                       # @dsp_dct_forward4
.Lfunc_begin6:
	.loc	1 112 0                 # C:/Users/user/workspace/lib_dsp/src/dsp_dct.xc:112:0
	.cfi_startproc
	.issue_mode dual
# BB#0:                                 # %allocas
.Lxtalabel8:
	{
		nop
		dualentsp 0
	}
	{
		extsp 4
		nop
	}
.Ltmp252:
	.cfi_def_cfa_offset 16
	std r5, r4, sp[0]               # 4-byte Folded Spill
.Ltmp253:
	.cfi_offset 4, -16
.Ltmp254:
	.cfi_offset 5, -12
	std r7, r6, sp[1]               # 4-byte Folded Spill
.Ltmp255:
	.cfi_offset 6, -8
.Ltmp256:
	.cfi_offset 7, -4
	#DEBUG_VALUE: dsp_dct_forward4:output <- R0
	#DEBUG_VALUE: dsp_dct_forward4:input <- R1
	{
		nop
		ldw r2, r1[0]
	}
	{
		nop
		ldw r3, r1[3]
	}
.Ltmp257:
	#DEBUG_VALUE: i03 <- R11
	.loc	1 113 0 prologue_end    # C:/Users/user/workspace/lib_dsp/src/dsp_dct.xc:113:0
	{
		add r11, r3, r2
		ldw r4, r1[1]
	}
.Ltmp258:
	{
		nop
		ldw r1, r1[2]
	}
.Ltmp259:
	#DEBUG_VALUE: i12 <- R5
	#DEBUG_VALUE: i03_ <- R3
	#DEBUG_VALUE: mulcos:x <- R3
	#DEBUG_VALUE: mulcos:x <- R3
	.loc	1 114 0                 # C:/Users/user/workspace/lib_dsp/src/dsp_dct.xc:114:0
	{
		add r5, r1, r4
		sub r3, r2, r3
	}
.Ltmp260:
	#DEBUG_VALUE: i12_ <- R1
	#DEBUG_VALUE: mulcos:x <- R1
	#DEBUG_VALUE: mulcos:x <- R1
	.loc	1 116 0                 # C:/Users/user/workspace/lib_dsp/src/dsp_dct.xc:116:0
	{
		sub r1, r4, r1
		add r2, r5, r11
	}
.Ltmp261:
	#DEBUG_VALUE: mulcos:x <- R11
	.loc	1 117 0                 # C:/Users/user/workspace/lib_dsp/src/dsp_dct.xc:117:0
	{
		sub r11, r11, r5
		stw r2, r0[0]
	}
.Ltmp262:
	ldw r4, cp[.LCPI6_0]
	{
		ldc r2, 0
		nop
	}
.Ltmp263:
	#DEBUG_VALUE: mulcos:cos <- 1518500250
	.loc	1 85 0                  # C:/Users/user/workspace/lib_dsp/src/dsp_dct.xc:85:0
	{
		mov r5, r2
		mov r6, r2
	}
	maccs r5, r6, r11, r4
	{
		mkmsk r11, 5
		nop
	}
	.loc	1 86 5                  # C:/Users/user/workspace/lib_dsp/src/dsp_dct.xc:86:5
	{
		shr r4, r6, r11
		shl r5, r5, 1
	}
	{
		or r4, r4, r5
		nop
	}
	{
		nop
		stw r4, r0[2]
	}
	ldw r4, cp[.LCPI6_1]
.Ltmp264:
	#DEBUG_VALUE: mulcos:cos <- 1984016189
	.loc	1 85 0                  # C:/Users/user/workspace/lib_dsp/src/dsp_dct.xc:85:0
	{
		mov r5, r2
		mov r6, r2
	}
	maccs r5, r6, r3, r4
	.loc	1 86 5                  # C:/Users/user/workspace/lib_dsp/src/dsp_dct.xc:86:5
	{
		shr r4, r6, r11
		shl r5, r5, 1
	}
	{
		or r4, r4, r5
		nop
	}
	ldw r5, cp[.LCPI6_2]
.Ltmp265:
	#DEBUG_VALUE: mulcos:cos <- 821806413
	.loc	1 85 0                  # C:/Users/user/workspace/lib_dsp/src/dsp_dct.xc:85:0
	{
		mov r6, r2
		mov r7, r2
	}
	maccs r6, r7, r1, r5
	.loc	1 86 5                  # C:/Users/user/workspace/lib_dsp/src/dsp_dct.xc:86:5
	{
		shr r7, r7, r11
		shl r6, r6, 1
	}
	{
		or r6, r7, r6
		nop
	}
.Ltmp266:
	.loc	1 119 0                 # C:/Users/user/workspace/lib_dsp/src/dsp_dct.xc:119:0
	{
		add r4, r6, r4
		nop
	}
.Ltmp267:
	#DEBUG_VALUE: mulcos:cos <- 821806413
	.loc	1 119 0                 # C:/Users/user/workspace/lib_dsp/src/dsp_dct.xc:119:0
	{
		mov r4, r2
		stw r4, r0[1]
	}
	.loc	1 85 0                  # C:/Users/user/workspace/lib_dsp/src/dsp_dct.xc:85:0
.Ltmp268:
	{
		mov r6, r2
		nop
	}
	maccs r4, r6, r3, r5
	.loc	1 86 5                  # C:/Users/user/workspace/lib_dsp/src/dsp_dct.xc:86:5
	{
		shr r3, r6, r11
		shl r4, r4, 1
	}
	{
		or r3, r3, r4
		nop
	}
	ldw r4, cp[.LCPI6_3]
.Ltmp269:
	#DEBUG_VALUE: mulcos:cos <- -1984016189
	.loc	1 85 0                  # C:/Users/user/workspace/lib_dsp/src/dsp_dct.xc:85:0
	{
		mov r5, r2
		nop
	}
	maccs r2, r5, r1, r4
	.loc	1 86 5                  # C:/Users/user/workspace/lib_dsp/src/dsp_dct.xc:86:5
	{
		shr r1, r5, r11
		shl r2, r2, 1
	}
	{
		or r1, r1, r2
		nop
	}
.Ltmp270:
	.loc	1 121 0                 # C:/Users/user/workspace/lib_dsp/src/dsp_dct.xc:121:0
	{
		add r1, r1, r3
		nop
	}
	{
		nop
		stw r1, r0[3]
	}
	ldd r7, r6, sp[1]               # 4-byte Folded Reload
	ldd r5, r4, sp[0]               # 4-byte Folded Reload
	{
		ldaw sp, sp[4]
		nop
	}
	{
		nop
		retsp 0
	}
	# RETURN_REG_HOLDER
.Ltmp271:
	.cc_bottom dsp_dct_forward4.function
	.set	dsp_dct_forward4.nstackwords,4
	.globl	dsp_dct_forward4.nstackwords
	.set	dsp_dct_forward4.maxcores,1
	.globl	dsp_dct_forward4.maxcores
	.set	dsp_dct_forward4.maxtimers,0
	.globl	dsp_dct_forward4.maxtimers
	.set	dsp_dct_forward4.maxchanends,0
	.globl	dsp_dct_forward4.maxchanends
.Ltmp272:
	.size	dsp_dct_forward4, .Ltmp272-dsp_dct_forward4
.Lfunc_end6:
	.cfi_endproc

	.section	.cp.rodata.cst4,"aMc",@progbits,4
	.cc_top .LCPI7_0.data,.LCPI7_0
	.align	4
	.type	.LCPI7_0,@object
	.size	.LCPI7_0, 4
.LCPI7_0:
	.long	1859775393              # 0x6ed9eba1
	.cc_bottom .LCPI7_0.data
	.text
	.globl	dsp_dct_forward3
	.align	4
	.type	dsp_dct_forward3,@function
	.cc_top dsp_dct_forward3.function,dsp_dct_forward3
dsp_dct_forward3:                       # @dsp_dct_forward3
.Lfunc_begin7:
	.loc	1 125 0                 # C:/Users/user/workspace/lib_dsp/src/dsp_dct.xc:125:0
	.cfi_startproc
	.issue_mode dual
# BB#0:                                 # %allocas
.Lxtalabel9:
	{
		nop
		dualentsp 0
	}
	{
		extsp 4
		nop
	}
.Ltmp273:
	.cfi_def_cfa_offset 16
	std r5, r4, sp[0]               # 4-byte Folded Spill
.Ltmp274:
	.cfi_offset 4, -16
.Ltmp275:
	.cfi_offset 5, -12
	{
		nop
		stw r6, sp[2]
	}
.Ltmp276:
	.cfi_offset 6, -8
	#DEBUG_VALUE: dsp_dct_forward3:output <- R0
	#DEBUG_VALUE: dsp_dct_forward3:input <- R1
	{
		nop
		ldw r2, r1[0]
	}
	{
		nop
		ldw r3, r1[1]
	}
	.loc	1 126 0 prologue_end    # C:/Users/user/workspace/lib_dsp/src/dsp_dct.xc:126:0
.Ltmp277:
	{
		add r11, r3, r2
		ldw r1, r1[2]
	}
.Ltmp278:
	.loc	1 126 0                 # C:/Users/user/workspace/lib_dsp/src/dsp_dct.xc:126:0
	{
		add r11, r11, r1
		nop
	}
.Ltmp279:
	#DEBUG_VALUE: mulcos:x <- R11
	.loc	1 126 0                 # C:/Users/user/workspace/lib_dsp/src/dsp_dct.xc:126:0
	{
		sub r11, r2, r1
		stw r11, r0[0]
	}
.Ltmp280:
	ldw r4, cp[.LCPI7_0]
	{
		ldc r5, 0
		nop
	}
.Ltmp281:
	#DEBUG_VALUE: mulcos:cos <- 1859775393
	.loc	1 85 0                  # C:/Users/user/workspace/lib_dsp/src/dsp_dct.xc:85:0
	{
		mov r6, r5
		nop
	}
	maccs r5, r6, r11, r4
	{
		mkmsk r11, 5
		nop
	}
	.loc	1 86 5                  # C:/Users/user/workspace/lib_dsp/src/dsp_dct.xc:86:5
	{
		shr r11, r6, r11
		shl r4, r5, 1
	}
	{
		or r11, r11, r4
		nop
	}
.Ltmp282:
	.loc	1 127 0                 # C:/Users/user/workspace/lib_dsp/src/dsp_dct.xc:127:0
	{
		add r1, r1, r2
		stw r11, r0[1]
	}
	.loc	1 128 0                 # C:/Users/user/workspace/lib_dsp/src/dsp_dct.xc:128:0
	ashr r1, r1, 1
	.loc	1 128 0                 # C:/Users/user/workspace/lib_dsp/src/dsp_dct.xc:128:0
	{
		sub r1, r1, r3
		nop
	}
	{
		nop
		stw r1, r0[2]
	}
	{
		nop
		ldw r6, sp[2]
	}
	ldd r5, r4, sp[0]               # 4-byte Folded Reload
	{
		ldaw sp, sp[4]
		nop
	}
	{
		nop
		retsp 0
	}
	# RETURN_REG_HOLDER
.Ltmp283:
	.cc_bottom dsp_dct_forward3.function
	.set	dsp_dct_forward3.nstackwords,4
	.globl	dsp_dct_forward3.nstackwords
	.set	dsp_dct_forward3.maxcores,1
	.globl	dsp_dct_forward3.maxcores
	.set	dsp_dct_forward3.maxtimers,0
	.globl	dsp_dct_forward3.maxtimers
	.set	dsp_dct_forward3.maxchanends,0
	.globl	dsp_dct_forward3.maxchanends
.Ltmp284:
	.size	dsp_dct_forward3, .Ltmp284-dsp_dct_forward3
.Lfunc_end7:
	.cfi_endproc

	.section	.cp.rodata.cst4,"aMc",@progbits,4
	.cc_top .LCPI8_0.data,.LCPI8_0
	.align	4
	.type	.LCPI8_0,@object
	.size	.LCPI8_0, 4
.LCPI8_0:
	.long	1518500250              # 0x5a82799a
	.cc_bottom .LCPI8_0.data
	.text
	.globl	dsp_dct_forward2
	.align	4
	.type	dsp_dct_forward2,@function
	.cc_top dsp_dct_forward2.function,dsp_dct_forward2
dsp_dct_forward2:                       # @dsp_dct_forward2
.Lfunc_begin8:
	.loc	1 131 0                 # C:/Users/user/workspace/lib_dsp/src/dsp_dct.xc:131:0
	.cfi_startproc
	.issue_mode dual
# BB#0:                                 # %allocas
.Lxtalabel10:
	{
		nop
		dualentsp 0
	}
	#DEBUG_VALUE: dsp_dct_forward2:output <- R0
	#DEBUG_VALUE: dsp_dct_forward2:input <- R1
	{
		nop
		ldw r2, r1[0]
	}
	{
		nop
		ldw r1, r1[1]
	}
.Ltmp285:
	.loc	1 132 0 prologue_end    # C:/Users/user/workspace/lib_dsp/src/dsp_dct.xc:132:0
	{
		add r3, r1, r2
		nop
	}
.Ltmp286:
	#DEBUG_VALUE: z <- R1
	#DEBUG_VALUE: mulcos:x <- R1
	.loc	1 132 0                 # C:/Users/user/workspace/lib_dsp/src/dsp_dct.xc:132:0
	{
		sub r1, r2, r1
		stw r3, r0[0]
	}
.Ltmp287:
	ldw r2, cp[.LCPI8_0]
	{
		ldc r3, 0
		nop
	}
.Ltmp288:
	#DEBUG_VALUE: mulcos:cos <- 1518500250
	.loc	1 85 0                  # C:/Users/user/workspace/lib_dsp/src/dsp_dct.xc:85:0
	{
		mov r11, r3
		nop
	}
	maccs r3, r11, r1, r2
	{
		mkmsk r1, 5
		nop
	}
	.loc	1 86 5                  # C:/Users/user/workspace/lib_dsp/src/dsp_dct.xc:86:5
	{
		shr r1, r11, r1
		shl r2, r3, 1
	}
	{
		or r1, r1, r2
		nop
	}
	{
		nop
		stw r1, r0[1]
	}
	{
		nop
		retsp 0
	}
	# RETURN_REG_HOLDER
.Ltmp289:
	.cc_bottom dsp_dct_forward2.function
	.set	dsp_dct_forward2.nstackwords,0
	.globl	dsp_dct_forward2.nstackwords
	.set	dsp_dct_forward2.maxcores,1
	.globl	dsp_dct_forward2.maxcores
	.set	dsp_dct_forward2.maxtimers,0
	.globl	dsp_dct_forward2.maxtimers
	.set	dsp_dct_forward2.maxchanends,0
	.globl	dsp_dct_forward2.maxchanends
.Ltmp290:
	.size	dsp_dct_forward2, .Ltmp290-dsp_dct_forward2
.Lfunc_end8:
	.cfi_endproc

	.globl	dsp_dct_forward1
	.align	4
	.type	dsp_dct_forward1,@function
	.cc_top dsp_dct_forward1.function,dsp_dct_forward1
dsp_dct_forward1:                       # @dsp_dct_forward1
	.cfi_startproc
	.issue_mode dual
# BB#0:                                 # %allocas
.Lxtalabel11:
	{
		nop
		dualentsp 0
	}
	#DEBUG_VALUE: dsp_dct_forward1:output <- R0
	#DEBUG_VALUE: dsp_dct_forward1:input <- R1
	{
		nop
		ldw r1, r1[0]
	}
	{
		nop
		stw r1, r0[0]
	}
	{
		nop
		retsp 0
	}
	# RETURN_REG_HOLDER
	.cc_bottom dsp_dct_forward1.function
	.set	dsp_dct_forward1.nstackwords,0
	.globl	dsp_dct_forward1.nstackwords
	.set	dsp_dct_forward1.maxcores,1
	.globl	dsp_dct_forward1.maxcores
	.set	dsp_dct_forward1.maxtimers,0
	.globl	dsp_dct_forward1.maxtimers
	.set	dsp_dct_forward1.maxchanends,0
	.globl	dsp_dct_forward1.maxchanends
.Ltmp291:
	.size	dsp_dct_forward1, .Ltmp291-dsp_dct_forward1
	.cfi_endproc

	.section	.cp.rodata.cst16,"aMc",@progbits,16
	.cc_top costable8.data,costable8
	.align	4
	.type	costable8,@object
	.size	costable8, 16
costable8:
	.long	2106220352              # 0x7d8a5f40
	.long	1785567396              # 0x6a6d98a4
	.long	1193077991              # 0x471cece7
	.long	418953276               # 0x18f8b83c
	.cc_bottom costable8.data
	.section	.cp.rodata.4,"ac",@progbits
	.cc_top costable16.data,costable16
	.align	4
	.type	costable16,@object
	.size	costable16, 32
costable16:
	.long	2137142927              # 0x7f62368f
	.long	2055013723              # 0x7a7d055b
	.long	1893911494              # 0x70e2cbc6
	.long	1660027308              # 0x62f201ac
	.long	1362349204              # 0x5133cc94
	.long	1012316784              # 0x3c56ba70
	.long	623381598               # 0x25280c5e
	.long	210490206               # 0xc8bd35e
	.cc_bottom costable16.data
	.cc_top costable32.data,costable32
	.align	4
	.type	costable32,@object
	.size	costable32, 64
costable32:
	.long	2144896910              # 0x7fd8878e
	.long	2124240380              # 0x7e9d55fc
	.long	2083126254              # 0x7c29fbee
	.long	2021950484              # 0x78848414
	.long	1941302225              # 0x73b5ebd1
	.long	1841958164              # 0x6dca0d14
	.long	1724875040              # 0x66cf8120
	.long	1591180426              # 0x5ed77c8a
	.long	1442161874              # 0x55f5a4d2
	.long	1279254516              # 0x4c3fdff4
	.long	1104027237              # 0x41ce1e65
	.long	918167572               # 0x36ba2014
	.long	723465451               # 0x2b1f34eb
	.long	521795963               # 0x1f19f97b
	.long	315101295               # 0x12c8106f
	.long	105372028               # 0x647d97c
	.cc_bottom costable32.data
	.cc_top costable12.data,costable12
	.align	4
	.type	costable12,@object
	.size	costable12, 24
costable12:
	.long	2129111628              # 0x7ee7aa4c
	.long	1984016189              # 0x7641af3d
	.long	1703713325              # 0x658c9a2d
	.long	1307305214              # 0x4debe4fe
	.long	821806413               # 0x30fbc54d
	.long	280302863               # 0x10b5150f
	.cc_bottom costable12.data
	.cc_top costable24.data,costable24
	.align	4
	.type	costable24,@object
	.size	costable24, 48
costable24:
	.long	2142885721              # 0x7fb9d759
	.long	2106220352              # 0x7d8a5f40
	.long	2033516969              # 0x793501a9
	.long	1926019547              # 0x72ccb9db
	.long	1785567396              # 0x6a6d98a4
	.long	1614563692              # 0x603c496c
	.long	1415934356              # 0x54657194
	.long	1193077991              # 0x471cece7
	.long	949807730               # 0x389cea72
	.long	690285996               # 0x2924edac
	.long	418953276               # 0x18f8b83c
	.long	140452151               # 0x85f2137
	.cc_bottom costable24.data
.Ldebug_end0:
	.section	.cp.rodata.cst16,"aMc",@progbits,16
.Ldebug_end1:
	.text
.Ldebug_end2:
	.section	.xtacalltable,"",@progbits
.Lentries_start0:
	.long	.Lentries_end1-.Lentries_start0
	.long	0
	.ascii	"C:\\Users\\user\\workspace\\app_vf_spk_base\\.build_1i2o2_lin33_48k_xscopectl_farenddsp"
	.byte	0
.cc_top cc_0,.Lxta.call_labels3
	.ascii	"C:/Users/user/workspace/lib_dsp/src/dsp_dct.xc"
	.byte	0
	.long	144
	.long	.Lxta.call_labels3
.cc_bottom cc_0
.cc_top cc_1,.Lxta.call_labels2
	.ascii	"C:/Users/user/workspace/lib_dsp/src/dsp_dct.xc"
	.byte	0
	.long	145
	.long	.Lxta.call_labels2
.cc_bottom cc_1
.cc_top cc_2,.Lxta.call_labels1
	.ascii	"C:/Users/user/workspace/lib_dsp/src/dsp_dct.xc"
	.byte	0
	.long	146
	.long	.Lxta.call_labels1
.cc_bottom cc_2
.cc_top cc_3,.Lxta.call_labels0
	.ascii	"C:/Users/user/workspace/lib_dsp/src/dsp_dct.xc"
	.byte	0
	.long	147
	.long	.Lxta.call_labels0
.cc_bottom cc_3
.Lentries_end1:
	.section	.xtalabeltable,"",@progbits
.Lentries_start2:
	.long	.Lentries_end3-.Lentries_start2
	.long	0
	.ascii	"C:\\Users\\user\\workspace\\app_vf_spk_base\\.build_1i2o2_lin33_48k_xscopectl_farenddsp"
	.byte	0
.cc_top cc_4,.Lxtalabel0
	.ascii	"C:/Users/user/workspace/lib_dsp/src/dsp_dct.xc"
	.byte	0
	.long	85
	.long	87
	.long	.Lxtalabel0
.cc_bottom cc_4
.cc_top cc_5,.Lxtalabel1
	.ascii	"C:/Users/user/workspace/lib_dsp/src/dsp_dct.xc"
	.byte	0
	.long	85
	.long	87
	.long	.Lxtalabel1
.cc_bottom cc_5
.cc_top cc_6,.Lxtalabel2
	.ascii	"C:/Users/user/workspace/lib_dsp/src/dsp_dct.xc"
	.byte	0
	.long	85
	.long	87
	.long	.Lxtalabel2
.cc_bottom cc_6
.cc_top cc_7,.Lxtalabel3
	.ascii	"C:/Users/user/workspace/lib_dsp/src/dsp_dct.xc"
	.byte	0
	.long	85
	.long	87
	.long	.Lxtalabel3
.cc_bottom cc_7
.cc_top cc_8,.Lxtalabel4
	.ascii	"C:/Users/user/workspace/lib_dsp/src/dsp_dct.xc"
	.byte	0
	.long	85
	.long	87
	.long	.Lxtalabel4
.cc_bottom cc_8
.cc_top cc_9,.Lxtalabel4
	.ascii	"C:/Users/user/workspace/lib_dsp/src/dsp_dct.xc"
	.byte	0
	.long	85
	.long	87
	.long	.Lxtalabel4
.cc_bottom cc_9
.cc_top cc_10,.Lxtalabel4
	.ascii	"C:/Users/user/workspace/lib_dsp/src/dsp_dct.xc"
	.byte	0
	.long	85
	.long	87
	.long	.Lxtalabel4
.cc_bottom cc_10
.cc_top cc_11,.Lxtalabel4
	.ascii	"C:/Users/user/workspace/lib_dsp/src/dsp_dct.xc"
	.byte	0
	.long	85
	.long	87
	.long	.Lxtalabel4
.cc_bottom cc_11
.cc_top cc_12,.Lxtalabel4
	.ascii	"C:/Users/user/workspace/lib_dsp/src/dsp_dct.xc"
	.byte	0
	.long	85
	.long	87
	.long	.Lxtalabel4
.cc_bottom cc_12
.cc_top cc_13,.Lxtalabel9
	.ascii	"C:/Users/user/workspace/lib_dsp/src/dsp_dct.xc"
	.byte	0
	.long	85
	.long	87
	.long	.Lxtalabel9
.cc_bottom cc_13
.cc_top cc_14,.Lxtalabel5
	.ascii	"C:/Users/user/workspace/lib_dsp/src/dsp_dct.xc"
	.byte	0
	.long	85
	.long	87
	.long	.Lxtalabel5
.cc_bottom cc_14
.cc_top cc_15,.Lxtalabel6
	.ascii	"C:/Users/user/workspace/lib_dsp/src/dsp_dct.xc"
	.byte	0
	.long	85
	.long	87
	.long	.Lxtalabel6
.cc_bottom cc_15
.cc_top cc_16,.Lxtalabel6
	.ascii	"C:/Users/user/workspace/lib_dsp/src/dsp_dct.xc"
	.byte	0
	.long	85
	.long	87
	.long	.Lxtalabel6
.cc_bottom cc_16
.cc_top cc_17,.Lxtalabel6
	.ascii	"C:/Users/user/workspace/lib_dsp/src/dsp_dct.xc"
	.byte	0
	.long	85
	.long	87
	.long	.Lxtalabel6
.cc_bottom cc_17
.cc_top cc_18,.Lxtalabel6
	.ascii	"C:/Users/user/workspace/lib_dsp/src/dsp_dct.xc"
	.byte	0
	.long	85
	.long	87
	.long	.Lxtalabel6
.cc_bottom cc_18
.cc_top cc_19,.Lxtalabel6
	.ascii	"C:/Users/user/workspace/lib_dsp/src/dsp_dct.xc"
	.byte	0
	.long	85
	.long	87
	.long	.Lxtalabel6
.cc_bottom cc_19
.cc_top cc_20,.Lxtalabel10
	.ascii	"C:/Users/user/workspace/lib_dsp/src/dsp_dct.xc"
	.byte	0
	.long	85
	.long	87
	.long	.Lxtalabel10
.cc_bottom cc_20
.cc_top cc_21,.Lxtalabel7
	.ascii	"C:/Users/user/workspace/lib_dsp/src/dsp_dct.xc"
	.byte	0
	.long	85
	.long	87
	.long	.Lxtalabel7
.cc_bottom cc_21
.cc_top cc_22,.Lxtalabel7
	.ascii	"C:/Users/user/workspace/lib_dsp/src/dsp_dct.xc"
	.byte	0
	.long	85
	.long	87
	.long	.Lxtalabel7
.cc_bottom cc_22
.cc_top cc_23,.Lxtalabel7
	.ascii	"C:/Users/user/workspace/lib_dsp/src/dsp_dct.xc"
	.byte	0
	.long	85
	.long	87
	.long	.Lxtalabel7
.cc_bottom cc_23
.cc_top cc_24,.Lxtalabel7
	.ascii	"C:/Users/user/workspace/lib_dsp/src/dsp_dct.xc"
	.byte	0
	.long	85
	.long	87
	.long	.Lxtalabel7
.cc_bottom cc_24
.cc_top cc_25,.Lxtalabel7
	.ascii	"C:/Users/user/workspace/lib_dsp/src/dsp_dct.xc"
	.byte	0
	.long	85
	.long	87
	.long	.Lxtalabel7
.cc_bottom cc_25
.cc_top cc_26,.Lxtalabel8
	.ascii	"C:/Users/user/workspace/lib_dsp/src/dsp_dct.xc"
	.byte	0
	.long	85
	.long	87
	.long	.Lxtalabel8
.cc_bottom cc_26
.cc_top cc_27,.Lxtalabel8
	.ascii	"C:/Users/user/workspace/lib_dsp/src/dsp_dct.xc"
	.byte	0
	.long	85
	.long	87
	.long	.Lxtalabel8
.cc_bottom cc_27
.cc_top cc_28,.Lxtalabel8
	.ascii	"C:/Users/user/workspace/lib_dsp/src/dsp_dct.xc"
	.byte	0
	.long	85
	.long	87
	.long	.Lxtalabel8
.cc_bottom cc_28
.cc_top cc_29,.Lxtalabel8
	.ascii	"C:/Users/user/workspace/lib_dsp/src/dsp_dct.xc"
	.byte	0
	.long	85
	.long	87
	.long	.Lxtalabel8
.cc_bottom cc_29
.cc_top cc_30,.Lxtalabel8
	.ascii	"C:/Users/user/workspace/lib_dsp/src/dsp_dct.xc"
	.byte	0
	.long	85
	.long	87
	.long	.Lxtalabel8
.cc_bottom cc_30
.cc_top cc_31,.Lxtalabel4
	.ascii	"C:/Users/user/workspace/lib_dsp/src/dsp_dct.xc"
	.byte	0
	.long	113
	.long	123
	.long	.Lxtalabel4
.cc_bottom cc_31
.cc_top cc_32,.Lxtalabel6
	.ascii	"C:/Users/user/workspace/lib_dsp/src/dsp_dct.xc"
	.byte	0
	.long	113
	.long	123
	.long	.Lxtalabel6
.cc_bottom cc_32
.cc_top cc_33,.Lxtalabel8
	.ascii	"C:/Users/user/workspace/lib_dsp/src/dsp_dct.xc"
	.byte	0
	.long	113
	.long	123
	.long	.Lxtalabel8
.cc_bottom cc_33
.cc_top cc_34,.Lxtalabel7
	.ascii	"C:/Users/user/workspace/lib_dsp/src/dsp_dct.xc"
	.byte	0
	.long	126
	.long	129
	.long	.Lxtalabel7
.cc_bottom cc_34
.cc_top cc_35,.Lxtalabel9
	.ascii	"C:/Users/user/workspace/lib_dsp/src/dsp_dct.xc"
	.byte	0
	.long	126
	.long	129
	.long	.Lxtalabel9
.cc_bottom cc_35
.cc_top cc_36,.Lxtalabel7
	.ascii	"C:/Users/user/workspace/lib_dsp/src/dsp_dct.xc"
	.byte	0
	.long	126
	.long	129
	.long	.Lxtalabel7
.cc_bottom cc_36
.cc_top cc_37,.Lxtalabel10
	.ascii	"C:/Users/user/workspace/lib_dsp/src/dsp_dct.xc"
	.byte	0
	.long	132
	.long	135
	.long	.Lxtalabel10
.cc_bottom cc_37
.cc_top cc_38,.Lxtalabel11
	.ascii	"C:/Users/user/workspace/lib_dsp/src/dsp_dct.xc"
	.byte	0
	.long	138
	.long	139
	.long	.Lxtalabel11
.cc_bottom cc_38
.Lentries_end3:
	.section	.trap_info,"",@progbits
.Ltrap_info_entries_start0:
	.long	.Ltrap_info_entries_end0-.Ltrap_info_entries_start0
	.long	1
.Ltrap_info_entries_end0: