	.text
	.file	"beclear_srtvbf.c"
	.section	.cp.rodata.cst4,"aMc",@progbits,4
	.cc_top .LCPI0_0.data,.LCPI0_0
	.align	4
	.type	.LCPI0_0,@object
	.size	.LCPI0_0, 4
.LCPI0_0:
	.long	122940
	.cc_bottom .LCPI0_0.data
	.cc_top .LCPI0_1.data,.LCPI0_1
	.align	4
	.type	.LCPI0_1,@object
	.size	.LCPI0_1, 4
.LCPI0_1:
	.long	4294967280
	.cc_bottom .LCPI0_1.data
	.cc_top .LCPI0_2.data,.LCPI0_2
	.align	4
	.type	.LCPI0_2,@object
	.size	.LCPI0_2, 4
.LCPI0_2:
	.long	4294966615
	.cc_bottom .LCPI0_2.data
	.text
	.globl	BeClear_SRTVBF_ReadInput
	.align	4
	.type	BeClear_SRTVBF_ReadInput,@function
	.cc_top BeClear_SRTVBF_ReadInput.function,BeClear_SRTVBF_ReadInput
BeClear_SRTVBF_ReadInput:
.Lfunc_begin0:
	.loc	2 259 0
	.cfi_startproc
	.issue_mode dual
	{
		nop
		dualentsp 0
	}
	{
		extsp 2
		nop
	}
.Ltmp0:
	.cfi_def_cfa_offset 8
	{
		nop
		stw r4, sp[0]
	}
.Ltmp1:
	.cfi_offset 4, -8
.Ltmp2:
	.loc	2 323 9 prologue_end
	ldw r3, dp[mics]
	.loc	2 324 9
	ldw r0, dp[aec_ap]
	ldw r1, cp[.LCPI0_0]
	.loc	2 324 9
	{
		add r0, r0, r1
		nop
	}
	{
		nop
		ldw r0, r0[0]
	}
	{
		nop
		ldw r2, r3[0]
	}
.Ltmp3:
	.loc	9 300 5
	ldaw r11, r2[-4]
	ldw r1, cp[.LCPI0_1]
	{
		nop
		stw r1, r11[0]
	}
.Ltmp4:
	.loc	9 637 5
	ldaw r11, r2[-3]
	.loc	9 637 5
	{
		sub r11, r2, 8
		stw r0, r11[0]
	}
	ldw r2, cp[.LCPI0_2]
.Ltmp5:
	{
		nop
		stw r2, r11[0]
	}
.Ltmp6:
	{
		nop
		ldw r11, r3[1]
	}
.Ltmp7:
	.loc	9 300 5
	ldaw r4, r11[-4]
	{
		nop
		stw r1, r4[0]
	}
.Ltmp8:
	.loc	9 637 5
	ldaw r4, r11[-3]
	.loc	9 637 5
	{
		sub r11, r11, 8
		stw r0, r4[0]
	}
	{
		nop
		stw r2, r11[0]
	}
	{
		nop
		ldw r11, r3[2]
	}
.Ltmp9:
	.loc	9 300 5
	ldaw r4, r11[-4]
	{
		nop
		stw r1, r4[0]
	}
.Ltmp10:
	.loc	9 637 5
	ldaw r4, r11[-3]
	.loc	9 637 5
	{
		sub r11, r11, 8
		stw r0, r4[0]
	}
	{
		nop
		stw r2, r11[0]
	}
	{
		nop
		ldw r3, r3[3]
	}
.Ltmp11:
	.loc	9 300 5
	ldaw r11, r3[-4]
	{
		nop
		stw r1, r11[0]
	}
.Ltmp12:
	.loc	9 637 5
	ldaw r11, r3[-3]
	.loc	9 637 5
	{
		sub r3, r3, 8
		stw r0, r11[0]
	}
	{
		nop
		stw r2, r3[0]
	}
.Ltmp13:
	.loc	2 328 9
	ldw r3, dp[far]
	{
		nop
		ldw r3, r3[0]
	}
.Ltmp14:
	.loc	9 300 5
	ldaw r11, r3[-4]
	{
		nop
		stw r1, r11[0]
	}
.Ltmp15:
	.loc	9 637 5
	ldaw r1, r3[-3]
	.loc	9 637 5
	{
		sub r0, r3, 8
		stw r0, r1[0]
	}
	{
		nop
		stw r2, r0[0]
	}
.Ltmp16:
	.loc	2 342 5
	ldw r0, dp[frameCnt]
	.loc	2 342 5
	{
		add r0, r0, 1
		nop
	}
	.loc	2 342 5
	stw r0, dp[frameCnt]
	{
		mkmsk r0, 1
		ldw r4, sp[0]
	}
	.loc	2 352 1
	{
		ldaw sp, sp[2]
		nop
	}
	{
		nop
		retsp 0
	}
	# RETURN_REG_HOLDER
.Ltmp17:
	.cc_bottom BeClear_SRTVBF_ReadInput.function
	.set	BeClear_SRTVBF_ReadInput.nstackwords,2
	.globl	BeClear_SRTVBF_ReadInput.nstackwords
	.set	BeClear_SRTVBF_ReadInput.maxcores,1
	.globl	BeClear_SRTVBF_ReadInput.maxcores
	.set	BeClear_SRTVBF_ReadInput.maxtimers,0
	.globl	BeClear_SRTVBF_ReadInput.maxtimers
	.set	BeClear_SRTVBF_ReadInput.maxchanends,0
	.globl	BeClear_SRTVBF_ReadInput.maxchanends
.Ltmp18:
	.size	BeClear_SRTVBF_ReadInput, .Ltmp18-BeClear_SRTVBF_ReadInput
.Lfunc_end0:
	.file	10 "C:/Users/user/workspace/lib_xbeclear/inc\\APESobj.h"
	.cfi_endproc

	.section	.cp.rodata.cst4,"aMc",@progbits,4
	.cc_top .LCPI1_0.data,.LCPI1_0
	.align	4
	.type	.LCPI1_0,@object
	.size	.LCPI1_0, 4
.LCPI1_0:
	.long	71040
	.cc_bottom .LCPI1_0.data
	.cc_top .LCPI1_1.data,.LCPI1_1
	.align	4
	.type	.LCPI1_1,@object
	.size	.LCPI1_1, 4
.LCPI1_1:
	.long	4294967280
	.cc_bottom .LCPI1_1.data
	.text
	.globl	BeClear_SRTVBF_WriteOutput
	.align	4
	.type	BeClear_SRTVBF_WriteOutput,@function
	.cc_top BeClear_SRTVBF_WriteOutput.function,BeClear_SRTVBF_WriteOutput
BeClear_SRTVBF_WriteOutput:
.Lfunc_begin1:
	.loc	2 371 0
	.cfi_startproc
	.issue_mode dual
	{
		nop
		dualentsp 6
	}
.Ltmp19:
	.cfi_def_cfa_offset 24
.Ltmp20:
	.cfi_offset 15, 0
	std r5, r4, sp[1]
.Ltmp21:
	.cfi_offset 4, -16
.Ltmp22:
	.cfi_offset 5, -12
	{
		nop
		stw r6, sp[4]
	}
.Ltmp23:
	.cfi_offset 6, -8
.Ltmp24:
	.loc	2 377 9 prologue_end
	ldw r0, dp[bap_ap]
	ldw r6, cp[.LCPI1_0]
	.loc	2 377 9
	{
		add r0, r0, r6
		nop
	}
	{
		nop
		ldw r1, r0[0]
	}
	.loc	2 377 9
	ldw r0, dp[q]
	{
		nop
		ldw r3, r0[0]
	}
	.loc	2 377 9
	{
		ldc r4, 0
		stw r3, sp[1]
	}
	ldw r5, cp[.LCPI1_1]
	{
		mov r0, r4
		mov r2, r5
	}
	bl RFVectDenormalize_s
.Ltmp25:
	.loc	2 377 9
	ldw r0, dp[bap_ap]
	.loc	2 377 9
	{
		add r0, r0, r6
		nop
	}
	{
		nop
		ldw r1, r0[0]
	}
	.loc	2 377 9
	ldw r0, dp[q]
	{
		nop
		ldw r3, r0[1]
	}
	.loc	2 377 9
	{
		mov r0, r4
		stw r3, sp[1]
	}
	{
		mov r2, r5
		nop
	}
	bl RFVectDenormalize_s
.Ltmp26:
	.loc	2 407 5
	ldw r0, dp[BeClear_SRTVBF_WriteOutput.writeBuffNo]
	.loc	2 407 5
	{
		add r0, r0, 1
		nop
	}
	.loc	2 408 8
.Ltmp27:
	{
		eq r1, r0, 3
		nop
	}
	bt r1, .LBB1_2
	.loc	2 408 8
	{
		mov r4, r0
		nop
	}
.LBB1_2:
	.loc	2 409 9
	stw r4, dp[BeClear_SRTVBF_WriteOutput.writeBuffNo]
.Ltmp28:
	.loc	2 410 5
	{
		shl r0, r4, 3
		nop
	}
	ldaw r1, dp[q_a]
	{
		add r0, r1, r0
		nop
	}
	.loc	2 410 5
	stw r0, dp[q]
	{
		nop
		ldw r6, sp[4]
	}
	.loc	2 413 1
	ldd r5, r4, sp[1]
	{
		nop
		retsp 6
	}
	# RETURN_REG_HOLDER
.Ltmp29:
	.cc_bottom BeClear_SRTVBF_WriteOutput.function
	.set	BeClear_SRTVBF_WriteOutput.nstackwords,(RFVectDenormalize_s.nstackwords + 6)
	.globl	BeClear_SRTVBF_WriteOutput.nstackwords
	.set	BeClear_SRTVBF_WriteOutput.maxcores,RFVectDenormalize_s.maxcores $M 1
	.globl	BeClear_SRTVBF_WriteOutput.maxcores
	.set	BeClear_SRTVBF_WriteOutput.maxtimers,RFVectDenormalize_s.maxtimers $M 0
	.globl	BeClear_SRTVBF_WriteOutput.maxtimers
	.set	BeClear_SRTVBF_WriteOutput.maxchanends,RFVectDenormalize_s.maxchanends $M 0
	.globl	BeClear_SRTVBF_WriteOutput.maxchanends
.Ltmp30:
	.size	BeClear_SRTVBF_WriteOutput, .Ltmp30-BeClear_SRTVBF_WriteOutput
.Lfunc_end1:
	.cfi_endproc

	.globl	BeClear_SRTVBF_WriteOutputLastPacket
	.align	4
	.type	BeClear_SRTVBF_WriteOutputLastPacket,@function
	.cc_top BeClear_SRTVBF_WriteOutputLastPacket.function,BeClear_SRTVBF_WriteOutputLastPacket
BeClear_SRTVBF_WriteOutputLastPacket:
.Lfunc_begin2:
	.loc	2 428 0
	.cfi_startproc
	.issue_mode dual
	{
		nop
		dualentsp 0
	}
.Ltmp31:
	{
		nop
		retsp 0
	}
	.loc	2 435 1 prologue_end
.Ltmp32:
	# RETURN_REG_HOLDER
.Ltmp33:
	.cc_bottom BeClear_SRTVBF_WriteOutputLastPacket.function
	.set	BeClear_SRTVBF_WriteOutputLastPacket.nstackwords,0
	.globl	BeClear_SRTVBF_WriteOutputLastPacket.nstackwords
	.set	BeClear_SRTVBF_WriteOutputLastPacket.maxcores,1
	.globl	BeClear_SRTVBF_WriteOutputLastPacket.maxcores
	.set	BeClear_SRTVBF_WriteOutputLastPacket.maxtimers,0
	.globl	BeClear_SRTVBF_WriteOutputLastPacket.maxtimers
	.set	BeClear_SRTVBF_WriteOutputLastPacket.maxchanends,0
	.globl	BeClear_SRTVBF_WriteOutputLastPacket.maxchanends
.Ltmp34:
	.size	BeClear_SRTVBF_WriteOutputLastPacket, .Ltmp34-BeClear_SRTVBF_WriteOutputLastPacket
.Lfunc_end2:
	.cfi_endproc

	.section	.cp.rodata.cst4,"aMc",@progbits,4
	.cc_top .LCPI3_0.data,.LCPI3_0
	.align	4
	.type	.LCPI3_0,@object
	.size	.LCPI3_0, 4
.LCPI3_0:
	.long	122952
	.cc_bottom .LCPI3_0.data
	.cc_top .LCPI3_1.data,.LCPI3_1
	.align	4
	.type	.LCPI3_1,@object
	.size	.LCPI3_1, 4
.LCPI3_1:
	.long	4294967292
	.cc_bottom .LCPI3_1.data
	.cc_top .LCPI3_2.data,.LCPI3_2
	.align	4
	.type	.LCPI3_2,@object
	.size	.LCPI3_2, 4
.LCPI3_2:
	.long	122960
	.cc_bottom .LCPI3_2.data
	.cc_top .LCPI3_3.data,.LCPI3_3
	.align	4
	.type	.LCPI3_3,@object
	.size	.LCPI3_3, 4
.LCPI3_3:
	.long	4294967280
	.cc_bottom .LCPI3_3.data
	.text
	.globl	BeClear_SRTVBF_WriteAecCoefs
	.align	4
	.type	BeClear_SRTVBF_WriteAecCoefs,@function
	.cc_top BeClear_SRTVBF_WriteAecCoefs.function,BeClear_SRTVBF_WriteAecCoefs
BeClear_SRTVBF_WriteAecCoefs:
.Lfunc_begin3:
	.loc	2 450 0
	.cfi_startproc
	.issue_mode dual
	{
		nop
		dualentsp 6
	}
.Ltmp35:
	.cfi_def_cfa_offset 24
.Ltmp36:
	.cfi_offset 15, 0
	std r5, r4, sp[1]
.Ltmp37:
	.cfi_offset 4, -16
.Ltmp38:
	.cfi_offset 5, -12
	std r7, r6, sp[2]
.Ltmp39:
	.cfi_offset 6, -8
.Ltmp40:
	.cfi_offset 7, -4
	{
		mov r4, r0
		nop
	}
.Ltmp41:
	.loc	2 451 9 prologue_end
	ldw r0, dp[frameCnt]
	bt r0, .LBB3_2
.Ltmp42:
	.loc	2 455 9
	ldw r0, dp[aec_ap]
	ldw r7, cp[.LCPI3_0]
	.loc	2 455 9
	{
		add r0, r0, r7
		nop
	}
.Ltmp43:
	{
		nop
		ldw r0, r0[0]
	}
.Ltmp44:
	.loc	10 1088 5
	{
		ldc r1, 19
		ldw r6, r4[0]
	}
.Ltmp45:
	.loc	10 965 5
	ldaw r0, r1[r0]
	ldw r1, cp[.LCPI3_1]
	.loc	10 965 5
	{
		and r0, r0, r1
		nop
	}
.Ltmp46:
	.loc	10 1089 23
	{
		add r0, r6, r0
		nop
	}
	{
		nop
		stw r0, r4[0]
	}
.Ltmp47:
	.loc	9 404 5
	ldaw r5, r6[4]
.Ltmp48:
	.loc	2 456 9
	ldw r0, dp[aec_ap]
	ldw r1, cp[.LCPI3_2]
	.loc	2 456 9
	{
		add r0, r0, r1
		nop
	}
	{
		nop
		ldw r0, r0[0]
	}
	.loc	2 456 9
	{
		ldc r1, 0
		stw r0, sp[1]
	}
	{
		mov r0, r4
		mov r2, r1
	}
	{
		mov r3, r5
		nop
	}
	bl SRTVBF_GetAECCoefs
	.loc	2 457 9
	ldw r0, dp[aec_ap]
	.loc	2 457 9
	{
		add r0, r0, r7
		nop
	}
	{
		nop
		ldw r1, r0[0]
	}
	{
		nop
		stw r5, sp[1]
	}
	ldw r2, cp[.LCPI3_3]
	.loc	2 457 9
	{
		mov r0, r4
		mov r3, r5
	}
	bl RFVectDenormalize_s
.Ltmp49:
	{
		nop
		stw r6, r4[0]
	}
.Ltmp50:
.LBB3_2:
	.loc	2 463 1
	ldd r7, r6, sp[2]
	ldd r5, r4, sp[1]
	{
		nop
		retsp 6
	}
	# RETURN_REG_HOLDER
.Ltmp51:
	.cc_bottom BeClear_SRTVBF_WriteAecCoefs.function
	.set	BeClear_SRTVBF_WriteAecCoefs.nstackwords,((SRTVBF_GetAECCoefs.nstackwords $M RFVectDenormalize_s.nstackwords) + 6)
	.globl	BeClear_SRTVBF_WriteAecCoefs.nstackwords
	.set	BeClear_SRTVBF_WriteAecCoefs.maxcores,RFVectDenormalize_s.maxcores $M SRTVBF_GetAECCoefs.maxcores $M 1
	.globl	BeClear_SRTVBF_WriteAecCoefs.maxcores
	.set	BeClear_SRTVBF_WriteAecCoefs.maxtimers,RFVectDenormalize_s.maxtimers $M SRTVBF_GetAECCoefs.maxtimers $M 0
	.globl	BeClear_SRTVBF_WriteAecCoefs.maxtimers
	.set	BeClear_SRTVBF_WriteAecCoefs.maxchanends,RFVectDenormalize_s.maxchanends $M SRTVBF_GetAECCoefs.maxchanends $M 0
	.globl	BeClear_SRTVBF_WriteAecCoefs.maxchanends
.Ltmp52:
	.size	BeClear_SRTVBF_WriteAecCoefs, .Ltmp52-BeClear_SRTVBF_WriteAecCoefs
.Lfunc_end3:
	.file	11 "C:/Users/user/workspace/lib_xbeclear/inc\\RVectProc.h"
	.cfi_endproc

	.section	.cp.rodata.cst4,"aMc",@progbits,4
	.cc_top .LCPI4_0.data,.LCPI4_0
	.align	4
	.type	.LCPI4_0,@object
	.size	.LCPI4_0, 4
.LCPI4_0:
	.long	103400
	.cc_bottom .LCPI4_0.data
	.cc_top .LCPI4_1.data,.LCPI4_1
	.align	4
	.type	.LCPI4_1,@object
	.size	.LCPI4_1, 4
.LCPI4_1:
	.long	2871134157
	.cc_bottom .LCPI4_1.data
	.cc_top .LCPI4_2.data,.LCPI4_2
	.align	4
	.type	.LCPI4_2,@object
	.size	.LCPI4_2, 4
.LCPI4_2:
	.long	4011418095
	.cc_bottom .LCPI4_2.data
	.cc_top .LCPI4_3.data,.LCPI4_3
	.align	4
	.type	.LCPI4_3,@object
	.size	.LCPI4_3, 4
.LCPI4_3:
	.long	4262003164
	.cc_bottom .LCPI4_3.data
	.cc_top .LCPI4_4.data,.LCPI4_4
	.align	4
	.type	.LCPI4_4,@object
	.size	.LCPI4_4, 4
.LCPI4_4:
	.long	2871007147
	.cc_bottom .LCPI4_4.data
	.cc_top .LCPI4_5.data,.LCPI4_5
	.align	4
	.type	.LCPI4_5,@object
	.size	.LCPI4_5, 4
.LCPI4_5:
	.long	122932
	.cc_bottom .LCPI4_5.data
	.cc_top .LCPI4_6.data,.LCPI4_6
	.align	4
	.type	.LCPI4_6,@object
	.size	.LCPI4_6, 4
.LCPI4_6:
	.long	122936
	.cc_bottom .LCPI4_6.data
	.cc_top .LCPI4_7.data,.LCPI4_7
	.align	4
	.type	.LCPI4_7,@object
	.size	.LCPI4_7, 4
.LCPI4_7:
	.long	122940
	.cc_bottom .LCPI4_7.data
	.cc_top .LCPI4_8.data,.LCPI4_8
	.align	4
	.type	.LCPI4_8,@object
	.size	.LCPI4_8, 4
.LCPI4_8:
	.long	1182400512
	.cc_bottom .LCPI4_8.data
	.cc_top .LCPI4_9.data,.LCPI4_9
	.align	4
	.type	.LCPI4_9,@object
	.size	.LCPI4_9, 4
.LCPI4_9:
	.long	122944
	.cc_bottom .LCPI4_9.data
	.cc_top .LCPI4_10.data,.LCPI4_10
	.align	4
	.type	.LCPI4_10,@object
	.size	.LCPI4_10, 4
.LCPI4_10:
	.long	122952
	.cc_bottom .LCPI4_10.data
	.cc_top .LCPI4_11.data,.LCPI4_11
	.align	4
	.type	.LCPI4_11,@object
	.size	.LCPI4_11, 4
.LCPI4_11:
	.long	122956
	.cc_bottom .LCPI4_11.data
	.cc_top .LCPI4_12.data,.LCPI4_12
	.align	4
	.type	.LCPI4_12,@object
	.size	.LCPI4_12, 4
.LCPI4_12:
	.long	1077936128
	.cc_bottom .LCPI4_12.data
	.cc_top .LCPI4_13.data,.LCPI4_13
	.align	4
	.type	.LCPI4_13,@object
	.size	.LCPI4_13, 4
.LCPI4_13:
	.long	841731191
	.cc_bottom .LCPI4_13.data
	.cc_top .LCPI4_14.data,.LCPI4_14
	.align	4
	.type	.LCPI4_14,@object
	.size	.LCPI4_14, 4
.LCPI4_14:
	.long	1203854336
	.cc_bottom .LCPI4_14.data
	.cc_top .LCPI4_15.data,.LCPI4_15
	.align	4
	.type	.LCPI4_15,@object
	.size	.LCPI4_15, 4
.LCPI4_15:
	.long	1063675494
	.cc_bottom .LCPI4_15.data
	.cc_top .LCPI4_16.data,.LCPI4_16
	.align	4
	.type	.LCPI4_16,@object
	.size	.LCPI4_16, 4
.LCPI4_16:
	.long	122960
	.cc_bottom .LCPI4_16.data
	.text
	.globl	BeClear_SRTVBF_AecInit
	.align	4
	.type	BeClear_SRTVBF_AecInit,@function
	.cc_top BeClear_SRTVBF_AecInit.function,BeClear_SRTVBF_AecInit
BeClear_SRTVBF_AecInit:
.Lfunc_begin4:
	.loc	2 488 0
	.cfi_startproc
	.issue_mode dual
	{
		nop
		dualentsp 14
	}
.Ltmp53:
	.cfi_def_cfa_offset 56
.Ltmp54:
	.cfi_offset 15, 0
	std r5, r4, sp[3]
.Ltmp55:
	.cfi_offset 4, -32
.Ltmp56:
	.cfi_offset 5, -28
	std r7, r6, sp[4]
.Ltmp57:
	.cfi_offset 6, -24
.Ltmp58:
	.cfi_offset 7, -20
	std r9, r8, sp[5]
.Ltmp59:
	.cfi_offset 8, -16
.Ltmp60:
	.cfi_offset 9, -12
.Ltmp61:
	.cfi_offset 10, -8
.Ltmp62:
	{
		mov r6, r2
		stw r10, sp[12]
	}
.Ltmp63:
	{
		mov r7, r1
		mov r4, r0
	}
.Ltmp64:
	.loc	2 499 5 prologue_end
	ldaw r0, dp[aec_appl]
	stw r0, dp[aec_ap]
	ldaw r1, dp[aec_appl+103400]
	.loc	2 507 5
	bl APES_SetMemPools
	.loc	2 512 5
	ldaw r11, cp[OBJ_UN_INIT]
	{
		mov r5, r11
		ldc r8, 20
	}
	{
		mov r0, r4
		mov r1, r5
	}
	{
		mov r2, r8
		nop
	}
	bl __memcpy_4
	.loc	2 513 5
	{
		mov r0, r7
		mov r1, r5
	}
	{
		mov r2, r8
		nop
	}
	bl __memcpy_4
	.loc	2 514 5
	{
		mov r0, r6
		mov r1, r5
	}
	{
		mov r2, r8
		nop
	}
	bl __memcpy_4
	ldw r8, cp[.LCPI4_0]
.Ltmp65:
	{
		nop
		stw r8, r4[3]
	}
	ldc r9, 8320
	{
		nop
		stw r9, r4[1]
	}
	.loc	2 517 5
	ldaw r11, cp[.L.str1]
	{
		mov r0, r4
		mov r1, r11
	}
	bl OBJ_Init
	{
		ldc r5, 0
		nop
	}
.Ltmp66:
	{
		nop
		stw r5, r7[3]
	}
	{
		nop
		stw r9, r7[1]
	}
	.loc	2 519 5
	ldaw r11, cp[.L.str2]
	{
		mov r0, r7
		mov r1, r11
	}
	bl OBJ_Init
.Ltmp67:
	{
		nop
		stw r5, r6[3]
	}
	ldc r0, 2856
	{
		nop
		stw r0, r6[1]
	}
	.loc	2 521 5
	ldaw r11, cp[.L.str3]
	{
		mov r0, r6
		mov r1, r11
	}
	bl OBJ_Init
	.loc	2 540 9
.Ltmp68:
	ldw r0, dp[aec_ap]
.Ltmp69:
	ldc r1, 12925
	ldw r2, cp[.LCPI4_1]
	ldw r3, cp[.LCPI4_2]
	{
		mov r11, r0
		nop
	}
.Ltmp70:
.LBB4_1:
	.loc	2 544 13
	{
		add r6, r11, 8
		nop
	}
.Ltmp71:
	.loc	2 544 13
	std r2, r3, r11[0]
.Ltmp72:
	.loc	2 542 9
	{
		sub r1, r1, 1
		nop
	}
.xtaloop 12925
	# LOOPMARKER 0
	{
		mov r11, r6
		nop
	}
.Ltmp73:
	.loc	2 542 9
	bt r1, .LBB4_1
.Ltmp74:
	.loc	2 546 9
	{
		add r11, r0, r8
		nop
	}
.Ltmp75:
	ldc r1, 2437
	ldw r2, cp[.LCPI4_3]
	ldw r3, cp[.LCPI4_4]
.Ltmp76:
.LBB4_3:
	.loc	2 550 13
	{
		add r6, r11, 8
		nop
	}
.Ltmp77:
	.loc	2 550 13
	std r2, r3, r11[0]
.Ltmp78:
	.loc	2 548 9
	{
		sub r1, r1, 1
		nop
	}
.xtaloop 2437
	# LOOPMARKER 1
	{
		mov r11, r6
		nop
	}
.Ltmp79:
	.loc	2 548 9
	bt r1, .LBB4_3
.Ltmp80:
	ldw r1, cp[.LCPI4_5]
	.loc	2 558 5
	{
		add r1, r0, r1
		ldc r2, 4
	}
	{
		nop
		stw r2, r1[0]
	}
	ldw r1, cp[.LCPI4_6]
	.loc	2 559 5
	{
		add r1, r0, r1
		mkmsk r6, 1
	}
	{
		nop
		stw r6, r1[0]
	}
	ldw r1, cp[.LCPI4_7]
	.loc	2 560 5
	{
		add r0, r0, r1
		nop
	}
	ldc r1, 256
	{
		nop
		stw r1, r0[0]
	}
.Ltmp81:
	ldw r1, cp[.LCPI4_8]
	.loc	2 561 22
	{
		mov r0, r4
		nop
	}
	bl PFLOAT_Load_f
	.loc	2 561 22
	ldw r2, dp[aec_ap]
	ldw r7, cp[.LCPI4_9]
	.loc	2 561 22
	{
		add r3, r2, r7
		nop
	}
	.loc	2 561 22
	std r1, r0, r3[0]
	ldw r8, cp[.LCPI4_10]
	.loc	2 562 5
	{
		add r0, r2, r8
		nop
	}
	ldc r1, 2048
	{
		nop
		stw r1, r0[0]
	}
	ldw r9, cp[.LCPI4_11]
	.loc	2 566 5
	{
		add r0, r2, r9
		ldc r1, 40
	}
	{
		nop
		stw r1, r0[0]
	}
	.loc	2 572 5
	stw r5, dp[aecfreezeonoff]
	ldw r1, cp[.LCPI4_12]
	.loc	2 573 23
	{
		mov r0, r4
		nop
	}
	bl PFLOAT_Load_f
	.loc	2 573 23
	ldaw r2, dp[aecnorm]
	std r1, r0, r2[0]
	.loc	2 574 23
	{
		mov r0, r4
		mov r1, r5
	}
	bl PFLOAT_Load_f
	.loc	2 574 23
	ldaw r2, dp[rt60]
	std r1, r0, r2[0]
	.loc	2 575 5
	stw r6, dp[hpfonoff]
	.loc	2 576 5
	stw r6, dp[rt60onoff]
	ldw r1, cp[.LCPI4_13]
	.loc	2 577 23
	{
		mov r0, r4
		nop
	}
	bl PFLOAT_Load_f
	.loc	2 577 23
	ldaw r2, dp[aecsilencelevel]
	std r1, r0, r2[0]
	.loc	2 578 5
	stw r5, dp[aecsilencemode]
	ldw r1, cp[.LCPI4_14]
	.loc	2 579 23
	{
		mov r0, r4
		nop
	}
	bl PFLOAT_Load_f
	.loc	2 579 23
	ldaw r10, dp[aecerlmax]
	std r1, r0, r10[0]
	ldw r1, cp[.LCPI4_15]
	.loc	2 580 23
	{
		mov r0, r4
		nop
	}
	bl PFLOAT_Load_f
	.loc	2 580 23
	ldaw r2, dp[max_rt60]
	std r1, r0, r2[0]
	.loc	2 584 5
	stw r5, dp[profilingonoff]
	.loc	2 590 5
	ldw r0, dp[aec_ap]
	ldw r1, cp[.LCPI4_6]
	.loc	2 590 5
	{
		add r1, r0, r1
		nop
	}
	{
		nop
		ldw r1, r1[0]
	}
	ldw r2, cp[.LCPI4_5]
	.loc	2 590 5
	{
		add r2, r0, r2
		nop
	}
	{
		nop
		ldw r2, r2[0]
	}
	ldw r3, cp[.LCPI4_7]
	.loc	2 590 5
	{
		add r3, r0, r3
		nop
	}
	.loc	2 590 5
	{
		add r11, r0, r7
		ldw r3, r3[0]
	}
	.loc	2 590 5
	ldd r5, r11, r11[0]
	.loc	2 590 5
	{
		add r7, r0, r9
		nop
	}
	.loc	2 590 5
	{
		add r7, r0, r8
		ldw r9, r7[0]
	}
	{
		nop
		ldw r8, r7[0]
	}
	ldw r7, cp[.LCPI4_16]
	.loc	2 590 5
	{
		add r0, r0, r7
		nop
	}
	.loc	2 590 5
	std r0, r8, sp[2]
	std r9, r5, sp[1]
	{
		mov r0, r4
		stw r11, sp[1]
	}
	bl SRTVBF_AEC_Init
.Ltmp82:
	{
		nop
		ldw r5, r4[0]
	}
.Ltmp83:
	ldc r0, 120
.Ltmp84:
	.loc	10 1089 23
	{
		add r0, r5, r0
		nop
	}
.Ltmp85:
	.loc	10 1089 23
	{
		mkmsk r0, 3
		stw r0, r4[0]
	}
	{
		nop
		stw r0, r5[0]
	}
	{
		nop
		stw r6, r5[2]
	}
.Ltmp86:
	.loc	2 572 5
	ldaw r0, dp[aecfreezeonoff]
.Ltmp87:
	.loc	2 601 5
	{
		ldc r0, 21
		stw r0, r5[1]
	}
	{
		nop
		stw r0, r5[3]
	}
	{
		nop
		stw r6, r5[5]
	}
	.loc	2 573 23
	ldaw r0, dp[aecnorm]
.Ltmp88:
	.loc	2 605 5
	{
		ldc r0, 27
		stw r0, r5[4]
	}
	{
		nop
		stw r0, r5[6]
	}
	{
		nop
		stw r6, r5[8]
	}
	.loc	2 575 5
	ldaw r0, dp[hpfonoff]
.Ltmp89:
	.loc	2 613 5
	{
		ldc r0, 28
		stw r0, r5[7]
	}
	{
		nop
		stw r0, r5[9]
	}
	{
		nop
		stw r6, r5[11]
	}
	.loc	2 576 5
	ldaw r0, dp[rt60onoff]
.Ltmp90:
	.loc	2 617 5
	{
		ldc r0, 48
		stw r0, r5[10]
	}
	.loc	2 619 5
	{
		add r0, r5, r0
		ldc r1, 30
	}
	.loc	2 619 5
	{
		ldc r0, 56
		stw r1, r0[0]
	}
	.loc	2 620 5
	{
		add r0, r5, r0
		nop
	}
	.loc	2 620 5
	{
		ldc r0, 52
		stw r6, r0[0]
	}
	.loc	2 621 5
	{
		add r0, r5, r0
		nop
	}
	.loc	2 577 23
	ldaw r1, dp[aecsilencelevel]
.Ltmp91:
	.loc	2 621 5
	{
		ldc r0, 60
		stw r1, r0[0]
	}
	.loc	2 627 5
	{
		add r0, r5, r0
		ldc r1, 32
	}
	{
		nop
		stw r1, r0[0]
	}
	ldc r0, 68
	.loc	2 628 5
	{
		add r0, r5, r0
		nop
	}
	{
		nop
		stw r6, r0[0]
	}
	ldc r0, 64
	.loc	2 629 5
	{
		add r0, r5, r0
		nop
	}
	{
		nop
		stw r10, r0[0]
	}
	ldc r0, 72
.Ltmp92:
	.loc	2 631 5
	{
		add r0, r5, r0
		ldc r1, 36
	}
	{
		nop
		stw r1, r0[0]
	}
	ldc r0, 80
	.loc	2 632 5
	{
		add r0, r5, r0
		nop
	}
	{
		nop
		stw r6, r0[0]
	}
	ldc r0, 76
	.loc	2 633 5
	{
		add r0, r5, r0
		nop
	}
	.loc	2 580 23
	ldaw r1, dp[max_rt60]
	{
		nop
		stw r1, r0[0]
	}
	ldc r0, 84
.Ltmp93:
	.loc	2 635 5
	{
		add r0, r5, r0
		ldc r1, 23
	}
	{
		nop
		stw r1, r0[0]
	}
	ldc r0, 92
	.loc	2 636 5
	{
		add r0, r5, r0
		nop
	}
	{
		nop
		stw r6, r0[0]
	}
	ldc r0, 88
	.loc	2 637 5
	{
		add r0, r5, r0
		nop
	}
	.loc	2 584 5
	ldaw r1, dp[profilingonoff]
	{
		nop
		stw r1, r0[0]
	}
.Ltmp94:
	.loc	2 640 5
	ldw r0, dp[aec_ap]
	.loc	2 640 5
	{
		add r0, r0, r7
		nop
	}
	.loc	2 640 5
	{
		ldc r2, 8
		ldw r3, r0[0]
	}
	.loc	2 640 5
	{
		mov r0, r4
		mov r1, r5
	}
	bl SRTVBF_AEC_SetPar
	{
		nop
		stw r5, r4[0]
	}
	{
		nop
		ldw r10, sp[12]
	}
	.loc	2 651 1
	ldd r9, r8, sp[5]
	ldd r7, r6, sp[4]
	ldd r5, r4, sp[3]
.Ltmp95:
	{
		nop
		retsp 14
	}
	# RETURN_REG_HOLDER
.Ltmp96:
	.cc_bottom BeClear_SRTVBF_AecInit.function
	.set	BeClear_SRTVBF_AecInit.nstackwords,((APES_SetMemPools.nstackwords $M __memcpy_4.nstackwords $M OBJ_Init.nstackwords $M PFLOAT_Load_f.nstackwords $M SRTVBF_AEC_Init.nstackwords $M SRTVBF_AEC_SetPar.nstackwords) + 14)
	.globl	BeClear_SRTVBF_AecInit.nstackwords
	.set	BeClear_SRTVBF_AecInit.maxcores,APES_SetMemPools.maxcores $M OBJ_Init.maxcores $M PFLOAT_Load_f.maxcores $M SRTVBF_AEC_Init.maxcores $M SRTVBF_AEC_SetPar.maxcores $M 1
	.globl	BeClear_SRTVBF_AecInit.maxcores
	.set	BeClear_SRTVBF_AecInit.maxtimers,APES_SetMemPools.maxtimers $M OBJ_Init.maxtimers $M PFLOAT_Load_f.maxtimers $M SRTVBF_AEC_Init.maxtimers $M SRTVBF_AEC_SetPar.maxtimers $M 0
	.globl	BeClear_SRTVBF_AecInit.maxtimers
	.set	BeClear_SRTVBF_AecInit.maxchanends,APES_SetMemPools.maxchanends $M OBJ_Init.maxchanends $M PFLOAT_Load_f.maxchanends $M SRTVBF_AEC_Init.maxchanends $M SRTVBF_AEC_SetPar.maxchanends $M 0
	.globl	BeClear_SRTVBF_AecInit.maxchanends
.Ltmp97:
	.size	BeClear_SRTVBF_AecInit, .Ltmp97-BeClear_SRTVBF_AecInit
.Lfunc_end4:
	.cfi_endproc

	.section	.cp.rodata.cst4,"aMc",@progbits,4
	.cc_top .LCPI5_0.data,.LCPI5_0
	.align	4
	.type	.LCPI5_0,@object
	.size	.LCPI5_0, 4
.LCPI5_0:
	.long	122932
	.cc_bottom .LCPI5_0.data
	.cc_top .LCPI5_1.data,.LCPI5_1
	.align	4
	.type	.LCPI5_1,@object
	.size	.LCPI5_1, 4
.LCPI5_1:
	.long	122896
	.cc_bottom .LCPI5_1.data
	.cc_top .LCPI5_2.data,.LCPI5_2
	.align	4
	.type	.LCPI5_2,@object
	.size	.LCPI5_2, 4
.LCPI5_2:
	.long	122912
	.cc_bottom .LCPI5_2.data
	.cc_top .LCPI5_3.data,.LCPI5_3
	.align	4
	.type	.LCPI5_3,@object
	.size	.LCPI5_3, 4
.LCPI5_3:
	.long	122928
	.cc_bottom .LCPI5_3.data
	.cc_top .LCPI5_4.data,.LCPI5_4
	.align	4
	.type	.LCPI5_4,@object
	.size	.LCPI5_4, 4
.LCPI5_4:
	.long	122960
	.cc_bottom .LCPI5_4.data
	.text
	.globl	BeClear_SRTVBF_AecInitApp
	.align	4
	.type	BeClear_SRTVBF_AecInitApp,@function
	.cc_top BeClear_SRTVBF_AecInitApp.function,BeClear_SRTVBF_AecInitApp
BeClear_SRTVBF_AecInitApp:
.Lfunc_begin5:
	.loc	2 668 0
	.cfi_startproc
	.issue_mode dual
	{
		nop
		dualentsp 8
	}
.Ltmp98:
	.cfi_def_cfa_offset 32
.Ltmp99:
	.cfi_offset 15, 0
	std r5, r4, sp[1]
.Ltmp100:
	.cfi_offset 4, -24
.Ltmp101:
	.cfi_offset 5, -20
	std r7, r6, sp[2]
.Ltmp102:
	.cfi_offset 6, -16
.Ltmp103:
	.cfi_offset 7, -12
	{
		nop
		stw r8, sp[6]
	}
.Ltmp104:
	.cfi_offset 8, -8
.Ltmp105:
	.loc	2 677 9 prologue_end
	ldw r3, dp[mics]
	ldaw r11, dp[x_mics+16]
	{
		nop
		stw r11, r3[0]
	}
	.loc	2 678 9
	ldw r3, dp[mics1]
	ldaw r11, dp[x_mics+4176]
	{
		nop
		stw r11, r3[0]
	}
.Ltmp106:
	.loc	2 677 9
	ldw r3, dp[mics]
	ldaw r11, dp[x_mics+1056]
	{
		nop
		stw r11, r3[1]
	}
	.loc	2 678 9
	ldw r3, dp[mics1]
	ldaw r11, dp[x_mics+5216]
	{
		nop
		stw r11, r3[1]
	}
	.loc	2 677 9
	ldw r3, dp[mics]
	ldaw r11, dp[x_mics+2096]
	{
		nop
		stw r11, r3[2]
	}
	.loc	2 678 9
	ldw r3, dp[mics1]
	ldaw r11, dp[x_mics+6256]
	{
		nop
		stw r11, r3[2]
	}
	.loc	2 677 9
	ldw r3, dp[mics]
	ldaw r11, dp[x_mics+3136]
	{
		nop
		stw r11, r3[3]
	}
	.loc	2 678 9
	ldw r3, dp[mics1]
	ldaw r11, dp[x_mics+7296]
	{
		nop
		stw r11, r3[3]
	}
.Ltmp107:
	.loc	2 686 9
	ldw r3, dp[far]
	ldaw r11, dp[x_far+16]
	{
		nop
		stw r11, r3[0]
	}
	.loc	2 687 9
	ldw r3, dp[far1]
	ldaw r11, dp[x_far+1056]
	{
		nop
		stw r11, r3[0]
	}
.Ltmp108:
	.loc	2 696 5
	ldw r11, dp[aec_ap]
	ldw r3, cp[.LCPI5_0]
	.loc	2 696 5
	{
		add r4, r11, r3
		nop
	}
	{
		nop
		ldw r4, r4[0]
	}
	bf r4, .LBB5_3
.Ltmp109:
	{
		ldc r4, 0
		nop
	}
	ldw r5, cp[.LCPI5_1]
	ldw r6, cp[.LCPI5_2]
	ldc r7, 1040
.Ltmp110:
.LBB5_2:
	ldaw r11, r11[r4]
	{
		add r11, r11, r5
		nop
	}
	{
		nop
		stw r0, r11[0]
	}
	.loc	2 699 9
.Ltmp111:
	ldw r11, dp[aec_ap]
	ldaw r11, r11[r4]
	{
		add r11, r11, r6
		nop
	}
.Ltmp112:
	.loc	2 699 9
	{
		add r4, r4, 1
		stw r1, r11[0]
	}
.Ltmp113:
	.loc	2 696 5
	ldw r11, dp[aec_ap]
	.loc	2 696 5
	{
		add r8, r11, r3
		nop
	}
	.loc	2 696 5
	{
		add r0, r0, r7
		ldw r8, r8[0]
	}
	.loc	2 696 5
	{
		add r1, r1, r7
		lsu r8, r4, r8
	}
	bt r8, .LBB5_2
.Ltmp114:
.LBB5_3:
	ldw r0, cp[.LCPI5_3]
	.loc	2 701 5
	{
		add r1, r11, r0
		nop
	}
	{
		nop
		stw r2, r1[0]
	}
	.loc	2 706 5
	ldw r1, dp[aec_ap]
	.loc	2 706 5
	{
		add r0, r1, r0
		nop
	}
	{
		nop
		ldw r0, r0[0]
	}
	ldw r2, cp[.LCPI5_4]
.Ltmp115:
	.loc	2 706 5
	{
		add r1, r1, r2
		nop
	}
	{
		nop
		ldw r1, r1[0]
	}
	.loc	2 706 5
	bl SRTVBF_AEC_InitApp
	{
		nop
		ldw r8, sp[6]
	}
	.loc	2 712 1
	ldd r7, r6, sp[2]
	ldd r5, r4, sp[1]
	{
		nop
		retsp 8
	}
	# RETURN_REG_HOLDER
.Ltmp116:
	.cc_bottom BeClear_SRTVBF_AecInitApp.function
	.set	BeClear_SRTVBF_AecInitApp.nstackwords,(SRTVBF_AEC_InitApp.nstackwords + 8)
	.globl	BeClear_SRTVBF_AecInitApp.nstackwords
	.set	BeClear_SRTVBF_AecInitApp.maxcores,SRTVBF_AEC_InitApp.maxcores $M 1
	.globl	BeClear_SRTVBF_AecInitApp.maxcores
	.set	BeClear_SRTVBF_AecInitApp.maxtimers,SRTVBF_AEC_InitApp.maxtimers $M 0
	.globl	BeClear_SRTVBF_AecInitApp.maxtimers
	.set	BeClear_SRTVBF_AecInitApp.maxchanends,SRTVBF_AEC_InitApp.maxchanends $M 0
	.globl	BeClear_SRTVBF_AecInitApp.maxchanends
.Ltmp117:
	.size	BeClear_SRTVBF_AecInitApp, .Ltmp117-BeClear_SRTVBF_AecInitApp
.Lfunc_end5:
	.cfi_endproc

	.section	.cp.rodata.cst4,"aMc",@progbits,4
	.cc_top .LCPI6_0.data,.LCPI6_0
	.align	4
	.type	.LCPI6_0,@object
	.size	.LCPI6_0, 4
.LCPI6_0:
	.long	103392
	.cc_bottom .LCPI6_0.data
	.cc_top .LCPI6_1.data,.LCPI6_1
	.align	4
	.type	.LCPI6_1,@object
	.size	.LCPI6_1, 4
.LCPI6_1:
	.long	2871134157
	.cc_bottom .LCPI6_1.data
	.cc_top .LCPI6_2.data,.LCPI6_2
	.align	4
	.type	.LCPI6_2,@object
	.size	.LCPI6_2, 4
.LCPI6_2:
	.long	4011418095
	.cc_bottom .LCPI6_2.data
	.cc_top .LCPI6_3.data,.LCPI6_3
	.align	4
	.type	.LCPI6_3,@object
	.size	.LCPI6_3, 4
.LCPI6_3:
	.long	111712
	.cc_bottom .LCPI6_3.data
	.cc_top .LCPI6_4.data,.LCPI6_4
	.align	4
	.type	.LCPI6_4,@object
	.size	.LCPI6_4, 4
.LCPI6_4:
	.long	4262003164
	.cc_bottom .LCPI6_4.data
	.cc_top .LCPI6_5.data,.LCPI6_5
	.align	4
	.type	.LCPI6_5,@object
	.size	.LCPI6_5, 4
.LCPI6_5:
	.long	2871007147
	.cc_bottom .LCPI6_5.data
	.cc_top .LCPI6_6.data,.LCPI6_6
	.align	4
	.type	.LCPI6_6,@object
	.size	.LCPI6_6, 4
.LCPI6_6:
	.long	120032
	.cc_bottom .LCPI6_6.data
	.cc_top .LCPI6_7.data,.LCPI6_7
	.align	4
	.type	.LCPI6_7,@object
	.size	.LCPI6_7, 4
.LCPI6_7:
	.long	122888
	.cc_bottom .LCPI6_7.data
	.text
	.globl	BeClear_SRTVBF_AecMemoryUsage
	.align	4
	.type	BeClear_SRTVBF_AecMemoryUsage,@function
	.cc_top BeClear_SRTVBF_AecMemoryUsage.function,BeClear_SRTVBF_AecMemoryUsage
BeClear_SRTVBF_AecMemoryUsage:
.Lfunc_begin6:
	.loc	2 729 0
	.cfi_startproc
	.issue_mode dual
	{
		nop
		dualentsp 8
	}
.Ltmp118:
	.cfi_def_cfa_offset 32
.Ltmp119:
	.cfi_offset 15, 0
	std r5, r4, sp[1]
.Ltmp120:
	.cfi_offset 4, -24
.Ltmp121:
	.cfi_offset 5, -20
	std r7, r6, sp[2]
.Ltmp122:
	.cfi_offset 6, -16
.Ltmp123:
	.cfi_offset 7, -12
	{
		nop
		stw r8, sp[6]
	}
.Ltmp124:
	.cfi_offset 8, -8
.Ltmp125:
	.loc	2 737 5 prologue_end
	ldw r0, dp[aec_ap]
.Ltmp126:
	ldw r1, cp[.LCPI6_0]
.Ltmp127:
	{
		add r0, r0, r1
		nop
	}
	ldc r5, 12925
	ldw r1, cp[.LCPI6_1]
	ldw r2, cp[.LCPI6_2]
.Ltmp128:
	{
		ldc r4, 0
		nop
	}
.LBB6_1:
.Ltmp129:
	.loc	2 2610 14
	ldd r11, r3, r0[0]
	.loc	2 2610 14
	xor r11, r11, r1
	xor r3, r3, r2
	{
		or r3, r3, r11
		nop
	}
.Ltmp130:
	bt r3, .LBB6_4
.Ltmp131:
	.loc	2 2608 61
	{
		sub r5, r5, 1
		sub r0, r0, 8
	}
.Ltmp132:
	bt r5, .LBB6_1
.Ltmp133:
	.loc	2 737 5
	{
		mov r5, r4
		nop
	}
.Ltmp134:
.LBB6_4:
	.loc	2 2615 5
	ldaw r11, cp[.L.str4]
.Ltmp135:
	{
		mov r0, r11
		nop
	}
.Ltmp136:
	bl printstr
.Ltmp137:
	.loc	2 2616 5
	ldaw r11, cp[.L.str16]
	{
		mov r0, r11
		nop
	}
	bl printstr
	.loc	2 2617 5
	{
		shl r0, r5, 3
		nop
	}
	.loc	2 2617 5
	bl printint
	.loc	2 2618 5
	ldaw r11, cp[.L.str17]
	{
		mov r0, r11
		nop
	}
	bl printstr
.Ltmp138:
	.loc	2 739 5
	ldw r0, dp[aec_ap]
	ldw r1, cp[.LCPI6_3]
	{
		add r0, r0, r1
		nop
	}
	ldc r6, 1040
.Ltmp139:
	ldw r7, cp[.LCPI6_4]
	ldw r8, cp[.LCPI6_5]
.LBB6_5:
.Ltmp140:
	.loc	2 2610 14
	ldd r2, r1, r0[0]
.Ltmp141:
	.loc	2 2610 14
	xor r2, r2, r7
	xor r1, r1, r8
	{
		or r1, r1, r2
		nop
	}
.Ltmp142:
	bt r1, .LBB6_8
.Ltmp143:
	.loc	2 2608 61
	{
		sub r6, r6, 1
		sub r0, r0, 8
	}
.Ltmp144:
	bt r6, .LBB6_5
.Ltmp145:
	.loc	2 739 5
	{
		mov r6, r4
		nop
	}
.Ltmp146:
.LBB6_8:
	.loc	2 2615 5
	ldaw r11, cp[.L.str5]
.Ltmp147:
	{
		mov r0, r11
		nop
	}
.Ltmp148:
	bl printstr
.Ltmp149:
	.loc	2 2616 5
	ldaw r11, cp[.L.str16]
	{
		mov r5, r11
		nop
	}
	{
		mov r0, r5
		nop
	}
	bl printstr
	.loc	2 2617 5
	{
		shl r0, r6, 3
		nop
	}
	.loc	2 2617 5
	bl printint
	.loc	2 2618 5
	ldaw r11, cp[.L.str17]
	{
		mov r6, r11
		nop
	}
	{
		mov r0, r6
		nop
	}
	bl printstr
.Ltmp150:
	.loc	2 2615 5
	ldaw r11, cp[.L.str6]
.Ltmp151:
	{
		mov r0, r11
		nop
	}
	bl printstr
.Ltmp152:
	.loc	2 2616 5
	{
		mov r0, r5
		nop
	}
	bl printstr
	.loc	2 2617 5
	{
		mov r0, r4
		nop
	}
	bl printint
	.loc	2 2618 5
	{
		mov r0, r6
		nop
	}
	bl printstr
.Ltmp153:
	.loc	2 746 5
	ldw r0, dp[aec_ap]
	ldw r1, cp[.LCPI6_6]
	{
		add r0, r0, r1
		nop
	}
	ldc r6, 1040
.Ltmp154:
.LBB6_9:
	.loc	2 2610 14
	ldd r2, r1, r0[0]
.Ltmp155:
	.loc	2 2610 14
	xor r2, r2, r7
	xor r1, r1, r8
	{
		or r1, r1, r2
		nop
	}
.Ltmp156:
	bt r1, .LBB6_12
.Ltmp157:
	.loc	2 2608 61
	{
		sub r6, r6, 1
		sub r0, r0, 8
	}
.Ltmp158:
	bt r6, .LBB6_9
.Ltmp159:
	.loc	2 746 5
	{
		mov r6, r4
		nop
	}
.Ltmp160:
.LBB6_12:
	.loc	2 2615 5
	ldaw r11, cp[.L.str7]
.Ltmp161:
	{
		mov r0, r11
		nop
	}
.Ltmp162:
	bl printstr
.Ltmp163:
	.loc	2 2616 5
	ldaw r11, cp[.L.str16]
	{
		mov r5, r11
		nop
	}
	{
		mov r0, r5
		nop
	}
	bl printstr
	.loc	2 2617 5
	{
		shl r0, r6, 3
		nop
	}
	.loc	2 2617 5
	bl printint
	.loc	2 2618 5
	ldaw r11, cp[.L.str17]
	{
		mov r6, r11
		nop
	}
	{
		mov r0, r6
		nop
	}
	bl printstr
.Ltmp164:
	.loc	2 2615 5
	ldaw r11, cp[.L.str8]
.Ltmp165:
	{
		mov r0, r11
		nop
	}
	bl printstr
.Ltmp166:
	.loc	2 2616 5
	{
		mov r0, r5
		nop
	}
	bl printstr
	.loc	2 2617 5
	{
		mov r0, r4
		nop
	}
	bl printint
	.loc	2 2618 5
	{
		mov r0, r6
		nop
	}
	bl printstr
.Ltmp167:
	.loc	2 753 5
	ldw r0, dp[aec_ap]
	ldw r1, cp[.LCPI6_7]
	{
		add r0, r0, r1
		nop
	}
	ldc r5, 357
.Ltmp168:
.LBB6_13:
	.loc	2 2610 14
	ldd r2, r1, r0[0]
.Ltmp169:
	.loc	2 2610 14
	xor r2, r2, r7
	xor r1, r1, r8
	{
		or r1, r1, r2
		nop
	}
.Ltmp170:
	bt r1, .LBB6_16
.Ltmp171:
	.loc	2 2608 61
	{
		sub r5, r5, 1
		sub r0, r0, 8
	}
.Ltmp172:
	bt r5, .LBB6_13
.Ltmp173:
	.loc	2 753 5
	{
		mov r5, r4
		nop
	}
.Ltmp174:
.LBB6_16:
	.loc	2 2615 5
	ldaw r11, cp[.L.str9]
.Ltmp175:
	{
		mov r0, r11
		nop
	}
.Ltmp176:
	bl printstr
.Ltmp177:
	.loc	2 2616 5
	ldaw r11, cp[.L.str16]
	{
		mov r0, r11
		nop
	}
	bl printstr
	.loc	2 2617 5
	{
		shl r0, r5, 3
		nop
	}
	.loc	2 2617 5
	bl printint
	.loc	2 2618 5
	ldaw r11, cp[.L.str17]
	{
		mov r0, r11
		nop
	}
	bl printstr
	{
		nop
		ldw r8, sp[6]
	}
.Ltmp178:
	.loc	2 766 1
	ldd r7, r6, sp[2]
	ldd r5, r4, sp[1]
	{
		nop
		retsp 8
	}
	# RETURN_REG_HOLDER
.Ltmp179:
	.cc_bottom BeClear_SRTVBF_AecMemoryUsage.function
	.set	BeClear_SRTVBF_AecMemoryUsage.nstackwords,((printint.nstackwords $M printstr.nstackwords) + 8)
	.globl	BeClear_SRTVBF_AecMemoryUsage.nstackwords
	.set	BeClear_SRTVBF_AecMemoryUsage.maxcores,printint.maxcores $M printstr.maxcores $M 1
	.globl	BeClear_SRTVBF_AecMemoryUsage.maxcores
	.set	BeClear_SRTVBF_AecMemoryUsage.maxtimers,printint.maxtimers $M printstr.maxtimers $M 0
	.globl	BeClear_SRTVBF_AecMemoryUsage.maxtimers
	.set	BeClear_SRTVBF_AecMemoryUsage.maxchanends,printint.maxchanends $M printstr.maxchanends $M 0
	.globl	BeClear_SRTVBF_AecMemoryUsage.maxchanends
.Ltmp180:
	.size	BeClear_SRTVBF_AecMemoryUsage, .Ltmp180-BeClear_SRTVBF_AecMemoryUsage
.Lfunc_end6:
	.cfi_endproc

	.globl	LF_CheckMemoryChunkSize
	.align	4
	.type	LF_CheckMemoryChunkSize,@function
	.cc_top LF_CheckMemoryChunkSize.function,LF_CheckMemoryChunkSize
LF_CheckMemoryChunkSize:
.Lfunc_begin7:
	.loc	2 2604 0
	.cfi_startproc
	.issue_mode dual
	{
		nop
		dualentsp 6
	}
.Ltmp181:
	.cfi_def_cfa_offset 24
.Ltmp182:
	.cfi_offset 15, 0
	std r5, r4, sp[1]
.Ltmp183:
	.cfi_offset 4, -16
.Ltmp184:
	.cfi_offset 5, -12
	{
		nop
		stw r6, sp[4]
	}
.Ltmp185:
	.cfi_offset 6, -8
.Ltmp186:
	{
		shr r1, r1, 3
		ldw r0, sp[7]
	}
.Ltmp187:
	{
		ldc r4, 0
		nop
	}
	bf r1, .LBB7_5
.Ltmp188:
	{
		nop
		ldw r11, sp[8]
	}
	{
		sub r11, r11, 8
		nop
	}
.Ltmp189:
.LBB7_3:
	.loc	2 2610 14 prologue_end
	ldd r6, r5, r11[0]
	.loc	2 2610 14
	xor r6, r6, r3
	xor r5, r5, r2
	{
		or r5, r5, r6
		nop
	}
.Ltmp190:
	.loc	2 2610 14
	bt r5, .LBB7_4
.Ltmp191:
	.loc	2 2608 61
	{
		sub r1, r1, 1
		sub r11, r11, 8
	}
	bt r1, .LBB7_3
	bu .LBB7_5
.Ltmp192:
.LBB7_4:
	{
		mov r4, r1
		nop
	}
.Ltmp193:
.LBB7_5:
	.loc	2 2615 5
	bl printstr
.Ltmp194:
	.loc	2 2616 5
	ldaw r11, cp[.L.str16]
	{
		mov r0, r11
		nop
	}
	bl printstr
	.loc	2 2617 5
	{
		shl r0, r4, 3
		nop
	}
	.loc	2 2617 5
	bl printint
	.loc	2 2618 5
	ldaw r11, cp[.L.str17]
	{
		mov r0, r11
		nop
	}
	bl printstr
	{
		nop
		ldw r6, sp[4]
	}
	.loc	2 2619 1
	ldd r5, r4, sp[1]
	{
		nop
		retsp 6
	}
	# RETURN_REG_HOLDER
.Ltmp195:
	.cc_bottom LF_CheckMemoryChunkSize.function
	.set	LF_CheckMemoryChunkSize.nstackwords,((printint.nstackwords $M printstr.nstackwords) + 6)
	.globl	LF_CheckMemoryChunkSize.nstackwords
	.set	LF_CheckMemoryChunkSize.maxcores,printint.maxcores $M printstr.maxcores $M 1
	.globl	LF_CheckMemoryChunkSize.maxcores
	.set	LF_CheckMemoryChunkSize.maxtimers,printint.maxtimers $M printstr.maxtimers $M 0
	.globl	LF_CheckMemoryChunkSize.maxtimers
	.set	LF_CheckMemoryChunkSize.maxchanends,printint.maxchanends $M printstr.maxchanends $M 0
	.globl	LF_CheckMemoryChunkSize.maxchanends
.Ltmp196:
	.size	LF_CheckMemoryChunkSize, .Ltmp196-LF_CheckMemoryChunkSize
.Lfunc_end7:
	.cfi_endproc

	.section	.cp.rodata.cst4,"aMc",@progbits,4
	.cc_top .LCPI8_0.data,.LCPI8_0
	.align	4
	.type	.LCPI8_0,@object
	.size	.LCPI8_0, 4
.LCPI8_0:
	.long	122960
	.cc_bottom .LCPI8_0.data
	.text
	.globl	BeClear_SRTVBF_MicsFilterMic
	.align	4
	.type	BeClear_SRTVBF_MicsFilterMic,@function
	.cc_top BeClear_SRTVBF_MicsFilterMic.function,BeClear_SRTVBF_MicsFilterMic
BeClear_SRTVBF_MicsFilterMic:
.Lfunc_begin8:
	.loc	2 782 0
	.cfi_startproc
	.issue_mode dual
.Ltmp197:
	.cfi_def_cfa_offset 8
.Ltmp198:
	.cfi_offset 15, 0
.Ltmp199:
	{
		mov r2, r1
		dualentsp 2
	}
.Ltmp200:
	.loc	2 783 5 prologue_end
	ldw r1, dp[mics]
	.loc	2 783 5
	ldw r3, dp[aec_ap]
	ldw r11, cp[.LCPI8_0]
	.loc	2 783 5
	{
		add r3, r3, r11
		nop
	}
	{
		nop
		ldw r3, r3[0]
	}
	.loc	2 783 5
	bl SRTVBF_MicsFilterMic
.Ltmp201:
	{
		nop
		retsp 2
	}
	.loc	2 784 1
	# RETURN_REG_HOLDER
.Ltmp202:
	.cc_bottom BeClear_SRTVBF_MicsFilterMic.function
	.set	BeClear_SRTVBF_MicsFilterMic.nstackwords,(SRTVBF_MicsFilterMic.nstackwords + 2)
	.globl	BeClear_SRTVBF_MicsFilterMic.nstackwords
	.set	BeClear_SRTVBF_MicsFilterMic.maxcores,SRTVBF_MicsFilterMic.maxcores $M 1
	.globl	BeClear_SRTVBF_MicsFilterMic.maxcores
	.set	BeClear_SRTVBF_MicsFilterMic.maxtimers,SRTVBF_MicsFilterMic.maxtimers $M 0
	.globl	BeClear_SRTVBF_MicsFilterMic.maxtimers
	.set	BeClear_SRTVBF_MicsFilterMic.maxchanends,SRTVBF_MicsFilterMic.maxchanends $M 0
	.globl	BeClear_SRTVBF_MicsFilterMic.maxchanends
.Ltmp203:
	.size	BeClear_SRTVBF_MicsFilterMic, .Ltmp203-BeClear_SRTVBF_MicsFilterMic
.Lfunc_end8:
	.cfi_endproc

	.section	.cp.rodata.cst4,"aMc",@progbits,4
	.cc_top .LCPI9_0.data,.LCPI9_0
	.align	4
	.type	.LCPI9_0,@object
	.size	.LCPI9_0, 4
.LCPI9_0:
	.long	122960
	.cc_bottom .LCPI9_0.data
	.text
	.globl	BeClear_SRTVBF_FarDelay
	.align	4
	.type	BeClear_SRTVBF_FarDelay,@function
	.cc_top BeClear_SRTVBF_FarDelay.function,BeClear_SRTVBF_FarDelay
BeClear_SRTVBF_FarDelay:
.Lfunc_begin9:
	.loc	2 799 0
	.cfi_startproc
	.issue_mode dual
	{
		nop
		dualentsp 2
	}
.Ltmp204:
	.cfi_def_cfa_offset 8
.Ltmp205:
	.cfi_offset 15, 0
	.loc	2 800 5 prologue_end
.Ltmp206:
	ldw r1, dp[far]
	.loc	2 800 5
	ldw r2, dp[aec_ap]
	ldw r3, cp[.LCPI9_0]
	.loc	2 800 5
	{
		add r2, r2, r3
		nop
	}
	{
		nop
		ldw r2, r2[0]
	}
	.loc	2 800 5
	bl SRTVBF_FarDelay
.Ltmp207:
	{
		nop
		retsp 2
	}
	.loc	2 801 1
	# RETURN_REG_HOLDER
.Ltmp208:
	.cc_bottom BeClear_SRTVBF_FarDelay.function
	.set	BeClear_SRTVBF_FarDelay.nstackwords,(SRTVBF_FarDelay.nstackwords + 2)
	.globl	BeClear_SRTVBF_FarDelay.nstackwords
	.set	BeClear_SRTVBF_FarDelay.maxcores,SRTVBF_FarDelay.maxcores $M 1
	.globl	BeClear_SRTVBF_FarDelay.maxcores
	.set	BeClear_SRTVBF_FarDelay.maxtimers,SRTVBF_FarDelay.maxtimers $M 0
	.globl	BeClear_SRTVBF_FarDelay.maxtimers
	.set	BeClear_SRTVBF_FarDelay.maxchanends,SRTVBF_FarDelay.maxchanends $M 0
	.globl	BeClear_SRTVBF_FarDelay.maxchanends
.Ltmp209:
	.size	BeClear_SRTVBF_FarDelay, .Ltmp209-BeClear_SRTVBF_FarDelay
.Lfunc_end9:
	.cfi_endproc

	.section	.cp.rodata.cst4,"aMc",@progbits,4
	.cc_top .LCPI10_0.data,.LCPI10_0
	.align	4
	.type	.LCPI10_0,@object
	.size	.LCPI10_0, 4
.LCPI10_0:
	.long	122960
	.cc_bottom .LCPI10_0.data
	.text
	.globl	BeClear_SRTVBF_AecFlush
	.align	4
	.type	BeClear_SRTVBF_AecFlush,@function
	.cc_top BeClear_SRTVBF_AecFlush.function,BeClear_SRTVBF_AecFlush
BeClear_SRTVBF_AecFlush:
.Lfunc_begin10:
	.loc	2 816 0
	.cfi_startproc
	.issue_mode dual
	{
		nop
		dualentsp 2
	}
.Ltmp210:
	.cfi_def_cfa_offset 8
.Ltmp211:
	.cfi_offset 15, 0
	.loc	2 817 5 prologue_end
.Ltmp212:
	ldw r1, dp[far]
	.loc	2 817 5
	ldw r2, dp[aec_ap]
	ldw r3, cp[.LCPI10_0]
	.loc	2 817 5
	{
		add r2, r2, r3
		nop
	}
	{
		nop
		ldw r2, r2[0]
	}
	.loc	2 817 5
	bl SRTVBF_AecFlush
.Ltmp213:
	{
		nop
		retsp 2
	}
	.loc	2 818 1
	# RETURN_REG_HOLDER
.Ltmp214:
	.cc_bottom BeClear_SRTVBF_AecFlush.function
	.set	BeClear_SRTVBF_AecFlush.nstackwords,(SRTVBF_AecFlush.nstackwords + 2)
	.globl	BeClear_SRTVBF_AecFlush.nstackwords
	.set	BeClear_SRTVBF_AecFlush.maxcores,SRTVBF_AecFlush.maxcores $M 1
	.globl	BeClear_SRTVBF_AecFlush.maxcores
	.set	BeClear_SRTVBF_AecFlush.maxtimers,SRTVBF_AecFlush.maxtimers $M 0
	.globl	BeClear_SRTVBF_AecFlush.maxtimers
	.set	BeClear_SRTVBF_AecFlush.maxchanends,SRTVBF_AecFlush.maxchanends $M 0
	.globl	BeClear_SRTVBF_AecFlush.maxchanends
.Ltmp215:
	.size	BeClear_SRTVBF_AecFlush, .Ltmp215-BeClear_SRTVBF_AecFlush
.Lfunc_end10:
	.cfi_endproc

	.section	.cp.rodata.cst4,"aMc",@progbits,4
	.cc_top .LCPI11_0.data,.LCPI11_0
	.align	4
	.type	.LCPI11_0,@object
	.size	.LCPI11_0, 4
.LCPI11_0:
	.long	122960
	.cc_bottom .LCPI11_0.data
	.text
	.globl	BeClear_SRTVBF_AecTrackPower
	.align	4
	.type	BeClear_SRTVBF_AecTrackPower,@function
	.cc_top BeClear_SRTVBF_AecTrackPower.function,BeClear_SRTVBF_AecTrackPower
BeClear_SRTVBF_AecTrackPower:
.Lfunc_begin11:
	.loc	2 833 0
	.cfi_startproc
	.issue_mode dual
	{
		nop
		dualentsp 2
	}
.Ltmp216:
	.cfi_def_cfa_offset 8
.Ltmp217:
	.cfi_offset 15, 0
	.loc	2 834 5 prologue_end
.Ltmp218:
	ldw r1, dp[far]
	.loc	2 834 5
	ldw r2, dp[aec_ap]
	ldw r3, cp[.LCPI11_0]
	.loc	2 834 5
	{
		add r2, r2, r3
		nop
	}
	{
		nop
		ldw r2, r2[0]
	}
	.loc	2 834 5
	bl SRTVBF_AecTrackPower
.Ltmp219:
	{
		nop
		retsp 2
	}
	.loc	2 835 1
	# RETURN_REG_HOLDER
.Ltmp220:
	.cc_bottom BeClear_SRTVBF_AecTrackPower.function
	.set	BeClear_SRTVBF_AecTrackPower.nstackwords,(SRTVBF_AecTrackPower.nstackwords + 2)
	.globl	BeClear_SRTVBF_AecTrackPower.nstackwords
	.set	BeClear_SRTVBF_AecTrackPower.maxcores,SRTVBF_AecTrackPower.maxcores $M 1
	.globl	BeClear_SRTVBF_AecTrackPower.maxcores
	.set	BeClear_SRTVBF_AecTrackPower.maxtimers,SRTVBF_AecTrackPower.maxtimers $M 0
	.globl	BeClear_SRTVBF_AecTrackPower.maxtimers
	.set	BeClear_SRTVBF_AecTrackPower.maxchanends,SRTVBF_AecTrackPower.maxchanends $M 0
	.globl	BeClear_SRTVBF_AecTrackPower.maxchanends
.Ltmp221:
	.size	BeClear_SRTVBF_AecTrackPower, .Ltmp221-BeClear_SRTVBF_AecTrackPower
.Lfunc_end11:
	.cfi_endproc

	.section	.cp.rodata.cst4,"aMc",@progbits,4
	.cc_top .LCPI12_0.data,.LCPI12_0
	.align	4
	.type	.LCPI12_0,@object
	.size	.LCPI12_0, 4
.LCPI12_0:
	.long	122960
	.cc_bottom .LCPI12_0.data
	.text
	.globl	BeClear_SRTVBF_AecControlPre
	.align	4
	.type	BeClear_SRTVBF_AecControlPre,@function
	.cc_top BeClear_SRTVBF_AecControlPre.function,BeClear_SRTVBF_AecControlPre
BeClear_SRTVBF_AecControlPre:
.Lfunc_begin12:
	.loc	2 850 0
	.cfi_startproc
	.issue_mode dual
	{
		nop
		dualentsp 2
	}
.Ltmp222:
	.cfi_def_cfa_offset 8
.Ltmp223:
	.cfi_offset 15, 0
	.loc	2 851 5 prologue_end
.Ltmp224:
	ldw r1, dp[far]
	.loc	2 851 5
	ldw r2, dp[mics]
	.loc	2 851 5
	ldw r3, dp[aec_ap]
	ldw r11, cp[.LCPI12_0]
	.loc	2 851 5
	{
		add r3, r3, r11
		nop
	}
	{
		nop
		ldw r3, r3[0]
	}
	.loc	2 851 5
	bl SRTVBF_AecControlPre
.Ltmp225:
	{
		nop
		retsp 2
	}
	.loc	2 852 1
	# RETURN_REG_HOLDER
.Ltmp226:
	.cc_bottom BeClear_SRTVBF_AecControlPre.function
	.set	BeClear_SRTVBF_AecControlPre.nstackwords,(SRTVBF_AecControlPre.nstackwords + 2)
	.globl	BeClear_SRTVBF_AecControlPre.nstackwords
	.set	BeClear_SRTVBF_AecControlPre.maxcores,SRTVBF_AecControlPre.maxcores $M 1
	.globl	BeClear_SRTVBF_AecControlPre.maxcores
	.set	BeClear_SRTVBF_AecControlPre.maxtimers,SRTVBF_AecControlPre.maxtimers $M 0
	.globl	BeClear_SRTVBF_AecControlPre.maxtimers
	.set	BeClear_SRTVBF_AecControlPre.maxchanends,SRTVBF_AecControlPre.maxchanends $M 0
	.globl	BeClear_SRTVBF_AecControlPre.maxchanends
.Ltmp227:
	.size	BeClear_SRTVBF_AecControlPre, .Ltmp227-BeClear_SRTVBF_AecControlPre
.Lfunc_end12:
	.cfi_endproc

	.section	.cp.rodata.cst4,"aMc",@progbits,4
	.cc_top .LCPI13_0.data,.LCPI13_0
	.align	4
	.type	.LCPI13_0,@object
	.size	.LCPI13_0, 4
.LCPI13_0:
	.long	122896
	.cc_bottom .LCPI13_0.data
	.cc_top .LCPI13_1.data,.LCPI13_1
	.align	4
	.type	.LCPI13_1,@object
	.size	.LCPI13_1, 4
.LCPI13_1:
	.long	122928
	.cc_bottom .LCPI13_1.data
	.cc_top .LCPI13_2.data,.LCPI13_2
	.align	4
	.type	.LCPI13_2,@object
	.size	.LCPI13_2, 4
.LCPI13_2:
	.long	122960
	.cc_bottom .LCPI13_2.data
	.text
	.globl	BeClear_SRTVBF_AecControlPost
	.align	4
	.type	BeClear_SRTVBF_AecControlPost,@function
	.cc_top BeClear_SRTVBF_AecControlPost.function,BeClear_SRTVBF_AecControlPost
BeClear_SRTVBF_AecControlPost:
.Lfunc_begin13:
	.loc	2 867 0
	.cfi_startproc
	.issue_mode dual
	{
		nop
		dualentsp 4
	}
.Ltmp228:
	.cfi_def_cfa_offset 16
.Ltmp229:
	.cfi_offset 15, 0
	{
		nop
		stw r4, sp[2]
	}
.Ltmp230:
	.cfi_offset 4, -8
	.loc	2 868 5 prologue_end
.Ltmp231:
	ldw r1, dp[far]
	.loc	2 868 5
	ldw r11, dp[aec_ap]
	ldw r2, cp[.LCPI13_0]
	.loc	2 868 5
	{
		add r2, r11, r2
		nop
	}
	{
		nop
		ldw r2, r2[0]
	}
	ldw r3, cp[.LCPI13_1]
	.loc	2 868 5
	{
		add r3, r11, r3
		nop
	}
	{
		nop
		ldw r3, r3[0]
	}
	ldw r4, cp[.LCPI13_2]
	.loc	2 868 5
	{
		add r11, r11, r4
		nop
	}
	{
		nop
		ldw r11, r11[0]
	}
	{
		nop
		stw r11, sp[1]
	}
	.loc	2 868 5
	bl SRTVBF_AecControlPost
.Ltmp232:
	{
		nop
		ldw r4, sp[2]
	}
	{
		nop
		retsp 4
	}
	.loc	2 869 1
	# RETURN_REG_HOLDER
.Ltmp233:
	.cc_bottom BeClear_SRTVBF_AecControlPost.function
	.set	BeClear_SRTVBF_AecControlPost.nstackwords,(SRTVBF_AecControlPost.nstackwords + 4)
	.globl	BeClear_SRTVBF_AecControlPost.nstackwords
	.set	BeClear_SRTVBF_AecControlPost.maxcores,SRTVBF_AecControlPost.maxcores $M 1
	.globl	BeClear_SRTVBF_AecControlPost.maxcores
	.set	BeClear_SRTVBF_AecControlPost.maxtimers,SRTVBF_AecControlPost.maxtimers $M 0
	.globl	BeClear_SRTVBF_AecControlPost.maxtimers
	.set	BeClear_SRTVBF_AecControlPost.maxchanends,SRTVBF_AecControlPost.maxchanends $M 0
	.globl	BeClear_SRTVBF_AecControlPost.maxchanends
.Ltmp234:
	.size	BeClear_SRTVBF_AecControlPost, .Ltmp234-BeClear_SRTVBF_AecControlPost
.Lfunc_end13:
	.cfi_endproc

	.section	.cp.rodata.cst4,"aMc",@progbits,4
	.cc_top .LCPI14_0.data,.LCPI14_0
	.align	4
	.type	.LCPI14_0,@object
	.size	.LCPI14_0, 4
.LCPI14_0:
	.long	122912
	.cc_bottom .LCPI14_0.data
	.cc_top .LCPI14_1.data,.LCPI14_1
	.align	4
	.type	.LCPI14_1,@object
	.size	.LCPI14_1, 4
.LCPI14_1:
	.long	122896
	.cc_bottom .LCPI14_1.data
	.cc_top .LCPI14_2.data,.LCPI14_2
	.align	4
	.type	.LCPI14_2,@object
	.size	.LCPI14_2, 4
.LCPI14_2:
	.long	122960
	.cc_bottom .LCPI14_2.data
	.text
	.globl	BeClear_SRTVBF_AecFilterDirect
	.align	4
	.type	BeClear_SRTVBF_AecFilterDirect,@function
	.cc_top BeClear_SRTVBF_AecFilterDirect.function,BeClear_SRTVBF_AecFilterDirect
BeClear_SRTVBF_AecFilterDirect:
.Lfunc_begin14:
	.loc	2 885 0
	.cfi_startproc
	.issue_mode dual
	{
		nop
		dualentsp 8
	}
.Ltmp235:
	.cfi_def_cfa_offset 32
.Ltmp236:
	.cfi_offset 15, 0
	std r5, r4, sp[2]
.Ltmp237:
	.cfi_offset 4, -16
.Ltmp238:
	.cfi_offset 5, -12
	{
		nop
		stw r6, sp[6]
	}
.Ltmp239:
	.cfi_offset 6, -8
	.loc	2 886 5 prologue_end
.Ltmp240:
	ldw r11, dp[far]
	.loc	2 886 5
	ldw r2, dp[mics]
	.loc	2 886 5
	ldw r4, dp[aec_ap]
	.loc	2 886 5
	ldaw r5, r4[r1]
	ldw r3, cp[.LCPI14_0]
	.loc	2 886 5
	{
		add r3, r5, r3
		nop
	}
	{
		nop
		ldw r3, r3[0]
	}
	ldw r6, cp[.LCPI14_1]
	.loc	2 886 5
	{
		add r5, r5, r6
		nop
	}
	{
		nop
		ldw r5, r5[0]
	}
	ldw r6, cp[.LCPI14_2]
	.loc	2 886 5
	{
		add r4, r4, r6
		nop
	}
	{
		nop
		ldw r4, r4[0]
	}
	.loc	2 886 5
	std r4, r1, sp[1]
	{
		mov r1, r11
		stw r5, sp[1]
	}
.Ltmp241:
	bl SRTVBF_AecFilterDirect
.Ltmp242:
	{
		nop
		ldw r6, sp[6]
	}
	.loc	2 888 1
	ldd r5, r4, sp[2]
	{
		nop
		retsp 8
	}
	# RETURN_REG_HOLDER
.Ltmp243:
	.cc_bottom BeClear_SRTVBF_AecFilterDirect.function
	.set	BeClear_SRTVBF_AecFilterDirect.nstackwords,(SRTVBF_AecFilterDirect.nstackwords + 8)
	.globl	BeClear_SRTVBF_AecFilterDirect.nstackwords
	.set	BeClear_SRTVBF_AecFilterDirect.maxcores,SRTVBF_AecFilterDirect.maxcores $M 1
	.globl	BeClear_SRTVBF_AecFilterDirect.maxcores
	.set	BeClear_SRTVBF_AecFilterDirect.maxtimers,SRTVBF_AecFilterDirect.maxtimers $M 0
	.globl	BeClear_SRTVBF_AecFilterDirect.maxtimers
	.set	BeClear_SRTVBF_AecFilterDirect.maxchanends,SRTVBF_AecFilterDirect.maxchanends $M 0
	.globl	BeClear_SRTVBF_AecFilterDirect.maxchanends
.Ltmp244:
	.size	BeClear_SRTVBF_AecFilterDirect, .Ltmp244-BeClear_SRTVBF_AecFilterDirect
.Lfunc_end14:
	.cfi_endproc

	.section	.cp.rodata.cst4,"aMc",@progbits,4
	.cc_top .LCPI15_0.data,.LCPI15_0
	.align	4
	.type	.LCPI15_0,@object
	.size	.LCPI15_0, 4
.LCPI15_0:
	.long	122960
	.cc_bottom .LCPI15_0.data
	.text
	.globl	BeClear_SRTVBF_AecFilterTail
	.align	4
	.type	BeClear_SRTVBF_AecFilterTail,@function
	.cc_top BeClear_SRTVBF_AecFilterTail.function,BeClear_SRTVBF_AecFilterTail
BeClear_SRTVBF_AecFilterTail:
.Lfunc_begin15:
	.loc	2 904 0
	.cfi_startproc
	.issue_mode dual
	{
		nop
		dualentsp 4
	}
.Ltmp245:
	.cfi_def_cfa_offset 16
.Ltmp246:
	.cfi_offset 15, 0
.Ltmp247:
	.cfi_offset 4, -8
.Ltmp248:
	{
		mov r3, r1
		stw r4, sp[2]
	}
.Ltmp249:
	.loc	2 905 5 prologue_end
	ldw r1, dp[far]
	.loc	2 905 5
	ldw r2, dp[mics]
	.loc	2 905 5
	ldw r11, dp[aec_ap]
	ldw r4, cp[.LCPI15_0]
	.loc	2 905 5
	{
		add r11, r11, r4
		nop
	}
	{
		nop
		ldw r11, r11[0]
	}
	{
		nop
		stw r11, sp[1]
	}
	.loc	2 905 5
	bl SRTVBF_AecFilterTail
.Ltmp250:
	{
		nop
		ldw r4, sp[2]
	}
	{
		nop
		retsp 4
	}
	.loc	2 906 1
	# RETURN_REG_HOLDER
.Ltmp251:
	.cc_bottom BeClear_SRTVBF_AecFilterTail.function
	.set	BeClear_SRTVBF_AecFilterTail.nstackwords,(SRTVBF_AecFilterTail.nstackwords + 4)
	.globl	BeClear_SRTVBF_AecFilterTail.nstackwords
	.set	BeClear_SRTVBF_AecFilterTail.maxcores,SRTVBF_AecFilterTail.maxcores $M 1
	.globl	BeClear_SRTVBF_AecFilterTail.maxcores
	.set	BeClear_SRTVBF_AecFilterTail.maxtimers,SRTVBF_AecFilterTail.maxtimers $M 0
	.globl	BeClear_SRTVBF_AecFilterTail.maxtimers
	.set	BeClear_SRTVBF_AecFilterTail.maxchanends,SRTVBF_AecFilterTail.maxchanends $M 0
	.globl	BeClear_SRTVBF_AecFilterTail.maxchanends
.Ltmp252:
	.size	BeClear_SRTVBF_AecFilterTail, .Ltmp252-BeClear_SRTVBF_AecFilterTail
.Lfunc_end15:
	.cfi_endproc

	.section	.cp.rodata.cst4,"aMc",@progbits,4
	.cc_top .LCPI16_0.data,.LCPI16_0
	.align	4
	.type	.LCPI16_0,@object
	.size	.LCPI16_0, 4
.LCPI16_0:
	.long	122896
	.cc_bottom .LCPI16_0.data
	.cc_top .LCPI16_1.data,.LCPI16_1
	.align	4
	.type	.LCPI16_1,@object
	.size	.LCPI16_1, 4
.LCPI16_1:
	.long	122960
	.cc_bottom .LCPI16_1.data
	.text
	.globl	BeClear_SRTVBF_AecUpdate
	.align	4
	.type	BeClear_SRTVBF_AecUpdate,@function
	.cc_top BeClear_SRTVBF_AecUpdate.function,BeClear_SRTVBF_AecUpdate
BeClear_SRTVBF_AecUpdate:
.Lfunc_begin16:
	.loc	2 922 0
	.cfi_startproc
	.issue_mode dual
	{
		nop
		dualentsp 4
	}
.Ltmp253:
	.cfi_def_cfa_offset 16
.Ltmp254:
	.cfi_offset 15, 0
.Ltmp255:
	.cfi_offset 4, -8
.Ltmp256:
	{
		mov r3, r1
		stw r4, sp[2]
	}
.Ltmp257:
	.loc	2 923 5 prologue_end
	ldw r1, dp[far]
	.loc	2 923 5
	ldw r11, dp[aec_ap]
	.loc	2 923 5
	ldaw r2, r11[r3]
	ldw r4, cp[.LCPI16_0]
	{
		add r2, r2, r4
		nop
	}
	{
		nop
		ldw r2, r2[0]
	}
	ldw r4, cp[.LCPI16_1]
	.loc	2 923 5
	{
		add r11, r11, r4
		nop
	}
	{
		nop
		ldw r11, r11[0]
	}
	{
		nop
		stw r11, sp[1]
	}
	.loc	2 923 5
	bl SRTVBF_AecUpdate
.Ltmp258:
	{
		nop
		ldw r4, sp[2]
	}
	{
		nop
		retsp 4
	}
	.loc	2 924 1
	# RETURN_REG_HOLDER
.Ltmp259:
	.cc_bottom BeClear_SRTVBF_AecUpdate.function
	.set	BeClear_SRTVBF_AecUpdate.nstackwords,(SRTVBF_AecUpdate.nstackwords + 4)
	.globl	BeClear_SRTVBF_AecUpdate.nstackwords
	.set	BeClear_SRTVBF_AecUpdate.maxcores,SRTVBF_AecUpdate.maxcores $M 1
	.globl	BeClear_SRTVBF_AecUpdate.maxcores
	.set	BeClear_SRTVBF_AecUpdate.maxtimers,SRTVBF_AecUpdate.maxtimers $M 0
	.globl	BeClear_SRTVBF_AecUpdate.maxtimers
	.set	BeClear_SRTVBF_AecUpdate.maxchanends,SRTVBF_AecUpdate.maxchanends $M 0
	.globl	BeClear_SRTVBF_AecUpdate.maxchanends
.Ltmp260:
	.size	BeClear_SRTVBF_AecUpdate, .Ltmp260-BeClear_SRTVBF_AecUpdate
.Lfunc_end16:
	.cfi_endproc

	.section	.cp.rodata.cst4,"aMc",@progbits,4
	.cc_top .LCPI17_0.data,.LCPI17_0
	.align	4
	.type	.LCPI17_0,@object
	.size	.LCPI17_0, 4
.LCPI17_0:
	.long	122960
	.cc_bottom .LCPI17_0.data
	.text
	.globl	BeClear_SRTVBF_AecUpdateIndex
	.align	4
	.type	BeClear_SRTVBF_AecUpdateIndex,@function
	.cc_top BeClear_SRTVBF_AecUpdateIndex.function,BeClear_SRTVBF_AecUpdateIndex
BeClear_SRTVBF_AecUpdateIndex:
.Lfunc_begin17:
	.loc	2 939 0
	.cfi_startproc
	.issue_mode dual
	{
		nop
		dualentsp 2
	}
.Ltmp261:
	.cfi_def_cfa_offset 8
.Ltmp262:
	.cfi_offset 15, 0
	.loc	2 940 5 prologue_end
.Ltmp263:
	ldw r1, dp[aec_ap]
	ldw r2, cp[.LCPI17_0]
	.loc	2 940 5
	{
		add r1, r1, r2
		nop
	}
	{
		nop
		ldw r1, r1[0]
	}
	.loc	2 940 5
	bl SRTVBF_AecUpdateIndex
.Ltmp264:
	{
		nop
		retsp 2
	}
	.loc	2 941 1
	# RETURN_REG_HOLDER
.Ltmp265:
	.cc_bottom BeClear_SRTVBF_AecUpdateIndex.function
	.set	BeClear_SRTVBF_AecUpdateIndex.nstackwords,(SRTVBF_AecUpdateIndex.nstackwords + 2)
	.globl	BeClear_SRTVBF_AecUpdateIndex.nstackwords
	.set	BeClear_SRTVBF_AecUpdateIndex.maxcores,SRTVBF_AecUpdateIndex.maxcores $M 1
	.globl	BeClear_SRTVBF_AecUpdateIndex.maxcores
	.set	BeClear_SRTVBF_AecUpdateIndex.maxtimers,SRTVBF_AecUpdateIndex.maxtimers $M 0
	.globl	BeClear_SRTVBF_AecUpdateIndex.maxtimers
	.set	BeClear_SRTVBF_AecUpdateIndex.maxchanends,SRTVBF_AecUpdateIndex.maxchanends $M 0
	.globl	BeClear_SRTVBF_AecUpdateIndex.maxchanends
.Ltmp266:
	.size	BeClear_SRTVBF_AecUpdateIndex, .Ltmp266-BeClear_SRTVBF_AecUpdateIndex
.Lfunc_end17:
	.cfi_endproc

	.section	.cp.rodata.cst4,"aMc",@progbits,4
	.cc_top .LCPI18_0.data,.LCPI18_0
	.align	4
	.type	.LCPI18_0,@object
	.size	.LCPI18_0, 4
.LCPI18_0:
	.long	122928
	.cc_bottom .LCPI18_0.data
	.cc_top .LCPI18_1.data,.LCPI18_1
	.align	4
	.type	.LCPI18_1,@object
	.size	.LCPI18_1, 4
.LCPI18_1:
	.long	122960
	.cc_bottom .LCPI18_1.data
	.text
	.globl	BeClear_SRTVBF_Revest
	.align	4
	.type	BeClear_SRTVBF_Revest,@function
	.cc_top BeClear_SRTVBF_Revest.function,BeClear_SRTVBF_Revest
BeClear_SRTVBF_Revest:
.Lfunc_begin18:
	.loc	2 956 0
	.cfi_startproc
	.issue_mode dual
	{
		nop
		dualentsp 2
	}
.Ltmp267:
	.cfi_def_cfa_offset 8
.Ltmp268:
	.cfi_offset 15, 0
	.loc	2 957 5 prologue_end
.Ltmp269:
	ldw r2, dp[aec_ap]
	ldw r1, cp[.LCPI18_0]
	.loc	2 957 5
	{
		add r1, r2, r1
		nop
	}
	{
		nop
		ldw r1, r1[0]
	}
	ldw r3, cp[.LCPI18_1]
	.loc	2 957 5
	{
		add r2, r2, r3
		nop
	}
	{
		nop
		ldw r2, r2[0]
	}
	.loc	2 957 5
	bl SRTVBF_Revest
.Ltmp270:
	{
		nop
		retsp 2
	}
	.loc	2 958 1
	# RETURN_REG_HOLDER
.Ltmp271:
	.cc_bottom BeClear_SRTVBF_Revest.function
	.set	BeClear_SRTVBF_Revest.nstackwords,(SRTVBF_Revest.nstackwords + 2)
	.globl	BeClear_SRTVBF_Revest.nstackwords
	.set	BeClear_SRTVBF_Revest.maxcores,SRTVBF_Revest.maxcores $M 1
	.globl	BeClear_SRTVBF_Revest.maxcores
	.set	BeClear_SRTVBF_Revest.maxtimers,SRTVBF_Revest.maxtimers $M 0
	.globl	BeClear_SRTVBF_Revest.maxtimers
	.set	BeClear_SRTVBF_Revest.maxchanends,SRTVBF_Revest.maxchanends $M 0
	.globl	BeClear_SRTVBF_Revest.maxchanends
.Ltmp272:
	.size	BeClear_SRTVBF_Revest, .Ltmp272-BeClear_SRTVBF_Revest
.Lfunc_end18:
	.cfi_endproc

	.section	.cp.rodata.cst4,"aMc",@progbits,4
	.cc_top .LCPI19_0.data,.LCPI19_0
	.align	4
	.type	.LCPI19_0,@object
	.size	.LCPI19_0, 4
.LCPI19_0:
	.long	2871134157
	.cc_bottom .LCPI19_0.data
	.cc_top .LCPI19_1.data,.LCPI19_1
	.align	4
	.type	.LCPI19_1,@object
	.size	.LCPI19_1, 4
.LCPI19_1:
	.long	4011418095
	.cc_bottom .LCPI19_1.data
	.cc_top .LCPI19_2.data,.LCPI19_2
	.align	4
	.type	.LCPI19_2,@object
	.size	.LCPI19_2, 4
.LCPI19_2:
	.long	4262003164
	.cc_bottom .LCPI19_2.data
	.cc_top .LCPI19_3.data,.LCPI19_3
	.align	4
	.type	.LCPI19_3,@object
	.size	.LCPI19_3, 4
.LCPI19_3:
	.long	2871007147
	.cc_bottom .LCPI19_3.data
	.cc_top .LCPI19_4.data,.LCPI19_4
	.align	4
	.type	.LCPI19_4,@object
	.size	.LCPI19_4, 4
.LCPI19_4:
	.long	71036
	.cc_bottom .LCPI19_4.data
	.cc_top .LCPI19_5.data,.LCPI19_5
	.align	4
	.type	.LCPI19_5,@object
	.size	.LCPI19_5, 4
.LCPI19_5:
	.long	71040
	.cc_bottom .LCPI19_5.data
	.cc_top .LCPI19_6.data,.LCPI19_6
	.align	4
	.type	.LCPI19_6,@object
	.size	.LCPI19_6, 4
.LCPI19_6:
	.long	1182400512
	.cc_bottom .LCPI19_6.data
	.cc_top .LCPI19_7.data,.LCPI19_7
	.align	4
	.type	.LCPI19_7,@object
	.size	.LCPI19_7, 4
.LCPI19_7:
	.long	71048
	.cc_bottom .LCPI19_7.data
	.cc_top .LCPI19_8.data,.LCPI19_8
	.align	4
	.type	.LCPI19_8,@object
	.size	.LCPI19_8, 4
.LCPI19_8:
	.long	1092616192
	.cc_bottom .LCPI19_8.data
	.cc_top .LCPI19_9.data,.LCPI19_9
	.align	4
	.type	.LCPI19_9,@object
	.size	.LCPI19_9, 4
.LCPI19_9:
	.long	981668463
	.cc_bottom .LCPI19_9.data
	.cc_top .LCPI19_10.data,.LCPI19_10
	.align	4
	.type	.LCPI19_10,@object
	.size	.LCPI19_10, 4
.LCPI19_10:
	.long	1088421888
	.cc_bottom .LCPI19_10.data
	.cc_top .LCPI19_11.data,.LCPI19_11
	.align	4
	.type	.LCPI19_11,@object
	.size	.LCPI19_11, 4
.LCPI19_11:
	.long	1056964608
	.cc_bottom .LCPI19_11.data
	.cc_top .LCPI19_12.data,.LCPI19_12
	.align	4
	.type	.LCPI19_12,@object
	.size	.LCPI19_12, 4
.LCPI19_12:
	.long	1048911544
	.cc_bottom .LCPI19_12.data
	.cc_top .LCPI19_13.data,.LCPI19_13
	.align	4
	.type	.LCPI19_13,@object
	.size	.LCPI19_13, 4
.LCPI19_13:
	.long	1065353216
	.cc_bottom .LCPI19_13.data
	.cc_top .LCPI19_14.data,.LCPI19_14
	.align	4
	.type	.LCPI19_14,@object
	.size	.LCPI19_14, 4
.LCPI19_14:
	.long	1041865114
	.cc_bottom .LCPI19_14.data
	.cc_top .LCPI19_15.data,.LCPI19_15
	.align	4
	.type	.LCPI19_15,@object
	.size	.LCPI19_15, 4
.LCPI19_15:
	.long	1066192077
	.cc_bottom .LCPI19_15.data
	.cc_top .LCPI19_16.data,.LCPI19_16
	.align	4
	.type	.LCPI19_16,@object
	.size	.LCPI19_16, 4
.LCPI19_16:
	.long	1050253722
	.cc_bottom .LCPI19_16.data
	.cc_top .LCPI19_17.data,.LCPI19_17
	.align	4
	.type	.LCPI19_17,@object
	.size	.LCPI19_17, 4
.LCPI19_17:
	.long	1003814388
	.cc_bottom .LCPI19_17.data
	.cc_top .LCPI19_18.data,.LCPI19_18
	.align	4
	.type	.LCPI19_18,@object
	.size	.LCPI19_18, 4
.LCPI19_18:
	.long	1097859072
	.cc_bottom .LCPI19_18.data
	.cc_top .LCPI19_19.data,.LCPI19_19
	.align	4
	.type	.LCPI19_19,@object
	.size	.LCPI19_19, 4
.LCPI19_19:
	.long	71056
	.cc_bottom .LCPI19_19.data
	.cc_top .LCPI19_20.data,.LCPI19_20
	.align	4
	.type	.LCPI19_20,@object
	.size	.LCPI19_20, 4
.LCPI19_20:
	.long	4294967286
	.cc_bottom .LCPI19_20.data
	.cc_top .LCPI19_21.data,.LCPI19_21
	.align	4
	.type	.LCPI19_21,@object
	.size	.LCPI19_21, 4
.LCPI19_21:
	.long	4294966615
	.cc_bottom .LCPI19_21.data
	.cc_top .LCPI19_22.data,.LCPI19_22
	.align	4
	.type	.LCPI19_22,@object
	.size	.LCPI19_22, 4
.LCPI19_22:
	.long	4294967168
	.cc_bottom .LCPI19_22.data
	.text
	.globl	BeClear_SRTVBF_BapInit
	.align	4
	.type	BeClear_SRTVBF_BapInit,@function
	.cc_top BeClear_SRTVBF_BapInit.function,BeClear_SRTVBF_BapInit
BeClear_SRTVBF_BapInit:
.Lfunc_begin19:
	.loc	2 978 0
	.cfi_startproc
	.issue_mode dual
	{
		nop
		dualentsp 16
	}
.Ltmp273:
	.cfi_def_cfa_offset 64
.Ltmp274:
	.cfi_offset 15, 0
	std r5, r4, sp[4]
.Ltmp275:
	.cfi_offset 4, -32
.Ltmp276:
	.cfi_offset 5, -28
	std r7, r6, sp[5]
.Ltmp277:
	.cfi_offset 6, -24
.Ltmp278:
	.cfi_offset 7, -20
	std r9, r8, sp[6]
.Ltmp279:
	.cfi_offset 8, -16
.Ltmp280:
	.cfi_offset 9, -12
.Ltmp281:
	.cfi_offset 10, -8
.Ltmp282:
	{
		mov r7, r1
		stw r10, sp[14]
	}
.Ltmp283:
	{
		mov r9, r0
		nop
	}
.Ltmp284:
	.loc	2 994 5 prologue_end
	ldaw r0, dp[bap_appl]
	stw r0, dp[bap_ap]
	ldaw r1, dp[bap_appl+58248]
	.loc	2 1002 5
	bl APES_SetMemPools
	.loc	2 1007 5
	ldaw r11, cp[OBJ_UN_INIT]
	{
		mov r6, r11
		ldc r4, 20
	}
	{
		mov r0, r9
		mov r1, r6
	}
	{
		mov r2, r4
		nop
	}
	bl __memcpy_4
	.loc	2 1008 5
	{
		mov r0, r7
		mov r1, r6
	}
	{
		mov r2, r4
		nop
	}
	bl __memcpy_4
	ldc r5, 58248
.Ltmp285:
	{
		nop
		stw r5, r9[3]
	}
	ldc r0, 6544
	{
		nop
		stw r0, r9[1]
	}
	.loc	2 1011 5
	ldaw r11, cp[.L.str10]
	{
		mov r0, r9
		mov r1, r11
	}
	bl OBJ_Init
	{
		ldc r6, 0
		nop
	}
.Ltmp286:
	{
		nop
		stw r6, r7[3]
	}
	ldc r0, 6208
	{
		nop
		stw r0, r7[1]
	}
	.loc	2 1013 5
	ldaw r11, cp[.L.str11]
	{
		mov r0, r7
		mov r1, r11
	}
	bl OBJ_Init
	.loc	2 1032 9
.Ltmp287:
	ldw r0, dp[bap_ap]
.Ltmp288:
	ldc r1, 7281
	ldw r2, cp[.LCPI19_0]
	ldw r3, cp[.LCPI19_1]
	{
		mov r11, r0
		nop
	}
.Ltmp289:
.LBB19_1:
	.loc	2 1036 13
	{
		add r4, r11, 8
		nop
	}
.Ltmp290:
	.loc	2 1036 13
	std r2, r3, r11[0]
.Ltmp291:
	.loc	2 1034 9
	{
		sub r1, r1, 1
		nop
	}
.xtaloop 7281
	# LOOPMARKER 0
	{
		mov r11, r4
		nop
	}
.Ltmp292:
	.loc	2 1034 9
	bt r1, .LBB19_1
.Ltmp293:
	.loc	2 1038 9
	{
		add r11, r0, r5
		nop
	}
.Ltmp294:
	ldc r1, 1594
	ldw r2, cp[.LCPI19_2]
	ldw r3, cp[.LCPI19_3]
.Ltmp295:
.LBB19_3:
	.loc	2 1042 13
	{
		add r4, r11, 8
		nop
	}
.Ltmp296:
	.loc	2 1042 13
	std r2, r3, r11[0]
.Ltmp297:
	.loc	2 1040 9
	{
		sub r1, r1, 1
		nop
	}
.xtaloop 1594
	# LOOPMARKER 1
	{
		mov r11, r4
		nop
	}
.Ltmp298:
	.loc	2 1040 9
	bt r1, .LBB19_3
.Ltmp299:
	ldw r10, cp[.LCPI19_4]
	.loc	2 1050 5
	{
		add r1, r0, r10
		ldc r2, 4
	}
	{
		nop
		stw r2, r1[0]
	}
	ldw r1, cp[.LCPI19_5]
	.loc	2 1051 5
	{
		add r0, r0, r1
		nop
	}
	ldc r1, 256
	{
		nop
		stw r1, r0[0]
	}
	ldw r1, cp[.LCPI19_6]
	.loc	2 1052 21
	{
		mov r0, r9
		nop
	}
	bl PFLOAT_Load_f
	.loc	2 1052 21
	ldw r2, dp[bap_ap]
	ldw r3, cp[.LCPI19_7]
	.loc	2 1052 21
	{
		add r2, r2, r3
		nop
	}
	.loc	2 1052 21
	std r1, r0, r2[0]
	{
		mkmsk r5, 1
		nop
	}
	.loc	2 1057 5
	stw r5, dp[agconoff]
	ldw r1, cp[.LCPI19_8]
	.loc	2 1058 28
	{
		mov r0, r9
		nop
	}
	bl PFLOAT_Load_f
	.loc	2 1058 28
	ldaw r2, dp[agcmaxgain]
	std r1, r0, r2[0]
	ldw r1, cp[.LCPI19_9]
	.loc	2 1059 28
	{
		mov r0, r9
		nop
	}
	bl PFLOAT_Load_f
	.loc	2 1059 28
	ldaw r2, dp[agcdesiredlevel]
	std r1, r0, r2[0]
	ldw r1, cp[.LCPI19_10]
	.loc	2 1060 28
	{
		mov r0, r9
		nop
	}
	bl PFLOAT_Load_f
	.loc	2 1060 28
	ldaw r2, dp[agcgain]
	std r1, r0, r2[0]
	ldw r1, cp[.LCPI19_11]
	.loc	2 1061 28
	{
		mov r0, r9
		nop
	}
	bl PFLOAT_Load_f
	.loc	2 1061 28
	ldaw r2, dp[agctime]
	std r1, r0, r2[0]
	.loc	2 1062 5
	stw r5, dp[cnionoff]
	.loc	2 1063 5
	stw r6, dp[freezeonoff]
	ldw r1, cp[.LCPI19_12]
	.loc	2 1064 28
	{
		mov r0, r9
		nop
	}
	bl PFLOAT_Load_f
	.loc	2 1064 28
	ldaw r2, dp[beamwidth]
	std r1, r0, r2[0]
	.loc	2 1065 28
	{
		mov r0, r9
		mov r1, r6
	}
	bl PFLOAT_Load_f
	.loc	2 1065 28
	ldaw r2, dp[beamangle]
	std r1, r0, r2[0]
	.loc	2 1066 5
	stw r5, dp[statnoiseonoff]
	ldw r8, cp[.LCPI19_13]
	.loc	2 1067 28
	{
		mov r0, r9
		mov r1, r8
	}
	bl PFLOAT_Load_f
	.loc	2 1067 28
	ldaw r2, dp[gamma_ns]
	std r1, r0, r2[0]
	ldw r1, cp[.LCPI19_14]
	.loc	2 1068 28
	{
		mov r0, r9
		nop
	}
	bl PFLOAT_Load_f
	.loc	2 1068 28
	ldaw r2, dp[min_ns]
	std r1, r0, r2[0]
	.loc	2 1069 5
	stw r5, dp[nonstatnoiseonoff]
	ldw r1, cp[.LCPI19_15]
	.loc	2 1070 28
	{
		mov r0, r9
		mov r7, r1
	}
	bl PFLOAT_Load_f
	.loc	2 1070 28
	ldaw r2, dp[gamma_nn]
	std r1, r0, r2[0]
	{
		mov r4, r9
		nop
	}
.Ltmp300:
	ldw r9, cp[.LCPI19_16]
	.loc	2 1071 28
	{
		mov r0, r4
		mov r1, r9
	}
	bl PFLOAT_Load_f
	.loc	2 1071 28
	ldaw r2, dp[min_nn]
	std r1, r0, r2[0]
	.loc	2 1072 5
	stw r5, dp[echoonoff]
	.loc	2 1073 28
	{
		mov r0, r4
		mov r1, r8
	}
	bl PFLOAT_Load_f
	.loc	2 1073 28
	ldaw r2, dp[gamma_e]
	std r1, r0, r2[0]
	.loc	2 1074 28
	{
		mov r0, r4
		mov r1, r8
	}
	bl PFLOAT_Load_f
	.loc	2 1074 28
	ldaw r2, dp[gamma_etail]
	std r1, r0, r2[0]
	.loc	2 1075 28
	{
		mov r0, r4
		mov r1, r8
	}
	bl PFLOAT_Load_f
	.loc	2 1075 28
	ldaw r2, dp[gamma_enl]
	std r1, r0, r2[0]
	.loc	2 1076 5
	stw r6, dp[nlattenonoff]
	.loc	2 1077 5
	stw r6, dp[nlaec_mode]
	.loc	2 1078 5
	stw r6, dp[fsbupdated]
	.loc	2 1079 5
	stw r6, dp[fsbpathchange]
	.loc	2 1080 5
	stw r5, dp[transientonoff]
	ldw r1, cp[.LCPI19_17]
	.loc	2 1081 28
	{
		mov r0, r4
		nop
	}
	bl PFLOAT_Load_f
	.loc	2 1081 28
	ldaw r2, dp[spthresh]
	std r1, r0, r2[0]
	.loc	2 1082 5
	stw r6, dp[xnltrainonoff]
	.loc	2 1083 5
	stw r6, dp[fsbfreezeonoff]
	.loc	2 1084 5
	stw r6, dp[voiceactivity]
	.loc	2 1085 5
	stw r5, dp[sr_statnoiseonoff]
	.loc	2 1086 5
	stw r5, dp[sr_nonstatnoiseonoff]
	.loc	2 1087 28
	{
		mov r0, r4
		mov r1, r8
	}
	bl PFLOAT_Load_f
	.loc	2 1087 28
	ldaw r2, dp[sr_gamma_ns]
	std r1, r0, r2[0]
	.loc	2 1088 28
	{
		mov r0, r4
		mov r1, r7
	}
	bl PFLOAT_Load_f
	.loc	2 1088 28
	ldaw r2, dp[sr_gamma_nn]
	std r1, r0, r2[0]
	.loc	2 1089 28
	{
		mov r0, r4
		nop
	}
	ldw r1, cp[.LCPI19_14]
	bl PFLOAT_Load_f
	.loc	2 1089 28
	ldaw r2, dp[sr_min_ns]
	std r1, r0, r2[0]
	.loc	2 1090 28
	{
		mov r0, r4
		mov r1, r9
	}
	{
		mov r7, r4
		nop
	}
.Ltmp301:
	bl PFLOAT_Load_f
	.loc	2 1090 28
	ldaw r2, dp[sr_min_nn]
	std r1, r0, r2[0]
	.loc	2 1091 28
	{
		mov r0, r7
		mov r1, r6
	}
	bl PFLOAT_Load_f
	.loc	2 1091 28
	ldaw r2, dp[sr_absqfloor]
	std r1, r0, r2[0]
	ldw r1, cp[.LCPI19_18]
	.loc	2 1092 28
	{
		mov r0, r7
		nop
	}
	bl PFLOAT_Load_f
	.loc	2 1092 28
	ldaw r2, dp[sr_gamma_vad]
	std r1, r0, r2[0]
	.loc	2 1096 5
	stw r6, dp[profilingonoff]
	.loc	2 1102 5
	ldw r0, dp[bap_ap]
	.loc	2 1102 5
	{
		add r1, r0, r10
		nop
	}
	{
		nop
		ldw r1, r1[0]
	}
	ldw r2, cp[.LCPI19_5]
	.loc	2 1102 5
	{
		add r2, r0, r2
		nop
	}
	{
		nop
		ldw r2, r2[0]
	}
	ldw r3, cp[.LCPI19_7]
	.loc	2 1102 5
	{
		add r3, r0, r3
		nop
	}
	.loc	2 1102 5
	ldd r11, r3, r3[0]
	ldw r4, cp[.LCPI19_19]
	.loc	2 1102 5
	{
		add r0, r0, r4
		nop
	}
	{
		nop
		stw r0, sp[2]
	}
	.loc	2 1102 5
	{
		mov r0, r7
		stw r11, sp[1]
	}
	bl SRTVBF_BAP_Init
	.loc	2 1108 5
	ldw r0, dp[bap_ap]
	.loc	2 1108 5
	{
		add r0, r0, r10
		nop
	}
	.loc	2 1108 5
	{
		mkmsk r8, 2
		ldw r1, r0[0]
	}
.Ltmp302:
	{
		ldaw r3, sp[5]
		mov r0, r7
	}
.Ltmp303:
	.loc	2 1108 5
	{
		mov r2, r8
		nop
	}
	bl RFMatCreate_T
.Ltmp304:
	.loc	2 1110 5
	ldw r0, dp[bap_ap]
	.loc	2 1110 5
	{
		add r2, r0, r10
		nop
	}
	{
		nop
		ldw r3, r2[0]
	}
	ldaw r11, cp[micgeo]
	{
		nop
		ldw r1, sp[5]
	}
	bf r3, .LBB19_7
.Ltmp305:
	ldw r3, cp[.LCPI19_20]
	ldw r5, cp[.LCPI19_21]
.Ltmp306:
.LBB19_6:
	.loc	2 1114 13
	{
		mov r9, r8
		ldw r4, r1[r6]
	}
.Ltmp307:
	{
		nop
		ldw r8, r11[0]
	}
	{
		nop
		stw r8, r4[0]
	}
.Ltmp308:
	{
		nop
		ldw r8, r11[1]
	}
	{
		nop
		stw r8, r4[1]
	}
	{
		nop
		ldw r8, r11[2]
	}
	{
		nop
		stw r8, r4[2]
	}
.Ltmp309:
	.loc	9 300 5
	ldaw r8, r4[-4]
	{
		nop
		stw r3, r8[0]
	}
.Ltmp310:
	.loc	9 637 5
	ldaw r8, r4[-3]
	.loc	9 637 5
	{
		mov r8, r9
		stw r9, r8[0]
	}
	.loc	9 638 5
	{
		sub r4, r4, 8
		nop
	}
.Ltmp311:
	.loc	9 638 5
	{
		add r6, r6, 1
		stw r5, r4[0]
	}
.Ltmp312:
	{
		nop
		ldw r4, r2[0]
	}
.Ltmp313:
	.loc	2 1110 5
	ldaw r11, r11[3]
	.loc	2 1110 5
	{
		lsu r4, r6, r4
		nop
	}
	bt r4, .LBB19_6
.Ltmp314:
.LBB19_7:
	ldw r9, cp[.LCPI19_19]
	.loc	2 1119 5
	{
		add r0, r0, r9
		nop
	}
	.loc	2 1119 5
	{
		mov r0, r7
		ldw r2, r0[0]
	}
	.loc	2 1119 5
	bl SRTVBF_SetMicPositions
	.loc	2 1120 5
	ldw r0, dp[bap_ap]
	.loc	2 1120 5
	{
		add r0, r0, r10
		nop
	}
	{
		nop
		ldw r1, r0[0]
	}
	.loc	2 1120 5
	{
		mov r0, r7
		ldw r2, sp[5]
	}
	.loc	2 1120 5
	bl RFMatClose_T
	.loc	2 1125 5
	ldw r0, dp[bap_ap]
	.loc	2 1125 5
	{
		add r0, r0, r9
		nop
	}
.Ltmp315:
	.loc	2 1125 5
	{
		ldaw r1, sp[7]
		ldw r3, r0[0]
	}
.Ltmp316:
	{
		ldaw r2, sp[6]
		mov r0, r7
	}
.Ltmp317:
	.loc	2 1125 5
	bl SRTVBF_GetNLModelSize
	{
		nop
		ldw r1, sp[7]
	}
.Ltmp318:
	.loc	2 1126 5
	{
		ldaw r3, sp[5]
		ldw r2, sp[6]
	}
.Ltmp319:
	.loc	2 1126 5
	{
		mov r0, r7
		nop
	}
	bl RFMatCreate_T
	{
		nop
		ldw r1, sp[7]
	}
	{
		ldc r5, 16
		ldw r2, sp[6]
	}
	.loc	2 1127 9
.Ltmp320:
	{
		eq r0, r1, r5
		nop
	}
	bf r0, .LBB19_8
.Ltmp321:
	{
		mkmsk r0, 4
		nop
	}
	{
		eq r0, r2, r0
		nop
	}
	.loc	2 1091 28
	ldaw r4, dp[sr_absqfloor]
	bf r0, .LBB19_20
.Ltmp322:
	{
		ldc r5, 0
		stw r7, sp[4]
	}
	{
		nop
		ldw r3, sp[5]
	}
	.loc	2 1136 13
.Ltmp323:
	ldaw r11, dp[nl_model]
	ldw r6, cp[.LCPI19_22]
	ldw r10, cp[.LCPI19_21]
	{
		mkmsk r8, 7
		mov r2, r5
	}
	{
		mov r0, r5
		mov r9, r5
	}
	bu .LBB19_11
.Ltmp324:
.LBB19_21:
	.loc	2 1136 13
	{
		add r9, r9, 1
		eq r2, r2, 0
	}
.Ltmp325:
.LBB19_11:
	.loc	2 1136 13
	{
		zext r2, 1
		ldw r1, r3[r0]
	}
.Ltmp326:
	bt r2, .LBB19_15
.Ltmp327:
	ldaw r4, r11[r9]
	{
		mov r2, r5
		nop
	}
.Ltmp328:
.LBB19_13:
	{
		nop
		ldw r7, r4[r2]
	}
	.loc	2 1134 17
.Ltmp329:
	stw r7, r1[r2]
.Ltmp330:
	.loc	2 1132 35
	{
		add r2, r2, 1
		ldw r7, sp[6]
	}
.Ltmp331:
	.loc	2 1132 13
	{
		lsu r7, r2, r7
		nop
	}
	.loc	2 1132 13
	bt r7, .LBB19_13
.Ltmp332:
	.loc	2 1132 13
	{
		add r9, r9, r2
		nop
	}
.Ltmp333:
.LBB19_15:
	{
		nop
		ldw r4, r11[r9]
	}
.Ltmp334:
	.loc	9 718 5
	{
		lss r7, r4, r6
		mov r2, r6
	}
	bt r7, .LBB19_18
.Ltmp335:
	.loc	9 718 5
	{
		lss r7, r8, r4
		mov r2, r8
	}
	bt r7, .LBB19_18
.Ltmp336:
	.loc	9 718 5
	{
		mov r2, r4
		nop
	}
.Ltmp337:
.LBB19_18:
	.loc	9 300 5
	ldaw r4, r1[-4]
	{
		nop
		stw r2, r4[0]
	}
	{
		nop
		ldw r2, sp[6]
	}
.Ltmp338:
	.loc	9 637 5
	ldaw r4, r1[-3]
	.loc	9 637 5
	{
		sub r1, r1, 8
		stw r2, r4[0]
	}
.Ltmp339:
	.loc	9 638 5
	{
		add r0, r0, 1
		stw r10, r1[0]
	}
.Ltmp340:
	{
		nop
		ldw r1, sp[7]
	}
.Ltmp341:
	.loc	2 1132 13
	{
		lsu r4, r0, r1
		ldw r2, sp[6]
	}
.Ltmp342:
	.loc	2 1130 9
	bt r4, .LBB19_21
.Ltmp343:
	{
		nop
		ldw r7, sp[4]
	}
.Ltmp344:
	ldw r9, cp[.LCPI19_19]
	.loc	2 1091 28
	ldaw r10, dp[sr_absqfloor]
	{
		mov r4, r10
		ldc r5, 16
	}
	{
		mkmsk r8, 2
		nop
	}
	bu .LBB19_20
.Ltmp345:
.LBB19_8:
	ldaw r4, dp[sr_absqfloor]
.Ltmp346:
.LBB19_20:
	{
		nop
		ldw r3, sp[5]
	}
	.loc	2 1140 5
	ldw r0, dp[bap_ap]
	.loc	2 1140 5
	{
		add r0, r0, r9
		nop
	}
	{
		nop
		ldw r0, r0[0]
	}
.Ltmp347:
	.loc	2 1140 5
	{
		mov r0, r7
		stw r0, sp[1]
	}
	bl SRTVBF_SetNLModel
	{
		nop
		ldw r1, sp[7]
	}
	.loc	2 1141 5
	{
		mov r0, r7
		ldw r2, sp[5]
	}
	.loc	2 1141 5
	bl RFMatClose_T
.Ltmp348:
	{
		nop
		ldw r6, r7[0]
	}
.Ltmp349:
	ldc r0, 444
.Ltmp350:
	.loc	10 1089 23
	{
		add r0, r6, r0
		nop
	}
.Ltmp351:
	.loc	10 1089 23
	{
		ldc r0, 0
		stw r0, r7[0]
	}
.Ltmp352:
	.loc	2 1149 5
	{
		mkmsk r3, 1
		stw r0, r6[0]
	}
	{
		nop
		stw r3, r6[2]
	}
	.loc	2 1151 5
	ldaw r0, dp[agconoff]
	{
		nop
		stw r0, r6[1]
	}
.Ltmp353:
	{
		nop
		stw r3, r6[3]
	}
	{
		nop
		stw r3, r6[5]
	}
	.loc	2 1058 28
	ldaw r0, dp[agcmaxgain]
.Ltmp354:
	.loc	2 1155 5
	{
		ldc r0, 2
		stw r0, r6[4]
	}
	{
		nop
		stw r0, r6[6]
	}
	{
		nop
		stw r3, r6[8]
	}
	.loc	2 1059 28
	ldaw r0, dp[agcdesiredlevel]
	{
		nop
		stw r0, r6[7]
	}
.Ltmp355:
	{
		nop
		stw r8, r6[9]
	}
	{
		nop
		stw r3, r6[11]
	}
	.loc	2 1060 28
	ldaw r0, dp[agcgain]
.Ltmp356:
	.loc	2 1163 5
	{
		ldc r0, 48
		stw r0, r6[10]
	}
	.loc	2 1165 5
	{
		add r0, r6, r0
		ldc r1, 4
	}
	.loc	2 1165 5
	{
		ldc r0, 56
		stw r1, r0[0]
	}
	.loc	2 1166 5
	{
		add r0, r6, r0
		nop
	}
	.loc	2 1166 5
	{
		ldc r0, 52
		stw r3, r0[0]
	}
	.loc	2 1167 5
	{
		add r0, r6, r0
		nop
	}
	.loc	2 1061 28
	ldaw r1, dp[agctime]
.Ltmp357:
	.loc	2 1167 5
	{
		ldc r0, 60
		stw r1, r0[0]
	}
	.loc	2 1169 5
	{
		add r0, r6, r0
		ldc r1, 5
	}
	{
		nop
		stw r1, r0[0]
	}
	ldc r0, 68
	.loc	2 1170 5
	{
		add r0, r6, r0
		nop
	}
	{
		nop
		stw r3, r0[0]
	}
	ldc r0, 64
	.loc	2 1171 5
	{
		add r0, r6, r0
		nop
	}
	.loc	2 1171 5
	ldaw r1, dp[cnionoff]
	{
		nop
		stw r1, r0[0]
	}
	ldc r0, 72
.Ltmp358:
	.loc	2 1173 5
	{
		add r0, r6, r0
		ldc r1, 6
	}
	{
		nop
		stw r1, r0[0]
	}
	ldc r0, 80
	.loc	2 1174 5
	{
		add r0, r6, r0
		nop
	}
	{
		nop
		stw r3, r0[0]
	}
	ldc r0, 76
	.loc	2 1175 5
	{
		add r0, r6, r0
		nop
	}
	.loc	2 1175 5
	ldaw r1, dp[freezeonoff]
	{
		nop
		stw r1, r0[0]
	}
	ldc r0, 84
.Ltmp359:
	.loc	2 1177 5
	{
		add r0, r6, r0
		ldc r1, 8
	}
	{
		nop
		stw r1, r0[0]
	}
	ldc r0, 92
	.loc	2 1178 5
	{
		add r0, r6, r0
		nop
	}
	{
		nop
		stw r3, r0[0]
	}
	ldc r0, 88
	.loc	2 1179 5
	{
		add r0, r6, r0
		nop
	}
	.loc	2 1064 28
	ldaw r1, dp[beamwidth]
	{
		nop
		stw r1, r0[0]
	}
	ldc r0, 96
.Ltmp360:
	.loc	2 1181 5
	{
		add r0, r6, r0
		ldc r1, 9
	}
	{
		nop
		stw r1, r0[0]
	}
	ldc r0, 104
	.loc	2 1182 5
	{
		add r0, r6, r0
		nop
	}
	{
		nop
		stw r3, r0[0]
	}
	ldc r0, 100
	.loc	2 1183 5
	{
		add r0, r6, r0
		nop
	}
	.loc	2 1065 28
	ldaw r1, dp[beamangle]
	{
		nop
		stw r1, r0[0]
	}
	ldc r0, 108
.Ltmp361:
	.loc	2 1185 5
	{
		add r0, r6, r0
		ldc r1, 10
	}
	{
		nop
		stw r1, r0[0]
	}
	ldc r0, 116
	.loc	2 1186 5
	{
		add r0, r6, r0
		nop
	}
	{
		nop
		stw r3, r0[0]
	}
	ldc r0, 112
	.loc	2 1187 5
	{
		add r0, r6, r0
		nop
	}
	.loc	2 1187 5
	ldaw r1, dp[statnoiseonoff]
	{
		nop
		stw r1, r0[0]
	}
	ldc r0, 120
.Ltmp362:
	.loc	2 1189 5
	{
		add r0, r6, r0
		ldc r1, 11
	}
	{
		nop
		stw r1, r0[0]
	}
	ldc r0, 128
	.loc	2 1190 5
	{
		add r0, r6, r0
		nop
	}
	{
		nop
		stw r3, r0[0]
	}
	ldc r0, 124
	.loc	2 1191 5
	{
		add r0, r6, r0
		nop
	}
	.loc	2 1067 28
	ldaw r1, dp[gamma_ns]
	{
		nop
		stw r1, r0[0]
	}
	ldc r0, 132
.Ltmp363:
	.loc	2 1193 5
	{
		add r0, r6, r0
		ldc r1, 12
	}
	{
		nop
		stw r1, r0[0]
	}
	ldc r0, 140
	.loc	2 1194 5
	{
		add r0, r6, r0
		nop
	}
	{
		nop
		stw r3, r0[0]
	}
	ldc r0, 136
	.loc	2 1195 5
	{
		add r0, r6, r0
		nop
	}
	.loc	2 1068 28
	ldaw r1, dp[min_ns]
	{
		nop
		stw r1, r0[0]
	}
	ldc r0, 144
.Ltmp364:
	.loc	2 1197 5
	{
		add r0, r6, r0
		ldc r1, 13
	}
	{
		nop
		stw r1, r0[0]
	}
	ldc r0, 152
	.loc	2 1198 5
	{
		add r0, r6, r0
		nop
	}
	{
		nop
		stw r3, r0[0]
	}
	ldc r0, 148
	.loc	2 1199 5
	{
		add r0, r6, r0
		nop
	}
	.loc	2 1199 5
	ldaw r1, dp[nonstatnoiseonoff]
	{
		nop
		stw r1, r0[0]
	}
	ldc r0, 156
.Ltmp365:
	.loc	2 1201 5
	{
		add r0, r6, r0
		ldc r1, 14
	}
	{
		nop
		stw r1, r0[0]
	}
	ldc r0, 164
	.loc	2 1202 5
	{
		add r0, r6, r0
		nop
	}
	{
		nop
		stw r3, r0[0]
	}
	ldc r0, 160
	.loc	2 1203 5
	{
		add r0, r6, r0
		nop
	}
	.loc	2 1070 28
	ldaw r1, dp[gamma_nn]
	{
		nop
		stw r1, r0[0]
	}
	ldc r0, 168
.Ltmp366:
	.loc	2 1205 5
	{
		add r0, r6, r0
		mkmsk r1, 4
	}
	{
		nop
		stw r1, r0[0]
	}
	ldc r0, 176
	.loc	2 1206 5
	{
		add r0, r6, r0
		nop
	}
	{
		nop
		stw r3, r0[0]
	}
	ldc r0, 172
	.loc	2 1207 5
	{
		add r0, r6, r0
		nop
	}
	.loc	2 1071 28
	ldaw r1, dp[min_nn]
	{
		nop
		stw r1, r0[0]
	}
	ldc r0, 180
.Ltmp367:
	.loc	2 1209 5
	{
		add r0, r6, r0
		nop
	}
	{
		nop
		stw r5, r0[0]
	}
	ldc r0, 188
	.loc	2 1210 5
	{
		add r0, r6, r0
		nop
	}
	{
		nop
		stw r3, r0[0]
	}
	ldc r0, 184
	.loc	2 1211 5
	{
		add r0, r6, r0
		nop
	}
	.loc	2 1211 5
	ldaw r1, dp[echoonoff]
	{
		nop
		stw r1, r0[0]
	}
	ldc r0, 192
.Ltmp368:
	.loc	2 1213 5
	{
		add r0, r6, r0
		ldc r1, 17
	}
	{
		nop
		stw r1, r0[0]
	}
	ldc r0, 200
	.loc	2 1214 5
	{
		add r0, r6, r0
		nop
	}
	{
		nop
		stw r3, r0[0]
	}
	ldc r0, 196
	.loc	2 1215 5
	{
		add r0, r6, r0
		nop
	}
	.loc	2 1073 28
	ldaw r1, dp[gamma_e]
	{
		nop
		stw r1, r0[0]
	}
	ldc r0, 204
.Ltmp369:
	.loc	2 1217 5
	{
		add r0, r6, r0
		ldc r1, 18
	}
	{
		nop
		stw r1, r0[0]
	}
	ldc r0, 212
	.loc	2 1218 5
	{
		add r0, r6, r0
		nop
	}
	{
		nop
		stw r3, r0[0]
	}
	ldc r0, 208
	.loc	2 1219 5
	{
		add r0, r6, r0
		nop
	}
	.loc	2 1074 28
	ldaw r1, dp[gamma_etail]
	{
		nop
		stw r1, r0[0]
	}
	ldc r0, 216
.Ltmp370:
	.loc	2 1221 5
	{
		add r0, r6, r0
		ldc r1, 19
	}
	{
		nop
		stw r1, r0[0]
	}
	ldc r0, 224
	.loc	2 1222 5
	{
		add r0, r6, r0
		nop
	}
	{
		nop
		stw r3, r0[0]
	}
	ldc r0, 220
	.loc	2 1223 5
	{
		add r0, r6, r0
		nop
	}
	.loc	2 1075 28
	ldaw r1, dp[gamma_enl]
	{
		nop
		stw r1, r0[0]
	}
	ldc r0, 228
.Ltmp371:
	.loc	2 1225 5
	{
		add r0, r6, r0
		ldc r1, 20
	}
	{
		nop
		stw r1, r0[0]
	}
	ldc r0, 236
	.loc	2 1226 5
	{
		add r0, r6, r0
		nop
	}
	{
		nop
		stw r3, r0[0]
	}
	ldc r0, 232
	.loc	2 1227 5
	{
		add r0, r6, r0
		nop
	}
	.loc	2 1227 5
	ldaw r1, dp[nlattenonoff]
	{
		nop
		stw r1, r0[0]
	}
	ldc r0, 240
.Ltmp372:
	.loc	2 1229 5
	{
		add r0, r6, r0
		ldc r1, 22
	}
	{
		nop
		stw r1, r0[0]
	}
	ldc r0, 248
	.loc	2 1230 5
	{
		add r0, r6, r0
		nop
	}
	{
		nop
		stw r3, r0[0]
	}
	ldc r0, 244
	.loc	2 1231 5
	{
		add r0, r6, r0
		nop
	}
	.loc	2 1231 5
	ldaw r1, dp[nlaec_mode]
	{
		nop
		stw r1, r0[0]
	}
	ldc r0, 252
.Ltmp373:
	.loc	2 1241 5
	{
		add r0, r6, r0
		ldc r1, 29
	}
	{
		nop
		stw r1, r0[0]
	}
	ldc r0, 260
	.loc	2 1242 5
	{
		add r0, r6, r0
		nop
	}
	{
		nop
		stw r3, r0[0]
	}
	ldc r0, 256
	.loc	2 1243 5
	{
		add r0, r6, r0
		nop
	}
	.loc	2 1243 5
	ldaw r1, dp[transientonoff]
	{
		nop
		stw r1, r0[0]
	}
	ldc r0, 264
.Ltmp374:
	.loc	2 1245 5
	{
		add r0, r6, r0
		ldc r1, 33
	}
	{
		nop
		stw r1, r0[0]
	}
	ldc r0, 272
	.loc	2 1246 5
	{
		add r0, r6, r0
		nop
	}
	{
		nop
		stw r3, r0[0]
	}
	ldc r0, 268
	.loc	2 1247 5
	{
		add r0, r6, r0
		nop
	}
	.loc	2 1081 28
	ldaw r1, dp[spthresh]
	{
		nop
		stw r1, r0[0]
	}
	ldc r0, 276
.Ltmp375:
	.loc	2 1249 5
	{
		add r0, r6, r0
		ldc r2, 34
	}
	{
		nop
		stw r2, r0[0]
	}
	ldc r0, 284
	.loc	2 1250 5
	{
		add r0, r6, r0
		nop
	}
	{
		nop
		stw r3, r0[0]
	}
	ldc r0, 280
	.loc	2 1251 5
	{
		add r0, r6, r0
		nop
	}
	.loc	2 1251 5
	ldaw r1, dp[xnltrainonoff]
	{
		nop
		stw r1, r0[0]
	}
	ldc r0, 288
.Ltmp376:
	.loc	2 1253 5
	{
		add r0, r6, r0
		ldc r1, 35
	}
	{
		nop
		stw r1, r0[0]
	}
	ldc r0, 296
	.loc	2 1254 5
	{
		add r0, r6, r0
		nop
	}
	{
		nop
		stw r3, r0[0]
	}
	ldc r0, 292
	.loc	2 1255 5
	{
		add r0, r6, r0
		nop
	}
	.loc	2 1255 5
	ldaw r1, dp[fsbfreezeonoff]
	{
		nop
		stw r1, r0[0]
	}
	ldc r0, 300
.Ltmp377:
	.loc	2 1261 5
	{
		add r0, r6, r0
		ldc r1, 38
	}
	{
		nop
		stw r1, r0[0]
	}
	ldc r0, 308
	.loc	2 1262 5
	{
		add r0, r6, r0
		nop
	}
	{
		nop
		stw r3, r0[0]
	}
	ldc r0, 304
	.loc	2 1263 5
	{
		add r0, r6, r0
		nop
	}
	.loc	2 1263 5
	ldaw r1, dp[sr_statnoiseonoff]
	{
		nop
		stw r1, r0[0]
	}
	ldc r0, 312
.Ltmp378:
	.loc	2 1265 5
	{
		add r0, r6, r0
		ldc r1, 39
	}
	{
		nop
		stw r1, r0[0]
	}
	ldc r0, 320
	.loc	2 1266 5
	{
		add r0, r6, r0
		nop
	}
	{
		nop
		stw r3, r0[0]
	}
	ldc r0, 316
	.loc	2 1267 5
	{
		add r0, r6, r0
		nop
	}
	.loc	2 1267 5
	ldaw r1, dp[sr_nonstatnoiseonoff]
	{
		nop
		stw r1, r0[0]
	}
	ldc r0, 324
.Ltmp379:
	.loc	2 1269 5
	{
		add r0, r6, r0
		ldc r1, 40
	}
	{
		nop
		stw r1, r0[0]
	}
	ldc r0, 332
	.loc	2 1270 5
	{
		add r0, r6, r0
		nop
	}
	{
		nop
		stw r3, r0[0]
	}
	ldc r0, 328
	.loc	2 1271 5
	{
		add r0, r6, r0
		nop
	}
	.loc	2 1087 28
	ldaw r1, dp[sr_gamma_ns]
	{
		nop
		stw r1, r0[0]
	}
	ldc r0, 336
.Ltmp380:
	.loc	2 1273 5
	{
		add r0, r6, r0
		ldc r1, 41
	}
	{
		nop
		stw r1, r0[0]
	}
	ldc r0, 344
	.loc	2 1274 5
	{
		add r0, r6, r0
		nop
	}
	{
		nop
		stw r3, r0[0]
	}
	ldc r0, 340
	.loc	2 1275 5
	{
		add r0, r6, r0
		nop
	}
	.loc	2 1088 28
	ldaw r1, dp[sr_gamma_nn]
	{
		nop
		stw r1, r0[0]
	}
	ldc r0, 348
.Ltmp381:
	.loc	2 1277 5
	{
		add r0, r6, r0
		ldc r1, 42
	}
	{
		nop
		stw r1, r0[0]
	}
	ldc r0, 356
	.loc	2 1278 5
	{
		add r0, r6, r0
		nop
	}
	{
		nop
		stw r3, r0[0]
	}
	ldc r0, 352
	.loc	2 1279 5
	{
		add r0, r6, r0
		nop
	}
	.loc	2 1089 28
	ldaw r1, dp[sr_min_ns]
	{
		nop
		stw r1, r0[0]
	}
	ldc r0, 360
.Ltmp382:
	.loc	2 1281 5
	{
		add r0, r6, r0
		ldc r1, 43
	}
	{
		nop
		stw r1, r0[0]
	}
	ldc r0, 368
	.loc	2 1282 5
	{
		add r0, r6, r0
		nop
	}
	{
		nop
		stw r3, r0[0]
	}
	ldc r0, 364
	.loc	2 1283 5
	{
		add r0, r6, r0
		nop
	}
	.loc	2 1090 28
	ldaw r1, dp[sr_min_nn]
	{
		nop
		stw r1, r0[0]
	}
	ldc r0, 372
.Ltmp383:
	.loc	2 1285 5
	{
		add r0, r6, r0
		ldc r1, 44
	}
	{
		nop
		stw r1, r0[0]
	}
	ldc r0, 380
	.loc	2 1286 5
	{
		add r0, r6, r0
		nop
	}
	{
		nop
		stw r3, r0[0]
	}
	ldc r0, 376
	.loc	2 1287 5
	{
		add r0, r6, r0
		nop
	}
	{
		nop
		stw r4, r0[0]
	}
	ldc r0, 384
.Ltmp384:
	.loc	2 1289 5
	{
		add r0, r6, r0
		ldc r1, 45
	}
	{
		nop
		stw r1, r0[0]
	}
	ldc r0, 392
	.loc	2 1290 5
	{
		add r0, r6, r0
		nop
	}
	{
		nop
		stw r3, r0[0]
	}
	ldc r0, 388
	.loc	2 1291 5
	{
		add r0, r6, r0
		nop
	}
	.loc	2 1092 28
	ldaw r1, dp[sr_gamma_vad]
	{
		nop
		stw r1, r0[0]
	}
	ldc r0, 396
.Ltmp385:
	.loc	2 1293 5
	{
		add r0, r6, r0
		ldc r1, 23
	}
	{
		nop
		stw r1, r0[0]
	}
	ldc r0, 404
	.loc	2 1294 5
	{
		add r0, r6, r0
		nop
	}
	{
		nop
		stw r3, r0[0]
	}
	ldc r0, 400
	.loc	2 1295 5
	{
		add r0, r6, r0
		nop
	}
	.loc	2 1295 5
	ldaw r1, dp[profilingonoff]
	{
		nop
		stw r1, r0[0]
	}
.Ltmp386:
	.loc	2 1298 5
	ldw r0, dp[bap_ap]
	.loc	2 1298 5
	{
		add r0, r0, r9
		nop
	}
	.loc	2 1298 5
	{
		mov r0, r7
		ldw r3, r0[0]
	}
	.loc	2 1298 5
	{
		mov r1, r6
		nop
	}
	bl SRTVBF_BAP_SetPar
	{
		nop
		stw r6, r7[0]
	}
	{
		nop
		ldw r10, sp[14]
	}
	.loc	2 1303 1
	ldd r9, r8, sp[6]
	ldd r7, r6, sp[5]
.Ltmp387:
	ldd r5, r4, sp[4]
	{
		nop
		retsp 16
	}
	# RETURN_REG_HOLDER
.Ltmp388:
	.cc_bottom BeClear_SRTVBF_BapInit.function
	.set	BeClear_SRTVBF_BapInit.nstackwords,((APES_SetMemPools.nstackwords $M __memcpy_4.nstackwords $M OBJ_Init.nstackwords $M PFLOAT_Load_f.nstackwords $M SRTVBF_BAP_Init.nstackwords $M SRTVBF_SetMicPositions.nstackwords $M SRTVBF_GetNLModelSize.nstackwords $M RFMatCreate_T.nstackwords $M SRTVBF_SetNLModel.nstackwords $M RFMatClose_T.nstackwords $M SRTVBF_BAP_SetPar.nstackwords) + 16)
	.globl	BeClear_SRTVBF_BapInit.nstackwords
	.set	BeClear_SRTVBF_BapInit.maxcores,APES_SetMemPools.maxcores $M OBJ_Init.maxcores $M PFLOAT_Load_f.maxcores $M RFMatClose_T.maxcores $M RFMatCreate_T.maxcores $M SRTVBF_BAP_Init.maxcores $M SRTVBF_BAP_SetPar.maxcores $M SRTVBF_GetNLModelSize.maxcores $M SRTVBF_SetMicPositions.maxcores $M SRTVBF_SetNLModel.maxcores $M 1
	.globl	BeClear_SRTVBF_BapInit.maxcores
	.set	BeClear_SRTVBF_BapInit.maxtimers,APES_SetMemPools.maxtimers $M OBJ_Init.maxtimers $M PFLOAT_Load_f.maxtimers $M RFMatClose_T.maxtimers $M RFMatCreate_T.maxtimers $M SRTVBF_BAP_Init.maxtimers $M SRTVBF_BAP_SetPar.maxtimers $M SRTVBF_GetNLModelSize.maxtimers $M SRTVBF_SetMicPositions.maxtimers $M SRTVBF_SetNLModel.maxtimers $M 0
	.globl	BeClear_SRTVBF_BapInit.maxtimers
	.set	BeClear_SRTVBF_BapInit.maxchanends,APES_SetMemPools.maxchanends $M OBJ_Init.maxchanends $M PFLOAT_Load_f.maxchanends $M RFMatClose_T.maxchanends $M RFMatCreate_T.maxchanends $M SRTVBF_BAP_Init.maxchanends $M SRTVBF_BAP_SetPar.maxchanends $M SRTVBF_GetNLModelSize.maxchanends $M SRTVBF_SetMicPositions.maxchanends $M SRTVBF_SetNLModel.maxchanends $M 0
	.globl	BeClear_SRTVBF_BapInit.maxchanends
.Ltmp389:
	.size	BeClear_SRTVBF_BapInit, .Ltmp389-BeClear_SRTVBF_BapInit
.Lfunc_end19:
	.cfi_endproc

	.section	.cp.rodata.cst4,"aMc",@progbits,4
	.cc_top .LCPI20_0.data,.LCPI20_0
	.align	4
	.type	.LCPI20_0,@object
	.size	.LCPI20_0, 4
.LCPI20_0:
	.long	71000
	.cc_bottom .LCPI20_0.data
	.cc_top .LCPI20_1.data,.LCPI20_1
	.align	4
	.type	.LCPI20_1,@object
	.size	.LCPI20_1, 4
.LCPI20_1:
	.long	71004
	.cc_bottom .LCPI20_1.data
	.cc_top .LCPI20_2.data,.LCPI20_2
	.align	4
	.type	.LCPI20_2,@object
	.size	.LCPI20_2, 4
.LCPI20_2:
	.long	71008
	.cc_bottom .LCPI20_2.data
	.cc_top .LCPI20_3.data,.LCPI20_3
	.align	4
	.type	.LCPI20_3,@object
	.size	.LCPI20_3, 4
.LCPI20_3:
	.long	71012
	.cc_bottom .LCPI20_3.data
	.cc_top .LCPI20_4.data,.LCPI20_4
	.align	4
	.type	.LCPI20_4,@object
	.size	.LCPI20_4, 4
.LCPI20_4:
	.long	71036
	.cc_bottom .LCPI20_4.data
	.cc_top .LCPI20_5.data,.LCPI20_5
	.align	4
	.type	.LCPI20_5,@object
	.size	.LCPI20_5, 4
.LCPI20_5:
	.long	71016
	.cc_bottom .LCPI20_5.data
	.cc_top .LCPI20_6.data,.LCPI20_6
	.align	4
	.type	.LCPI20_6,@object
	.size	.LCPI20_6, 4
.LCPI20_6:
	.long	71032
	.cc_bottom .LCPI20_6.data
	.cc_top .LCPI20_7.data,.LCPI20_7
	.align	4
	.type	.LCPI20_7,@object
	.size	.LCPI20_7, 4
.LCPI20_7:
	.long	71056
	.cc_bottom .LCPI20_7.data
	.text
	.globl	BeClear_SRTVBF_BapInitApp
	.align	4
	.type	BeClear_SRTVBF_BapInitApp,@function
	.cc_top BeClear_SRTVBF_BapInitApp.function,BeClear_SRTVBF_BapInitApp
BeClear_SRTVBF_BapInitApp:
.Lfunc_begin20:
	.loc	2 1320 0
	.cfi_startproc
	.issue_mode dual
	{
		nop
		dualentsp 6
	}
.Ltmp390:
	.cfi_def_cfa_offset 24
.Ltmp391:
	.cfi_offset 15, 0
	std r5, r4, sp[1]
.Ltmp392:
	.cfi_offset 4, -16
.Ltmp393:
	.cfi_offset 5, -12
	std r7, r6, sp[2]
.Ltmp394:
	.cfi_offset 6, -8
.Ltmp395:
	.cfi_offset 7, -4
.Ltmp396:
	ldaw r3, dp[x_q+16]
	.loc	2 1329 9 prologue_end
.Ltmp397:
	stw r3, dp[q_a]
	ldaw r3, dp[x_q+2096]
	.loc	2 1330 9
	stw r3, dp[q_a+8]
	ldaw r3, dp[x_q+4176]
	.loc	2 1331 9
	stw r3, dp[q_a+16]
	ldaw r3, dp[x_q+1056]
.Ltmp398:
	.loc	2 1329 9
	stw r3, dp[q_a+4]
	ldaw r3, dp[x_q+3136]
	.loc	2 1330 9
	stw r3, dp[q_a+12]
	ldaw r3, dp[x_q+5216]
	.loc	2 1331 9
	stw r3, dp[q_a+20]
	ldaw r3, dp[q_a+16]
.Ltmp399:
	.loc	2 1338 5
	stw r3, dp[q]
.Ltmp400:
	.loc	2 1345 9
	ldw r11, dp[bap_ap]
	ldw r3, cp[.LCPI20_0]
	.loc	2 1345 9
	{
		add r11, r11, r3
		nop
	}
	{
		nop
		stw r0, r11[0]
	}
	ldc r11, 1040
.Ltmp401:
	.loc	2 1345 9
	{
		add r4, r0, r11
		nop
	}
	.loc	2 1345 9
	ldw r5, dp[bap_ap]
	ldw r6, cp[.LCPI20_1]
	.loc	2 1345 9
	{
		add r5, r5, r6
		nop
	}
	{
		nop
		stw r4, r5[0]
	}
	ldc r4, 2080
	.loc	2 1345 9
	{
		add r4, r0, r4
		nop
	}
	.loc	2 1345 9
	ldw r5, dp[bap_ap]
	ldw r6, cp[.LCPI20_2]
	.loc	2 1345 9
	{
		add r5, r5, r6
		nop
	}
	{
		nop
		stw r4, r5[0]
	}
	ldc r4, 3120
	.loc	2 1345 9
	{
		add r0, r0, r4
		nop
	}
.Ltmp402:
	.loc	2 1345 9
	ldw r4, dp[bap_ap]
	ldw r5, cp[.LCPI20_3]
	.loc	2 1345 9
	{
		add r4, r4, r5
		nop
	}
	{
		nop
		stw r0, r4[0]
	}
.Ltmp403:
	.loc	2 1347 5
	ldw r0, dp[bap_ap]
	ldw r4, cp[.LCPI20_4]
	.loc	2 1347 5
	{
		add r5, r0, r4
		nop
	}
	{
		nop
		ldw r5, r5[0]
	}
	bf r5, .LBB20_3
.Ltmp404:
	{
		ldc r5, 0
		nop
	}
	ldw r6, cp[.LCPI20_5]
.Ltmp405:
.LBB20_2:
	ldaw r0, r0[r5]
	{
		add r0, r0, r6
		nop
	}
.Ltmp406:
	.loc	2 1349 9
	{
		add r5, r5, 1
		stw r1, r0[0]
	}
.Ltmp407:
	.loc	2 1347 5
	ldw r0, dp[bap_ap]
	.loc	2 1347 5
	{
		add r7, r0, r4
		nop
	}
	.loc	2 1347 5
	{
		add r1, r1, r11
		ldw r7, r7[0]
	}
	.loc	2 1347 5
	{
		lsu r7, r5, r7
		nop
	}
	bt r7, .LBB20_2
.Ltmp408:
.LBB20_3:
	ldw r11, cp[.LCPI20_6]
	.loc	2 1351 5
	{
		add r0, r0, r11
		nop
	}
	{
		nop
		stw r2, r0[0]
	}
	.loc	2 1356 5
	ldw r4, dp[bap_ap]
	.loc	2 1356 5
	{
		add r0, r4, r3
		nop
	}
	{
		nop
		ldw r0, r0[0]
	}
	ldw r1, cp[.LCPI20_5]
	.loc	2 1356 5
	{
		add r1, r4, r1
		nop
	}
	.loc	2 1356 5
	{
		add r2, r4, r11
		ldw r1, r1[0]
	}
.Ltmp409:
	{
		nop
		ldw r2, r2[0]
	}
	ldw r3, cp[.LCPI20_7]
	.loc	2 1356 5
	{
		add r3, r4, r3
		nop
	}
	{
		nop
		ldw r3, r3[0]
	}
	.loc	2 1356 5
	bl SRTVBF_BAP_InitApp
	.loc	2 1363 1
	ldd r7, r6, sp[2]
	ldd r5, r4, sp[1]
	{
		nop
		retsp 6
	}
	# RETURN_REG_HOLDER
.Ltmp410:
	.cc_bottom BeClear_SRTVBF_BapInitApp.function
	.set	BeClear_SRTVBF_BapInitApp.nstackwords,(SRTVBF_BAP_InitApp.nstackwords + 6)
	.globl	BeClear_SRTVBF_BapInitApp.nstackwords
	.set	BeClear_SRTVBF_BapInitApp.maxcores,SRTVBF_BAP_InitApp.maxcores $M 1
	.globl	BeClear_SRTVBF_BapInitApp.maxcores
	.set	BeClear_SRTVBF_BapInitApp.maxtimers,SRTVBF_BAP_InitApp.maxtimers $M 0
	.globl	BeClear_SRTVBF_BapInitApp.maxtimers
	.set	BeClear_SRTVBF_BapInitApp.maxchanends,SRTVBF_BAP_InitApp.maxchanends $M 0
	.globl	BeClear_SRTVBF_BapInitApp.maxchanends
.Ltmp411:
	.size	BeClear_SRTVBF_BapInitApp, .Ltmp411-BeClear_SRTVBF_BapInitApp
.Lfunc_end20:
	.cfi_endproc

	.globl	BeClear_SRTVBF_BapRunTimeControl
	.align	4
	.type	BeClear_SRTVBF_BapRunTimeControl,@function
	.cc_top BeClear_SRTVBF_BapRunTimeControl.function,BeClear_SRTVBF_BapRunTimeControl
BeClear_SRTVBF_BapRunTimeControl:
.Lfunc_begin21:
	.loc	2 1378 0
	.cfi_startproc
	.issue_mode dual
	{
		nop
		dualentsp 0
	}
	.loc	2 1384 5 prologue_end
.Ltmp412:
	ldw r0, dp[frameCnt]
.Ltmp413:
	.loc	2 1384 5
	{
		add r0, r0, 1
		nop
	}
	.loc	2 1384 5
	stw r0, dp[frameCnt]
	{
		nop
		retsp 0
	}
	.loc	2 1413 1
	# RETURN_REG_HOLDER
.Ltmp414:
	.cc_bottom BeClear_SRTVBF_BapRunTimeControl.function
	.set	BeClear_SRTVBF_BapRunTimeControl.nstackwords,0
	.globl	BeClear_SRTVBF_BapRunTimeControl.nstackwords
	.set	BeClear_SRTVBF_BapRunTimeControl.maxcores,1
	.globl	BeClear_SRTVBF_BapRunTimeControl.maxcores
	.set	BeClear_SRTVBF_BapRunTimeControl.maxtimers,0
	.globl	BeClear_SRTVBF_BapRunTimeControl.maxtimers
	.set	BeClear_SRTVBF_BapRunTimeControl.maxchanends,0
	.globl	BeClear_SRTVBF_BapRunTimeControl.maxchanends
.Ltmp415:
	.size	BeClear_SRTVBF_BapRunTimeControl, .Ltmp415-BeClear_SRTVBF_BapRunTimeControl
.Lfunc_end21:
	.cfi_endproc

	.section	.cp.rodata.cst4,"aMc",@progbits,4
	.cc_top .LCPI22_0.data,.LCPI22_0
	.align	4
	.type	.LCPI22_0,@object
	.size	.LCPI22_0, 4
.LCPI22_0:
	.long	2871134157
	.cc_bottom .LCPI22_0.data
	.cc_top .LCPI22_1.data,.LCPI22_1
	.align	4
	.type	.LCPI22_1,@object
	.size	.LCPI22_1, 4
.LCPI22_1:
	.long	4011418095
	.cc_bottom .LCPI22_1.data
	.cc_top .LCPI22_2.data,.LCPI22_2
	.align	4
	.type	.LCPI22_2,@object
	.size	.LCPI22_2, 4
.LCPI22_2:
	.long	4262003164
	.cc_bottom .LCPI22_2.data
	.cc_top .LCPI22_3.data,.LCPI22_3
	.align	4
	.type	.LCPI22_3,@object
	.size	.LCPI22_3, 4
.LCPI22_3:
	.long	2871007147
	.cc_bottom .LCPI22_3.data
	.cc_top .LCPI22_4.data,.LCPI22_4
	.align	4
	.type	.LCPI22_4,@object
	.size	.LCPI22_4, 4
.LCPI22_4:
	.long	70992
	.cc_bottom .LCPI22_4.data
	.text
	.globl	BeClear_SRTVBF_BapMemoryUsage
	.align	4
	.type	BeClear_SRTVBF_BapMemoryUsage,@function
	.cc_top BeClear_SRTVBF_BapMemoryUsage.function,BeClear_SRTVBF_BapMemoryUsage
BeClear_SRTVBF_BapMemoryUsage:
.Lfunc_begin22:
	.loc	2 1429 0
	.cfi_startproc
	.issue_mode dual
	{
		nop
		dualentsp 8
	}
.Ltmp416:
	.cfi_def_cfa_offset 32
.Ltmp417:
	.cfi_offset 15, 0
	std r5, r4, sp[1]
.Ltmp418:
	.cfi_offset 4, -24
.Ltmp419:
	.cfi_offset 5, -20
	std r7, r6, sp[2]
.Ltmp420:
	.cfi_offset 6, -16
.Ltmp421:
	.cfi_offset 7, -12
	{
		nop
		stw r8, sp[6]
	}
.Ltmp422:
	.cfi_offset 8, -8
.Ltmp423:
	.loc	2 1437 5 prologue_end
	ldw r0, dp[bap_ap]
.Ltmp424:
	ldc r1, 58240
.Ltmp425:
	{
		add r0, r0, r1
		nop
	}
	ldc r5, 7281
	ldw r1, cp[.LCPI22_0]
	ldw r2, cp[.LCPI22_1]
	{
		ldc r4, 0
		nop
	}
.LBB22_1:
.Ltmp426:
	.loc	2 2610 14
	ldd r11, r3, r0[0]
	.loc	2 2610 14
	xor r11, r11, r1
	xor r3, r3, r2
	{
		or r3, r3, r11
		nop
	}
.Ltmp427:
	bt r3, .LBB22_4
.Ltmp428:
	.loc	2 2608 61
	{
		sub r5, r5, 1
		sub r0, r0, 8
	}
.Ltmp429:
	bt r5, .LBB22_1
.Ltmp430:
	.loc	2 1437 5
	{
		mov r5, r4
		nop
	}
.Ltmp431:
.LBB22_4:
	.loc	2 2615 5
	ldaw r11, cp[.L.str12]
.Ltmp432:
	{
		mov r0, r11
		nop
	}
.Ltmp433:
	bl printstr
.Ltmp434:
	.loc	2 2616 5
	ldaw r11, cp[.L.str16]
	{
		mov r0, r11
		nop
	}
	bl printstr
	.loc	2 2617 5
	{
		shl r0, r5, 3
		nop
	}
	.loc	2 2617 5
	bl printint
	.loc	2 2618 5
	ldaw r11, cp[.L.str17]
	{
		mov r0, r11
		nop
	}
	bl printstr
.Ltmp435:
	.loc	2 1439 5
	ldw r0, dp[bap_ap]
	ldc r1, 64784
	{
		add r0, r0, r1
		nop
	}
	ldc r6, 818
.Ltmp436:
	ldw r7, cp[.LCPI22_2]
	ldw r8, cp[.LCPI22_3]
.LBB22_5:
.Ltmp437:
	.loc	2 2610 14
	ldd r2, r1, r0[0]
.Ltmp438:
	.loc	2 2610 14
	xor r2, r2, r7
	xor r1, r1, r8
	{
		or r1, r1, r2
		nop
	}
.Ltmp439:
	bt r1, .LBB22_8
.Ltmp440:
	.loc	2 2608 61
	{
		sub r6, r6, 1
		sub r0, r0, 8
	}
.Ltmp441:
	bt r6, .LBB22_5
.Ltmp442:
	.loc	2 1439 5
	{
		mov r6, r4
		nop
	}
.Ltmp443:
.LBB22_8:
	.loc	2 2615 5
	ldaw r11, cp[.L.str13]
.Ltmp444:
	{
		mov r0, r11
		nop
	}
.Ltmp445:
	bl printstr
.Ltmp446:
	.loc	2 2616 5
	ldaw r11, cp[.L.str16]
	{
		mov r5, r11
		nop
	}
	{
		mov r0, r5
		nop
	}
	bl printstr
	.loc	2 2617 5
	{
		shl r0, r6, 3
		nop
	}
	.loc	2 2617 5
	bl printint
	.loc	2 2618 5
	ldaw r11, cp[.L.str17]
	{
		mov r6, r11
		nop
	}
	{
		mov r0, r6
		nop
	}
	bl printstr
.Ltmp447:
	.loc	2 2615 5
	ldaw r11, cp[.L.str14]
.Ltmp448:
	{
		mov r0, r11
		nop
	}
	bl printstr
.Ltmp449:
	.loc	2 2616 5
	{
		mov r0, r5
		nop
	}
	bl printstr
	.loc	2 2617 5
	{
		mov r0, r4
		nop
	}
	bl printint
	.loc	2 2618 5
	{
		mov r0, r6
		nop
	}
	bl printstr
.Ltmp450:
	.loc	2 1446 5
	ldw r0, dp[bap_ap]
	ldw r1, cp[.LCPI22_4]
	{
		add r0, r0, r1
		nop
	}
	ldc r5, 776
.Ltmp451:
.LBB22_9:
	.loc	2 2610 14
	ldd r2, r1, r0[0]
.Ltmp452:
	.loc	2 2610 14
	xor r2, r2, r7
	xor r1, r1, r8
	{
		or r1, r1, r2
		nop
	}
.Ltmp453:
	bt r1, .LBB22_12
.Ltmp454:
	.loc	2 2608 61
	{
		sub r5, r5, 1
		sub r0, r0, 8
	}
.Ltmp455:
	bt r5, .LBB22_9
.Ltmp456:
	.loc	2 1446 5
	{
		mov r5, r4
		nop
	}
.Ltmp457:
.LBB22_12:
	.loc	2 2615 5
	ldaw r11, cp[.L.str15]
.Ltmp458:
	{
		mov r0, r11
		nop
	}
.Ltmp459:
	bl printstr
.Ltmp460:
	.loc	2 2616 5
	ldaw r11, cp[.L.str16]
	{
		mov r0, r11
		nop
	}
	bl printstr
	.loc	2 2617 5
	{
		shl r0, r5, 3
		nop
	}
	.loc	2 2617 5
	bl printint
	.loc	2 2618 5
	ldaw r11, cp[.L.str17]
	{
		mov r0, r11
		nop
	}
	bl printstr
	{
		nop
		ldw r8, sp[6]
	}
.Ltmp461:
	.loc	2 1457 1
	ldd r7, r6, sp[2]
	ldd r5, r4, sp[1]
	{
		nop
		retsp 8
	}
	# RETURN_REG_HOLDER
.Ltmp462:
	.cc_bottom BeClear_SRTVBF_BapMemoryUsage.function
	.set	BeClear_SRTVBF_BapMemoryUsage.nstackwords,((printint.nstackwords $M printstr.nstackwords) + 8)
	.globl	BeClear_SRTVBF_BapMemoryUsage.nstackwords
	.set	BeClear_SRTVBF_BapMemoryUsage.maxcores,printint.maxcores $M printstr.maxcores $M 1
	.globl	BeClear_SRTVBF_BapMemoryUsage.maxcores
	.set	BeClear_SRTVBF_BapMemoryUsage.maxtimers,printint.maxtimers $M printstr.maxtimers $M 0
	.globl	BeClear_SRTVBF_BapMemoryUsage.maxtimers
	.set	BeClear_SRTVBF_BapMemoryUsage.maxchanends,printint.maxchanends $M printstr.maxchanends $M 0
	.globl	BeClear_SRTVBF_BapMemoryUsage.maxchanends
.Ltmp463:
	.size	BeClear_SRTVBF_BapMemoryUsage, .Ltmp463-BeClear_SRTVBF_BapMemoryUsage
.Lfunc_end22:
	.cfi_endproc

	.section	.cp.rodata.cst4,"aMc",@progbits,4
	.cc_top .LCPI23_0.data,.LCPI23_0
	.align	4
	.type	.LCPI23_0,@object
	.size	.LCPI23_0, 4
.LCPI23_0:
	.long	71056
	.cc_bottom .LCPI23_0.data
	.text
	.globl	BeClear_SRTVBF_FsbFilterPrim
	.align	4
	.type	BeClear_SRTVBF_FsbFilterPrim,@function
	.cc_top BeClear_SRTVBF_FsbFilterPrim.function,BeClear_SRTVBF_FsbFilterPrim
BeClear_SRTVBF_FsbFilterPrim:
.Lfunc_begin23:
	.loc	2 1472 0
	.cfi_startproc
	.issue_mode dual
	{
		nop
		dualentsp 2
	}
.Ltmp464:
	.cfi_def_cfa_offset 8
.Ltmp465:
	.cfi_offset 15, 0
	.loc	2 1473 5 prologue_end
.Ltmp466:
	ldw r1, dp[bap_ap]
	ldw r2, cp[.LCPI23_0]
	.loc	2 1473 5
	{
		add r1, r1, r2
		nop
	}
	{
		nop
		ldw r1, r1[0]
	}
	.loc	2 1473 5
	bl SRTVBF_FsbFilterPrim
.Ltmp467:
	{
		nop
		retsp 2
	}
	.loc	2 1474 1
	# RETURN_REG_HOLDER
.Ltmp468:
	.cc_bottom BeClear_SRTVBF_FsbFilterPrim.function
	.set	BeClear_SRTVBF_FsbFilterPrim.nstackwords,(SRTVBF_FsbFilterPrim.nstackwords + 2)
	.globl	BeClear_SRTVBF_FsbFilterPrim.nstackwords
	.set	BeClear_SRTVBF_FsbFilterPrim.maxcores,SRTVBF_FsbFilterPrim.maxcores $M 1
	.globl	BeClear_SRTVBF_FsbFilterPrim.maxcores
	.set	BeClear_SRTVBF_FsbFilterPrim.maxtimers,SRTVBF_FsbFilterPrim.maxtimers $M 0
	.globl	BeClear_SRTVBF_FsbFilterPrim.maxtimers
	.set	BeClear_SRTVBF_FsbFilterPrim.maxchanends,SRTVBF_FsbFilterPrim.maxchanends $M 0
	.globl	BeClear_SRTVBF_FsbFilterPrim.maxchanends
.Ltmp469:
	.size	BeClear_SRTVBF_FsbFilterPrim, .Ltmp469-BeClear_SRTVBF_FsbFilterPrim
.Lfunc_end23:
	.cfi_endproc

	.section	.cp.rodata.cst4,"aMc",@progbits,4
	.cc_top .LCPI24_0.data,.LCPI24_0
	.align	4
	.type	.LCPI24_0,@object
	.size	.LCPI24_0, 4
.LCPI24_0:
	.long	71056
	.cc_bottom .LCPI24_0.data
	.text
	.globl	BeClear_SRTVBF_FsbFilterFar
	.align	4
	.type	BeClear_SRTVBF_FsbFilterFar,@function
	.cc_top BeClear_SRTVBF_FsbFilterFar.function,BeClear_SRTVBF_FsbFilterFar
BeClear_SRTVBF_FsbFilterFar:
.Lfunc_begin24:
	.loc	2 1489 0
	.cfi_startproc
	.issue_mode dual
	{
		nop
		dualentsp 2
	}
.Ltmp470:
	.cfi_def_cfa_offset 8
.Ltmp471:
	.cfi_offset 15, 0
	.loc	2 1490 5 prologue_end
.Ltmp472:
	ldw r1, dp[bap_ap]
	ldw r2, cp[.LCPI24_0]
	.loc	2 1490 5
	{
		add r1, r1, r2
		nop
	}
	{
		nop
		ldw r1, r1[0]
	}
	.loc	2 1490 5
	bl SRTVBF_FsbFilterFar
.Ltmp473:
	{
		nop
		retsp 2
	}
	.loc	2 1491 1
	# RETURN_REG_HOLDER
.Ltmp474:
	.cc_bottom BeClear_SRTVBF_FsbFilterFar.function
	.set	BeClear_SRTVBF_FsbFilterFar.nstackwords,(SRTVBF_FsbFilterFar.nstackwords + 2)
	.globl	BeClear_SRTVBF_FsbFilterFar.nstackwords
	.set	BeClear_SRTVBF_FsbFilterFar.maxcores,SRTVBF_FsbFilterFar.maxcores $M 1
	.globl	BeClear_SRTVBF_FsbFilterFar.maxcores
	.set	BeClear_SRTVBF_FsbFilterFar.maxtimers,SRTVBF_FsbFilterFar.maxtimers $M 0
	.globl	BeClear_SRTVBF_FsbFilterFar.maxtimers
	.set	BeClear_SRTVBF_FsbFilterFar.maxchanends,SRTVBF_FsbFilterFar.maxchanends $M 0
	.globl	BeClear_SRTVBF_FsbFilterFar.maxchanends
.Ltmp475:
	.size	BeClear_SRTVBF_FsbFilterFar, .Ltmp475-BeClear_SRTVBF_FsbFilterFar
.Lfunc_end24:
	.cfi_endproc

	.section	.cp.rodata.cst4,"aMc",@progbits,4
	.cc_top .LCPI25_0.data,.LCPI25_0
	.align	4
	.type	.LCPI25_0,@object
	.size	.LCPI25_0, 4
.LCPI25_0:
	.long	71056
	.cc_bottom .LCPI25_0.data
	.text
	.globl	BeClear_SRTVBF_FsbFilterRefMic
	.align	4
	.type	BeClear_SRTVBF_FsbFilterRefMic,@function
	.cc_top BeClear_SRTVBF_FsbFilterRefMic.function,BeClear_SRTVBF_FsbFilterRefMic
BeClear_SRTVBF_FsbFilterRefMic:
.Lfunc_begin25:
	.loc	2 1507 0
	.cfi_startproc
	.issue_mode dual
	{
		nop
		dualentsp 2
	}
.Ltmp476:
	.cfi_def_cfa_offset 8
.Ltmp477:
	.cfi_offset 15, 0
	.loc	2 1508 5 prologue_end
.Ltmp478:
	ldw r2, dp[bap_ap]
	ldw r3, cp[.LCPI25_0]
	.loc	2 1508 5
	{
		add r2, r2, r3
		nop
	}
	{
		nop
		ldw r2, r2[0]
	}
	.loc	2 1508 5
	bl SRTVBF_FsbFilterRefMic
.Ltmp479:
	{
		nop
		retsp 2
	}
	.loc	2 1509 1
	# RETURN_REG_HOLDER
.Ltmp480:
	.cc_bottom BeClear_SRTVBF_FsbFilterRefMic.function
	.set	BeClear_SRTVBF_FsbFilterRefMic.nstackwords,(SRTVBF_FsbFilterRefMic.nstackwords + 2)
	.globl	BeClear_SRTVBF_FsbFilterRefMic.nstackwords
	.set	BeClear_SRTVBF_FsbFilterRefMic.maxcores,SRTVBF_FsbFilterRefMic.maxcores $M 1
	.globl	BeClear_SRTVBF_FsbFilterRefMic.maxcores
	.set	BeClear_SRTVBF_FsbFilterRefMic.maxtimers,SRTVBF_FsbFilterRefMic.maxtimers $M 0
	.globl	BeClear_SRTVBF_FsbFilterRefMic.maxtimers
	.set	BeClear_SRTVBF_FsbFilterRefMic.maxchanends,SRTVBF_FsbFilterRefMic.maxchanends $M 0
	.globl	BeClear_SRTVBF_FsbFilterRefMic.maxchanends
.Ltmp481:
	.size	BeClear_SRTVBF_FsbFilterRefMic, .Ltmp481-BeClear_SRTVBF_FsbFilterRefMic
.Lfunc_end25:
	.cfi_endproc

	.section	.cp.rodata.cst4,"aMc",@progbits,4
	.cc_top .LCPI26_0.data,.LCPI26_0
	.align	4
	.type	.LCPI26_0,@object
	.size	.LCPI26_0, 4
.LCPI26_0:
	.long	71056
	.cc_bottom .LCPI26_0.data
	.text
	.globl	BeClear_SRTVBF_FsbUpdateDelaylineMic
	.align	4
	.type	BeClear_SRTVBF_FsbUpdateDelaylineMic,@function
	.cc_top BeClear_SRTVBF_FsbUpdateDelaylineMic.function,BeClear_SRTVBF_FsbUpdateDelaylineMic
BeClear_SRTVBF_FsbUpdateDelaylineMic:
.Lfunc_begin26:
	.loc	2 1525 0
	.cfi_startproc
	.issue_mode dual
	{
		nop
		dualentsp 2
	}
.Ltmp482:
	.cfi_def_cfa_offset 8
.Ltmp483:
	.cfi_offset 15, 0
	.loc	2 1526 5 prologue_end
.Ltmp484:
	ldw r2, dp[bap_ap]
	ldw r3, cp[.LCPI26_0]
	.loc	2 1526 5
	{
		add r2, r2, r3
		nop
	}
	{
		nop
		ldw r2, r2[0]
	}
	.loc	2 1526 5
	bl SRTVBF_FsbUpdateDelaylineMic
.Ltmp485:
	{
		nop
		retsp 2
	}
	.loc	2 1527 1
	# RETURN_REG_HOLDER
.Ltmp486:
	.cc_bottom BeClear_SRTVBF_FsbUpdateDelaylineMic.function
	.set	BeClear_SRTVBF_FsbUpdateDelaylineMic.nstackwords,(SRTVBF_FsbUpdateDelaylineMic.nstackwords + 2)
	.globl	BeClear_SRTVBF_FsbUpdateDelaylineMic.nstackwords
	.set	BeClear_SRTVBF_FsbUpdateDelaylineMic.maxcores,SRTVBF_FsbUpdateDelaylineMic.maxcores $M 1
	.globl	BeClear_SRTVBF_FsbUpdateDelaylineMic.maxcores
	.set	BeClear_SRTVBF_FsbUpdateDelaylineMic.maxtimers,SRTVBF_FsbUpdateDelaylineMic.maxtimers $M 0
	.globl	BeClear_SRTVBF_FsbUpdateDelaylineMic.maxtimers
	.set	BeClear_SRTVBF_FsbUpdateDelaylineMic.maxchanends,SRTVBF_FsbUpdateDelaylineMic.maxchanends $M 0
	.globl	BeClear_SRTVBF_FsbUpdateDelaylineMic.maxchanends
.Ltmp487:
	.size	BeClear_SRTVBF_FsbUpdateDelaylineMic, .Ltmp487-BeClear_SRTVBF_FsbUpdateDelaylineMic
.Lfunc_end26:
	.cfi_endproc

	.section	.cp.rodata.cst4,"aMc",@progbits,4
	.cc_top .LCPI27_0.data,.LCPI27_0
	.align	4
	.type	.LCPI27_0,@object
	.size	.LCPI27_0, 4
.LCPI27_0:
	.long	71032
	.cc_bottom .LCPI27_0.data
	.cc_top .LCPI27_1.data,.LCPI27_1
	.align	4
	.type	.LCPI27_1,@object
	.size	.LCPI27_1, 4
.LCPI27_1:
	.long	71056
	.cc_bottom .LCPI27_1.data
	.text
	.globl	BeClear_SRTVBF_PostProcUpdate
	.align	4
	.type	BeClear_SRTVBF_PostProcUpdate,@function
	.cc_top BeClear_SRTVBF_PostProcUpdate.function,BeClear_SRTVBF_PostProcUpdate
BeClear_SRTVBF_PostProcUpdate:
.Lfunc_begin27:
	.loc	2 1543 0
	.cfi_startproc
	.issue_mode dual
	{
		nop
		dualentsp 2
	}
.Ltmp488:
	.cfi_def_cfa_offset 8
.Ltmp489:
	.cfi_offset 15, 0
	.loc	2 1544 5 prologue_end
.Ltmp490:
	ldw r3, dp[bap_ap]
	ldw r1, cp[.LCPI27_0]
	.loc	2 1544 5
	{
		add r1, r3, r1
		nop
	}
	{
		nop
		ldw r1, r1[0]
	}
	.loc	2 1544 5
	ldw r2, dp[q]
	ldw r11, cp[.LCPI27_1]
	.loc	2 1544 5
	{
		add r3, r3, r11
		nop
	}
	{
		nop
		ldw r3, r3[0]
	}
	.loc	2 1544 5
	bl SRTVBF_PostProcUpdate
.Ltmp491:
	{
		nop
		retsp 2
	}
	.loc	2 1545 1
	# RETURN_REG_HOLDER
.Ltmp492:
	.cc_bottom BeClear_SRTVBF_PostProcUpdate.function
	.set	BeClear_SRTVBF_PostProcUpdate.nstackwords,(SRTVBF_PostProcUpdate.nstackwords + 2)
	.globl	BeClear_SRTVBF_PostProcUpdate.nstackwords
	.set	BeClear_SRTVBF_PostProcUpdate.maxcores,SRTVBF_PostProcUpdate.maxcores $M 1
	.globl	BeClear_SRTVBF_PostProcUpdate.maxcores
	.set	BeClear_SRTVBF_PostProcUpdate.maxtimers,SRTVBF_PostProcUpdate.maxtimers $M 0
	.globl	BeClear_SRTVBF_PostProcUpdate.maxtimers
	.set	BeClear_SRTVBF_PostProcUpdate.maxchanends,SRTVBF_PostProcUpdate.maxchanends $M 0
	.globl	BeClear_SRTVBF_PostProcUpdate.maxchanends
.Ltmp493:
	.size	BeClear_SRTVBF_PostProcUpdate, .Ltmp493-BeClear_SRTVBF_PostProcUpdate
.Lfunc_end27:
	.cfi_endproc

	.section	.cp.rodata.cst4,"aMc",@progbits,4
	.cc_top .LCPI28_0.data,.LCPI28_0
	.align	4
	.type	.LCPI28_0,@object
	.size	.LCPI28_0, 4
.LCPI28_0:
	.long	71056
	.cc_bottom .LCPI28_0.data
	.text
	.globl	BeClear_SRTVBF_PostProcApply
	.align	4
	.type	BeClear_SRTVBF_PostProcApply,@function
	.cc_top BeClear_SRTVBF_PostProcApply.function,BeClear_SRTVBF_PostProcApply
BeClear_SRTVBF_PostProcApply:
.Lfunc_begin28:
	.loc	2 1560 0
	.cfi_startproc
	.issue_mode dual
	{
		nop
		dualentsp 2
	}
.Ltmp494:
	.cfi_def_cfa_offset 8
.Ltmp495:
	.cfi_offset 15, 0
	.loc	2 1561 5 prologue_end
.Ltmp496:
	ldw r1, dp[q]
	.loc	2 1561 5
	ldw r2, dp[bap_ap]
	ldw r3, cp[.LCPI28_0]
	.loc	2 1561 5
	{
		add r2, r2, r3
		nop
	}
	{
		nop
		ldw r2, r2[0]
	}
	.loc	2 1561 5
	bl SRTVBF_PostProcApply
.Ltmp497:
	{
		nop
		retsp 2
	}
	.loc	2 1562 1
	# RETURN_REG_HOLDER
.Ltmp498:
	.cc_bottom BeClear_SRTVBF_PostProcApply.function
	.set	BeClear_SRTVBF_PostProcApply.nstackwords,(SRTVBF_PostProcApply.nstackwords + 2)
	.globl	BeClear_SRTVBF_PostProcApply.nstackwords
	.set	BeClear_SRTVBF_PostProcApply.maxcores,SRTVBF_PostProcApply.maxcores $M 1
	.globl	BeClear_SRTVBF_PostProcApply.maxcores
	.set	BeClear_SRTVBF_PostProcApply.maxtimers,SRTVBF_PostProcApply.maxtimers $M 0
	.globl	BeClear_SRTVBF_PostProcApply.maxtimers
	.set	BeClear_SRTVBF_PostProcApply.maxchanends,SRTVBF_PostProcApply.maxchanends $M 0
	.globl	BeClear_SRTVBF_PostProcApply.maxchanends
.Ltmp499:
	.size	BeClear_SRTVBF_PostProcApply, .Ltmp499-BeClear_SRTVBF_PostProcApply
.Lfunc_end28:
	.cfi_endproc

	.section	.cp.rodata.cst4,"aMc",@progbits,4
	.cc_top .LCPI29_0.data,.LCPI29_0
	.align	4
	.type	.LCPI29_0,@object
	.size	.LCPI29_0, 4
.LCPI29_0:
	.long	71056
	.cc_bottom .LCPI29_0.data
	.text
	.globl	BeClear_SRTVBF_Asl
	.align	4
	.type	BeClear_SRTVBF_Asl,@function
	.cc_top BeClear_SRTVBF_Asl.function,BeClear_SRTVBF_Asl
BeClear_SRTVBF_Asl:
.Lfunc_begin29:
	.loc	2 1577 0
	.cfi_startproc
	.issue_mode dual
	{
		nop
		dualentsp 2
	}
.Ltmp500:
	.cfi_def_cfa_offset 8
.Ltmp501:
	.cfi_offset 15, 0
	.loc	2 1578 5 prologue_end
.Ltmp502:
	ldw r1, dp[bap_ap]
	ldw r2, cp[.LCPI29_0]
	.loc	2 1578 5
	{
		add r1, r1, r2
		nop
	}
	{
		nop
		ldw r1, r1[0]
	}
	.loc	2 1578 5
	bl SRTVBF_Asl
.Ltmp503:
	{
		nop
		retsp 2
	}
	.loc	2 1579 1
	# RETURN_REG_HOLDER
.Ltmp504:
	.cc_bottom BeClear_SRTVBF_Asl.function
	.set	BeClear_SRTVBF_Asl.nstackwords,(SRTVBF_Asl.nstackwords + 2)
	.globl	BeClear_SRTVBF_Asl.nstackwords
	.set	BeClear_SRTVBF_Asl.maxcores,SRTVBF_Asl.maxcores $M 1
	.globl	BeClear_SRTVBF_Asl.maxcores
	.set	BeClear_SRTVBF_Asl.maxtimers,SRTVBF_Asl.maxtimers $M 0
	.globl	BeClear_SRTVBF_Asl.maxtimers
	.set	BeClear_SRTVBF_Asl.maxchanends,SRTVBF_Asl.maxchanends $M 0
	.globl	BeClear_SRTVBF_Asl.maxchanends
.Ltmp505:
	.size	BeClear_SRTVBF_Asl, .Ltmp505-BeClear_SRTVBF_Asl
.Lfunc_end29:
	.cfi_endproc

	.section	.cp.rodata.cst4,"aMc",@progbits,4
	.cc_top .LCPI30_0.data,.LCPI30_0
	.align	4
	.type	.LCPI30_0,@object
	.size	.LCPI30_0, 4
.LCPI30_0:
	.long	71056
	.cc_bottom .LCPI30_0.data
	.text
	.globl	BeClear_SRTVBF_FsbPcd
	.align	4
	.type	BeClear_SRTVBF_FsbPcd,@function
	.cc_top BeClear_SRTVBF_FsbPcd.function,BeClear_SRTVBF_FsbPcd
BeClear_SRTVBF_FsbPcd:
.Lfunc_begin30:
	.loc	2 1594 0
	.cfi_startproc
	.issue_mode dual
	{
		nop
		dualentsp 2
	}
.Ltmp506:
	.cfi_def_cfa_offset 8
.Ltmp507:
	.cfi_offset 15, 0
	.loc	2 1595 5 prologue_end
.Ltmp508:
	ldw r1, dp[bap_ap]
	ldw r2, cp[.LCPI30_0]
	.loc	2 1595 5
	{
		add r1, r1, r2
		nop
	}
	{
		nop
		ldw r1, r1[0]
	}
	.loc	2 1595 5
	bl SRTVBF_FsbPcd
.Ltmp509:
	{
		nop
		retsp 2
	}
	.loc	2 1596 1
	# RETURN_REG_HOLDER
.Ltmp510:
	.cc_bottom BeClear_SRTVBF_FsbPcd.function
	.set	BeClear_SRTVBF_FsbPcd.nstackwords,(SRTVBF_FsbPcd.nstackwords + 2)
	.globl	BeClear_SRTVBF_FsbPcd.nstackwords
	.set	BeClear_SRTVBF_FsbPcd.maxcores,SRTVBF_FsbPcd.maxcores $M 1
	.globl	BeClear_SRTVBF_FsbPcd.maxcores
	.set	BeClear_SRTVBF_FsbPcd.maxtimers,SRTVBF_FsbPcd.maxtimers $M 0
	.globl	BeClear_SRTVBF_FsbPcd.maxtimers
	.set	BeClear_SRTVBF_FsbPcd.maxchanends,SRTVBF_FsbPcd.maxchanends $M 0
	.globl	BeClear_SRTVBF_FsbPcd.maxchanends
.Ltmp511:
	.size	BeClear_SRTVBF_FsbPcd, .Ltmp511-BeClear_SRTVBF_FsbPcd
.Lfunc_end30:
	.cfi_endproc

	.section	.cp.rodata.cst4,"aMc",@progbits,4
	.cc_top .LCPI31_0.data,.LCPI31_0
	.align	4
	.type	.LCPI31_0,@object
	.size	.LCPI31_0, 4
.LCPI31_0:
	.long	71056
	.cc_bottom .LCPI31_0.data
	.text
	.globl	BeClear_SRTVBF_FsbUpdateGainFunction
	.align	4
	.type	BeClear_SRTVBF_FsbUpdateGainFunction,@function
	.cc_top BeClear_SRTVBF_FsbUpdateGainFunction.function,BeClear_SRTVBF_FsbUpdateGainFunction
BeClear_SRTVBF_FsbUpdateGainFunction:
.Lfunc_begin31:
	.loc	2 1611 0
	.cfi_startproc
	.issue_mode dual
	{
		nop
		dualentsp 2
	}
.Ltmp512:
	.cfi_def_cfa_offset 8
.Ltmp513:
	.cfi_offset 15, 0
	.loc	2 1612 5 prologue_end
.Ltmp514:
	ldw r1, dp[bap_ap]
	ldw r2, cp[.LCPI31_0]
	.loc	2 1612 5
	{
		add r1, r1, r2
		nop
	}
	{
		nop
		ldw r1, r1[0]
	}
	.loc	2 1612 5
	bl SRTVBF_FsbUpdateGainFunction
.Ltmp515:
	{
		nop
		retsp 2
	}
	.loc	2 1613 1
	# RETURN_REG_HOLDER
.Ltmp516:
	.cc_bottom BeClear_SRTVBF_FsbUpdateGainFunction.function
	.set	BeClear_SRTVBF_FsbUpdateGainFunction.nstackwords,(SRTVBF_FsbUpdateGainFunction.nstackwords + 2)
	.globl	BeClear_SRTVBF_FsbUpdateGainFunction.nstackwords
	.set	BeClear_SRTVBF_FsbUpdateGainFunction.maxcores,SRTVBF_FsbUpdateGainFunction.maxcores $M 1
	.globl	BeClear_SRTVBF_FsbUpdateGainFunction.maxcores
	.set	BeClear_SRTVBF_FsbUpdateGainFunction.maxtimers,SRTVBF_FsbUpdateGainFunction.maxtimers $M 0
	.globl	BeClear_SRTVBF_FsbUpdateGainFunction.maxtimers
	.set	BeClear_SRTVBF_FsbUpdateGainFunction.maxchanends,SRTVBF_FsbUpdateGainFunction.maxchanends $M 0
	.globl	BeClear_SRTVBF_FsbUpdateGainFunction.maxchanends
.Ltmp517:
	.size	BeClear_SRTVBF_FsbUpdateGainFunction, .Ltmp517-BeClear_SRTVBF_FsbUpdateGainFunction
.Lfunc_end31:
	.cfi_endproc

	.section	.cp.rodata.cst4,"aMc",@progbits,4
	.cc_top .LCPI32_0.data,.LCPI32_0
	.align	4
	.type	.LCPI32_0,@object
	.size	.LCPI32_0, 4
.LCPI32_0:
	.long	71056
	.cc_bottom .LCPI32_0.data
	.text
	.globl	BeClear_SRTVBF_FsbUpdatePre
	.align	4
	.type	BeClear_SRTVBF_FsbUpdatePre,@function
	.cc_top BeClear_SRTVBF_FsbUpdatePre.function,BeClear_SRTVBF_FsbUpdatePre
BeClear_SRTVBF_FsbUpdatePre:
.Lfunc_begin32:
	.loc	2 1629 0
	.cfi_startproc
	.issue_mode dual
	{
		nop
		dualentsp 2
	}
.Ltmp518:
	.cfi_def_cfa_offset 8
.Ltmp519:
	.cfi_offset 15, 0
	.loc	2 1630 5 prologue_end
.Ltmp520:
	ldw r1, dp[bap_ap]
	ldw r2, cp[.LCPI32_0]
	.loc	2 1630 5
	{
		add r1, r1, r2
		nop
	}
	{
		nop
		ldw r1, r1[0]
	}
	.loc	2 1630 5
	bl SRTVBF_FsbUpdatePre
.Ltmp521:
	{
		nop
		retsp 2
	}
	.loc	2 1631 1
	# RETURN_REG_HOLDER
.Ltmp522:
	.cc_bottom BeClear_SRTVBF_FsbUpdatePre.function
	.set	BeClear_SRTVBF_FsbUpdatePre.nstackwords,(SRTVBF_FsbUpdatePre.nstackwords + 2)
	.globl	BeClear_SRTVBF_FsbUpdatePre.nstackwords
	.set	BeClear_SRTVBF_FsbUpdatePre.maxcores,SRTVBF_FsbUpdatePre.maxcores $M 1
	.globl	BeClear_SRTVBF_FsbUpdatePre.maxcores
	.set	BeClear_SRTVBF_FsbUpdatePre.maxtimers,SRTVBF_FsbUpdatePre.maxtimers $M 0
	.globl	BeClear_SRTVBF_FsbUpdatePre.maxtimers
	.set	BeClear_SRTVBF_FsbUpdatePre.maxchanends,SRTVBF_FsbUpdatePre.maxchanends $M 0
	.globl	BeClear_SRTVBF_FsbUpdatePre.maxchanends
.Ltmp523:
	.size	BeClear_SRTVBF_FsbUpdatePre, .Ltmp523-BeClear_SRTVBF_FsbUpdatePre
.Lfunc_end32:
	.cfi_endproc

	.section	.cp.rodata.cst4,"aMc",@progbits,4
	.cc_top .LCPI33_0.data,.LCPI33_0
	.align	4
	.type	.LCPI33_0,@object
	.size	.LCPI33_0, 4
.LCPI33_0:
	.long	71056
	.cc_bottom .LCPI33_0.data
	.text
	.globl	BeClear_SRTVBF_FsbUpdate
	.align	4
	.type	BeClear_SRTVBF_FsbUpdate,@function
	.cc_top BeClear_SRTVBF_FsbUpdate.function,BeClear_SRTVBF_FsbUpdate
BeClear_SRTVBF_FsbUpdate:
.Lfunc_begin33:
	.loc	2 1647 0
	.cfi_startproc
	.issue_mode dual
	{
		nop
		dualentsp 2
	}
.Ltmp524:
	.cfi_def_cfa_offset 8
.Ltmp525:
	.cfi_offset 15, 0
	.loc	2 1648 5 prologue_end
.Ltmp526:
	ldw r2, dp[bap_ap]
	ldw r3, cp[.LCPI33_0]
	.loc	2 1648 5
	{
		add r2, r2, r3
		nop
	}
	{
		nop
		ldw r2, r2[0]
	}
	.loc	2 1648 5
	bl SRTVBF_FsbUpdate
.Ltmp527:
	{
		nop
		retsp 2
	}
	.loc	2 1649 1
	# RETURN_REG_HOLDER
.Ltmp528:
	.cc_bottom BeClear_SRTVBF_FsbUpdate.function
	.set	BeClear_SRTVBF_FsbUpdate.nstackwords,(SRTVBF_FsbUpdate.nstackwords + 2)
	.globl	BeClear_SRTVBF_FsbUpdate.nstackwords
	.set	BeClear_SRTVBF_FsbUpdate.maxcores,SRTVBF_FsbUpdate.maxcores $M 1
	.globl	BeClear_SRTVBF_FsbUpdate.maxcores
	.set	BeClear_SRTVBF_FsbUpdate.maxtimers,SRTVBF_FsbUpdate.maxtimers $M 0
	.globl	BeClear_SRTVBF_FsbUpdate.maxtimers
	.set	BeClear_SRTVBF_FsbUpdate.maxchanends,SRTVBF_FsbUpdate.maxchanends $M 0
	.globl	BeClear_SRTVBF_FsbUpdate.maxchanends
.Ltmp529:
	.size	BeClear_SRTVBF_FsbUpdate, .Ltmp529-BeClear_SRTVBF_FsbUpdate
.Lfunc_end33:
	.cfi_endproc

	.section	.cp.rodata.cst4,"aMc",@progbits,4
	.cc_top .LCPI34_0.data,.LCPI34_0
	.align	4
	.type	.LCPI34_0,@object
	.size	.LCPI34_0, 4
.LCPI34_0:
	.long	71056
	.cc_bottom .LCPI34_0.data
	.text
	.globl	BeClear_SRTVBF_FsbPowerCstr
	.align	4
	.type	BeClear_SRTVBF_FsbPowerCstr,@function
	.cc_top BeClear_SRTVBF_FsbPowerCstr.function,BeClear_SRTVBF_FsbPowerCstr
BeClear_SRTVBF_FsbPowerCstr:
.Lfunc_begin34:
	.loc	2 1664 0
	.cfi_startproc
	.issue_mode dual
	{
		nop
		dualentsp 2
	}
.Ltmp530:
	.cfi_def_cfa_offset 8
.Ltmp531:
	.cfi_offset 15, 0
	.loc	2 1665 5 prologue_end
.Ltmp532:
	ldw r1, dp[bap_ap]
	ldw r2, cp[.LCPI34_0]
	.loc	2 1665 5
	{
		add r1, r1, r2
		nop
	}
	{
		nop
		ldw r1, r1[0]
	}
	.loc	2 1665 5
	bl SRTVBF_FsbPowerCstr
.Ltmp533:
	{
		nop
		retsp 2
	}
	.loc	2 1666 1
	# RETURN_REG_HOLDER
.Ltmp534:
	.cc_bottom BeClear_SRTVBF_FsbPowerCstr.function
	.set	BeClear_SRTVBF_FsbPowerCstr.nstackwords,(SRTVBF_FsbPowerCstr.nstackwords + 2)
	.globl	BeClear_SRTVBF_FsbPowerCstr.nstackwords
	.set	BeClear_SRTVBF_FsbPowerCstr.maxcores,SRTVBF_FsbPowerCstr.maxcores $M 1
	.globl	BeClear_SRTVBF_FsbPowerCstr.maxcores
	.set	BeClear_SRTVBF_FsbPowerCstr.maxtimers,SRTVBF_FsbPowerCstr.maxtimers $M 0
	.globl	BeClear_SRTVBF_FsbPowerCstr.maxtimers
	.set	BeClear_SRTVBF_FsbPowerCstr.maxchanends,SRTVBF_FsbPowerCstr.maxchanends $M 0
	.globl	BeClear_SRTVBF_FsbPowerCstr.maxchanends
.Ltmp535:
	.size	BeClear_SRTVBF_FsbPowerCstr, .Ltmp535-BeClear_SRTVBF_FsbPowerCstr
.Lfunc_end34:
	.cfi_endproc

	.section	.cp.rodata.cst4,"aMc",@progbits,4
	.cc_top .LCPI35_0.data,.LCPI35_0
	.align	4
	.type	.LCPI35_0,@object
	.size	.LCPI35_0, 4
.LCPI35_0:
	.long	71056
	.cc_bottom .LCPI35_0.data
	.text
	.globl	BeClear_SRTVBF_FsbCausalityCstr
	.align	4
	.type	BeClear_SRTVBF_FsbCausalityCstr,@function
	.cc_top BeClear_SRTVBF_FsbCausalityCstr.function,BeClear_SRTVBF_FsbCausalityCstr
BeClear_SRTVBF_FsbCausalityCstr:
.Lfunc_begin35:
	.loc	2 1682 0
	.cfi_startproc
	.issue_mode dual
	{
		nop
		dualentsp 2
	}
.Ltmp536:
	.cfi_def_cfa_offset 8
.Ltmp537:
	.cfi_offset 15, 0
	.loc	2 1683 5 prologue_end
.Ltmp538:
	ldw r2, dp[bap_ap]
	ldw r3, cp[.LCPI35_0]
	.loc	2 1683 5
	{
		add r2, r2, r3
		nop
	}
	{
		nop
		ldw r2, r2[0]
	}
	.loc	2 1683 5
	bl SRTVBF_FsbCausalityCstr
.Ltmp539:
	{
		nop
		retsp 2
	}
	.loc	2 1684 1
	# RETURN_REG_HOLDER
.Ltmp540:
	.cc_bottom BeClear_SRTVBF_FsbCausalityCstr.function
	.set	BeClear_SRTVBF_FsbCausalityCstr.nstackwords,(SRTVBF_FsbCausalityCstr.nstackwords + 2)
	.globl	BeClear_SRTVBF_FsbCausalityCstr.nstackwords
	.set	BeClear_SRTVBF_FsbCausalityCstr.maxcores,SRTVBF_FsbCausalityCstr.maxcores $M 1
	.globl	BeClear_SRTVBF_FsbCausalityCstr.maxcores
	.set	BeClear_SRTVBF_FsbCausalityCstr.maxtimers,SRTVBF_FsbCausalityCstr.maxtimers $M 0
	.globl	BeClear_SRTVBF_FsbCausalityCstr.maxtimers
	.set	BeClear_SRTVBF_FsbCausalityCstr.maxchanends,SRTVBF_FsbCausalityCstr.maxchanends $M 0
	.globl	BeClear_SRTVBF_FsbCausalityCstr.maxchanends
.Ltmp541:
	.size	BeClear_SRTVBF_FsbCausalityCstr, .Ltmp541-BeClear_SRTVBF_FsbCausalityCstr
.Lfunc_end35:
	.cfi_endproc

	.section	.cp.rodata.cst4,"aMc",@progbits,4
	.cc_top .LCPI36_0.data,.LCPI36_0
	.align	4
	.type	.LCPI36_0,@object
	.size	.LCPI36_0, 4
.LCPI36_0:
	.long	71056
	.cc_bottom .LCPI36_0.data
	.text
	.globl	BeClear_SRTVBF_GetFsbDelay
	.align	4
	.type	BeClear_SRTVBF_GetFsbDelay,@function
	.cc_top BeClear_SRTVBF_GetFsbDelay.function,BeClear_SRTVBF_GetFsbDelay
BeClear_SRTVBF_GetFsbDelay:
.Lfunc_begin36:
	.loc	2 1699 0
	.cfi_startproc
	.issue_mode dual
	{
		nop
		dualentsp 2
	}
.Ltmp542:
	.cfi_def_cfa_offset 8
.Ltmp543:
	.cfi_offset 15, 0
	.loc	2 1700 5 prologue_end
.Ltmp544:
	ldw r1, dp[bap_ap]
	ldw r2, cp[.LCPI36_0]
	.loc	2 1700 5
	{
		add r1, r1, r2
		nop
	}
	{
		nop
		ldw r2, r1[0]
	}
	.loc	2 1700 5
	ldaw r1, dp[td_doa0]
	bl SRTVBF_GetFSBDelay
.Ltmp545:
	{
		nop
		retsp 2
	}
	.loc	2 1707 1
	# RETURN_REG_HOLDER
.Ltmp546:
	.cc_bottom BeClear_SRTVBF_GetFsbDelay.function
	.set	BeClear_SRTVBF_GetFsbDelay.nstackwords,(SRTVBF_GetFSBDelay.nstackwords + 2)
	.globl	BeClear_SRTVBF_GetFsbDelay.nstackwords
	.set	BeClear_SRTVBF_GetFsbDelay.maxcores,SRTVBF_GetFSBDelay.maxcores $M 1
	.globl	BeClear_SRTVBF_GetFsbDelay.maxcores
	.set	BeClear_SRTVBF_GetFsbDelay.maxtimers,SRTVBF_GetFSBDelay.maxtimers $M 0
	.globl	BeClear_SRTVBF_GetFsbDelay.maxtimers
	.set	BeClear_SRTVBF_GetFsbDelay.maxchanends,SRTVBF_GetFSBDelay.maxchanends $M 0
	.globl	BeClear_SRTVBF_GetFsbDelay.maxchanends
.Ltmp547:
	.size	BeClear_SRTVBF_GetFsbDelay, .Ltmp547-BeClear_SRTVBF_GetFsbDelay
.Lfunc_end36:
	.cfi_endproc

	.globl	BeClear_SRTVBF_PrintInitMemory
	.align	4
	.type	BeClear_SRTVBF_PrintInitMemory,@function
	.cc_top BeClear_SRTVBF_PrintInitMemory.function,BeClear_SRTVBF_PrintInitMemory
BeClear_SRTVBF_PrintInitMemory:
.Lfunc_begin37:
	.loc	2 1724 0
	.cfi_startproc
	.issue_mode dual
	{
		nop
		dualentsp 0
	}
	{
		nop
		retsp 0
	}
	.loc	2 1767 1 prologue_end
.Ltmp548:
	# RETURN_REG_HOLDER
.Ltmp549:
	.cc_bottom BeClear_SRTVBF_PrintInitMemory.function
	.set	BeClear_SRTVBF_PrintInitMemory.nstackwords,0
	.globl	BeClear_SRTVBF_PrintInitMemory.nstackwords
	.set	BeClear_SRTVBF_PrintInitMemory.maxcores,1
	.globl	BeClear_SRTVBF_PrintInitMemory.maxcores
	.set	BeClear_SRTVBF_PrintInitMemory.maxtimers,0
	.globl	BeClear_SRTVBF_PrintInitMemory.maxtimers
	.set	BeClear_SRTVBF_PrintInitMemory.maxchanends,0
	.globl	BeClear_SRTVBF_PrintInitMemory.maxchanends
.Ltmp550:
	.size	BeClear_SRTVBF_PrintInitMemory, .Ltmp550-BeClear_SRTVBF_PrintInitMemory
.Lfunc_end37:
	.cfi_endproc

	.section	.cp.rodata.cst4,"aMc",@progbits,4
	.cc_top .LCPI38_0.data,.LCPI38_0
	.align	4
	.type	.LCPI38_0,@object
	.size	.LCPI38_0, 4
.LCPI38_0:
	.long	71056
	.cc_bottom .LCPI38_0.data
	.text
	.globl	BeClear_SRTVBF_Process_GetNLModel
	.align	4
	.type	BeClear_SRTVBF_Process_GetNLModel,@function
	.cc_top BeClear_SRTVBF_Process_GetNLModel.function,BeClear_SRTVBF_Process_GetNLModel
BeClear_SRTVBF_Process_GetNLModel:
.Lfunc_begin38:
	.loc	2 1785 0
	.cfi_startproc
	.issue_mode dual
	{
		nop
		dualentsp 14
	}
.Ltmp551:
	.cfi_def_cfa_offset 56
.Ltmp552:
	.cfi_offset 15, 0
	std r5, r4, sp[3]
.Ltmp553:
	.cfi_offset 4, -32
.Ltmp554:
	.cfi_offset 5, -28
	std r7, r6, sp[4]
.Ltmp555:
	.cfi_offset 6, -24
.Ltmp556:
	.cfi_offset 7, -20
	std r9, r8, sp[5]
.Ltmp557:
	.cfi_offset 8, -16
.Ltmp558:
	.cfi_offset 9, -12
.Ltmp559:
	.cfi_offset 10, -8
.Ltmp560:
	{
		mov r5, r1
		stw r10, sp[12]
	}
.Ltmp561:
	{
		mov r4, r0
		nop
	}
.Ltmp562:
	.loc	2 1790 5 prologue_end
	ldw r0, dp[bap_ap]
	ldw r6, cp[.LCPI38_0]
	.loc	2 1790 5
	{
		add r0, r0, r6
		nop
	}
.Ltmp563:
	.loc	2 1790 5
	{
		ldaw r1, sp[5]
		ldw r3, r0[0]
	}
.Ltmp564:
	{
		ldaw r2, sp[4]
		mov r0, r4
	}
.Ltmp565:
	.loc	2 1790 5
	bl SRTVBF_GetNLModelSize
	{
		nop
		ldw r1, sp[5]
	}
.Ltmp566:
	.loc	2 1792 5
	{
		ldaw r3, sp[3]
		ldw r2, sp[4]
	}
.Ltmp567:
	.loc	2 1792 5
	{
		mov r0, r4
		nop
	}
	bl RFMatCreate_T
	.loc	2 1794 9
.Ltmp568:
	{
		ldc r0, 16
		ldw r1, sp[5]
	}
	.loc	2 1794 9
	{
		eq r0, r1, r0
		nop
	}
	bf r0, .LBB38_11
.Ltmp569:
	{
		mkmsk r2, 4
		ldw r0, sp[4]
	}
	{
		eq r0, r0, r2
		nop
	}
	bf r0, .LBB38_11
.Ltmp570:
	{
		nop
		ldw r3, sp[3]
	}
	.loc	2 1796 9
.Ltmp571:
	ldw r0, dp[bap_ap]
	.loc	2 1796 9
	{
		add r0, r0, r6
		nop
	}
	{
		nop
		ldw r0, r0[0]
	}
	.loc	2 1796 9
	{
		ldc r1, 16
		stw r0, sp[1]
	}
	{
		mkmsk r2, 4
		mov r0, r4
	}
	bl SRTVBF_GetNLModel
.Ltmp572:
	{
		nop
		ldw r1, sp[5]
	}
	.loc	2 1800 9
.Ltmp573:
	bf r1, .LBB38_3
.Ltmp574:
	.loc	2 1802 17
	{
		ldc r2, 0
		ldw r0, sp[3]
	}
	{
		nop
		ldw r3, sp[4]
	}
.Ltmp575:
	.loc	2 1787 21
	{
		mov r7, r3
		mov r11, r2
	}
	{
		mov r6, r2
		nop
	}
.Ltmp576:
.LBB38_5:
	{
		nop
		ldw r8, r0[r11]
	}
.Ltmp577:
	.loc	2 1801 13
	bf r7, .LBB38_6
.Ltmp578:
	ldaw r9, r5[r6]
	{
		mov r7, r2
		nop
	}
.Ltmp579:
.LBB38_8:
	{
		nop
		ldw r10, r8[r7]
	}
	.loc	2 1802 17
.Ltmp580:
	stw r10, r9[r7]
.Ltmp581:
	.loc	2 1801 49
	{
		add r7, r7, 1
		nop
	}
.Ltmp582:
	.loc	2 1801 13
	{
		lsu r10, r7, r3
		nop
	}
	.loc	2 1801 13
	bt r10, .LBB38_8
.Ltmp583:
	.loc	2 1801 13
	{
		add r9, r6, r7
		mov r7, r3
	}
.Ltmp584:
	bu .LBB38_10
.Ltmp585:
.LBB38_6:
	{
		mov r7, r2
		mov r9, r6
	}
.Ltmp586:
.LBB38_10:
	.loc	9 280 5
	ldaw r6, r8[-4]
.Ltmp587:
	.loc	2 1804 34
	{
		add r6, r9, 1
		ldw r8, r6[0]
	}
.Ltmp588:
	.loc	2 1804 34
	stw r8, r5[r9]
.Ltmp589:
	.loc	2 1800 45
	{
		add r11, r11, 1
		nop
	}
.Ltmp590:
	.loc	2 1800 9
	{
		lsu r8, r11, r1
		nop
	}
	bt r8, .LBB38_5
	bu .LBB38_11
.Ltmp591:
.LBB38_3:
	{
		ldc r1, 0
		nop
	}
.Ltmp592:
.LBB38_11:
	.loc	2 1808 5
	{
		mov r0, r4
		ldw r2, sp[3]
	}
	.loc	2 1808 5
	bl RFMatClose_T
	{
		nop
		ldw r10, sp[12]
	}
	.loc	2 1810 1
	ldd r9, r8, sp[5]
	ldd r7, r6, sp[4]
	ldd r5, r4, sp[3]
.Ltmp593:
	{
		nop
		retsp 14
	}
	# RETURN_REG_HOLDER
.Ltmp594:
	.cc_bottom BeClear_SRTVBF_Process_GetNLModel.function
	.set	BeClear_SRTVBF_Process_GetNLModel.nstackwords,((SRTVBF_GetNLModelSize.nstackwords $M RFMatCreate_T.nstackwords $M SRTVBF_GetNLModel.nstackwords $M RFMatClose_T.nstackwords) + 14)
	.globl	BeClear_SRTVBF_Process_GetNLModel.nstackwords
	.set	BeClear_SRTVBF_Process_GetNLModel.maxcores,RFMatClose_T.maxcores $M RFMatCreate_T.maxcores $M SRTVBF_GetNLModel.maxcores $M SRTVBF_GetNLModelSize.maxcores $M 1
	.globl	BeClear_SRTVBF_Process_GetNLModel.maxcores
	.set	BeClear_SRTVBF_Process_GetNLModel.maxtimers,RFMatClose_T.maxtimers $M RFMatCreate_T.maxtimers $M SRTVBF_GetNLModel.maxtimers $M SRTVBF_GetNLModelSize.maxtimers $M 0
	.globl	BeClear_SRTVBF_Process_GetNLModel.maxtimers
	.set	BeClear_SRTVBF_Process_GetNLModel.maxchanends,RFMatClose_T.maxchanends $M RFMatCreate_T.maxchanends $M SRTVBF_GetNLModel.maxchanends $M SRTVBF_GetNLModelSize.maxchanends $M 0
	.globl	BeClear_SRTVBF_Process_GetNLModel.maxchanends
.Ltmp595:
	.size	BeClear_SRTVBF_Process_GetNLModel, .Ltmp595-BeClear_SRTVBF_Process_GetNLModel
.Lfunc_end38:
	.cfi_endproc

	.section	.cp.rodata.cst4,"aMc",@progbits,4
	.cc_top .LCPI39_0.data,.LCPI39_0
	.align	4
	.type	.LCPI39_0,@object
	.size	.LCPI39_0, 4
.LCPI39_0:
	.long	122952
	.cc_bottom .LCPI39_0.data
	.cc_top .LCPI39_1.data,.LCPI39_1
	.align	4
	.type	.LCPI39_1,@object
	.size	.LCPI39_1, 4
.LCPI39_1:
	.long	4294967292
	.cc_bottom .LCPI39_1.data
	.cc_top .LCPI39_2.data,.LCPI39_2
	.align	4
	.type	.LCPI39_2,@object
	.size	.LCPI39_2, 4
.LCPI39_2:
	.long	122960
	.cc_bottom .LCPI39_2.data
	.text
	.globl	BeClear_SRTVBF_Process_GetAECCoefs
	.align	4
	.type	BeClear_SRTVBF_Process_GetAECCoefs,@function
	.cc_top BeClear_SRTVBF_Process_GetAECCoefs.function,BeClear_SRTVBF_Process_GetAECCoefs
BeClear_SRTVBF_Process_GetAECCoefs:
.Lfunc_begin39:
	.loc	2 1829 0
	.cfi_startproc
	.issue_mode dual
	{
		nop
		dualentsp 8
	}
.Ltmp596:
	.cfi_def_cfa_offset 32
.Ltmp597:
	.cfi_offset 15, 0
	std r5, r4, sp[1]
.Ltmp598:
	.cfi_offset 4, -24
.Ltmp599:
	.cfi_offset 5, -20
	std r7, r6, sp[2]
.Ltmp600:
	.cfi_offset 6, -16
.Ltmp601:
	.cfi_offset 7, -12
	std r9, r8, sp[3]
.Ltmp602:
	.cfi_offset 8, -8
.Ltmp603:
	.cfi_offset 9, -4
.Ltmp604:
	{
		mov r5, r2
		mov r2, r1
	}
.Ltmp605:
	{
		mov r4, r0
		nop
	}
.Ltmp606:
	.loc	2 1832 5 prologue_end
	ldw r0, dp[aec_ap]
.Ltmp607:
	ldw r9, cp[.LCPI39_0]
	.loc	2 1832 5
	{
		add r0, r0, r9
		nop
	}
	{
		nop
		ldw r0, r0[0]
	}
.Ltmp608:
	.loc	10 1088 5
	{
		ldc r1, 19
		ldw r8, r4[0]
	}
.Ltmp609:
	.loc	10 965 5
	ldaw r0, r1[r0]
	ldw r1, cp[.LCPI39_1]
	.loc	10 965 5
	{
		and r0, r0, r1
		nop
	}
.Ltmp610:
	.loc	10 1089 23
	{
		add r0, r8, r0
		nop
	}
	{
		nop
		stw r0, r4[0]
	}
.Ltmp611:
	.loc	9 404 5
	ldaw r6, r8[4]
.Ltmp612:
	.loc	2 1833 5
	ldw r0, dp[aec_ap]
	ldw r1, cp[.LCPI39_2]
	.loc	2 1833 5
	{
		add r0, r0, r1
		nop
	}
	{
		nop
		ldw r0, r0[0]
	}
	.loc	2 1833 5
	{
		ldc r7, 0
		stw r0, sp[1]
	}
	{
		mov r0, r4
		mov r1, r7
	}
	{
		mov r3, r6
		nop
	}
	bl SRTVBF_GetAECCoefs
	{
		nop
		ldw r0, r8[0]
	}
	{
		nop
		stw r0, r5[0]
	}
.Ltmp613:
	.loc	2 1836 5
	ldw r0, dp[aec_ap]
	.loc	2 1836 5
	{
		add r0, r0, r9
		nop
	}
	{
		nop
		ldw r1, r0[0]
	}
	bf r1, .LBB39_3
.Ltmp614:
	{
		add r1, r5, 4
		nop
	}
.Ltmp615:
.LBB39_2:
	.loc	2 1837 9
	{
		add r3, r7, 1
		ldw r2, r6[r7]
	}
.Ltmp616:
	.loc	2 1837 9
	stw r2, r1[r7]
	{
		nop
		ldw r2, r0[0]
	}
.Ltmp617:
	.loc	2 1836 5
	{
		lsu r2, r3, r2
		mov r7, r3
	}
.Ltmp618:
	bt r2, .LBB39_2
.Ltmp619:
.LBB39_3:
	{
		nop
		stw r8, r4[0]
	}
	.loc	2 1841 1
	ldd r9, r8, sp[3]
.Ltmp620:
	ldd r7, r6, sp[2]
	ldd r5, r4, sp[1]
.Ltmp621:
	{
		nop
		retsp 8
	}
	# RETURN_REG_HOLDER
.Ltmp622:
	.cc_bottom BeClear_SRTVBF_Process_GetAECCoefs.function
	.set	BeClear_SRTVBF_Process_GetAECCoefs.nstackwords,(SRTVBF_GetAECCoefs.nstackwords + 8)
	.globl	BeClear_SRTVBF_Process_GetAECCoefs.nstackwords
	.set	BeClear_SRTVBF_Process_GetAECCoefs.maxcores,SRTVBF_GetAECCoefs.maxcores $M 1
	.globl	BeClear_SRTVBF_Process_GetAECCoefs.maxcores
	.set	BeClear_SRTVBF_Process_GetAECCoefs.maxtimers,SRTVBF_GetAECCoefs.maxtimers $M 0
	.globl	BeClear_SRTVBF_Process_GetAECCoefs.maxtimers
	.set	BeClear_SRTVBF_Process_GetAECCoefs.maxchanends,SRTVBF_GetAECCoefs.maxchanends $M 0
	.globl	BeClear_SRTVBF_Process_GetAECCoefs.maxchanends
.Ltmp623:
	.size	BeClear_SRTVBF_Process_GetAECCoefs, .Ltmp623-BeClear_SRTVBF_Process_GetAECCoefs
.Lfunc_end39:
	.cfi_endproc

	.section	.dp.bss.4,"awd",@nobits
	.cc_top frameCnt.data,frameCnt
	.globl	frameCnt
	.align	4
	.type	frameCnt,@object
	.size	frameCnt, 4
frameCnt:
	.long	0
	.cc_bottom frameCnt.data
	.section	.dp.data.4,"awd",@progbits
	.cc_top GoOn.data,GoOn
	.globl	GoOn
	.align	4
	.type	GoOn,@object
	.size	GoOn, 4
GoOn:
	.long	1
	.cc_bottom GoOn.data
	.section	.dp.bss,"awd",@nobits
	.cc_top mic_a.data,mic_a
	.globl	mic_a.globound
mic_a.globound = 2
	.globl	mic_a
	.align	8
	.type	mic_a,@object
	.size	mic_a, 32
mic_a:
	.space	32
	.cc_bottom mic_a.data
	.section	.dp.data.4,"awd",@progbits
	.cc_top mics1.data,mics1
	.globl	mics1
	.align	4
	.type	mics1,@object
	.size	mics1, 4
mics1:
	.long	mic_a+16
	.cc_bottom mics1.data
	.section	.dp.bss,"awd",@nobits
	.cc_top far_a.data,far_a
	.globl	far_a.globound
far_a.globound = 2
	.globl	far_a
	.align	8
	.type	far_a,@object
	.size	far_a, 8
far_a:
	.space	8
	.cc_bottom far_a.data
	.section	.dp.data.4,"awd",@progbits
	.cc_top far1.data,far1
	.globl	far1
	.align	4
	.type	far1,@object
	.size	far1, 4
far1:
	.long	far_a+4
	.cc_bottom far1.data
	.cc_top mics.data,mics
	.globl	mics
	.align	4
	.type	mics,@object
	.size	mics, 4
mics:
	.long	mic_a
	.cc_bottom mics.data
	.cc_top far.data,far
	.globl	far
	.align	4
	.type	far,@object
	.size	far, 4
far:
	.long	far_a
	.cc_bottom far.data
	.section	.dp.bss,"awd",@nobits
	.cc_top nl_model.data,nl_model
	.globl	nl_model.globound
nl_model.globound = 256
	.globl	nl_model
	.align	8
	.type	nl_model,@object
	.size	nl_model, 1024
nl_model:
	.space	1024
	.cc_bottom nl_model.data
	.section	.dp.bss.4,"awd",@nobits
	.cc_top aec_ap.data,aec_ap
	.globl	aec_ap
	.align	4
	.type	aec_ap,@object
	.size	aec_ap, 4
aec_ap:
	.long	0
	.cc_bottom aec_ap.data
	.cc_top bap_ap.data,bap_ap
	.globl	bap_ap
	.align	4
	.type	bap_ap,@object
	.size	bap_ap, 4
bap_ap:
	.long	0
	.cc_bottom bap_ap.data
	.cc_top q.data,q
	.globl	q
	.align	4
	.type	q,@object
	.size	q, 4
q:
	.long	0
	.cc_bottom q.data
	.section	.dp.data.4,"awd",@progbits
	.cc_top BeClear_SRTVBF_WriteOutput.writeBuffNo.data,BeClear_SRTVBF_WriteOutput.writeBuffNo
	.align	4
	.type	BeClear_SRTVBF_WriteOutput.writeBuffNo,@object
	.size	BeClear_SRTVBF_WriteOutput.writeBuffNo, 4
BeClear_SRTVBF_WriteOutput.writeBuffNo:
	.long	2
	.cc_bottom BeClear_SRTVBF_WriteOutput.writeBuffNo.data
	.section	.dp.bss,"awd",@nobits
	.cc_top q_a.data,q_a
	.globl	q_a.globound
q_a.globound = 3
	.globl	q_a
	.align	8
	.type	q_a,@object
	.size	q_a, 24
q_a:
	.space	24
	.cc_bottom q_a.data
	.cc_top aec_appl.data,aec_appl
	.globl	aec_appl
	.align	8
	.type	aec_appl,@object
	.size	aec_appl, 122968
aec_appl:
	.space	122968
	.cc_bottom aec_appl.data
	.section	.cp.rodata.string,"aMSc",@progbits
	.cc_top .L.str1.data,.L.str1
	.align	4
	.type	.L.str1,@object
	.size	.L.str1, 5
.L.str1:
.asciiz"AEC0"
	.cc_bottom .L.str1.data
	.cc_top .L.str2.data,.L.str2
	.align	4
	.type	.L.str2,@object
	.size	.L.str2, 5
.L.str2:
.asciiz"AEC1"
	.cc_bottom .L.str2.data
	.cc_top .L.str3.data,.L.str3
	.align	4
	.type	.L.str3,@object
	.size	.L.str3, 5
.L.str3:
.asciiz"AEC2"
	.cc_bottom .L.str3.data
	.section	.dp.bss.4,"awd",@nobits
	.cc_top aecfreezeonoff.data,aecfreezeonoff
	.globl	aecfreezeonoff
	.align	4
	.type	aecfreezeonoff,@object
	.size	aecfreezeonoff, 4
aecfreezeonoff:
	.long	0
	.cc_bottom aecfreezeonoff.data
	.section	.dp.bss,"awd",@nobits
	.cc_top aecnorm.data,aecnorm
	.globl	aecnorm
	.align	8
	.type	aecnorm,@object
	.size	aecnorm, 8
aecnorm:
	.long	0
	.long	0
	.cc_bottom aecnorm.data
	.cc_top rt60.data,rt60
	.globl	rt60
	.align	8
	.type	rt60,@object
	.size	rt60, 8
rt60:
	.long	0
	.long	0
	.cc_bottom rt60.data
	.section	.dp.bss.4,"awd",@nobits
	.cc_top hpfonoff.data,hpfonoff
	.globl	hpfonoff
	.align	4
	.type	hpfonoff,@object
	.size	hpfonoff, 4
hpfonoff:
	.long	0
	.cc_bottom hpfonoff.data
	.cc_top rt60onoff.data,rt60onoff
	.globl	rt60onoff
	.align	4
	.type	rt60onoff,@object
	.size	rt60onoff, 4
rt60onoff:
	.long	0
	.cc_bottom rt60onoff.data
	.section	.dp.bss,"awd",@nobits
	.cc_top aecsilencelevel.data,aecsilencelevel
	.globl	aecsilencelevel
	.align	8
	.type	aecsilencelevel,@object
	.size	aecsilencelevel, 8
aecsilencelevel:
	.long	0
	.long	0
	.cc_bottom aecsilencelevel.data
	.section	.dp.bss.4,"awd",@nobits
	.cc_top aecsilencemode.data,aecsilencemode
	.globl	aecsilencemode
	.align	4
	.type	aecsilencemode,@object
	.size	aecsilencemode, 4
aecsilencemode:
	.long	0
	.cc_bottom aecsilencemode.data
	.section	.dp.bss,"awd",@nobits
	.cc_top aecerlmax.data,aecerlmax
	.globl	aecerlmax
	.align	8
	.type	aecerlmax,@object
	.size	aecerlmax, 8
aecerlmax:
	.long	0
	.long	0
	.cc_bottom aecerlmax.data
	.cc_top max_rt60.data,max_rt60
	.globl	max_rt60
	.align	8
	.type	max_rt60,@object
	.size	max_rt60, 8
max_rt60:
	.long	0
	.long	0
	.cc_bottom max_rt60.data
	.section	.dp.bss.4,"awd",@nobits
	.cc_top profilingonoff.data,profilingonoff
	.globl	profilingonoff
	.align	4
	.type	profilingonoff,@object
	.size	profilingonoff, 4
profilingonoff:
	.long	0
	.cc_bottom profilingonoff.data
	.section	.dp.bss,"awd",@nobits
	.cc_top x_mics.data,x_mics
	.globl	x_mics.globound
x_mics.globound = 2
	.globl	x_mics
	.align	8
	.type	x_mics,@object
	.size	x_mics, 8320
x_mics:
	.space	8320
	.cc_bottom x_mics.data
	.cc_top x_far.data,x_far
	.globl	x_far.globound
x_far.globound = 2
	.globl	x_far
	.align	8
	.type	x_far,@object
	.size	x_far, 2080
x_far:
	.space	2080
	.cc_bottom x_far.data
	.section	.cp.rodata.string,"aMSc",@progbits
	.cc_top .L.str4.data,.L.str4
	.align	4
	.type	.L.str4,@object
	.size	.L.str4, 10
.L.str4:
.asciiz"AEC cmem0"
	.cc_bottom .L.str4.data
	.cc_top .L.str5.data,.L.str5
	.align	4
	.type	.L.str5,@object
	.size	.L.str5, 10
.L.str5:
.asciiz"AEC tmem0"
	.cc_bottom .L.str5.data
	.cc_top .L.str6.data,.L.str6
	.align	4
	.type	.L.str6,@object
	.size	.L.str6, 10
.L.str6:
.asciiz"AEC cmem1"
	.cc_bottom .L.str6.data
	.cc_top .L.str7.data,.L.str7
	.align	4
	.type	.L.str7,@object
	.size	.L.str7, 10
.L.str7:
.asciiz"AEC tmem1"
	.cc_bottom .L.str7.data
	.cc_top .L.str8.data,.L.str8
	.align	4
	.type	.L.str8,@object
	.size	.L.str8, 10
.L.str8:
.asciiz"AEC cmem2"
	.cc_bottom .L.str8.data
	.cc_top .L.str9.data,.L.str9
	.align	4
	.type	.L.str9,@object
	.size	.L.str9, 10
.L.str9:
.asciiz"AEC tmem2"
	.cc_bottom .L.str9.data
	.section	.dp.bss,"awd",@nobits
	.cc_top bap_appl.data,bap_appl
	.globl	bap_appl
	.align	8
	.type	bap_appl,@object
	.size	bap_appl, 71064
bap_appl:
	.space	71064
	.cc_bottom bap_appl.data
	.section	.cp.rodata.string,"aMSc",@progbits
	.cc_top .L.str10.data,.L.str10
	.align	4
	.type	.L.str10,@object
	.size	.L.str10, 5
.L.str10:
.asciiz"BAP0"
	.cc_bottom .L.str10.data
	.cc_top .L.str11.data,.L.str11
	.align	4
	.type	.L.str11,@object
	.size	.L.str11, 5
.L.str11:
.asciiz"BAP1"
	.cc_bottom .L.str11.data
	.section	.dp.bss.4,"awd",@nobits
	.cc_top agconoff.data,agconoff
	.globl	agconoff
	.align	4
	.type	agconoff,@object
	.size	agconoff, 4
agconoff:
	.long	0
	.cc_bottom agconoff.data
	.section	.dp.bss,"awd",@nobits
	.cc_top agcmaxgain.data,agcmaxgain
	.globl	agcmaxgain
	.align	8
	.type	agcmaxgain,@object
	.size	agcmaxgain, 8
agcmaxgain:
	.long	0
	.long	0
	.cc_bottom agcmaxgain.data
	.cc_top agcdesiredlevel.data,agcdesiredlevel
	.globl	agcdesiredlevel
	.align	8
	.type	agcdesiredlevel,@object
	.size	agcdesiredlevel, 8
agcdesiredlevel:
	.long	0
	.long	0
	.cc_bottom agcdesiredlevel.data
	.cc_top agcgain.data,agcgain
	.globl	agcgain
	.align	8
	.type	agcgain,@object
	.size	agcgain, 8
agcgain:
	.long	0
	.long	0
	.cc_bottom agcgain.data
	.cc_top agctime.data,agctime
	.globl	agctime
	.align	8
	.type	agctime,@object
	.size	agctime, 8
agctime:
	.long	0
	.long	0
	.cc_bottom agctime.data
	.section	.dp.bss.4,"awd",@nobits
	.cc_top cnionoff.data,cnionoff
	.globl	cnionoff
	.align	4
	.type	cnionoff,@object
	.size	cnionoff, 4
cnionoff:
	.long	0
	.cc_bottom cnionoff.data
	.cc_top freezeonoff.data,freezeonoff
	.globl	freezeonoff
	.align	4
	.type	freezeonoff,@object
	.size	freezeonoff, 4
freezeonoff:
	.long	0
	.cc_bottom freezeonoff.data
	.section	.dp.bss,"awd",@nobits
	.cc_top beamwidth.data,beamwidth
	.globl	beamwidth
	.align	8
	.type	beamwidth,@object
	.size	beamwidth, 8
beamwidth:
	.long	0
	.long	0
	.cc_bottom beamwidth.data
	.cc_top beamangle.data,beamangle
	.globl	beamangle
	.align	8
	.type	beamangle,@object
	.size	beamangle, 8
beamangle:
	.long	0
	.long	0
	.cc_bottom beamangle.data
	.section	.dp.bss.4,"awd",@nobits
	.cc_top statnoiseonoff.data,statnoiseonoff
	.globl	statnoiseonoff
	.align	4
	.type	statnoiseonoff,@object
	.size	statnoiseonoff, 4
statnoiseonoff:
	.long	0
	.cc_bottom statnoiseonoff.data
	.section	.dp.bss,"awd",@nobits
	.cc_top gamma_ns.data,gamma_ns
	.globl	gamma_ns
	.align	8
	.type	gamma_ns,@object
	.size	gamma_ns, 8
gamma_ns:
	.long	0
	.long	0
	.cc_bottom gamma_ns.data
	.cc_top min_ns.data,min_ns
	.globl	min_ns
	.align	8
	.type	min_ns,@object
	.size	min_ns, 8
min_ns:
	.long	0
	.long	0
	.cc_bottom min_ns.data
	.section	.dp.bss.4,"awd",@nobits
	.cc_top nonstatnoiseonoff.data,nonstatnoiseonoff
	.globl	nonstatnoiseonoff
	.align	4
	.type	nonstatnoiseonoff,@object
	.size	nonstatnoiseonoff, 4
nonstatnoiseonoff:
	.long	0
	.cc_bottom nonstatnoiseonoff.data
	.section	.dp.bss,"awd",@nobits
	.cc_top gamma_nn.data,gamma_nn
	.globl	gamma_nn
	.align	8
	.type	gamma_nn,@object
	.size	gamma_nn, 8
gamma_nn:
	.long	0
	.long	0
	.cc_bottom gamma_nn.data
	.cc_top min_nn.data,min_nn
	.globl	min_nn
	.align	8
	.type	min_nn,@object
	.size	min_nn, 8
min_nn:
	.long	0
	.long	0
	.cc_bottom min_nn.data
	.section	.dp.bss.4,"awd",@nobits
	.cc_top echoonoff.data,echoonoff
	.globl	echoonoff
	.align	4
	.type	echoonoff,@object
	.size	echoonoff, 4
echoonoff:
	.long	0
	.cc_bottom echoonoff.data
	.section	.dp.bss,"awd",@nobits
	.cc_top gamma_e.data,gamma_e
	.globl	gamma_e
	.align	8
	.type	gamma_e,@object
	.size	gamma_e, 8
gamma_e:
	.long	0
	.long	0
	.cc_bottom gamma_e.data
	.cc_top gamma_etail.data,gamma_etail
	.globl	gamma_etail
	.align	8
	.type	gamma_etail,@object
	.size	gamma_etail, 8
gamma_etail:
	.long	0
	.long	0
	.cc_bottom gamma_etail.data
	.cc_top gamma_enl.data,gamma_enl
	.globl	gamma_enl
	.align	8
	.type	gamma_enl,@object
	.size	gamma_enl, 8
gamma_enl:
	.long	0
	.long	0
	.cc_bottom gamma_enl.data
	.section	.dp.bss.4,"awd",@nobits
	.cc_top nlattenonoff.data,nlattenonoff
	.globl	nlattenonoff
	.align	4
	.type	nlattenonoff,@object
	.size	nlattenonoff, 4
nlattenonoff:
	.long	0
	.cc_bottom nlattenonoff.data
	.cc_top nlaec_mode.data,nlaec_mode
	.globl	nlaec_mode
	.align	4
	.type	nlaec_mode,@object
	.size	nlaec_mode, 4
nlaec_mode:
	.long	0
	.cc_bottom nlaec_mode.data
	.cc_top fsbupdated.data,fsbupdated
	.globl	fsbupdated
	.align	4
	.type	fsbupdated,@object
	.size	fsbupdated, 4
fsbupdated:
	.long	0
	.cc_bottom fsbupdated.data
	.cc_top fsbpathchange.data,fsbpathchange
	.globl	fsbpathchange
	.align	4
	.type	fsbpathchange,@object
	.size	fsbpathchange, 4
fsbpathchange:
	.long	0
	.cc_bottom fsbpathchange.data
	.cc_top transientonoff.data,transientonoff
	.globl	transientonoff
	.align	4
	.type	transientonoff,@object
	.size	transientonoff, 4
transientonoff:
	.long	0
	.cc_bottom transientonoff.data
	.section	.dp.bss,"awd",@nobits
	.cc_top spthresh.data,spthresh
	.globl	spthresh
	.align	8
	.type	spthresh,@object
	.size	spthresh, 8
spthresh:
	.long	0
	.long	0
	.cc_bottom spthresh.data
	.section	.dp.bss.4,"awd",@nobits
	.cc_top xnltrainonoff.data,xnltrainonoff
	.globl	xnltrainonoff
	.align	4
	.type	xnltrainonoff,@object
	.size	xnltrainonoff, 4
xnltrainonoff:
	.long	0
	.cc_bottom xnltrainonoff.data
	.cc_top fsbfreezeonoff.data,fsbfreezeonoff
	.globl	fsbfreezeonoff
	.align	4
	.type	fsbfreezeonoff,@object
	.size	fsbfreezeonoff, 4
fsbfreezeonoff:
	.long	0
	.cc_bottom fsbfreezeonoff.data
	.cc_top voiceactivity.data,voiceactivity
	.globl	voiceactivity
	.align	4
	.type	voiceactivity,@object
	.size	voiceactivity, 4
voiceactivity:
	.long	0
	.cc_bottom voiceactivity.data
	.cc_top sr_statnoiseonoff.data,sr_statnoiseonoff
	.globl	sr_statnoiseonoff
	.align	4
	.type	sr_statnoiseonoff,@object
	.size	sr_statnoiseonoff, 4
sr_statnoiseonoff:
	.long	0
	.cc_bottom sr_statnoiseonoff.data
	.cc_top sr_nonstatnoiseonoff.data,sr_nonstatnoiseonoff
	.globl	sr_nonstatnoiseonoff
	.align	4
	.type	sr_nonstatnoiseonoff,@object
	.size	sr_nonstatnoiseonoff, 4
sr_nonstatnoiseonoff:
	.long	0
	.cc_bottom sr_nonstatnoiseonoff.data
	.section	.dp.bss,"awd",@nobits
	.cc_top sr_gamma_ns.data,sr_gamma_ns
	.globl	sr_gamma_ns
	.align	8
	.type	sr_gamma_ns,@object
	.size	sr_gamma_ns, 8
sr_gamma_ns:
	.long	0
	.long	0
	.cc_bottom sr_gamma_ns.data
	.cc_top sr_gamma_nn.data,sr_gamma_nn
	.globl	sr_gamma_nn
	.align	8
	.type	sr_gamma_nn,@object
	.size	sr_gamma_nn, 8
sr_gamma_nn:
	.long	0
	.long	0
	.cc_bottom sr_gamma_nn.data
	.cc_top sr_min_ns.data,sr_min_ns
	.globl	sr_min_ns
	.align	8
	.type	sr_min_ns,@object
	.size	sr_min_ns, 8
sr_min_ns:
	.long	0
	.long	0
	.cc_bottom sr_min_ns.data
	.cc_top sr_min_nn.data,sr_min_nn
	.globl	sr_min_nn
	.align	8
	.type	sr_min_nn,@object
	.size	sr_min_nn, 8
sr_min_nn:
	.long	0
	.long	0
	.cc_bottom sr_min_nn.data
	.cc_top sr_absqfloor.data,sr_absqfloor
	.globl	sr_absqfloor
	.align	8
	.type	sr_absqfloor,@object
	.size	sr_absqfloor, 8
sr_absqfloor:
	.long	0
	.long	0
	.cc_bottom sr_absqfloor.data
	.cc_top sr_gamma_vad.data,sr_gamma_vad
	.globl	sr_gamma_vad
	.align	8
	.type	sr_gamma_vad,@object
	.size	sr_gamma_vad, 8
sr_gamma_vad:
	.long	0
	.long	0
	.cc_bottom sr_gamma_vad.data
	.section	.cp.rodata.4,"ac",@progbits
	.cc_top micgeo.data,micgeo
	.align	4
	.type	micgeo,@object
	.size	micgeo, 48
micgeo:
	.long	0
	.long	0
	.long	0
	.long	100
	.long	0
	.long	0
	.long	33
	.long	0
	.long	0
	.long	66
	.long	0
	.long	0
	.cc_bottom micgeo.data
	.section	.dp.bss,"awd",@nobits
	.cc_top x_q.data,x_q
	.globl	x_q.globound
x_q.globound = 3
	.globl	x_q
	.align	8
	.type	x_q,@object
	.size	x_q, 6240
x_q:
	.space	6240
	.cc_bottom x_q.data
	.section	.cp.rodata.string,"aMSc",@progbits
	.cc_top .L.str12.data,.L.str12
	.align	4
	.type	.L.str12,@object
	.size	.L.str12, 10
.L.str12:
.asciiz"BAP cmem0"
	.cc_bottom .L.str12.data
	.cc_top .L.str13.data,.L.str13
	.align	4
	.type	.L.str13,@object
	.size	.L.str13, 10
.L.str13:
.asciiz"BAP tmem0"
	.cc_bottom .L.str13.data
	.cc_top .L.str14.data,.L.str14
	.align	4
	.type	.L.str14,@object
	.size	.L.str14, 10
.L.str14:
.asciiz"BAP cmem1"
	.cc_bottom .L.str14.data
	.cc_top .L.str15.data,.L.str15
	.align	4
	.type	.L.str15,@object
	.size	.L.str15, 10
.L.str15:
.asciiz"BAP tmem1"
	.cc_bottom .L.str15.data
	.section	.dp.bss,"awd",@nobits
	.cc_top td_doa0.data,td_doa0
	.globl	td_doa0
	.align	8
	.type	td_doa0,@object
	.size	td_doa0, 8
td_doa0:
	.long	0
	.long	0
	.cc_bottom td_doa0.data
	.section	.cp.rodata.string,"aMSc",@progbits
	.cc_top .L.str16.data,.L.str16
	.align	4
	.type	.L.str16,@object
	.size	.L.str16, 4
.L.str16:
.asciiz" = "
	.cc_bottom .L.str16.data
	.cc_top .L.str17.data,.L.str17
	.align	4
	.type	.L.str17,@object
	.size	.L.str17, 8
.L.str17:
.asciiz" bytes\n"
	.cc_bottom .L.str17.data
	.section	.cp.rodata.4,"ac",@progbits
.Ldebug_end0:
	.section	.dp.bss.4,"awd",@nobits
.Ldebug_end1:
	.section	.dp.bss,"awd",@nobits
.Ldebug_end2:
	.section	.dp.data.4,"awd",@progbits
.Ldebug_end3:
	.text
.Ldebug_end4:
	.section	.trap_info,"",@progbits
.Ltrap_info_entries_start0:
	.long	.Ltrap_info_entries_end0-.Ltrap_info_entries_start0
	.long	1
.Ltrap_info_entries_end0: