	.text
	.file	"dsp_design.c"
	.section	.cp.rodata.cst4,"aMc",@progbits,4
	.cc_top .LCPI0_0.data,.LCPI0_0
	.align	4
	.type	.LCPI0_0,@object
	.size	.LCPI0_0, 4
.LCPI0_0:
	.long	1413754602
	.cc_bottom .LCPI0_0.data
	.cc_top .LCPI0_1.data,.LCPI0_1
	.align	4
	.type	.LCPI0_1,@object
	.size	.LCPI0_1, 4
.LCPI0_1:
	.long	1075388923
	.cc_bottom .LCPI0_1.data
	.cc_top .LCPI0_2.data,.LCPI0_2
	.align	4
	.type	.LCPI0_2,@object
	.size	.LCPI0_2, 4
.LCPI0_2:
	.long	3221225472
	.cc_bottom .LCPI0_2.data
	.cc_top .LCPI0_3.data,.LCPI0_3
	.align	4
	.type	.LCPI0_3,@object
	.size	.LCPI0_3, 4
.LCPI0_3:
	.long	1072693248
	.cc_bottom .LCPI0_3.data
	.cc_top .LCPI0_4.data,.LCPI0_4
	.align	4
	.type	.LCPI0_4,@object
	.size	.LCPI0_4, 4
.LCPI0_4:
	.long	1071644672
	.cc_bottom .LCPI0_4.data
	.cc_top .LCPI0_5.data,.LCPI0_5
	.align	4
	.type	.LCPI0_5,@object
	.size	.LCPI0_5, 4
.LCPI0_5:
	.long	3219128320
	.cc_bottom .LCPI0_5.data
	.cc_top .LCPI0_6.data,.LCPI0_6
	.align	4
	.type	.LCPI0_6,@object
	.size	.LCPI0_6, 4
.LCPI0_6:
	.long	2147483648
	.cc_bottom .LCPI0_6.data
	.text
	.globl	dsp_design_biquad_notch
	.align	4
	.type	dsp_design_biquad_notch,@function
	.cc_top dsp_design_biquad_notch.function,dsp_design_biquad_notch
dsp_design_biquad_notch:
.Lfunc_begin0:
	.loc	1 25 0
	.cfi_startproc
	.issue_mode dual
	{
		nop
		dualentsp 18
	}
.Ltmp0:
	.cfi_def_cfa_offset 72
.Ltmp1:
	.cfi_offset 15, 0
	std r5, r4, sp[5]
.Ltmp2:
	.cfi_offset 4, -32
.Ltmp3:
	.cfi_offset 5, -28
	std r7, r6, sp[6]
.Ltmp4:
	.cfi_offset 6, -24
.Ltmp5:
	.cfi_offset 7, -20
	std r9, r8, sp[7]
.Ltmp6:
	.cfi_offset 8, -16
.Ltmp7:
	.cfi_offset 9, -12
.Ltmp8:
	.cfi_offset 10, -8
	{
		mov r4, r3
		stw r10, sp[16]
	}
	{
		mov r5, r2
		nop
	}
	ldw r2, cp[.LCPI0_0]
	ldw r3, cp[.LCPI0_1]
	.loc	1 27 2 prologue_end
.Ltmp9:
	bl __muldf3
	{
		mov r9, r0
		mov r10, r1
	}
	.loc	1 28 17
	bl sin
	{
		mov r6, r0
		mov r7, r1
	}
	.loc	1 28 17
	{
		mov r0, r5
		mov r1, r4
	}
	{
		mov r2, r5
		mov r3, r4
	}
	bl __adddf3
	{
		mov r2, r0
		mov r3, r1
	}
	.loc	1 28 17
	{
		mov r0, r6
		mov r1, r7
	}
	bl __divdf3
	{
		mov r4, r0
		nop
	}
.Ltmp10:
	{
		mov r5, r1
		stw r4, sp[7]
	}
	.loc	1 32 21
	{
		mov r0, r9
		mov r1, r10
	}
	bl cos
	{
		ldc r8, 0
		nop
	}
	ldw r3, cp[.LCPI0_2]
	.loc	1 32 21
	{
		mov r2, r8
		nop
	}
	bl __muldf3
	{
		nop
		stw r0, sp[3]
	}
	{
		nop
		stw r1, sp[2]
	}
.Ltmp11:
	ldw r3, cp[.LCPI0_3]
	.loc	1 34 2
	{
		mov r0, r4
		mov r1, r5
	}
	{
		mov r2, r8
		mov r4, r3
	}
	bl __adddf3
	{
		mov r7, r0
		nop
	}
	{
		mov r6, r1
		stw r7, sp[9]
	}
	.loc	1 35 21
	{
		mov r0, r9
		stw r6, sp[8]
	}
	{
		mov r1, r10
		nop
	}
	bl cos
	.loc	1 35 21
	{
		mov r2, r0
		mov r3, r1
	}
	bl __adddf3
	{
		nop
		stw r0, sp[5]
	}
	{
		mov r0, r8
		stw r1, sp[4]
	}
	.loc	1 36 2
	{
		mov r1, r4
		ldw r2, sp[7]
	}
	{
		mov r3, r5
		nop
	}
	bl __subdf3
	{
		nop
		stw r0, sp[7]
	}
	{
		mov r0, r8
		stw r1, sp[6]
	}
	.loc	1 39 20
	{
		mov r1, r4
		mov r2, r7
	}
	{
		mov r3, r6
		nop
	}
	bl __divdf3
	.loc	1 39 20
	bl __truncdfsf2
.Ltmp12:
	{
		mov r10, r0
		mov r1, r8
	}
	.loc	1 12 9
.Ltmp13:
	bl __gesf2
	ashr r0, r0, 32
	{
		eq r4, r0, 0
		mov r0, r10
	}
	{
		mov r1, r8
		nop
	}
	bl __unordsf2
	{
		eq r0, r0, 0
		nop
	}
	{
		eq r0, r0, 0
		nop
	}
	{
		or r0, r0, r4
		nop
	}
	bt r0, .LBB0_2
.Ltmp14:
	{
		mkmsk r0, 1
		ldw r1, sp[20]
	}
.Ltmp15:
	.loc	1 12 17
	{
		shl r0, r0, r1
		mov r9, r1
	}
.Ltmp16:
	.loc	1 12 17
	bl __floatsidf
	{
		mov r4, r0
		mov r5, r1
	}
	.loc	1 12 17
	{
		mov r0, r10
		nop
	}
	bl __extendsfdf2
	{
		mov r2, r0
		mov r3, r1
	}
	.loc	1 12 17
	{
		mov r0, r4
		mov r1, r5
	}
	bl __muldf3
	{
		ldc r2, 0
		nop
	}
	ldw r3, cp[.LCPI0_5]
	bu .LBB0_4
.LBB0_2:
.Ltmp17:
	{
		mov r0, r10
		ldw r9, sp[20]
	}
.Ltmp18:
	.loc	1 13 14
	{
		mov r1, r8
		nop
	}
	bl __lesf2
	{
		mkmsk r1, 1
		nop
	}
	{
		lss r4, r0, r1
		mov r0, r10
	}
	{
		mov r1, r8
		nop
	}
	bl __unordsf2
	{
		eq r0, r0, 0
		nop
	}
	{
		eq r0, r0, 0
		nop
	}
	{
		or r0, r0, r4
		nop
	}
	bt r0, .LBB0_5
.Ltmp19:
	.loc	1 13 22
	{
		mkmsk r0, r9
		nop
	}
	.loc	1 13 22
	bl __floatsidf
	{
		mov r4, r0
		mov r5, r1
	}
	.loc	1 13 22
	{
		mov r0, r10
		nop
	}
	bl __extendsfdf2
	{
		mov r2, r0
		mov r3, r1
	}
	.loc	1 13 22
	{
		mov r0, r4
		mov r1, r5
	}
	bl __muldf3
	{
		ldc r2, 0
		nop
	}
	ldw r3, cp[.LCPI0_4]
.Ltmp20:
.LBB0_4:
	.loc	1 13 22
	bl __adddf3
	.loc	1 13 22
	bl __fixdfsi
	{
		mov r8, r0
		nop
	}
.Ltmp21:
.LBB0_5:
	{
		nop
		ldw r0, sp[19]
	}
.Ltmp22:
	.loc	1 39 20
	{
		mov r8, r0
		stw r8, r0[0]
	}
.Ltmp23:
	{
		nop
		ldw r0, sp[3]
	}
	{
		nop
		ldw r1, sp[2]
	}
	{
		nop
		ldw r2, sp[9]
	}
	{
		nop
		ldw r3, sp[8]
	}
	.loc	1 40 20
	bl __divdf3
	.loc	1 40 20
	bl __truncdfsf2
	{
		mov r6, r0
		ldc r4, 0
	}
	.loc	1 12 9
.Ltmp24:
	{
		mov r1, r4
		nop
	}
	bl __gesf2
	ashr r0, r0, 32
	{
		eq r5, r0, 0
		mov r0, r6
	}
	{
		mov r1, r4
		nop
	}
	bl __unordsf2
	{
		eq r0, r0, 0
		nop
	}
	{
		eq r0, r0, 0
		nop
	}
	{
		or r0, r0, r5
		nop
	}
	bt r0, .LBB0_7
.Ltmp25:
	{
		mkmsk r0, 1
		mov r7, r9
	}
.Ltmp26:
	.loc	1 12 17
	{
		shl r0, r0, r7
		nop
	}
	.loc	1 12 17
	bl __floatsidf
	{
		mov r4, r0
		mov r5, r1
	}
	.loc	1 12 17
	{
		mov r0, r6
		nop
	}
	bl __extendsfdf2
	{
		mov r2, r0
		mov r3, r1
	}
	.loc	1 12 17
	{
		mov r0, r4
		mov r1, r5
	}
	bl __muldf3
	{
		ldc r2, 0
		nop
	}
	ldw r3, cp[.LCPI0_5]
	bu .LBB0_9
.Ltmp27:
.LBB0_7:
	.loc	1 13 14
	{
		mov r0, r6
		mov r1, r4
	}
	bl __lesf2
	{
		mkmsk r1, 1
		nop
	}
	{
		lss r5, r0, r1
		mov r0, r6
	}
	{
		mov r1, r4
		nop
	}
	bl __unordsf2
	{
		eq r0, r0, 0
		nop
	}
	{
		eq r0, r0, 0
		nop
	}
.Ltmp28:
	{
		or r0, r0, r5
		mov r7, r9
	}
.Ltmp29:
	bt r0, .LBB0_10
.Ltmp30:
	.loc	1 13 22
	{
		mkmsk r0, r7
		nop
	}
	.loc	1 13 22
	bl __floatsidf
	{
		mov r4, r0
		mov r5, r1
	}
	.loc	1 13 22
	{
		mov r0, r6
		nop
	}
	bl __extendsfdf2
	{
		mov r2, r0
		mov r3, r1
	}
	.loc	1 13 22
	{
		mov r0, r4
		mov r1, r5
	}
	bl __muldf3
.Ltmp31:
	{
		ldc r2, 0
		nop
	}
	ldw r3, cp[.LCPI0_4]
.Ltmp32:
.LBB0_9:
	.loc	1 13 22
	bl __adddf3
	.loc	1 13 22
	bl __fixdfsi
	{
		mov r4, r0
		nop
	}
.Ltmp33:
.LBB0_10:
	.loc	1 40 20
	{
		ldc r4, 0
		stw r4, r8[1]
	}
	.loc	1 12 9
.Ltmp34:
	{
		mov r0, r10
		mov r1, r4
	}
	bl __gesf2
	ashr r0, r0, 32
	{
		eq r5, r0, 0
		mov r0, r10
	}
	{
		mov r1, r4
		nop
	}
	bl __unordsf2
	{
		eq r0, r0, 0
		nop
	}
	{
		eq r0, r0, 0
		nop
	}
	{
		or r0, r0, r5
		nop
	}
	bt r0, .LBB0_12
.Ltmp35:
	{
		mkmsk r0, 1
		nop
	}
	.loc	1 12 17
	{
		shl r0, r0, r7
		nop
	}
	.loc	1 12 17
	bl __floatsidf
	{
		mov r4, r0
		mov r5, r1
	}
	.loc	1 12 17
	{
		mov r0, r10
		nop
	}
	bl __extendsfdf2
	{
		mov r2, r0
		mov r3, r1
	}
	.loc	1 12 17
	{
		mov r0, r4
		mov r1, r5
	}
	bl __muldf3
	{
		ldc r2, 0
		nop
	}
	ldw r3, cp[.LCPI0_5]
	bu .LBB0_14
.Ltmp36:
.LBB0_12:
	.loc	1 13 14
	{
		mov r0, r10
		mov r1, r4
	}
	bl __lesf2
	{
		mkmsk r1, 1
		nop
	}
	{
		lss r5, r0, r1
		mov r0, r10
	}
	{
		mov r1, r4
		nop
	}
	bl __unordsf2
	{
		eq r0, r0, 0
		nop
	}
	{
		eq r0, r0, 0
		nop
	}
	{
		or r0, r0, r5
		nop
	}
	bt r0, .LBB0_15
.Ltmp37:
	.loc	1 13 22
	{
		mkmsk r0, r7
		nop
	}
	.loc	1 13 22
	bl __floatsidf
	{
		mov r4, r0
		mov r5, r1
	}
	.loc	1 13 22
	{
		mov r0, r10
		nop
	}
	bl __extendsfdf2
.Ltmp38:
	{
		mov r2, r0
		mov r3, r1
	}
	.loc	1 13 22
	{
		mov r0, r4
		mov r1, r5
	}
	bl __muldf3
	{
		ldc r2, 0
		nop
	}
	ldw r3, cp[.LCPI0_4]
.Ltmp39:
.LBB0_14:
	.loc	1 13 22
	bl __adddf3
	.loc	1 13 22
	bl __fixdfsi
	{
		mov r4, r0
		nop
	}
.Ltmp40:
.LBB0_15:
	{
		nop
		stw r4, r8[2]
	}
	{
		nop
		ldw r0, sp[5]
	}
	{
		nop
		ldw r1, sp[4]
	}
	{
		nop
		ldw r2, sp[9]
	}
	{
		nop
		ldw r3, sp[8]
	}
	.loc	1 42 20
	bl __divdf3
	.loc	1 42 20
	bl __truncdfsf2
	{
		mov r6, r0
		ldc r4, 0
	}
	.loc	1 12 9
.Ltmp41:
	{
		mov r1, r4
		nop
	}
	bl __gesf2
	ashr r0, r0, 32
	{
		eq r5, r0, 0
		mov r0, r6
	}
	{
		mov r1, r4
		nop
	}
	bl __unordsf2
	{
		eq r0, r0, 0
		nop
	}
	{
		eq r0, r0, 0
		nop
	}
	{
		or r0, r0, r5
		nop
	}
	bt r0, .LBB0_17
.Ltmp42:
	{
		mkmsk r0, 1
		nop
	}
	.loc	1 12 17
	{
		shl r0, r0, r7
		nop
	}
	.loc	1 12 17
	bl __floatsidf
	{
		mov r4, r0
		mov r5, r1
	}
	.loc	1 12 17
	{
		mov r0, r6
		nop
	}
	bl __extendsfdf2
	{
		mov r2, r0
		mov r3, r1
	}
	.loc	1 12 17
	{
		mov r0, r4
		mov r1, r5
	}
	bl __muldf3
	{
		ldc r2, 0
		nop
	}
	ldw r3, cp[.LCPI0_5]
	bu .LBB0_19
.Ltmp43:
.LBB0_17:
	.loc	1 13 14
	{
		mov r0, r6
		mov r1, r4
	}
	bl __lesf2
	{
		mkmsk r1, 1
		nop
	}
	{
		lss r5, r0, r1
		mov r0, r6
	}
	{
		mov r1, r4
		nop
	}
	bl __unordsf2
	{
		eq r0, r0, 0
		nop
	}
	{
		eq r0, r0, 0
		nop
	}
	{
		or r0, r0, r5
		nop
	}
	bt r0, .LBB0_20
.Ltmp44:
	.loc	1 13 22
	{
		mkmsk r0, r7
		nop
	}
	.loc	1 13 22
	bl __floatsidf
	{
		mov r4, r0
		mov r5, r1
	}
	.loc	1 13 22
	{
		mov r0, r6
		nop
	}
	bl __extendsfdf2
	{
		mov r2, r0
		mov r3, r1
	}
	.loc	1 13 22
	{
		mov r0, r4
		mov r1, r5
	}
	bl __muldf3
	{
		ldc r2, 0
		nop
	}
	ldw r3, cp[.LCPI0_4]
.Ltmp45:
.LBB0_19:
	.loc	1 13 22
	bl __adddf3
.Ltmp46:
	.loc	1 13 22
	bl __fixdfsi
	{
		mov r4, r0
		nop
	}
.Ltmp47:
.LBB0_20:
	{
		nop
		stw r4, r8[3]
	}
	ldw r0, cp[.LCPI0_6]
	{
		nop
		ldw r1, sp[6]
	}
	.loc	1 43 20
	xor r1, r1, r0
	{
		nop
		ldw r0, sp[7]
	}
	{
		nop
		ldw r2, sp[9]
	}
	{
		nop
		ldw r3, sp[8]
	}
	.loc	1 43 20
	bl __divdf3
	.loc	1 43 20
	bl __truncdfsf2
	{
		mov r4, r0
		ldc r5, 0
	}
	.loc	1 12 9
.Ltmp48:
	{
		mov r1, r5
		nop
	}
	bl __gesf2
	ashr r0, r0, 32
	{
		eq r6, r0, 0
		mov r0, r4
	}
	{
		mov r1, r5
		nop
	}
	bl __unordsf2
	{
		eq r0, r0, 0
		nop
	}
	{
		eq r0, r0, 0
		nop
	}
	{
		or r0, r0, r6
		nop
	}
	bt r0, .LBB0_22
.Ltmp49:
	{
		mkmsk r0, 1
		nop
	}
	.loc	1 12 17
	{
		shl r0, r0, r7
		nop
	}
	.loc	1 12 17
	bl __floatsidf
	{
		mov r5, r0
		mov r6, r1
	}
	.loc	1 12 17
	{
		mov r0, r4
		nop
	}
	bl __extendsfdf2
	{
		mov r2, r0
		mov r3, r1
	}
	.loc	1 12 17
	{
		mov r0, r5
		mov r1, r6
	}
	bl __muldf3
	{
		ldc r2, 0
		nop
	}
	ldw r3, cp[.LCPI0_5]
	bu .LBB0_24
.Ltmp50:
.LBB0_22:
	.loc	1 13 14
	{
		mov r0, r4
		mov r1, r5
	}
	bl __lesf2
	{
		mkmsk r1, 1
		nop
	}
	{
		lss r6, r0, r1
		mov r0, r4
	}
	{
		mov r1, r5
		nop
	}
	bl __unordsf2
	{
		eq r0, r0, 0
		nop
	}
	{
		eq r0, r0, 0
		nop
	}
	{
		or r0, r0, r6
		nop
	}
	bt r0, .LBB0_25
.Ltmp51:
	.loc	1 13 22
	{
		mkmsk r0, r7
		nop
	}
	.loc	1 13 22
	bl __floatsidf
	{
		mov r5, r0
		mov r6, r1
	}
	.loc	1 13 22
	{
		mov r0, r4
		nop
	}
	bl __extendsfdf2
	{
		mov r2, r0
		mov r3, r1
	}
	.loc	1 13 22
	{
		mov r0, r5
		mov r1, r6
	}
	bl __muldf3
	{
		ldc r2, 0
		nop
	}
	ldw r3, cp[.LCPI0_4]
.Ltmp52:
.LBB0_24:
	.loc	1 13 22
	bl __adddf3
	.loc	1 13 22
	bl __fixdfsi
	{
		mov r5, r0
		nop
	}
.Ltmp53:
.LBB0_25:
	{
		nop
		stw r5, r8[4]
	}
	{
		nop
		ldw r10, sp[16]
	}
	.loc	1 44 1
	ldd r9, r8, sp[7]
.Ltmp54:
	ldd r7, r6, sp[6]
	ldd r5, r4, sp[5]
	{
		nop
		retsp 18
	}
	# RETURN_REG_HOLDER
.Ltmp55:
	.cc_bottom dsp_design_biquad_notch.function
	.set	dsp_design_biquad_notch.nstackwords,((sin.nstackwords $M cos.nstackwords $M __subdf3.nstackwords $M __divdf3.nstackwords $M __truncdfsf2.nstackwords $M __gesf2.nstackwords $M __adddf3.nstackwords $M __fixdfsi.nstackwords $M __lesf2.nstackwords $M __unordsf2.nstackwords $M __floatsidf.nstackwords $M __extendsfdf2.nstackwords $M __muldf3.nstackwords) + 18)
	.globl	dsp_design_biquad_notch.nstackwords
	.set	dsp_design_biquad_notch.maxcores,cos.maxcores $M sin.maxcores $M 1
	.globl	dsp_design_biquad_notch.maxcores
	.set	dsp_design_biquad_notch.maxtimers,cos.maxtimers $M sin.maxtimers $M 0
	.globl	dsp_design_biquad_notch.maxtimers
	.set	dsp_design_biquad_notch.maxchanends,cos.maxchanends $M sin.maxchanends $M 0
	.globl	dsp_design_biquad_notch.maxchanends
.Ltmp56:
	.size	dsp_design_biquad_notch, .Ltmp56-dsp_design_biquad_notch
.Lfunc_end0:
	.file	2 "C:\\Program Files (x86)\\XMOS\\xTIMEcomposer\\Community_14.3.3\\target/include\\stdint.h"
	.cfi_endproc

	.section	.cp.rodata.cst4,"aMc",@progbits,4
	.cc_top .LCPI1_0.data,.LCPI1_0
	.align	4
	.type	.LCPI1_0,@object
	.size	.LCPI1_0, 4
.LCPI1_0:
	.long	1413754602
	.cc_bottom .LCPI1_0.data
	.cc_top .LCPI1_1.data,.LCPI1_1
	.align	4
	.type	.LCPI1_1,@object
	.size	.LCPI1_1, 4
.LCPI1_1:
	.long	1075388923
	.cc_bottom .LCPI1_1.data
	.cc_top .LCPI1_2.data,.LCPI1_2
	.align	4
	.type	.LCPI1_2,@object
	.size	.LCPI1_2, 4
.LCPI1_2:
	.long	1072693248
	.cc_bottom .LCPI1_2.data
	.cc_top .LCPI1_3.data,.LCPI1_3
	.align	4
	.type	.LCPI1_3,@object
	.size	.LCPI1_3, 4
.LCPI1_3:
	.long	1071644672
	.cc_bottom .LCPI1_3.data
	.cc_top .LCPI1_4.data,.LCPI1_4
	.align	4
	.type	.LCPI1_4,@object
	.size	.LCPI1_4, 4
.LCPI1_4:
	.long	3219128320
	.cc_bottom .LCPI1_4.data
	.cc_top .LCPI1_5.data,.LCPI1_5
	.align	4
	.type	.LCPI1_5,@object
	.size	.LCPI1_5, 4
.LCPI1_5:
	.long	2147483648
	.cc_bottom .LCPI1_5.data
	.text
	.globl	dsp_design_biquad_lowpass
	.align	4
	.type	dsp_design_biquad_lowpass,@function
	.cc_top dsp_design_biquad_lowpass.function,dsp_design_biquad_lowpass
dsp_design_biquad_lowpass:
.Lfunc_begin1:
	.loc	1 54 0
	.cfi_startproc
	.issue_mode dual
	{
		nop
		dualentsp 20
	}
.Ltmp57:
	.cfi_def_cfa_offset 80
.Ltmp58:
	.cfi_offset 15, 0
	std r5, r4, sp[6]
.Ltmp59:
	.cfi_offset 4, -32
.Ltmp60:
	.cfi_offset 5, -28
	std r7, r6, sp[7]
.Ltmp61:
	.cfi_offset 6, -24
.Ltmp62:
	.cfi_offset 7, -20
	std r9, r8, sp[8]
.Ltmp63:
	.cfi_offset 8, -16
.Ltmp64:
	.cfi_offset 9, -12
.Ltmp65:
	.cfi_offset 10, -8
	{
		mov r4, r3
		stw r10, sp[18]
	}
	{
		mov r5, r2
		nop
	}
	ldw r2, cp[.LCPI1_0]
	ldw r3, cp[.LCPI1_1]
	.loc	1 56 2 prologue_end
.Ltmp66:
	bl __muldf3
	{
		mov r6, r0
		mov r10, r1
	}
	.loc	1 57 17
	bl sin
	{
		mov r7, r0
		mov r8, r1
	}
	.loc	1 57 17
	{
		mov r0, r5
		mov r1, r4
	}
	{
		mov r2, r5
		mov r3, r4
	}
	bl __adddf3
	{
		mov r2, r0
		mov r3, r1
	}
	.loc	1 57 17
	{
		mov r0, r7
		mov r1, r8
	}
	bl __divdf3
	{
		mov r7, r0
		mov r8, r1
	}
	.loc	1 60 22
	{
		mov r0, r6
		mov r1, r10
	}
	bl cos
	{
		mov r2, r0
		mov r3, r1
	}
	{
		ldc r9, 0
		nop
	}
	ldw r4, cp[.LCPI1_2]
	.loc	1 60 22
	{
		mov r0, r9
		mov r1, r4
	}
	bl __subdf3
	ldw r5, cp[.LCPI1_3]
	.loc	1 60 22
	{
		mov r2, r9
		mov r3, r5
	}
	bl __muldf3
	{
		nop
		stw r0, sp[2]
	}
	{
		mov r0, r6
		stw r1, sp[1]
	}
	.loc	1 61 22
	{
		mov r1, r10
		nop
	}
	bl cos
	{
		mov r2, r0
		mov r3, r1
	}
	.loc	1 61 22
	{
		mov r0, r9
		mov r1, r4
	}
	bl __subdf3
	{
		nop
		stw r0, sp[4]
	}
	{
		mov r0, r6
		stw r1, sp[3]
	}
	.loc	1 62 22
	{
		mov r1, r10
		nop
	}
	bl cos
	{
		mov r2, r0
		mov r3, r1
	}
	.loc	1 62 22
	{
		mov r0, r9
		mov r1, r4
	}
	bl __subdf3
	.loc	1 62 22
	{
		mov r2, r9
		mov r3, r5
	}
	bl __muldf3
	{
		nop
		stw r0, sp[6]
	}
	{
		mov r0, r7
		stw r1, sp[5]
	}
	.loc	1 63 2
	{
		mov r1, r8
		mov r2, r9
	}
	{
		mov r3, r4
		nop
	}
	bl __adddf3
	{
		mov r2, r0
		nop
	}
	{
		mov r5, r1
		stw r2, sp[11]
	}
	.loc	1 64 21
	{
		mov r0, r6
		mov r1, r10
	}
	{
		mov r6, r2
		nop
	}
	bl cos
	.loc	1 64 21
	{
		mov r2, r0
		mov r3, r1
	}
	bl __adddf3
	{
		nop
		stw r0, sp[8]
	}
	{
		mov r0, r9
		stw r1, sp[7]
	}
	.loc	1 65 2
	{
		mov r1, r4
		mov r2, r7
	}
	{
		mov r3, r8
		nop
	}
	bl __subdf3
	{
		nop
		stw r0, sp[10]
	}
	{
		nop
		stw r1, sp[9]
	}
	{
		nop
		ldw r0, sp[2]
	}
	.loc	1 68 20
	{
		mov r2, r6
		ldw r1, sp[1]
	}
	{
		mov r3, r5
		mov r8, r5
	}
	bl __divdf3
	.loc	1 68 20
	bl __truncdfsf2
.Ltmp67:
	{
		mov r4, r0
		mov r1, r9
	}
	.loc	1 12 9
.Ltmp68:
	bl __gesf2
	ashr r0, r0, 32
	{
		eq r5, r0, 0
		mov r0, r4
	}
	{
		mov r1, r9
		nop
	}
	bl __unordsf2
	{
		eq r0, r0, 0
		nop
	}
	{
		eq r0, r0, 0
		nop
	}
	{
		or r0, r0, r5
		nop
	}
	bt r0, .LBB1_2
.Ltmp69:
	{
		mkmsk r0, 1
		ldw r7, sp[22]
	}
.Ltmp70:
	.loc	1 12 17
	{
		shl r0, r0, r7
		nop
	}
	.loc	1 12 17
	bl __floatsidf
	{
		mov r5, r0
		mov r6, r1
	}
	.loc	1 12 17
	{
		mov r0, r4
		nop
	}
	bl __extendsfdf2
	{
		mov r2, r0
		mov r3, r1
	}
	.loc	1 12 17
	{
		mov r0, r5
		mov r1, r6
	}
	bl __muldf3
	{
		ldc r2, 0
		nop
	}
	ldw r3, cp[.LCPI1_4]
	.loc	1 12 17
	bl __adddf3
	.loc	1 12 17
	bl __fixdfsi
.Ltmp71:
	{
		mov r9, r0
		mov r10, r7
	}
.Ltmp72:
	bu .LBB1_4
.LBB1_2:
.Ltmp73:
	.loc	1 13 14
	{
		mov r0, r4
		mov r1, r9
	}
	bl __lesf2
	{
		mkmsk r1, 1
		nop
	}
	{
		lss r5, r0, r1
		mov r0, r4
	}
	{
		mov r1, r9
		nop
	}
	bl __unordsf2
	{
		eq r0, r0, 0
		nop
	}
	{
		eq r0, r0, 0
		nop
	}
.Ltmp74:
	{
		or r0, r0, r5
		ldw r10, sp[22]
	}
.Ltmp75:
	bt r0, .LBB1_4
.Ltmp76:
	.loc	1 13 22
	{
		mkmsk r0, r10
		nop
	}
	.loc	1 13 22
	bl __floatsidf
	{
		mov r5, r0
		mov r6, r1
	}
	.loc	1 13 22
	{
		mov r0, r4
		nop
	}
	bl __extendsfdf2
	{
		mov r2, r0
		mov r3, r1
	}
	.loc	1 13 22
	{
		mov r0, r5
		mov r1, r6
	}
	bl __muldf3
	{
		ldc r2, 0
		nop
	}
	ldw r3, cp[.LCPI1_3]
	.loc	1 13 22
	bl __adddf3
	.loc	1 13 22
	bl __fixdfsi
	{
		mov r9, r0
		nop
	}
.Ltmp77:
.LBB1_4:
	{
		nop
		ldw r7, sp[21]
	}
.Ltmp78:
	{
		nop
		stw r9, r7[0]
	}
	{
		nop
		ldw r0, sp[4]
	}
	{
		nop
		ldw r1, sp[3]
	}
	.loc	1 69 20
	{
		mov r9, r8
		ldw r2, sp[11]
	}
	{
		mov r3, r9
		nop
	}
	bl __divdf3
	.loc	1 69 20
	bl __truncdfsf2
	{
		mov r4, r0
		ldc r5, 0
	}
	.loc	1 12 9
.Ltmp79:
	{
		mov r1, r5
		nop
	}
	bl __gesf2
	ashr r0, r0, 32
	{
		eq r6, r0, 0
		mov r0, r4
	}
	{
		mov r1, r5
		nop
	}
	bl __unordsf2
	{
		eq r0, r0, 0
		nop
	}
	{
		eq r0, r0, 0
		nop
	}
	{
		or r0, r0, r6
		nop
	}
	bt r0, .LBB1_6
.Ltmp80:
	{
		mkmsk r0, 1
		mov r8, r10
	}
.Ltmp81:
	.loc	1 12 17
	{
		shl r0, r0, r8
		nop
	}
	.loc	1 12 17
	bl __floatsidf
	{
		mov r5, r0
		mov r6, r1
	}
	.loc	1 12 17
	{
		mov r0, r4
		nop
	}
	bl __extendsfdf2
	{
		mov r2, r0
		mov r3, r1
	}
	.loc	1 12 17
	{
		mov r0, r5
		mov r1, r6
	}
	bl __muldf3
	{
		ldc r2, 0
		nop
	}
	ldw r3, cp[.LCPI1_4]
	bu .LBB1_8
.Ltmp82:
.LBB1_6:
	.loc	1 13 14
	{
		mov r0, r4
		mov r1, r5
	}
	bl __lesf2
	{
		mkmsk r1, 1
		nop
	}
	{
		lss r6, r0, r1
		mov r0, r4
	}
	{
		mov r1, r5
		nop
	}
	bl __unordsf2
	{
		eq r0, r0, 0
		nop
	}
	{
		eq r0, r0, 0
		nop
	}
.Ltmp83:
	{
		or r0, r0, r6
		mov r8, r10
	}
.Ltmp84:
	bt r0, .LBB1_9
.Ltmp85:
	.loc	1 13 22
	{
		mkmsk r0, r8
		nop
	}
	.loc	1 13 22
	bl __floatsidf
	{
		mov r5, r0
		mov r6, r1
	}
	.loc	1 13 22
	{
		mov r0, r4
		nop
	}
	bl __extendsfdf2
	{
		mov r2, r0
		mov r3, r1
	}
	.loc	1 13 22
	{
		mov r0, r5
		mov r1, r6
	}
	bl __muldf3
.Ltmp86:
	{
		ldc r2, 0
		nop
	}
	ldw r3, cp[.LCPI1_3]
.Ltmp87:
.LBB1_8:
	.loc	1 13 22
	bl __adddf3
	.loc	1 13 22
	bl __fixdfsi
	{
		mov r5, r0
		nop
	}
.Ltmp88:
.LBB1_9:
	{
		nop
		stw r5, r7[1]
	}
	{
		nop
		ldw r0, sp[6]
	}
	{
		nop
		ldw r1, sp[5]
	}
	.loc	1 70 20
	{
		mov r3, r9
		ldw r2, sp[11]
	}
	bl __divdf3
	.loc	1 70 20
	bl __truncdfsf2
	{
		mov r4, r0
		ldc r5, 0
	}
	.loc	1 12 9
.Ltmp89:
	{
		mov r1, r5
		nop
	}
	bl __gesf2
	ashr r0, r0, 32
	{
		eq r6, r0, 0
		mov r0, r4
	}
	{
		mov r1, r5
		nop
	}
	bl __unordsf2
	{
		eq r0, r0, 0
		nop
	}
	{
		eq r0, r0, 0
		nop
	}
	{
		or r0, r0, r6
		nop
	}
	bt r0, .LBB1_11
.Ltmp90:
	{
		mkmsk r0, 1
		nop
	}
	.loc	1 12 17
	{
		shl r0, r0, r8
		nop
	}
	.loc	1 12 17
	bl __floatsidf
	{
		mov r5, r0
		mov r6, r1
	}
	.loc	1 12 17
	{
		mov r0, r4
		nop
	}
	bl __extendsfdf2
	{
		mov r2, r0
		mov r3, r1
	}
	.loc	1 12 17
	{
		mov r0, r5
		mov r1, r6
	}
	bl __muldf3
	{
		ldc r2, 0
		nop
	}
	ldw r3, cp[.LCPI1_4]
	bu .LBB1_13
.Ltmp91:
.LBB1_11:
	.loc	1 13 14
	{
		mov r0, r4
		mov r1, r5
	}
	bl __lesf2
	{
		mkmsk r1, 1
		nop
	}
	{
		lss r6, r0, r1
		mov r0, r4
	}
	{
		mov r1, r5
		nop
	}
	bl __unordsf2
	{
		eq r0, r0, 0
		nop
	}
	{
		eq r0, r0, 0
		nop
	}
	{
		or r0, r0, r6
		nop
	}
	bt r0, .LBB1_14
.Ltmp92:
	.loc	1 13 22
	{
		mkmsk r0, r8
		nop
	}
	.loc	1 13 22
	bl __floatsidf
	{
		mov r5, r0
		mov r6, r1
	}
	.loc	1 13 22
	{
		mov r0, r4
		nop
	}
	bl __extendsfdf2
	{
		mov r2, r0
		mov r3, r1
	}
	.loc	1 13 22
	{
		mov r0, r5
		mov r1, r6
	}
	bl __muldf3
	{
		ldc r2, 0
		nop
	}
	ldw r3, cp[.LCPI1_3]
.Ltmp93:
.LBB1_13:
	.loc	1 13 22
	bl __adddf3
.Ltmp94:
	.loc	1 13 22
	bl __fixdfsi
	{
		mov r5, r0
		nop
	}
.Ltmp95:
.LBB1_14:
	{
		nop
		stw r5, r7[2]
	}
	{
		nop
		ldw r0, sp[8]
	}
	{
		nop
		ldw r1, sp[7]
	}
	.loc	1 71 20
	{
		mov r3, r9
		ldw r2, sp[11]
	}
	bl __divdf3
	.loc	1 71 20
	bl __truncdfsf2
	{
		mov r4, r0
		ldc r5, 0
	}
	.loc	1 12 9
.Ltmp96:
	{
		mov r1, r5
		nop
	}
	bl __gesf2
	ashr r0, r0, 32
	{
		eq r6, r0, 0
		mov r0, r4
	}
	{
		mov r1, r5
		nop
	}
	bl __unordsf2
	{
		eq r0, r0, 0
		nop
	}
	{
		eq r0, r0, 0
		nop
	}
	{
		or r0, r0, r6
		nop
	}
	bt r0, .LBB1_16
.Ltmp97:
	{
		mkmsk r0, 1
		nop
	}
	.loc	1 12 17
	{
		shl r0, r0, r8
		nop
	}
	.loc	1 12 17
	bl __floatsidf
	{
		mov r5, r0
		mov r6, r1
	}
	.loc	1 12 17
	{
		mov r0, r4
		nop
	}
	bl __extendsfdf2
	{
		mov r2, r0
		mov r3, r1
	}
	.loc	1 12 17
	{
		mov r0, r5
		mov r1, r6
	}
	bl __muldf3
	{
		ldc r2, 0
		nop
	}
	ldw r3, cp[.LCPI1_4]
	bu .LBB1_18
.Ltmp98:
.LBB1_16:
	.loc	1 13 14
	{
		mov r0, r4
		mov r1, r5
	}
	bl __lesf2
	{
		mkmsk r1, 1
		nop
	}
	{
		lss r6, r0, r1
		mov r0, r4
	}
	{
		mov r1, r5
		nop
	}
	bl __unordsf2
	{
		eq r0, r0, 0
		nop
	}
	{
		eq r0, r0, 0
		nop
	}
	{
		or r0, r0, r6
		nop
	}
	bt r0, .LBB1_19
.Ltmp99:
	.loc	1 13 22
	{
		mkmsk r0, r8
		nop
	}
	.loc	1 13 22
	bl __floatsidf
	{
		mov r5, r0
		mov r6, r1
	}
	.loc	1 13 22
	{
		mov r0, r4
		nop
	}
	bl __extendsfdf2
	{
		mov r2, r0
		mov r3, r1
	}
	.loc	1 13 22
	{
		mov r0, r5
		mov r1, r6
	}
	bl __muldf3
	{
		ldc r2, 0
		nop
	}
	ldw r3, cp[.LCPI1_3]
.Ltmp100:
.LBB1_18:
	.loc	1 13 22
	bl __adddf3
.Ltmp101:
	.loc	1 13 22
	bl __fixdfsi
	{
		mov r5, r0
		nop
	}
.Ltmp102:
.LBB1_19:
	{
		nop
		stw r5, r7[3]
	}
	ldw r0, cp[.LCPI1_5]
	{
		nop
		ldw r1, sp[9]
	}
	.loc	1 72 20
	xor r1, r1, r0
	{
		nop
		ldw r0, sp[10]
	}
	.loc	1 72 20
	{
		mov r3, r9
		ldw r2, sp[11]
	}
	bl __divdf3
	.loc	1 72 20
	bl __truncdfsf2
	{
		mov r4, r0
		ldc r5, 0
	}
	.loc	1 12 9
.Ltmp103:
	{
		mov r1, r5
		nop
	}
	bl __gesf2
	ashr r0, r0, 32
	{
		eq r6, r0, 0
		mov r0, r4
	}
	{
		mov r1, r5
		nop
	}
	bl __unordsf2
	{
		eq r0, r0, 0
		nop
	}
	{
		eq r0, r0, 0
		nop
	}
	{
		or r0, r0, r6
		nop
	}
	bt r0, .LBB1_21
.Ltmp104:
	{
		mkmsk r0, 1
		nop
	}
	.loc	1 12 17
	{
		shl r0, r0, r8
		nop
	}
	.loc	1 12 17
	bl __floatsidf
	{
		mov r5, r0
		mov r6, r1
	}
	.loc	1 12 17
	{
		mov r0, r4
		nop
	}
	bl __extendsfdf2
	{
		mov r2, r0
		mov r3, r1
	}
	.loc	1 12 17
	{
		mov r0, r5
		mov r1, r6
	}
	bl __muldf3
	{
		ldc r2, 0
		nop
	}
	ldw r3, cp[.LCPI1_4]
	bu .LBB1_23
.Ltmp105:
.LBB1_21:
	.loc	1 13 14
	{
		mov r0, r4
		mov r1, r5
	}
	bl __lesf2
	{
		mkmsk r1, 1
		nop
	}
	{
		lss r6, r0, r1
		mov r0, r4
	}
	{
		mov r1, r5
		nop
	}
	bl __unordsf2
	{
		eq r0, r0, 0
		nop
	}
	{
		eq r0, r0, 0
		nop
	}
	{
		or r0, r0, r6
		nop
	}
	bt r0, .LBB1_24
.Ltmp106:
	.loc	1 13 22
	{
		mkmsk r0, r8
		nop
	}
	.loc	1 13 22
	bl __floatsidf
	{
		mov r5, r0
		mov r6, r1
	}
	.loc	1 13 22
	{
		mov r0, r4
		nop
	}
	bl __extendsfdf2
	{
		mov r2, r0
		mov r3, r1
	}
	.loc	1 13 22
	{
		mov r0, r5
		mov r1, r6
	}
	bl __muldf3
	{
		ldc r2, 0
		nop
	}
	ldw r3, cp[.LCPI1_3]
.Ltmp107:
.LBB1_23:
	.loc	1 13 22
	bl __adddf3
	.loc	1 13 22
	bl __fixdfsi
	{
		mov r5, r0
		nop
	}
.Ltmp108:
.LBB1_24:
	{
		nop
		stw r5, r7[4]
	}
	{
		nop
		ldw r10, sp[18]
	}
	.loc	1 73 1
	ldd r9, r8, sp[8]
	ldd r7, r6, sp[7]
.Ltmp109:
	ldd r5, r4, sp[6]
	{
		nop
		retsp 20
	}
	# RETURN_REG_HOLDER
.Ltmp110:
	.cc_bottom dsp_design_biquad_lowpass.function
	.set	dsp_design_biquad_lowpass.nstackwords,((sin.nstackwords $M cos.nstackwords $M __subdf3.nstackwords $M __divdf3.nstackwords $M __truncdfsf2.nstackwords $M __gesf2.nstackwords $M __lesf2.nstackwords $M __unordsf2.nstackwords $M __floatsidf.nstackwords $M __extendsfdf2.nstackwords $M __muldf3.nstackwords $M __adddf3.nstackwords $M __fixdfsi.nstackwords) + 20)
	.globl	dsp_design_biquad_lowpass.nstackwords
	.set	dsp_design_biquad_lowpass.maxcores,cos.maxcores $M sin.maxcores $M 1
	.globl	dsp_design_biquad_lowpass.maxcores
	.set	dsp_design_biquad_lowpass.maxtimers,cos.maxtimers $M sin.maxtimers $M 0
	.globl	dsp_design_biquad_lowpass.maxtimers
	.set	dsp_design_biquad_lowpass.maxchanends,cos.maxchanends $M sin.maxchanends $M 0
	.globl	dsp_design_biquad_lowpass.maxchanends
.Ltmp111:
	.size	dsp_design_biquad_lowpass, .Ltmp111-dsp_design_biquad_lowpass
.Lfunc_end1:
	.cfi_endproc

	.section	.cp.rodata.cst4,"aMc",@progbits,4
	.cc_top .LCPI2_0.data,.LCPI2_0
	.align	4
	.type	.LCPI2_0,@object
	.size	.LCPI2_0, 4
.LCPI2_0:
	.long	1413754602
	.cc_bottom .LCPI2_0.data
	.cc_top .LCPI2_1.data,.LCPI2_1
	.align	4
	.type	.LCPI2_1,@object
	.size	.LCPI2_1, 4
.LCPI2_1:
	.long	1075388923
	.cc_bottom .LCPI2_1.data
	.cc_top .LCPI2_2.data,.LCPI2_2
	.align	4
	.type	.LCPI2_2,@object
	.size	.LCPI2_2, 4
.LCPI2_2:
	.long	1072693248
	.cc_bottom .LCPI2_2.data
	.cc_top .LCPI2_3.data,.LCPI2_3
	.align	4
	.type	.LCPI2_3,@object
	.size	.LCPI2_3, 4
.LCPI2_3:
	.long	1071644672
	.cc_bottom .LCPI2_3.data
	.cc_top .LCPI2_4.data,.LCPI2_4
	.align	4
	.type	.LCPI2_4,@object
	.size	.LCPI2_4, 4
.LCPI2_4:
	.long	2147483648
	.cc_bottom .LCPI2_4.data
	.cc_top .LCPI2_5.data,.LCPI2_5
	.align	4
	.type	.LCPI2_5,@object
	.size	.LCPI2_5, 4
.LCPI2_5:
	.long	3219128320
	.cc_bottom .LCPI2_5.data
	.text
	.globl	dsp_design_biquad_highpass
	.align	4
	.type	dsp_design_biquad_highpass,@function
	.cc_top dsp_design_biquad_highpass.function,dsp_design_biquad_highpass
dsp_design_biquad_highpass:
.Lfunc_begin2:
	.loc	1 83 0
	.cfi_startproc
	.issue_mode dual
	{
		nop
		dualentsp 20
	}
.Ltmp112:
	.cfi_def_cfa_offset 80
.Ltmp113:
	.cfi_offset 15, 0
	std r5, r4, sp[6]
.Ltmp114:
	.cfi_offset 4, -32
.Ltmp115:
	.cfi_offset 5, -28
	std r7, r6, sp[7]
.Ltmp116:
	.cfi_offset 6, -24
.Ltmp117:
	.cfi_offset 7, -20
	std r9, r8, sp[8]
.Ltmp118:
	.cfi_offset 8, -16
.Ltmp119:
	.cfi_offset 9, -12
.Ltmp120:
	.cfi_offset 10, -8
	{
		mov r4, r3
		stw r10, sp[18]
	}
	{
		mov r5, r2
		nop
	}
	ldw r2, cp[.LCPI2_0]
	ldw r3, cp[.LCPI2_1]
	.loc	1 85 2 prologue_end
.Ltmp121:
	bl __muldf3
	{
		mov r6, r0
		mov r10, r1
	}
	.loc	1 86 17
	bl sin
	{
		mov r7, r0
		mov r8, r1
	}
	.loc	1 86 17
	{
		mov r0, r5
		mov r1, r4
	}
	{
		mov r2, r5
		mov r3, r4
	}
	bl __adddf3
	{
		mov r2, r0
		mov r3, r1
	}
	.loc	1 86 17
	{
		mov r0, r7
		mov r1, r8
	}
	bl __divdf3
	{
		mov r7, r0
		mov r8, r1
	}
	.loc	1 89 22
	{
		mov r0, r6
		mov r1, r10
	}
	bl cos
	{
		ldc r9, 0
		nop
	}
	ldw r4, cp[.LCPI2_2]
	.loc	1 89 22
	{
		mov r2, r9
		mov r3, r4
	}
	bl __adddf3
	ldw r5, cp[.LCPI2_3]
	.loc	1 89 22
	{
		mov r2, r9
		mov r3, r5
	}
	bl __muldf3
	{
		nop
		stw r0, sp[2]
	}
	{
		mov r0, r6
		stw r1, sp[1]
	}
	.loc	1 90 22
	{
		mov r1, r10
		nop
	}
	bl cos
	.loc	1 90 22
	{
		mov r2, r9
		mov r3, r4
	}
	bl __adddf3
	{
		nop
		stw r0, sp[4]
	}
	ldw r0, cp[.LCPI2_4]
	.loc	1 90 22
	xor r0, r1, r0
	.loc	1 91 22
	{
		mov r0, r6
		stw r0, sp[3]
	}
	{
		mov r1, r10
		nop
	}
	bl cos
	.loc	1 91 22
	{
		mov r2, r9
		mov r3, r4
	}
	bl __adddf3
	.loc	1 91 22
	{
		mov r2, r9
		mov r3, r5
	}
	bl __muldf3
	{
		nop
		stw r0, sp[6]
	}
	{
		mov r0, r7
		stw r1, sp[5]
	}
	.loc	1 92 2
	{
		mov r1, r8
		mov r2, r9
	}
	{
		mov r3, r4
		nop
	}
	bl __adddf3
	{
		mov r2, r0
		nop
	}
	{
		mov r5, r1
		stw r2, sp[11]
	}
	.loc	1 93 21
	{
		mov r0, r6
		mov r1, r10
	}
	{
		mov r6, r2
		nop
	}
	bl cos
	.loc	1 93 21
	{
		mov r2, r0
		mov r3, r1
	}
	bl __adddf3
	{
		nop
		stw r0, sp[8]
	}
	{
		mov r0, r9
		stw r1, sp[7]
	}
	.loc	1 94 2
	{
		mov r1, r4
		mov r2, r7
	}
	{
		mov r3, r8
		nop
	}
	bl __subdf3
	{
		nop
		stw r0, sp[10]
	}
	{
		nop
		stw r1, sp[9]
	}
	{
		nop
		ldw r0, sp[2]
	}
	.loc	1 97 20
	{
		mov r2, r6
		ldw r1, sp[1]
	}
	{
		mov r3, r5
		mov r8, r5
	}
	bl __divdf3
	.loc	1 97 20
	bl __truncdfsf2
.Ltmp122:
	{
		mov r4, r0
		mov r1, r9
	}
	.loc	1 12 9
.Ltmp123:
	bl __gesf2
	ashr r0, r0, 32
	{
		eq r5, r0, 0
		mov r0, r4
	}
	{
		mov r1, r9
		nop
	}
	bl __unordsf2
	{
		eq r0, r0, 0
		nop
	}
	{
		eq r0, r0, 0
		nop
	}
	{
		or r0, r0, r5
		nop
	}
	bt r0, .LBB2_2
.Ltmp124:
	{
		mkmsk r0, 1
		ldw r7, sp[22]
	}
.Ltmp125:
	.loc	1 12 17
	{
		shl r0, r0, r7
		nop
	}
	.loc	1 12 17
	bl __floatsidf
	{
		mov r5, r0
		mov r6, r1
	}
	.loc	1 12 17
	{
		mov r0, r4
		nop
	}
	bl __extendsfdf2
	{
		mov r2, r0
		mov r3, r1
	}
	.loc	1 12 17
	{
		mov r0, r5
		mov r1, r6
	}
	bl __muldf3
	{
		ldc r2, 0
		nop
	}
	ldw r3, cp[.LCPI2_5]
	.loc	1 12 17
	bl __adddf3
	.loc	1 12 17
	bl __fixdfsi
.Ltmp126:
	{
		mov r9, r0
		mov r10, r7
	}
.Ltmp127:
	bu .LBB2_4
.LBB2_2:
.Ltmp128:
	.loc	1 13 14
	{
		mov r0, r4
		mov r1, r9
	}
	bl __lesf2
	{
		mkmsk r1, 1
		nop
	}
	{
		lss r5, r0, r1
		mov r0, r4
	}
	{
		mov r1, r9
		nop
	}
	bl __unordsf2
	{
		eq r0, r0, 0
		nop
	}
	{
		eq r0, r0, 0
		nop
	}
.Ltmp129:
	{
		or r0, r0, r5
		ldw r10, sp[22]
	}
.Ltmp130:
	bt r0, .LBB2_4
.Ltmp131:
	.loc	1 13 22
	{
		mkmsk r0, r10
		nop
	}
	.loc	1 13 22
	bl __floatsidf
	{
		mov r5, r0
		mov r6, r1
	}
	.loc	1 13 22
	{
		mov r0, r4
		nop
	}
	bl __extendsfdf2
	{
		mov r2, r0
		mov r3, r1
	}
	.loc	1 13 22
	{
		mov r0, r5
		mov r1, r6
	}
	bl __muldf3
	{
		ldc r2, 0
		nop
	}
	ldw r3, cp[.LCPI2_3]
	.loc	1 13 22
	bl __adddf3
	.loc	1 13 22
	bl __fixdfsi
	{
		mov r9, r0
		nop
	}
.Ltmp132:
.LBB2_4:
	{
		nop
		ldw r7, sp[21]
	}
.Ltmp133:
	{
		nop
		stw r9, r7[0]
	}
	{
		nop
		ldw r0, sp[4]
	}
	{
		nop
		ldw r1, sp[3]
	}
	.loc	1 98 20
	{
		mov r9, r8
		ldw r2, sp[11]
	}
	{
		mov r3, r9
		nop
	}
	bl __divdf3
	.loc	1 98 20
	bl __truncdfsf2
	{
		mov r4, r0
		ldc r5, 0
	}
	.loc	1 12 9
.Ltmp134:
	{
		mov r1, r5
		nop
	}
	bl __gesf2
	ashr r0, r0, 32
	{
		eq r6, r0, 0
		mov r0, r4
	}
	{
		mov r1, r5
		nop
	}
	bl __unordsf2
	{
		eq r0, r0, 0
		nop
	}
	{
		eq r0, r0, 0
		nop
	}
	{
		or r0, r0, r6
		nop
	}
	bt r0, .LBB2_6
.Ltmp135:
	{
		mkmsk r0, 1
		mov r8, r10
	}
.Ltmp136:
	.loc	1 12 17
	{
		shl r0, r0, r8
		nop
	}
	.loc	1 12 17
	bl __floatsidf
	{
		mov r5, r0
		mov r6, r1
	}
	.loc	1 12 17
	{
		mov r0, r4
		nop
	}
	bl __extendsfdf2
	{
		mov r2, r0
		mov r3, r1
	}
	.loc	1 12 17
	{
		mov r0, r5
		mov r1, r6
	}
	bl __muldf3
	{
		ldc r2, 0
		nop
	}
	ldw r3, cp[.LCPI2_5]
	bu .LBB2_8
.Ltmp137:
.LBB2_6:
	.loc	1 13 14
	{
		mov r0, r4
		mov r1, r5
	}
	bl __lesf2
	{
		mkmsk r1, 1
		nop
	}
	{
		lss r6, r0, r1
		mov r0, r4
	}
	{
		mov r1, r5
		nop
	}
	bl __unordsf2
	{
		eq r0, r0, 0
		nop
	}
	{
		eq r0, r0, 0
		nop
	}
.Ltmp138:
	{
		or r0, r0, r6
		mov r8, r10
	}
.Ltmp139:
	bt r0, .LBB2_9
.Ltmp140:
	.loc	1 13 22
	{
		mkmsk r0, r8
		nop
	}
	.loc	1 13 22
	bl __floatsidf
	{
		mov r5, r0
		mov r6, r1
	}
	.loc	1 13 22
	{
		mov r0, r4
		nop
	}
	bl __extendsfdf2
	{
		mov r2, r0
		mov r3, r1
	}
	.loc	1 13 22
	{
		mov r0, r5
		mov r1, r6
	}
	bl __muldf3
.Ltmp141:
	{
		ldc r2, 0
		nop
	}
	ldw r3, cp[.LCPI2_3]
.Ltmp142:
.LBB2_8:
	.loc	1 13 22
	bl __adddf3
	.loc	1 13 22
	bl __fixdfsi
	{
		mov r5, r0
		nop
	}
.Ltmp143:
.LBB2_9:
	{
		nop
		stw r5, r7[1]
	}
	{
		nop
		ldw r0, sp[6]
	}
	{
		nop
		ldw r1, sp[5]
	}
	.loc	1 99 20
	{
		mov r3, r9
		ldw r2, sp[11]
	}
	bl __divdf3
	.loc	1 99 20
	bl __truncdfsf2
	{
		mov r4, r0
		ldc r5, 0
	}
	.loc	1 12 9
.Ltmp144:
	{
		mov r1, r5
		nop
	}
	bl __gesf2
	ashr r0, r0, 32
	{
		eq r6, r0, 0
		mov r0, r4
	}
	{
		mov r1, r5
		nop
	}
	bl __unordsf2
	{
		eq r0, r0, 0
		nop
	}
	{
		eq r0, r0, 0
		nop
	}
	{
		or r0, r0, r6
		nop
	}
	bt r0, .LBB2_11
.Ltmp145:
	{
		mkmsk r0, 1
		nop
	}
	.loc	1 12 17
	{
		shl r0, r0, r8
		nop
	}
	.loc	1 12 17
	bl __floatsidf
	{
		mov r5, r0
		mov r6, r1
	}
	.loc	1 12 17
	{
		mov r0, r4
		nop
	}
	bl __extendsfdf2
	{
		mov r2, r0
		mov r3, r1
	}
	.loc	1 12 17
	{
		mov r0, r5
		mov r1, r6
	}
	bl __muldf3
	{
		ldc r2, 0
		nop
	}
	ldw r3, cp[.LCPI2_5]
	bu .LBB2_13
.Ltmp146:
.LBB2_11:
	.loc	1 13 14
	{
		mov r0, r4
		mov r1, r5
	}
	bl __lesf2
	{
		mkmsk r1, 1
		nop
	}
	{
		lss r6, r0, r1
		mov r0, r4
	}
	{
		mov r1, r5
		nop
	}
	bl __unordsf2
	{
		eq r0, r0, 0
		nop
	}
	{
		eq r0, r0, 0
		nop
	}
	{
		or r0, r0, r6
		nop
	}
	bt r0, .LBB2_14
.Ltmp147:
	.loc	1 13 22
	{
		mkmsk r0, r8
		nop
	}
	.loc	1 13 22
	bl __floatsidf
	{
		mov r5, r0
		mov r6, r1
	}
	.loc	1 13 22
	{
		mov r0, r4
		nop
	}
	bl __extendsfdf2
	{
		mov r2, r0
		mov r3, r1
	}
	.loc	1 13 22
	{
		mov r0, r5
		mov r1, r6
	}
	bl __muldf3
	{
		ldc r2, 0
		nop
	}
	ldw r3, cp[.LCPI2_3]
.Ltmp148:
.LBB2_13:
	.loc	1 13 22
	bl __adddf3
.Ltmp149:
	.loc	1 13 22
	bl __fixdfsi
	{
		mov r5, r0
		nop
	}
.Ltmp150:
.LBB2_14:
	{
		nop
		stw r5, r7[2]
	}
	{
		nop
		ldw r0, sp[8]
	}
	{
		nop
		ldw r1, sp[7]
	}
	.loc	1 100 20
	{
		mov r3, r9
		ldw r2, sp[11]
	}
	bl __divdf3
	.loc	1 100 20
	bl __truncdfsf2
	{
		mov r4, r0
		ldc r5, 0
	}
	.loc	1 12 9
.Ltmp151:
	{
		mov r1, r5
		nop
	}
	bl __gesf2
	ashr r0, r0, 32
	{
		eq r6, r0, 0
		mov r0, r4
	}
	{
		mov r1, r5
		nop
	}
	bl __unordsf2
	{
		eq r0, r0, 0
		nop
	}
	{
		eq r0, r0, 0
		nop
	}
	{
		or r0, r0, r6
		nop
	}
	bt r0, .LBB2_16
.Ltmp152:
	{
		mkmsk r0, 1
		nop
	}
	.loc	1 12 17
	{
		shl r0, r0, r8
		nop
	}
	.loc	1 12 17
	bl __floatsidf
	{
		mov r5, r0
		mov r6, r1
	}
	.loc	1 12 17
	{
		mov r0, r4
		nop
	}
	bl __extendsfdf2
	{
		mov r2, r0
		mov r3, r1
	}
	.loc	1 12 17
	{
		mov r0, r5
		mov r1, r6
	}
	bl __muldf3
	{
		ldc r2, 0
		nop
	}
	ldw r3, cp[.LCPI2_5]
	bu .LBB2_18
.Ltmp153:
.LBB2_16:
	.loc	1 13 14
	{
		mov r0, r4
		mov r1, r5
	}
	bl __lesf2
	{
		mkmsk r1, 1
		nop
	}
	{
		lss r6, r0, r1
		mov r0, r4
	}
	{
		mov r1, r5
		nop
	}
	bl __unordsf2
	{
		eq r0, r0, 0
		nop
	}
	{
		eq r0, r0, 0
		nop
	}
	{
		or r0, r0, r6
		nop
	}
	bt r0, .LBB2_19
.Ltmp154:
	.loc	1 13 22
	{
		mkmsk r0, r8
		nop
	}
	.loc	1 13 22
	bl __floatsidf
	{
		mov r5, r0
		mov r6, r1
	}
	.loc	1 13 22
	{
		mov r0, r4
		nop
	}
	bl __extendsfdf2
	{
		mov r2, r0
		mov r3, r1
	}
	.loc	1 13 22
	{
		mov r0, r5
		mov r1, r6
	}
	bl __muldf3
	{
		ldc r2, 0
		nop
	}
	ldw r3, cp[.LCPI2_3]
.Ltmp155:
.LBB2_18:
	.loc	1 13 22
	bl __adddf3
.Ltmp156:
	.loc	1 13 22
	bl __fixdfsi
	{
		mov r5, r0
		nop
	}
.Ltmp157:
.LBB2_19:
	{
		nop
		stw r5, r7[3]
	}
	ldw r0, cp[.LCPI2_4]
	{
		nop
		ldw r1, sp[9]
	}
	.loc	1 101 20
	xor r1, r1, r0
	{
		nop
		ldw r0, sp[10]
	}
	.loc	1 101 20
	{
		mov r3, r9
		ldw r2, sp[11]
	}
	bl __divdf3
	.loc	1 101 20
	bl __truncdfsf2
	{
		mov r4, r0
		ldc r5, 0
	}
	.loc	1 12 9
.Ltmp158:
	{
		mov r1, r5
		nop
	}
	bl __gesf2
	ashr r0, r0, 32
	{
		eq r6, r0, 0
		mov r0, r4
	}
	{
		mov r1, r5
		nop
	}
	bl __unordsf2
	{
		eq r0, r0, 0
		nop
	}
	{
		eq r0, r0, 0
		nop
	}
	{
		or r0, r0, r6
		nop
	}
	bt r0, .LBB2_21
.Ltmp159:
	{
		mkmsk r0, 1
		nop
	}
	.loc	1 12 17
	{
		shl r0, r0, r8
		nop
	}
	.loc	1 12 17
	bl __floatsidf
	{
		mov r5, r0
		mov r6, r1
	}
	.loc	1 12 17
	{
		mov r0, r4
		nop
	}
	bl __extendsfdf2
	{
		mov r2, r0
		mov r3, r1
	}
	.loc	1 12 17
	{
		mov r0, r5
		mov r1, r6
	}
	bl __muldf3
	{
		ldc r2, 0
		nop
	}
	ldw r3, cp[.LCPI2_5]
	bu .LBB2_23
.Ltmp160:
.LBB2_21:
	.loc	1 13 14
	{
		mov r0, r4
		mov r1, r5
	}
	bl __lesf2
	{
		mkmsk r1, 1
		nop
	}
	{
		lss r6, r0, r1
		mov r0, r4
	}
	{
		mov r1, r5
		nop
	}
	bl __unordsf2
	{
		eq r0, r0, 0
		nop
	}
	{
		eq r0, r0, 0
		nop
	}
	{
		or r0, r0, r6
		nop
	}
	bt r0, .LBB2_24
.Ltmp161:
	.loc	1 13 22
	{
		mkmsk r0, r8
		nop
	}
	.loc	1 13 22
	bl __floatsidf
	{
		mov r5, r0
		mov r6, r1
	}
	.loc	1 13 22
	{
		mov r0, r4
		nop
	}
	bl __extendsfdf2
	{
		mov r2, r0
		mov r3, r1
	}
	.loc	1 13 22
	{
		mov r0, r5
		mov r1, r6
	}
	bl __muldf3
	{
		ldc r2, 0
		nop
	}
	ldw r3, cp[.LCPI2_3]
.Ltmp162:
.LBB2_23:
	.loc	1 13 22
	bl __adddf3
	.loc	1 13 22
	bl __fixdfsi
	{
		mov r5, r0
		nop
	}
.Ltmp163:
.LBB2_24:
	{
		nop
		stw r5, r7[4]
	}
	{
		nop
		ldw r10, sp[18]
	}
	.loc	1 102 1
	ldd r9, r8, sp[8]
	ldd r7, r6, sp[7]
.Ltmp164:
	ldd r5, r4, sp[6]
	{
		nop
		retsp 20
	}
	# RETURN_REG_HOLDER
.Ltmp165:
	.cc_bottom dsp_design_biquad_highpass.function
	.set	dsp_design_biquad_highpass.nstackwords,((sin.nstackwords $M cos.nstackwords $M __subdf3.nstackwords $M __divdf3.nstackwords $M __truncdfsf2.nstackwords $M __gesf2.nstackwords $M __lesf2.nstackwords $M __unordsf2.nstackwords $M __floatsidf.nstackwords $M __extendsfdf2.nstackwords $M __muldf3.nstackwords $M __adddf3.nstackwords $M __fixdfsi.nstackwords) + 20)
	.globl	dsp_design_biquad_highpass.nstackwords
	.set	dsp_design_biquad_highpass.maxcores,cos.maxcores $M sin.maxcores $M 1
	.globl	dsp_design_biquad_highpass.maxcores
	.set	dsp_design_biquad_highpass.maxtimers,cos.maxtimers $M sin.maxtimers $M 0
	.globl	dsp_design_biquad_highpass.maxtimers
	.set	dsp_design_biquad_highpass.maxchanends,cos.maxchanends $M sin.maxchanends $M 0
	.globl	dsp_design_biquad_highpass.maxchanends
.Ltmp166:
	.size	dsp_design_biquad_highpass, .Ltmp166-dsp_design_biquad_highpass
.Lfunc_end2:
	.cfi_endproc

	.section	.cp.rodata.cst4,"aMc",@progbits,4
	.cc_top .LCPI3_0.data,.LCPI3_0
	.align	4
	.type	.LCPI3_0,@object
	.size	.LCPI3_0, 4
.LCPI3_0:
	.long	1413754602
	.cc_bottom .LCPI3_0.data
	.cc_top .LCPI3_1.data,.LCPI3_1
	.align	4
	.type	.LCPI3_1,@object
	.size	.LCPI3_1, 4
.LCPI3_1:
	.long	1075388923
	.cc_bottom .LCPI3_1.data
	.cc_top .LCPI3_2.data,.LCPI3_2
	.align	4
	.type	.LCPI3_2,@object
	.size	.LCPI3_2, 4
.LCPI3_2:
	.long	1072693248
	.cc_bottom .LCPI3_2.data
	.cc_top .LCPI3_3.data,.LCPI3_3
	.align	4
	.type	.LCPI3_3,@object
	.size	.LCPI3_3, 4
.LCPI3_3:
	.long	3221225472
	.cc_bottom .LCPI3_3.data
	.cc_top .LCPI3_4.data,.LCPI3_4
	.align	4
	.type	.LCPI3_4,@object
	.size	.LCPI3_4, 4
.LCPI3_4:
	.long	1071644672
	.cc_bottom .LCPI3_4.data
	.cc_top .LCPI3_5.data,.LCPI3_5
	.align	4
	.type	.LCPI3_5,@object
	.size	.LCPI3_5, 4
.LCPI3_5:
	.long	3219128320
	.cc_bottom .LCPI3_5.data
	.cc_top .LCPI3_6.data,.LCPI3_6
	.align	4
	.type	.LCPI3_6,@object
	.size	.LCPI3_6, 4
.LCPI3_6:
	.long	2147483648
	.cc_bottom .LCPI3_6.data
	.text
	.globl	dsp_design_biquad_allpass
	.align	4
	.type	dsp_design_biquad_allpass,@function
	.cc_top dsp_design_biquad_allpass.function,dsp_design_biquad_allpass
dsp_design_biquad_allpass:
.Lfunc_begin3:
	.loc	1 112 0
	.cfi_startproc
	.issue_mode dual
	{
		nop
		dualentsp 16
	}
.Ltmp167:
	.cfi_def_cfa_offset 64
.Ltmp168:
	.cfi_offset 15, 0
	std r5, r4, sp[4]
.Ltmp169:
	.cfi_offset 4, -32
.Ltmp170:
	.cfi_offset 5, -28
	std r7, r6, sp[5]
.Ltmp171:
	.cfi_offset 6, -24
.Ltmp172:
	.cfi_offset 7, -20
	std r9, r8, sp[6]
.Ltmp173:
	.cfi_offset 8, -16
.Ltmp174:
	.cfi_offset 9, -12
.Ltmp175:
	.cfi_offset 10, -8
	{
		mov r6, r3
		stw r10, sp[14]
	}
	{
		mov r7, r2
		nop
	}
	ldw r2, cp[.LCPI3_0]
	ldw r3, cp[.LCPI3_1]
	.loc	1 114 2 prologue_end
.Ltmp176:
	bl __muldf3
	{
		mov r4, r0
		mov r5, r1
	}
	.loc	1 115 17
	bl sin
	{
		mov r8, r0
		mov r9, r1
	}
	.loc	1 115 17
	{
		mov r0, r7
		mov r1, r6
	}
	{
		mov r2, r7
		mov r3, r6
	}
	bl __adddf3
	{
		mov r2, r0
		mov r3, r1
	}
	.loc	1 115 17
	{
		mov r0, r8
		mov r1, r9
	}
	bl __divdf3
	{
		mov r6, r0
		mov r7, r1
	}
	{
		ldc r9, 0
		nop
	}
	ldw r1, cp[.LCPI3_2]
	.loc	1 118 2
	{
		mov r0, r9
		mov r2, r6
	}
	{
		mov r3, r7
		nop
	}
	bl __subdf3
	{
		mov r8, r0
		nop
	}
	{
		mov r10, r1
		stw r8, sp[7]
	}
	.loc	1 119 22
	{
		mov r0, r4
		stw r10, sp[6]
	}
	{
		mov r1, r5
		nop
	}
	bl cos
	ldw r3, cp[.LCPI3_3]
	.loc	1 119 22
	{
		mov r2, r9
		nop
	}
	bl __muldf3
	{
		nop
		stw r0, sp[3]
	}
	{
		mov r0, r6
		stw r1, sp[2]
	}
	.loc	1 120 2
	{
		mov r1, r7
		mov r2, r9
	}
	ldw r3, cp[.LCPI3_2]
	bl __adddf3
	{
		mov r6, r0
		mov r7, r1
	}
	.loc	1 122 22
	{
		mov r0, r4
		mov r1, r5
	}
	bl cos
	.loc	1 122 22
	{
		mov r2, r0
		mov r3, r1
	}
	bl __adddf3
	{
		nop
		stw r0, sp[5]
	}
	{
		mov r0, r8
		stw r1, sp[4]
	}
	.loc	1 126 20
	{
		mov r1, r10
		mov r2, r6
	}
	{
		mov r3, r7
		nop
	}
	bl __divdf3
	.loc	1 126 20
	bl __truncdfsf2
.Ltmp177:
	{
		mov r4, r0
		mov r1, r9
	}
	.loc	1 12 9
.Ltmp178:
	bl __gesf2
	ashr r0, r0, 32
	{
		eq r5, r0, 0
		mov r0, r4
	}
	{
		mov r1, r9
		nop
	}
	bl __unordsf2
	{
		eq r0, r0, 0
		nop
	}
	{
		eq r0, r0, 0
		nop
	}
	{
		or r0, r0, r5
		nop
	}
	bt r0, .LBB3_2
.Ltmp179:
	{
		mkmsk r0, 1
		ldw r1, sp[18]
	}
.Ltmp180:
	.loc	1 12 17
	{
		shl r0, r0, r1
		mov r10, r1
	}
.Ltmp181:
	.loc	1 12 17
	bl __floatsidf
	{
		mov r5, r0
		mov r8, r1
	}
	.loc	1 12 17
	{
		mov r0, r4
		nop
	}
	bl __extendsfdf2
	{
		mov r2, r0
		mov r3, r1
	}
	.loc	1 12 17
	{
		mov r0, r5
		mov r1, r8
	}
	bl __muldf3
	{
		ldc r2, 0
		nop
	}
	ldw r3, cp[.LCPI3_5]
	bu .LBB3_4
.LBB3_2:
.Ltmp182:
	{
		mov r0, r4
		ldw r10, sp[18]
	}
.Ltmp183:
	.loc	1 13 14
	{
		mov r1, r9
		nop
	}
	bl __lesf2
	{
		mkmsk r1, 1
		nop
	}
	{
		lss r5, r0, r1
		mov r0, r4
	}
	{
		mov r1, r9
		nop
	}
	bl __unordsf2
	{
		eq r0, r0, 0
		nop
	}
	{
		eq r0, r0, 0
		nop
	}
	{
		or r0, r0, r5
		nop
	}
	bt r0, .LBB3_5
.Ltmp184:
	.loc	1 13 22
	{
		mkmsk r0, r10
		nop
	}
	.loc	1 13 22
	bl __floatsidf
	{
		mov r5, r0
		mov r8, r1
	}
	.loc	1 13 22
	{
		mov r0, r4
		nop
	}
	bl __extendsfdf2
	{
		mov r2, r0
		mov r3, r1
	}
	.loc	1 13 22
	{
		mov r0, r5
		mov r1, r8
	}
	bl __muldf3
	{
		ldc r2, 0
		nop
	}
	ldw r3, cp[.LCPI3_4]
.Ltmp185:
.LBB3_4:
	.loc	1 13 22
	bl __adddf3
	.loc	1 13 22
	bl __fixdfsi
	{
		mov r9, r0
		nop
	}
.Ltmp186:
.LBB3_5:
	{
		nop
		ldw r0, sp[17]
	}
.Ltmp187:
	.loc	1 126 20
	{
		mov r9, r0
		stw r9, r0[0]
	}
.Ltmp188:
	{
		nop
		ldw r0, sp[3]
	}
	.loc	1 127 20
	{
		mov r2, r6
		ldw r1, sp[2]
	}
	{
		mov r3, r7
		nop
	}
	bl __divdf3
	.loc	1 127 20
	bl __truncdfsf2
	{
		mov r4, r0
		ldc r5, 0
	}
	.loc	1 12 9
.Ltmp189:
	{
		mov r1, r5
		nop
	}
	bl __gesf2
	ashr r0, r0, 32
	{
		eq r8, r0, 0
		mov r0, r4
	}
	{
		mov r1, r5
		nop
	}
	bl __unordsf2
	{
		eq r0, r0, 0
		nop
	}
	{
		eq r0, r0, 0
		nop
	}
	{
		or r0, r0, r8
		nop
	}
	bt r0, .LBB3_7
.Ltmp190:
	{
		mkmsk r0, 1
		nop
	}
	.loc	1 12 17
	{
		shl r0, r0, r10
		nop
	}
	.loc	1 12 17
	bl __floatsidf
	{
		mov r5, r0
		mov r8, r1
	}
	.loc	1 12 17
	{
		mov r0, r4
		nop
	}
	bl __extendsfdf2
	{
		mov r2, r0
		mov r3, r1
	}
	.loc	1 12 17
	{
		mov r0, r5
		mov r1, r8
	}
	bl __muldf3
	{
		ldc r2, 0
		nop
	}
	ldw r3, cp[.LCPI3_5]
	bu .LBB3_9
.Ltmp191:
.LBB3_7:
	.loc	1 13 14
	{
		mov r0, r4
		mov r1, r5
	}
	bl __lesf2
	{
		mkmsk r1, 1
		nop
	}
	{
		lss r8, r0, r1
		mov r0, r4
	}
	{
		mov r1, r5
		nop
	}
	bl __unordsf2
	{
		eq r0, r0, 0
		nop
	}
	{
		eq r0, r0, 0
		nop
	}
	{
		or r0, r0, r8
		nop
	}
	bt r0, .LBB3_10
.Ltmp192:
	.loc	1 13 22
	{
		mkmsk r0, r10
		nop
	}
	.loc	1 13 22
	bl __floatsidf
	{
		mov r5, r0
		mov r8, r1
	}
	.loc	1 13 22
	{
		mov r0, r4
		nop
	}
	bl __extendsfdf2
	{
		mov r2, r0
		mov r3, r1
	}
	.loc	1 13 22
	{
		mov r0, r5
		mov r1, r8
	}
	bl __muldf3
.Ltmp193:
	{
		ldc r2, 0
		nop
	}
	ldw r3, cp[.LCPI3_4]
.Ltmp194:
.LBB3_9:
	.loc	1 13 22
	bl __adddf3
	.loc	1 13 22
	bl __fixdfsi
	{
		mov r5, r0
		nop
	}
.Ltmp195:
.LBB3_10:
	.loc	1 127 20
	{
		mov r0, r6
		stw r5, r9[1]
	}
	.loc	1 128 20
	{
		mov r1, r7
		mov r2, r6
	}
	{
		mov r3, r7
		nop
	}
	bl __divdf3
	.loc	1 128 20
	bl __truncdfsf2
	{
		mov r4, r0
		ldc r5, 0
	}
	.loc	1 12 9
.Ltmp196:
	{
		mov r1, r5
		nop
	}
	bl __gesf2
	ashr r0, r0, 32
	{
		eq r8, r0, 0
		mov r0, r4
	}
	{
		mov r1, r5
		nop
	}
	bl __unordsf2
	{
		eq r0, r0, 0
		nop
	}
	{
		eq r0, r0, 0
		nop
	}
	{
		or r0, r0, r8
		nop
	}
	bt r0, .LBB3_12
.Ltmp197:
	{
		mkmsk r0, 1
		nop
	}
	.loc	1 12 17
	{
		shl r0, r0, r10
		nop
	}
	.loc	1 12 17
	bl __floatsidf
	{
		mov r5, r0
		mov r8, r1
	}
	.loc	1 12 17
	{
		mov r0, r4
		nop
	}
	bl __extendsfdf2
	{
		mov r2, r0
		mov r3, r1
	}
	.loc	1 12 17
	{
		mov r0, r5
		mov r1, r8
	}
	bl __muldf3
	{
		ldc r2, 0
		nop
	}
	ldw r3, cp[.LCPI3_5]
	bu .LBB3_14
.Ltmp198:
.LBB3_12:
	.loc	1 13 14
	{
		mov r0, r4
		mov r1, r5
	}
	bl __lesf2
	{
		mkmsk r1, 1
		nop
	}
	{
		lss r8, r0, r1
		mov r0, r4
	}
	{
		mov r1, r5
		nop
	}
	bl __unordsf2
	{
		eq r0, r0, 0
		nop
	}
	{
		eq r0, r0, 0
		nop
	}
	{
		or r0, r0, r8
		nop
	}
	bt r0, .LBB3_15
.Ltmp199:
	.loc	1 13 22
	{
		mkmsk r0, r10
		nop
	}
	.loc	1 13 22
	bl __floatsidf
	{
		mov r5, r0
		mov r8, r1
	}
	.loc	1 13 22
	{
		mov r0, r4
		nop
	}
	bl __extendsfdf2
	{
		mov r2, r0
		mov r3, r1
	}
	.loc	1 13 22
	{
		mov r0, r5
		mov r1, r8
	}
	bl __muldf3
	{
		ldc r2, 0
		nop
	}
	ldw r3, cp[.LCPI3_4]
.Ltmp200:
.LBB3_14:
	.loc	1 13 22
	bl __adddf3
.Ltmp201:
	.loc	1 13 22
	bl __fixdfsi
	{
		mov r5, r0
		nop
	}
.Ltmp202:
.LBB3_15:
	{
		nop
		stw r5, r9[2]
	}
	{
		nop
		ldw r0, sp[5]
	}
	.loc	1 129 20
	{
		mov r2, r6
		ldw r1, sp[4]
	}
	{
		mov r3, r7
		nop
	}
	bl __divdf3
	.loc	1 129 20
	bl __truncdfsf2
	{
		mov r4, r0
		ldc r5, 0
	}
	.loc	1 12 9
.Ltmp203:
	{
		mov r1, r5
		nop
	}
	bl __gesf2
	ashr r0, r0, 32
	{
		eq r8, r0, 0
		mov r0, r4
	}
	{
		mov r1, r5
		nop
	}
	bl __unordsf2
	{
		eq r0, r0, 0
		nop
	}
	{
		eq r0, r0, 0
		nop
	}
	{
		or r0, r0, r8
		nop
	}
	bt r0, .LBB3_17
.Ltmp204:
	{
		mkmsk r0, 1
		nop
	}
	.loc	1 12 17
	{
		shl r0, r0, r10
		nop
	}
	.loc	1 12 17
	bl __floatsidf
	{
		mov r5, r0
		mov r8, r1
	}
	.loc	1 12 17
	{
		mov r0, r4
		nop
	}
	bl __extendsfdf2
	{
		mov r2, r0
		mov r3, r1
	}
	.loc	1 12 17
	{
		mov r0, r5
		mov r1, r8
	}
	bl __muldf3
	{
		ldc r2, 0
		nop
	}
	ldw r3, cp[.LCPI3_5]
	bu .LBB3_19
.Ltmp205:
.LBB3_17:
	.loc	1 13 14
	{
		mov r0, r4
		mov r1, r5
	}
	bl __lesf2
	{
		mkmsk r1, 1
		nop
	}
	{
		lss r8, r0, r1
		mov r0, r4
	}
	{
		mov r1, r5
		nop
	}
	bl __unordsf2
	{
		eq r0, r0, 0
		nop
	}
	{
		eq r0, r0, 0
		nop
	}
	{
		or r0, r0, r8
		nop
	}
	bt r0, .LBB3_20
.Ltmp206:
	.loc	1 13 22
	{
		mkmsk r0, r10
		nop
	}
	.loc	1 13 22
	bl __floatsidf
	{
		mov r5, r0
		mov r8, r1
	}
	.loc	1 13 22
	{
		mov r0, r4
		nop
	}
	bl __extendsfdf2
	{
		mov r2, r0
		mov r3, r1
	}
	.loc	1 13 22
	{
		mov r0, r5
		mov r1, r8
	}
	bl __muldf3
	{
		ldc r2, 0
		nop
	}
	ldw r3, cp[.LCPI3_4]
.Ltmp207:
.LBB3_19:
	.loc	1 13 22
	bl __adddf3
.Ltmp208:
	.loc	1 13 22
	bl __fixdfsi
	{
		mov r5, r0
		nop
	}
.Ltmp209:
.LBB3_20:
	{
		nop
		stw r5, r9[3]
	}
	ldw r0, cp[.LCPI3_6]
	{
		nop
		ldw r1, sp[6]
	}
	.loc	1 130 20
	xor r1, r1, r0
	.loc	1 130 20
	{
		mov r2, r6
		ldw r0, sp[7]
	}
	{
		mov r3, r7
		nop
	}
	bl __divdf3
	.loc	1 130 20
	bl __truncdfsf2
	{
		mov r4, r0
		ldc r5, 0
	}
	.loc	1 12 9
.Ltmp210:
	{
		mov r1, r5
		nop
	}
	bl __gesf2
	ashr r0, r0, 32
	{
		eq r6, r0, 0
		mov r0, r4
	}
	{
		mov r1, r5
		nop
	}
	bl __unordsf2
	{
		eq r0, r0, 0
		nop
	}
	{
		eq r0, r0, 0
		nop
	}
	{
		or r0, r0, r6
		nop
	}
	bt r0, .LBB3_22
.Ltmp211:
	{
		mkmsk r0, 1
		nop
	}
	.loc	1 12 17
	{
		shl r0, r0, r10
		nop
	}
	.loc	1 12 17
	bl __floatsidf
	{
		mov r5, r0
		mov r6, r1
	}
	.loc	1 12 17
	{
		mov r0, r4
		nop
	}
	bl __extendsfdf2
	{
		mov r2, r0
		mov r3, r1
	}
	.loc	1 12 17
	{
		mov r0, r5
		mov r1, r6
	}
	bl __muldf3
	{
		ldc r2, 0
		nop
	}
	ldw r3, cp[.LCPI3_5]
	bu .LBB3_24
.Ltmp212:
.LBB3_22:
	.loc	1 13 14
	{
		mov r0, r4
		mov r1, r5
	}
	bl __lesf2
	{
		mkmsk r1, 1
		nop
	}
	{
		lss r6, r0, r1
		mov r0, r4
	}
	{
		mov r1, r5
		nop
	}
	bl __unordsf2
	{
		eq r0, r0, 0
		nop
	}
	{
		eq r0, r0, 0
		nop
	}
	{
		or r0, r0, r6
		nop
	}
	bt r0, .LBB3_25
.Ltmp213:
	.loc	1 13 22
	{
		mkmsk r0, r10
		nop
	}
	.loc	1 13 22
	bl __floatsidf
	{
		mov r5, r0
		mov r6, r1
	}
	.loc	1 13 22
	{
		mov r0, r4
		nop
	}
	bl __extendsfdf2
	{
		mov r2, r0
		mov r3, r1
	}
	.loc	1 13 22
	{
		mov r0, r5
		mov r1, r6
	}
	bl __muldf3
	{
		ldc r2, 0
		nop
	}
	ldw r3, cp[.LCPI3_4]
.Ltmp214:
.LBB3_24:
	.loc	1 13 22
	bl __adddf3
	.loc	1 13 22
	bl __fixdfsi
	{
		mov r5, r0
		nop
	}
.Ltmp215:
.LBB3_25:
	{
		nop
		stw r5, r9[4]
	}
	{
		nop
		ldw r10, sp[14]
	}
	.loc	1 131 1
	ldd r9, r8, sp[6]
.Ltmp216:
	ldd r7, r6, sp[5]
	ldd r5, r4, sp[4]
	{
		nop
		retsp 16
	}
	# RETURN_REG_HOLDER
.Ltmp217:
	.cc_bottom dsp_design_biquad_allpass.function
	.set	dsp_design_biquad_allpass.nstackwords,((sin.nstackwords $M __subdf3.nstackwords $M cos.nstackwords $M __divdf3.nstackwords $M __truncdfsf2.nstackwords $M __gesf2.nstackwords $M __adddf3.nstackwords $M __fixdfsi.nstackwords $M __lesf2.nstackwords $M __unordsf2.nstackwords $M __floatsidf.nstackwords $M __extendsfdf2.nstackwords $M __muldf3.nstackwords) + 16)
	.globl	dsp_design_biquad_allpass.nstackwords
	.set	dsp_design_biquad_allpass.maxcores,cos.maxcores $M sin.maxcores $M 1
	.globl	dsp_design_biquad_allpass.maxcores
	.set	dsp_design_biquad_allpass.maxtimers,cos.maxtimers $M sin.maxtimers $M 0
	.globl	dsp_design_biquad_allpass.maxtimers
	.set	dsp_design_biquad_allpass.maxchanends,cos.maxchanends $M sin.maxchanends $M 0
	.globl	dsp_design_biquad_allpass.maxchanends
.Ltmp218:
	.size	dsp_design_biquad_allpass, .Ltmp218-dsp_design_biquad_allpass
.Lfunc_end3:
	.cfi_endproc

	.section	.cp.rodata.cst4,"aMc",@progbits,4
	.cc_top .LCPI4_0.data,.LCPI4_0
	.align	4
	.type	.LCPI4_0,@object
	.size	.LCPI4_0, 4
.LCPI4_0:
	.long	1413754602
	.cc_bottom .LCPI4_0.data
	.cc_top .LCPI4_1.data,.LCPI4_1
	.align	4
	.type	.LCPI4_1,@object
	.size	.LCPI4_1, 4
.LCPI4_1:
	.long	1075388923
	.cc_bottom .LCPI4_1.data
	.cc_top .LCPI4_2.data,.LCPI4_2
	.align	4
	.type	.LCPI4_2,@object
	.size	.LCPI4_2, 4
.LCPI4_2:
	.long	4277811695
	.cc_bottom .LCPI4_2.data
	.cc_top .LCPI4_3.data,.LCPI4_3
	.align	4
	.type	.LCPI4_3,@object
	.size	.LCPI4_3, 4
.LCPI4_3:
	.long	1071001154
	.cc_bottom .LCPI4_3.data
	.cc_top .LCPI4_4.data,.LCPI4_4
	.align	4
	.type	.LCPI4_4,@object
	.size	.LCPI4_4, 4
.LCPI4_4:
	.long	1071644672
	.cc_bottom .LCPI4_4.data
	.cc_top .LCPI4_5.data,.LCPI4_5
	.align	4
	.type	.LCPI4_5,@object
	.size	.LCPI4_5, 4
.LCPI4_5:
	.long	3219128320
	.cc_bottom .LCPI4_5.data
	.cc_top .LCPI4_6.data,.LCPI4_6
	.align	4
	.type	.LCPI4_6,@object
	.size	.LCPI4_6, 4
.LCPI4_6:
	.long	1072693248
	.cc_bottom .LCPI4_6.data
	.cc_top .LCPI4_7.data,.LCPI4_7
	.align	4
	.type	.LCPI4_7,@object
	.size	.LCPI4_7, 4
.LCPI4_7:
	.long	2147483648
	.cc_bottom .LCPI4_7.data
	.text
	.globl	dsp_design_biquad_bandpass
	.align	4
	.type	dsp_design_biquad_bandpass,@function
	.cc_top dsp_design_biquad_bandpass.function,dsp_design_biquad_bandpass
dsp_design_biquad_bandpass:
.Lfunc_begin4:
	.loc	1 141 0
	.cfi_startproc
	.issue_mode dual
	{
		nop
		dualentsp 18
	}
.Ltmp219:
	.cfi_def_cfa_offset 72
.Ltmp220:
	.cfi_offset 15, 0
	std r5, r4, sp[5]
.Ltmp221:
	.cfi_offset 4, -32
.Ltmp222:
	.cfi_offset 5, -28
	std r7, r6, sp[6]
.Ltmp223:
	.cfi_offset 6, -24
.Ltmp224:
	.cfi_offset 7, -20
	std r9, r8, sp[7]
.Ltmp225:
	.cfi_offset 8, -16
.Ltmp226:
	.cfi_offset 9, -12
.Ltmp227:
	.cfi_offset 10, -8
	{
		mov r4, r3
		stw r10, sp[16]
	}
	{
		mov r5, r2
		mov r6, r1
	}
	{
		mov r7, r0
		nop
	}
	ldw r2, cp[.LCPI4_0]
	ldw r3, cp[.LCPI4_1]
	.loc	1 143 2 prologue_end
.Ltmp228:
	bl __muldf3
	{
		mov r8, r0
		mov r9, r1
	}
	.loc	1 144 2
	{
		mov r0, r5
		mov r1, r4
	}
	{
		mov r2, r7
		mov r3, r6
	}
	bl __subdf3
	{
		mov r6, r0
		mov r7, r1
	}
	.loc	1 145 17
	{
		mov r0, r8
		mov r1, r9
	}
	bl sin
	{
		mov r4, r0
		mov r5, r1
	}
	ldw r2, cp[.LCPI4_2]
	ldw r3, cp[.LCPI4_3]
	.loc	1 145 33
	{
		mov r0, r6
		mov r1, r7
	}
	bl __muldf3
	{
		mov r2, r0
		mov r3, r1
	}
	.loc	1 145 33
	{
		mov r0, r8
		mov r1, r9
	}
	bl __muldf3
	{
		mov r6, r0
		mov r7, r1
	}
	.loc	1 145 52
	{
		mov r0, r8
		mov r1, r9
	}
	bl sin
	{
		mov r2, r0
		mov r3, r1
	}
	.loc	1 145 52
	{
		mov r0, r6
		mov r1, r7
	}
	bl __divdf3
	.loc	1 145 27
	bl sinh
	{
		mov r2, r0
		mov r3, r1
	}
	.loc	1 145 27
	{
		mov r0, r4
		mov r1, r5
	}
	bl __muldf3
	{
		mov r4, r0
		mov r5, r1
	}
	.loc	1 148 15
	{
		mov r0, r8
		stw r5, sp[9]
	}
	{
		mov r1, r9
		nop
	}
	bl sin
	{
		ldc r7, 0
		nop
	}
	ldw r3, cp[.LCPI4_4]
	.loc	1 148 15
	{
		mov r2, r7
		nop
	}
	bl __muldf3
	{
		nop
		stw r0, sp[3]
	}
.Ltmp229:
	{
		mov r0, r8
		stw r1, sp[2]
	}
	.loc	1 150 15
	{
		mov r1, r9
		nop
	}
	bl sin
	ldw r3, cp[.LCPI4_5]
	.loc	1 150 15
	{
		mov r2, r7
		nop
	}
	bl __muldf3
	{
		nop
		stw r0, sp[5]
	}
	{
		nop
		stw r1, sp[4]
	}
	ldw r3, cp[.LCPI4_6]
	.loc	1 151 2
	{
		mov r0, r4
		mov r10, r4
	}
	{
		mov r1, r5
		mov r2, r7
	}
	{
		mov r6, r3
		nop
	}
	bl __adddf3
	{
		mov r5, r0
		mov r4, r1
	}
	.loc	1 152 22
	{
		mov r0, r8
		mov r1, r9
	}
	bl cos
	.loc	1 152 22
	{
		mov r2, r0
		mov r3, r1
	}
	bl __adddf3
	{
		nop
		stw r0, sp[7]
	}
	{
		mov r0, r7
		stw r1, sp[6]
	}
	.loc	1 153 2
	{
		mov r1, r6
		mov r2, r10
	}
	{
		nop
		ldw r3, sp[9]
	}
	bl __subdf3
	{
		nop
		stw r0, sp[9]
	}
	{
		nop
		stw r1, sp[8]
	}
	{
		nop
		ldw r0, sp[3]
	}
	.loc	1 156 20
	{
		mov r2, r5
		ldw r1, sp[2]
	}
	{
		mov r8, r5
		mov r3, r4
	}
	{
		mov r9, r4
		nop
	}
	bl __divdf3
	.loc	1 156 20
	bl __truncdfsf2
.Ltmp230:
	{
		mov r4, r0
		mov r1, r7
	}
	.loc	1 12 9
.Ltmp231:
	bl __gesf2
	ashr r0, r0, 32
	{
		eq r5, r0, 0
		mov r0, r4
	}
	{
		mov r1, r7
		nop
	}
	bl __unordsf2
	{
		eq r0, r0, 0
		nop
	}
	{
		eq r0, r0, 0
		nop
	}
	{
		or r0, r0, r5
		nop
	}
	bt r0, .LBB4_2
.Ltmp232:
	{
		mkmsk r0, 1
		ldw r10, sp[20]
	}
.Ltmp233:
	.loc	1 12 17
	{
		shl r0, r0, r10
		nop
	}
	.loc	1 12 17
	bl __floatsidf
	{
		mov r5, r0
		mov r6, r1
	}
	.loc	1 12 17
	{
		mov r0, r4
		nop
	}
	bl __extendsfdf2
	{
		mov r2, r0
		mov r3, r1
	}
	.loc	1 12 17
	{
		mov r0, r5
		mov r1, r6
	}
	bl __muldf3
	{
		ldc r2, 0
		nop
	}
	ldw r3, cp[.LCPI4_5]
	bu .LBB4_4
.LBB4_2:
.Ltmp234:
	.loc	1 13 14
	{
		mov r0, r4
		mov r1, r7
	}
	bl __lesf2
	{
		mkmsk r1, 1
		nop
	}
	{
		lss r5, r0, r1
		mov r0, r4
	}
	{
		mov r1, r7
		nop
	}
	bl __unordsf2
	{
		eq r0, r0, 0
		nop
	}
	{
		eq r0, r0, 0
		nop
	}
.Ltmp235:
	{
		or r0, r0, r5
		ldw r10, sp[20]
	}
.Ltmp236:
	bt r0, .LBB4_5
.Ltmp237:
	.loc	1 13 22
	{
		mkmsk r0, r10
		nop
	}
	.loc	1 13 22
	bl __floatsidf
	{
		mov r5, r0
		mov r6, r1
	}
	.loc	1 13 22
	{
		mov r0, r4
		nop
	}
	bl __extendsfdf2
	{
		mov r2, r0
		mov r3, r1
	}
	.loc	1 13 22
	{
		mov r0, r5
		mov r1, r6
	}
	bl __muldf3
	{
		ldc r2, 0
		nop
	}
	ldw r3, cp[.LCPI4_4]
.Ltmp238:
.LBB4_4:
	.loc	1 13 22
	bl __adddf3
	.loc	1 13 22
	bl __fixdfsi
	{
		mov r7, r0
		nop
	}
.Ltmp239:
.LBB4_5:
	{
		nop
		ldw r0, sp[19]
	}
.Ltmp240:
	.loc	1 156 20
	{
		mov r7, r0
		stw r7, r0[0]
	}
.Ltmp241:
	{
		ldc r6, 0
		nop
	}
	.loc	1 157 20
	{
		mov r0, r6
		mov r1, r6
	}
	{
		mov r2, r8
		mov r3, r9
	}
	bl __divdf3
	.loc	1 157 20
	bl __truncdfsf2
	{
		mov r4, r0
		mov r1, r6
	}
	.loc	1 12 9
.Ltmp242:
	bl __gesf2
	ashr r0, r0, 32
	{
		eq r5, r0, 0
		mov r0, r4
	}
	{
		mov r1, r6
		nop
	}
	bl __unordsf2
	{
		eq r0, r0, 0
		nop
	}
	{
		eq r0, r0, 0
		nop
	}
	{
		or r0, r0, r5
		nop
	}
	bt r0, .LBB4_7
.Ltmp243:
	{
		mkmsk r0, 1
		nop
	}
	.loc	1 12 17
	{
		shl r0, r0, r10
		nop
	}
	.loc	1 12 17
	bl __floatsidf
	{
		mov r5, r0
		mov r6, r1
	}
	.loc	1 12 17
	{
		mov r0, r4
		nop
	}
	bl __extendsfdf2
	{
		mov r2, r0
		mov r3, r1
	}
	.loc	1 12 17
	{
		mov r0, r5
		mov r1, r6
	}
	bl __muldf3
	{
		ldc r2, 0
		nop
	}
	ldw r3, cp[.LCPI4_5]
	bu .LBB4_9
.Ltmp244:
.LBB4_7:
	.loc	1 13 14
	{
		mov r0, r4
		mov r1, r6
	}
	bl __lesf2
	{
		mkmsk r1, 1
		nop
	}
	{
		lss r5, r0, r1
		mov r0, r4
	}
	{
		mov r1, r6
		nop
	}
	bl __unordsf2
	{
		eq r0, r0, 0
		nop
	}
	{
		eq r0, r0, 0
		nop
	}
	{
		or r0, r0, r5
		nop
	}
	bt r0, .LBB4_10
.Ltmp245:
	.loc	1 13 22
	{
		mkmsk r0, r10
		nop
	}
	.loc	1 13 22
	bl __floatsidf
	{
		mov r5, r0
		mov r6, r1
	}
	.loc	1 13 22
	{
		mov r0, r4
		nop
	}
	bl __extendsfdf2
	{
		mov r2, r0
		mov r3, r1
	}
	.loc	1 13 22
	{
		mov r0, r5
		mov r1, r6
	}
	bl __muldf3
.Ltmp246:
	{
		ldc r2, 0
		nop
	}
	ldw r3, cp[.LCPI4_4]
.Ltmp247:
.LBB4_9:
	.loc	1 13 22
	bl __adddf3
	.loc	1 13 22
	bl __fixdfsi
	{
		mov r6, r0
		nop
	}
.Ltmp248:
.LBB4_10:
	{
		nop
		stw r6, r7[1]
	}
	{
		nop
		ldw r0, sp[5]
	}
	.loc	1 158 20
	{
		mov r2, r8
		ldw r1, sp[4]
	}
	{
		mov r3, r9
		nop
	}
	bl __divdf3
	.loc	1 158 20
	bl __truncdfsf2
	{
		mov r6, r0
		ldc r4, 0
	}
	.loc	1 12 9
.Ltmp249:
	{
		mov r1, r4
		nop
	}
	bl __gesf2
	ashr r0, r0, 32
	{
		eq r5, r0, 0
		mov r0, r6
	}
	{
		mov r1, r4
		nop
	}
	bl __unordsf2
	{
		eq r0, r0, 0
		nop
	}
	{
		eq r0, r0, 0
		nop
	}
	{
		or r0, r0, r5
		nop
	}
	bt r0, .LBB4_12
.Ltmp250:
	{
		mkmsk r0, 1
		nop
	}
	.loc	1 12 17
	{
		shl r0, r0, r10
		nop
	}
	.loc	1 12 17
	bl __floatsidf
	{
		mov r4, r0
		mov r5, r1
	}
	.loc	1 12 17
	{
		mov r0, r6
		nop
	}
	bl __extendsfdf2
	{
		mov r2, r0
		mov r3, r1
	}
	.loc	1 12 17
	{
		mov r0, r4
		mov r1, r5
	}
	bl __muldf3
	{
		ldc r2, 0
		nop
	}
	ldw r3, cp[.LCPI4_5]
	bu .LBB4_14
.Ltmp251:
.LBB4_12:
	.loc	1 13 14
	{
		mov r0, r6
		mov r1, r4
	}
	bl __lesf2
	{
		mkmsk r1, 1
		nop
	}
	{
		lss r5, r0, r1
		mov r0, r6
	}
	{
		mov r1, r4
		nop
	}
	bl __unordsf2
	{
		eq r0, r0, 0
		nop
	}
	{
		eq r0, r0, 0
		nop
	}
	{
		or r0, r0, r5
		nop
	}
	bt r0, .LBB4_15
.Ltmp252:
	.loc	1 13 22
	{
		mkmsk r0, r10
		nop
	}
	.loc	1 13 22
	bl __floatsidf
	{
		mov r4, r0
		mov r5, r1
	}
	.loc	1 13 22
	{
		mov r0, r6
		nop
	}
	bl __extendsfdf2
	{
		mov r2, r0
		mov r3, r1
	}
	.loc	1 13 22
	{
		mov r0, r4
		mov r1, r5
	}
	bl __muldf3
	{
		ldc r2, 0
		nop
	}
	ldw r3, cp[.LCPI4_4]
.Ltmp253:
.LBB4_14:
	.loc	1 13 22
	bl __adddf3
.Ltmp254:
	.loc	1 13 22
	bl __fixdfsi
	{
		mov r4, r0
		nop
	}
.Ltmp255:
.LBB4_15:
	{
		nop
		stw r4, r7[2]
	}
	{
		nop
		ldw r0, sp[7]
	}
	.loc	1 159 20
	{
		mov r2, r8
		ldw r1, sp[6]
	}
	{
		mov r3, r9
		nop
	}
	bl __divdf3
	.loc	1 159 20
	bl __truncdfsf2
	{
		mov r6, r0
		ldc r4, 0
	}
	.loc	1 12 9
.Ltmp256:
	{
		mov r1, r4
		nop
	}
	bl __gesf2
	ashr r0, r0, 32
	{
		eq r5, r0, 0
		mov r0, r6
	}
	{
		mov r1, r4
		nop
	}
	bl __unordsf2
	{
		eq r0, r0, 0
		nop
	}
	{
		eq r0, r0, 0
		nop
	}
	{
		or r0, r0, r5
		nop
	}
	bt r0, .LBB4_17
.Ltmp257:
	{
		mkmsk r0, 1
		nop
	}
	.loc	1 12 17
	{
		shl r0, r0, r10
		nop
	}
	.loc	1 12 17
	bl __floatsidf
	{
		mov r4, r0
		mov r5, r1
	}
	.loc	1 12 17
	{
		mov r0, r6
		nop
	}
	bl __extendsfdf2
	{
		mov r2, r0
		mov r3, r1
	}
	.loc	1 12 17
	{
		mov r0, r4
		mov r1, r5
	}
	bl __muldf3
	{
		ldc r2, 0
		nop
	}
	ldw r3, cp[.LCPI4_5]
	bu .LBB4_19
.Ltmp258:
.LBB4_17:
	.loc	1 13 14
	{
		mov r0, r6
		mov r1, r4
	}
	bl __lesf2
	{
		mkmsk r1, 1
		nop
	}
	{
		lss r5, r0, r1
		mov r0, r6
	}
	{
		mov r1, r4
		nop
	}
	bl __unordsf2
	{
		eq r0, r0, 0
		nop
	}
	{
		eq r0, r0, 0
		nop
	}
	{
		or r0, r0, r5
		nop
	}
	bt r0, .LBB4_20
.Ltmp259:
	.loc	1 13 22
	{
		mkmsk r0, r10
		nop
	}
	.loc	1 13 22
	bl __floatsidf
	{
		mov r4, r0
		mov r5, r1
	}
	.loc	1 13 22
	{
		mov r0, r6
		nop
	}
	bl __extendsfdf2
	{
		mov r2, r0
		mov r3, r1
	}
	.loc	1 13 22
	{
		mov r0, r4
		mov r1, r5
	}
	bl __muldf3
	{
		ldc r2, 0
		nop
	}
	ldw r3, cp[.LCPI4_4]
.Ltmp260:
.LBB4_19:
	.loc	1 13 22
	bl __adddf3
.Ltmp261:
	.loc	1 13 22
	bl __fixdfsi
	{
		mov r4, r0
		nop
	}
.Ltmp262:
.LBB4_20:
	{
		nop
		stw r4, r7[3]
	}
	ldw r0, cp[.LCPI4_7]
	{
		nop
		ldw r1, sp[8]
	}
	.loc	1 160 20
	xor r1, r1, r0
	.loc	1 160 20
	{
		mov r2, r8
		ldw r0, sp[9]
	}
	{
		mov r3, r9
		nop
	}
	bl __divdf3
	.loc	1 160 20
	bl __truncdfsf2
	{
		mov r4, r0
		ldc r5, 0
	}
	.loc	1 12 9
.Ltmp263:
	{
		mov r1, r5
		nop
	}
	bl __gesf2
	ashr r0, r0, 32
	{
		eq r6, r0, 0
		mov r0, r4
	}
	{
		mov r1, r5
		nop
	}
	bl __unordsf2
	{
		eq r0, r0, 0
		nop
	}
	{
		eq r0, r0, 0
		nop
	}
	{
		or r0, r0, r6
		nop
	}
	bt r0, .LBB4_22
.Ltmp264:
	{
		mkmsk r0, 1
		nop
	}
	.loc	1 12 17
	{
		shl r0, r0, r10
		nop
	}
	.loc	1 12 17
	bl __floatsidf
	{
		mov r5, r0
		mov r6, r1
	}
	.loc	1 12 17
	{
		mov r0, r4
		nop
	}
	bl __extendsfdf2
	{
		mov r2, r0
		mov r3, r1
	}
	.loc	1 12 17
	{
		mov r0, r5
		mov r1, r6
	}
	bl __muldf3
	{
		ldc r2, 0
		nop
	}
	ldw r3, cp[.LCPI4_5]
	bu .LBB4_24
.Ltmp265:
.LBB4_22:
	.loc	1 13 14
	{
		mov r0, r4
		mov r1, r5
	}
	bl __lesf2
	{
		mkmsk r1, 1
		nop
	}
	{
		lss r6, r0, r1
		mov r0, r4
	}
	{
		mov r1, r5
		nop
	}
	bl __unordsf2
	{
		eq r0, r0, 0
		nop
	}
	{
		eq r0, r0, 0
		nop
	}
	{
		or r0, r0, r6
		nop
	}
	bt r0, .LBB4_25
.Ltmp266:
	.loc	1 13 22
	{
		mkmsk r0, r10
		nop
	}
	.loc	1 13 22
	bl __floatsidf
	{
		mov r5, r0
		mov r6, r1
	}
	.loc	1 13 22
	{
		mov r0, r4
		nop
	}
	bl __extendsfdf2
	{
		mov r2, r0
		mov r3, r1
	}
	.loc	1 13 22
	{
		mov r0, r5
		mov r1, r6
	}
	bl __muldf3
	{
		ldc r2, 0
		nop
	}
	ldw r3, cp[.LCPI4_4]
.Ltmp267:
.LBB4_24:
	.loc	1 13 22
	bl __adddf3
	.loc	1 13 22
	bl __fixdfsi
	{
		mov r5, r0
		nop
	}
.Ltmp268:
.LBB4_25:
	{
		nop
		stw r5, r7[4]
	}
	{
		nop
		ldw r10, sp[16]
	}
	.loc	1 161 1
	ldd r9, r8, sp[7]
	ldd r7, r6, sp[6]
.Ltmp269:
	ldd r5, r4, sp[5]
	{
		nop
		retsp 18
	}
	# RETURN_REG_HOLDER
.Ltmp270:
	.cc_bottom dsp_design_biquad_bandpass.function
	.set	dsp_design_biquad_bandpass.nstackwords,((sinh.nstackwords $M sin.nstackwords $M cos.nstackwords $M __subdf3.nstackwords $M __divdf3.nstackwords $M __truncdfsf2.nstackwords $M __gesf2.nstackwords $M __adddf3.nstackwords $M __fixdfsi.nstackwords $M __lesf2.nstackwords $M __unordsf2.nstackwords $M __floatsidf.nstackwords $M __extendsfdf2.nstackwords $M __muldf3.nstackwords) + 18)
	.globl	dsp_design_biquad_bandpass.nstackwords
	.set	dsp_design_biquad_bandpass.maxcores,cos.maxcores $M sin.maxcores $M sinh.maxcores $M 1
	.globl	dsp_design_biquad_bandpass.maxcores
	.set	dsp_design_biquad_bandpass.maxtimers,cos.maxtimers $M sin.maxtimers $M sinh.maxtimers $M 0
	.globl	dsp_design_biquad_bandpass.maxtimers
	.set	dsp_design_biquad_bandpass.maxchanends,cos.maxchanends $M sin.maxchanends $M sinh.maxchanends $M 0
	.globl	dsp_design_biquad_bandpass.maxchanends
.Ltmp271:
	.size	dsp_design_biquad_bandpass, .Ltmp271-dsp_design_biquad_bandpass
.Lfunc_end4:
	.cfi_endproc

	.section	.cp.rodata.cst4,"aMc",@progbits,4
	.cc_top .LCPI5_0.data,.LCPI5_0
	.align	4
	.type	.LCPI5_0,@object
	.size	.LCPI5_0, 4
.LCPI5_0:
	.long	1077149696
	.cc_bottom .LCPI5_0.data
	.cc_top .LCPI5_1.data,.LCPI5_1
	.align	4
	.type	.LCPI5_1,@object
	.size	.LCPI5_1, 4
.LCPI5_1:
	.long	1076101120
	.cc_bottom .LCPI5_1.data
	.cc_top .LCPI5_2.data,.LCPI5_2
	.align	4
	.type	.LCPI5_2,@object
	.size	.LCPI5_2, 4
.LCPI5_2:
	.long	1413754602
	.cc_bottom .LCPI5_2.data
	.cc_top .LCPI5_3.data,.LCPI5_3
	.align	4
	.type	.LCPI5_3,@object
	.size	.LCPI5_3, 4
.LCPI5_3:
	.long	1075388923
	.cc_bottom .LCPI5_3.data
	.cc_top .LCPI5_4.data,.LCPI5_4
	.align	4
	.type	.LCPI5_4,@object
	.size	.LCPI5_4, 4
.LCPI5_4:
	.long	1072693248
	.cc_bottom .LCPI5_4.data
	.cc_top .LCPI5_5.data,.LCPI5_5
	.align	4
	.type	.LCPI5_5,@object
	.size	.LCPI5_5, 4
.LCPI5_5:
	.long	3221225472
	.cc_bottom .LCPI5_5.data
	.cc_top .LCPI5_6.data,.LCPI5_6
	.align	4
	.type	.LCPI5_6,@object
	.size	.LCPI5_6, 4
.LCPI5_6:
	.long	1071644672
	.cc_bottom .LCPI5_6.data
	.cc_top .LCPI5_7.data,.LCPI5_7
	.align	4
	.type	.LCPI5_7,@object
	.size	.LCPI5_7, 4
.LCPI5_7:
	.long	3219128320
	.cc_bottom .LCPI5_7.data
	.cc_top .LCPI5_8.data,.LCPI5_8
	.align	4
	.type	.LCPI5_8,@object
	.size	.LCPI5_8, 4
.LCPI5_8:
	.long	2147483648
	.cc_bottom .LCPI5_8.data
	.text
	.globl	dsp_design_biquad_peaking
	.align	4
	.type	dsp_design_biquad_peaking,@function
	.cc_top dsp_design_biquad_peaking.function,dsp_design_biquad_peaking
dsp_design_biquad_peaking:
.Lfunc_begin5:
	.loc	1 172 0
	.cfi_startproc
	.issue_mode dual
	{
		nop
		dualentsp 20
	}
.Ltmp272:
	.cfi_def_cfa_offset 80
.Ltmp273:
	.cfi_offset 15, 0
	std r5, r4, sp[6]
.Ltmp274:
	.cfi_offset 4, -32
.Ltmp275:
	.cfi_offset 5, -28
	std r7, r6, sp[7]
.Ltmp276:
	.cfi_offset 6, -24
.Ltmp277:
	.cfi_offset 7, -20
	std r9, r8, sp[8]
.Ltmp278:
	.cfi_offset 8, -16
.Ltmp279:
	.cfi_offset 9, -12
.Ltmp280:
	.cfi_offset 10, -8
	{
		mov r8, r3
		stw r10, sp[18]
	}
	{
		mov r9, r2
		mov r4, r1
	}
	{
		mov r5, r0
		nop
	}
	ldd r0, r1, sp[11]
	{
		nop
		stw r0, sp[10]
	}
	{
		ldc r7, 0
		ldw r0, sp[21]
	}
	ldw r3, cp[.LCPI5_0]
	.loc	1 174 20 prologue_end
.Ltmp281:
	{
		mov r2, r7
		nop
	}
	bl __divdf3
	{
		mov r2, r0
		mov r3, r1
	}
	ldw r1, cp[.LCPI5_1]
	.loc	1 174 20
	{
		mov r0, r7
		nop
	}
	bl pow
	.loc	1 174 14
	bl sqrt
	{
		mov r6, r0
		nop
	}
	{
		mov r10, r1
		stw r6, sp[9]
	}
	{
		nop
		stw r10, sp[8]
	}
	ldw r2, cp[.LCPI5_2]
	ldw r3, cp[.LCPI5_3]
	.loc	1 175 2
	{
		mov r0, r5
		mov r1, r4
	}
	bl __muldf3
	{
		nop
		stw r0, sp[11]
	}
	{
		nop
		stw r1, sp[7]
	}
	.loc	1 176 17
	bl sin
	{
		mov r4, r0
		mov r5, r1
	}
	.loc	1 176 17
	{
		mov r0, r9
		mov r1, r8
	}
	{
		mov r2, r9
		mov r3, r8
	}
	bl __adddf3
	{
		mov r2, r0
		mov r3, r1
	}
	.loc	1 176 17
	{
		mov r0, r4
		mov r1, r5
	}
	bl __divdf3
	{
		mov r9, r0
		mov r8, r1
	}
	.loc	1 179 2
	{
		mov r0, r6
		mov r1, r10
	}
	{
		mov r2, r9
		mov r3, r8
	}
	bl __muldf3
	{
		mov r4, r0
		mov r5, r1
	}
	ldw r3, cp[.LCPI5_4]
	.loc	1 179 2
	{
		mov r2, r7
		mov r6, r3
	}
	bl __adddf3
	{
		nop
		stw r0, sp[2]
	}
	{
		nop
		stw r1, sp[1]
	}
	{
		nop
		ldw r0, sp[11]
	}
	{
		nop
		ldw r10, sp[7]
	}
	.loc	1 180 21
	{
		mov r1, r10
		nop
	}
	bl cos
	ldw r3, cp[.LCPI5_5]
	.loc	1 180 21
	{
		mov r2, r7
		nop
	}
	bl __muldf3
	{
		nop
		stw r0, sp[4]
	}
	{
		mov r0, r7
		stw r1, sp[3]
	}
	.loc	1 181 2
	{
		mov r1, r6
		mov r2, r4
	}
	{
		mov r3, r5
		nop
	}
	bl __subdf3
	{
		nop
		stw r0, sp[6]
	}
	{
		mov r0, r9
		stw r1, sp[5]
	}
	.loc	1 182 2
	{
		mov r1, r8
		ldw r2, sp[9]
	}
	{
		nop
		ldw r3, sp[8]
	}
	bl __divdf3
	{
		mov r8, r0
		mov r9, r1
	}
	.loc	1 182 2
	{
		mov r2, r7
		mov r3, r6
	}
	bl __adddf3
	{
		mov r4, r0
		mov r5, r1
	}
	.loc	1 183 21
	{
		mov r1, r10
		ldw r0, sp[11]
	}
	bl cos
	.loc	1 183 21
	{
		mov r2, r0
		mov r3, r1
	}
	bl __adddf3
	{
		nop
		stw r0, sp[8]
	}
	{
		mov r0, r7
		stw r1, sp[7]
	}
	.loc	1 184 2
	{
		mov r1, r6
		mov r2, r8
	}
	{
		mov r3, r9
		nop
	}
	bl __subdf3
	{
		nop
		stw r0, sp[11]
	}
	{
		nop
		stw r1, sp[9]
	}
	{
		nop
		ldw r0, sp[2]
	}
	.loc	1 187 20
	{
		mov r2, r4
		ldw r1, sp[1]
	}
	{
		mov r3, r5
		nop
	}
	bl __divdf3
	.loc	1 187 20
	bl __truncdfsf2
.Ltmp282:
	{
		mov r6, r0
		mov r1, r7
	}
	.loc	1 12 9
.Ltmp283:
	bl __gesf2
	ashr r0, r0, 32
	{
		eq r8, r0, 0
		mov r0, r6
	}
	{
		mov r1, r7
		nop
	}
	bl __unordsf2
	{
		eq r0, r0, 0
		nop
	}
	{
		eq r0, r0, 0
		nop
	}
	{
		or r0, r0, r8
		nop
	}
	bt r0, .LBB5_2
.Ltmp284:
	{
		mkmsk r0, 1
		ldw r9, sp[24]
	}
.Ltmp285:
	.loc	1 12 17
	{
		shl r0, r0, r9
		nop
	}
	.loc	1 12 17
	bl __floatsidf
	{
		mov r7, r0
		mov r8, r1
	}
	.loc	1 12 17
	{
		mov r0, r6
		nop
	}
	bl __extendsfdf2
	{
		mov r2, r0
		mov r3, r1
	}
	.loc	1 12 17
	{
		mov r0, r7
		mov r1, r8
	}
	bl __muldf3
	{
		ldc r2, 0
		nop
	}
	ldw r3, cp[.LCPI5_7]
	.loc	1 12 17
	bl __adddf3
	.loc	1 12 17
	bl __fixdfsi
.Ltmp286:
	{
		mov r7, r0
		mov r10, r9
	}
.Ltmp287:
	bu .LBB5_4
.Ltmp288:
.LBB5_2:
	.loc	1 13 14
	{
		mov r0, r6
		mov r1, r7
	}
	bl __lesf2
	{
		mkmsk r1, 1
		nop
	}
	{
		lss r8, r0, r1
		mov r0, r6
	}
	{
		mov r1, r7
		nop
	}
	bl __unordsf2
	{
		eq r0, r0, 0
		nop
	}
	{
		eq r0, r0, 0
		nop
	}
.Ltmp289:
	{
		or r0, r0, r8
		ldw r10, sp[24]
	}
.Ltmp290:
	bt r0, .LBB5_4
.Ltmp291:
	.loc	1 13 22
	{
		mkmsk r0, r10
		nop
	}
	.loc	1 13 22
	bl __floatsidf
	{
		mov r7, r0
		mov r8, r1
	}
	.loc	1 13 22
	{
		mov r0, r6
		nop
	}
	bl __extendsfdf2
	{
		mov r2, r0
		mov r3, r1
	}
	.loc	1 13 22
	{
		mov r0, r7
		mov r1, r8
	}
	bl __muldf3
	{
		ldc r2, 0
		nop
	}
	ldw r3, cp[.LCPI5_6]
	.loc	1 13 22
	bl __adddf3
	.loc	1 13 22
	bl __fixdfsi
	{
		mov r7, r0
		nop
	}
.Ltmp292:
.LBB5_4:
	{
		nop
		ldw r9, sp[10]
	}
.Ltmp293:
	{
		nop
		stw r7, r9[0]
	}
	{
		nop
		ldw r0, sp[4]
	}
	.loc	1 188 20
	{
		mov r2, r4
		ldw r1, sp[3]
	}
	{
		mov r3, r5
		nop
	}
	bl __divdf3
	.loc	1 188 20
	bl __truncdfsf2
	{
		mov r6, r0
		ldc r7, 0
	}
	.loc	1 12 9
.Ltmp294:
	{
		mov r1, r7
		nop
	}
	bl __gesf2
	ashr r0, r0, 32
	{
		eq r8, r0, 0
		mov r0, r6
	}
	{
		mov r1, r7
		nop
	}
	bl __unordsf2
	{
		eq r0, r0, 0
		nop
	}
	{
		eq r0, r0, 0
		nop
	}
	{
		or r0, r0, r8
		nop
	}
	bt r0, .LBB5_6
.Ltmp295:
	{
		mkmsk r0, 1
		nop
	}
	.loc	1 12 17
	{
		shl r0, r0, r10
		nop
	}
	.loc	1 12 17
	bl __floatsidf
	{
		mov r7, r0
		mov r8, r1
	}
	.loc	1 12 17
	{
		mov r0, r6
		nop
	}
	bl __extendsfdf2
	{
		mov r2, r0
		mov r3, r1
	}
	.loc	1 12 17
	{
		mov r0, r7
		mov r1, r8
	}
	bl __muldf3
	{
		ldc r2, 0
		nop
	}
	ldw r3, cp[.LCPI5_7]
	bu .LBB5_8
.Ltmp296:
.LBB5_6:
	.loc	1 13 14
	{
		mov r0, r6
		mov r1, r7
	}
	bl __lesf2
	{
		mkmsk r1, 1
		nop
	}
	{
		lss r8, r0, r1
		mov r0, r6
	}
	{
		mov r1, r7
		nop
	}
	bl __unordsf2
	{
		eq r0, r0, 0
		nop
	}
	{
		eq r0, r0, 0
		nop
	}
	{
		or r0, r0, r8
		nop
	}
	bt r0, .LBB5_9
.Ltmp297:
	.loc	1 13 22
	{
		mkmsk r0, r10
		nop
	}
	.loc	1 13 22
	bl __floatsidf
	{
		mov r7, r0
		mov r8, r1
	}
	.loc	1 13 22
	{
		mov r0, r6
		nop
	}
	bl __extendsfdf2
	{
		mov r2, r0
		mov r3, r1
	}
	.loc	1 13 22
	{
		mov r0, r7
		mov r1, r8
	}
	bl __muldf3
.Ltmp298:
	{
		ldc r2, 0
		nop
	}
	ldw r3, cp[.LCPI5_6]
.Ltmp299:
.LBB5_8:
	.loc	1 13 22
	bl __adddf3
	.loc	1 13 22
	bl __fixdfsi
	{
		mov r7, r0
		nop
	}
.Ltmp300:
.LBB5_9:
	{
		nop
		stw r7, r9[1]
	}
	{
		nop
		ldw r0, sp[6]
	}
	.loc	1 189 20
	{
		mov r2, r4
		ldw r1, sp[5]
	}
	{
		mov r3, r5
		nop
	}
	bl __divdf3
	.loc	1 189 20
	bl __truncdfsf2
	{
		mov r6, r0
		ldc r7, 0
	}
	.loc	1 12 9
.Ltmp301:
	{
		mov r1, r7
		nop
	}
	bl __gesf2
	ashr r0, r0, 32
	{
		eq r8, r0, 0
		mov r0, r6
	}
	{
		mov r1, r7
		nop
	}
	bl __unordsf2
	{
		eq r0, r0, 0
		nop
	}
	{
		eq r0, r0, 0
		nop
	}
	{
		or r0, r0, r8
		nop
	}
	bt r0, .LBB5_11
.Ltmp302:
	{
		mkmsk r0, 1
		nop
	}
	.loc	1 12 17
	{
		shl r0, r0, r10
		nop
	}
	.loc	1 12 17
	bl __floatsidf
	{
		mov r7, r0
		mov r8, r1
	}
	.loc	1 12 17
	{
		mov r0, r6
		nop
	}
	bl __extendsfdf2
	{
		mov r2, r0
		mov r3, r1
	}
	.loc	1 12 17
	{
		mov r0, r7
		mov r1, r8
	}
	bl __muldf3
	{
		ldc r2, 0
		nop
	}
	ldw r3, cp[.LCPI5_7]
	bu .LBB5_13
.Ltmp303:
.LBB5_11:
	.loc	1 13 14
	{
		mov r0, r6
		mov r1, r7
	}
	bl __lesf2
	{
		mkmsk r1, 1
		nop
	}
	{
		lss r8, r0, r1
		mov r0, r6
	}
	{
		mov r1, r7
		nop
	}
	bl __unordsf2
	{
		eq r0, r0, 0
		nop
	}
	{
		eq r0, r0, 0
		nop
	}
	{
		or r0, r0, r8
		nop
	}
	bt r0, .LBB5_14
.Ltmp304:
	.loc	1 13 22
	{
		mkmsk r0, r10
		nop
	}
	.loc	1 13 22
	bl __floatsidf
	{
		mov r7, r0
		mov r8, r1
	}
	.loc	1 13 22
	{
		mov r0, r6
		nop
	}
	bl __extendsfdf2
	{
		mov r2, r0
		mov r3, r1
	}
	.loc	1 13 22
	{
		mov r0, r7
		mov r1, r8
	}
	bl __muldf3
	{
		ldc r2, 0
		nop
	}
	ldw r3, cp[.LCPI5_6]
.Ltmp305:
.LBB5_13:
	.loc	1 13 22
	bl __adddf3
.Ltmp306:
	.loc	1 13 22
	bl __fixdfsi
	{
		mov r7, r0
		nop
	}
.Ltmp307:
.LBB5_14:
	{
		nop
		stw r7, r9[2]
	}
	{
		nop
		ldw r0, sp[8]
	}
	.loc	1 190 20
	{
		mov r2, r4
		ldw r1, sp[7]
	}
	{
		mov r3, r5
		nop
	}
	bl __divdf3
	.loc	1 190 20
	bl __truncdfsf2
	{
		mov r6, r0
		ldc r7, 0
	}
	.loc	1 12 9
.Ltmp308:
	{
		mov r1, r7
		nop
	}
	bl __gesf2
	ashr r0, r0, 32
	{
		eq r8, r0, 0
		mov r0, r6
	}
	{
		mov r1, r7
		nop
	}
	bl __unordsf2
	{
		eq r0, r0, 0
		nop
	}
	{
		eq r0, r0, 0
		nop
	}
	{
		or r0, r0, r8
		nop
	}
	bt r0, .LBB5_16
.Ltmp309:
	{
		mkmsk r0, 1
		nop
	}
	.loc	1 12 17
	{
		shl r0, r0, r10
		nop
	}
	.loc	1 12 17
	bl __floatsidf
	{
		mov r7, r0
		mov r8, r1
	}
	.loc	1 12 17
	{
		mov r0, r6
		nop
	}
	bl __extendsfdf2
	{
		mov r2, r0
		mov r3, r1
	}
	.loc	1 12 17
	{
		mov r0, r7
		mov r1, r8
	}
	bl __muldf3
	{
		ldc r2, 0
		nop
	}
	ldw r3, cp[.LCPI5_7]
	bu .LBB5_18
.Ltmp310:
.LBB5_16:
	.loc	1 13 14
	{
		mov r0, r6
		mov r1, r7
	}
	bl __lesf2
	{
		mkmsk r1, 1
		nop
	}
	{
		lss r8, r0, r1
		mov r0, r6
	}
	{
		mov r1, r7
		nop
	}
	bl __unordsf2
	{
		eq r0, r0, 0
		nop
	}
	{
		eq r0, r0, 0
		nop
	}
	{
		or r0, r0, r8
		nop
	}
	bt r0, .LBB5_19
.Ltmp311:
	.loc	1 13 22
	{
		mkmsk r0, r10
		nop
	}
	.loc	1 13 22
	bl __floatsidf
	{
		mov r7, r0
		mov r8, r1
	}
	.loc	1 13 22
	{
		mov r0, r6
		nop
	}
	bl __extendsfdf2
	{
		mov r2, r0
		mov r3, r1
	}
	.loc	1 13 22
	{
		mov r0, r7
		mov r1, r8
	}
	bl __muldf3
	{
		ldc r2, 0
		nop
	}
	ldw r3, cp[.LCPI5_6]
.Ltmp312:
.LBB5_18:
	.loc	1 13 22
	bl __adddf3
.Ltmp313:
	.loc	1 13 22
	bl __fixdfsi
	{
		mov r7, r0
		nop
	}
.Ltmp314:
.LBB5_19:
	{
		nop
		stw r7, r9[3]
	}
	ldw r0, cp[.LCPI5_8]
	{
		nop
		ldw r1, sp[9]
	}
	.loc	1 191 20
	xor r1, r1, r0
	.loc	1 191 20
	{
		mov r2, r4
		ldw r0, sp[11]
	}
	{
		mov r3, r5
		nop
	}
	bl __divdf3
	.loc	1 191 20
	bl __truncdfsf2
	{
		mov r4, r0
		ldc r5, 0
	}
	.loc	1 12 9
.Ltmp315:
	{
		mov r1, r5
		nop
	}
	bl __gesf2
	ashr r0, r0, 32
	{
		eq r6, r0, 0
		mov r0, r4
	}
	{
		mov r1, r5
		nop
	}
	bl __unordsf2
	{
		eq r0, r0, 0
		nop
	}
	{
		eq r0, r0, 0
		nop
	}
	{
		or r0, r0, r6
		nop
	}
	bt r0, .LBB5_21
.Ltmp316:
	{
		mkmsk r0, 1
		nop
	}
	.loc	1 12 17
	{
		shl r0, r0, r10
		nop
	}
	.loc	1 12 17
	bl __floatsidf
	{
		mov r5, r0
		mov r6, r1
	}
	.loc	1 12 17
	{
		mov r0, r4
		nop
	}
	bl __extendsfdf2
	{
		mov r2, r0
		mov r3, r1
	}
	.loc	1 12 17
	{
		mov r0, r5
		mov r1, r6
	}
	bl __muldf3
	{
		ldc r2, 0
		nop
	}
	ldw r3, cp[.LCPI5_7]
	bu .LBB5_23
.Ltmp317:
.LBB5_21:
	.loc	1 13 14
	{
		mov r0, r4
		mov r1, r5
	}
	bl __lesf2
	{
		mkmsk r1, 1
		nop
	}
	{
		lss r6, r0, r1
		mov r0, r4
	}
	{
		mov r1, r5
		nop
	}
	bl __unordsf2
	{
		eq r0, r0, 0
		nop
	}
	{
		eq r0, r0, 0
		nop
	}
	{
		or r0, r0, r6
		nop
	}
	bt r0, .LBB5_24
.Ltmp318:
	.loc	1 13 22
	{
		mkmsk r0, r10
		nop
	}
	.loc	1 13 22
	bl __floatsidf
	{
		mov r5, r0
		mov r6, r1
	}
	.loc	1 13 22
	{
		mov r0, r4
		nop
	}
	bl __extendsfdf2
	{
		mov r2, r0
		mov r3, r1
	}
	.loc	1 13 22
	{
		mov r0, r5
		mov r1, r6
	}
	bl __muldf3
	{
		ldc r2, 0
		nop
	}
	ldw r3, cp[.LCPI5_6]
.Ltmp319:
.LBB5_23:
	.loc	1 13 22
	bl __adddf3
	.loc	1 13 22
	bl __fixdfsi
	{
		mov r5, r0
		nop
	}
.Ltmp320:
.LBB5_24:
	{
		nop
		stw r5, r9[4]
	}
	{
		nop
		ldw r10, sp[18]
	}
	.loc	1 192 1
	ldd r9, r8, sp[8]
.Ltmp321:
	ldd r7, r6, sp[7]
	ldd r5, r4, sp[6]
	{
		nop
		retsp 20
	}
	# RETURN_REG_HOLDER
.Ltmp322:
	.cc_bottom dsp_design_biquad_peaking.function
	.set	dsp_design_biquad_peaking.nstackwords,((pow.nstackwords $M sqrt.nstackwords $M sin.nstackwords $M cos.nstackwords $M __subdf3.nstackwords $M __divdf3.nstackwords $M __truncdfsf2.nstackwords $M __gesf2.nstackwords $M __lesf2.nstackwords $M __unordsf2.nstackwords $M __floatsidf.nstackwords $M __extendsfdf2.nstackwords $M __muldf3.nstackwords $M __adddf3.nstackwords $M __fixdfsi.nstackwords) + 20)
	.globl	dsp_design_biquad_peaking.nstackwords
	.set	dsp_design_biquad_peaking.maxcores,cos.maxcores $M pow.maxcores $M sin.maxcores $M sqrt.maxcores $M 1
	.globl	dsp_design_biquad_peaking.maxcores
	.set	dsp_design_biquad_peaking.maxtimers,cos.maxtimers $M pow.maxtimers $M sin.maxtimers $M sqrt.maxtimers $M 0
	.globl	dsp_design_biquad_peaking.maxtimers
	.set	dsp_design_biquad_peaking.maxchanends,cos.maxchanends $M pow.maxchanends $M sin.maxchanends $M sqrt.maxchanends $M 0
	.globl	dsp_design_biquad_peaking.maxchanends
.Ltmp323:
	.size	dsp_design_biquad_peaking, .Ltmp323-dsp_design_biquad_peaking
.Lfunc_end5:
	.cfi_endproc

	.section	.cp.rodata.cst4,"aMc",@progbits,4
	.cc_top .LCPI6_0.data,.LCPI6_0
	.align	4
	.type	.LCPI6_0,@object
	.size	.LCPI6_0, 4
.LCPI6_0:
	.long	1078198272
	.cc_bottom .LCPI6_0.data
	.cc_top .LCPI6_1.data,.LCPI6_1
	.align	4
	.type	.LCPI6_1,@object
	.size	.LCPI6_1, 4
.LCPI6_1:
	.long	1076101120
	.cc_bottom .LCPI6_1.data
	.cc_top .LCPI6_2.data,.LCPI6_2
	.align	4
	.type	.LCPI6_2,@object
	.size	.LCPI6_2, 4
.LCPI6_2:
	.long	1413754602
	.cc_bottom .LCPI6_2.data
	.cc_top .LCPI6_3.data,.LCPI6_3
	.align	4
	.type	.LCPI6_3,@object
	.size	.LCPI6_3, 4
.LCPI6_3:
	.long	1075388923
	.cc_bottom .LCPI6_3.data
	.cc_top .LCPI6_4.data,.LCPI6_4
	.align	4
	.type	.LCPI6_4,@object
	.size	.LCPI6_4, 4
.LCPI6_4:
	.long	1071644672
	.cc_bottom .LCPI6_4.data
	.cc_top .LCPI6_5.data,.LCPI6_5
	.align	4
	.type	.LCPI6_5,@object
	.size	.LCPI6_5, 4
.LCPI6_5:
	.long	1072693248
	.cc_bottom .LCPI6_5.data
	.cc_top .LCPI6_6.data,.LCPI6_6
	.align	4
	.type	.LCPI6_6,@object
	.size	.LCPI6_6, 4
.LCPI6_6:
	.long	3220176896
	.cc_bottom .LCPI6_6.data
	.cc_top .LCPI6_7.data,.LCPI6_7
	.align	4
	.type	.LCPI6_7,@object
	.size	.LCPI6_7, 4
.LCPI6_7:
	.long	1073741824
	.cc_bottom .LCPI6_7.data
	.cc_top .LCPI6_8.data,.LCPI6_8
	.align	4
	.type	.LCPI6_8,@object
	.size	.LCPI6_8, 4
.LCPI6_8:
	.long	3219128320
	.cc_bottom .LCPI6_8.data
	.cc_top .LCPI6_9.data,.LCPI6_9
	.align	4
	.type	.LCPI6_9,@object
	.size	.LCPI6_9, 4
.LCPI6_9:
	.long	2147483648
	.cc_bottom .LCPI6_9.data
	.text
	.globl	dsp_design_biquad_lowshelf
	.align	4
	.type	dsp_design_biquad_lowshelf,@function
	.cc_top dsp_design_biquad_lowshelf.function,dsp_design_biquad_lowshelf
dsp_design_biquad_lowshelf:
.Lfunc_begin6:
	.loc	1 203 0
	.cfi_startproc
	.issue_mode dual
	{
		nop
		dualentsp 30
	}
.Ltmp324:
	.cfi_def_cfa_offset 120
.Ltmp325:
	.cfi_offset 15, 0
	std r5, r4, sp[11]
.Ltmp326:
	.cfi_offset 4, -32
.Ltmp327:
	.cfi_offset 5, -28
	{
		nop
		stw r6, sp[24]
	}
	{
		nop
		stw r7, sp[25]
	}
.Ltmp328:
	.cfi_offset 6, -24
.Ltmp329:
	.cfi_offset 7, -20
	{
		nop
		stw r8, sp[26]
	}
	{
		nop
		stw r9, sp[27]
	}
.Ltmp330:
	.cfi_offset 8, -16
.Ltmp331:
	.cfi_offset 9, -12
	{
		nop
		stw r10, sp[28]
	}
.Ltmp332:
	.cfi_offset 10, -8
	{
		nop
		stw r3, sp[21]
	}
	{
		mov r4, r1
		stw r2, sp[19]
	}
	{
		mov r6, r0
		ldw r1, sp[32]
	}
	{
		nop
		ldw r0, sp[33]
	}
	{
		nop
		stw r0, sp[11]
	}
	{
		ldc r5, 0
		ldw r0, sp[31]
	}
	ldw r3, cp[.LCPI6_0]
	.loc	1 205 14 prologue_end
.Ltmp333:
	{
		mov r2, r5
		nop
	}
	bl __divdf3
	{
		mov r2, r0
		mov r3, r1
	}
	ldw r1, cp[.LCPI6_1]
	.loc	1 205 14
	{
		mov r0, r5
		mov r8, r5
	}
	bl pow
	{
		mov r10, r0
		nop
	}
	{
		mov r9, r1
		stw r10, sp[13]
	}
	{
		nop
		stw r9, sp[14]
	}
	ldw r2, cp[.LCPI6_2]
	ldw r3, cp[.LCPI6_3]
	.loc	1 206 2
	{
		mov r0, r6
		mov r1, r4
	}
	bl __muldf3
	{
		nop
		stw r0, sp[15]
	}
	{
		nop
		stw r1, sp[20]
	}
	.loc	1 207 17
	bl sin
	ldw r3, cp[.LCPI6_4]
	.loc	1 207 17
	{
		mov r2, r8
		nop
	}
	bl __muldf3
	{
		nop
		stw r0, sp[17]
	}
	{
		nop
		stw r1, sp[18]
	}
	ldw r1, cp[.LCPI6_5]
	.loc	1 207 29
	{
		mov r0, r8
		mov r4, r1
	}
	{
		mov r2, r10
		mov r3, r9
	}
	bl __divdf3
	{
		mov r2, r0
		mov r3, r1
	}
	.loc	1 207 29
	{
		mov r0, r10
		mov r1, r9
	}
	bl __adddf3
	{
		mov r5, r0
		mov r6, r1
	}
	.loc	1 207 29
	{
		mov r0, r8
		mov r1, r4
	}
	{
		nop
		ldw r2, sp[19]
	}
	{
		nop
		ldw r3, sp[21]
	}
	bl __divdf3
	ldw r3, cp[.LCPI6_6]
	.loc	1 207 29
	{
		mov r2, r8
		mov r7, r3
	}
	bl __adddf3
	{
		mov r2, r0
		mov r3, r1
	}
	.loc	1 207 29
	{
		mov r0, r5
		mov r1, r6
	}
	bl __muldf3
	ldw r3, cp[.LCPI6_7]
	.loc	1 207 29
	{
		mov r2, r8
		mov r6, r8
	}
	bl __adddf3
	.loc	1 207 29
	bl sqrt
	{
		mov r2, r0
		mov r3, r1
	}
	{
		nop
		ldw r0, sp[17]
	}
	{
		nop
		ldw r1, sp[18]
	}
	.loc	1 207 29
	bl __muldf3
	{
		nop
		stw r0, sp[19]
	}
	{
		mov r0, r10
		stw r1, sp[18]
	}
	.loc	1 210 2
	{
		mov r1, r9
		mov r2, r6
	}
	{
		mov r3, r4
		nop
	}
	bl __adddf3
	{
		mov r4, r0
		nop
	}
	{
		mov r5, r1
		stw r4, sp[2]
	}
	.loc	1 210 2
	{
		mov r0, r10
		stw r5, sp[12]
	}
	{
		mov r1, r9
		mov r2, r6
	}
	{
		mov r3, r7
		nop
	}
	bl __adddf3
	{
		mov r7, r0
		nop
	}
	{
		mov r8, r1
		stw r7, sp[16]
	}
	{
		nop
		stw r8, sp[17]
	}
	{
		nop
		ldw r6, sp[15]
	}
	.loc	1 210 36
	{
		mov r0, r6
		ldw r1, sp[20]
	}
	bl cos
	{
		mov r2, r0
		mov r3, r1
	}
	.loc	1 210 36
	{
		mov r0, r7
		mov r1, r8
	}
	bl __muldf3
	{
		mov r2, r0
		mov r3, r1
	}
	.loc	1 210 36
	{
		mov r0, r4
		mov r8, r4
	}
	{
		mov r1, r5
		mov r7, r5
	}
	bl __subdf3
	{
		mov r4, r0
		mov r5, r1
	}
	.loc	1 210 48
	{
		mov r0, r10
		mov r1, r9
	}
	bl sqrt
	.loc	1 210 48
	{
		mov r2, r0
		mov r3, r1
	}
	bl __adddf3
	{
		mov r2, r0
		mov r3, r1
	}
	{
		nop
		ldw r0, sp[19]
	}
	{
		nop
		ldw r1, sp[18]
	}
	.loc	1 210 48
	bl __muldf3
	{
		mov r2, r0
		mov r3, r1
	}
	.loc	1 210 48
	{
		mov r0, r4
		mov r1, r5
	}
	bl __adddf3
	{
		mov r2, r0
		mov r3, r1
	}
	.loc	1 210 48
	{
		mov r0, r10
		mov r1, r9
	}
	bl __muldf3
	{
		nop
		stw r0, sp[4]
	}
	{
		mov r0, r10
		stw r1, sp[3]
	}
	{
		mov r1, r9
		mov r2, r0
	}
	.loc	1 211 2
	{
		mov r3, r1
		nop
	}
	bl __adddf3
	{
		mov r4, r0
		mov r5, r1
	}
	.loc	1 211 36
	{
		mov r0, r6
		mov r10, r6
	}
	{
		nop
		ldw r6, sp[20]
	}
	{
		mov r1, r6
		nop
	}
	bl cos
	{
		mov r2, r0
		mov r3, r1
	}
	.loc	1 211 36
	{
		mov r0, r8
		mov r9, r8
	}
	{
		mov r1, r7
		nop
	}
	bl __muldf3
	{
		mov r2, r0
		mov r3, r1
	}
	{
		nop
		ldw r7, sp[16]
	}
	.loc	1 211 36
	{
		mov r0, r7
		ldw r8, sp[17]
	}
	{
		mov r1, r8
		nop
	}
	bl __subdf3
	{
		mov r2, r0
		mov r3, r1
	}
	.loc	1 211 36
	{
		mov r0, r4
		mov r1, r5
	}
	bl __muldf3
	{
		nop
		stw r0, sp[6]
	}
	{
		mov r0, r10
		stw r1, sp[5]
	}
	.loc	1 212 36
	{
		mov r1, r6
		nop
	}
	bl cos
	{
		mov r2, r0
		mov r3, r1
	}
	.loc	1 212 36
	{
		mov r0, r7
		mov r1, r8
	}
	bl __muldf3
	{
		mov r2, r0
		mov r3, r1
	}
	.loc	1 212 36
	{
		mov r0, r9
		ldw r8, sp[12]
	}
	{
		mov r1, r8
		nop
	}
	bl __subdf3
	{
		mov r4, r0
		mov r5, r1
	}
	{
		nop
		ldw r0, sp[13]
	}
	{
		mov r10, r0
		ldw r9, sp[14]
	}
	.loc	1 212 48
	{
		mov r1, r9
		nop
	}
	bl sqrt
	.loc	1 212 48
	{
		mov r2, r0
		mov r3, r1
	}
	bl __adddf3
	{
		mov r2, r0
		mov r3, r1
	}
	{
		nop
		ldw r6, sp[19]
	}
	.loc	1 212 48
	{
		mov r0, r6
		ldw r7, sp[18]
	}
	{
		mov r1, r7
		nop
	}
	bl __muldf3
	{
		mov r2, r0
		mov r3, r1
	}
	.loc	1 212 48
	{
		mov r0, r4
		mov r1, r5
	}
	bl __subdf3
	{
		mov r2, r0
		mov r3, r1
	}
	.loc	1 212 48
	{
		mov r0, r10
		mov r4, r10
	}
	{
		mov r1, r9
		mov r10, r9
	}
	bl __muldf3
	{
		nop
		stw r0, sp[8]
	}
	{
		nop
		stw r1, sp[7]
	}
	{
		nop
		ldw r0, sp[15]
	}
	{
		nop
		ldw r1, sp[20]
	}
	.loc	1 213 36
	bl cos
	{
		mov r2, r0
		mov r3, r1
	}
	{
		nop
		ldw r0, sp[16]
	}
	{
		nop
		ldw r1, sp[17]
	}
	.loc	1 213 36
	bl __muldf3
	{
		mov r2, r0
		mov r3, r1
	}
	{
		nop
		ldw r9, sp[2]
	}
	.loc	1 213 36
	{
		mov r0, r9
		mov r1, r8
	}
	bl __adddf3
	{
		mov r8, r0
		mov r5, r1
	}
	.loc	1 213 48
	{
		mov r0, r4
		mov r1, r10
	}
	bl sqrt
	.loc	1 213 48
	{
		mov r2, r0
		mov r3, r1
	}
	bl __adddf3
	{
		mov r2, r0
		mov r3, r1
	}
	.loc	1 213 48
	{
		mov r0, r6
		mov r1, r7
	}
	bl __muldf3
	{
		mov r2, r0
		mov r3, r1
	}
	.loc	1 213 48
	{
		mov r0, r8
		mov r1, r5
	}
	bl __adddf3
	{
		mov r10, r1
		stw r0, sp[21]
	}
	{
		nop
		ldw r4, sp[15]
	}
	.loc	1 214 36
	{
		mov r0, r4
		ldw r5, sp[20]
	}
	{
		mov r1, r5
		nop
	}
	bl cos
	{
		mov r2, r0
		mov r3, r1
	}
	{
		mov r6, r9
		nop
	}
	.loc	1 214 36
	{
		mov r0, r6
		ldw r7, sp[12]
	}
	{
		mov r1, r7
		nop
	}
	bl __muldf3
	{
		mov r2, r0
		mov r3, r1
	}
	{
		nop
		ldw r8, sp[16]
	}
	.loc	1 214 36
	{
		mov r0, r8
		ldw r9, sp[17]
	}
	{
		mov r1, r9
		nop
	}
	bl __adddf3
	.loc	1 214 36
	{
		mov r2, r0
		mov r3, r1
	}
	bl __adddf3
	{
		nop
		stw r0, sp[10]
	}
	{
		mov r0, r4
		stw r1, sp[9]
	}
	.loc	1 215 36
	{
		mov r1, r5
		nop
	}
	bl cos
	{
		mov r2, r0
		mov r3, r1
	}
	.loc	1 215 36
	{
		mov r0, r8
		mov r1, r9
	}
	bl __muldf3
	{
		mov r2, r0
		mov r3, r1
	}
	.loc	1 215 36
	{
		mov r0, r6
		mov r1, r7
	}
	bl __adddf3
	{
		mov r4, r0
		mov r5, r1
	}
	{
		nop
		ldw r0, sp[13]
	}
	{
		nop
		ldw r1, sp[14]
	}
	.loc	1 215 48
	bl sqrt
	.loc	1 215 48
	{
		mov r2, r0
		mov r3, r1
	}
	bl __adddf3
	{
		mov r2, r0
		mov r3, r1
	}
	{
		nop
		ldw r0, sp[19]
	}
	{
		nop
		ldw r1, sp[18]
	}
	.loc	1 215 48
	bl __muldf3
	{
		mov r2, r0
		mov r3, r1
	}
	.loc	1 215 48
	{
		mov r0, r4
		mov r1, r5
	}
	bl __subdf3
	{
		nop
		stw r0, sp[20]
	}
	{
		nop
		stw r1, sp[19]
	}
	{
		nop
		ldw r0, sp[4]
	}
	{
		nop
		ldw r1, sp[3]
	}
	.loc	1 218 20
	{
		mov r3, r10
		ldw r2, sp[21]
	}
	{
		ldc r6, 0
		nop
	}
	bl __divdf3
	.loc	1 218 20
	bl __truncdfsf2
.Ltmp334:
	{
		mov r4, r0
		mov r1, r6
	}
	.loc	1 12 9
.Ltmp335:
	bl __gesf2
	ashr r0, r0, 32
	{
		eq r5, r0, 0
		mov r0, r4
	}
	{
		mov r1, r6
		nop
	}
	bl __unordsf2
	{
		eq r0, r0, 0
		nop
	}
	{
		eq r0, r0, 0
		nop
	}
	{
		or r0, r0, r5
		nop
	}
	bt r0, .LBB6_2
.Ltmp336:
	{
		mkmsk r0, 1
		ldw r7, sp[34]
	}
.Ltmp337:
	.loc	1 12 17
	{
		shl r0, r0, r7
		nop
	}
	.loc	1 12 17
	bl __floatsidf
	{
		mov r5, r0
		mov r6, r1
	}
	.loc	1 12 17
	{
		mov r0, r4
		nop
	}
	bl __extendsfdf2
	{
		mov r2, r0
		mov r3, r1
	}
	.loc	1 12 17
	{
		mov r0, r5
		mov r1, r6
	}
	bl __muldf3
	{
		ldc r2, 0
		nop
	}
	ldw r3, cp[.LCPI6_8]
	.loc	1 12 17
	bl __adddf3
	.loc	1 12 17
	bl __fixdfsi
.Ltmp338:
	{
		mov r6, r0
		mov r9, r7
	}
.Ltmp339:
	bu .LBB6_4
.Ltmp340:
.LBB6_2:
	.loc	1 13 14
	{
		mov r0, r4
		mov r1, r6
	}
	bl __lesf2
	{
		mkmsk r1, 1
		nop
	}
	{
		lss r5, r0, r1
		mov r0, r4
	}
	{
		mov r1, r6
		nop
	}
	bl __unordsf2
	{
		eq r0, r0, 0
		nop
	}
	{
		eq r0, r0, 0
		nop
	}
	{
		or r0, r0, r5
		ldw r1, sp[34]
	}
	{
		mov r9, r1
		nop
	}
.Ltmp341:
	bt r0, .LBB6_4
.Ltmp342:
	.loc	1 13 22
	{
		mkmsk r0, r9
		nop
	}
	.loc	1 13 22
	bl __floatsidf
	{
		mov r5, r0
		mov r6, r1
	}
	.loc	1 13 22
	{
		mov r0, r4
		nop
	}
	bl __extendsfdf2
	{
		mov r2, r0
		mov r3, r1
	}
	.loc	1 13 22
	{
		mov r0, r5
		mov r1, r6
	}
	bl __muldf3
	{
		ldc r2, 0
		nop
	}
	ldw r3, cp[.LCPI6_4]
	.loc	1 13 22
	bl __adddf3
	.loc	1 13 22
	bl __fixdfsi
	{
		mov r6, r0
		nop
	}
.Ltmp343:
.LBB6_4:
	{
		nop
		ldw r7, sp[11]
	}
.Ltmp344:
	{
		nop
		stw r6, r7[0]
	}
	{
		nop
		ldw r0, sp[6]
	}
	{
		nop
		ldw r1, sp[5]
	}
	.loc	1 219 20
	{
		mov r8, r10
		ldw r2, sp[21]
	}
	{
		mov r3, r8
		nop
	}
	bl __divdf3
	.loc	1 219 20
	bl __truncdfsf2
	{
		mov r4, r0
		ldc r5, 0
	}
	.loc	1 12 9
.Ltmp345:
	{
		mov r1, r5
		nop
	}
	bl __gesf2
	ashr r0, r0, 32
	{
		eq r6, r0, 0
		mov r0, r4
	}
	{
		mov r1, r5
		nop
	}
	bl __unordsf2
	{
		eq r0, r0, 0
		nop
	}
	{
		eq r0, r0, 0
		nop
	}
	{
		or r0, r0, r6
		nop
	}
	bt r0, .LBB6_6
.Ltmp346:
	{
		mkmsk r0, 1
		nop
	}
	.loc	1 12 17
	{
		shl r0, r0, r9
		nop
	}
	.loc	1 12 17
	bl __floatsidf
	{
		mov r5, r0
		mov r6, r1
	}
	.loc	1 12 17
	{
		mov r0, r4
		nop
	}
	bl __extendsfdf2
	{
		mov r2, r0
		mov r3, r1
	}
	.loc	1 12 17
	{
		mov r0, r5
		mov r1, r6
	}
	bl __muldf3
	{
		ldc r2, 0
		nop
	}
	ldw r3, cp[.LCPI6_8]
	bu .LBB6_8
.Ltmp347:
.LBB6_6:
	.loc	1 13 14
	{
		mov r0, r4
		mov r1, r5
	}
	bl __lesf2
	{
		mkmsk r1, 1
		nop
	}
	{
		lss r6, r0, r1
		mov r0, r4
	}
	{
		mov r1, r5
		nop
	}
	bl __unordsf2
	{
		eq r0, r0, 0
		nop
	}
	{
		eq r0, r0, 0
		nop
	}
	{
		or r0, r0, r6
		nop
	}
	bt r0, .LBB6_9
.Ltmp348:
	.loc	1 13 22
	{
		mkmsk r0, r9
		nop
	}
	.loc	1 13 22
	bl __floatsidf
	{
		mov r5, r0
		mov r6, r1
	}
	.loc	1 13 22
	{
		mov r0, r4
		nop
	}
	bl __extendsfdf2
	{
		mov r2, r0
		mov r3, r1
	}
	.loc	1 13 22
	{
		mov r0, r5
		mov r1, r6
	}
	bl __muldf3
.Ltmp349:
	{
		ldc r2, 0
		nop
	}
	ldw r3, cp[.LCPI6_4]
.Ltmp350:
.LBB6_8:
	.loc	1 13 22
	bl __adddf3
	.loc	1 13 22
	bl __fixdfsi
	{
		mov r5, r0
		nop
	}
.Ltmp351:
.LBB6_9:
	{
		nop
		stw r5, r7[1]
	}
	{
		nop
		ldw r0, sp[8]
	}
	{
		nop
		ldw r1, sp[7]
	}
	.loc	1 220 20
	{
		mov r3, r8
		ldw r2, sp[21]
	}
	bl __divdf3
	.loc	1 220 20
	bl __truncdfsf2
	{
		mov r4, r0
		ldc r5, 0
	}
	.loc	1 12 9
.Ltmp352:
	{
		mov r1, r5
		nop
	}
	bl __gesf2
	ashr r0, r0, 32
	{
		eq r6, r0, 0
		mov r0, r4
	}
	{
		mov r1, r5
		nop
	}
	bl __unordsf2
	{
		eq r0, r0, 0
		nop
	}
	{
		eq r0, r0, 0
		nop
	}
	{
		or r0, r0, r6
		nop
	}
	bt r0, .LBB6_11
.Ltmp353:
	{
		mkmsk r0, 1
		nop
	}
	.loc	1 12 17
	{
		shl r0, r0, r9
		nop
	}
	.loc	1 12 17
	bl __floatsidf
	{
		mov r5, r0
		mov r6, r1
	}
	.loc	1 12 17
	{
		mov r0, r4
		nop
	}
	bl __extendsfdf2
	{
		mov r2, r0
		mov r3, r1
	}
	.loc	1 12 17
	{
		mov r0, r5
		mov r1, r6
	}
	bl __muldf3
	{
		ldc r2, 0
		nop
	}
	ldw r3, cp[.LCPI6_8]
	bu .LBB6_13
.Ltmp354:
.LBB6_11:
	.loc	1 13 14
	{
		mov r0, r4
		mov r1, r5
	}
	bl __lesf2
	{
		mkmsk r1, 1
		nop
	}
	{
		lss r6, r0, r1
		mov r0, r4
	}
	{
		mov r1, r5
		nop
	}
	bl __unordsf2
	{
		eq r0, r0, 0
		nop
	}
	{
		eq r0, r0, 0
		nop
	}
	{
		or r0, r0, r6
		nop
	}
	bt r0, .LBB6_14
.Ltmp355:
	.loc	1 13 22
	{
		mkmsk r0, r9
		nop
	}
	.loc	1 13 22
	bl __floatsidf
	{
		mov r5, r0
		mov r6, r1
	}
	.loc	1 13 22
	{
		mov r0, r4
		nop
	}
	bl __extendsfdf2
	{
		mov r2, r0
		mov r3, r1
	}
	.loc	1 13 22
	{
		mov r0, r5
		mov r1, r6
	}
	bl __muldf3
	{
		ldc r2, 0
		nop
	}
	ldw r3, cp[.LCPI6_4]
.Ltmp356:
.LBB6_13:
	.loc	1 13 22
	bl __adddf3
.Ltmp357:
	.loc	1 13 22
	bl __fixdfsi
	{
		mov r5, r0
		nop
	}
.Ltmp358:
.LBB6_14:
	{
		nop
		stw r5, r7[2]
	}
	{
		nop
		ldw r0, sp[10]
	}
	{
		nop
		ldw r1, sp[9]
	}
	.loc	1 221 20
	{
		mov r3, r8
		ldw r2, sp[21]
	}
	bl __divdf3
	.loc	1 221 20
	bl __truncdfsf2
	{
		mov r4, r0
		ldc r5, 0
	}
	.loc	1 12 9
.Ltmp359:
	{
		mov r1, r5
		nop
	}
	bl __gesf2
	ashr r0, r0, 32
	{
		eq r6, r0, 0
		mov r0, r4
	}
	{
		mov r1, r5
		nop
	}
	bl __unordsf2
	{
		eq r0, r0, 0
		nop
	}
	{
		eq r0, r0, 0
		nop
	}
	{
		or r0, r0, r6
		nop
	}
	bt r0, .LBB6_16
.Ltmp360:
	{
		mkmsk r0, 1
		nop
	}
	.loc	1 12 17
	{
		shl r0, r0, r9
		nop
	}
	.loc	1 12 17
	bl __floatsidf
	{
		mov r5, r0
		mov r6, r1
	}
	.loc	1 12 17
	{
		mov r0, r4
		nop
	}
	bl __extendsfdf2
	{
		mov r2, r0
		mov r3, r1
	}
	.loc	1 12 17
	{
		mov r0, r5
		mov r1, r6
	}
	bl __muldf3
	{
		ldc r2, 0
		nop
	}
	ldw r3, cp[.LCPI6_8]
	bu .LBB6_18
.Ltmp361:
.LBB6_16:
	.loc	1 13 14
	{
		mov r0, r4
		mov r1, r5
	}
	bl __lesf2
	{
		mkmsk r1, 1
		nop
	}
	{
		lss r6, r0, r1
		mov r0, r4
	}
	{
		mov r1, r5
		nop
	}
	bl __unordsf2
	{
		eq r0, r0, 0
		nop
	}
	{
		eq r0, r0, 0
		nop
	}
	{
		or r0, r0, r6
		nop
	}
	bt r0, .LBB6_19
.Ltmp362:
	.loc	1 13 22
	{
		mkmsk r0, r9
		nop
	}
	.loc	1 13 22
	bl __floatsidf
	{
		mov r5, r0
		mov r6, r1
	}
	.loc	1 13 22
	{
		mov r0, r4
		nop
	}
	bl __extendsfdf2
	{
		mov r2, r0
		mov r3, r1
	}
	.loc	1 13 22
	{
		mov r0, r5
		mov r1, r6
	}
	bl __muldf3
	{
		ldc r2, 0
		nop
	}
	ldw r3, cp[.LCPI6_4]
.Ltmp363:
.LBB6_18:
	.loc	1 13 22
	bl __adddf3
.Ltmp364:
	.loc	1 13 22
	bl __fixdfsi
	{
		mov r5, r0
		nop
	}
.Ltmp365:
.LBB6_19:
	{
		nop
		stw r5, r7[3]
	}
	ldw r0, cp[.LCPI6_9]
	{
		nop
		ldw r1, sp[19]
	}
	.loc	1 222 20
	xor r1, r1, r0
	{
		nop
		ldw r0, sp[20]
	}
	.loc	1 222 20
	{
		mov r3, r8
		ldw r2, sp[21]
	}
	bl __divdf3
	.loc	1 222 20
	bl __truncdfsf2
	{
		mov r4, r0
		ldc r5, 0
	}
	.loc	1 12 9
.Ltmp366:
	{
		mov r1, r5
		nop
	}
	bl __gesf2
	ashr r0, r0, 32
	{
		eq r6, r0, 0
		mov r0, r4
	}
	{
		mov r1, r5
		nop
	}
	bl __unordsf2
	{
		eq r0, r0, 0
		nop
	}
	{
		eq r0, r0, 0
		nop
	}
	{
		or r0, r0, r6
		nop
	}
	bt r0, .LBB6_21
.Ltmp367:
	{
		mkmsk r0, 1
		nop
	}
	.loc	1 12 17
	{
		shl r0, r0, r9
		nop
	}
	.loc	1 12 17
	bl __floatsidf
	{
		mov r5, r0
		mov r6, r1
	}
	.loc	1 12 17
	{
		mov r0, r4
		nop
	}
	bl __extendsfdf2
	{
		mov r2, r0
		mov r3, r1
	}
	.loc	1 12 17
	{
		mov r0, r5
		mov r1, r6
	}
	bl __muldf3
	{
		ldc r2, 0
		nop
	}
	ldw r3, cp[.LCPI6_8]
	bu .LBB6_23
.Ltmp368:
.LBB6_21:
	.loc	1 13 14
	{
		mov r0, r4
		mov r1, r5
	}
	bl __lesf2
	{
		mkmsk r1, 1
		nop
	}
	{
		lss r6, r0, r1
		mov r0, r4
	}
	{
		mov r1, r5
		nop
	}
	bl __unordsf2
	{
		eq r0, r0, 0
		nop
	}
	{
		eq r0, r0, 0
		nop
	}
	{
		or r0, r0, r6
		nop
	}
	bt r0, .LBB6_24
.Ltmp369:
	.loc	1 13 22
	{
		mkmsk r0, r9
		nop
	}
	.loc	1 13 22
	bl __floatsidf
	{
		mov r5, r0
		mov r6, r1
	}
	.loc	1 13 22
	{
		mov r0, r4
		nop
	}
	bl __extendsfdf2
	{
		mov r2, r0
		mov r3, r1
	}
	.loc	1 13 22
	{
		mov r0, r5
		mov r1, r6
	}
	bl __muldf3
	{
		ldc r2, 0
		nop
	}
	ldw r3, cp[.LCPI6_4]
.Ltmp370:
.LBB6_23:
	.loc	1 13 22
	bl __adddf3
	.loc	1 13 22
	bl __fixdfsi
	{
		mov r5, r0
		nop
	}
.Ltmp371:
.LBB6_24:
	{
		nop
		stw r5, r7[4]
	}
	{
		nop
		ldw r10, sp[28]
	}
	{
		nop
		ldw r8, sp[26]
	}
	{
		nop
		ldw r9, sp[27]
	}
	{
		nop
		ldw r6, sp[24]
	}
	{
		nop
		ldw r7, sp[25]
	}
.Ltmp372:
	.loc	1 223 1
	ldd r5, r4, sp[11]
	{
		nop
		retsp 30
	}
	# RETURN_REG_HOLDER
.Ltmp373:
	.cc_bottom dsp_design_biquad_lowshelf.function
	.set	dsp_design_biquad_lowshelf.nstackwords,((pow.nstackwords $M sin.nstackwords $M cos.nstackwords $M sqrt.nstackwords $M __subdf3.nstackwords $M __divdf3.nstackwords $M __truncdfsf2.nstackwords $M __gesf2.nstackwords $M __lesf2.nstackwords $M __unordsf2.nstackwords $M __floatsidf.nstackwords $M __extendsfdf2.nstackwords $M __muldf3.nstackwords $M __adddf3.nstackwords $M __fixdfsi.nstackwords) + 30)
	.globl	dsp_design_biquad_lowshelf.nstackwords
	.set	dsp_design_biquad_lowshelf.maxcores,cos.maxcores $M pow.maxcores $M sin.maxcores $M sqrt.maxcores $M 1
	.globl	dsp_design_biquad_lowshelf.maxcores
	.set	dsp_design_biquad_lowshelf.maxtimers,cos.maxtimers $M pow.maxtimers $M sin.maxtimers $M sqrt.maxtimers $M 0
	.globl	dsp_design_biquad_lowshelf.maxtimers
	.set	dsp_design_biquad_lowshelf.maxchanends,cos.maxchanends $M pow.maxchanends $M sin.maxchanends $M sqrt.maxchanends $M 0
	.globl	dsp_design_biquad_lowshelf.maxchanends
.Ltmp374:
	.size	dsp_design_biquad_lowshelf, .Ltmp374-dsp_design_biquad_lowshelf
.Lfunc_end6:
	.cfi_endproc

	.section	.cp.rodata.cst4,"aMc",@progbits,4
	.cc_top .LCPI7_0.data,.LCPI7_0
	.align	4
	.type	.LCPI7_0,@object
	.size	.LCPI7_0, 4
.LCPI7_0:
	.long	1078198272
	.cc_bottom .LCPI7_0.data
	.cc_top .LCPI7_1.data,.LCPI7_1
	.align	4
	.type	.LCPI7_1,@object
	.size	.LCPI7_1, 4
.LCPI7_1:
	.long	1076101120
	.cc_bottom .LCPI7_1.data
	.cc_top .LCPI7_2.data,.LCPI7_2
	.align	4
	.type	.LCPI7_2,@object
	.size	.LCPI7_2, 4
.LCPI7_2:
	.long	1413754602
	.cc_bottom .LCPI7_2.data
	.cc_top .LCPI7_3.data,.LCPI7_3
	.align	4
	.type	.LCPI7_3,@object
	.size	.LCPI7_3, 4
.LCPI7_3:
	.long	1075388923
	.cc_bottom .LCPI7_3.data
	.cc_top .LCPI7_4.data,.LCPI7_4
	.align	4
	.type	.LCPI7_4,@object
	.size	.LCPI7_4, 4
.LCPI7_4:
	.long	1071644672
	.cc_bottom .LCPI7_4.data
	.cc_top .LCPI7_5.data,.LCPI7_5
	.align	4
	.type	.LCPI7_5,@object
	.size	.LCPI7_5, 4
.LCPI7_5:
	.long	1072693248
	.cc_bottom .LCPI7_5.data
	.cc_top .LCPI7_6.data,.LCPI7_6
	.align	4
	.type	.LCPI7_6,@object
	.size	.LCPI7_6, 4
.LCPI7_6:
	.long	3220176896
	.cc_bottom .LCPI7_6.data
	.cc_top .LCPI7_7.data,.LCPI7_7
	.align	4
	.type	.LCPI7_7,@object
	.size	.LCPI7_7, 4
.LCPI7_7:
	.long	1073741824
	.cc_bottom .LCPI7_7.data
	.cc_top .LCPI7_8.data,.LCPI7_8
	.align	4
	.type	.LCPI7_8,@object
	.size	.LCPI7_8, 4
.LCPI7_8:
	.long	3221225472
	.cc_bottom .LCPI7_8.data
	.cc_top .LCPI7_9.data,.LCPI7_9
	.align	4
	.type	.LCPI7_9,@object
	.size	.LCPI7_9, 4
.LCPI7_9:
	.long	3219128320
	.cc_bottom .LCPI7_9.data
	.cc_top .LCPI7_10.data,.LCPI7_10
	.align	4
	.type	.LCPI7_10,@object
	.size	.LCPI7_10, 4
.LCPI7_10:
	.long	2147483648
	.cc_bottom .LCPI7_10.data
	.text
	.globl	dsp_design_biquad_highshelf
	.align	4
	.type	dsp_design_biquad_highshelf,@function
	.cc_top dsp_design_biquad_highshelf.function,dsp_design_biquad_highshelf
dsp_design_biquad_highshelf:
.Lfunc_begin7:
	.loc	1 234 0
	.cfi_startproc
	.issue_mode dual
	{
		nop
		dualentsp 30
	}
.Ltmp375:
	.cfi_def_cfa_offset 120
.Ltmp376:
	.cfi_offset 15, 0
	std r5, r4, sp[11]
.Ltmp377:
	.cfi_offset 4, -32
.Ltmp378:
	.cfi_offset 5, -28
	{
		nop
		stw r6, sp[24]
	}
	{
		nop
		stw r7, sp[25]
	}
.Ltmp379:
	.cfi_offset 6, -24
.Ltmp380:
	.cfi_offset 7, -20
	{
		nop
		stw r8, sp[26]
	}
	{
		nop
		stw r9, sp[27]
	}
.Ltmp381:
	.cfi_offset 8, -16
.Ltmp382:
	.cfi_offset 9, -12
	{
		nop
		stw r10, sp[28]
	}
.Ltmp383:
	.cfi_offset 10, -8
	{
		nop
		stw r3, sp[21]
	}
	{
		mov r4, r1
		stw r2, sp[19]
	}
	{
		mov r6, r0
		ldw r1, sp[32]
	}
	{
		nop
		ldw r0, sp[33]
	}
	{
		nop
		stw r0, sp[11]
	}
	{
		ldc r5, 0
		ldw r0, sp[31]
	}
	ldw r3, cp[.LCPI7_0]
	.loc	1 236 14 prologue_end
.Ltmp384:
	{
		mov r2, r5
		nop
	}
	bl __divdf3
	{
		mov r2, r0
		mov r3, r1
	}
	ldw r1, cp[.LCPI7_1]
	.loc	1 236 14
	{
		mov r0, r5
		mov r8, r5
	}
	bl pow
	{
		mov r9, r0
		nop
	}
	{
		mov r5, r1
		stw r9, sp[15]
	}
	{
		nop
		stw r5, sp[14]
	}
	ldw r2, cp[.LCPI7_2]
	ldw r3, cp[.LCPI7_3]
	.loc	1 237 2
	{
		mov r0, r6
		mov r1, r4
	}
	bl __muldf3
	{
		nop
		stw r0, sp[16]
	}
	{
		nop
		stw r1, sp[20]
	}
	.loc	1 238 17
	bl sin
	ldw r3, cp[.LCPI7_4]
	.loc	1 238 17
	{
		mov r2, r8
		nop
	}
	bl __muldf3
	{
		mov r7, r0
		stw r1, sp[18]
	}
	ldw r1, cp[.LCPI7_5]
	.loc	1 238 31
	{
		mov r0, r8
		mov r10, r1
	}
	{
		mov r2, r9
		mov r3, r5
	}
	bl __divdf3
	{
		mov r2, r0
		mov r3, r1
	}
	.loc	1 238 31
	{
		mov r0, r9
		mov r4, r9
	}
	{
		mov r1, r5
		mov r9, r5
	}
	bl __adddf3
	{
		mov r5, r0
		mov r6, r1
	}
	.loc	1 238 31
	{
		mov r0, r8
		mov r1, r10
	}
	{
		nop
		ldw r2, sp[19]
	}
	{
		nop
		ldw r3, sp[21]
	}
	bl __divdf3
	ldw r3, cp[.LCPI7_6]
	.loc	1 238 31
	{
		mov r2, r8
		nop
	}
	bl __adddf3
	{
		mov r2, r0
		mov r3, r1
	}
	.loc	1 238 31
	{
		mov r0, r5
		mov r1, r6
	}
	bl __muldf3
	ldw r3, cp[.LCPI7_7]
	.loc	1 238 31
	{
		mov r2, r8
		nop
	}
	bl __adddf3
	.loc	1 238 31
	bl sqrt
	{
		mov r2, r0
		mov r3, r1
	}
	.loc	1 238 31
	{
		mov r0, r7
		ldw r1, sp[18]
	}
	bl __muldf3
	{
		nop
		stw r0, sp[18]
	}
	{
		mov r7, r4
		stw r1, sp[19]
	}
	.loc	1 241 2
	{
		mov r0, r7
		mov r6, r9
	}
	{
		mov r1, r6
		mov r2, r8
	}
	{
		mov r3, r10
		nop
	}
	bl __adddf3
	{
		mov r4, r0
		nop
	}
	{
		mov r5, r1
		stw r4, sp[2]
	}
	.loc	1 241 2
	{
		mov r0, r7
		stw r5, sp[12]
	}
	{
		mov r10, r7
		mov r1, r6
	}
	{
		mov r9, r6
		mov r2, r8
	}
	ldw r3, cp[.LCPI7_6]
	bl __adddf3
	{
		mov r7, r0
		nop
	}
	{
		mov r8, r1
		stw r7, sp[17]
	}
	{
		nop
		stw r8, sp[13]
	}
	{
		nop
		ldw r6, sp[16]
	}
	.loc	1 241 37
	{
		mov r0, r6
		ldw r1, sp[20]
	}
	bl cos
	{
		mov r2, r0
		mov r3, r1
	}
	.loc	1 241 37
	{
		mov r0, r7
		mov r1, r8
	}
	bl __muldf3
	{
		mov r2, r0
		mov r3, r1
	}
	.loc	1 241 37
	{
		mov r0, r4
		mov r8, r4
	}
	{
		mov r1, r5
		nop
	}
	bl __adddf3
	{
		mov r4, r0
		mov r5, r1
	}
	{
		mov r7, r10
		nop
	}
	.loc	1 241 49
	{
		mov r0, r7
		mov r1, r9
	}
	bl sqrt
	.loc	1 241 49
	{
		mov r2, r0
		mov r3, r1
	}
	bl __adddf3
	{
		mov r2, r0
		mov r3, r1
	}
	{
		nop
		ldw r0, sp[18]
	}
	{
		nop
		ldw r1, sp[19]
	}
	.loc	1 241 49
	bl __muldf3
	{
		mov r2, r0
		mov r3, r1
	}
	.loc	1 241 49
	{
		mov r0, r4
		mov r1, r5
	}
	bl __adddf3
	{
		mov r2, r0
		mov r3, r1
	}
	.loc	1 241 49
	{
		mov r0, r7
		mov r1, r9
	}
	bl __muldf3
	{
		nop
		stw r0, sp[4]
	}
	{
		nop
		stw r1, sp[3]
	}
	ldw r3, cp[.LCPI7_8]
	.loc	1 242 2
	{
		mov r0, r7
		mov r1, r9
	}
	{
		ldc r2, 0
		nop
	}
	bl __muldf3
	{
		mov r5, r1
		stw r0, sp[21]
	}
	.loc	1 242 37
	{
		mov r0, r6
		mov r10, r6
	}
	{
		nop
		ldw r6, sp[20]
	}
	{
		mov r1, r6
		nop
	}
	bl cos
	{
		mov r2, r0
		mov r3, r1
	}
	.loc	1 242 37
	{
		mov r0, r8
		mov r4, r8
	}
	{
		nop
		ldw r7, sp[12]
	}
	{
		mov r1, r7
		nop
	}
	bl __muldf3
	{
		mov r2, r0
		mov r3, r1
	}
	{
		nop
		ldw r9, sp[17]
	}
	.loc	1 242 37
	{
		mov r0, r9
		ldw r8, sp[13]
	}
	{
		mov r1, r8
		nop
	}
	bl __adddf3
	{
		mov r2, r0
		mov r3, r1
	}
	.loc	1 242 37
	{
		mov r1, r5
		ldw r0, sp[21]
	}
	bl __muldf3
	{
		nop
		stw r0, sp[6]
	}
	{
		mov r0, r10
		stw r1, sp[5]
	}
	.loc	1 243 37
	{
		mov r1, r6
		nop
	}
	bl cos
	{
		mov r2, r0
		mov r3, r1
	}
	.loc	1 243 37
	{
		mov r0, r9
		mov r1, r8
	}
	bl __muldf3
	{
		mov r2, r0
		mov r3, r1
	}
	.loc	1 243 37
	{
		mov r0, r4
		mov r1, r7
	}
	bl __adddf3
	{
		mov r4, r0
		mov r5, r1
	}
	{
		nop
		ldw r9, sp[15]
	}
	.loc	1 243 49
	{
		mov r0, r9
		ldw r10, sp[14]
	}
	{
		mov r1, r10
		nop
	}
	bl sqrt
	.loc	1 243 49
	{
		mov r2, r0
		mov r3, r1
	}
	bl __adddf3
	{
		mov r2, r0
		mov r3, r1
	}
	{
		nop
		ldw r6, sp[18]
	}
	.loc	1 243 49
	{
		mov r0, r6
		ldw r7, sp[19]
	}
	{
		mov r1, r7
		nop
	}
	bl __muldf3
	{
		mov r2, r0
		mov r3, r1
	}
	.loc	1 243 49
	{
		mov r0, r4
		mov r1, r5
	}
	bl __subdf3
	{
		mov r2, r0
		mov r3, r1
	}
	.loc	1 243 49
	{
		mov r0, r9
		mov r4, r9
	}
	{
		mov r1, r10
		mov r5, r10
	}
	bl __muldf3
	{
		nop
		stw r0, sp[8]
	}
	{
		nop
		stw r1, sp[7]
	}
	{
		nop
		ldw r0, sp[16]
	}
	{
		nop
		ldw r1, sp[20]
	}
	.loc	1 244 37
	bl cos
	{
		mov r2, r0
		mov r3, r1
	}
	.loc	1 244 37
	{
		mov r1, r8
		ldw r0, sp[17]
	}
	bl __muldf3
	{
		mov r2, r0
		mov r3, r1
	}
	{
		nop
		ldw r8, sp[2]
	}
	.loc	1 244 37
	{
		mov r0, r8
		ldw r9, sp[12]
	}
	{
		mov r1, r9
		nop
	}
	bl __subdf3
	{
		mov r10, r0
		stw r1, sp[21]
	}
	.loc	1 244 49
	{
		mov r0, r4
		mov r1, r5
	}
	bl sqrt
	.loc	1 244 49
	{
		mov r2, r0
		mov r3, r1
	}
	bl __adddf3
	{
		mov r2, r0
		mov r3, r1
	}
	.loc	1 244 49
	{
		mov r0, r6
		mov r1, r7
	}
	bl __muldf3
	{
		mov r2, r0
		mov r3, r1
	}
	.loc	1 244 49
	{
		mov r0, r10
		ldw r1, sp[21]
	}
	bl __adddf3
	{
		mov r6, r1
		stw r0, sp[1]
	}
	{
		nop
		stw r6, sp[21]
	}
	{
		nop
		ldw r4, sp[16]
	}
	.loc	1 245 37
	{
		mov r0, r4
		ldw r5, sp[20]
	}
	{
		mov r1, r5
		nop
	}
	bl cos
	{
		mov r2, r0
		mov r3, r1
	}
	.loc	1 245 37
	{
		mov r0, r8
		mov r1, r9
	}
	bl __muldf3
	{
		mov r2, r0
		mov r3, r1
	}
	{
		nop
		ldw r10, sp[17]
	}
	.loc	1 245 37
	{
		mov r0, r10
		ldw r7, sp[13]
	}
	{
		mov r1, r7
		nop
	}
	bl __subdf3
	.loc	1 245 37
	{
		mov r2, r0
		mov r3, r1
	}
	bl __adddf3
	{
		nop
		stw r0, sp[10]
	}
	{
		mov r0, r4
		stw r1, sp[9]
	}
	.loc	1 246 37
	{
		mov r1, r5
		nop
	}
	bl cos
	{
		mov r2, r0
		mov r3, r1
	}
	.loc	1 246 37
	{
		mov r0, r10
		mov r1, r7
	}
	bl __muldf3
	{
		mov r2, r0
		mov r3, r1
	}
	.loc	1 246 37
	{
		mov r0, r8
		mov r1, r9
	}
	bl __subdf3
	{
		mov r4, r0
		mov r5, r1
	}
	{
		nop
		ldw r0, sp[15]
	}
	{
		nop
		ldw r1, sp[14]
	}
	{
		nop
		ldw r10, sp[1]
	}
	.loc	1 246 49
	bl sqrt
	.loc	1 246 49
	{
		mov r2, r0
		mov r3, r1
	}
	bl __adddf3
	{
		mov r2, r0
		mov r3, r1
	}
	{
		nop
		ldw r0, sp[18]
	}
	{
		nop
		ldw r1, sp[19]
	}
	.loc	1 246 49
	bl __muldf3
	{
		mov r2, r0
		mov r3, r1
	}
	.loc	1 246 49
	{
		mov r0, r4
		mov r1, r5
	}
	bl __subdf3
	{
		nop
		stw r0, sp[20]
	}
	{
		nop
		stw r1, sp[19]
	}
	{
		nop
		ldw r0, sp[4]
	}
	.loc	1 249 20
	{
		mov r2, r10
		ldw r1, sp[3]
	}
	{
		mov r3, r6
		ldc r6, 0
	}
	bl __divdf3
	.loc	1 249 20
	bl __truncdfsf2
.Ltmp385:
	{
		mov r4, r0
		mov r1, r6
	}
	.loc	1 12 9
.Ltmp386:
	bl __gesf2
	ashr r0, r0, 32
	{
		eq r5, r0, 0
		mov r0, r4
	}
	{
		mov r1, r6
		nop
	}
	bl __unordsf2
	{
		eq r0, r0, 0
		nop
	}
	{
		eq r0, r0, 0
		nop
	}
	{
		or r0, r0, r5
		nop
	}
	bt r0, .LBB7_2
.Ltmp387:
	{
		mkmsk r0, 1
		ldw r7, sp[34]
	}
.Ltmp388:
	.loc	1 12 17
	{
		shl r0, r0, r7
		nop
	}
	.loc	1 12 17
	bl __floatsidf
	{
		mov r5, r0
		mov r6, r1
	}
	.loc	1 12 17
	{
		mov r0, r4
		nop
	}
	bl __extendsfdf2
	{
		mov r2, r0
		mov r3, r1
	}
	.loc	1 12 17
	{
		mov r0, r5
		mov r1, r6
	}
	bl __muldf3
	{
		ldc r2, 0
		nop
	}
	ldw r3, cp[.LCPI7_9]
	bu .LBB7_4
.Ltmp389:
.LBB7_2:
	.loc	1 13 14
	{
		mov r0, r4
		mov r1, r6
	}
	bl __lesf2
	{
		mkmsk r1, 1
		nop
	}
	{
		lss r5, r0, r1
		mov r0, r4
	}
	{
		mov r1, r6
		nop
	}
	bl __unordsf2
	{
		eq r0, r0, 0
		nop
	}
	{
		eq r0, r0, 0
		nop
	}
	{
		or r0, r0, r5
		ldw r1, sp[34]
	}
	{
		mov r7, r1
		nop
	}
.Ltmp390:
	bt r0, .LBB7_5
.Ltmp391:
	.loc	1 13 22
	{
		mkmsk r0, r7
		nop
	}
	.loc	1 13 22
	bl __floatsidf
	{
		mov r5, r0
		mov r6, r1
	}
	.loc	1 13 22
	{
		mov r0, r4
		nop
	}
	bl __extendsfdf2
	{
		mov r2, r0
		mov r3, r1
	}
	.loc	1 13 22
	{
		mov r0, r5
		mov r1, r6
	}
	bl __muldf3
	{
		ldc r2, 0
		nop
	}
	ldw r3, cp[.LCPI7_4]
.Ltmp392:
.LBB7_4:
	.loc	1 13 22
	bl __adddf3
	.loc	1 13 22
	bl __fixdfsi
	{
		mov r6, r0
		nop
	}
.Ltmp393:
.LBB7_5:
	{
		nop
		ldw r0, sp[11]
	}
.Ltmp394:
	.loc	1 249 20
	{
		mov r8, r0
		stw r6, r0[0]
	}
.Ltmp395:
	{
		nop
		ldw r0, sp[6]
	}
	.loc	1 250 20
	{
		mov r2, r10
		ldw r1, sp[5]
	}
	{
		nop
		ldw r3, sp[21]
	}
	bl __divdf3
	.loc	1 250 20
	bl __truncdfsf2
	{
		mov r4, r0
		ldc r5, 0
	}
	.loc	1 12 9
.Ltmp396:
	{
		mov r1, r5
		nop
	}
	bl __gesf2
	ashr r0, r0, 32
	{
		eq r6, r0, 0
		mov r0, r4
	}
	{
		mov r1, r5
		nop
	}
	bl __unordsf2
	{
		eq r0, r0, 0
		nop
	}
	{
		eq r0, r0, 0
		nop
	}
	{
		or r0, r0, r6
		nop
	}
	bt r0, .LBB7_7
.Ltmp397:
	{
		mkmsk r0, 1
		nop
	}
	.loc	1 12 17
	{
		shl r0, r0, r7
		nop
	}
	.loc	1 12 17
	bl __floatsidf
	{
		mov r5, r0
		mov r6, r1
	}
	.loc	1 12 17
	{
		mov r0, r4
		nop
	}
	bl __extendsfdf2
	{
		mov r2, r0
		mov r3, r1
	}
	.loc	1 12 17
	{
		mov r0, r5
		mov r1, r6
	}
	bl __muldf3
	{
		ldc r2, 0
		nop
	}
	ldw r3, cp[.LCPI7_9]
	bu .LBB7_9
.Ltmp398:
.LBB7_7:
	.loc	1 13 14
	{
		mov r0, r4
		mov r1, r5
	}
	bl __lesf2
	{
		mkmsk r1, 1
		nop
	}
	{
		lss r6, r0, r1
		mov r0, r4
	}
	{
		mov r1, r5
		nop
	}
	bl __unordsf2
	{
		eq r0, r0, 0
		nop
	}
	{
		eq r0, r0, 0
		nop
	}
	{
		or r0, r0, r6
		nop
	}
	bt r0, .LBB7_10
.Ltmp399:
	.loc	1 13 22
	{
		mkmsk r0, r7
		nop
	}
	.loc	1 13 22
	bl __floatsidf
	{
		mov r5, r0
		mov r6, r1
	}
	.loc	1 13 22
	{
		mov r0, r4
		nop
	}
	bl __extendsfdf2
	{
		mov r2, r0
		mov r3, r1
	}
	.loc	1 13 22
	{
		mov r0, r5
		mov r1, r6
	}
	bl __muldf3
.Ltmp400:
	{
		ldc r2, 0
		nop
	}
	ldw r3, cp[.LCPI7_4]
.Ltmp401:
.LBB7_9:
	.loc	1 13 22
	bl __adddf3
	.loc	1 13 22
	bl __fixdfsi
	{
		mov r5, r0
		nop
	}
.Ltmp402:
.LBB7_10:
	{
		nop
		stw r5, r8[1]
	}
	{
		nop
		ldw r0, sp[8]
	}
	.loc	1 251 20
	{
		mov r2, r10
		ldw r1, sp[7]
	}
	{
		nop
		ldw r3, sp[21]
	}
	bl __divdf3
	.loc	1 251 20
	bl __truncdfsf2
	{
		mov r4, r0
		ldc r5, 0
	}
	.loc	1 12 9
.Ltmp403:
	{
		mov r1, r5
		nop
	}
	bl __gesf2
	ashr r0, r0, 32
	{
		eq r6, r0, 0
		mov r0, r4
	}
	{
		mov r1, r5
		nop
	}
	bl __unordsf2
	{
		eq r0, r0, 0
		nop
	}
	{
		eq r0, r0, 0
		nop
	}
	{
		or r0, r0, r6
		nop
	}
	bt r0, .LBB7_12
.Ltmp404:
	{
		mkmsk r0, 1
		nop
	}
	.loc	1 12 17
	{
		shl r0, r0, r7
		nop
	}
	.loc	1 12 17
	bl __floatsidf
	{
		mov r5, r0
		mov r6, r1
	}
	.loc	1 12 17
	{
		mov r0, r4
		nop
	}
	bl __extendsfdf2
	{
		mov r2, r0
		mov r3, r1
	}
	.loc	1 12 17
	{
		mov r0, r5
		mov r1, r6
	}
	bl __muldf3
	{
		ldc r2, 0
		nop
	}
	ldw r3, cp[.LCPI7_9]
	bu .LBB7_14
.Ltmp405:
.LBB7_12:
	.loc	1 13 14
	{
		mov r0, r4
		mov r1, r5
	}
	bl __lesf2
	{
		mkmsk r1, 1
		nop
	}
	{
		lss r6, r0, r1
		mov r0, r4
	}
	{
		mov r1, r5
		nop
	}
	bl __unordsf2
	{
		eq r0, r0, 0
		nop
	}
	{
		eq r0, r0, 0
		nop
	}
	{
		or r0, r0, r6
		nop
	}
	bt r0, .LBB7_15
.Ltmp406:
	.loc	1 13 22
	{
		mkmsk r0, r7
		nop
	}
	.loc	1 13 22
	bl __floatsidf
	{
		mov r5, r0
		mov r6, r1
	}
	.loc	1 13 22
	{
		mov r0, r4
		nop
	}
	bl __extendsfdf2
	{
		mov r2, r0
		mov r3, r1
	}
	.loc	1 13 22
	{
		mov r0, r5
		mov r1, r6
	}
	bl __muldf3
	{
		ldc r2, 0
		nop
	}
	ldw r3, cp[.LCPI7_4]
.Ltmp407:
.LBB7_14:
	.loc	1 13 22
	bl __adddf3
.Ltmp408:
	.loc	1 13 22
	bl __fixdfsi
	{
		mov r5, r0
		nop
	}
.Ltmp409:
.LBB7_15:
	{
		nop
		stw r5, r8[2]
	}
	ldw r9, cp[.LCPI7_10]
	{
		nop
		ldw r0, sp[9]
	}
	.loc	1 252 20
	xor r1, r0, r9
	.loc	1 252 20
	{
		mov r2, r10
		ldw r0, sp[10]
	}
	{
		nop
		ldw r3, sp[21]
	}
	bl __divdf3
	.loc	1 252 20
	bl __truncdfsf2
	{
		mov r4, r0
		ldc r5, 0
	}
	.loc	1 12 9
.Ltmp410:
	{
		mov r1, r5
		nop
	}
	bl __gesf2
	ashr r0, r0, 32
	{
		eq r6, r0, 0
		mov r0, r4
	}
	{
		mov r1, r5
		nop
	}
	bl __unordsf2
	{
		eq r0, r0, 0
		nop
	}
	{
		eq r0, r0, 0
		nop
	}
	{
		or r0, r0, r6
		nop
	}
	bt r0, .LBB7_17
.Ltmp411:
	{
		mkmsk r0, 1
		nop
	}
	.loc	1 12 17
	{
		shl r0, r0, r7
		nop
	}
	.loc	1 12 17
	bl __floatsidf
	{
		mov r5, r0
		mov r6, r1
	}
	.loc	1 12 17
	{
		mov r0, r4
		nop
	}
	bl __extendsfdf2
	{
		mov r2, r0
		mov r3, r1
	}
	.loc	1 12 17
	{
		mov r0, r5
		mov r1, r6
	}
	bl __muldf3
	{
		ldc r2, 0
		nop
	}
	ldw r3, cp[.LCPI7_9]
	bu .LBB7_19
.Ltmp412:
.LBB7_17:
	.loc	1 13 14
	{
		mov r0, r4
		mov r1, r5
	}
	bl __lesf2
	{
		mkmsk r1, 1
		nop
	}
	{
		lss r6, r0, r1
		mov r0, r4
	}
	{
		mov r1, r5
		nop
	}
	bl __unordsf2
	{
		eq r0, r0, 0
		nop
	}
	{
		eq r0, r0, 0
		nop
	}
	{
		or r0, r0, r6
		nop
	}
	bt r0, .LBB7_20
.Ltmp413:
	.loc	1 13 22
	{
		mkmsk r0, r7
		nop
	}
	.loc	1 13 22
	bl __floatsidf
	{
		mov r5, r0
		mov r6, r1
	}
	.loc	1 13 22
	{
		mov r0, r4
		nop
	}
	bl __extendsfdf2
	{
		mov r2, r0
		mov r3, r1
	}
	.loc	1 13 22
	{
		mov r0, r5
		mov r1, r6
	}
	bl __muldf3
	{
		ldc r2, 0
		nop
	}
	ldw r3, cp[.LCPI7_4]
.Ltmp414:
.LBB7_19:
	.loc	1 13 22
	bl __adddf3
	.loc	1 13 22
	bl __fixdfsi
	{
		mov r5, r0
		nop
	}
.Ltmp415:
.LBB7_20:
	{
		nop
		stw r5, r8[3]
	}
	{
		nop
		ldw r0, sp[19]
	}
	.loc	1 253 20
	xor r1, r0, r9
	.loc	1 253 20
	{
		mov r2, r10
		ldw r0, sp[20]
	}
	{
		nop
		ldw r3, sp[21]
	}
	bl __divdf3
	.loc	1 253 20
	bl __truncdfsf2
	{
		mov r4, r0
		ldc r5, 0
	}
	.loc	1 12 9
.Ltmp416:
	{
		mov r1, r5
		nop
	}
	bl __gesf2
	ashr r0, r0, 32
	{
		eq r6, r0, 0
		mov r0, r4
	}
	{
		mov r1, r5
		nop
	}
	bl __unordsf2
	{
		eq r0, r0, 0
		nop
	}
	{
		eq r0, r0, 0
		nop
	}
	{
		or r0, r0, r6
		nop
	}
	bt r0, .LBB7_22
.Ltmp417:
	{
		mkmsk r0, 1
		nop
	}
	.loc	1 12 17
	{
		shl r0, r0, r7
		nop
	}
	.loc	1 12 17
	bl __floatsidf
	{
		mov r5, r0
		mov r6, r1
	}
	.loc	1 12 17
	{
		mov r0, r4
		nop
	}
	bl __extendsfdf2
	{
		mov r2, r0
		mov r3, r1
	}
	.loc	1 12 17
	{
		mov r0, r5
		mov r1, r6
	}
	bl __muldf3
	{
		ldc r2, 0
		nop
	}
	ldw r3, cp[.LCPI7_9]
	bu .LBB7_24
.Ltmp418:
.LBB7_22:
	.loc	1 13 14
	{
		mov r0, r4
		mov r1, r5
	}
	bl __lesf2
	{
		mkmsk r1, 1
		nop
	}
	{
		lss r6, r0, r1
		mov r0, r4
	}
	{
		mov r1, r5
		nop
	}
	bl __unordsf2
	{
		eq r0, r0, 0
		nop
	}
	{
		eq r0, r0, 0
		nop
	}
	{
		or r0, r0, r6
		nop
	}
	bt r0, .LBB7_25
.Ltmp419:
	.loc	1 13 22
	{
		mkmsk r0, r7
		nop
	}
	.loc	1 13 22
	bl __floatsidf
	{
		mov r5, r0
		mov r6, r1
	}
	.loc	1 13 22
	{
		mov r0, r4
		nop
	}
	bl __extendsfdf2
	{
		mov r2, r0
		mov r3, r1
	}
	.loc	1 13 22
	{
		mov r0, r5
		mov r1, r6
	}
	bl __muldf3
	{
		ldc r2, 0
		nop
	}
	ldw r3, cp[.LCPI7_4]
.Ltmp420:
.LBB7_24:
	.loc	1 13 22
	bl __adddf3
	.loc	1 13 22
	bl __fixdfsi
	{
		mov r5, r0
		nop
	}
.Ltmp421:
.LBB7_25:
	{
		nop
		stw r5, r8[4]
	}
	{
		nop
		ldw r10, sp[28]
	}
	{
		nop
		ldw r8, sp[26]
	}
.Ltmp422:
	{
		nop
		ldw r9, sp[27]
	}
	{
		nop
		ldw r6, sp[24]
	}
	{
		nop
		ldw r7, sp[25]
	}
	.loc	1 254 1
	ldd r5, r4, sp[11]
	{
		nop
		retsp 30
	}
	# RETURN_REG_HOLDER
.Ltmp423:
	.cc_bottom dsp_design_biquad_highshelf.function
	.set	dsp_design_biquad_highshelf.nstackwords,((pow.nstackwords $M sin.nstackwords $M cos.nstackwords $M sqrt.nstackwords $M __subdf3.nstackwords $M __divdf3.nstackwords $M __truncdfsf2.nstackwords $M __gesf2.nstackwords $M __adddf3.nstackwords $M __fixdfsi.nstackwords $M __lesf2.nstackwords $M __unordsf2.nstackwords $M __floatsidf.nstackwords $M __extendsfdf2.nstackwords $M __muldf3.nstackwords) + 30)
	.globl	dsp_design_biquad_highshelf.nstackwords
	.set	dsp_design_biquad_highshelf.maxcores,cos.maxcores $M pow.maxcores $M sin.maxcores $M sqrt.maxcores $M 1
	.globl	dsp_design_biquad_highshelf.maxcores
	.set	dsp_design_biquad_highshelf.maxtimers,cos.maxtimers $M pow.maxtimers $M sin.maxtimers $M sqrt.maxtimers $M 0
	.globl	dsp_design_biquad_highshelf.maxtimers
	.set	dsp_design_biquad_highshelf.maxchanends,cos.maxchanends $M pow.maxchanends $M sin.maxchanends $M sqrt.maxchanends $M 0
	.globl	dsp_design_biquad_highshelf.maxchanends
.Ltmp424:
	.size	dsp_design_biquad_highshelf, .Ltmp424-dsp_design_biquad_highshelf
.Lfunc_end7:
	.cfi_endproc

.Ldebug_end0:
	.section	.trap_info,"",@progbits
.Ltrap_info_entries_start0:
	.long	.Ltrap_info_entries_end0-.Ltrap_info_entries_start0
	.long	1
.Ltrap_info_entries_end0: