	.text
	.file	"dsp_math.c"
	.text
	.globl	dsp_math_multiply
	.align	4
	.type	dsp_math_multiply,@function
	.cc_top dsp_math_multiply.function,dsp_math_multiply
dsp_math_multiply:
.Lfunc_begin0:
	.file	1 "C:/Users/user/workspace/lib_dsp/src\\dsp_math.c"
	.loc	1 9 0
	.cfi_startproc
	.issue_mode dual
	{
		sub r3, r2, 1
		dualentsp 0
	}
	{
		mkmsk r11, 1
		nop
	}
	.loc	1 13 5 prologue_end
.Ltmp0:
	{
		shl r3, r11, r3
		ldc r11, 0
	}
	.loc	1 13 5
	#APP
	maccs r11,r3,r0,r1
	#NO_APP
	.loc	1 14 5
	#APP
	lextract r0,r11,r3,r2,32
	#NO_APP
.Ltmp1:
	{
		nop
		retsp 0
	}
	.loc	1 15 5
	# RETURN_REG_HOLDER
.Ltmp2:
	.cc_bottom dsp_math_multiply.function
	.set	dsp_math_multiply.nstackwords,0
	.globl	dsp_math_multiply.nstackwords
	.set	dsp_math_multiply.maxcores,1
	.globl	dsp_math_multiply.maxcores
	.set	dsp_math_multiply.maxtimers,0
	.globl	dsp_math_multiply.maxtimers
	.set	dsp_math_multiply.maxchanends,0
	.globl	dsp_math_multiply.maxchanends
.Ltmp3:
	.size	dsp_math_multiply, .Ltmp3-dsp_math_multiply
.Lfunc_end0:
	.cfi_endproc

	.globl	dsp_math_multiply_sat
	.align	4
	.type	dsp_math_multiply_sat,@function
	.cc_top dsp_math_multiply_sat.function,dsp_math_multiply_sat
dsp_math_multiply_sat:
.Lfunc_begin1:
	.loc	1 19 0
	.cfi_startproc
	.issue_mode dual
	{
		sub r3, r2, 1
		dualentsp 0
	}
	{
		mkmsk r11, 1
		nop
	}
	.loc	1 21 5 prologue_end
.Ltmp4:
	{
		shl r3, r11, r3
		ldc r11, 0
	}
	.loc	1 21 5
	#APP
	maccs r11,r3,r0,r1
	#NO_APP
	.loc	1 22 5
	#APP
	lsats r11,r3,r2
	#NO_APP
	.loc	1 23 5
	#APP
	lextract r0,r11,r3,r2,32
	#NO_APP
.Ltmp5:
	{
		nop
		retsp 0
	}
	.loc	1 24 5
	# RETURN_REG_HOLDER
.Ltmp6:
	.cc_bottom dsp_math_multiply_sat.function
	.set	dsp_math_multiply_sat.nstackwords,0
	.globl	dsp_math_multiply_sat.nstackwords
	.set	dsp_math_multiply_sat.maxcores,1
	.globl	dsp_math_multiply_sat.maxcores
	.set	dsp_math_multiply_sat.maxtimers,0
	.globl	dsp_math_multiply_sat.maxtimers
	.set	dsp_math_multiply_sat.maxchanends,0
	.globl	dsp_math_multiply_sat.maxchanends
.Ltmp7:
	.size	dsp_math_multiply_sat, .Ltmp7-dsp_math_multiply_sat
.Lfunc_end1:
	.cfi_endproc

	.globl	dsp_math_divide
	.align	4
	.type	dsp_math_divide,@function
	.cc_top dsp_math_divide.function,dsp_math_divide
dsp_math_divide:
.Lfunc_begin2:
	.loc	1 30 0
	.cfi_startproc
	.issue_mode dual
	{
		nop
		dualentsp 0
	}
	{
		extsp 2
		nop
	}
.Ltmp8:
	.cfi_def_cfa_offset 8
	std r5, r4, sp[0]
.Ltmp9:
	.cfi_offset 4, -8
.Ltmp10:
	.cfi_offset 5, -4
.Ltmp11:
	.loc	1 33 9 prologue_end
	ashr r11, r0, 32
	{
		add r4, r0, r11
		mkmsk r3, 1
	}
	.loc	1 33 9
	{
		or r0, r11, r3
		nop
	}
.Ltmp12:
	.loc	1 33 9
	xor r11, r4, r11
.Ltmp13:
	.loc	1 37 9
	ashr r4, r1, 32
	bf r4, .LBB2_2
.Ltmp14:
	.loc	1 38 9
	{
		neg r0, r0
		neg r1, r1
	}
.Ltmp15:
.LBB2_2:
	{
		ldc r4, 0
		nop
	}
	.loc	1 41 5
	#APP
	ldivu r5,r11,r4,r11,r1
	#NO_APP
	.loc	1 42 5
	#APP
	ldivu r11,r1,r11,r4,r1
	#NO_APP
	{
		mkmsk r1, 5
		nop
	}
	.loc	1 44 5
	{
		sub r1, r1, r2
		nop
	}
	.loc	1 44 5
	{
		shl r1, r3, r1
		nop
	}
.Ltmp16:
	.loc	1 46 5
	#APP
	maccu  r5, r11, r1, r3
	#NO_APP
	{
		ldc r1, 32
		nop
	}
.Ltmp17:
	.loc	1 47 5
	{
		sub r1, r1, r2
		nop
	}
	.loc	1 47 5
	#APP
	lextract  r1, r5, r11, r1, 32
	#NO_APP
.Ltmp18:
	.loc	1 49 5
	mul r0, r1, r0
	.loc	1 49 5
	ldd r5, r4, sp[0]
	{
		ldaw sp, sp[2]
		nop
	}
	{
		nop
		retsp 0
	}
	# RETURN_REG_HOLDER
.Ltmp19:
	.cc_bottom dsp_math_divide.function
	.set	dsp_math_divide.nstackwords,2
	.globl	dsp_math_divide.nstackwords
	.set	dsp_math_divide.maxcores,1
	.globl	dsp_math_divide.maxcores
	.set	dsp_math_divide.maxtimers,0
	.globl	dsp_math_divide.maxtimers
	.set	dsp_math_divide.maxchanends,0
	.globl	dsp_math_divide.maxchanends
.Ltmp20:
	.size	dsp_math_divide, .Ltmp20-dsp_math_divide
.Lfunc_end2:
	.cfi_endproc

	.globl	dsp_math_divide_unsigned
	.align	4
	.type	dsp_math_divide_unsigned,@function
	.cc_top dsp_math_divide_unsigned.function,dsp_math_divide_unsigned
dsp_math_divide_unsigned:
.Lfunc_begin3:
	.loc	1 54 0
	.cfi_startproc
	.issue_mode dual
	{
		ldc r3, 32
		dualentsp 0
	}
	.loc	1 60 5 prologue_end
.Ltmp21:
	{
		sub r3, r3, r2
		nop
	}
.Ltmp22:
	.loc	1 60 5
	{
		shr r3, r0, r3
		shl r0, r0, r2
	}
.Ltmp23:
	{
		ldc r2, 0
		nop
	}
.Ltmp24:
	.loc	1 64 5
	#APP
	ldivu r0,r2,r3,r0,r1
	#NO_APP
.Ltmp25:
	{
		nop
		retsp 0
	}
	.loc	1 66 5
	# RETURN_REG_HOLDER
.Ltmp26:
	.cc_bottom dsp_math_divide_unsigned.function
	.set	dsp_math_divide_unsigned.nstackwords,0
	.globl	dsp_math_divide_unsigned.nstackwords
	.set	dsp_math_divide_unsigned.maxcores,1
	.globl	dsp_math_divide_unsigned.maxcores
	.set	dsp_math_divide_unsigned.maxtimers,0
	.globl	dsp_math_divide_unsigned.maxtimers
	.set	dsp_math_divide_unsigned.maxchanends,0
	.globl	dsp_math_divide_unsigned.maxchanends
.Ltmp27:
	.size	dsp_math_divide_unsigned, .Ltmp27-dsp_math_divide_unsigned
.Lfunc_end3:
	.cfi_endproc

	.section	.cp.rodata.cst4,"aMc",@progbits,4
	.cc_top .LCPI4_0.data,.LCPI4_0
	.align	4
	.type	.LCPI4_0,@object
	.size	.LCPI4_0, 4
.LCPI4_0:
	.long	6233264
	.cc_bottom .LCPI4_0.data
	.cc_top .LCPI4_1.data,.LCPI4_1
	.align	4
	.type	.LCPI4_1,@object
	.size	.LCPI4_1, 4
.LCPI4_1:
	.long	10920575
	.cc_bottom .LCPI4_1.data
	.cc_top .LCPI4_2.data,.LCPI4_2
	.align	4
	.type	.LCPI4_2,@object
	.size	.LCPI4_2, 4
.LCPI4_2:
	.long	8388608
	.cc_bottom .LCPI4_2.data
	.text
	.globl	dsp_math_sqrt
	.align	4
	.type	dsp_math_sqrt,@function
	.cc_top dsp_math_sqrt.function,dsp_math_sqrt
dsp_math_sqrt:
.Lfunc_begin4:
	.loc	1 73 0
	.cfi_startproc
	.issue_mode dual
	{
		nop
		dualentsp 0
	}
	{
		extsp 2
		nop
	}
.Ltmp28:
	.cfi_def_cfa_offset 8
	std r5, r4, sp[0]
.Ltmp29:
	.cfi_offset 4, -8
.Ltmp30:
	.cfi_offset 5, -4
	.loc	1 77 8 prologue_end
.Ltmp31:
	bf r0, .LBB4_1
.Ltmp32:
	.loc	1 79 5
	#APP
	clz r1,r0
	#NO_APP
.Ltmp33:
	.loc	1 82 5
	{
		sub r1, r1, 8
		nop
	}
.Ltmp34:
	.loc	1 82 5
	ashr r1, r1, 1
.Ltmp35:
	.loc	1 85 9
	ashr r2, r1, 32
	bt r2, .LBB4_4
.Ltmp36:
	ldw r2, cp[.LCPI4_0]
.Ltmp37:
	.loc	1 86 9
	{
		shr r2, r2, r1
		shl r1, r0, r1
	}
.Ltmp38:
	ldw r3, cp[.LCPI4_1]
	{
		ldc r11, 0
		nop
	}
.Ltmp39:
	ldw r4, cp[.LCPI4_2]
	.loc	1 13 5
.Ltmp40:
	#APP
	maccs r11,r4,r1,r3
	#NO_APP
	{
		ldc r1, 24
		nop
	}
	.loc	1 14 5
	#APP
	lextract r1,r11,r4,r1,32
	#NO_APP
	bu .LBB4_5
.Ltmp41:
.LBB4_1:
	{
		ldc r0, 0
		nop
	}
	bu .LBB4_6
.LBB4_4:
.Ltmp42:
	.loc	1 89 9
	{
		neg r1, r1
		nop
	}
.Ltmp43:
	ldw r2, cp[.LCPI4_0]
.Ltmp44:
	.loc	1 90 9
	{
		shl r2, r2, r1
		shr r1, r0, r1
	}
.Ltmp45:
	ldw r3, cp[.LCPI4_1]
	{
		ldc r11, 0
		nop
	}
.Ltmp46:
	ldw r4, cp[.LCPI4_2]
	.loc	1 13 5
.Ltmp47:
	#APP
	maccs r11,r4,r1,r3
	#NO_APP
	{
		ldc r1, 24
		nop
	}
	.loc	1 14 5
	#APP
	lextract r1,r11,r4,r1,32
	#NO_APP
.Ltmp48:
.LBB4_5:
	.loc	1 90 45
	{
		add r2, r1, r2
		nop
	}
.Ltmp49:
	.loc	1 86 45
	ashr r3, r2, 32
.Ltmp50:
	.loc	1 60 5
	{
		shr r1, r0, 8
		shl r0, r0, 24
	}
.Ltmp51:
	{
		ldc r11, 0
		nop
	}
.Ltmp52:
	.loc	1 64 5
	#APP
	ldivu r4,r11,r1,r0,r2
	#NO_APP
.Ltmp53:
	.loc	1 97 28
	ladd r4, r2, r4, r2, r11
.Ltmp54:
	{
		add r3, r3, r4
		mkmsk r4, 5
	}
	.loc	1 97 28
	{
		shl r5, r3, r4
		shr r2, r2, 1
	}
.Ltmp55:
	{
		or r2, r2, r5
		shr r3, r3, 1
	}
	.loc	1 64 5
.Ltmp56:
	#APP
	ldivu r5,r11,r1,r0,r2
	#NO_APP
.Ltmp57:
	.loc	1 97 28
	ladd r5, r2, r5, r2, r11
	{
		add r3, r3, r5
		nop
	}
	.loc	1 97 28
	{
		shl r5, r3, r4
		shr r2, r2, 1
	}
	{
		or r2, r2, r5
		shr r3, r3, 1
	}
	.loc	1 64 5
.Ltmp58:
	#APP
	ldivu r0,r11,r1,r0,r2
	#NO_APP
.Ltmp59:
	.loc	1 97 28
	ladd r1, r0, r0, r2, r11
	{
		add r1, r3, r1
		nop
	}
	.loc	1 97 28
	{
		shl r1, r1, r4
		shr r0, r0, 1
	}
	{
		or r0, r0, r1
		nop
	}
.Ltmp60:
.LBB4_6:
	.loc	1 102 1
	ldd r5, r4, sp[0]
	{
		ldaw sp, sp[2]
		nop
	}
	{
		nop
		retsp 0
	}
	# RETURN_REG_HOLDER
.Ltmp61:
	.cc_bottom dsp_math_sqrt.function
	.set	dsp_math_sqrt.nstackwords,2
	.globl	dsp_math_sqrt.nstackwords
	.set	dsp_math_sqrt.maxcores,1
	.globl	dsp_math_sqrt.maxcores
	.set	dsp_math_sqrt.maxtimers,0
	.globl	dsp_math_sqrt.maxtimers
	.set	dsp_math_sqrt.maxchanends,0
	.globl	dsp_math_sqrt.maxchanends
.Ltmp62:
	.size	dsp_math_sqrt, .Ltmp62-dsp_math_sqrt
.Lfunc_end4:
	.file	2 "C:\\Program Files (x86)\\XMOS\\xTIMEcomposer\\Community_14.3.3\\target/include\\stdint.h"
	.cfi_endproc

	.section	.cp.rodata.cst4,"aMc",@progbits,4
	.cc_top .LCPI5_0.data,.LCPI5_0
	.align	4
	.type	.LCPI5_0,@object
	.size	.LCPI5_0, 4
.LCPI5_0:
	.long	10680707
	.cc_bottom .LCPI5_0.data
	.cc_top .LCPI5_1.data,.LCPI5_1
	.align	4
	.type	.LCPI5_1,@object
	.size	.LCPI5_1, 4
.LCPI5_1:
	.long	8388608
	.cc_bottom .LCPI5_1.data
	.cc_top .LCPI5_2.data,.LCPI5_2
	.align	4
	.type	.LCPI5_2,@object
	.size	.LCPI5_2, 4
.LCPI5_2:
	.long	4189552939
	.cc_bottom .LCPI5_2.data
	.cc_top .LCPI5_3.data,.LCPI5_3
	.align	4
	.type	.LCPI5_3,@object
	.size	.LCPI5_3, 4
.LCPI5_3:
	.long	4242260117
	.cc_bottom .LCPI5_3.data
	.cc_top .LCPI5_4.data,.LCPI5_4
	.align	4
	.type	.LCPI5_4,@object
	.size	.LCPI5_4, 4
.LCPI5_4:
	.long	52707179
	.cc_bottom .LCPI5_4.data
	.cc_top .LCPI5_5.data,.LCPI5_5
	.align	4
	.type	.LCPI5_5,@object
	.size	.LCPI5_5, 4
.LCPI5_5:
	.long	4294541934
	.cc_bottom .LCPI5_5.data
	.cc_top .LCPI5_6.data,.LCPI5_6
	.align	4
	.type	.LCPI5_6,@object
	.size	.LCPI5_6, 4
.LCPI5_6:
	.long	8947516
	.cc_bottom .LCPI5_6.data
	.cc_top .LCPI5_7.data,.LCPI5_7
	.align	4
	.type	.LCPI5_7,@object
	.size	.LCPI5_7, 4
.LCPI5_7:
	.long	4205488864
	.cc_bottom .LCPI5_7.data
	.text
	.globl	dsp_math_sin
	.align	4
	.type	dsp_math_sin,@function
	.cc_top dsp_math_sin.function,dsp_math_sin
dsp_math_sin:
.Lfunc_begin5:
	.loc	1 116 0
	.cfi_startproc
	.issue_mode dual
	{
		nop
		dualentsp 0
	}
	{
		extsp 4
		nop
	}
.Ltmp63:
	.cfi_def_cfa_offset 16
	std r5, r4, sp[0]
.Ltmp64:
	.cfi_offset 4, -16
.Ltmp65:
	.cfi_offset 5, -12
	std r7, r6, sp[1]
.Ltmp66:
	.cfi_offset 6, -8
.Ltmp67:
	.cfi_offset 7, -4
.Ltmp68:
	.loc	1 121 9 prologue_end
	ashr r1, r0, 32
	{
		add r2, r0, r1
		mkmsk r0, 1
	}
.Ltmp69:
	.loc	1 121 9
	{
		or r0, r1, r0
		nop
	}
	.loc	1 121 9
	xor r11, r2, r1
.Ltmp70:
	ldw r3, cp[.LCPI5_0]
	{
		ldc r1, 0
		nop
	}
.Ltmp71:
	ldw r2, cp[.LCPI5_1]
.Ltmp72:
	.loc	1 13 5
	{
		mov r4, r1
		mov r5, r2
	}
	#APP
	maccs r4,r5,r11,r3
	#NO_APP
	{
		ldc r3, 24
		nop
	}
	.loc	1 14 5
	#APP
	lextract r5,r4,r5,r3,32
	#NO_APP
.Ltmp73:
	.loc	1 129 14
	ashr r4, r5, 24
.Ltmp74:
	{
		ldc r6, 26
		nop
	}
	.loc	1 130 5
	ashr r5, r5, r6
.Ltmp75:
	ldw r6, cp[.LCPI5_2]
	.loc	1 130 5
	mul r5, r5, r6
.Ltmp76:
	.loc	1 130 5
	{
		add r11, r5, r11
		ldc r5, 2
	}
.Ltmp77:
	.loc	1 131 9
	{
		and r5, r4, r5
		nop
	}
	bf r5, .LBB5_2
.Ltmp78:
	.loc	1 132 9
	{
		neg r0, r0
		nop
	}
.Ltmp79:
	ldw r5, cp[.LCPI5_3]
	.loc	1 133 9
	{
		add r11, r11, r5
		nop
	}
.Ltmp80:
.LBB5_2:
	.loc	1 135 9
	{
		zext r4, 1
		nop
	}
.Ltmp81:
	bf r4, .LBB5_4
	ldw r4, cp[.LCPI5_4]
	.loc	1 136 9
.Ltmp82:
	{
		sub r11, r4, r11
		nop
	}
.Ltmp83:
.LBB5_4:
	.loc	1 13 5
	{
		mov r4, r1
		mov r5, r2
	}
	#APP
	maccs r4,r5,r11,r11
	#NO_APP
	.loc	1 14 5
	#APP
	lextract r4,r4,r5,r3,32
	#NO_APP
.Ltmp84:
	.loc	1 138 12
	{
		add r4, r4, 1
		nop
	}
.Ltmp85:
	.loc	1 138 12
	ashr r4, r4, 1
.Ltmp86:
	ldc r5, 11175
	.loc	1 13 5
.Ltmp87:
	{
		mov r6, r1
		mov r7, r2
	}
	#APP
	maccs r6,r7,r5,r4
	#NO_APP
	.loc	1 14 5
	#APP
	lextract r5,r6,r7,r3,32
	#NO_APP
.Ltmp88:
	ldw r6, cp[.LCPI5_5]
.Ltmp89:
	.loc	1 144 21
	{
		add r5, r5, r6
		mov r6, r1
	}
.Ltmp90:
	.loc	1 13 5
	{
		mov r7, r2
		nop
	}
	#APP
	maccs r6,r7,r5,r4
	#NO_APP
	.loc	1 14 5
	#APP
	lextract r5,r6,r7,r3,32
	#NO_APP
.Ltmp91:
	ldw r6, cp[.LCPI5_6]
.Ltmp92:
	.loc	1 143 19
	{
		add r5, r5, r6
		mov r6, r1
	}
.Ltmp93:
	.loc	1 13 5
	{
		mov r7, r2
		nop
	}
	#APP
	maccs r6,r7,r5,r4
	#NO_APP
	.loc	1 14 5
	#APP
	lextract r5,r6,r7,r3,32
	#NO_APP
.Ltmp94:
	ldw r6, cp[.LCPI5_7]
.Ltmp95:
	.loc	1 142 17
	{
		add r5, r5, r6
		mov r6, r1
	}
.Ltmp96:
	.loc	1 13 5
	{
		mov r7, r2
		nop
	}
	#APP
	maccs r6,r7,r5,r4
	#NO_APP
	.loc	1 14 5
	#APP
	lextract r4,r6,r7,r3,32
	#NO_APP
.Ltmp97:
	.loc	1 13 5
	#APP
	maccs r1,r2,r4,r11
	#NO_APP
	.loc	1 14 5
	#APP
	lextract r1,r1,r2,r3,32
	#NO_APP
.Ltmp98:
	.loc	1 140 15
	{
		add r1, r1, 6
		nop
	}
.Ltmp99:
	.loc	1 140 15
	ashr r1, r1, 4
	.loc	1 140 15
	{
		add r1, r1, r11
		nop
	}
	.loc	1 140 15
	mul r0, r1, r0
	.loc	1 140 15
	ldd r7, r6, sp[1]
	ldd r5, r4, sp[0]
.Ltmp100:
	{
		ldaw sp, sp[4]
		nop
	}
	{
		nop
		retsp 0
	}
	# RETURN_REG_HOLDER
.Ltmp101:
	.cc_bottom dsp_math_sin.function
	.set	dsp_math_sin.nstackwords,4
	.globl	dsp_math_sin.nstackwords
	.set	dsp_math_sin.maxcores,1
	.globl	dsp_math_sin.maxcores
	.set	dsp_math_sin.maxtimers,0
	.globl	dsp_math_sin.maxtimers
	.set	dsp_math_sin.maxchanends,0
	.globl	dsp_math_sin.maxchanends
.Ltmp102:
	.size	dsp_math_sin, .Ltmp102-dsp_math_sin
.Lfunc_end5:
	.cfi_endproc

	.section	.cp.rodata.cst4,"aMc",@progbits,4
	.cc_top .LCPI6_0.data,.LCPI6_0
	.align	4
	.type	.LCPI6_0,@object
	.size	.LCPI6_0, 4
.LCPI6_0:
	.long	62613430
	.cc_bottom .LCPI6_0.data
	.cc_top .LCPI6_1.data,.LCPI6_1
	.align	4
	.type	.LCPI6_1,@object
	.size	.LCPI6_1, 4
.LCPI6_1:
	.long	16777217
	.cc_bottom .LCPI6_1.data
	.cc_top .LCPI6_2.data,.LCPI6_2
	.align	4
	.type	.LCPI6_2,@object
	.size	.LCPI6_2, 4
.LCPI6_2:
	.long	4495442
	.cc_bottom .LCPI6_2.data
	.cc_top .LCPI6_3.data,.LCPI6_3
	.align	4
	.type	.LCPI6_3,@object
	.size	.LCPI6_3, 4
.LCPI6_3:
	.long	232471924
	.cc_bottom .LCPI6_3.data
	.cc_top .LCPI6_4.data,.LCPI6_4
	.align	4
	.type	.LCPI6_4,@object
	.size	.LCPI6_4, 4
.LCPI6_4:
	.long	134217728
	.cc_bottom .LCPI6_4.data
	.cc_top .LCPI6_5.data,.LCPI6_5
	.align	4
	.type	.LCPI6_5,@object
	.size	.LCPI6_5, 4
.LCPI6_5:
	.long	140552476
	.cc_bottom .LCPI6_5.data
	.cc_top .LCPI6_6.data,.LCPI6_6
	.align	4
	.type	.LCPI6_6,@object
	.size	.LCPI6_6, 4
.LCPI6_6:
	.long	4160749568
	.cc_bottom .LCPI6_6.data
	.cc_top .LCPI6_7.data,.LCPI6_7
	.align	4
	.type	.LCPI6_7,@object
	.size	.LCPI6_7, 4
.LCPI6_7:
	.long	4062495372
	.cc_bottom .LCPI6_7.data
	.cc_top .LCPI6_8.data,.LCPI6_8
	.align	4
	.type	.LCPI6_8,@object
	.size	.LCPI6_8, 4
.LCPI6_8:
	.long	281104952
	.cc_bottom .LCPI6_8.data
	.cc_top .LCPI6_9.data,.LCPI6_9
	.align	4
	.type	.LCPI6_9,@object
	.size	.LCPI6_9, 4
.LCPI6_9:
	.long	1048576
	.cc_bottom .LCPI6_9.data
	.cc_top .LCPI6_10.data,.LCPI6_10
	.align	4
	.type	.LCPI6_10,@object
	.size	.LCPI6_10, 4
.LCPI6_10:
	.long	421657428
	.cc_bottom .LCPI6_10.data
	.cc_top .LCPI6_11.data,.LCPI6_11
	.align	4
	.type	.LCPI6_11,@object
	.size	.LCPI6_11, 4
.LCPI6_11:
	.long	13665937
	.cc_bottom .LCPI6_11.data
	.cc_top .LCPI6_12.data,.LCPI6_12
	.align	4
	.type	.LCPI6_12,@object
	.size	.LCPI6_12, 4
.LCPI6_12:
	.long	126388141
	.cc_bottom .LCPI6_12.data
	.cc_top .LCPI6_13.data,.LCPI6_13
	.align	4
	.type	.LCPI6_13,@object
	.size	.LCPI6_13, 4
.LCPI6_13:
	.long	379165280
	.cc_bottom .LCPI6_13.data
	.cc_top .LCPI6_14.data,.LCPI6_14
	.align	4
	.type	.LCPI6_14,@object
	.size	.LCPI6_14, 4
.LCPI6_14:
	.long	268435456
	.cc_bottom .LCPI6_14.data
	.text
	.globl	dsp_math_atan
	.align	4
	.type	dsp_math_atan,@function
	.cc_top dsp_math_atan.function,dsp_math_atan
dsp_math_atan:
.Lfunc_begin6:
	.loc	1 165 0
	.cfi_startproc
	.issue_mode dual
	{
		nop
		dualentsp 0
	}
	{
		extsp 6
		nop
	}
.Ltmp103:
	.cfi_def_cfa_offset 24
	std r5, r4, sp[0]
.Ltmp104:
	.cfi_offset 4, -24
.Ltmp105:
	.cfi_offset 5, -20
	std r7, r6, sp[1]
.Ltmp106:
	.cfi_offset 6, -16
.Ltmp107:
	.cfi_offset 7, -12
	{
		nop
		stw r8, sp[4]
	}
.Ltmp108:
	.cfi_offset 8, -8
	ashr r1, r0, 32
	{
		add r0, r0, r1
		nop
	}
.Ltmp109:
	.loc	1 167 9 prologue_end
	xor r2, r0, r1
	ldw r0, cp[.LCPI6_0]
.Ltmp110:
	.loc	1 172 9
	{
		lss r0, r2, r0
		nop
	}
	bt r0, .LBB6_2
.Ltmp111:
	ldw r0, cp[.LCPI6_9]
	{
		ldc r3, 0
		nop
	}
	.loc	1 175 9
.Ltmp112:
	#APP
	ldivu r0,r2,r0,r3,r2

	#NO_APP
	ldw r2, cp[.LCPI6_10]
	bu .LBB6_13
.Ltmp113:
.LBB6_2:
	ldw r0, cp[.LCPI6_1]
	.loc	1 177 16
.Ltmp114:
	{
		lss r0, r2, r0
		nop
	}
	bt r0, .LBB6_7
.Ltmp115:
	.loc	1 179 9
	{
		shl r3, r2, 4
		ldc r0, 0
	}
.Ltmp116:
	ldw r4, cp[.LCPI6_4]
	.loc	1 13 5
.Ltmp117:
	{
		mov r2, r4
		mov r11, r0
	}
	#APP
	maccs r11,r2,r4,r3
	#NO_APP
	{
		ldc r5, 28
		nop
	}
	.loc	1 14 5
	#APP
	lextract r2,r11,r2,r5,32
	#NO_APP
.Ltmp118:
	ldw r11, cp[.LCPI6_3]
.Ltmp119:
	.loc	1 13 5
	{
		mov r6, r0
		mov r7, r4
	}
	#APP
	maccs r6,r7,r11,r3
	#NO_APP
	.loc	1 14 5
	#APP
	lextract r3,r6,r7,r5,32
	#NO_APP
.Ltmp120:
	.loc	1 181 35
	{
		add r3, r3, r4
		lsu r4, r11, r2
	}
.Ltmp121:
	.loc	1 182 13
	bt r4, .LBB6_6
.Ltmp122:
	.loc	1 183 13
	{
		sub r2, r11, r2
		nop
	}
.Ltmp123:
	.loc	1 184 13
	#APP
	ldivu r0,r2,r2,r0,r3

	#NO_APP
	bu .LBB6_5
.Ltmp124:
.LBB6_7:
	.loc	1 193 9
	{
		shl r0, r2, 4
		nop
	}
.Ltmp125:
	ldw r3, cp[.LCPI6_2]
.Ltmp126:
	.loc	1 191 16
	{
		lss r2, r2, r3
		nop
	}
	bt r2, .LBB6_8
.Ltmp127:
	ldw r4, cp[.LCPI6_3]
	{
		ldc r2, 0
		nop
	}
	ldw r3, cp[.LCPI6_4]
	.loc	1 13 5
.Ltmp128:
	{
		mov r11, r3
		mov r5, r2
	}
	#APP
	maccs r5,r11,r4,r0
	#NO_APP
	{
		ldc r6, 28
		nop
	}
	.loc	1 14 5
	#APP
	lextract r11,r5,r11,r6,32
	#NO_APP
.Ltmp129:
	.loc	1 195 9
	ashr r0, r0, 1
.Ltmp130:
	.loc	1 195 9
	{
		add r0, r0, r4
		ldc r4, 27
	}
.Ltmp131:
	.loc	1 196 13
	{
		shr r4, r11, r4
		nop
	}
	bf r4, .LBB6_11
.Ltmp132:
	ldw r3, cp[.LCPI6_6]
	.loc	1 197 13
.Ltmp133:
	{
		add r3, r11, r3
		nop
	}
.Ltmp134:
	.loc	1 198 13
	#APP
	ldivu r0,r2,r3,r2,r0

	#NO_APP
.Ltmp135:
	bu .LBB6_12
.Ltmp136:
.LBB6_6:
	ldw r11, cp[.LCPI6_7]
	.loc	1 187 13
.Ltmp137:
	{
		add r2, r2, r11
		nop
	}
.Ltmp138:
	.loc	1 188 13
	#APP
	ldivu r0,r2,r2,r0,r3

	#NO_APP
	.loc	1 189 13
	{
		neg r0, r0
		nop
	}
.Ltmp139:
.LBB6_5:
	.loc	1 185 13
	ashr r0, r0, 4
.Ltmp140:
	ldw r2, cp[.LCPI6_8]
	bu .LBB6_13
.Ltmp141:
.LBB6_8:
	{
		ldc r2, 0
		nop
	}
	bu .LBB6_13
.Ltmp142:
.LBB6_11:
	.loc	1 201 13
	{
		sub r3, r3, r11
		nop
	}
.Ltmp143:
	.loc	1 202 13
	#APP
	ldivu r0,r2,r3,r2,r0

	#NO_APP
.Ltmp144:
	.loc	1 203 13
	{
		neg r0, r0
		nop
	}
.Ltmp145:
.LBB6_12:
	.loc	1 203 13
	ashr r0, r0, 4
.Ltmp146:
	ldw r2, cp[.LCPI6_5]
.Ltmp147:
.LBB6_13:
	{
		ldc r3, 0
		nop
	}
	ldw r11, cp[.LCPI6_4]
	.loc	1 13 5
.Ltmp148:
	{
		mov r5, r3
		mov r6, r11
	}
	#APP
	maccs r5,r6,r0,r0
	#NO_APP
	{
		ldc r4, 28
		nop
	}
	.loc	1 14 5
	#APP
	lextract r5,r5,r6,r4,32
	#NO_APP
.Ltmp149:
	ldw r6, cp[.LCPI6_11]
.Ltmp150:
	.loc	1 13 5
	{
		mov r7, r11
		mov r8, r3
	}
	#APP
	maccs r8,r7,r6,r5
	#NO_APP
	.loc	1 14 5
	#APP
	lextract r6,r8,r7,r4,32
	#NO_APP
.Ltmp151:
	ldw r7, cp[.LCPI6_12]
.Ltmp152:
	.loc	1 213 38
	{
		add r6, r6, r7
		mov r7, r3
	}
.Ltmp153:
	.loc	1 13 5
	{
		mov r8, r11
		nop
	}
	#APP
	maccs r7,r8,r6,r5
	#NO_APP
	.loc	1 14 5
	#APP
	lextract r6,r7,r8,r4,32
	#NO_APP
.Ltmp154:
	.loc	1 13 5
	{
		mov r7, r11
		mov r8, r3
	}
	#APP
	maccs r8,r7,r11,r5
	#NO_APP
	.loc	1 14 5
	#APP
	lextract r5,r8,r7,r4,32
	#NO_APP
.Ltmp155:
	.loc	1 215 5
	{
		shr r7, r6, 4
		shl r6, r6, r4
	}
.Ltmp156:
	ldw r8, cp[.LCPI6_13]
	.loc	1 215 5
	lda16 r5, r8[r5]
.Ltmp157:
	.loc	1 215 5
	#APP
	ldivu r5,r6,r7,r6,r5

	#NO_APP
	.loc	1 217 23
	{
		neg r5, r5
		nop
	}
.Ltmp158:
	.loc	1 13 5
	#APP
	maccs r3,r11,r0,r5
	#NO_APP
	.loc	1 14 5
	#APP
	lextract r3,r3,r11,r4,32
	#NO_APP
.Ltmp159:
	.loc	1 217 23
	{
		add r0, r3, r0
		nop
	}
.Ltmp160:
	ldw r3, cp[.LCPI6_14]
.Ltmp161:
	.loc	1 218 9
	{
		and r3, r2, r3
		nop
	}
	bf r3, .LBB6_15
.Ltmp162:
	.loc	1 219 9
	{
		neg r0, r0
		nop
	}
.Ltmp163:
.LBB6_15:
	.loc	1 221 5
	{
		add r0, r0, r2
		nop
	}
.Ltmp164:
	bf r1, .LBB6_17
.Ltmp165:
	.loc	1 223 9
	{
		neg r0, r0
		nop
	}
.Ltmp166:
.LBB6_17:
	.loc	1 225 5
	{
		add r0, r0, 8
		nop
	}
	.loc	1 225 5
	ashr r0, r0, 4
	{
		nop
		ldw r8, sp[4]
	}
	.loc	1 225 5
	ldd r7, r6, sp[1]
	ldd r5, r4, sp[0]
	{
		ldaw sp, sp[6]
		nop
	}
	{
		nop
		retsp 0
	}
	# RETURN_REG_HOLDER
.Ltmp167:
	.cc_bottom dsp_math_atan.function
	.set	dsp_math_atan.nstackwords,6
	.globl	dsp_math_atan.nstackwords
	.set	dsp_math_atan.maxcores,1
	.globl	dsp_math_atan.maxcores
	.set	dsp_math_atan.maxtimers,0
	.globl	dsp_math_atan.maxtimers
	.set	dsp_math_atan.maxchanends,0
	.globl	dsp_math_atan.maxchanends
.Ltmp168:
	.size	dsp_math_atan, .Ltmp168-dsp_math_atan
.Lfunc_end6:
	.cfi_endproc

	.section	.cp.rodata.cst4,"aMc",@progbits,4
	.cc_top .LCPI7_0.data,.LCPI7_0
	.align	4
	.type	.LCPI7_0,@object
	.size	.LCPI7_0, 4
.LCPI7_0:
	.long	8388607
	.cc_bottom .LCPI7_0.data
	.cc_top .LCPI7_1.data,.LCPI7_1
	.align	4
	.type	.LCPI7_1,@object
	.size	.LCPI7_1, 4
.LCPI7_1:
	.long	16777216
	.cc_bottom .LCPI7_1.data
	.cc_top .LCPI7_2.data,.LCPI7_2
	.align	4
	.type	.LCPI7_2,@object
	.size	.LCPI7_2, 4
.LCPI7_2:
	.long	4282885932
	.cc_bottom .LCPI7_2.data
	.cc_top .LCPI7_3.data,.LCPI7_3
	.align	4
	.type	.LCPI7_3,@object
	.size	.LCPI7_3, 4
.LCPI7_3:
	.long	33554432
	.cc_bottom .LCPI7_3.data
	.cc_top .LCPI7_4.data,.LCPI7_4
	.align	4
	.type	.LCPI7_4,@object
	.size	.LCPI7_4, 4
.LCPI7_4:
	.long	22369561
	.cc_bottom .LCPI7_4.data
	.cc_top .LCPI7_5.data,.LCPI7_5
	.align	4
	.type	.LCPI7_5,@object
	.size	.LCPI7_5, 4
.LCPI7_5:
	.long	23951925
	.cc_bottom .LCPI7_5.data
	.cc_top .LCPI7_6.data,.LCPI7_6
	.align	4
	.type	.LCPI7_6,@object
	.size	.LCPI7_6, 4
.LCPI7_6:
	.long	4162070824
	.cc_bottom .LCPI7_6.data
	.cc_top .LCPI7_7.data,.LCPI7_7
	.align	4
	.type	.LCPI7_7,@object
	.size	.LCPI7_7, 4
.LCPI7_7:
	.long	134217728
	.cc_bottom .LCPI7_7.data
	.cc_top .LCPI7_8.data,.LCPI7_8
	.align	4
	.type	.LCPI7_8,@object
	.size	.LCPI7_8, 4
.LCPI7_8:
	.long	26353589
	.cc_bottom .LCPI7_8.data
	.cc_top .LCPI7_9.data,.LCPI7_9
	.align	4
	.type	.LCPI7_9,@object
	.size	.LCPI7_9, 4
.LCPI7_9:
	.long	8388608
	.cc_bottom .LCPI7_9.data
	.text
	.globl	dsp_math_asin
	.align	4
	.type	dsp_math_asin,@function
	.cc_top dsp_math_asin.function,dsp_math_asin
dsp_math_asin:
.Lfunc_begin7:
	.loc	1 240 0
	.cfi_startproc
	.issue_mode dual
	{
		nop
		dualentsp 8
	}
.Ltmp169:
	.cfi_def_cfa_offset 32
.Ltmp170:
	.cfi_offset 15, 0
	std r5, r4, sp[1]
.Ltmp171:
	.cfi_offset 4, -24
.Ltmp172:
	.cfi_offset 5, -20
	std r7, r6, sp[2]
.Ltmp173:
	.cfi_offset 6, -16
.Ltmp174:
	.cfi_offset 7, -12
	{
		nop
		stw r8, sp[6]
	}
.Ltmp175:
	.cfi_offset 8, -8
.Ltmp176:
	.loc	1 245 9 prologue_end
	ashr r1, r0, 32
	{
		add r0, r0, r1
		mkmsk r2, 1
	}
.Ltmp177:
	.loc	1 245 9
	{
		or r5, r1, r2
		nop
	}
	.loc	1 245 9
	xor r0, r0, r1
.Ltmp178:
	ldc r1, 4096
.Ltmp179:
	.loc	1 253 9
	{
		lss r1, r0, r1
		nop
	}
	bt r1, .LBB7_4
.Ltmp180:
	ldw r1, cp[.LCPI7_0]
	.loc	1 256 13
.Ltmp181:
	{
		lss r1, r1, r0
		nop
	}
	bt r1, .LBB7_3
.Ltmp182:
	{
		ldc r1, 0
		nop
	}
	ldw r2, cp[.LCPI7_9]
	.loc	1 13 5
.Ltmp183:
	{
		mov r11, r1
		mov r4, r2
	}
	#APP
	maccs r11,r4,r0,r0
	#NO_APP
	{
		ldc r3, 24
		nop
	}
	.loc	1 14 5
	#APP
	lextract r11,r11,r4,r3,32
	#NO_APP
.Ltmp184:
	ldw r4, cp[.LCPI7_2]
.Ltmp185:
	.loc	1 13 5
	{
		mov r6, r1
		mov r7, r2
	}
	#APP
	maccs r6,r7,r4,r11
	#NO_APP
	.loc	1 14 5
	#APP
	lextract r4,r6,r7,r3,32
	#NO_APP
.Ltmp186:
	ldw r6, cp[.LCPI7_4]
.Ltmp187:
	.loc	1 260 21
	{
		add r4, r4, r6
		mov r6, r1
	}
.Ltmp188:
	.loc	1 13 5
	{
		mov r7, r2
		nop
	}
	#APP
	maccs r6,r7,r4,r11
	#NO_APP
	.loc	1 14 5
	#APP
	lextract r4,r6,r7,r3,32
	#NO_APP
.Ltmp189:
	ldw r6, cp[.LCPI7_5]
.Ltmp190:
	.loc	1 13 5
	{
		mov r7, r1
		mov r8, r2
	}
	#APP
	maccs r7,r8,r6,r11
	#NO_APP
	.loc	1 14 5
	#APP
	lextract r6,r7,r8,r3,32
	#NO_APP
.Ltmp191:
	ldw r7, cp[.LCPI7_6]
.Ltmp192:
	.loc	1 264 21
	{
		add r6, r6, r7
		mov r7, r1
	}
.Ltmp193:
	.loc	1 13 5
	#APP
	maccs r7,r2,r6,r11
	#NO_APP
	.loc	1 14 5
	#APP
	lextract r2,r7,r2,r3,32
	#NO_APP
.Ltmp194:
	ldw r3, cp[.LCPI7_7]
.Ltmp195:
	.loc	1 263 17
	{
		add r2, r2, r3
		mov r3, r1
	}
.Ltmp196:
	.loc	1 266 13
	maccs r1, r3, r4, r0
	.loc	1 268 13
	#APP
	ldivu r1,r2,r1,r3,r2

	#NO_APP
	.loc	1 269 13
	{
		add r0, r1, r0
		nop
	}
.Ltmp197:
	bu .LBB7_4
.Ltmp198:
.LBB7_3:
	ldw r1, cp[.LCPI7_1]
	.loc	1 271 13
.Ltmp199:
	{
		sub r0, r1, r0
		nop
	}
	.loc	1 271 13
	{
		shl r4, r0, 1
		nop
	}
.Ltmp200:
	.loc	1 272 19
	{
		mov r0, r4
		nop
	}
	bl dsp_math_sqrt
.Ltmp201:
	ldw r3, cp[.LCPI7_2]
	{
		ldc r1, 0
		nop
	}
.Ltmp202:
	ldw r2, cp[.LCPI7_3]
	.loc	1 13 5
.Ltmp203:
	{
		mov r11, r1
		mov r6, r2
	}
	#APP
	maccs r11,r6,r3,r4
	#NO_APP
	{
		ldc r3, 26
		nop
	}
	.loc	1 14 5
	#APP
	lextract r11,r11,r6,r3,32
	#NO_APP
.Ltmp204:
	ldw r6, cp[.LCPI7_4]
.Ltmp205:
	.loc	1 275 21
	{
		add r11, r11, r6
		mov r6, r2
	}
.Ltmp206:
	.loc	1 13 5
	{
		mov r7, r1
		nop
	}
	#APP
	maccs r7,r6,r11,r4
	#NO_APP
	.loc	1 14 5
	#APP
	lextract r11,r7,r6,r3,32
	#NO_APP
.Ltmp207:
	ldw r6, cp[.LCPI7_5]
.Ltmp208:
	.loc	1 13 5
	{
		mov r7, r1
		mov r8, r2
	}
	#APP
	maccs r7,r8,r6,r4
	#NO_APP
	.loc	1 14 5
	#APP
	lextract r6,r7,r8,r3,32
	#NO_APP
.Ltmp209:
	ldw r7, cp[.LCPI7_6]
.Ltmp210:
	.loc	1 279 21
	{
		add r6, r6, r7
		mov r7, r1
	}
.Ltmp211:
	.loc	1 13 5
	#APP
	maccs r7,r2,r6,r4
	#NO_APP
	.loc	1 14 5
	#APP
	lextract r2,r7,r2,r3,32
	#NO_APP
.Ltmp212:
	ldw r3, cp[.LCPI7_7]
.Ltmp213:
	.loc	1 278 17
	{
		add r2, r2, r3
		mov r3, r1
	}
.Ltmp214:
	.loc	1 281 13
	maccs r1, r3, r11, r0
	.loc	1 283 13
	#APP
	ldivu r1,r2,r1,r3,r2

	#NO_APP
	ldw r2, cp[.LCPI7_8]
	.loc	1 284 13
	{
		sub r0, r2, r0
		nop
	}
.Ltmp215:
	.loc	1 284 13
	{
		sub r0, r0, r1
		nop
	}
.Ltmp216:
.LBB7_4:
	.loc	1 287 5
	mul r0, r0, r5
	{
		nop
		ldw r8, sp[6]
	}
	.loc	1 287 5
	ldd r7, r6, sp[2]
	ldd r5, r4, sp[1]
	{
		nop
		retsp 8
	}
	# RETURN_REG_HOLDER
.Ltmp217:
	.cc_bottom dsp_math_asin.function
	.set	dsp_math_asin.nstackwords,(dsp_math_sqrt.nstackwords + 8)
	.globl	dsp_math_asin.nstackwords
	.set	dsp_math_asin.maxcores,dsp_math_sqrt.maxcores $M 1
	.globl	dsp_math_asin.maxcores
	.set	dsp_math_asin.maxtimers,dsp_math_sqrt.maxtimers $M 0
	.globl	dsp_math_asin.maxtimers
	.set	dsp_math_asin.maxchanends,dsp_math_sqrt.maxchanends $M 0
	.globl	dsp_math_asin.maxchanends
.Ltmp218:
	.size	dsp_math_asin, .Ltmp218-dsp_math_asin
.Lfunc_end7:
	.cfi_endproc

	.section	.cp.rodata.cst4,"aMc",@progbits,4
	.cc_top .LCPI8_0.data,.LCPI8_0
	.align	4
	.type	.LCPI8_0,@object
	.size	.LCPI8_0, 4
.LCPI8_0:
	.long	26353589
	.cc_bottom .LCPI8_0.data
	.cc_top .LCPI8_1.data,.LCPI8_1
	.align	4
	.type	.LCPI8_1,@object
	.size	.LCPI8_1, 4
.LCPI8_1:
	.long	8388607
	.cc_bottom .LCPI8_1.data
	.cc_top .LCPI8_2.data,.LCPI8_2
	.align	4
	.type	.LCPI8_2,@object
	.size	.LCPI8_2, 4
.LCPI8_2:
	.long	52707178
	.cc_bottom .LCPI8_2.data
	.cc_top .LCPI8_3.data,.LCPI8_3
	.align	4
	.type	.LCPI8_3,@object
	.size	.LCPI8_3, 4
.LCPI8_3:
	.long	16777216
	.cc_bottom .LCPI8_3.data
	.cc_top .LCPI8_4.data,.LCPI8_4
	.align	4
	.type	.LCPI8_4,@object
	.size	.LCPI8_4, 4
.LCPI8_4:
	.long	4282885932
	.cc_bottom .LCPI8_4.data
	.cc_top .LCPI8_5.data,.LCPI8_5
	.align	4
	.type	.LCPI8_5,@object
	.size	.LCPI8_5, 4
.LCPI8_5:
	.long	33554432
	.cc_bottom .LCPI8_5.data
	.cc_top .LCPI8_6.data,.LCPI8_6
	.align	4
	.type	.LCPI8_6,@object
	.size	.LCPI8_6, 4
.LCPI8_6:
	.long	22369561
	.cc_bottom .LCPI8_6.data
	.cc_top .LCPI8_7.data,.LCPI8_7
	.align	4
	.type	.LCPI8_7,@object
	.size	.LCPI8_7, 4
.LCPI8_7:
	.long	23951925
	.cc_bottom .LCPI8_7.data
	.cc_top .LCPI8_8.data,.LCPI8_8
	.align	4
	.type	.LCPI8_8,@object
	.size	.LCPI8_8, 4
.LCPI8_8:
	.long	4162070824
	.cc_bottom .LCPI8_8.data
	.cc_top .LCPI8_9.data,.LCPI8_9
	.align	4
	.type	.LCPI8_9,@object
	.size	.LCPI8_9, 4
.LCPI8_9:
	.long	134217728
	.cc_bottom .LCPI8_9.data
	.cc_top .LCPI8_10.data,.LCPI8_10
	.align	4
	.type	.LCPI8_10,@object
	.size	.LCPI8_10, 4
.LCPI8_10:
	.long	8388608
	.cc_bottom .LCPI8_10.data
	.text
	.globl	dsp_math_acos
	.align	4
	.type	dsp_math_acos,@function
	.cc_top dsp_math_acos.function,dsp_math_acos
dsp_math_acos:
.Lfunc_begin8:
	.loc	1 290 0
	.cfi_startproc
	.issue_mode dual
	{
		nop
		dualentsp 8
	}
.Ltmp219:
	.cfi_def_cfa_offset 32
.Ltmp220:
	.cfi_offset 15, 0
	std r5, r4, sp[1]
.Ltmp221:
	.cfi_offset 4, -24
.Ltmp222:
	.cfi_offset 5, -20
	std r7, r6, sp[2]
.Ltmp223:
	.cfi_offset 6, -16
.Ltmp224:
	.cfi_offset 7, -12
	std r9, r8, sp[3]
.Ltmp225:
	.cfi_offset 8, -8
.Ltmp226:
	.cfi_offset 9, -4
.Ltmp227:
	ashr r6, r0, 32
	{
		add r0, r0, r6
		nop
	}
.Ltmp228:
	.loc	1 296 9 prologue_end
	xor r0, r0, r6
.Ltmp229:
	ldc r1, 4096
.Ltmp230:
	.loc	1 304 9
	{
		lss r1, r0, r1
		nop
	}
	ldw r5, cp[.LCPI8_0]
	bt r1, .LBB8_4
.Ltmp231:
	ldw r1, cp[.LCPI8_1]
	.loc	1 308 13
.Ltmp232:
	{
		lss r1, r1, r0
		nop
	}
	bt r1, .LBB8_3
.Ltmp233:
	{
		ldc r1, 0
		nop
	}
	ldw r2, cp[.LCPI8_10]
	.loc	1 13 5
.Ltmp234:
	{
		mov r11, r1
		mov r4, r2
	}
	#APP
	maccs r11,r4,r0,r0
	#NO_APP
	{
		ldc r3, 24
		nop
	}
	.loc	1 14 5
	#APP
	lextract r11,r11,r4,r3,32
	#NO_APP
.Ltmp235:
	ldw r4, cp[.LCPI8_4]
.Ltmp236:
	.loc	1 13 5
	{
		mov r7, r1
		mov r8, r2
	}
	#APP
	maccs r7,r8,r4,r11
	#NO_APP
	.loc	1 14 5
	#APP
	lextract r4,r7,r8,r3,32
	#NO_APP
.Ltmp237:
	ldw r7, cp[.LCPI8_6]
.Ltmp238:
	.loc	1 313 21
	{
		add r4, r4, r7
		mov r7, r1
	}
.Ltmp239:
	.loc	1 13 5
	{
		mov r8, r2
		nop
	}
	#APP
	maccs r7,r8,r4,r11
	#NO_APP
	.loc	1 14 5
	#APP
	lextract r4,r7,r8,r3,32
	#NO_APP
.Ltmp240:
	ldw r7, cp[.LCPI8_7]
.Ltmp241:
	.loc	1 13 5
	{
		mov r8, r1
		mov r9, r2
	}
	#APP
	maccs r8,r9,r7,r11
	#NO_APP
	.loc	1 14 5
	#APP
	lextract r7,r8,r9,r3,32
	#NO_APP
.Ltmp242:
	ldw r8, cp[.LCPI8_8]
.Ltmp243:
	.loc	1 317 21
	{
		add r7, r7, r8
		mov r8, r1
	}
.Ltmp244:
	.loc	1 13 5
	#APP
	maccs r8,r2,r7,r11
	#NO_APP
	.loc	1 14 5
	#APP
	lextract r2,r8,r2,r3,32
	#NO_APP
.Ltmp245:
	ldw r3, cp[.LCPI8_9]
.Ltmp246:
	.loc	1 316 17
	{
		add r2, r2, r3
		mov r3, r1
	}
.Ltmp247:
	.loc	1 320 13
	maccs r1, r3, r4, r0
	.loc	1 322 13
	#APP
	ldivu r1,r2,r1,r3,r2

	#NO_APP
	.loc	1 324 13
	{
		add r0, r1, r0
		nop
	}
.Ltmp248:
	bu .LBB8_4
.Ltmp249:
.LBB8_3:
	ldw r1, cp[.LCPI8_2]
	.loc	1 326 13
.Ltmp250:
	{
		and r5, r6, r1
		nop
	}
.Ltmp251:
	ldw r1, cp[.LCPI8_3]
	.loc	1 327 13
	{
		sub r0, r1, r0
		nop
	}
	.loc	1 327 13
	{
		shl r4, r0, 1
		nop
	}
.Ltmp252:
	.loc	1 328 19
	{
		mov r0, r4
		nop
	}
	bl dsp_math_sqrt
.Ltmp253:
	ldw r3, cp[.LCPI8_4]
	{
		ldc r1, 0
		nop
	}
.Ltmp254:
	ldw r2, cp[.LCPI8_5]
	.loc	1 13 5
.Ltmp255:
	{
		mov r11, r1
		mov r7, r2
	}
	#APP
	maccs r11,r7,r3,r4
	#NO_APP
	{
		ldc r3, 26
		nop
	}
	.loc	1 14 5
	#APP
	lextract r11,r11,r7,r3,32
	#NO_APP
.Ltmp256:
	ldw r7, cp[.LCPI8_6]
.Ltmp257:
	.loc	1 331 21
	{
		add r11, r11, r7
		mov r7, r1
	}
.Ltmp258:
	.loc	1 13 5
	{
		mov r8, r2
		nop
	}
	#APP
	maccs r7,r8,r11,r4
	#NO_APP
	.loc	1 14 5
	#APP
	lextract r11,r7,r8,r3,32
	#NO_APP
.Ltmp259:
	ldw r7, cp[.LCPI8_7]
.Ltmp260:
	.loc	1 13 5
	{
		mov r8, r1
		mov r9, r2
	}
	#APP
	maccs r8,r9,r7,r4
	#NO_APP
	.loc	1 14 5
	#APP
	lextract r7,r8,r9,r3,32
	#NO_APP
.Ltmp261:
	ldw r8, cp[.LCPI8_8]
.Ltmp262:
	.loc	1 335 21
	{
		add r7, r7, r8
		mov r8, r1
	}
.Ltmp263:
	.loc	1 13 5
	#APP
	maccs r8,r2,r7,r4
	#NO_APP
	.loc	1 14 5
	#APP
	lextract r2,r8,r2,r3,32
	#NO_APP
.Ltmp264:
	ldw r3, cp[.LCPI8_9]
.Ltmp265:
	.loc	1 334 17
	{
		add r2, r2, r3
		mov r3, r1
	}
.Ltmp266:
	.loc	1 338 13
	maccs r1, r3, r11, r0
	.loc	1 340 13
	#APP
	ldivu r1,r2,r1,r3,r2

	#NO_APP
	.loc	1 342 13
	{
		add r0, r0, r1
		nop
	}
.Ltmp267:
	.loc	1 342 13
	{
		neg r0, r0
		nop
	}
.Ltmp268:
.LBB8_4:
	bt r6, .LBB8_6
	.loc	1 345 9
.Ltmp269:
	{
		neg r0, r0
		nop
	}
.LBB8_6:
	.loc	1 345 9
	{
		add r0, r0, r5
		nop
	}
.Ltmp270:
	.loc	1 350 1
	ldd r9, r8, sp[3]
	ldd r7, r6, sp[2]
	ldd r5, r4, sp[1]
	{
		nop
		retsp 8
	}
	# RETURN_REG_HOLDER
.Ltmp271:
	.cc_bottom dsp_math_acos.function
	.set	dsp_math_acos.nstackwords,(dsp_math_sqrt.nstackwords + 8)
	.globl	dsp_math_acos.nstackwords
	.set	dsp_math_acos.maxcores,dsp_math_sqrt.maxcores $M 1
	.globl	dsp_math_acos.maxcores
	.set	dsp_math_acos.maxtimers,dsp_math_sqrt.maxtimers $M 0
	.globl	dsp_math_acos.maxtimers
	.set	dsp_math_acos.maxchanends,dsp_math_sqrt.maxchanends $M 0
	.globl	dsp_math_acos.maxchanends
.Ltmp272:
	.size	dsp_math_acos, .Ltmp272-dsp_math_acos
.Lfunc_end8:
	.cfi_endproc

	.globl	dsp_math_round
	.align	4
	.type	dsp_math_round,@function
	.cc_top dsp_math_round.function,dsp_math_round
dsp_math_round:
.Lfunc_begin9:
	.loc	1 353 0
	.cfi_startproc
	.issue_mode dual
	{
		sub r2, r1, 1
		dualentsp 0
	}
	{
		mkmsk r3, 1
		nop
	}
	.loc	1 355 5 prologue_end
.Ltmp273:
	{
		shl r2, r3, r2
		nop
	}
	.loc	1 355 5
	{
		add r0, r2, r0
		mkmsk r2, 32
	}
.Ltmp274:
	.loc	1 355 5
	{
		shl r1, r2, r1
		nop
	}
.Ltmp275:
	.loc	1 355 5
	{
		and r0, r0, r1
		retsp 0
	}
	.loc	1 355 5
	# RETURN_REG_HOLDER
.Ltmp276:
	.cc_bottom dsp_math_round.function
	.set	dsp_math_round.nstackwords,0
	.globl	dsp_math_round.nstackwords
	.set	dsp_math_round.maxcores,1
	.globl	dsp_math_round.maxcores
	.set	dsp_math_round.maxtimers,0
	.globl	dsp_math_round.maxtimers
	.set	dsp_math_round.maxchanends,0
	.globl	dsp_math_round.maxchanends
.Ltmp277:
	.size	dsp_math_round, .Ltmp277-dsp_math_round
.Lfunc_end9:
	.cfi_endproc

	.section	.cp.rodata.cst4,"aMc",@progbits,4
	.cc_top .LCPI10_0.data,.LCPI10_0
	.align	4
	.type	.LCPI10_0,@object
	.size	.LCPI10_0, 4
.LCPI10_0:
	.long	81403559
	.cc_bottom .LCPI10_0.data
	.cc_top .LCPI10_1.data,.LCPI10_1
	.align	4
	.type	.LCPI10_1,@object
	.size	.LCPI10_1, 4
.LCPI10_1:
	.long	2147483647
	.cc_bottom .LCPI10_1.data
	.cc_top .LCPI10_2.data,.LCPI10_2
	.align	4
	.type	.LCPI10_2,@object
	.size	.LCPI10_2, 4
.LCPI10_2:
	.long	4015869377
	.cc_bottom .LCPI10_2.data
	.cc_top .LCPI10_3.data,.LCPI10_3
	.align	4
	.type	.LCPI10_3,@object
	.size	.LCPI10_3, 4
.LCPI10_3:
	.long	24204406
	.cc_bottom .LCPI10_3.data
	.cc_top .LCPI10_4.data,.LCPI10_4
	.align	4
	.type	.LCPI10_4,@object
	.size	.LCPI10_4, 4
.LCPI10_4:
	.long	8388608
	.cc_bottom .LCPI10_4.data
	.cc_top .LCPI10_5.data,.LCPI10_5
	.align	4
	.type	.LCPI10_5,@object
	.size	.LCPI10_5, 4
.LCPI10_5:
	.long	4278190080
	.cc_bottom .LCPI10_5.data
	.cc_top .LCPI10_6.data,.LCPI10_6
	.align	4
	.type	.LCPI10_6,@object
	.size	.LCPI10_6, 4
.LCPI10_6:
	.long	11632640
	.cc_bottom .LCPI10_6.data
	.cc_top .LCPI10_7.data,.LCPI10_7
	.align	4
	.type	.LCPI10_7,@object
	.size	.LCPI10_7, 4
.LCPI10_7:
	.long	4294963736
	.cc_bottom .LCPI10_7.data
	.cc_top .LCPI10_8.data,.LCPI10_8
	.align	4
	.type	.LCPI10_8,@object
	.size	.LCPI10_8, 4
.LCPI10_8:
	.long	1116769
	.cc_bottom .LCPI10_8.data
	.cc_top .LCPI10_9.data,.LCPI10_9
	.align	4
	.type	.LCPI10_9,@object
	.size	.LCPI10_9, 4
.LCPI10_9:
	.long	268435456
	.cc_bottom .LCPI10_9.data
	.cc_top .LCPI10_10.data,.LCPI10_10
	.align	4
	.type	.LCPI10_10,@object
	.size	.LCPI10_10, 4
.LCPI10_10:
	.long	13418331
	.cc_bottom .LCPI10_10.data
	.cc_top .LCPI10_11.data,.LCPI10_11
	.align	4
	.type	.LCPI10_11,@object
	.size	.LCPI10_11, 4
.LCPI10_11:
	.long	536870912
	.cc_bottom .LCPI10_11.data
	.cc_top .LCPI10_12.data,.LCPI10_12
	.align	4
	.type	.LCPI10_12,@object
	.size	.LCPI10_12, 4
.LCPI10_12:
	.long	67108864
	.cc_bottom .LCPI10_12.data
	.text
	.globl	dsp_math_exp
	.align	4
	.type	dsp_math_exp,@function
	.cc_top dsp_math_exp.function,dsp_math_exp
dsp_math_exp:
.Lfunc_begin10:
	.loc	1 388 0
	.cfi_startproc
	.issue_mode dual
	{
		nop
		dualentsp 0
	}
	{
		extsp 6
		nop
	}
.Ltmp278:
	.cfi_def_cfa_offset 24
	std r5, r4, sp[0]
.Ltmp279:
	.cfi_offset 4, -24
.Ltmp280:
	.cfi_offset 5, -20
	std r7, r6, sp[1]
.Ltmp281:
	.cfi_offset 6, -16
.Ltmp282:
	.cfi_offset 7, -12
	{
		nop
		stw r8, sp[4]
	}
.Ltmp283:
	.cfi_offset 8, -8
	ldw r1, cp[.LCPI10_0]
	.loc	1 392 8 prologue_end
.Ltmp284:
	{
		lss r1, r1, r0
		nop
	}
	.loc	1 392 8
	bf r1, .LBB10_2
.Ltmp285:
	ldw r0, cp[.LCPI10_1]
	bu .LBB10_9
.LBB10_2:
.Ltmp286:
	ldw r1, cp[.LCPI10_2]
	.loc	1 394 16
.Ltmp287:
	{
		lss r1, r0, r1
		nop
	}
	.loc	1 394 16
	bf r1, .LBB10_4
.Ltmp288:
	{
		ldc r0, 0
		nop
	}
	bu .LBB10_9
.LBB10_4:
.Ltmp289:
	ldw r1, cp[.LCPI10_3]
	{
		ldc r2, 0
		nop
	}
	ldw r3, cp[.LCPI10_4]
	.loc	1 13 5
.Ltmp290:
	{
		mov r4, r2
		mov r5, r3
	}
	#APP
	maccs r4,r5,r0,r1
	#NO_APP
	{
		ldc r11, 24
		nop
	}
	.loc	1 14 5
	#APP
	lextract r1,r4,r5,r11,32
	#NO_APP
.Ltmp291:
	.loc	1 355 5
	{
		add r4, r1, r3
		nop
	}
.Ltmp292:
	.loc	1 400 5
	ashr r1, r4, 24
.Ltmp293:
	ldw r5, cp[.LCPI10_5]
	.loc	1 405 5
	{
		and r4, r4, r5
		nop
	}
.Ltmp294:
	ldw r5, cp[.LCPI10_6]
	.loc	1 13 5
.Ltmp295:
	{
		mov r6, r2
		mov r7, r3
	}
	#APP
	maccs r6,r7,r4,r5
	#NO_APP
	.loc	1 14 5
	#APP
	lextract r5,r6,r7,r11,32
	#NO_APP
.Ltmp296:
	.loc	1 406 19
	{
		sub r0, r0, r5
		nop
	}
.Ltmp297:
	ldw r5, cp[.LCPI10_7]
.Ltmp298:
	.loc	1 13 5
	{
		mov r6, r2
		mov r7, r3
	}
	#APP
	maccs r6,r7,r4,r5
	#NO_APP
	.loc	1 14 5
	#APP
	lextract r4,r6,r7,r11,32
	#NO_APP
.Ltmp299:
	.loc	1 406 60
	{
		sub r4, r0, r4
		nop
	}
.Ltmp300:
	.loc	1 413 16
	{
		shl r0, r4, 2
		mov r5, r2
	}
.Ltmp301:
	.loc	1 13 5
	{
		mov r6, r3
		nop
	}
	#APP
	maccs r5,r6,r0,r4
	#NO_APP
	.loc	1 14 5
	#APP
	lextract r0,r5,r6,r11,32
	#NO_APP
.Ltmp302:
	ldw r5, cp[.LCPI10_8]
.Ltmp303:
	.loc	1 13 5
	{
		mov r6, r2
		mov r7, r3
	}
	#APP
	maccs r6,r7,r5,r0
	#NO_APP
	.loc	1 14 5
	#APP
	lextract r5,r6,r7,r11,32
	#NO_APP
.Ltmp304:
	ldw r6, cp[.LCPI10_9]
.Ltmp305:
	.loc	1 418 40
	{
		add r5, r5, r6
		shl r4, r4, 3
	}
.Ltmp306:
	.loc	1 13 5
	{
		mov r6, r2
		mov r7, r3
	}
	#APP
	maccs r6,r7,r5,r4
	#NO_APP
	.loc	1 14 5
	#APP
	lextract r4,r6,r7,r11,32
	#NO_APP
.Ltmp307:
	.loc	1 33 9
	ashr r5, r4, 32
.Ltmp308:
	.loc	1 14 5
	{
		add r6, r4, r5
		add r4, r4, 4
	}
.Ltmp309:
	.loc	1 419 5
	ashr r4, r4, 3
.Ltmp310:
	ldw r7, cp[.LCPI10_10]
	.loc	1 13 5
.Ltmp311:
	{
		mov r8, r2
		nop
	}
	#APP
	maccs r8,r3,r7,r0
	#NO_APP
	.loc	1 14 5
	#APP
	lextract r0,r8,r3,r11,32
	#NO_APP
.Ltmp312:
	ldw r3, cp[.LCPI10_11]
.Ltmp313:
	.loc	1 420 15
	{
		add r0, r0, r3
		nop
	}
.Ltmp314:
	.loc	1 423 33
	{
		sub r11, r0, r4
		mkmsk r0, 1
	}
.Ltmp315:
	.loc	1 33 9
	{
		or r3, r5, r0
		nop
	}
	.loc	1 33 9
	xor r4, r6, r5
.Ltmp316:
	.loc	1 37 9
	ashr r5, r11, 32
	bf r5, .LBB10_6
.Ltmp317:
	.loc	1 38 9
	{
		neg r3, r3
		neg r11, r11
	}
.Ltmp318:
.LBB10_6:
	.loc	1 41 5
	#APP
	ldivu r5,r4,r2,r4,r11
	#NO_APP
	.loc	1 42 5
	#APP
	ldivu r11,r2,r4,r2,r11
	#NO_APP
	ldc r2, 128
.Ltmp319:
	.loc	1 46 5
	#APP
	maccu  r5, r11, r2, r0
	#NO_APP
	{
		ldc r2, 8
		nop
	}
	.loc	1 47 5
	#APP
	lextract  r2, r5, r11, r2, 32
	#NO_APP
.Ltmp320:
	.loc	1 49 5
	mul r2, r2, r3
.Ltmp321:
	ldw r3, cp[.LCPI10_12]
.Ltmp322:
	.loc	1 423 33
	{
		add r2, r2, r3
		sub r3, r1, 2
	}
.Ltmp323:
	.loc	1 425 5
	{
		lss r11, r3, r0
		nop
	}
	bt r11, .LBB10_8
.Ltmp324:
	.loc	1 425 5
	{
		shl r2, r2, r3
		sub r1, r1, 3
	}
.Ltmp325:
	.loc	1 425 5
	{
		shl r0, r0, r1
		nop
	}
	.loc	1 425 5
	{
		add r0, r2, r0
		nop
	}
	bu .LBB10_9
.Ltmp326:
.LBB10_8:
	{
		ldc r3, 2
		nop
	}
	.loc	1 425 5
	{
		sub r3, r3, r1
		sub r1, r0, r1
	}
	.loc	1 425 5
	{
		shl r0, r0, r1
		nop
	}
	.loc	1 425 5
	{
		add r0, r2, r0
		nop
	}
	.loc	1 425 5
	ashr r0, r0, r3
.Ltmp327:
.LBB10_9:
	{
		nop
		ldw r8, sp[4]
	}
	.loc	1 440 1
	ldd r7, r6, sp[1]
	ldd r5, r4, sp[0]
	{
		ldaw sp, sp[6]
		nop
	}
	{
		nop
		retsp 0
	}
	# RETURN_REG_HOLDER
.Ltmp328:
	.cc_bottom dsp_math_exp.function
	.set	dsp_math_exp.nstackwords,6
	.globl	dsp_math_exp.nstackwords
	.set	dsp_math_exp.maxcores,1
	.globl	dsp_math_exp.maxcores
	.set	dsp_math_exp.maxtimers,0
	.globl	dsp_math_exp.maxtimers
	.set	dsp_math_exp.maxchanends,0
	.globl	dsp_math_exp.maxchanends
.Ltmp329:
	.size	dsp_math_exp, .Ltmp329-dsp_math_exp
.Lfunc_end10:
	.cfi_endproc

	.globl	log2_with_remainder
	.align	4
	.type	log2_with_remainder,@function
	.cc_top log2_with_remainder.function,log2_with_remainder
log2_with_remainder:
.Lfunc_begin11:
	.loc	1 445 0
	.cfi_startproc
	.issue_mode dual
	{
		nop
		dualentsp 0
	}
	{
		extsp 2
		nop
	}
.Ltmp330:
	.cfi_def_cfa_offset 8
	{
		nop
		stw r4, sp[0]
	}
.Ltmp331:
	.cfi_offset 4, -8
	ashr r11, r0, 32
	{
		add r4, r0, r11
		nop
	}
	.loc	1 450 9 prologue_end
.Ltmp332:
	xor r11, r4, r11
.Ltmp333:
	.loc	1 456 5
	#APP
	clz r11,r11
	#NO_APP
.Ltmp334:
	{
		ldc r4, 32
		nop
	}
	.loc	1 457 5
	{
		sub r3, r4, r3
		nop
	}
.Ltmp335:
	.loc	1 457 5
	{
		sub r3, r3, r11
		nop
	}
	{
		nop
		stw r3, r1[0]
	}
	.loc	1 459 5
	ashr r1, r3, 32
.Ltmp336:
	bt r1, .LBB11_1
.Ltmp337:
	.loc	1 459 5
	ashr r0, r0, r3
.Ltmp338:
	bu .LBB11_3
.LBB11_1:
.Ltmp339:
	.loc	1 459 5
	{
		neg r1, r3
		nop
	}
	.loc	1 459 5
	{
		shl r0, r0, r1
		nop
	}
.Ltmp340:
.LBB11_3:
	{
		nop
		stw r0, r2[0]
	}
	.loc	1 461 1
	{
		ldaw sp, sp[2]
		ldw r4, sp[0]
	}
	{
		nop
		retsp 0
	}
	# RETURN_REG_HOLDER
.Ltmp341:
	.cc_bottom log2_with_remainder.function
	.set	log2_with_remainder.nstackwords,2
	.globl	log2_with_remainder.nstackwords
	.set	log2_with_remainder.maxcores,1
	.globl	log2_with_remainder.maxcores
	.set	log2_with_remainder.maxtimers,0
	.globl	log2_with_remainder.maxtimers
	.set	log2_with_remainder.maxchanends,0
	.globl	log2_with_remainder.maxchanends
.Ltmp342:
	.size	log2_with_remainder, .Ltmp342-log2_with_remainder
.Lfunc_end11:
	.cfi_endproc

	.section	.cp.rodata.cst4,"aMc",@progbits,4
	.cc_top .LCPI12_0.data,.LCPI12_0
	.align	4
	.type	.LCPI12_0,@object
	.size	.LCPI12_0, 4
.LCPI12_0:
	.long	11863282
	.cc_bottom .LCPI12_0.data
	.cc_top .LCPI12_1.data,.LCPI12_1
	.align	4
	.type	.LCPI12_1,@object
	.size	.LCPI12_1, 4
.LCPI12_1:
	.long	4278190080
	.cc_bottom .LCPI12_1.data
	.cc_top .LCPI12_2.data,.LCPI12_2
	.align	4
	.type	.LCPI12_2,@object
	.size	.LCPI12_2, 4
.LCPI12_2:
	.long	16777216
	.cc_bottom .LCPI12_2.data
	.cc_top .LCPI12_3.data,.LCPI12_3
	.align	4
	.type	.LCPI12_3,@object
	.size	.LCPI12_3, 4
.LCPI12_3:
	.long	4286578688
	.cc_bottom .LCPI12_3.data
	.cc_top .LCPI12_4.data,.LCPI12_4
	.align	4
	.type	.LCPI12_4,@object
	.size	.LCPI12_4, 4
.LCPI12_4:
	.long	8388608
	.cc_bottom .LCPI12_4.data
	.cc_top .LCPI12_5.data,.LCPI12_5
	.align	4
	.type	.LCPI12_5,@object
	.size	.LCPI12_5, 4
.LCPI12_5:
	.long	4292870144
	.cc_bottom .LCPI12_5.data
	.cc_top .LCPI12_6.data,.LCPI12_6
	.align	4
	.type	.LCPI12_6,@object
	.size	.LCPI12_6, 4
.LCPI12_6:
	.long	11699746
	.cc_bottom .LCPI12_6.data
	.cc_top .LCPI12_7.data,.LCPI12_7
	.align	4
	.type	.LCPI12_7,@object
	.size	.LCPI12_7, 4
.LCPI12_7:
	.long	4283267550
	.cc_bottom .LCPI12_7.data
	.cc_top .LCPI12_8.data,.LCPI12_8
	.align	4
	.type	.LCPI12_8,@object
	.size	.LCPI12_8, 4
.LCPI12_8:
	.long	815851
	.cc_bottom .LCPI12_8.data
	.cc_top .LCPI12_9.data,.LCPI12_9
	.align	4
	.type	.LCPI12_9,@object
	.size	.LCPI12_9, 4
.LCPI12_9:
	.long	228186
	.cc_bottom .LCPI12_9.data
	.cc_top .LCPI12_10.data,.LCPI12_10
	.align	4
	.type	.LCPI12_10,@object
	.size	.LCPI12_10, 4
.LCPI12_10:
	.long	4194304
	.cc_bottom .LCPI12_10.data
	.cc_top .LCPI12_11.data,.LCPI12_11
	.align	4
	.type	.LCPI12_11,@object
	.size	.LCPI12_11, 4
.LCPI12_11:
	.long	11629080
	.cc_bottom .LCPI12_11.data
	.text
	.globl	dsp_math_log
	.align	4
	.type	dsp_math_log,@function
	.cc_top dsp_math_log.function,dsp_math_log
dsp_math_log:
.Lfunc_begin12:
	.loc	1 480 0
	.cfi_startproc
	.issue_mode dual
	{
		nop
		dualentsp 12
	}
.Ltmp343:
	.cfi_def_cfa_offset 48
.Ltmp344:
	.cfi_offset 15, 0
	std r5, r4, sp[2]
.Ltmp345:
	.cfi_offset 4, -32
.Ltmp346:
	.cfi_offset 5, -28
	std r7, r6, sp[3]
.Ltmp347:
	.cfi_offset 6, -24
.Ltmp348:
	.cfi_offset 7, -20
	std r9, r8, sp[4]
.Ltmp349:
	.cfi_offset 8, -16
.Ltmp350:
	.cfi_offset 9, -12
	{
		nop
		stw r10, sp[10]
	}
.Ltmp351:
	.cfi_offset 10, -8
.Ltmp352:
	ashr r1, r0, 32
	{
		add r2, r0, r1
		nop
	}
	.loc	1 450 9 prologue_end
.Ltmp353:
	xor r1, r2, r1
.Ltmp354:
	.loc	1 456 5
	#APP
	clz r1,r1
	#NO_APP
.Ltmp355:
	{
		ldc r4, 8
		nop
	}
	.loc	1 457 5
	{
		sub r3, r4, r1
		nop
	}
.Ltmp356:
	.loc	1 459 5
	ashr r1, r3, 32
.Ltmp357:
	bt r1, .LBB12_1
.Ltmp358:
	.loc	1 459 5
	ashr r0, r0, r3
.Ltmp359:
	bu .LBB12_3
.Ltmp360:
.LBB12_1:
	.loc	1 459 5
	{
		neg r1, r3
		nop
	}
	.loc	1 459 5
	{
		shl r0, r0, r1
		nop
	}
.Ltmp361:
.LBB12_3:
	ldw r1, cp[.LCPI12_0]
	.loc	1 485 9
.Ltmp362:
	{
		lss r1, r1, r0
		nop
	}
	bt r1, .LBB12_5
.Ltmp363:
	ldw r1, cp[.LCPI12_3]
	.loc	1 486 9
.Ltmp364:
	{
		add r0, r0, r1
		nop
	}
.Ltmp365:
	.loc	1 487 9
	ashr r1, r0, 1
	ldw r2, cp[.LCPI12_4]
.Ltmp366:
	.loc	1 487 9
	{
		add r11, r1, r2
		sub r3, r3, 1
	}
.Ltmp367:
	{
		nop
		stw r3, sp[1]
	}
.Ltmp368:
	bu .LBB12_6
.Ltmp369:
.LBB12_5:
	{
		nop
		stw r3, sp[1]
	}
.Ltmp370:
	ldw r1, cp[.LCPI12_1]
	.loc	1 490 9
.Ltmp371:
	{
		add r0, r0, r1
		nop
	}
.Ltmp372:
	.loc	1 491 9
	ashr r1, r0, 1
	ldw r2, cp[.LCPI12_2]
	.loc	1 491 9
	{
		add r11, r1, r2
		nop
	}
.Ltmp373:
.LBB12_6:
	.loc	1 33 9
	ashr r1, r0, 32
	.loc	1 33 9
	{
		add r2, r0, r1
		mkmsk r9, 1
	}
	.loc	1 33 9
	{
		or r5, r1, r9
		nop
	}
	.loc	1 33 9
	xor r2, r2, r1
.Ltmp374:
	.loc	1 37 9
	ashr r7, r11, 32
	bt r7, .LBB12_8
.Ltmp375:
	{
		neg r0, r11
		stw r0, sp[3]
	}
	{
		nop
		stw r0, sp[2]
	}
.Ltmp376:
	.loc	1 493 9
	{
		mov r8, r11
		stw r11, sp[0]
	}
	bu .LBB12_9
.Ltmp377:
.LBB12_8:
	{
		neg r5, r5
		stw r0, sp[3]
	}
.Ltmp378:
	.loc	1 39 9
	{
		neg r8, r11
		nop
	}
.Ltmp379:
	{
		nop
		stw r8, sp[2]
	}
	{
		nop
		stw r11, sp[0]
	}
.Ltmp380:
.LBB12_9:
	{
		ldc r3, 0
		nop
	}
	.loc	1 41 5
	#APP
	ldivu r2,r1,r3,r2,r8
	#NO_APP
	.loc	1 42 5
	#APP
	ldivu r8,r1,r1,r3,r8
	#NO_APP
	ldc r0, 128
.Ltmp381:
	.loc	1 46 5
	#APP
	maccu  r2, r8, r0, r9
	#NO_APP
	.loc	1 47 5
	#APP
	lextract  r1, r2, r8, r4, 32
	#NO_APP
.Ltmp382:
	{
		mov r8, r4
		nop
	}
	.loc	1 49 5
	mul r1, r1, r5
.Ltmp383:
	ldw r5, cp[.LCPI12_4]
.Ltmp384:
	.loc	1 13 5
	{
		mov r2, r3
		mov r0, r9
	}
	{
		mov r9, r5
		nop
	}
	#APP
	maccs r2,r9,r1,r1
	#NO_APP
	{
		ldc r11, 24
		nop
	}
	.loc	1 14 5
	#APP
	lextract r10,r2,r9,r11,32
	#NO_APP
.Ltmp385:
	ldw r1, cp[.LCPI12_5]
.Ltmp386:
	.loc	1 13 5
	{
		mov r2, r3
		mov r9, r5
	}
	#APP
	maccs r2,r9,r1,r10
	#NO_APP
	.loc	1 14 5
	#APP
	lextract r1,r2,r9,r11,32
	#NO_APP
.Ltmp387:
	ldw r2, cp[.LCPI12_6]
.Ltmp388:
	.loc	1 495 10
	{
		add r9, r1, r2
		nop
	}
.Ltmp389:
	.loc	1 37 9
	ashr r4, r9, 32
	.loc	1 37 9
	{
		or r2, r4, r0
		nop
	}
	bf r4, .LBB12_11
.Ltmp390:
	ldw r4, cp[.LCPI12_7]
	.loc	1 39 9
.Ltmp391:
	{
		sub r9, r4, r1
		nop
	}
.Ltmp392:
.LBB12_11:
	ldw r1, cp[.LCPI12_8]
	.loc	1 41 5
	#APP
	ldivu r4,r1,r3,r1,r9
	#NO_APP
	.loc	1 42 5
	#APP
	ldivu r9,r1,r1,r3,r9
	#NO_APP
.Ltmp393:
	ldc r6, 128
	.loc	1 46 5
	#APP
	maccu  r4, r9, r6, r0
	#NO_APP
	.loc	1 47 5
	#APP
	lextract  r1, r4, r9, r8, 32
	#NO_APP
.Ltmp394:
	{
		mov r9, r0
		nop
	}
	.loc	1 49 5
	mul r1, r1, r2
.Ltmp395:
	ldw r2, cp[.LCPI12_9]
.Ltmp396:
	.loc	1 497 36
	{
		add r1, r1, r2
		mov r2, r3
	}
.Ltmp397:
	.loc	1 13 5
	{
		mov r4, r5
		nop
	}
	#APP
	maccs r2,r4,r10,r1
	#NO_APP
	{
		mov r0, r11
		nop
	}
	.loc	1 14 5
	#APP
	lextract r10,r2,r4,r0,32
	#NO_APP
.Ltmp398:
	.loc	1 37 9
	{
		or r2, r7, r9
		ldw r4, sp[2]
	}
	bt r7, .LBB12_13
.Ltmp399:
	{
		nop
		ldw r4, sp[0]
	}
.Ltmp400:
.LBB12_13:
	ldw r1, cp[.LCPI12_10]
	.loc	1 41 5
	#APP
	ldivu r11,r1,r3,r1,r4
	#NO_APP
	.loc	1 42 5
	#APP
	ldivu r4,r1,r1,r3,r4
	#NO_APP
	.loc	1 46 5
	#APP
	maccu  r11, r4, r6, r9
	#NO_APP
	.loc	1 47 5
	#APP
	lextract  r1, r11, r4, r8, 32
	#NO_APP
.Ltmp401:
	.loc	1 49 5
	mul r1, r1, r2
.Ltmp402:
	.loc	1 13 5
	{
		mov r2, r3
		mov r11, r5
	}
	#APP
	maccs r2,r11,r10,r1
	#NO_APP
	.loc	1 14 5
	#APP
	lextract r2,r2,r11,r0,32
	#NO_APP
.Ltmp403:
	.loc	1 499 14
	{
		add r1, r2, r1
		mov r2, r0
	}
.Ltmp404:
	{
		nop
		ldw r0, sp[3]
	}
	.loc	1 500 10
	{
		shl r0, r0, 2
		nop
	}
.Ltmp405:
	.loc	1 13 5
	#APP
	maccs r3,r5,r0,r1
	#NO_APP
	.loc	1 14 5
	#APP
	lextract r0,r3,r5,r2,32
	#NO_APP
.Ltmp406:
	ldw r1, cp[.LCPI12_11]
	{
		nop
		ldw r2, sp[1]
	}
	mul r1, r2, r1
.Ltmp407:
	.loc	1 501 5
	{
		add r0, r1, r0
		ldw r10, sp[10]
	}
.Ltmp408:
	.loc	1 501 5
	ldd r9, r8, sp[4]
	ldd r7, r6, sp[3]
	ldd r5, r4, sp[2]
	{
		nop
		retsp 12
	}
	# RETURN_REG_HOLDER
.Ltmp409:
	.cc_bottom dsp_math_log.function
	.set	dsp_math_log.nstackwords,12
	.globl	dsp_math_log.nstackwords
	.set	dsp_math_log.maxcores,1
	.globl	dsp_math_log.maxcores
	.set	dsp_math_log.maxtimers,0
	.globl	dsp_math_log.maxtimers
	.set	dsp_math_log.maxchanends,0
	.globl	dsp_math_log.maxchanends
.Ltmp410:
	.size	dsp_math_log, .Ltmp410-dsp_math_log
.Lfunc_end12:
	.file	3 "C:/Users/user/workspace/lib_dsp/api\\dsp_math.h"
	.cfi_endproc

	.section	.cp.rodata.cst4,"aMc",@progbits,4
	.cc_top .LCPI13_0.data,.LCPI13_0
	.align	4
	.type	.LCPI13_0,@object
	.size	.LCPI13_0, 4
.LCPI13_0:
	.long	16777217
	.cc_bottom .LCPI13_0.data
	.cc_top .LCPI13_1.data,.LCPI13_1
	.align	4
	.type	.LCPI13_1,@object
	.size	.LCPI13_1, 4
.LCPI13_1:
	.long	8388608
	.cc_bottom .LCPI13_1.data
	.cc_top .LCPI13_2.data,.LCPI13_2
	.align	4
	.type	.LCPI13_2,@object
	.size	.LCPI13_2, 4
.LCPI13_2:
	.long	139753
	.cc_bottom .LCPI13_2.data
	.cc_top .LCPI13_3.data,.LCPI13_3
	.align	4
	.type	.LCPI13_3,@object
	.size	.LCPI13_3, 4
.LCPI13_3:
	.long	2796214
	.cc_bottom .LCPI13_3.data
	.cc_top .LCPI13_4.data,.LCPI13_4
	.align	4
	.type	.LCPI13_4,@object
	.size	.LCPI13_4, 4
.LCPI13_4:
	.long	80530638
	.cc_bottom .LCPI13_4.data
	.cc_top .LCPI13_5.data,.LCPI13_5
	.align	4
	.type	.LCPI13_5,@object
	.size	.LCPI13_5, 4
.LCPI13_5:
	.long	16777216
	.cc_bottom .LCPI13_5.data
	.cc_top .LCPI13_6.data,.LCPI13_6
	.align	4
	.type	.LCPI13_6,@object
	.size	.LCPI13_6, 4
.LCPI13_6:
	.long	4283338216
	.cc_bottom .LCPI13_6.data
	.cc_top .LCPI13_7.data,.LCPI13_7
	.align	4
	.type	.LCPI13_7,@object
	.size	.LCPI13_7, 4
.LCPI13_7:
	.long	4194304
	.cc_bottom .LCPI13_7.data
	.text
	.globl	dsp_math_sinh_
	.align	4
	.type	dsp_math_sinh_,@function
	.cc_top dsp_math_sinh_.function,dsp_math_sinh_
dsp_math_sinh_:
.Lfunc_begin13:
	.loc	1 519 0
	.cfi_startproc
	.issue_mode dual
	{
		nop
		dualentsp 6
	}
.Ltmp411:
	.cfi_def_cfa_offset 24
.Ltmp412:
	.cfi_offset 15, 0
	std r5, r4, sp[1]
.Ltmp413:
	.cfi_offset 4, -16
.Ltmp414:
	.cfi_offset 5, -12
	std r7, r6, sp[2]
.Ltmp415:
	.cfi_offset 6, -8
.Ltmp416:
	.cfi_offset 7, -4
	{
		mov r4, r1
		nop
	}
.Ltmp417:
	ashr r1, r0, 32
	{
		add r2, r0, r1
		ldc r5, 0
	}
	.loc	1 523 8 prologue_end
.Ltmp418:
	{
		lss r3, r0, r5
		eq r11, r4, 0
	}
.Ltmp419:
	.loc	1 529 9
	{
		and r3, r11, r3
		nop
	}
.Ltmp420:
	.loc	1 529 9
	bt r3, .LBB13_1
.Ltmp421:
	{
		mkmsk r6, 1
		nop
	}
	bu .LBB13_3
.Ltmp422:
.LBB13_1:
	{
		mkmsk r6, 32
		nop
	}
.Ltmp423:
.LBB13_3:
	.loc	1 523 8
	xor r1, r2, r1
	bt r4, .LBB13_5
.Ltmp424:
	ldw r2, cp[.LCPI13_0]
	{
		lss r2, r1, r2
		nop
	}
	bf r2, .LBB13_5
.Ltmp425:
	ldw r1, cp[.LCPI13_1]
	.loc	1 13 5
.Ltmp426:
	{
		mov r3, r5
		mov r11, r1
	}
	#APP
	maccs r3,r11,r0,r0
	#NO_APP
	{
		ldc r2, 24
		nop
	}
	.loc	1 14 5
	#APP
	lextract r3,r3,r11,r2,32
	#NO_APP
.Ltmp427:
	ldc r11, 3422
.Ltmp428:
	.loc	1 13 5
	{
		mov r4, r5
		mov r6, r1
	}
	#APP
	maccs r4,r6,r11,r3
	#NO_APP
	.loc	1 14 5
	#APP
	lextract r11,r4,r6,r2,32
	#NO_APP
.Ltmp429:
	ldw r4, cp[.LCPI13_2]
.Ltmp430:
	.loc	1 545 56
	{
		add r11, r11, r4
		mov r4, r5
	}
.Ltmp431:
	.loc	1 13 5
	{
		mov r6, r1
		nop
	}
	#APP
	maccs r4,r6,r11,r3
	#NO_APP
	.loc	1 14 5
	#APP
	lextract r11,r4,r6,r2,32
	#NO_APP
.Ltmp432:
	ldw r4, cp[.LCPI13_3]
.Ltmp433:
	.loc	1 545 38
	{
		add r11, r11, r4
		mov r4, r5
	}
.Ltmp434:
	.loc	1 13 5
	{
		mov r6, r1
		nop
	}
	#APP
	maccs r4,r6,r11,r3
	#NO_APP
	.loc	1 14 5
	#APP
	lextract r3,r4,r6,r2,32
	#NO_APP
.Ltmp435:
	.loc	1 13 5
	#APP
	maccs r5,r1,r0,r3
	#NO_APP
	.loc	1 14 5
	#APP
	lextract r1,r5,r1,r2,32
	#NO_APP
.Ltmp436:
	.loc	1 546 17
	{
		add r0, r1, r0
		nop
	}
.Ltmp437:
	bu .LBB13_13
.Ltmp438:
.LBB13_5:
	ldw r0, cp[.LCPI13_4]
	.loc	1 534 13
.Ltmp439:
	{
		lss r0, r1, r0
		nop
	}
	bt r0, .LBB13_9
.Ltmp440:
	ldw r0, cp[.LCPI13_6]
	.loc	1 535 13
.Ltmp441:
	{
		add r0, r1, r0
		nop
	}
.Ltmp442:
	.loc	1 536 17
	bl dsp_math_exp
.Ltmp443:
	.loc	1 37 9
	ashr r3, r0, 32
.Ltmp444:
	.loc	1 536 17
	{
		add r11, r0, r3
		mkmsk r2, 1
	}
	.loc	1 537 13
	{
		mov r1, r2
		nop
	}
	bt r4, .LBB13_8
.Ltmp445:
	{
		mkmsk r1, 32
		nop
	}
.Ltmp446:
.LBB13_8:
	.loc	1 37 9
	{
		or r4, r3, r2
		nop
	}
	.loc	1 37 9
	xor r3, r11, r3
	ldw r11, cp[.LCPI13_7]
.Ltmp447:
	.loc	1 41 5
	#APP
	ldivu r7,r11,r5,r11,r3
	#NO_APP
	.loc	1 42 5
	#APP
	ldivu r11,r3,r11,r5,r3
	#NO_APP
.Ltmp448:
	ldc r3, 128
	.loc	1 46 5
	#APP
	maccu  r7, r11, r3, r2
	#NO_APP
	{
		ldc r2, 8
		nop
	}
	.loc	1 47 5
	#APP
	lextract  r2, r7, r11, r2, 32
	#NO_APP
.Ltmp449:
	.loc	1 49 5
	mul r1, r4, r1
.Ltmp450:
	.loc	1 537 37
	mul r1, r1, r2
	.loc	1 537 37
	{
		add r0, r1, r0
		nop
	}
.Ltmp451:
	.loc	1 542 9
	mul r0, r0, r6
.Ltmp452:
	bu .LBB13_13
.Ltmp453:
.LBB13_9:
	.loc	1 539 17
	{
		mov r0, r1
		nop
	}
	bl dsp_math_exp
.Ltmp454:
	.loc	1 37 9
	ashr r3, r0, 32
.Ltmp455:
	.loc	1 539 17
	{
		add r11, r0, r3
		mkmsk r2, 1
	}
	.loc	1 540 13
	{
		mov r1, r2
		nop
	}
	bt r4, .LBB13_11
.Ltmp456:
	{
		mkmsk r1, 32
		nop
	}
.Ltmp457:
.LBB13_11:
	.loc	1 37 9
	{
		or r4, r3, r2
		nop
	}
	.loc	1 37 9
	xor r3, r11, r3
	ldw r11, cp[.LCPI13_5]
.Ltmp458:
	.loc	1 41 5
	#APP
	ldivu r7,r11,r5,r11,r3
	#NO_APP
	.loc	1 42 5
	#APP
	ldivu r11,r3,r11,r5,r3
	#NO_APP
.Ltmp459:
	ldc r3, 128
	.loc	1 46 5
	#APP
	maccu  r7, r11, r3, r2
	#NO_APP
	{
		ldc r2, 8
		nop
	}
	.loc	1 47 5
	#APP
	lextract  r2, r7, r11, r2, 32
	#NO_APP
.Ltmp460:
	.loc	1 49 5
	mul r1, r4, r1
.Ltmp461:
	.loc	1 540 38
	mul r1, r1, r2
	.loc	1 540 38
	{
		add r0, r1, r0
		nop
	}
.Ltmp462:
	.loc	1 540 38
	ashr r0, r0, 1
.Ltmp463:
	.loc	1 542 9
	mul r0, r0, r6
.Ltmp464:
.LBB13_13:
	.loc	1 548 5
	ldd r7, r6, sp[2]
	ldd r5, r4, sp[1]
	{
		nop
		retsp 6
	}
	# RETURN_REG_HOLDER
.Ltmp465:
	.cc_bottom dsp_math_sinh_.function
	.set	dsp_math_sinh_.nstackwords,(dsp_math_exp.nstackwords + 6)
	.globl	dsp_math_sinh_.nstackwords
	.set	dsp_math_sinh_.maxcores,dsp_math_exp.maxcores $M 1
	.globl	dsp_math_sinh_.maxcores
	.set	dsp_math_sinh_.maxtimers,dsp_math_exp.maxtimers $M 0
	.globl	dsp_math_sinh_.maxtimers
	.set	dsp_math_sinh_.maxchanends,dsp_math_exp.maxchanends $M 0
	.globl	dsp_math_sinh_.maxchanends
.Ltmp466:
	.size	dsp_math_sinh_, .Ltmp466-dsp_math_sinh_
.Lfunc_end13:
	.cfi_endproc

	.section	.cp.rodata.cst4,"aMc",@progbits,4
	.cc_top .LCPI14_0.data,.LCPI14_0
	.align	4
	.type	.LCPI14_0,@object
	.size	.LCPI14_0, 4
.LCPI14_0:
	.long	16777216
	.cc_bottom .LCPI14_0.data
	.cc_top .LCPI14_1.data,.LCPI14_1
	.align	4
	.type	.LCPI14_1,@object
	.size	.LCPI14_1, 4
.LCPI14_1:
	.long	4278190080
	.cc_bottom .LCPI14_1.data
	.text
	.globl	dsp_math_logistics
	.align	4
	.type	dsp_math_logistics,@function
	.cc_top dsp_math_logistics.function,dsp_math_logistics
dsp_math_logistics:
.Lfunc_begin14:
	.loc	1 554 0
	.cfi_startproc
	.issue_mode dual
	{
		nop
		dualentsp 6
	}
.Ltmp467:
	.cfi_def_cfa_offset 24
.Ltmp468:
	.cfi_offset 15, 0
	std r5, r4, sp[1]
.Ltmp469:
	.cfi_offset 4, -16
.Ltmp470:
	.cfi_offset 5, -12
	{
		nop
		stw r6, sp[4]
	}
.Ltmp471:
	.cfi_offset 6, -8
	.loc	1 560 9 prologue_end
.Ltmp472:
	ashr r4, r0, 32
	bt r4, .LBB14_2
.Ltmp473:
	.loc	1 557 9
	{
		neg r0, r0
		nop
	}
.Ltmp474:
.LBB14_2:
	.loc	1 559 44
	bl dsp_math_exp
	ldw r1, cp[.LCPI14_0]
	.loc	1 559 44
	{
		add r11, r0, r1
		nop
	}
.Ltmp475:
	.loc	1 37 9
	ashr r5, r11, 32
	{
		mkmsk r3, 1
		nop
	}
	.loc	1 37 9
	{
		or r2, r5, r3
		nop
	}
	bf r5, .LBB14_4
.Ltmp476:
	ldw r11, cp[.LCPI14_1]
	.loc	1 39 9
.Ltmp477:
	{
		sub r11, r11, r0
		nop
	}
.Ltmp478:
.LBB14_4:
	{
		ldc r0, 0
		nop
	}
	.loc	1 41 5
	#APP
	ldivu r6,r5,r0,r1,r11
	#NO_APP
	.loc	1 42 5
	#APP
	ldivu r11,r0,r5,r0,r11
	#NO_APP
.Ltmp479:
	ldc r0, 128
	.loc	1 46 5
	#APP
	maccu  r6, r11, r0, r3
	#NO_APP
	{
		ldc r0, 8
		nop
	}
	.loc	1 47 5
	#APP
	lextract  r0, r6, r11, r0, 32
	#NO_APP
.Ltmp480:
	.loc	1 49 5
	mul r0, r0, r2
.Ltmp481:
	bf r4, .LBB14_6
.Ltmp482:
	.loc	1 561 9
	{
		sub r0, r1, r0
		nop
	}
.Ltmp483:
.LBB14_6:
	{
		nop
		ldw r6, sp[4]
	}
	.loc	1 564 1
	ldd r5, r4, sp[1]
	{
		nop
		retsp 6
	}
	# RETURN_REG_HOLDER
.Ltmp484:
	.cc_bottom dsp_math_logistics.function
	.set	dsp_math_logistics.nstackwords,(dsp_math_exp.nstackwords + 6)
	.globl	dsp_math_logistics.nstackwords
	.set	dsp_math_logistics.maxcores,dsp_math_exp.maxcores $M 1
	.globl	dsp_math_logistics.maxcores
	.set	dsp_math_logistics.maxtimers,dsp_math_exp.maxtimers $M 0
	.globl	dsp_math_logistics.maxtimers
	.set	dsp_math_logistics.maxchanends,dsp_math_exp.maxchanends $M 0
	.globl	dsp_math_logistics.maxchanends
.Ltmp485:
	.size	dsp_math_logistics, .Ltmp485-dsp_math_logistics
.Lfunc_end14:
	.cfi_endproc

.Ldebug_end0:
	.section	.trap_info,"",@progbits
.Ltrap_info_entries_start0:
	.long	.Ltrap_info_entries_end0-.Ltrap_info_entries_start0
	.long	1
.Ltrap_info_entries_end0: