	.text
	.file	"dsp_adaptive.c"
	.text
	.globl	dsp_adaptive_lms
	.align	4
	.type	dsp_adaptive_lms,@function
	.cc_top dsp_adaptive_lms.function,dsp_adaptive_lms
dsp_adaptive_lms:
.Lfunc_begin0:
	.file	2 "C:/Users/user/workspace/lib_dsp/src\\dsp_adaptive.c"
	.loc	2 23 0
	.cfi_startproc
	.issue_mode dual
	{
		nop
		dualentsp 12
	}
.Ltmp0:
	.cfi_def_cfa_offset 48
.Ltmp1:
	.cfi_offset 15, 0
	std r5, r4, sp[2]
.Ltmp2:
	.cfi_offset 4, -32
.Ltmp3:
	.cfi_offset 5, -28
	std r7, r6, sp[3]
.Ltmp4:
	.cfi_offset 6, -24
.Ltmp5:
	.cfi_offset 7, -20
	std r9, r8, sp[4]
.Ltmp6:
	.cfi_offset 8, -16
.Ltmp7:
	.cfi_offset 9, -12
.Ltmp8:
	.cfi_offset 10, -8
.Ltmp9:
	{
		mov r4, r3
		stw r10, sp[10]
	}
.Ltmp10:
	{
		mov r5, r2
		mov r6, r1
	}
.Ltmp11:
	{
		nop
		ldw r2, sp[13]
	}
	ldd r9, r8, sp[7]
	{
		nop
		ldw r10, sp[16]
	}
	.loc	2 29 21 prologue_end
.Ltmp12:
	{
		mov r1, r4
		stw r10, sp[1]
	}
	{
		mov r3, r8
		nop
	}
	bl dsp_filters_fir
.Ltmp13:
	{
		mov r7, r0
		nop
	}
.Ltmp14:
	.loc	2 34 5
	{
		sub r0, r6, r7
		nop
	}
	.loc	2 34 5
	{
		mov r1, r9
		stw r0, r5[0]
	}
	.loc	2 39 14
	{
		mov r2, r10
		nop
	}
	bl dsp_math_multiply
.Ltmp15:
	{
		mov r1, r0
		stw r10, sp[2]
	}
.Ltmp16:
	{
		nop
		stw r8, sp[1]
	}
	{
		mov r2, r4
		ldw r0, sp[13]
	}
	.loc	2 40 5
	{
		mov r3, r4
		nop
	}
	bl dsp_vector_muls_addv
	.loc	2 42 5
	{
		mov r0, r7
		ldw r10, sp[10]
	}
	ldd r9, r8, sp[4]
	ldd r7, r6, sp[3]
.Ltmp17:
	ldd r5, r4, sp[2]
	{
		nop
		retsp 12
	}
.Ltmp18:
	# RETURN_REG_HOLDER
.Ltmp19:
	.cc_bottom dsp_adaptive_lms.function
	.set	dsp_adaptive_lms.nstackwords,((dsp_filters_fir.nstackwords $M dsp_math_multiply.nstackwords $M dsp_vector_muls_addv.nstackwords) + 12)
	.globl	dsp_adaptive_lms.nstackwords
	.set	dsp_adaptive_lms.maxcores,dsp_filters_fir.maxcores $M dsp_math_multiply.maxcores $M dsp_vector_muls_addv.maxcores $M 1
	.globl	dsp_adaptive_lms.maxcores
	.set	dsp_adaptive_lms.maxtimers,dsp_filters_fir.maxtimers $M dsp_math_multiply.maxtimers $M dsp_vector_muls_addv.maxtimers $M 0
	.globl	dsp_adaptive_lms.maxtimers
	.set	dsp_adaptive_lms.maxchanends,dsp_filters_fir.maxchanends $M dsp_math_multiply.maxchanends $M dsp_vector_muls_addv.maxchanends $M 0
	.globl	dsp_adaptive_lms.maxchanends
.Ltmp20:
	.size	dsp_adaptive_lms, .Ltmp20-dsp_adaptive_lms
.Lfunc_end0:
	.cfi_endproc

	.globl	dsp_adaptive_nlms
	.align	4
	.type	dsp_adaptive_nlms,@function
	.cc_top dsp_adaptive_nlms.function,dsp_adaptive_nlms
dsp_adaptive_nlms:
.Lfunc_begin1:
	.loc	2 57 0
	.cfi_startproc
	.issue_mode dual
	{
		nop
		dualentsp 12
	}
.Ltmp21:
	.cfi_def_cfa_offset 48
.Ltmp22:
	.cfi_offset 15, 0
	std r5, r4, sp[2]
.Ltmp23:
	.cfi_offset 4, -32
.Ltmp24:
	.cfi_offset 5, -28
	std r7, r6, sp[3]
.Ltmp25:
	.cfi_offset 6, -24
.Ltmp26:
	.cfi_offset 7, -20
	std r9, r8, sp[4]
.Ltmp27:
	.cfi_offset 8, -16
.Ltmp28:
	.cfi_offset 9, -12
.Ltmp29:
	.cfi_offset 10, -8
.Ltmp30:
	{
		mov r4, r3
		stw r10, sp[10]
	}
.Ltmp31:
	{
		mov r9, r2
		mov r5, r1
	}
.Ltmp32:
	{
		nop
		ldw r7, sp[16]
	}
.Ltmp33:
	ldd r1, r6, sp[7]
	{
		nop
		stw r1, sp[3]
	}
	{
		nop
		ldw r10, sp[13]
	}
	.loc	2 63 21 prologue_end
.Ltmp34:
	{
		mov r1, r4
		stw r7, sp[1]
	}
	{
		mov r2, r10
		mov r3, r6
	}
	bl dsp_filters_fir
.Ltmp35:
	{
		mov r8, r0
		nop
	}
.Ltmp36:
	.loc	2 68 5
	{
		sub r0, r5, r8
		nop
	}
.Ltmp37:
	.loc	2 68 5
	{
		mov r0, r10
		stw r0, r9[0]
	}
	.loc	2 71 14
	{
		mov r1, r6
		mov r2, r7
	}
	bl dsp_vector_power
.Ltmp38:
	.loc	2 77 5
	{
		or r1, r0, r7
		nop
	}
	.loc	2 77 5
	ashr r1, r1, 32
	{
		mov r5, r7
		nop
	}
	bt r1, .LBB1_3
.Ltmp39:
	{
		mov r5, r7
		mov r1, r0
	}
.Ltmp40:
.LBB1_2:
	.loc	2 77 76
	{
		shl r1, r1, 1
		sub r5, r5, 1
	}
.Ltmp41:
	.loc	2 77 5
	{
		or r2, r5, r1
		nop
	}
	.loc	2 77 5
	ashr r2, r2, 32
	bf r2, .LBB1_2
.Ltmp42:
.LBB1_3:
	.loc	2 78 5
	{
		sub r1, r7, r5
		nop
	}
	.loc	2 78 5
	ashr r0, r0, r1
.Ltmp43:
	{
		mkmsk r1, 5
		nop
	}
	.loc	2 80 9
.Ltmp44:
	{
		sub r2, r1, r5
		nop
	}
	.loc	2 80 9
	lda16 r1, r1[-r2]
	{
		mkmsk r2, 1
		nop
	}
	.loc	2 80 9
	{
		shl r1, r2, r1
		nop
	}
.Ltmp45:
	.loc	2 80 9
	{
		lss r3, r0, r1
		nop
	}
	bt r3, .LBB1_5
.Ltmp46:
	.loc	2 80 9
	{
		mov r1, r0
		nop
	}
.Ltmp47:
.LBB1_5:
	.loc	2 82 14
	{
		shl r0, r2, r5
		mov r2, r5
	}
	.loc	2 82 14
	bl dsp_math_divide
.Ltmp48:
	{
		mov r10, r0
		ldw r0, r9[0]
	}
.Ltmp49:
	.loc	2 83 18
	{
		mov r2, r7
		ldw r1, sp[3]
	}
	bl dsp_math_multiply
.Ltmp50:
	{
		mov r1, r0
		mov r0, r10
	}
.Ltmp51:
	.loc	2 84 18
	{
		mov r2, r5
		nop
	}
	bl dsp_math_multiply
.Ltmp52:
	{
		mov r1, r0
		stw r7, sp[2]
	}
.Ltmp53:
	{
		nop
		stw r6, sp[1]
	}
	{
		mov r2, r4
		ldw r0, sp[13]
	}
	.loc	2 89 5
	{
		mov r3, r4
		nop
	}
	bl dsp_vector_muls_addv
	.loc	2 91 5
	{
		mov r0, r8
		ldw r10, sp[10]
	}
	ldd r9, r8, sp[4]
.Ltmp54:
	ldd r7, r6, sp[3]
.Ltmp55:
	ldd r5, r4, sp[2]
.Ltmp56:
	{
		nop
		retsp 12
	}
.Ltmp57:
	# RETURN_REG_HOLDER
.Ltmp58:
	.cc_bottom dsp_adaptive_nlms.function
	.set	dsp_adaptive_nlms.nstackwords,((dsp_filters_fir.nstackwords $M dsp_vector_power.nstackwords $M dsp_math_divide.nstackwords $M dsp_math_multiply.nstackwords $M dsp_vector_muls_addv.nstackwords) + 12)
	.globl	dsp_adaptive_nlms.nstackwords
	.set	dsp_adaptive_nlms.maxcores,dsp_filters_fir.maxcores $M dsp_math_divide.maxcores $M dsp_math_multiply.maxcores $M dsp_vector_muls_addv.maxcores $M dsp_vector_power.maxcores $M 1
	.globl	dsp_adaptive_nlms.maxcores
	.set	dsp_adaptive_nlms.maxtimers,dsp_filters_fir.maxtimers $M dsp_math_divide.maxtimers $M dsp_math_multiply.maxtimers $M dsp_vector_muls_addv.maxtimers $M dsp_vector_power.maxtimers $M 0
	.globl	dsp_adaptive_nlms.maxtimers
	.set	dsp_adaptive_nlms.maxchanends,dsp_filters_fir.maxchanends $M dsp_math_divide.maxchanends $M dsp_math_multiply.maxchanends $M dsp_vector_muls_addv.maxchanends $M dsp_vector_power.maxchanends $M 0
	.globl	dsp_adaptive_nlms.maxchanends
.Ltmp59:
	.size	dsp_adaptive_nlms, .Ltmp59-dsp_adaptive_nlms
.Lfunc_end1:
	.cfi_endproc

.Ldebug_end0:
	.section	.trap_info,"",@progbits
.Ltrap_info_entries_start0:
	.long	.Ltrap_info_entries_end0-.Ltrap_info_entries_start0
	.long	1
.Ltrap_info_entries_end0: