	.text
	.file	"beclear_ambiphone.c"
	.section	.cp.rodata.cst4,"aMc",@progbits,4
	.cc_top .LCPI0_0.data,.LCPI0_0
	.align	4
	.type	.LCPI0_0,@object
	.size	.LCPI0_0, 4
.LCPI0_0:
	.long	131852
	.cc_bottom .LCPI0_0.data
	.cc_top .LCPI0_1.data,.LCPI0_1
	.align	4
	.type	.LCPI0_1,@object
	.size	.LCPI0_1, 4
.LCPI0_1:
	.long	4294967280
	.cc_bottom .LCPI0_1.data
	.cc_top .LCPI0_2.data,.LCPI0_2
	.align	4
	.type	.LCPI0_2,@object
	.size	.LCPI0_2, 4
.LCPI0_2:
	.long	4294966615
	.cc_bottom .LCPI0_2.data
	.text
	.globl	BeClear_AMBIPHONE_ReadInput
	.align	4
	.type	BeClear_AMBIPHONE_ReadInput,@function
	.cc_top BeClear_AMBIPHONE_ReadInput.function,BeClear_AMBIPHONE_ReadInput
BeClear_AMBIPHONE_ReadInput:
.Lfunc_begin0:
	.loc	2 260 0
	.cfi_startproc
	.issue_mode dual
	{
		nop
		dualentsp 0
	}
	{
		extsp 2
		nop
	}
.Ltmp0:
	.cfi_def_cfa_offset 8
	{
		nop
		stw r4, sp[0]
	}
.Ltmp1:
	.cfi_offset 4, -8
.Ltmp2:
	.loc	2 323 9 prologue_end
	ldw r3, dp[mics]
	.loc	2 324 9
	ldw r0, dp[aec_ap]
	ldw r1, cp[.LCPI0_0]
	.loc	2 324 9
	{
		add r0, r0, r1
		nop
	}
	{
		nop
		ldw r0, r0[0]
	}
	{
		nop
		ldw r2, r3[0]
	}
.Ltmp3:
	.loc	9 300 5
	ldaw r11, r2[-4]
	ldw r1, cp[.LCPI0_1]
	{
		nop
		stw r1, r11[0]
	}
.Ltmp4:
	.loc	9 637 5
	ldaw r11, r2[-3]
	.loc	9 637 5
	{
		sub r11, r2, 8
		stw r0, r11[0]
	}
	ldw r2, cp[.LCPI0_2]
.Ltmp5:
	{
		nop
		stw r2, r11[0]
	}
.Ltmp6:
	{
		nop
		ldw r11, r3[1]
	}
.Ltmp7:
	.loc	9 300 5
	ldaw r4, r11[-4]
	{
		nop
		stw r1, r4[0]
	}
.Ltmp8:
	.loc	9 637 5
	ldaw r4, r11[-3]
	.loc	9 637 5
	{
		sub r11, r11, 8
		stw r0, r4[0]
	}
	{
		nop
		stw r2, r11[0]
	}
	{
		nop
		ldw r11, r3[2]
	}
.Ltmp9:
	.loc	9 300 5
	ldaw r4, r11[-4]
	{
		nop
		stw r1, r4[0]
	}
.Ltmp10:
	.loc	9 637 5
	ldaw r4, r11[-3]
	.loc	9 637 5
	{
		sub r11, r11, 8
		stw r0, r4[0]
	}
	{
		nop
		stw r2, r11[0]
	}
	{
		nop
		ldw r3, r3[3]
	}
.Ltmp11:
	.loc	9 300 5
	ldaw r11, r3[-4]
	{
		nop
		stw r1, r11[0]
	}
.Ltmp12:
	.loc	9 637 5
	ldaw r11, r3[-3]
	.loc	9 637 5
	{
		sub r3, r3, 8
		stw r0, r11[0]
	}
	{
		nop
		stw r2, r3[0]
	}
.Ltmp13:
	.loc	2 328 9
	ldw r3, dp[far]
	{
		nop
		ldw r3, r3[0]
	}
.Ltmp14:
	.loc	9 300 5
	ldaw r11, r3[-4]
	{
		nop
		stw r1, r11[0]
	}
.Ltmp15:
	.loc	9 637 5
	ldaw r1, r3[-3]
	.loc	9 637 5
	{
		sub r0, r3, 8
		stw r0, r1[0]
	}
	{
		nop
		stw r2, r0[0]
	}
.Ltmp16:
	.loc	2 342 5
	ldw r0, dp[frameCnt]
	.loc	2 342 5
	{
		add r0, r0, 1
		nop
	}
	.loc	2 342 5
	stw r0, dp[frameCnt]
	{
		mkmsk r0, 1
		ldw r4, sp[0]
	}
	.loc	2 352 1
	{
		ldaw sp, sp[2]
		nop
	}
	{
		nop
		retsp 0
	}
	# RETURN_REG_HOLDER
.Ltmp17:
	.cc_bottom BeClear_AMBIPHONE_ReadInput.function
	.set	BeClear_AMBIPHONE_ReadInput.nstackwords,2
	.globl	BeClear_AMBIPHONE_ReadInput.nstackwords
	.set	BeClear_AMBIPHONE_ReadInput.maxcores,1
	.globl	BeClear_AMBIPHONE_ReadInput.maxcores
	.set	BeClear_AMBIPHONE_ReadInput.maxtimers,0
	.globl	BeClear_AMBIPHONE_ReadInput.maxtimers
	.set	BeClear_AMBIPHONE_ReadInput.maxchanends,0
	.globl	BeClear_AMBIPHONE_ReadInput.maxchanends
.Ltmp18:
	.size	BeClear_AMBIPHONE_ReadInput, .Ltmp18-BeClear_AMBIPHONE_ReadInput
.Lfunc_end0:
	.file	10 "C:/Users/user/workspace/lib_xbeclear/inc\\APESobj.h"
	.cfi_endproc

	.section	.cp.rodata.cst4,"aMc",@progbits,4
	.cc_top .LCPI1_0.data,.LCPI1_0
	.align	4
	.type	.LCPI1_0,@object
	.size	.LCPI1_0, 4
.LCPI1_0:
	.long	66656
	.cc_bottom .LCPI1_0.data
	.cc_top .LCPI1_1.data,.LCPI1_1
	.align	4
	.type	.LCPI1_1,@object
	.size	.LCPI1_1, 4
.LCPI1_1:
	.long	4294967280
	.cc_bottom .LCPI1_1.data
	.text
	.globl	BeClear_AMBIPHONE_WriteOutput
	.align	4
	.type	BeClear_AMBIPHONE_WriteOutput,@function
	.cc_top BeClear_AMBIPHONE_WriteOutput.function,BeClear_AMBIPHONE_WriteOutput
BeClear_AMBIPHONE_WriteOutput:
.Lfunc_begin1:
	.loc	2 371 0
	.cfi_startproc
	.issue_mode dual
	{
		nop
		dualentsp 6
	}
.Ltmp19:
	.cfi_def_cfa_offset 24
.Ltmp20:
	.cfi_offset 15, 0
	std r5, r4, sp[1]
.Ltmp21:
	.cfi_offset 4, -16
.Ltmp22:
	.cfi_offset 5, -12
	{
		nop
		stw r6, sp[4]
	}
.Ltmp23:
	.cfi_offset 6, -8
.Ltmp24:
	.loc	2 377 9 prologue_end
	ldw r0, dp[bap_ap]
	ldw r6, cp[.LCPI1_0]
	.loc	2 377 9
	{
		add r0, r0, r6
		nop
	}
	{
		nop
		ldw r1, r0[0]
	}
	.loc	2 377 9
	ldw r0, dp[q]
	{
		nop
		ldw r3, r0[0]
	}
	.loc	2 377 9
	{
		ldc r4, 0
		stw r3, sp[1]
	}
	ldw r5, cp[.LCPI1_1]
	{
		mov r0, r4
		mov r2, r5
	}
	bl RFVectDenormalize_s
.Ltmp25:
	.loc	2 377 9
	ldw r0, dp[bap_ap]
	.loc	2 377 9
	{
		add r0, r0, r6
		nop
	}
	{
		nop
		ldw r1, r0[0]
	}
	.loc	2 377 9
	ldw r0, dp[q]
	{
		nop
		ldw r3, r0[1]
	}
	.loc	2 377 9
	{
		mov r0, r4
		stw r3, sp[1]
	}
	{
		mov r2, r5
		nop
	}
	bl RFVectDenormalize_s
.Ltmp26:
	.loc	2 407 5
	ldw r0, dp[BeClear_AMBIPHONE_WriteOutput.writeBuffNo]
	.loc	2 407 5
	{
		add r0, r0, 1
		nop
	}
	.loc	2 408 8
.Ltmp27:
	{
		eq r1, r0, 3
		nop
	}
	bt r1, .LBB1_2
	.loc	2 408 8
	{
		mov r4, r0
		nop
	}
.LBB1_2:
	.loc	2 409 9
	stw r4, dp[BeClear_AMBIPHONE_WriteOutput.writeBuffNo]
.Ltmp28:
	.loc	2 410 5
	{
		shl r0, r4, 3
		nop
	}
	ldaw r1, dp[q_a]
	{
		add r0, r1, r0
		nop
	}
	.loc	2 410 5
	stw r0, dp[q]
	{
		nop
		ldw r6, sp[4]
	}
	.loc	2 413 1
	ldd r5, r4, sp[1]
	{
		nop
		retsp 6
	}
	# RETURN_REG_HOLDER
.Ltmp29:
	.cc_bottom BeClear_AMBIPHONE_WriteOutput.function
	.set	BeClear_AMBIPHONE_WriteOutput.nstackwords,(RFVectDenormalize_s.nstackwords + 6)
	.globl	BeClear_AMBIPHONE_WriteOutput.nstackwords
	.set	BeClear_AMBIPHONE_WriteOutput.maxcores,RFVectDenormalize_s.maxcores $M 1
	.globl	BeClear_AMBIPHONE_WriteOutput.maxcores
	.set	BeClear_AMBIPHONE_WriteOutput.maxtimers,RFVectDenormalize_s.maxtimers $M 0
	.globl	BeClear_AMBIPHONE_WriteOutput.maxtimers
	.set	BeClear_AMBIPHONE_WriteOutput.maxchanends,RFVectDenormalize_s.maxchanends $M 0
	.globl	BeClear_AMBIPHONE_WriteOutput.maxchanends
.Ltmp30:
	.size	BeClear_AMBIPHONE_WriteOutput, .Ltmp30-BeClear_AMBIPHONE_WriteOutput
.Lfunc_end1:
	.cfi_endproc

	.globl	BeClear_AMBIPHONE_WriteOutputLastPacket
	.align	4
	.type	BeClear_AMBIPHONE_WriteOutputLastPacket,@function
	.cc_top BeClear_AMBIPHONE_WriteOutputLastPacket.function,BeClear_AMBIPHONE_WriteOutputLastPacket
BeClear_AMBIPHONE_WriteOutputLastPacket:
.Lfunc_begin2:
	.loc	2 428 0
	.cfi_startproc
	.issue_mode dual
	{
		nop
		dualentsp 0
	}
.Ltmp31:
	{
		nop
		retsp 0
	}
	.loc	2 435 1 prologue_end
.Ltmp32:
	# RETURN_REG_HOLDER
.Ltmp33:
	.cc_bottom BeClear_AMBIPHONE_WriteOutputLastPacket.function
	.set	BeClear_AMBIPHONE_WriteOutputLastPacket.nstackwords,0
	.globl	BeClear_AMBIPHONE_WriteOutputLastPacket.nstackwords
	.set	BeClear_AMBIPHONE_WriteOutputLastPacket.maxcores,1
	.globl	BeClear_AMBIPHONE_WriteOutputLastPacket.maxcores
	.set	BeClear_AMBIPHONE_WriteOutputLastPacket.maxtimers,0
	.globl	BeClear_AMBIPHONE_WriteOutputLastPacket.maxtimers
	.set	BeClear_AMBIPHONE_WriteOutputLastPacket.maxchanends,0
	.globl	BeClear_AMBIPHONE_WriteOutputLastPacket.maxchanends
.Ltmp34:
	.size	BeClear_AMBIPHONE_WriteOutputLastPacket, .Ltmp34-BeClear_AMBIPHONE_WriteOutputLastPacket
.Lfunc_end2:
	.cfi_endproc

	.section	.cp.rodata.cst4,"aMc",@progbits,4
	.cc_top .LCPI3_0.data,.LCPI3_0
	.align	4
	.type	.LCPI3_0,@object
	.size	.LCPI3_0, 4
.LCPI3_0:
	.long	131864
	.cc_bottom .LCPI3_0.data
	.cc_top .LCPI3_1.data,.LCPI3_1
	.align	4
	.type	.LCPI3_1,@object
	.size	.LCPI3_1, 4
.LCPI3_1:
	.long	4294967292
	.cc_bottom .LCPI3_1.data
	.cc_top .LCPI3_2.data,.LCPI3_2
	.align	4
	.type	.LCPI3_2,@object
	.size	.LCPI3_2, 4
.LCPI3_2:
	.long	131872
	.cc_bottom .LCPI3_2.data
	.cc_top .LCPI3_3.data,.LCPI3_3
	.align	4
	.type	.LCPI3_3,@object
	.size	.LCPI3_3, 4
.LCPI3_3:
	.long	4294967280
	.cc_bottom .LCPI3_3.data
	.text
	.globl	BeClear_AMBIPHONE_WriteAecCoefs
	.align	4
	.type	BeClear_AMBIPHONE_WriteAecCoefs,@function
	.cc_top BeClear_AMBIPHONE_WriteAecCoefs.function,BeClear_AMBIPHONE_WriteAecCoefs
BeClear_AMBIPHONE_WriteAecCoefs:
.Lfunc_begin3:
	.loc	2 450 0
	.cfi_startproc
	.issue_mode dual
	{
		nop
		dualentsp 6
	}
.Ltmp35:
	.cfi_def_cfa_offset 24
.Ltmp36:
	.cfi_offset 15, 0
	std r5, r4, sp[1]
.Ltmp37:
	.cfi_offset 4, -16
.Ltmp38:
	.cfi_offset 5, -12
	std r7, r6, sp[2]
.Ltmp39:
	.cfi_offset 6, -8
.Ltmp40:
	.cfi_offset 7, -4
	{
		mov r4, r0
		nop
	}
.Ltmp41:
	.loc	2 451 9 prologue_end
	ldw r0, dp[frameCnt]
	bt r0, .LBB3_2
.Ltmp42:
	.loc	2 455 9
	ldw r0, dp[aec_ap]
	ldw r7, cp[.LCPI3_0]
	.loc	2 455 9
	{
		add r0, r0, r7
		nop
	}
.Ltmp43:
	{
		nop
		ldw r0, r0[0]
	}
.Ltmp44:
	.loc	10 1088 5
	{
		ldc r1, 19
		ldw r6, r4[0]
	}
.Ltmp45:
	.loc	10 965 5
	ldaw r0, r1[r0]
	ldw r1, cp[.LCPI3_1]
	.loc	10 965 5
	{
		and r0, r0, r1
		nop
	}
.Ltmp46:
	.loc	10 1089 23
	{
		add r0, r6, r0
		nop
	}
	{
		nop
		stw r0, r4[0]
	}
.Ltmp47:
	.loc	9 404 5
	ldaw r5, r6[4]
.Ltmp48:
	.loc	2 456 9
	ldw r0, dp[aec_ap]
	ldw r1, cp[.LCPI3_2]
	.loc	2 456 9
	{
		add r0, r0, r1
		nop
	}
	.loc	2 456 9
	{
		ldc r1, 0
		ldw r3, r0[0]
	}
	.loc	2 456 9
	{
		mov r0, r4
		mov r2, r5
	}
	bl AMBIPHONE_GetAECCoefs
	.loc	2 457 9
	ldw r0, dp[aec_ap]
	.loc	2 457 9
	{
		add r0, r0, r7
		nop
	}
	{
		nop
		ldw r1, r0[0]
	}
	{
		nop
		stw r5, sp[1]
	}
	ldw r2, cp[.LCPI3_3]
	.loc	2 457 9
	{
		mov r0, r4
		mov r3, r5
	}
	bl RFVectDenormalize_s
.Ltmp49:
	{
		nop
		stw r6, r4[0]
	}
.Ltmp50:
.LBB3_2:
	.loc	2 463 1
	ldd r7, r6, sp[2]
	ldd r5, r4, sp[1]
	{
		nop
		retsp 6
	}
	# RETURN_REG_HOLDER
.Ltmp51:
	.cc_bottom BeClear_AMBIPHONE_WriteAecCoefs.function
	.set	BeClear_AMBIPHONE_WriteAecCoefs.nstackwords,((AMBIPHONE_GetAECCoefs.nstackwords $M RFVectDenormalize_s.nstackwords) + 6)
	.globl	BeClear_AMBIPHONE_WriteAecCoefs.nstackwords
	.set	BeClear_AMBIPHONE_WriteAecCoefs.maxcores,AMBIPHONE_GetAECCoefs.maxcores $M RFVectDenormalize_s.maxcores $M 1
	.globl	BeClear_AMBIPHONE_WriteAecCoefs.maxcores
	.set	BeClear_AMBIPHONE_WriteAecCoefs.maxtimers,AMBIPHONE_GetAECCoefs.maxtimers $M RFVectDenormalize_s.maxtimers $M 0
	.globl	BeClear_AMBIPHONE_WriteAecCoefs.maxtimers
	.set	BeClear_AMBIPHONE_WriteAecCoefs.maxchanends,AMBIPHONE_GetAECCoefs.maxchanends $M RFVectDenormalize_s.maxchanends $M 0
	.globl	BeClear_AMBIPHONE_WriteAecCoefs.maxchanends
.Ltmp52:
	.size	BeClear_AMBIPHONE_WriteAecCoefs, .Ltmp52-BeClear_AMBIPHONE_WriteAecCoefs
.Lfunc_end3:
	.file	11 "C:/Users/user/workspace/lib_xbeclear/inc\\RVectProc.h"
	.cfi_endproc

	.section	.cp.rodata.cst4,"aMc",@progbits,4
	.cc_top .LCPI4_0.data,.LCPI4_0
	.align	4
	.type	.LCPI4_0,@object
	.size	.LCPI4_0, 4
.LCPI4_0:
	.long	106856
	.cc_bottom .LCPI4_0.data
	.cc_top .LCPI4_1.data,.LCPI4_1
	.align	4
	.type	.LCPI4_1,@object
	.size	.LCPI4_1, 4
.LCPI4_1:
	.long	2871134157
	.cc_bottom .LCPI4_1.data
	.cc_top .LCPI4_2.data,.LCPI4_2
	.align	4
	.type	.LCPI4_2,@object
	.size	.LCPI4_2, 4
.LCPI4_2:
	.long	4011418095
	.cc_bottom .LCPI4_2.data
	.cc_top .LCPI4_3.data,.LCPI4_3
	.align	4
	.type	.LCPI4_3,@object
	.size	.LCPI4_3, 4
.LCPI4_3:
	.long	4262003164
	.cc_bottom .LCPI4_3.data
	.cc_top .LCPI4_4.data,.LCPI4_4
	.align	4
	.type	.LCPI4_4,@object
	.size	.LCPI4_4, 4
.LCPI4_4:
	.long	2871007147
	.cc_bottom .LCPI4_4.data
	.cc_top .LCPI4_5.data,.LCPI4_5
	.align	4
	.type	.LCPI4_5,@object
	.size	.LCPI4_5, 4
.LCPI4_5:
	.long	131844
	.cc_bottom .LCPI4_5.data
	.cc_top .LCPI4_6.data,.LCPI4_6
	.align	4
	.type	.LCPI4_6,@object
	.size	.LCPI4_6, 4
.LCPI4_6:
	.long	131848
	.cc_bottom .LCPI4_6.data
	.cc_top .LCPI4_7.data,.LCPI4_7
	.align	4
	.type	.LCPI4_7,@object
	.size	.LCPI4_7, 4
.LCPI4_7:
	.long	131852
	.cc_bottom .LCPI4_7.data
	.cc_top .LCPI4_8.data,.LCPI4_8
	.align	4
	.type	.LCPI4_8,@object
	.size	.LCPI4_8, 4
.LCPI4_8:
	.long	1182400512
	.cc_bottom .LCPI4_8.data
	.cc_top .LCPI4_9.data,.LCPI4_9
	.align	4
	.type	.LCPI4_9,@object
	.size	.LCPI4_9, 4
.LCPI4_9:
	.long	131856
	.cc_bottom .LCPI4_9.data
	.cc_top .LCPI4_10.data,.LCPI4_10
	.align	4
	.type	.LCPI4_10,@object
	.size	.LCPI4_10, 4
.LCPI4_10:
	.long	131864
	.cc_bottom .LCPI4_10.data
	.cc_top .LCPI4_11.data,.LCPI4_11
	.align	4
	.type	.LCPI4_11,@object
	.size	.LCPI4_11, 4
.LCPI4_11:
	.long	131868
	.cc_bottom .LCPI4_11.data
	.cc_top .LCPI4_12.data,.LCPI4_12
	.align	4
	.type	.LCPI4_12,@object
	.size	.LCPI4_12, 4
.LCPI4_12:
	.long	1077936128
	.cc_bottom .LCPI4_12.data
	.cc_top .LCPI4_13.data,.LCPI4_13
	.align	4
	.type	.LCPI4_13,@object
	.size	.LCPI4_13, 4
.LCPI4_13:
	.long	841731191
	.cc_bottom .LCPI4_13.data
	.cc_top .LCPI4_14.data,.LCPI4_14
	.align	4
	.type	.LCPI4_14,@object
	.size	.LCPI4_14, 4
.LCPI4_14:
	.long	131872
	.cc_bottom .LCPI4_14.data
	.text
	.globl	BeClear_AMBIPHONE_AecInit
	.align	4
	.type	BeClear_AMBIPHONE_AecInit,@function
	.cc_top BeClear_AMBIPHONE_AecInit.function,BeClear_AMBIPHONE_AecInit
BeClear_AMBIPHONE_AecInit:
.Lfunc_begin4:
	.loc	2 488 0
	.cfi_startproc
	.issue_mode dual
	{
		nop
		dualentsp 14
	}
.Ltmp53:
	.cfi_def_cfa_offset 56
.Ltmp54:
	.cfi_offset 15, 0
	std r5, r4, sp[3]
.Ltmp55:
	.cfi_offset 4, -32
.Ltmp56:
	.cfi_offset 5, -28
	std r7, r6, sp[4]
.Ltmp57:
	.cfi_offset 6, -24
.Ltmp58:
	.cfi_offset 7, -20
	std r9, r8, sp[5]
.Ltmp59:
	.cfi_offset 8, -16
.Ltmp60:
	.cfi_offset 9, -12
.Ltmp61:
	.cfi_offset 10, -8
.Ltmp62:
	{
		mov r6, r2
		stw r10, sp[12]
	}
.Ltmp63:
	{
		mov r7, r1
		mov r4, r0
	}
.Ltmp64:
	.loc	2 499 5 prologue_end
	ldaw r0, dp[aec_appl]
	stw r0, dp[aec_ap]
	ldaw r1, dp[aec_appl+106856]
	.loc	2 507 5
	bl APES_SetMemPools
	.loc	2 512 5
	ldaw r11, cp[OBJ_UN_INIT]
	{
		mov r5, r11
		ldc r8, 20
	}
	{
		mov r0, r4
		mov r1, r5
	}
	{
		mov r2, r8
		nop
	}
	bl __memcpy_4
	.loc	2 513 5
	{
		mov r0, r7
		mov r1, r5
	}
	{
		mov r2, r8
		nop
	}
	bl __memcpy_4
	.loc	2 514 5
	{
		mov r0, r6
		mov r1, r5
	}
	{
		mov r2, r8
		nop
	}
	bl __memcpy_4
	ldw r8, cp[.LCPI4_0]
.Ltmp65:
	{
		nop
		stw r8, r4[3]
	}
	ldc r9, 8320
	{
		nop
		stw r9, r4[1]
	}
	.loc	2 517 5
	ldaw r11, cp[.L.str1]
	{
		mov r0, r4
		mov r1, r11
	}
	bl OBJ_Init
	{
		ldc r5, 0
		nop
	}
.Ltmp66:
	{
		nop
		stw r5, r7[3]
	}
	{
		nop
		stw r9, r7[1]
	}
	.loc	2 519 5
	ldaw r11, cp[.L.str2]
	{
		mov r0, r7
		mov r1, r11
	}
	bl OBJ_Init
.Ltmp67:
	{
		nop
		stw r5, r6[3]
	}
	ldc r0, 8312
	{
		nop
		stw r0, r6[1]
	}
	.loc	2 521 5
	ldaw r11, cp[.L.str3]
	{
		mov r0, r6
		mov r1, r11
	}
	bl OBJ_Init
	.loc	2 540 9
.Ltmp68:
	ldw r0, dp[aec_ap]
.Ltmp69:
	ldc r1, 13357
	ldw r2, cp[.LCPI4_1]
	ldw r3, cp[.LCPI4_2]
	{
		mov r11, r0
		nop
	}
.Ltmp70:
.LBB4_1:
	.loc	2 544 13
	{
		add r6, r11, 8
		nop
	}
.Ltmp71:
	.loc	2 544 13
	std r2, r3, r11[0]
.Ltmp72:
	.loc	2 542 9
	{
		sub r1, r1, 1
		nop
	}
.xtaloop 13357
	# LOOPMARKER 0
	{
		mov r11, r6
		nop
	}
.Ltmp73:
	.loc	2 542 9
	bt r1, .LBB4_1
.Ltmp74:
	.loc	2 546 9
	{
		add r11, r0, r8
		nop
	}
.Ltmp75:
	ldc r1, 3119
	ldw r2, cp[.LCPI4_3]
	ldw r3, cp[.LCPI4_4]
.Ltmp76:
.LBB4_3:
	.loc	2 550 13
	{
		add r6, r11, 8
		nop
	}
.Ltmp77:
	.loc	2 550 13
	std r2, r3, r11[0]
.Ltmp78:
	.loc	2 548 9
	{
		sub r1, r1, 1
		nop
	}
.xtaloop 3119
	# LOOPMARKER 1
	{
		mov r11, r6
		nop
	}
.Ltmp79:
	.loc	2 548 9
	bt r1, .LBB4_3
.Ltmp80:
	ldw r1, cp[.LCPI4_5]
	.loc	2 558 5
	{
		add r1, r0, r1
		ldc r2, 4
	}
	{
		nop
		stw r2, r1[0]
	}
	ldw r1, cp[.LCPI4_6]
	.loc	2 559 5
	{
		add r1, r0, r1
		mkmsk r6, 1
	}
	{
		nop
		stw r6, r1[0]
	}
	ldw r1, cp[.LCPI4_7]
	.loc	2 560 5
	{
		add r0, r0, r1
		nop
	}
	ldc r1, 256
	{
		nop
		stw r1, r0[0]
	}
.Ltmp81:
	ldw r1, cp[.LCPI4_8]
	.loc	2 561 22
	{
		mov r0, r4
		nop
	}
	bl PFLOAT_Load_f
	.loc	2 561 22
	ldw r2, dp[aec_ap]
	ldw r8, cp[.LCPI4_9]
	.loc	2 561 22
	{
		add r3, r2, r8
		nop
	}
	.loc	2 561 22
	std r1, r0, r3[0]
	ldw r9, cp[.LCPI4_10]
	.loc	2 562 5
	{
		add r0, r2, r9
		nop
	}
	ldc r1, 2048
	{
		nop
		stw r1, r0[0]
	}
	ldw r10, cp[.LCPI4_11]
	.loc	2 566 5
	{
		add r0, r2, r10
		ldc r1, 40
	}
	{
		nop
		stw r1, r0[0]
	}
	.loc	2 572 5
	stw r5, dp[aecfreezeonoff]
	ldw r1, cp[.LCPI4_12]
	.loc	2 573 28
	{
		mov r0, r4
		nop
	}
	bl PFLOAT_Load_f
	.loc	2 573 28
	ldaw r2, dp[aecnorm]
	std r1, r0, r2[0]
	.loc	2 574 5
	stw r5, dp[aecpathchange]
	.loc	2 575 28
	{
		mov r0, r4
		mov r1, r5
	}
	bl PFLOAT_Load_f
	.loc	2 575 28
	ldaw r2, dp[rt60]
	std r1, r0, r2[0]
	.loc	2 576 5
	stw r6, dp[hpfonoff]
	.loc	2 577 5
	stw r6, dp[rt60onoff]
	ldw r1, cp[.LCPI4_13]
	.loc	2 578 28
	{
		mov r0, r4
		nop
	}
	bl PFLOAT_Load_f
	.loc	2 578 28
	ldaw r7, dp[aecsilencelevel]
	std r1, r0, r7[0]
	.loc	2 579 5
	stw r5, dp[aecsilencemode]
	.loc	2 583 5
	stw r5, dp[profilingonoff]
	.loc	2 589 5
	ldw r0, dp[aec_ap]
	ldw r1, cp[.LCPI4_6]
	.loc	2 589 5
	{
		add r1, r0, r1
		nop
	}
	{
		nop
		ldw r1, r1[0]
	}
	ldw r2, cp[.LCPI4_5]
	.loc	2 589 5
	{
		add r2, r0, r2
		nop
	}
	{
		nop
		ldw r2, r2[0]
	}
	ldw r3, cp[.LCPI4_7]
	.loc	2 589 5
	{
		add r3, r0, r3
		nop
	}
	.loc	2 589 5
	{
		add r11, r0, r8
		ldw r3, r3[0]
	}
	.loc	2 589 5
	ldd r5, r11, r11[0]
	.loc	2 589 5
	{
		add r8, r0, r10
		nop
	}
	.loc	2 589 5
	{
		add r9, r0, r9
		ldw r8, r8[0]
	}
	{
		nop
		ldw r10, r9[0]
	}
	ldw r9, cp[.LCPI4_14]
	.loc	2 589 5
	{
		add r0, r0, r9
		nop
	}
	.loc	2 589 5
	std r0, r10, sp[2]
	std r8, r5, sp[1]
	{
		mov r0, r4
		stw r11, sp[1]
	}
	bl AMBIPHONE_AEC_Init
.Ltmp82:
	{
		nop
		ldw r5, r4[0]
	}
.Ltmp83:
	ldc r0, 108
.Ltmp84:
	.loc	10 1089 23
	{
		add r0, r5, r0
		nop
	}
.Ltmp85:
	.loc	10 1089 23
	{
		mkmsk r0, 3
		stw r0, r4[0]
	}
	{
		nop
		stw r0, r5[0]
	}
	{
		nop
		stw r6, r5[2]
	}
.Ltmp86:
	.loc	2 572 5
	ldaw r0, dp[aecfreezeonoff]
.Ltmp87:
	.loc	2 600 5
	{
		ldc r0, 19
		stw r0, r5[1]
	}
	{
		nop
		stw r0, r5[3]
	}
	{
		nop
		stw r6, r5[5]
	}
	.loc	2 573 28
	ldaw r0, dp[aecnorm]
.Ltmp88:
	.loc	2 604 5
	{
		ldc r0, 27
		stw r0, r5[4]
	}
	{
		nop
		stw r0, r5[6]
	}
	{
		nop
		stw r6, r5[8]
	}
	.loc	2 576 5
	ldaw r0, dp[hpfonoff]
.Ltmp89:
	.loc	2 616 5
	{
		ldc r0, 28
		stw r0, r5[7]
	}
	{
		nop
		stw r0, r5[9]
	}
	{
		nop
		stw r6, r5[11]
	}
	.loc	2 577 5
	ldaw r0, dp[rt60onoff]
.Ltmp90:
	.loc	2 620 5
	{
		ldc r0, 48
		stw r0, r5[10]
	}
	.loc	2 622 5
	{
		add r0, r5, r0
		ldc r1, 30
	}
	.loc	2 622 5
	{
		ldc r0, 56
		stw r1, r0[0]
	}
	.loc	2 623 5
	{
		add r0, r5, r0
		nop
	}
	.loc	2 623 5
	{
		ldc r0, 52
		stw r6, r0[0]
	}
	.loc	2 624 5
	{
		add r0, r5, r0
		nop
	}
.Ltmp91:
	.loc	2 624 5
	{
		ldc r0, 60
		stw r7, r0[0]
	}
	.loc	2 630 5
	{
		add r0, r5, r0
		ldc r1, 21
	}
	{
		nop
		stw r1, r0[0]
	}
	ldc r0, 68
	.loc	2 631 5
	{
		add r0, r5, r0
		nop
	}
	{
		nop
		stw r6, r0[0]
	}
	ldc r0, 64
	.loc	2 632 5
	{
		add r0, r5, r0
		nop
	}
	.loc	2 583 5
	ldaw r1, dp[profilingonoff]
	{
		nop
		stw r1, r0[0]
	}
.Ltmp92:
	.loc	2 635 5
	ldw r0, dp[aec_ap]
	.loc	2 635 5
	{
		add r0, r0, r9
		nop
	}
	.loc	2 635 5
	{
		ldc r2, 6
		ldw r3, r0[0]
	}
	.loc	2 635 5
	{
		mov r0, r4
		mov r1, r5
	}
	bl AMBIPHONE_AEC_SetPar
	{
		nop
		stw r5, r4[0]
	}
	{
		nop
		ldw r10, sp[12]
	}
	.loc	2 646 1
	ldd r9, r8, sp[5]
	ldd r7, r6, sp[4]
	ldd r5, r4, sp[3]
.Ltmp93:
	{
		nop
		retsp 14
	}
	# RETURN_REG_HOLDER
.Ltmp94:
	.cc_bottom BeClear_AMBIPHONE_AecInit.function
	.set	BeClear_AMBIPHONE_AecInit.nstackwords,((APES_SetMemPools.nstackwords $M __memcpy_4.nstackwords $M OBJ_Init.nstackwords $M PFLOAT_Load_f.nstackwords $M AMBIPHONE_AEC_Init.nstackwords $M AMBIPHONE_AEC_SetPar.nstackwords) + 14)
	.globl	BeClear_AMBIPHONE_AecInit.nstackwords
	.set	BeClear_AMBIPHONE_AecInit.maxcores,AMBIPHONE_AEC_Init.maxcores $M AMBIPHONE_AEC_SetPar.maxcores $M APES_SetMemPools.maxcores $M OBJ_Init.maxcores $M PFLOAT_Load_f.maxcores $M 1
	.globl	BeClear_AMBIPHONE_AecInit.maxcores
	.set	BeClear_AMBIPHONE_AecInit.maxtimers,AMBIPHONE_AEC_Init.maxtimers $M AMBIPHONE_AEC_SetPar.maxtimers $M APES_SetMemPools.maxtimers $M OBJ_Init.maxtimers $M PFLOAT_Load_f.maxtimers $M 0
	.globl	BeClear_AMBIPHONE_AecInit.maxtimers
	.set	BeClear_AMBIPHONE_AecInit.maxchanends,AMBIPHONE_AEC_Init.maxchanends $M AMBIPHONE_AEC_SetPar.maxchanends $M APES_SetMemPools.maxchanends $M OBJ_Init.maxchanends $M PFLOAT_Load_f.maxchanends $M 0
	.globl	BeClear_AMBIPHONE_AecInit.maxchanends
.Ltmp95:
	.size	BeClear_AMBIPHONE_AecInit, .Ltmp95-BeClear_AMBIPHONE_AecInit
.Lfunc_end4:
	.cfi_endproc

	.section	.cp.rodata.cst4,"aMc",@progbits,4
	.cc_top .LCPI5_0.data,.LCPI5_0
	.align	4
	.type	.LCPI5_0,@object
	.size	.LCPI5_0, 4
.LCPI5_0:
	.long	131844
	.cc_bottom .LCPI5_0.data
	.cc_top .LCPI5_1.data,.LCPI5_1
	.align	4
	.type	.LCPI5_1,@object
	.size	.LCPI5_1, 4
.LCPI5_1:
	.long	131808
	.cc_bottom .LCPI5_1.data
	.cc_top .LCPI5_2.data,.LCPI5_2
	.align	4
	.type	.LCPI5_2,@object
	.size	.LCPI5_2, 4
.LCPI5_2:
	.long	131824
	.cc_bottom .LCPI5_2.data
	.cc_top .LCPI5_3.data,.LCPI5_3
	.align	4
	.type	.LCPI5_3,@object
	.size	.LCPI5_3, 4
.LCPI5_3:
	.long	131840
	.cc_bottom .LCPI5_3.data
	.cc_top .LCPI5_4.data,.LCPI5_4
	.align	4
	.type	.LCPI5_4,@object
	.size	.LCPI5_4, 4
.LCPI5_4:
	.long	131872
	.cc_bottom .LCPI5_4.data
	.text
	.globl	BeClear_AMBIPHONE_AecInitApp
	.align	4
	.type	BeClear_AMBIPHONE_AecInitApp,@function
	.cc_top BeClear_AMBIPHONE_AecInitApp.function,BeClear_AMBIPHONE_AecInitApp
BeClear_AMBIPHONE_AecInitApp:
.Lfunc_begin5:
	.loc	2 663 0
	.cfi_startproc
	.issue_mode dual
	{
		nop
		dualentsp 8
	}
.Ltmp96:
	.cfi_def_cfa_offset 32
.Ltmp97:
	.cfi_offset 15, 0
	std r5, r4, sp[1]
.Ltmp98:
	.cfi_offset 4, -24
.Ltmp99:
	.cfi_offset 5, -20
	std r7, r6, sp[2]
.Ltmp100:
	.cfi_offset 6, -16
.Ltmp101:
	.cfi_offset 7, -12
	{
		nop
		stw r8, sp[6]
	}
.Ltmp102:
	.cfi_offset 8, -8
.Ltmp103:
	.loc	2 672 9 prologue_end
	ldw r3, dp[mics]
	ldaw r11, dp[x_mics+16]
	{
		nop
		stw r11, r3[0]
	}
	.loc	2 673 9
	ldw r3, dp[mics1]
	ldaw r11, dp[x_mics+4176]
	{
		nop
		stw r11, r3[0]
	}
.Ltmp104:
	.loc	2 672 9
	ldw r3, dp[mics]
	ldaw r11, dp[x_mics+1056]
	{
		nop
		stw r11, r3[1]
	}
	.loc	2 673 9
	ldw r3, dp[mics1]
	ldaw r11, dp[x_mics+5216]
	{
		nop
		stw r11, r3[1]
	}
	.loc	2 672 9
	ldw r3, dp[mics]
	ldaw r11, dp[x_mics+2096]
	{
		nop
		stw r11, r3[2]
	}
	.loc	2 673 9
	ldw r3, dp[mics1]
	ldaw r11, dp[x_mics+6256]
	{
		nop
		stw r11, r3[2]
	}
	.loc	2 672 9
	ldw r3, dp[mics]
	ldaw r11, dp[x_mics+3136]
	{
		nop
		stw r11, r3[3]
	}
	.loc	2 673 9
	ldw r3, dp[mics1]
	ldaw r11, dp[x_mics+7296]
	{
		nop
		stw r11, r3[3]
	}
.Ltmp105:
	.loc	2 681 9
	ldw r3, dp[far]
	ldaw r11, dp[x_far+16]
	{
		nop
		stw r11, r3[0]
	}
	.loc	2 682 9
	ldw r3, dp[far1]
	ldaw r11, dp[x_far+1056]
	{
		nop
		stw r11, r3[0]
	}
.Ltmp106:
	.loc	2 691 5
	ldw r11, dp[aec_ap]
	ldw r3, cp[.LCPI5_0]
	.loc	2 691 5
	{
		add r4, r11, r3
		nop
	}
	{
		nop
		ldw r4, r4[0]
	}
	bf r4, .LBB5_3
.Ltmp107:
	{
		ldc r4, 0
		nop
	}
	ldw r5, cp[.LCPI5_1]
	ldw r6, cp[.LCPI5_2]
	ldc r7, 1040
.Ltmp108:
.LBB5_2:
	ldaw r11, r11[r4]
	{
		add r11, r11, r5
		nop
	}
	{
		nop
		stw r0, r11[0]
	}
	.loc	2 694 9
.Ltmp109:
	ldw r11, dp[aec_ap]
	ldaw r11, r11[r4]
	{
		add r11, r11, r6
		nop
	}
.Ltmp110:
	.loc	2 694 9
	{
		add r4, r4, 1
		stw r1, r11[0]
	}
.Ltmp111:
	.loc	2 691 5
	ldw r11, dp[aec_ap]
	.loc	2 691 5
	{
		add r8, r11, r3
		nop
	}
	.loc	2 691 5
	{
		add r0, r0, r7
		ldw r8, r8[0]
	}
	.loc	2 691 5
	{
		add r1, r1, r7
		lsu r8, r4, r8
	}
	bt r8, .LBB5_2
.Ltmp112:
.LBB5_3:
	ldw r0, cp[.LCPI5_3]
	.loc	2 696 5
	{
		add r1, r11, r0
		nop
	}
	{
		nop
		stw r2, r1[0]
	}
	.loc	2 701 5
	ldw r1, dp[aec_ap]
	.loc	2 701 5
	{
		add r0, r1, r0
		nop
	}
	{
		nop
		ldw r0, r0[0]
	}
	ldw r2, cp[.LCPI5_4]
.Ltmp113:
	.loc	2 701 5
	{
		add r1, r1, r2
		nop
	}
	{
		nop
		ldw r1, r1[0]
	}
	.loc	2 701 5
	bl AMBIPHONE_AEC_InitApp
	{
		nop
		ldw r8, sp[6]
	}
	.loc	2 707 1
	ldd r7, r6, sp[2]
	ldd r5, r4, sp[1]
	{
		nop
		retsp 8
	}
	# RETURN_REG_HOLDER
.Ltmp114:
	.cc_bottom BeClear_AMBIPHONE_AecInitApp.function
	.set	BeClear_AMBIPHONE_AecInitApp.nstackwords,(AMBIPHONE_AEC_InitApp.nstackwords + 8)
	.globl	BeClear_AMBIPHONE_AecInitApp.nstackwords
	.set	BeClear_AMBIPHONE_AecInitApp.maxcores,AMBIPHONE_AEC_InitApp.maxcores $M 1
	.globl	BeClear_AMBIPHONE_AecInitApp.maxcores
	.set	BeClear_AMBIPHONE_AecInitApp.maxtimers,AMBIPHONE_AEC_InitApp.maxtimers $M 0
	.globl	BeClear_AMBIPHONE_AecInitApp.maxtimers
	.set	BeClear_AMBIPHONE_AecInitApp.maxchanends,AMBIPHONE_AEC_InitApp.maxchanends $M 0
	.globl	BeClear_AMBIPHONE_AecInitApp.maxchanends
.Ltmp115:
	.size	BeClear_AMBIPHONE_AecInitApp, .Ltmp115-BeClear_AMBIPHONE_AecInitApp
.Lfunc_end5:
	.cfi_endproc

	.section	.cp.rodata.cst4,"aMc",@progbits,4
	.cc_top .LCPI6_0.data,.LCPI6_0
	.align	4
	.type	.LCPI6_0,@object
	.size	.LCPI6_0, 4
.LCPI6_0:
	.long	106848
	.cc_bottom .LCPI6_0.data
	.cc_top .LCPI6_1.data,.LCPI6_1
	.align	4
	.type	.LCPI6_1,@object
	.size	.LCPI6_1, 4
.LCPI6_1:
	.long	2871134157
	.cc_bottom .LCPI6_1.data
	.cc_top .LCPI6_2.data,.LCPI6_2
	.align	4
	.type	.LCPI6_2,@object
	.size	.LCPI6_2, 4
.LCPI6_2:
	.long	4011418095
	.cc_bottom .LCPI6_2.data
	.cc_top .LCPI6_3.data,.LCPI6_3
	.align	4
	.type	.LCPI6_3,@object
	.size	.LCPI6_3, 4
.LCPI6_3:
	.long	115168
	.cc_bottom .LCPI6_3.data
	.cc_top .LCPI6_4.data,.LCPI6_4
	.align	4
	.type	.LCPI6_4,@object
	.size	.LCPI6_4, 4
.LCPI6_4:
	.long	4262003164
	.cc_bottom .LCPI6_4.data
	.cc_top .LCPI6_5.data,.LCPI6_5
	.align	4
	.type	.LCPI6_5,@object
	.size	.LCPI6_5, 4
.LCPI6_5:
	.long	2871007147
	.cc_bottom .LCPI6_5.data
	.cc_top .LCPI6_6.data,.LCPI6_6
	.align	4
	.type	.LCPI6_6,@object
	.size	.LCPI6_6, 4
.LCPI6_6:
	.long	123488
	.cc_bottom .LCPI6_6.data
	.cc_top .LCPI6_7.data,.LCPI6_7
	.align	4
	.type	.LCPI6_7,@object
	.size	.LCPI6_7, 4
.LCPI6_7:
	.long	131800
	.cc_bottom .LCPI6_7.data
	.text
	.globl	BeClear_AMBIPHONE_AecMemoryUsage
	.align	4
	.type	BeClear_AMBIPHONE_AecMemoryUsage,@function
	.cc_top BeClear_AMBIPHONE_AecMemoryUsage.function,BeClear_AMBIPHONE_AecMemoryUsage
BeClear_AMBIPHONE_AecMemoryUsage:
.Lfunc_begin6:
	.loc	2 724 0
	.cfi_startproc
	.issue_mode dual
	{
		nop
		dualentsp 8
	}
.Ltmp116:
	.cfi_def_cfa_offset 32
.Ltmp117:
	.cfi_offset 15, 0
	std r5, r4, sp[1]
.Ltmp118:
	.cfi_offset 4, -24
.Ltmp119:
	.cfi_offset 5, -20
	std r7, r6, sp[2]
.Ltmp120:
	.cfi_offset 6, -16
.Ltmp121:
	.cfi_offset 7, -12
	{
		nop
		stw r8, sp[6]
	}
.Ltmp122:
	.cfi_offset 8, -8
.Ltmp123:
	.loc	2 732 5 prologue_end
	ldw r0, dp[aec_ap]
.Ltmp124:
	ldw r1, cp[.LCPI6_0]
.Ltmp125:
	{
		add r0, r0, r1
		nop
	}
	ldc r5, 13357
	ldw r1, cp[.LCPI6_1]
	ldw r2, cp[.LCPI6_2]
.Ltmp126:
	{
		ldc r4, 0
		nop
	}
.LBB6_1:
.Ltmp127:
	.loc	2 2675 14
	ldd r11, r3, r0[0]
	.loc	2 2675 14
	xor r11, r11, r1
	xor r3, r3, r2
	{
		or r3, r3, r11
		nop
	}
.Ltmp128:
	bt r3, .LBB6_4
.Ltmp129:
	.loc	2 2673 61
	{
		sub r5, r5, 1
		sub r0, r0, 8
	}
.Ltmp130:
	bt r5, .LBB6_1
.Ltmp131:
	.loc	2 732 5
	{
		mov r5, r4
		nop
	}
.Ltmp132:
.LBB6_4:
	.loc	2 2680 5
	ldaw r11, cp[.L.str4]
.Ltmp133:
	{
		mov r0, r11
		nop
	}
.Ltmp134:
	bl printstr
.Ltmp135:
	.loc	2 2681 5
	ldaw r11, cp[.L.str16]
	{
		mov r0, r11
		nop
	}
	bl printstr
	.loc	2 2682 5
	{
		shl r0, r5, 3
		nop
	}
	.loc	2 2682 5
	bl printint
	.loc	2 2683 5
	ldaw r11, cp[.L.str17]
	{
		mov r0, r11
		nop
	}
	bl printstr
.Ltmp136:
	.loc	2 734 5
	ldw r0, dp[aec_ap]
	ldw r1, cp[.LCPI6_3]
	{
		add r0, r0, r1
		nop
	}
	ldc r6, 1040
.Ltmp137:
	ldw r7, cp[.LCPI6_4]
	ldw r8, cp[.LCPI6_5]
.LBB6_5:
.Ltmp138:
	.loc	2 2675 14
	ldd r2, r1, r0[0]
.Ltmp139:
	.loc	2 2675 14
	xor r2, r2, r7
	xor r1, r1, r8
	{
		or r1, r1, r2
		nop
	}
.Ltmp140:
	bt r1, .LBB6_8
.Ltmp141:
	.loc	2 2673 61
	{
		sub r6, r6, 1
		sub r0, r0, 8
	}
.Ltmp142:
	bt r6, .LBB6_5
.Ltmp143:
	.loc	2 734 5
	{
		mov r6, r4
		nop
	}
.Ltmp144:
.LBB6_8:
	.loc	2 2680 5
	ldaw r11, cp[.L.str5]
.Ltmp145:
	{
		mov r0, r11
		nop
	}
.Ltmp146:
	bl printstr
.Ltmp147:
	.loc	2 2681 5
	ldaw r11, cp[.L.str16]
	{
		mov r5, r11
		nop
	}
	{
		mov r0, r5
		nop
	}
	bl printstr
	.loc	2 2682 5
	{
		shl r0, r6, 3
		nop
	}
	.loc	2 2682 5
	bl printint
	.loc	2 2683 5
	ldaw r11, cp[.L.str17]
	{
		mov r6, r11
		nop
	}
	{
		mov r0, r6
		nop
	}
	bl printstr
.Ltmp148:
	.loc	2 2680 5
	ldaw r11, cp[.L.str6]
.Ltmp149:
	{
		mov r0, r11
		nop
	}
	bl printstr
.Ltmp150:
	.loc	2 2681 5
	{
		mov r0, r5
		nop
	}
	bl printstr
	.loc	2 2682 5
	{
		mov r0, r4
		nop
	}
	bl printint
	.loc	2 2683 5
	{
		mov r0, r6
		nop
	}
	bl printstr
.Ltmp151:
	.loc	2 741 5
	ldw r0, dp[aec_ap]
	ldw r1, cp[.LCPI6_6]
	{
		add r0, r0, r1
		nop
	}
	ldc r6, 1040
.Ltmp152:
.LBB6_9:
	.loc	2 2675 14
	ldd r2, r1, r0[0]
.Ltmp153:
	.loc	2 2675 14
	xor r2, r2, r7
	xor r1, r1, r8
	{
		or r1, r1, r2
		nop
	}
.Ltmp154:
	bt r1, .LBB6_12
.Ltmp155:
	.loc	2 2673 61
	{
		sub r6, r6, 1
		sub r0, r0, 8
	}
.Ltmp156:
	bt r6, .LBB6_9
.Ltmp157:
	.loc	2 741 5
	{
		mov r6, r4
		nop
	}
.Ltmp158:
.LBB6_12:
	.loc	2 2680 5
	ldaw r11, cp[.L.str7]
.Ltmp159:
	{
		mov r0, r11
		nop
	}
.Ltmp160:
	bl printstr
.Ltmp161:
	.loc	2 2681 5
	ldaw r11, cp[.L.str16]
	{
		mov r5, r11
		nop
	}
	{
		mov r0, r5
		nop
	}
	bl printstr
	.loc	2 2682 5
	{
		shl r0, r6, 3
		nop
	}
	.loc	2 2682 5
	bl printint
	.loc	2 2683 5
	ldaw r11, cp[.L.str17]
	{
		mov r6, r11
		nop
	}
	{
		mov r0, r6
		nop
	}
	bl printstr
.Ltmp162:
	.loc	2 2680 5
	ldaw r11, cp[.L.str8]
.Ltmp163:
	{
		mov r0, r11
		nop
	}
	bl printstr
.Ltmp164:
	.loc	2 2681 5
	{
		mov r0, r5
		nop
	}
	bl printstr
	.loc	2 2682 5
	{
		mov r0, r4
		nop
	}
	bl printint
	.loc	2 2683 5
	{
		mov r0, r6
		nop
	}
	bl printstr
.Ltmp165:
	.loc	2 748 5
	ldw r0, dp[aec_ap]
	ldw r1, cp[.LCPI6_7]
	{
		add r0, r0, r1
		nop
	}
	ldc r5, 1039
.Ltmp166:
.LBB6_13:
	.loc	2 2675 14
	ldd r2, r1, r0[0]
.Ltmp167:
	.loc	2 2675 14
	xor r2, r2, r7
	xor r1, r1, r8
	{
		or r1, r1, r2
		nop
	}
.Ltmp168:
	bt r1, .LBB6_16
.Ltmp169:
	.loc	2 2673 61
	{
		sub r5, r5, 1
		sub r0, r0, 8
	}
.Ltmp170:
	bt r5, .LBB6_13
.Ltmp171:
	.loc	2 748 5
	{
		mov r5, r4
		nop
	}
.Ltmp172:
.LBB6_16:
	.loc	2 2680 5
	ldaw r11, cp[.L.str9]
.Ltmp173:
	{
		mov r0, r11
		nop
	}
.Ltmp174:
	bl printstr
.Ltmp175:
	.loc	2 2681 5
	ldaw r11, cp[.L.str16]
	{
		mov r0, r11
		nop
	}
	bl printstr
	.loc	2 2682 5
	{
		shl r0, r5, 3
		nop
	}
	.loc	2 2682 5
	bl printint
	.loc	2 2683 5
	ldaw r11, cp[.L.str17]
	{
		mov r0, r11
		nop
	}
	bl printstr
	{
		nop
		ldw r8, sp[6]
	}
.Ltmp176:
	.loc	2 761 1
	ldd r7, r6, sp[2]
	ldd r5, r4, sp[1]
	{
		nop
		retsp 8
	}
	# RETURN_REG_HOLDER
.Ltmp177:
	.cc_bottom BeClear_AMBIPHONE_AecMemoryUsage.function
	.set	BeClear_AMBIPHONE_AecMemoryUsage.nstackwords,((printint.nstackwords $M printstr.nstackwords) + 8)
	.globl	BeClear_AMBIPHONE_AecMemoryUsage.nstackwords
	.set	BeClear_AMBIPHONE_AecMemoryUsage.maxcores,printint.maxcores $M printstr.maxcores $M 1
	.globl	BeClear_AMBIPHONE_AecMemoryUsage.maxcores
	.set	BeClear_AMBIPHONE_AecMemoryUsage.maxtimers,printint.maxtimers $M printstr.maxtimers $M 0
	.globl	BeClear_AMBIPHONE_AecMemoryUsage.maxtimers
	.set	BeClear_AMBIPHONE_AecMemoryUsage.maxchanends,printint.maxchanends $M printstr.maxchanends $M 0
	.globl	BeClear_AMBIPHONE_AecMemoryUsage.maxchanends
.Ltmp178:
	.size	BeClear_AMBIPHONE_AecMemoryUsage, .Ltmp178-BeClear_AMBIPHONE_AecMemoryUsage
.Lfunc_end6:
	.cfi_endproc

	.globl	LF_CheckMemoryChunkSize
	.align	4
	.type	LF_CheckMemoryChunkSize,@function
	.cc_top LF_CheckMemoryChunkSize.function,LF_CheckMemoryChunkSize
LF_CheckMemoryChunkSize:
.Lfunc_begin7:
	.loc	2 2669 0
	.cfi_startproc
	.issue_mode dual
	{
		nop
		dualentsp 6
	}
.Ltmp179:
	.cfi_def_cfa_offset 24
.Ltmp180:
	.cfi_offset 15, 0
	std r5, r4, sp[1]
.Ltmp181:
	.cfi_offset 4, -16
.Ltmp182:
	.cfi_offset 5, -12
	{
		nop
		stw r6, sp[4]
	}
.Ltmp183:
	.cfi_offset 6, -8
.Ltmp184:
	{
		shr r1, r1, 3
		ldw r0, sp[7]
	}
.Ltmp185:
	{
		ldc r4, 0
		nop
	}
	bf r1, .LBB7_5
.Ltmp186:
	{
		nop
		ldw r11, sp[8]
	}
	{
		sub r11, r11, 8
		nop
	}
.Ltmp187:
.LBB7_3:
	.loc	2 2675 14 prologue_end
	ldd r6, r5, r11[0]
	.loc	2 2675 14
	xor r6, r6, r3
	xor r5, r5, r2
	{
		or r5, r5, r6
		nop
	}
.Ltmp188:
	.loc	2 2675 14
	bt r5, .LBB7_4
.Ltmp189:
	.loc	2 2673 61
	{
		sub r1, r1, 1
		sub r11, r11, 8
	}
	bt r1, .LBB7_3
	bu .LBB7_5
.Ltmp190:
.LBB7_4:
	{
		mov r4, r1
		nop
	}
.Ltmp191:
.LBB7_5:
	.loc	2 2680 5
	bl printstr
.Ltmp192:
	.loc	2 2681 5
	ldaw r11, cp[.L.str16]
	{
		mov r0, r11
		nop
	}
	bl printstr
	.loc	2 2682 5
	{
		shl r0, r4, 3
		nop
	}
	.loc	2 2682 5
	bl printint
	.loc	2 2683 5
	ldaw r11, cp[.L.str17]
	{
		mov r0, r11
		nop
	}
	bl printstr
	{
		nop
		ldw r6, sp[4]
	}
	.loc	2 2684 1
	ldd r5, r4, sp[1]
	{
		nop
		retsp 6
	}
	# RETURN_REG_HOLDER
.Ltmp193:
	.cc_bottom LF_CheckMemoryChunkSize.function
	.set	LF_CheckMemoryChunkSize.nstackwords,((printint.nstackwords $M printstr.nstackwords) + 6)
	.globl	LF_CheckMemoryChunkSize.nstackwords
	.set	LF_CheckMemoryChunkSize.maxcores,printint.maxcores $M printstr.maxcores $M 1
	.globl	LF_CheckMemoryChunkSize.maxcores
	.set	LF_CheckMemoryChunkSize.maxtimers,printint.maxtimers $M printstr.maxtimers $M 0
	.globl	LF_CheckMemoryChunkSize.maxtimers
	.set	LF_CheckMemoryChunkSize.maxchanends,printint.maxchanends $M printstr.maxchanends $M 0
	.globl	LF_CheckMemoryChunkSize.maxchanends
.Ltmp194:
	.size	LF_CheckMemoryChunkSize, .Ltmp194-LF_CheckMemoryChunkSize
.Lfunc_end7:
	.cfi_endproc

	.section	.cp.rodata.cst4,"aMc",@progbits,4
	.cc_top .LCPI8_0.data,.LCPI8_0
	.align	4
	.type	.LCPI8_0,@object
	.size	.LCPI8_0, 4
.LCPI8_0:
	.long	131872
	.cc_bottom .LCPI8_0.data
	.text
	.globl	BeClear_AMBIPHONE_MicsFilterMic
	.align	4
	.type	BeClear_AMBIPHONE_MicsFilterMic,@function
	.cc_top BeClear_AMBIPHONE_MicsFilterMic.function,BeClear_AMBIPHONE_MicsFilterMic
BeClear_AMBIPHONE_MicsFilterMic:
.Lfunc_begin8:
	.loc	2 777 0
	.cfi_startproc
	.issue_mode dual
.Ltmp195:
	.cfi_def_cfa_offset 8
.Ltmp196:
	.cfi_offset 15, 0
.Ltmp197:
	{
		mov r2, r1
		dualentsp 2
	}
.Ltmp198:
	.loc	2 778 5 prologue_end
	ldw r1, dp[mics]
	.loc	2 778 5
	ldw r3, dp[aec_ap]
	ldw r11, cp[.LCPI8_0]
	.loc	2 778 5
	{
		add r3, r3, r11
		nop
	}
	{
		nop
		ldw r3, r3[0]
	}
	.loc	2 778 5
	bl AMBIPHONE_MicsFilterMic
.Ltmp199:
	{
		nop
		retsp 2
	}
	.loc	2 779 1
	# RETURN_REG_HOLDER
.Ltmp200:
	.cc_bottom BeClear_AMBIPHONE_MicsFilterMic.function
	.set	BeClear_AMBIPHONE_MicsFilterMic.nstackwords,(AMBIPHONE_MicsFilterMic.nstackwords + 2)
	.globl	BeClear_AMBIPHONE_MicsFilterMic.nstackwords
	.set	BeClear_AMBIPHONE_MicsFilterMic.maxcores,AMBIPHONE_MicsFilterMic.maxcores $M 1
	.globl	BeClear_AMBIPHONE_MicsFilterMic.maxcores
	.set	BeClear_AMBIPHONE_MicsFilterMic.maxtimers,AMBIPHONE_MicsFilterMic.maxtimers $M 0
	.globl	BeClear_AMBIPHONE_MicsFilterMic.maxtimers
	.set	BeClear_AMBIPHONE_MicsFilterMic.maxchanends,AMBIPHONE_MicsFilterMic.maxchanends $M 0
	.globl	BeClear_AMBIPHONE_MicsFilterMic.maxchanends
.Ltmp201:
	.size	BeClear_AMBIPHONE_MicsFilterMic, .Ltmp201-BeClear_AMBIPHONE_MicsFilterMic
.Lfunc_end8:
	.cfi_endproc

	.section	.cp.rodata.cst4,"aMc",@progbits,4
	.cc_top .LCPI9_0.data,.LCPI9_0
	.align	4
	.type	.LCPI9_0,@object
	.size	.LCPI9_0, 4
.LCPI9_0:
	.long	131872
	.cc_bottom .LCPI9_0.data
	.text
	.globl	BeClear_AMBIPHONE_FarDelay
	.align	4
	.type	BeClear_AMBIPHONE_FarDelay,@function
	.cc_top BeClear_AMBIPHONE_FarDelay.function,BeClear_AMBIPHONE_FarDelay
BeClear_AMBIPHONE_FarDelay:
.Lfunc_begin9:
	.loc	2 794 0
	.cfi_startproc
	.issue_mode dual
	{
		nop
		dualentsp 2
	}
.Ltmp202:
	.cfi_def_cfa_offset 8
.Ltmp203:
	.cfi_offset 15, 0
	.loc	2 795 5 prologue_end
.Ltmp204:
	ldw r1, dp[far]
	.loc	2 795 5
	ldw r2, dp[aec_ap]
	ldw r3, cp[.LCPI9_0]
	.loc	2 795 5
	{
		add r2, r2, r3
		nop
	}
	{
		nop
		ldw r2, r2[0]
	}
	.loc	2 795 5
	bl AMBIPHONE_FarDelay
.Ltmp205:
	{
		nop
		retsp 2
	}
	.loc	2 796 1
	# RETURN_REG_HOLDER
.Ltmp206:
	.cc_bottom BeClear_AMBIPHONE_FarDelay.function
	.set	BeClear_AMBIPHONE_FarDelay.nstackwords,(AMBIPHONE_FarDelay.nstackwords + 2)
	.globl	BeClear_AMBIPHONE_FarDelay.nstackwords
	.set	BeClear_AMBIPHONE_FarDelay.maxcores,AMBIPHONE_FarDelay.maxcores $M 1
	.globl	BeClear_AMBIPHONE_FarDelay.maxcores
	.set	BeClear_AMBIPHONE_FarDelay.maxtimers,AMBIPHONE_FarDelay.maxtimers $M 0
	.globl	BeClear_AMBIPHONE_FarDelay.maxtimers
	.set	BeClear_AMBIPHONE_FarDelay.maxchanends,AMBIPHONE_FarDelay.maxchanends $M 0
	.globl	BeClear_AMBIPHONE_FarDelay.maxchanends
.Ltmp207:
	.size	BeClear_AMBIPHONE_FarDelay, .Ltmp207-BeClear_AMBIPHONE_FarDelay
.Lfunc_end9:
	.cfi_endproc

	.section	.cp.rodata.cst4,"aMc",@progbits,4
	.cc_top .LCPI10_0.data,.LCPI10_0
	.align	4
	.type	.LCPI10_0,@object
	.size	.LCPI10_0, 4
.LCPI10_0:
	.long	131872
	.cc_bottom .LCPI10_0.data
	.text
	.globl	BeClear_AMBIPHONE_AecFlush
	.align	4
	.type	BeClear_AMBIPHONE_AecFlush,@function
	.cc_top BeClear_AMBIPHONE_AecFlush.function,BeClear_AMBIPHONE_AecFlush
BeClear_AMBIPHONE_AecFlush:
.Lfunc_begin10:
	.loc	2 811 0
	.cfi_startproc
	.issue_mode dual
	{
		nop
		dualentsp 2
	}
.Ltmp208:
	.cfi_def_cfa_offset 8
.Ltmp209:
	.cfi_offset 15, 0
	.loc	2 812 5 prologue_end
.Ltmp210:
	ldw r1, dp[far]
	.loc	2 812 5
	ldw r2, dp[aec_ap]
	ldw r3, cp[.LCPI10_0]
	.loc	2 812 5
	{
		add r2, r2, r3
		nop
	}
	{
		nop
		ldw r2, r2[0]
	}
	.loc	2 812 5
	bl AMBIPHONE_AecFlush
.Ltmp211:
	{
		nop
		retsp 2
	}
	.loc	2 813 1
	# RETURN_REG_HOLDER
.Ltmp212:
	.cc_bottom BeClear_AMBIPHONE_AecFlush.function
	.set	BeClear_AMBIPHONE_AecFlush.nstackwords,(AMBIPHONE_AecFlush.nstackwords + 2)
	.globl	BeClear_AMBIPHONE_AecFlush.nstackwords
	.set	BeClear_AMBIPHONE_AecFlush.maxcores,AMBIPHONE_AecFlush.maxcores $M 1
	.globl	BeClear_AMBIPHONE_AecFlush.maxcores
	.set	BeClear_AMBIPHONE_AecFlush.maxtimers,AMBIPHONE_AecFlush.maxtimers $M 0
	.globl	BeClear_AMBIPHONE_AecFlush.maxtimers
	.set	BeClear_AMBIPHONE_AecFlush.maxchanends,AMBIPHONE_AecFlush.maxchanends $M 0
	.globl	BeClear_AMBIPHONE_AecFlush.maxchanends
.Ltmp213:
	.size	BeClear_AMBIPHONE_AecFlush, .Ltmp213-BeClear_AMBIPHONE_AecFlush
.Lfunc_end10:
	.cfi_endproc

	.section	.cp.rodata.cst4,"aMc",@progbits,4
	.cc_top .LCPI11_0.data,.LCPI11_0
	.align	4
	.type	.LCPI11_0,@object
	.size	.LCPI11_0, 4
.LCPI11_0:
	.long	131872
	.cc_bottom .LCPI11_0.data
	.text
	.globl	BeClear_AMBIPHONE_AecTrackPower
	.align	4
	.type	BeClear_AMBIPHONE_AecTrackPower,@function
	.cc_top BeClear_AMBIPHONE_AecTrackPower.function,BeClear_AMBIPHONE_AecTrackPower
BeClear_AMBIPHONE_AecTrackPower:
.Lfunc_begin11:
	.loc	2 828 0
	.cfi_startproc
	.issue_mode dual
	{
		nop
		dualentsp 2
	}
.Ltmp214:
	.cfi_def_cfa_offset 8
.Ltmp215:
	.cfi_offset 15, 0
	.loc	2 829 5 prologue_end
.Ltmp216:
	ldw r1, dp[far]
	.loc	2 829 5
	ldw r2, dp[aec_ap]
	ldw r3, cp[.LCPI11_0]
	.loc	2 829 5
	{
		add r2, r2, r3
		nop
	}
	{
		nop
		ldw r2, r2[0]
	}
	.loc	2 829 5
	bl AMBIPHONE_AecTrackPower
.Ltmp217:
	{
		nop
		retsp 2
	}
	.loc	2 830 1
	# RETURN_REG_HOLDER
.Ltmp218:
	.cc_bottom BeClear_AMBIPHONE_AecTrackPower.function
	.set	BeClear_AMBIPHONE_AecTrackPower.nstackwords,(AMBIPHONE_AecTrackPower.nstackwords + 2)
	.globl	BeClear_AMBIPHONE_AecTrackPower.nstackwords
	.set	BeClear_AMBIPHONE_AecTrackPower.maxcores,AMBIPHONE_AecTrackPower.maxcores $M 1
	.globl	BeClear_AMBIPHONE_AecTrackPower.maxcores
	.set	BeClear_AMBIPHONE_AecTrackPower.maxtimers,AMBIPHONE_AecTrackPower.maxtimers $M 0
	.globl	BeClear_AMBIPHONE_AecTrackPower.maxtimers
	.set	BeClear_AMBIPHONE_AecTrackPower.maxchanends,AMBIPHONE_AecTrackPower.maxchanends $M 0
	.globl	BeClear_AMBIPHONE_AecTrackPower.maxchanends
.Ltmp219:
	.size	BeClear_AMBIPHONE_AecTrackPower, .Ltmp219-BeClear_AMBIPHONE_AecTrackPower
.Lfunc_end11:
	.cfi_endproc

	.section	.cp.rodata.cst4,"aMc",@progbits,4
	.cc_top .LCPI12_0.data,.LCPI12_0
	.align	4
	.type	.LCPI12_0,@object
	.size	.LCPI12_0, 4
.LCPI12_0:
	.long	131872
	.cc_bottom .LCPI12_0.data
	.text
	.globl	BeClear_AMBIPHONE_AecControlPre
	.align	4
	.type	BeClear_AMBIPHONE_AecControlPre,@function
	.cc_top BeClear_AMBIPHONE_AecControlPre.function,BeClear_AMBIPHONE_AecControlPre
BeClear_AMBIPHONE_AecControlPre:
.Lfunc_begin12:
	.loc	2 845 0
	.cfi_startproc
	.issue_mode dual
	{
		nop
		dualentsp 2
	}
.Ltmp220:
	.cfi_def_cfa_offset 8
.Ltmp221:
	.cfi_offset 15, 0
	.loc	2 846 5 prologue_end
.Ltmp222:
	ldw r1, dp[far]
	.loc	2 846 5
	ldw r2, dp[mics]
	.loc	2 846 5
	ldw r3, dp[aec_ap]
	ldw r11, cp[.LCPI12_0]
	.loc	2 846 5
	{
		add r3, r3, r11
		nop
	}
	{
		nop
		ldw r3, r3[0]
	}
	.loc	2 846 5
	bl AMBIPHONE_AecControlPre
.Ltmp223:
	{
		nop
		retsp 2
	}
	.loc	2 847 1
	# RETURN_REG_HOLDER
.Ltmp224:
	.cc_bottom BeClear_AMBIPHONE_AecControlPre.function
	.set	BeClear_AMBIPHONE_AecControlPre.nstackwords,(AMBIPHONE_AecControlPre.nstackwords + 2)
	.globl	BeClear_AMBIPHONE_AecControlPre.nstackwords
	.set	BeClear_AMBIPHONE_AecControlPre.maxcores,AMBIPHONE_AecControlPre.maxcores $M 1
	.globl	BeClear_AMBIPHONE_AecControlPre.maxcores
	.set	BeClear_AMBIPHONE_AecControlPre.maxtimers,AMBIPHONE_AecControlPre.maxtimers $M 0
	.globl	BeClear_AMBIPHONE_AecControlPre.maxtimers
	.set	BeClear_AMBIPHONE_AecControlPre.maxchanends,AMBIPHONE_AecControlPre.maxchanends $M 0
	.globl	BeClear_AMBIPHONE_AecControlPre.maxchanends
.Ltmp225:
	.size	BeClear_AMBIPHONE_AecControlPre, .Ltmp225-BeClear_AMBIPHONE_AecControlPre
.Lfunc_end12:
	.cfi_endproc

	.section	.cp.rodata.cst4,"aMc",@progbits,4
	.cc_top .LCPI13_0.data,.LCPI13_0
	.align	4
	.type	.LCPI13_0,@object
	.size	.LCPI13_0, 4
.LCPI13_0:
	.long	131808
	.cc_bottom .LCPI13_0.data
	.cc_top .LCPI13_1.data,.LCPI13_1
	.align	4
	.type	.LCPI13_1,@object
	.size	.LCPI13_1, 4
.LCPI13_1:
	.long	131840
	.cc_bottom .LCPI13_1.data
	.cc_top .LCPI13_2.data,.LCPI13_2
	.align	4
	.type	.LCPI13_2,@object
	.size	.LCPI13_2, 4
.LCPI13_2:
	.long	131872
	.cc_bottom .LCPI13_2.data
	.text
	.globl	BeClear_AMBIPHONE_AecControlPost
	.align	4
	.type	BeClear_AMBIPHONE_AecControlPost,@function
	.cc_top BeClear_AMBIPHONE_AecControlPost.function,BeClear_AMBIPHONE_AecControlPost
BeClear_AMBIPHONE_AecControlPost:
.Lfunc_begin13:
	.loc	2 862 0
	.cfi_startproc
	.issue_mode dual
	{
		nop
		dualentsp 4
	}
.Ltmp226:
	.cfi_def_cfa_offset 16
.Ltmp227:
	.cfi_offset 15, 0
	{
		nop
		stw r4, sp[2]
	}
.Ltmp228:
	.cfi_offset 4, -8
	.loc	2 863 5 prologue_end
.Ltmp229:
	ldw r1, dp[far]
	.loc	2 863 5
	ldw r11, dp[aec_ap]
	ldw r2, cp[.LCPI13_0]
	.loc	2 863 5
	{
		add r2, r11, r2
		nop
	}
	{
		nop
		ldw r2, r2[0]
	}
	ldw r3, cp[.LCPI13_1]
	.loc	2 863 5
	{
		add r3, r11, r3
		nop
	}
	{
		nop
		ldw r3, r3[0]
	}
	ldw r4, cp[.LCPI13_2]
	.loc	2 863 5
	{
		add r11, r11, r4
		nop
	}
	{
		nop
		ldw r11, r11[0]
	}
	{
		nop
		stw r11, sp[1]
	}
	.loc	2 863 5
	bl AMBIPHONE_AecControlPost
.Ltmp230:
	{
		nop
		ldw r4, sp[2]
	}
	{
		nop
		retsp 4
	}
	.loc	2 864 1
	# RETURN_REG_HOLDER
.Ltmp231:
	.cc_bottom BeClear_AMBIPHONE_AecControlPost.function
	.set	BeClear_AMBIPHONE_AecControlPost.nstackwords,(AMBIPHONE_AecControlPost.nstackwords + 4)
	.globl	BeClear_AMBIPHONE_AecControlPost.nstackwords
	.set	BeClear_AMBIPHONE_AecControlPost.maxcores,AMBIPHONE_AecControlPost.maxcores $M 1
	.globl	BeClear_AMBIPHONE_AecControlPost.maxcores
	.set	BeClear_AMBIPHONE_AecControlPost.maxtimers,AMBIPHONE_AecControlPost.maxtimers $M 0
	.globl	BeClear_AMBIPHONE_AecControlPost.maxtimers
	.set	BeClear_AMBIPHONE_AecControlPost.maxchanends,AMBIPHONE_AecControlPost.maxchanends $M 0
	.globl	BeClear_AMBIPHONE_AecControlPost.maxchanends
.Ltmp232:
	.size	BeClear_AMBIPHONE_AecControlPost, .Ltmp232-BeClear_AMBIPHONE_AecControlPost
.Lfunc_end13:
	.cfi_endproc

	.section	.cp.rodata.cst4,"aMc",@progbits,4
	.cc_top .LCPI14_0.data,.LCPI14_0
	.align	4
	.type	.LCPI14_0,@object
	.size	.LCPI14_0, 4
.LCPI14_0:
	.long	131808
	.cc_bottom .LCPI14_0.data
	.cc_top .LCPI14_1.data,.LCPI14_1
	.align	4
	.type	.LCPI14_1,@object
	.size	.LCPI14_1, 4
.LCPI14_1:
	.long	131840
	.cc_bottom .LCPI14_1.data
	.cc_top .LCPI14_2.data,.LCPI14_2
	.align	4
	.type	.LCPI14_2,@object
	.size	.LCPI14_2, 4
.LCPI14_2:
	.long	131872
	.cc_bottom .LCPI14_2.data
	.text
	.globl	BeClear_AMBIPHONE_AecPcd
	.align	4
	.type	BeClear_AMBIPHONE_AecPcd,@function
	.cc_top BeClear_AMBIPHONE_AecPcd.function,BeClear_AMBIPHONE_AecPcd
BeClear_AMBIPHONE_AecPcd:
.Lfunc_begin14:
	.loc	2 879 0
	.cfi_startproc
	.issue_mode dual
	{
		nop
		dualentsp 4
	}
.Ltmp233:
	.cfi_def_cfa_offset 16
.Ltmp234:
	.cfi_offset 15, 0
	{
		nop
		stw r4, sp[2]
	}
.Ltmp235:
	.cfi_offset 4, -8
	.loc	2 880 5 prologue_end
.Ltmp236:
	ldw r1, dp[far]
	.loc	2 880 5
	ldw r11, dp[aec_ap]
	ldw r2, cp[.LCPI14_0]
	.loc	2 880 5
	{
		add r2, r11, r2
		nop
	}
	{
		nop
		ldw r2, r2[0]
	}
	ldw r3, cp[.LCPI14_1]
	.loc	2 880 5
	{
		add r3, r11, r3
		nop
	}
	{
		nop
		ldw r3, r3[0]
	}
	ldw r4, cp[.LCPI14_2]
	.loc	2 880 5
	{
		add r11, r11, r4
		nop
	}
	{
		nop
		ldw r11, r11[0]
	}
	{
		nop
		stw r11, sp[1]
	}
	.loc	2 880 5
	bl AMBIPHONE_AecPcd
.Ltmp237:
	{
		nop
		ldw r4, sp[2]
	}
	{
		nop
		retsp 4
	}
	.loc	2 881 1
	# RETURN_REG_HOLDER
.Ltmp238:
	.cc_bottom BeClear_AMBIPHONE_AecPcd.function
	.set	BeClear_AMBIPHONE_AecPcd.nstackwords,(AMBIPHONE_AecPcd.nstackwords + 4)
	.globl	BeClear_AMBIPHONE_AecPcd.nstackwords
	.set	BeClear_AMBIPHONE_AecPcd.maxcores,AMBIPHONE_AecPcd.maxcores $M 1
	.globl	BeClear_AMBIPHONE_AecPcd.maxcores
	.set	BeClear_AMBIPHONE_AecPcd.maxtimers,AMBIPHONE_AecPcd.maxtimers $M 0
	.globl	BeClear_AMBIPHONE_AecPcd.maxtimers
	.set	BeClear_AMBIPHONE_AecPcd.maxchanends,AMBIPHONE_AecPcd.maxchanends $M 0
	.globl	BeClear_AMBIPHONE_AecPcd.maxchanends
.Ltmp239:
	.size	BeClear_AMBIPHONE_AecPcd, .Ltmp239-BeClear_AMBIPHONE_AecPcd
.Lfunc_end14:
	.cfi_endproc

	.section	.cp.rodata.cst4,"aMc",@progbits,4
	.cc_top .LCPI15_0.data,.LCPI15_0
	.align	4
	.type	.LCPI15_0,@object
	.size	.LCPI15_0, 4
.LCPI15_0:
	.long	131824
	.cc_bottom .LCPI15_0.data
	.cc_top .LCPI15_1.data,.LCPI15_1
	.align	4
	.type	.LCPI15_1,@object
	.size	.LCPI15_1, 4
.LCPI15_1:
	.long	131808
	.cc_bottom .LCPI15_1.data
	.cc_top .LCPI15_2.data,.LCPI15_2
	.align	4
	.type	.LCPI15_2,@object
	.size	.LCPI15_2, 4
.LCPI15_2:
	.long	131872
	.cc_bottom .LCPI15_2.data
	.text
	.globl	BeClear_AMBIPHONE_AecFilterDirect
	.align	4
	.type	BeClear_AMBIPHONE_AecFilterDirect,@function
	.cc_top BeClear_AMBIPHONE_AecFilterDirect.function,BeClear_AMBIPHONE_AecFilterDirect
BeClear_AMBIPHONE_AecFilterDirect:
.Lfunc_begin15:
	.loc	2 897 0
	.cfi_startproc
	.issue_mode dual
	{
		nop
		dualentsp 8
	}
.Ltmp240:
	.cfi_def_cfa_offset 32
.Ltmp241:
	.cfi_offset 15, 0
	std r5, r4, sp[2]
.Ltmp242:
	.cfi_offset 4, -16
.Ltmp243:
	.cfi_offset 5, -12
	{
		nop
		stw r6, sp[6]
	}
.Ltmp244:
	.cfi_offset 6, -8
	.loc	2 898 5 prologue_end
.Ltmp245:
	ldw r11, dp[far]
	.loc	2 898 5
	ldw r2, dp[mics]
	.loc	2 898 5
	ldw r4, dp[aec_ap]
	.loc	2 898 5
	ldaw r5, r4[r1]
	ldw r3, cp[.LCPI15_0]
	.loc	2 898 5
	{
		add r3, r5, r3
		nop
	}
	{
		nop
		ldw r3, r3[0]
	}
	ldw r6, cp[.LCPI15_1]
	.loc	2 898 5
	{
		add r5, r5, r6
		nop
	}
	{
		nop
		ldw r5, r5[0]
	}
	ldw r6, cp[.LCPI15_2]
	.loc	2 898 5
	{
		add r4, r4, r6
		nop
	}
	{
		nop
		ldw r4, r4[0]
	}
	.loc	2 898 5
	std r4, r1, sp[1]
	{
		mov r1, r11
		stw r5, sp[1]
	}
.Ltmp246:
	bl AMBIPHONE_AecFilterDirect
.Ltmp247:
	{
		nop
		ldw r6, sp[6]
	}
	.loc	2 900 1
	ldd r5, r4, sp[2]
	{
		nop
		retsp 8
	}
	# RETURN_REG_HOLDER
.Ltmp248:
	.cc_bottom BeClear_AMBIPHONE_AecFilterDirect.function
	.set	BeClear_AMBIPHONE_AecFilterDirect.nstackwords,(AMBIPHONE_AecFilterDirect.nstackwords + 8)
	.globl	BeClear_AMBIPHONE_AecFilterDirect.nstackwords
	.set	BeClear_AMBIPHONE_AecFilterDirect.maxcores,AMBIPHONE_AecFilterDirect.maxcores $M 1
	.globl	BeClear_AMBIPHONE_AecFilterDirect.maxcores
	.set	BeClear_AMBIPHONE_AecFilterDirect.maxtimers,AMBIPHONE_AecFilterDirect.maxtimers $M 0
	.globl	BeClear_AMBIPHONE_AecFilterDirect.maxtimers
	.set	BeClear_AMBIPHONE_AecFilterDirect.maxchanends,AMBIPHONE_AecFilterDirect.maxchanends $M 0
	.globl	BeClear_AMBIPHONE_AecFilterDirect.maxchanends
.Ltmp249:
	.size	BeClear_AMBIPHONE_AecFilterDirect, .Ltmp249-BeClear_AMBIPHONE_AecFilterDirect
.Lfunc_end15:
	.cfi_endproc

	.section	.cp.rodata.cst4,"aMc",@progbits,4
	.cc_top .LCPI16_0.data,.LCPI16_0
	.align	4
	.type	.LCPI16_0,@object
	.size	.LCPI16_0, 4
.LCPI16_0:
	.long	131872
	.cc_bottom .LCPI16_0.data
	.text
	.globl	BeClear_AMBIPHONE_AecFilterTail
	.align	4
	.type	BeClear_AMBIPHONE_AecFilterTail,@function
	.cc_top BeClear_AMBIPHONE_AecFilterTail.function,BeClear_AMBIPHONE_AecFilterTail
BeClear_AMBIPHONE_AecFilterTail:
.Lfunc_begin16:
	.loc	2 916 0
	.cfi_startproc
	.issue_mode dual
	{
		nop
		dualentsp 4
	}
.Ltmp250:
	.cfi_def_cfa_offset 16
.Ltmp251:
	.cfi_offset 15, 0
.Ltmp252:
	.cfi_offset 4, -8
.Ltmp253:
	{
		mov r3, r1
		stw r4, sp[2]
	}
.Ltmp254:
	.loc	2 917 5 prologue_end
	ldw r1, dp[far]
	.loc	2 917 5
	ldw r2, dp[mics]
	.loc	2 917 5
	ldw r11, dp[aec_ap]
	ldw r4, cp[.LCPI16_0]
	.loc	2 917 5
	{
		add r11, r11, r4
		nop
	}
	{
		nop
		ldw r11, r11[0]
	}
	{
		nop
		stw r11, sp[1]
	}
	.loc	2 917 5
	bl AMBIPHONE_AecFilterTail
.Ltmp255:
	{
		nop
		ldw r4, sp[2]
	}
	{
		nop
		retsp 4
	}
	.loc	2 918 1
	# RETURN_REG_HOLDER
.Ltmp256:
	.cc_bottom BeClear_AMBIPHONE_AecFilterTail.function
	.set	BeClear_AMBIPHONE_AecFilterTail.nstackwords,(AMBIPHONE_AecFilterTail.nstackwords + 4)
	.globl	BeClear_AMBIPHONE_AecFilterTail.nstackwords
	.set	BeClear_AMBIPHONE_AecFilterTail.maxcores,AMBIPHONE_AecFilterTail.maxcores $M 1
	.globl	BeClear_AMBIPHONE_AecFilterTail.maxcores
	.set	BeClear_AMBIPHONE_AecFilterTail.maxtimers,AMBIPHONE_AecFilterTail.maxtimers $M 0
	.globl	BeClear_AMBIPHONE_AecFilterTail.maxtimers
	.set	BeClear_AMBIPHONE_AecFilterTail.maxchanends,AMBIPHONE_AecFilterTail.maxchanends $M 0
	.globl	BeClear_AMBIPHONE_AecFilterTail.maxchanends
.Ltmp257:
	.size	BeClear_AMBIPHONE_AecFilterTail, .Ltmp257-BeClear_AMBIPHONE_AecFilterTail
.Lfunc_end16:
	.cfi_endproc

	.section	.cp.rodata.cst4,"aMc",@progbits,4
	.cc_top .LCPI17_0.data,.LCPI17_0
	.align	4
	.type	.LCPI17_0,@object
	.size	.LCPI17_0, 4
.LCPI17_0:
	.long	131808
	.cc_bottom .LCPI17_0.data
	.cc_top .LCPI17_1.data,.LCPI17_1
	.align	4
	.type	.LCPI17_1,@object
	.size	.LCPI17_1, 4
.LCPI17_1:
	.long	131872
	.cc_bottom .LCPI17_1.data
	.text
	.globl	BeClear_AMBIPHONE_AecUpdate
	.align	4
	.type	BeClear_AMBIPHONE_AecUpdate,@function
	.cc_top BeClear_AMBIPHONE_AecUpdate.function,BeClear_AMBIPHONE_AecUpdate
BeClear_AMBIPHONE_AecUpdate:
.Lfunc_begin17:
	.loc	2 934 0
	.cfi_startproc
	.issue_mode dual
	{
		nop
		dualentsp 4
	}
.Ltmp258:
	.cfi_def_cfa_offset 16
.Ltmp259:
	.cfi_offset 15, 0
.Ltmp260:
	.cfi_offset 4, -8
.Ltmp261:
	{
		mov r3, r1
		stw r4, sp[2]
	}
.Ltmp262:
	.loc	2 935 5 prologue_end
	ldw r1, dp[far]
	.loc	2 935 5
	ldw r11, dp[aec_ap]
	.loc	2 935 5
	ldaw r2, r11[r3]
	ldw r4, cp[.LCPI17_0]
	{
		add r2, r2, r4
		nop
	}
	{
		nop
		ldw r2, r2[0]
	}
	ldw r4, cp[.LCPI17_1]
	.loc	2 935 5
	{
		add r11, r11, r4
		nop
	}
	{
		nop
		ldw r11, r11[0]
	}
	{
		nop
		stw r11, sp[1]
	}
	.loc	2 935 5
	bl AMBIPHONE_AecUpdate
.Ltmp263:
	{
		nop
		ldw r4, sp[2]
	}
	{
		nop
		retsp 4
	}
	.loc	2 936 1
	# RETURN_REG_HOLDER
.Ltmp264:
	.cc_bottom BeClear_AMBIPHONE_AecUpdate.function
	.set	BeClear_AMBIPHONE_AecUpdate.nstackwords,(AMBIPHONE_AecUpdate.nstackwords + 4)
	.globl	BeClear_AMBIPHONE_AecUpdate.nstackwords
	.set	BeClear_AMBIPHONE_AecUpdate.maxcores,AMBIPHONE_AecUpdate.maxcores $M 1
	.globl	BeClear_AMBIPHONE_AecUpdate.maxcores
	.set	BeClear_AMBIPHONE_AecUpdate.maxtimers,AMBIPHONE_AecUpdate.maxtimers $M 0
	.globl	BeClear_AMBIPHONE_AecUpdate.maxtimers
	.set	BeClear_AMBIPHONE_AecUpdate.maxchanends,AMBIPHONE_AecUpdate.maxchanends $M 0
	.globl	BeClear_AMBIPHONE_AecUpdate.maxchanends
.Ltmp265:
	.size	BeClear_AMBIPHONE_AecUpdate, .Ltmp265-BeClear_AMBIPHONE_AecUpdate
.Lfunc_end17:
	.cfi_endproc

	.section	.cp.rodata.cst4,"aMc",@progbits,4
	.cc_top .LCPI18_0.data,.LCPI18_0
	.align	4
	.type	.LCPI18_0,@object
	.size	.LCPI18_0, 4
.LCPI18_0:
	.long	131872
	.cc_bottom .LCPI18_0.data
	.text
	.globl	BeClear_AMBIPHONE_AecUpdateIndex
	.align	4
	.type	BeClear_AMBIPHONE_AecUpdateIndex,@function
	.cc_top BeClear_AMBIPHONE_AecUpdateIndex.function,BeClear_AMBIPHONE_AecUpdateIndex
BeClear_AMBIPHONE_AecUpdateIndex:
.Lfunc_begin18:
	.loc	2 951 0
	.cfi_startproc
	.issue_mode dual
	{
		nop
		dualentsp 2
	}
.Ltmp266:
	.cfi_def_cfa_offset 8
.Ltmp267:
	.cfi_offset 15, 0
	.loc	2 952 5 prologue_end
.Ltmp268:
	ldw r1, dp[aec_ap]
	ldw r2, cp[.LCPI18_0]
	.loc	2 952 5
	{
		add r1, r1, r2
		nop
	}
	{
		nop
		ldw r1, r1[0]
	}
	.loc	2 952 5
	bl AMBIPHONE_AecUpdateIndex
.Ltmp269:
	{
		nop
		retsp 2
	}
	.loc	2 953 1
	# RETURN_REG_HOLDER
.Ltmp270:
	.cc_bottom BeClear_AMBIPHONE_AecUpdateIndex.function
	.set	BeClear_AMBIPHONE_AecUpdateIndex.nstackwords,(AMBIPHONE_AecUpdateIndex.nstackwords + 2)
	.globl	BeClear_AMBIPHONE_AecUpdateIndex.nstackwords
	.set	BeClear_AMBIPHONE_AecUpdateIndex.maxcores,AMBIPHONE_AecUpdateIndex.maxcores $M 1
	.globl	BeClear_AMBIPHONE_AecUpdateIndex.maxcores
	.set	BeClear_AMBIPHONE_AecUpdateIndex.maxtimers,AMBIPHONE_AecUpdateIndex.maxtimers $M 0
	.globl	BeClear_AMBIPHONE_AecUpdateIndex.maxtimers
	.set	BeClear_AMBIPHONE_AecUpdateIndex.maxchanends,AMBIPHONE_AecUpdateIndex.maxchanends $M 0
	.globl	BeClear_AMBIPHONE_AecUpdateIndex.maxchanends
.Ltmp271:
	.size	BeClear_AMBIPHONE_AecUpdateIndex, .Ltmp271-BeClear_AMBIPHONE_AecUpdateIndex
.Lfunc_end18:
	.cfi_endproc

	.section	.cp.rodata.cst4,"aMc",@progbits,4
	.cc_top .LCPI19_0.data,.LCPI19_0
	.align	4
	.type	.LCPI19_0,@object
	.size	.LCPI19_0, 4
.LCPI19_0:
	.long	131840
	.cc_bottom .LCPI19_0.data
	.cc_top .LCPI19_1.data,.LCPI19_1
	.align	4
	.type	.LCPI19_1,@object
	.size	.LCPI19_1, 4
.LCPI19_1:
	.long	131872
	.cc_bottom .LCPI19_1.data
	.text
	.globl	BeClear_AMBIPHONE_Revest
	.align	4
	.type	BeClear_AMBIPHONE_Revest,@function
	.cc_top BeClear_AMBIPHONE_Revest.function,BeClear_AMBIPHONE_Revest
BeClear_AMBIPHONE_Revest:
.Lfunc_begin19:
	.loc	2 968 0
	.cfi_startproc
	.issue_mode dual
	{
		nop
		dualentsp 2
	}
.Ltmp272:
	.cfi_def_cfa_offset 8
.Ltmp273:
	.cfi_offset 15, 0
	.loc	2 969 5 prologue_end
.Ltmp274:
	ldw r2, dp[aec_ap]
	ldw r1, cp[.LCPI19_0]
	.loc	2 969 5
	{
		add r1, r2, r1
		nop
	}
	{
		nop
		ldw r1, r1[0]
	}
	ldw r3, cp[.LCPI19_1]
	.loc	2 969 5
	{
		add r2, r2, r3
		nop
	}
	{
		nop
		ldw r2, r2[0]
	}
	.loc	2 969 5
	bl AMBIPHONE_Revest
.Ltmp275:
	{
		nop
		retsp 2
	}
	.loc	2 970 1
	# RETURN_REG_HOLDER
.Ltmp276:
	.cc_bottom BeClear_AMBIPHONE_Revest.function
	.set	BeClear_AMBIPHONE_Revest.nstackwords,(AMBIPHONE_Revest.nstackwords + 2)
	.globl	BeClear_AMBIPHONE_Revest.nstackwords
	.set	BeClear_AMBIPHONE_Revest.maxcores,AMBIPHONE_Revest.maxcores $M 1
	.globl	BeClear_AMBIPHONE_Revest.maxcores
	.set	BeClear_AMBIPHONE_Revest.maxtimers,AMBIPHONE_Revest.maxtimers $M 0
	.globl	BeClear_AMBIPHONE_Revest.maxtimers
	.set	BeClear_AMBIPHONE_Revest.maxchanends,AMBIPHONE_Revest.maxchanends $M 0
	.globl	BeClear_AMBIPHONE_Revest.maxchanends
.Ltmp277:
	.size	BeClear_AMBIPHONE_Revest, .Ltmp277-BeClear_AMBIPHONE_Revest
.Lfunc_end19:
	.cfi_endproc

	.section	.cp.rodata.cst4,"aMc",@progbits,4
	.cc_top .LCPI20_0.data,.LCPI20_0
	.align	4
	.type	.LCPI20_0,@object
	.size	.LCPI20_0, 4
.LCPI20_0:
	.long	2871134157
	.cc_bottom .LCPI20_0.data
	.cc_top .LCPI20_1.data,.LCPI20_1
	.align	4
	.type	.LCPI20_1,@object
	.size	.LCPI20_1, 4
.LCPI20_1:
	.long	4011418095
	.cc_bottom .LCPI20_1.data
	.cc_top .LCPI20_2.data,.LCPI20_2
	.align	4
	.type	.LCPI20_2,@object
	.size	.LCPI20_2, 4
.LCPI20_2:
	.long	4262003164
	.cc_bottom .LCPI20_2.data
	.cc_top .LCPI20_3.data,.LCPI20_3
	.align	4
	.type	.LCPI20_3,@object
	.size	.LCPI20_3, 4
.LCPI20_3:
	.long	2871007147
	.cc_bottom .LCPI20_3.data
	.cc_top .LCPI20_4.data,.LCPI20_4
	.align	4
	.type	.LCPI20_4,@object
	.size	.LCPI20_4, 4
.LCPI20_4:
	.long	66652
	.cc_bottom .LCPI20_4.data
	.cc_top .LCPI20_5.data,.LCPI20_5
	.align	4
	.type	.LCPI20_5,@object
	.size	.LCPI20_5, 4
.LCPI20_5:
	.long	66656
	.cc_bottom .LCPI20_5.data
	.cc_top .LCPI20_6.data,.LCPI20_6
	.align	4
	.type	.LCPI20_6,@object
	.size	.LCPI20_6, 4
.LCPI20_6:
	.long	1182400512
	.cc_bottom .LCPI20_6.data
	.cc_top .LCPI20_7.data,.LCPI20_7
	.align	4
	.type	.LCPI20_7,@object
	.size	.LCPI20_7, 4
.LCPI20_7:
	.long	66664
	.cc_bottom .LCPI20_7.data
	.cc_top .LCPI20_8.data,.LCPI20_8
	.align	4
	.type	.LCPI20_8,@object
	.size	.LCPI20_8, 4
.LCPI20_8:
	.long	66672
	.cc_bottom .LCPI20_8.data
	.cc_top .LCPI20_9.data,.LCPI20_9
	.align	4
	.type	.LCPI20_9,@object
	.size	.LCPI20_9, 4
.LCPI20_9:
	.long	1092616192
	.cc_bottom .LCPI20_9.data
	.cc_top .LCPI20_10.data,.LCPI20_10
	.align	4
	.type	.LCPI20_10,@object
	.size	.LCPI20_10, 4
.LCPI20_10:
	.long	1000593162
	.cc_bottom .LCPI20_10.data
	.cc_top .LCPI20_11.data,.LCPI20_11
	.align	4
	.type	.LCPI20_11,@object
	.size	.LCPI20_11, 4
.LCPI20_11:
	.long	1088421888
	.cc_bottom .LCPI20_11.data
	.cc_top .LCPI20_12.data,.LCPI20_12
	.align	4
	.type	.LCPI20_12,@object
	.size	.LCPI20_12, 4
.LCPI20_12:
	.long	1056964608
	.cc_bottom .LCPI20_12.data
	.cc_top .LCPI20_13.data,.LCPI20_13
	.align	4
	.type	.LCPI20_13,@object
	.size	.LCPI20_13, 4
.LCPI20_13:
	.long	1065353216
	.cc_bottom .LCPI20_13.data
	.cc_top .LCPI20_14.data,.LCPI20_14
	.align	4
	.type	.LCPI20_14,@object
	.size	.LCPI20_14, 4
.LCPI20_14:
	.long	1041865114
	.cc_bottom .LCPI20_14.data
	.cc_top .LCPI20_15.data,.LCPI20_15
	.align	4
	.type	.LCPI20_15,@object
	.size	.LCPI20_15, 4
.LCPI20_15:
	.long	1066192077
	.cc_bottom .LCPI20_15.data
	.cc_top .LCPI20_16.data,.LCPI20_16
	.align	4
	.type	.LCPI20_16,@object
	.size	.LCPI20_16, 4
.LCPI20_16:
	.long	1050253722
	.cc_bottom .LCPI20_16.data
	.cc_top .LCPI20_17.data,.LCPI20_17
	.align	4
	.type	.LCPI20_17,@object
	.size	.LCPI20_17, 4
.LCPI20_17:
	.long	1097859072
	.cc_bottom .LCPI20_17.data
	.cc_top .LCPI20_18.data,.LCPI20_18
	.align	4
	.type	.LCPI20_18,@object
	.size	.LCPI20_18, 4
.LCPI20_18:
	.long	66676
	.cc_bottom .LCPI20_18.data
	.cc_top .LCPI20_19.data,.LCPI20_19
	.align	4
	.type	.LCPI20_19,@object
	.size	.LCPI20_19, 4
.LCPI20_19:
	.long	4294967286
	.cc_bottom .LCPI20_19.data
	.cc_top .LCPI20_20.data,.LCPI20_20
	.align	4
	.type	.LCPI20_20,@object
	.size	.LCPI20_20, 4
.LCPI20_20:
	.long	4294966615
	.cc_bottom .LCPI20_20.data
	.cc_top .LCPI20_21.data,.LCPI20_21
	.align	4
	.type	.LCPI20_21,@object
	.size	.LCPI20_21, 4
.LCPI20_21:
	.long	4294967168
	.cc_bottom .LCPI20_21.data
	.text
	.globl	BeClear_AMBIPHONE_BapInit
	.align	4
	.type	BeClear_AMBIPHONE_BapInit,@function
	.cc_top BeClear_AMBIPHONE_BapInit.function,BeClear_AMBIPHONE_BapInit
BeClear_AMBIPHONE_BapInit:
.Lfunc_begin20:
	.loc	2 990 0
	.cfi_startproc
	.issue_mode dual
	{
		nop
		dualentsp 16
	}
.Ltmp278:
	.cfi_def_cfa_offset 64
.Ltmp279:
	.cfi_offset 15, 0
	std r5, r4, sp[4]
.Ltmp280:
	.cfi_offset 4, -32
.Ltmp281:
	.cfi_offset 5, -28
	std r7, r6, sp[5]
.Ltmp282:
	.cfi_offset 6, -24
.Ltmp283:
	.cfi_offset 7, -20
	std r9, r8, sp[6]
.Ltmp284:
	.cfi_offset 8, -16
.Ltmp285:
	.cfi_offset 9, -12
.Ltmp286:
	.cfi_offset 10, -8
.Ltmp287:
	{
		mov r6, r1
		stw r10, sp[14]
	}
.Ltmp288:
	{
		mov r10, r0
		nop
	}
.Ltmp289:
	.loc	2 1006 5 prologue_end
	ldaw r0, dp[bap_appl]
	stw r0, dp[bap_ap]
	ldaw r1, dp[bap_appl+54128]
	.loc	2 1014 5
	bl APES_SetMemPools
	.loc	2 1019 5
	ldaw r11, cp[OBJ_UN_INIT]
	{
		mov r7, r11
		ldc r4, 20
	}
	{
		mov r0, r10
		mov r1, r7
	}
	{
		mov r2, r4
		nop
	}
	bl __memcpy_4
	.loc	2 1020 5
	{
		mov r0, r6
		mov r1, r7
	}
	{
		mov r2, r4
		nop
	}
	bl __memcpy_4
	ldc r7, 54128
.Ltmp290:
	{
		nop
		stw r7, r10[3]
	}
	ldc r0, 5240
	{
		nop
		stw r0, r10[1]
	}
	.loc	2 1023 5
	ldaw r11, cp[.L.str10]
	{
		mov r0, r10
		mov r1, r11
	}
	bl OBJ_Init
	{
		ldc r5, 0
		nop
	}
.Ltmp291:
	{
		nop
		stw r5, r6[3]
	}
	ldc r0, 7248
	{
		nop
		stw r0, r6[1]
	}
	.loc	2 1025 5
	ldaw r11, cp[.L.str11]
	{
		mov r0, r6
		mov r1, r11
	}
	bl OBJ_Init
	.loc	2 1044 9
.Ltmp292:
	ldw r0, dp[bap_ap]
.Ltmp293:
	ldc r1, 6766
	ldw r2, cp[.LCPI20_0]
	ldw r3, cp[.LCPI20_1]
	{
		mov r11, r0
		nop
	}
.Ltmp294:
.LBB20_1:
	.loc	2 1048 13
	{
		add r4, r11, 8
		nop
	}
.Ltmp295:
	.loc	2 1048 13
	std r2, r3, r11[0]
.Ltmp296:
	.loc	2 1046 9
	{
		sub r1, r1, 1
		nop
	}
.xtaloop 6766
	# LOOPMARKER 0
	{
		mov r11, r4
		nop
	}
.Ltmp297:
	.loc	2 1046 9
	bt r1, .LBB20_1
.Ltmp298:
	.loc	2 1050 9
	{
		add r11, r0, r7
		nop
	}
.Ltmp299:
	ldc r1, 1561
	ldw r2, cp[.LCPI20_2]
	ldw r3, cp[.LCPI20_3]
.Ltmp300:
.LBB20_3:
	.loc	2 1054 13
	{
		add r4, r11, 8
		nop
	}
.Ltmp301:
	.loc	2 1054 13
	std r2, r3, r11[0]
.Ltmp302:
	.loc	2 1052 9
	{
		sub r1, r1, 1
		nop
	}
.xtaloop 1561
	# LOOPMARKER 1
	{
		mov r11, r4
		nop
	}
.Ltmp303:
	.loc	2 1052 9
	bt r1, .LBB20_3
.Ltmp304:
	ldw r6, cp[.LCPI20_4]
	.loc	2 1062 5
	{
		add r1, r0, r6
		ldc r2, 4
	}
	{
		nop
		stw r2, r1[0]
	}
	ldw r1, cp[.LCPI20_5]
	.loc	2 1063 5
	{
		add r0, r0, r1
		nop
	}
	ldc r4, 256
	{
		nop
		stw r4, r0[0]
	}
	ldw r1, cp[.LCPI20_6]
	.loc	2 1064 21
	{
		mov r0, r10
		nop
	}
	bl PFLOAT_Load_f
	.loc	2 1064 21
	ldw r2, dp[bap_ap]
	ldw r3, cp[.LCPI20_7]
	.loc	2 1064 21
	{
		add r3, r2, r3
		nop
	}
	.loc	2 1064 21
	std r1, r0, r3[0]
	ldw r0, cp[.LCPI20_8]
	.loc	2 1065 5
	{
		add r0, r2, r0
		nop
	}
	.loc	2 1065 5
	{
		mkmsk r4, 1
		stw r4, r0[0]
	}
	.loc	2 1070 5
	stw r4, dp[agconoff]
	ldw r1, cp[.LCPI20_9]
	.loc	2 1071 28
	{
		mov r0, r10
		nop
	}
	bl PFLOAT_Load_f
	.loc	2 1071 28
	ldaw r2, dp[agcmaxgain]
	std r1, r0, r2[0]
	ldw r1, cp[.LCPI20_10]
	.loc	2 1072 28
	{
		mov r0, r10
		nop
	}
	bl PFLOAT_Load_f
	.loc	2 1072 28
	ldaw r2, dp[agcdesiredlevel]
	std r1, r0, r2[0]
	ldw r1, cp[.LCPI20_11]
	.loc	2 1073 28
	{
		mov r0, r10
		nop
	}
	bl PFLOAT_Load_f
	.loc	2 1073 28
	ldaw r2, dp[agcgain]
	std r1, r0, r2[0]
	ldw r1, cp[.LCPI20_12]
	.loc	2 1074 28
	{
		mov r0, r10
		nop
	}
	bl PFLOAT_Load_f
	.loc	2 1074 28
	ldaw r2, dp[agctime]
	std r1, r0, r2[0]
	.loc	2 1075 5
	stw r4, dp[cnionoff]
	.loc	2 1076 5
	stw r5, dp[freezeonoff]
	.loc	2 1077 5
	stw r4, dp[statnoiseonoff]
	ldw r7, cp[.LCPI20_13]
	.loc	2 1078 28
	{
		mov r0, r10
		mov r1, r7
	}
	bl PFLOAT_Load_f
	.loc	2 1078 28
	ldaw r2, dp[gamma_ns]
	std r1, r0, r2[0]
	ldw r1, cp[.LCPI20_14]
	.loc	2 1079 28
	{
		mov r0, r10
		nop
	}
	bl PFLOAT_Load_f
	.loc	2 1079 28
	ldaw r2, dp[min_ns]
	std r1, r0, r2[0]
	.loc	2 1080 5
	stw r4, dp[nonstatnoiseonoff]
	ldw r1, cp[.LCPI20_15]
	.loc	2 1081 28
	{
		mov r0, r10
		mov r8, r1
	}
	bl PFLOAT_Load_f
	.loc	2 1081 28
	ldaw r2, dp[gamma_nn]
	std r1, r0, r2[0]
	ldw r1, cp[.LCPI20_16]
	.loc	2 1082 28
	{
		mov r0, r10
		mov r9, r1
	}
	bl PFLOAT_Load_f
	.loc	2 1082 28
	ldaw r2, dp[min_nn]
	std r1, r0, r2[0]
	.loc	2 1083 5
	stw r4, dp[echoonoff]
	.loc	2 1084 28
	{
		mov r0, r10
		mov r1, r7
	}
	bl PFLOAT_Load_f
	.loc	2 1084 28
	ldaw r2, dp[gamma_e]
	std r1, r0, r2[0]
	.loc	2 1085 28
	{
		mov r0, r10
		mov r1, r7
	}
	bl PFLOAT_Load_f
	.loc	2 1085 28
	ldaw r2, dp[gamma_etail]
	std r1, r0, r2[0]
	.loc	2 1086 28
	{
		mov r0, r10
		mov r1, r7
	}
	bl PFLOAT_Load_f
	.loc	2 1086 28
	ldaw r2, dp[gamma_enl]
	std r1, r0, r2[0]
	.loc	2 1087 5
	stw r5, dp[nlattenonoff]
	.loc	2 1088 5
	stw r5, dp[nlaec_mode]
	.loc	2 1089 5
	stw r5, dp[speechdetected]
	.loc	2 1090 5
	stw r5, dp[fsbupdated]
	.loc	2 1091 5
	stw r5, dp[fsbpathchange]
	.loc	2 1092 5
	stw r4, dp[transientonoff]
	.loc	2 1093 5
	stw r5, dp[voiceactivity]
	.loc	2 1094 5
	stw r4, dp[sr_statnoiseonoff]
	.loc	2 1095 5
	stw r4, dp[sr_nonstatnoiseonoff]
	.loc	2 1096 28
	{
		mov r0, r10
		mov r1, r7
	}
	bl PFLOAT_Load_f
	.loc	2 1096 28
	ldaw r2, dp[sr_gamma_ns]
	std r1, r0, r2[0]
	.loc	2 1097 28
	{
		mov r0, r10
		mov r1, r8
	}
	bl PFLOAT_Load_f
	.loc	2 1097 28
	ldaw r2, dp[sr_gamma_nn]
	std r1, r0, r2[0]
	.loc	2 1098 28
	{
		mov r0, r10
		nop
	}
	ldw r1, cp[.LCPI20_14]
	bl PFLOAT_Load_f
	.loc	2 1098 28
	ldaw r2, dp[sr_min_ns]
	std r1, r0, r2[0]
	.loc	2 1099 28
	{
		mov r0, r10
		mov r1, r9
	}
	bl PFLOAT_Load_f
	.loc	2 1099 28
	ldaw r2, dp[sr_min_nn]
	std r1, r0, r2[0]
	ldw r1, cp[.LCPI20_17]
	.loc	2 1100 28
	{
		mov r0, r10
		nop
	}
	bl PFLOAT_Load_f
	.loc	2 1100 28
	ldaw r2, dp[sr_gamma_vad]
	std r1, r0, r2[0]
	.loc	2 1105 5
	stw r5, dp[profilingonoff]
	.loc	2 1111 5
	ldw r0, dp[bap_ap]
	.loc	2 1111 5
	{
		add r1, r0, r6
		nop
	}
	{
		nop
		ldw r1, r1[0]
	}
	ldw r2, cp[.LCPI20_5]
	.loc	2 1111 5
	{
		add r2, r0, r2
		nop
	}
	{
		nop
		ldw r2, r2[0]
	}
	ldw r3, cp[.LCPI20_7]
	.loc	2 1111 5
	{
		add r3, r0, r3
		nop
	}
	.loc	2 1111 5
	ldd r11, r3, r3[0]
	ldw r4, cp[.LCPI20_8]
	.loc	2 1111 5
	{
		add r4, r0, r4
		nop
	}
	{
		nop
		ldw r4, r4[0]
	}
	ldw r7, cp[.LCPI20_18]
	.loc	2 1111 5
	{
		add r0, r0, r7
		nop
	}
	.loc	2 1111 5
	std r0, r4, sp[1]
	{
		mov r0, r10
		stw r11, sp[1]
	}
	bl AMBIPHONE_BAP_Init
	.loc	2 1117 5
	ldw r0, dp[bap_ap]
	.loc	2 1117 5
	{
		add r0, r0, r6
		nop
	}
	.loc	2 1117 5
	{
		mkmsk r8, 2
		ldw r1, r0[0]
	}
.Ltmp305:
	{
		ldaw r3, sp[5]
		mov r0, r10
	}
.Ltmp306:
	.loc	2 1117 5
	{
		mov r2, r8
		nop
	}
	bl RFMatCreate_T
.Ltmp307:
	.loc	2 1119 5
	ldw r0, dp[bap_ap]
	.loc	2 1119 5
	{
		add r2, r0, r6
		mov r9, r6
	}
	{
		nop
		ldw r3, r2[0]
	}
	ldaw r11, cp[micgeo]
	{
		nop
		ldw r1, sp[5]
	}
	bf r3, .LBB20_7
.Ltmp308:
	ldw r3, cp[.LCPI20_19]
	ldw r6, cp[.LCPI20_20]
.Ltmp309:
.LBB20_6:
	.loc	2 1123 13
	{
		mov r7, r8
		ldw r4, r1[r5]
	}
.Ltmp310:
	{
		nop
		ldw r8, r11[0]
	}
	{
		nop
		stw r8, r4[0]
	}
.Ltmp311:
	{
		nop
		ldw r8, r11[1]
	}
	{
		nop
		stw r8, r4[1]
	}
	{
		nop
		ldw r8, r11[2]
	}
	{
		nop
		stw r8, r4[2]
	}
.Ltmp312:
	.loc	9 300 5
	ldaw r8, r4[-4]
	{
		nop
		stw r3, r8[0]
	}
.Ltmp313:
	.loc	9 637 5
	ldaw r8, r4[-3]
	.loc	9 637 5
	{
		mov r8, r7
		stw r7, r8[0]
	}
	.loc	9 638 5
	{
		sub r4, r4, 8
		nop
	}
.Ltmp314:
	.loc	9 638 5
	{
		add r5, r5, 1
		stw r6, r4[0]
	}
.Ltmp315:
	{
		nop
		ldw r4, r2[0]
	}
.Ltmp316:
	.loc	2 1119 5
	ldaw r11, r11[3]
	.loc	2 1119 5
	{
		lsu r4, r5, r4
		nop
	}
	bt r4, .LBB20_6
.Ltmp317:
.LBB20_7:
	ldw r7, cp[.LCPI20_18]
	.loc	2 1128 5
	{
		add r0, r0, r7
		nop
	}
	.loc	2 1128 5
	{
		mov r0, r10
		ldw r2, r0[0]
	}
	.loc	2 1128 5
	bl AMBIPHONE_SetMicPositions
	.loc	2 1129 5
	ldw r0, dp[bap_ap]
	.loc	2 1129 5
	{
		add r0, r0, r9
		nop
	}
	{
		nop
		ldw r1, r0[0]
	}
	.loc	2 1129 5
	{
		mov r0, r10
		ldw r2, sp[5]
	}
	.loc	2 1129 5
	bl RFMatClose_T
	.loc	2 1134 5
	ldw r0, dp[bap_ap]
	.loc	2 1134 5
	{
		add r0, r0, r7
		nop
	}
.Ltmp318:
	.loc	2 1134 5
	{
		ldaw r1, sp[7]
		ldw r3, r0[0]
	}
.Ltmp319:
	{
		ldaw r2, sp[6]
		mov r0, r10
	}
.Ltmp320:
	.loc	2 1134 5
	bl AMBIPHONE_GetNLModelSize
	{
		nop
		ldw r1, sp[7]
	}
.Ltmp321:
	.loc	2 1135 5
	{
		ldaw r3, sp[5]
		ldw r2, sp[6]
	}
.Ltmp322:
	.loc	2 1135 5
	{
		mov r0, r10
		nop
	}
	bl RFMatCreate_T
	{
		nop
		ldw r1, sp[7]
	}
	{
		ldc r5, 16
		ldw r2, sp[6]
	}
	.loc	2 1136 9
.Ltmp323:
	{
		eq r0, r1, r5
		nop
	}
	bf r0, .LBB20_8
.Ltmp324:
	{
		mkmsk r0, 4
		nop
	}
	{
		eq r0, r2, r0
		nop
	}
	.loc	2 1099 28
	ldaw r4, dp[sr_min_nn]
	bf r0, .LBB20_20
.Ltmp325:
	{
		ldc r10, 0
		stw r10, sp[4]
	}
	{
		nop
		ldw r3, sp[5]
	}
	.loc	2 1145 13
.Ltmp326:
	ldaw r11, dp[nl_model]
	ldw r6, cp[.LCPI20_21]
	ldw r9, cp[.LCPI20_20]
	{
		mkmsk r5, 7
		mov r2, r10
	}
	{
		mov r0, r10
		mov r8, r10
	}
	bu .LBB20_11
.Ltmp327:
.LBB20_21:
	.loc	2 1145 13
	{
		add r8, r8, 1
		eq r2, r2, 0
	}
.Ltmp328:
.LBB20_11:
	.loc	2 1145 13
	{
		zext r2, 1
		ldw r1, r3[r0]
	}
.Ltmp329:
	bt r2, .LBB20_15
.Ltmp330:
	ldaw r4, r11[r8]
	{
		mov r2, r10
		nop
	}
.Ltmp331:
.LBB20_13:
	{
		nop
		ldw r7, r4[r2]
	}
	.loc	2 1143 17
.Ltmp332:
	stw r7, r1[r2]
.Ltmp333:
	.loc	2 1141 35
	{
		add r2, r2, 1
		ldw r7, sp[6]
	}
.Ltmp334:
	.loc	2 1141 13
	{
		lsu r7, r2, r7
		nop
	}
	.loc	2 1141 13
	bt r7, .LBB20_13
.Ltmp335:
	.loc	2 1141 13
	{
		add r8, r8, r2
		nop
	}
.Ltmp336:
.LBB20_15:
	{
		nop
		ldw r4, r11[r8]
	}
.Ltmp337:
	.loc	9 718 5
	{
		lss r7, r4, r6
		mov r2, r6
	}
	bt r7, .LBB20_18
.Ltmp338:
	.loc	9 718 5
	{
		lss r7, r5, r4
		mov r2, r5
	}
	bt r7, .LBB20_18
.Ltmp339:
	.loc	9 718 5
	{
		mov r2, r4
		nop
	}
.Ltmp340:
.LBB20_18:
	.loc	9 300 5
	ldaw r4, r1[-4]
	{
		nop
		stw r2, r4[0]
	}
	{
		nop
		ldw r2, sp[6]
	}
.Ltmp341:
	.loc	9 637 5
	ldaw r4, r1[-3]
	.loc	9 637 5
	{
		sub r1, r1, 8
		stw r2, r4[0]
	}
.Ltmp342:
	.loc	9 638 5
	{
		add r0, r0, 1
		stw r9, r1[0]
	}
.Ltmp343:
	{
		nop
		ldw r1, sp[7]
	}
.Ltmp344:
	.loc	2 1141 13
	{
		lsu r4, r0, r1
		ldw r2, sp[6]
	}
.Ltmp345:
	.loc	2 1139 9
	bt r4, .LBB20_21
.Ltmp346:
	{
		nop
		ldw r10, sp[4]
	}
.Ltmp347:
	ldw r7, cp[.LCPI20_18]
	.loc	2 1099 28
	ldaw r9, dp[sr_min_nn]
	{
		mov r4, r9
		ldc r5, 16
	}
	{
		mkmsk r8, 2
		nop
	}
	bu .LBB20_20
.Ltmp348:
.LBB20_8:
	ldaw r4, dp[sr_min_nn]
.Ltmp349:
.LBB20_20:
	{
		nop
		ldw r3, sp[5]
	}
	.loc	2 1149 5
	ldw r0, dp[bap_ap]
	.loc	2 1149 5
	{
		add r0, r0, r7
		nop
	}
	{
		nop
		ldw r0, r0[0]
	}
.Ltmp350:
	.loc	2 1149 5
	{
		mov r0, r10
		stw r0, sp[1]
	}
	bl AMBIPHONE_SetNLModel
	{
		nop
		ldw r1, sp[7]
	}
	.loc	2 1150 5
	{
		mov r0, r10
		ldw r2, sp[5]
	}
	.loc	2 1150 5
	bl RFMatClose_T
.Ltmp351:
	{
		nop
		ldw r6, r10[0]
	}
.Ltmp352:
	ldc r0, 384
.Ltmp353:
	.loc	10 1089 23
	{
		add r0, r6, r0
		nop
	}
.Ltmp354:
	.loc	10 1089 23
	{
		ldc r0, 0
		stw r0, r10[0]
	}
.Ltmp355:
	.loc	2 1158 5
	{
		mkmsk r2, 1
		stw r0, r6[0]
	}
	{
		nop
		stw r2, r6[2]
	}
	.loc	2 1160 5
	ldaw r0, dp[agconoff]
	{
		nop
		stw r0, r6[1]
	}
.Ltmp356:
	{
		nop
		stw r2, r6[3]
	}
	{
		nop
		stw r2, r6[5]
	}
	.loc	2 1071 28
	ldaw r0, dp[agcmaxgain]
.Ltmp357:
	.loc	2 1164 5
	{
		ldc r0, 2
		stw r0, r6[4]
	}
	{
		nop
		stw r0, r6[6]
	}
	{
		nop
		stw r2, r6[8]
	}
	.loc	2 1072 28
	ldaw r0, dp[agcdesiredlevel]
	{
		nop
		stw r0, r6[7]
	}
.Ltmp358:
	{
		nop
		stw r8, r6[9]
	}
	{
		nop
		stw r2, r6[11]
	}
	.loc	2 1073 28
	ldaw r0, dp[agcgain]
.Ltmp359:
	.loc	2 1172 5
	{
		ldc r0, 48
		stw r0, r6[10]
	}
	.loc	2 1174 5
	{
		add r0, r6, r0
		ldc r1, 4
	}
	.loc	2 1174 5
	{
		ldc r0, 56
		stw r1, r0[0]
	}
	.loc	2 1175 5
	{
		add r0, r6, r0
		nop
	}
	.loc	2 1175 5
	{
		ldc r0, 52
		stw r2, r0[0]
	}
	.loc	2 1176 5
	{
		add r0, r6, r0
		nop
	}
	.loc	2 1074 28
	ldaw r1, dp[agctime]
.Ltmp360:
	.loc	2 1176 5
	{
		ldc r0, 60
		stw r1, r0[0]
	}
	.loc	2 1178 5
	{
		add r0, r6, r0
		ldc r1, 5
	}
	{
		nop
		stw r1, r0[0]
	}
	ldc r0, 68
	.loc	2 1179 5
	{
		add r0, r6, r0
		nop
	}
	{
		nop
		stw r2, r0[0]
	}
	ldc r0, 64
	.loc	2 1180 5
	{
		add r0, r6, r0
		nop
	}
	.loc	2 1180 5
	ldaw r1, dp[cnionoff]
	{
		nop
		stw r1, r0[0]
	}
	ldc r0, 72
.Ltmp361:
	.loc	2 1182 5
	{
		add r0, r6, r0
		ldc r1, 6
	}
	{
		nop
		stw r1, r0[0]
	}
	ldc r0, 80
	.loc	2 1183 5
	{
		add r0, r6, r0
		nop
	}
	{
		nop
		stw r2, r0[0]
	}
	ldc r0, 76
	.loc	2 1184 5
	{
		add r0, r6, r0
		nop
	}
	.loc	2 1184 5
	ldaw r1, dp[freezeonoff]
	{
		nop
		stw r1, r0[0]
	}
	ldc r0, 84
.Ltmp362:
	.loc	2 1186 5
	{
		add r0, r6, r0
		ldc r1, 8
	}
	{
		nop
		stw r1, r0[0]
	}
	ldc r0, 92
	.loc	2 1187 5
	{
		add r0, r6, r0
		nop
	}
	{
		nop
		stw r2, r0[0]
	}
	ldc r0, 88
	.loc	2 1188 5
	{
		add r0, r6, r0
		nop
	}
	.loc	2 1188 5
	ldaw r1, dp[statnoiseonoff]
	{
		nop
		stw r1, r0[0]
	}
	ldc r0, 96
.Ltmp363:
	.loc	2 1190 5
	{
		add r0, r6, r0
		ldc r1, 9
	}
	{
		nop
		stw r1, r0[0]
	}
	ldc r0, 104
	.loc	2 1191 5
	{
		add r0, r6, r0
		nop
	}
	{
		nop
		stw r2, r0[0]
	}
	ldc r0, 100
	.loc	2 1192 5
	{
		add r0, r6, r0
		nop
	}
	.loc	2 1078 28
	ldaw r1, dp[gamma_ns]
	{
		nop
		stw r1, r0[0]
	}
	ldc r0, 108
.Ltmp364:
	.loc	2 1194 5
	{
		add r0, r6, r0
		ldc r1, 10
	}
	{
		nop
		stw r1, r0[0]
	}
	ldc r0, 116
	.loc	2 1195 5
	{
		add r0, r6, r0
		nop
	}
	{
		nop
		stw r2, r0[0]
	}
	ldc r0, 112
	.loc	2 1196 5
	{
		add r0, r6, r0
		nop
	}
	.loc	2 1079 28
	ldaw r1, dp[min_ns]
	{
		nop
		stw r1, r0[0]
	}
	ldc r0, 120
.Ltmp365:
	.loc	2 1198 5
	{
		add r0, r6, r0
		ldc r1, 11
	}
	{
		nop
		stw r1, r0[0]
	}
	ldc r0, 128
	.loc	2 1199 5
	{
		add r0, r6, r0
		nop
	}
	{
		nop
		stw r2, r0[0]
	}
	ldc r0, 124
	.loc	2 1200 5
	{
		add r0, r6, r0
		nop
	}
	.loc	2 1200 5
	ldaw r1, dp[nonstatnoiseonoff]
	{
		nop
		stw r1, r0[0]
	}
	ldc r0, 132
.Ltmp366:
	.loc	2 1202 5
	{
		add r0, r6, r0
		ldc r1, 12
	}
	{
		nop
		stw r1, r0[0]
	}
	ldc r0, 140
	.loc	2 1203 5
	{
		add r0, r6, r0
		nop
	}
	{
		nop
		stw r2, r0[0]
	}
	ldc r0, 136
	.loc	2 1204 5
	{
		add r0, r6, r0
		nop
	}
	.loc	2 1081 28
	ldaw r1, dp[gamma_nn]
	{
		nop
		stw r1, r0[0]
	}
	ldc r0, 144
.Ltmp367:
	.loc	2 1206 5
	{
		add r0, r6, r0
		ldc r1, 13
	}
	{
		nop
		stw r1, r0[0]
	}
	ldc r0, 152
	.loc	2 1207 5
	{
		add r0, r6, r0
		nop
	}
	{
		nop
		stw r2, r0[0]
	}
	ldc r0, 148
	.loc	2 1208 5
	{
		add r0, r6, r0
		nop
	}
	.loc	2 1082 28
	ldaw r1, dp[min_nn]
	{
		nop
		stw r1, r0[0]
	}
	ldc r0, 156
.Ltmp368:
	.loc	2 1210 5
	{
		add r0, r6, r0
		ldc r1, 14
	}
	{
		nop
		stw r1, r0[0]
	}
	ldc r0, 164
	.loc	2 1211 5
	{
		add r0, r6, r0
		nop
	}
	{
		nop
		stw r2, r0[0]
	}
	ldc r0, 160
	.loc	2 1212 5
	{
		add r0, r6, r0
		nop
	}
	.loc	2 1212 5
	ldaw r1, dp[echoonoff]
	{
		nop
		stw r1, r0[0]
	}
	ldc r0, 168
.Ltmp369:
	.loc	2 1214 5
	{
		add r0, r6, r0
		mkmsk r1, 4
	}
	{
		nop
		stw r1, r0[0]
	}
	ldc r0, 176
	.loc	2 1215 5
	{
		add r0, r6, r0
		nop
	}
	{
		nop
		stw r2, r0[0]
	}
	ldc r0, 172
	.loc	2 1216 5
	{
		add r0, r6, r0
		nop
	}
	.loc	2 1084 28
	ldaw r1, dp[gamma_e]
	{
		nop
		stw r1, r0[0]
	}
	ldc r0, 180
.Ltmp370:
	.loc	2 1218 5
	{
		add r0, r6, r0
		nop
	}
	{
		nop
		stw r5, r0[0]
	}
	ldc r0, 188
	.loc	2 1219 5
	{
		add r0, r6, r0
		nop
	}
	{
		nop
		stw r2, r0[0]
	}
	ldc r0, 184
	.loc	2 1220 5
	{
		add r0, r6, r0
		nop
	}
	.loc	2 1085 28
	ldaw r1, dp[gamma_etail]
	{
		nop
		stw r1, r0[0]
	}
	ldc r0, 192
.Ltmp371:
	.loc	2 1222 5
	{
		add r0, r6, r0
		ldc r1, 17
	}
	{
		nop
		stw r1, r0[0]
	}
	ldc r0, 200
	.loc	2 1223 5
	{
		add r0, r6, r0
		nop
	}
	{
		nop
		stw r2, r0[0]
	}
	ldc r0, 196
	.loc	2 1224 5
	{
		add r0, r6, r0
		nop
	}
	.loc	2 1086 28
	ldaw r1, dp[gamma_enl]
	{
		nop
		stw r1, r0[0]
	}
	ldc r0, 204
.Ltmp372:
	.loc	2 1226 5
	{
		add r0, r6, r0
		ldc r1, 18
	}
	{
		nop
		stw r1, r0[0]
	}
	ldc r0, 212
	.loc	2 1227 5
	{
		add r0, r6, r0
		nop
	}
	{
		nop
		stw r2, r0[0]
	}
	ldc r0, 208
	.loc	2 1228 5
	{
		add r0, r6, r0
		nop
	}
	.loc	2 1228 5
	ldaw r1, dp[nlattenonoff]
	{
		nop
		stw r1, r0[0]
	}
	ldc r0, 216
.Ltmp373:
	.loc	2 1230 5
	{
		add r0, r6, r0
		ldc r1, 20
	}
	{
		nop
		stw r1, r0[0]
	}
	ldc r0, 224
	.loc	2 1231 5
	{
		add r0, r6, r0
		nop
	}
	{
		nop
		stw r2, r0[0]
	}
	ldc r0, 220
	.loc	2 1232 5
	{
		add r0, r6, r0
		nop
	}
	.loc	2 1232 5
	ldaw r1, dp[nlaec_mode]
	{
		nop
		stw r1, r0[0]
	}
	ldc r0, 228
.Ltmp374:
	.loc	2 1246 5
	{
		add r0, r6, r0
		ldc r1, 29
	}
	{
		nop
		stw r1, r0[0]
	}
	ldc r0, 236
	.loc	2 1247 5
	{
		add r0, r6, r0
		nop
	}
	{
		nop
		stw r2, r0[0]
	}
	ldc r0, 232
	.loc	2 1248 5
	{
		add r0, r6, r0
		nop
	}
	.loc	2 1248 5
	ldaw r1, dp[transientonoff]
	{
		nop
		stw r1, r0[0]
	}
	ldc r0, 240
.Ltmp375:
	.loc	2 1254 5
	{
		add r0, r6, r0
		ldc r1, 33
	}
	{
		nop
		stw r1, r0[0]
	}
	ldc r0, 248
	.loc	2 1255 5
	{
		add r0, r6, r0
		nop
	}
	{
		nop
		stw r2, r0[0]
	}
	ldc r0, 244
	.loc	2 1256 5
	{
		add r0, r6, r0
		nop
	}
	.loc	2 1256 5
	ldaw r1, dp[sr_statnoiseonoff]
	{
		nop
		stw r1, r0[0]
	}
	ldc r0, 252
.Ltmp376:
	.loc	2 1258 5
	{
		add r0, r6, r0
		ldc r1, 34
	}
	{
		nop
		stw r1, r0[0]
	}
	ldc r0, 260
	.loc	2 1259 5
	{
		add r0, r6, r0
		nop
	}
	{
		nop
		stw r2, r0[0]
	}
	ldc r0, 256
	.loc	2 1260 5
	{
		add r0, r6, r0
		nop
	}
	.loc	2 1260 5
	ldaw r1, dp[sr_nonstatnoiseonoff]
	{
		nop
		stw r1, r0[0]
	}
	ldc r0, 264
.Ltmp377:
	.loc	2 1262 5
	{
		add r0, r6, r0
		ldc r1, 35
	}
	{
		nop
		stw r1, r0[0]
	}
	ldc r0, 272
	.loc	2 1263 5
	{
		add r0, r6, r0
		nop
	}
	{
		nop
		stw r2, r0[0]
	}
	ldc r0, 268
	.loc	2 1264 5
	{
		add r0, r6, r0
		nop
	}
	.loc	2 1096 28
	ldaw r1, dp[sr_gamma_ns]
	{
		nop
		stw r1, r0[0]
	}
	ldc r0, 276
.Ltmp378:
	.loc	2 1266 5
	{
		add r0, r6, r0
		ldc r1, 36
	}
	{
		nop
		stw r1, r0[0]
	}
	ldc r0, 284
	.loc	2 1267 5
	{
		add r0, r6, r0
		nop
	}
	{
		nop
		stw r2, r0[0]
	}
	ldc r0, 280
	.loc	2 1268 5
	{
		add r0, r6, r0
		nop
	}
	.loc	2 1097 28
	ldaw r1, dp[sr_gamma_nn]
	{
		nop
		stw r1, r0[0]
	}
	ldc r0, 288
.Ltmp379:
	.loc	2 1270 5
	{
		add r0, r6, r0
		ldc r1, 37
	}
	{
		nop
		stw r1, r0[0]
	}
	ldc r0, 296
	.loc	2 1271 5
	{
		add r0, r6, r0
		nop
	}
	{
		nop
		stw r2, r0[0]
	}
	ldc r0, 292
	.loc	2 1272 5
	{
		add r0, r6, r0
		nop
	}
	.loc	2 1098 28
	ldaw r1, dp[sr_min_ns]
	{
		nop
		stw r1, r0[0]
	}
	ldc r0, 300
.Ltmp380:
	.loc	2 1274 5
	{
		add r0, r6, r0
		ldc r1, 38
	}
	{
		nop
		stw r1, r0[0]
	}
	ldc r0, 308
	.loc	2 1275 5
	{
		add r0, r6, r0
		nop
	}
	{
		nop
		stw r2, r0[0]
	}
	ldc r0, 304
	.loc	2 1276 5
	{
		add r0, r6, r0
		nop
	}
	{
		nop
		stw r4, r0[0]
	}
	ldc r0, 312
.Ltmp381:
	.loc	2 1278 5
	{
		add r0, r6, r0
		ldc r1, 39
	}
	{
		nop
		stw r1, r0[0]
	}
	ldc r0, 320
	.loc	2 1279 5
	{
		add r0, r6, r0
		nop
	}
	{
		nop
		stw r2, r0[0]
	}
	ldc r0, 316
	.loc	2 1280 5
	{
		add r0, r6, r0
		nop
	}
	.loc	2 1100 28
	ldaw r1, dp[sr_gamma_vad]
	{
		nop
		stw r1, r0[0]
	}
	ldc r0, 324
.Ltmp382:
	.loc	2 1282 5
	{
		add r0, r6, r0
		ldc r1, 21
	}
	{
		nop
		stw r1, r0[0]
	}
	ldc r0, 332
	.loc	2 1283 5
	{
		add r0, r6, r0
		nop
	}
	{
		nop
		stw r2, r0[0]
	}
	ldc r0, 328
	.loc	2 1284 5
	{
		add r0, r6, r0
		nop
	}
	.loc	2 1284 5
	ldaw r1, dp[profilingonoff]
	{
		nop
		stw r1, r0[0]
	}
.Ltmp383:
	.loc	2 1287 5
	ldw r0, dp[bap_ap]
	.loc	2 1287 5
	{
		add r0, r0, r7
		nop
	}
	.loc	2 1287 5
	{
		ldc r2, 28
		ldw r3, r0[0]
	}
	.loc	2 1287 5
	{
		mov r0, r10
		mov r1, r6
	}
	bl AMBIPHONE_BAP_SetPar
	{
		nop
		stw r6, r10[0]
	}
	{
		nop
		ldw r10, sp[14]
	}
.Ltmp384:
	.loc	2 1292 1
	ldd r9, r8, sp[6]
	ldd r7, r6, sp[5]
.Ltmp385:
	ldd r5, r4, sp[4]
	{
		nop
		retsp 16
	}
	# RETURN_REG_HOLDER
.Ltmp386:
	.cc_bottom BeClear_AMBIPHONE_BapInit.function
	.set	BeClear_AMBIPHONE_BapInit.nstackwords,((APES_SetMemPools.nstackwords $M __memcpy_4.nstackwords $M OBJ_Init.nstackwords $M PFLOAT_Load_f.nstackwords $M AMBIPHONE_BAP_Init.nstackwords $M AMBIPHONE_SetMicPositions.nstackwords $M AMBIPHONE_GetNLModelSize.nstackwords $M RFMatCreate_T.nstackwords $M AMBIPHONE_SetNLModel.nstackwords $M RFMatClose_T.nstackwords $M AMBIPHONE_BAP_SetPar.nstackwords) + 16)
	.globl	BeClear_AMBIPHONE_BapInit.nstackwords
	.set	BeClear_AMBIPHONE_BapInit.maxcores,AMBIPHONE_BAP_Init.maxcores $M AMBIPHONE_BAP_SetPar.maxcores $M AMBIPHONE_GetNLModelSize.maxcores $M AMBIPHONE_SetMicPositions.maxcores $M AMBIPHONE_SetNLModel.maxcores $M APES_SetMemPools.maxcores $M OBJ_Init.maxcores $M PFLOAT_Load_f.maxcores $M RFMatClose_T.maxcores $M RFMatCreate_T.maxcores $M 1
	.globl	BeClear_AMBIPHONE_BapInit.maxcores
	.set	BeClear_AMBIPHONE_BapInit.maxtimers,AMBIPHONE_BAP_Init.maxtimers $M AMBIPHONE_BAP_SetPar.maxtimers $M AMBIPHONE_GetNLModelSize.maxtimers $M AMBIPHONE_SetMicPositions.maxtimers $M AMBIPHONE_SetNLModel.maxtimers $M APES_SetMemPools.maxtimers $M OBJ_Init.maxtimers $M PFLOAT_Load_f.maxtimers $M RFMatClose_T.maxtimers $M RFMatCreate_T.maxtimers $M 0
	.globl	BeClear_AMBIPHONE_BapInit.maxtimers
	.set	BeClear_AMBIPHONE_BapInit.maxchanends,AMBIPHONE_BAP_Init.maxchanends $M AMBIPHONE_BAP_SetPar.maxchanends $M AMBIPHONE_GetNLModelSize.maxchanends $M AMBIPHONE_SetMicPositions.maxchanends $M AMBIPHONE_SetNLModel.maxchanends $M APES_SetMemPools.maxchanends $M OBJ_Init.maxchanends $M PFLOAT_Load_f.maxchanends $M RFMatClose_T.maxchanends $M RFMatCreate_T.maxchanends $M 0
	.globl	BeClear_AMBIPHONE_BapInit.maxchanends
.Ltmp387:
	.size	BeClear_AMBIPHONE_BapInit, .Ltmp387-BeClear_AMBIPHONE_BapInit
.Lfunc_end20:
	.cfi_endproc

	.section	.cp.rodata.cst4,"aMc",@progbits,4
	.cc_top .LCPI21_0.data,.LCPI21_0
	.align	4
	.type	.LCPI21_0,@object
	.size	.LCPI21_0, 4
.LCPI21_0:
	.long	66616
	.cc_bottom .LCPI21_0.data
	.cc_top .LCPI21_1.data,.LCPI21_1
	.align	4
	.type	.LCPI21_1,@object
	.size	.LCPI21_1, 4
.LCPI21_1:
	.long	66620
	.cc_bottom .LCPI21_1.data
	.cc_top .LCPI21_2.data,.LCPI21_2
	.align	4
	.type	.LCPI21_2,@object
	.size	.LCPI21_2, 4
.LCPI21_2:
	.long	66624
	.cc_bottom .LCPI21_2.data
	.cc_top .LCPI21_3.data,.LCPI21_3
	.align	4
	.type	.LCPI21_3,@object
	.size	.LCPI21_3, 4
.LCPI21_3:
	.long	66628
	.cc_bottom .LCPI21_3.data
	.cc_top .LCPI21_4.data,.LCPI21_4
	.align	4
	.type	.LCPI21_4,@object
	.size	.LCPI21_4, 4
.LCPI21_4:
	.long	66652
	.cc_bottom .LCPI21_4.data
	.cc_top .LCPI21_5.data,.LCPI21_5
	.align	4
	.type	.LCPI21_5,@object
	.size	.LCPI21_5, 4
.LCPI21_5:
	.long	66632
	.cc_bottom .LCPI21_5.data
	.cc_top .LCPI21_6.data,.LCPI21_6
	.align	4
	.type	.LCPI21_6,@object
	.size	.LCPI21_6, 4
.LCPI21_6:
	.long	66648
	.cc_bottom .LCPI21_6.data
	.cc_top .LCPI21_7.data,.LCPI21_7
	.align	4
	.type	.LCPI21_7,@object
	.size	.LCPI21_7, 4
.LCPI21_7:
	.long	66676
	.cc_bottom .LCPI21_7.data
	.text
	.globl	BeClear_AMBIPHONE_BapInitApp
	.align	4
	.type	BeClear_AMBIPHONE_BapInitApp,@function
	.cc_top BeClear_AMBIPHONE_BapInitApp.function,BeClear_AMBIPHONE_BapInitApp
BeClear_AMBIPHONE_BapInitApp:
.Lfunc_begin21:
	.loc	2 1309 0
	.cfi_startproc
	.issue_mode dual
	{
		nop
		dualentsp 6
	}
.Ltmp388:
	.cfi_def_cfa_offset 24
.Ltmp389:
	.cfi_offset 15, 0
	std r5, r4, sp[1]
.Ltmp390:
	.cfi_offset 4, -16
.Ltmp391:
	.cfi_offset 5, -12
	std r7, r6, sp[2]
.Ltmp392:
	.cfi_offset 6, -8
.Ltmp393:
	.cfi_offset 7, -4
.Ltmp394:
	ldaw r3, dp[x_q+16]
	.loc	2 1318 9 prologue_end
.Ltmp395:
	stw r3, dp[q_a]
	ldaw r3, dp[x_q+2096]
	.loc	2 1319 9
	stw r3, dp[q_a+8]
	ldaw r3, dp[x_q+4176]
	.loc	2 1320 9
	stw r3, dp[q_a+16]
	ldaw r3, dp[x_q+1056]
.Ltmp396:
	.loc	2 1318 9
	stw r3, dp[q_a+4]
	ldaw r3, dp[x_q+3136]
	.loc	2 1319 9
	stw r3, dp[q_a+12]
	ldaw r3, dp[x_q+5216]
	.loc	2 1320 9
	stw r3, dp[q_a+20]
	ldaw r3, dp[q_a+16]
.Ltmp397:
	.loc	2 1326 5
	stw r3, dp[q]
.Ltmp398:
	.loc	2 1334 9
	ldw r11, dp[bap_ap]
	ldw r3, cp[.LCPI21_0]
	.loc	2 1334 9
	{
		add r11, r11, r3
		nop
	}
	{
		nop
		stw r0, r11[0]
	}
	ldc r11, 1040
.Ltmp399:
	.loc	2 1334 9
	{
		add r4, r0, r11
		nop
	}
	.loc	2 1334 9
	ldw r5, dp[bap_ap]
	ldw r6, cp[.LCPI21_1]
	.loc	2 1334 9
	{
		add r5, r5, r6
		nop
	}
	{
		nop
		stw r4, r5[0]
	}
	ldc r4, 2080
	.loc	2 1334 9
	{
		add r4, r0, r4
		nop
	}
	.loc	2 1334 9
	ldw r5, dp[bap_ap]
	ldw r6, cp[.LCPI21_2]
	.loc	2 1334 9
	{
		add r5, r5, r6
		nop
	}
	{
		nop
		stw r4, r5[0]
	}
	ldc r4, 3120
	.loc	2 1334 9
	{
		add r0, r0, r4
		nop
	}
.Ltmp400:
	.loc	2 1334 9
	ldw r4, dp[bap_ap]
	ldw r5, cp[.LCPI21_3]
	.loc	2 1334 9
	{
		add r4, r4, r5
		nop
	}
	{
		nop
		stw r0, r4[0]
	}
.Ltmp401:
	.loc	2 1336 5
	ldw r0, dp[bap_ap]
	ldw r4, cp[.LCPI21_4]
	.loc	2 1336 5
	{
		add r5, r0, r4
		nop
	}
	{
		nop
		ldw r5, r5[0]
	}
	bf r5, .LBB21_3
.Ltmp402:
	{
		ldc r5, 0
		nop
	}
	ldw r6, cp[.LCPI21_5]
.Ltmp403:
.LBB21_2:
	ldaw r0, r0[r5]
	{
		add r0, r0, r6
		nop
	}
.Ltmp404:
	.loc	2 1338 9
	{
		add r5, r5, 1
		stw r1, r0[0]
	}
.Ltmp405:
	.loc	2 1336 5
	ldw r0, dp[bap_ap]
	.loc	2 1336 5
	{
		add r7, r0, r4
		nop
	}
	.loc	2 1336 5
	{
		add r1, r1, r11
		ldw r7, r7[0]
	}
	.loc	2 1336 5
	{
		lsu r7, r5, r7
		nop
	}
	bt r7, .LBB21_2
.Ltmp406:
.LBB21_3:
	ldw r11, cp[.LCPI21_6]
	.loc	2 1340 5
	{
		add r0, r0, r11
		nop
	}
	{
		nop
		stw r2, r0[0]
	}
	.loc	2 1345 5
	ldw r4, dp[bap_ap]
	.loc	2 1345 5
	{
		add r0, r4, r3
		nop
	}
	{
		nop
		ldw r0, r0[0]
	}
	ldw r1, cp[.LCPI21_5]
	.loc	2 1345 5
	{
		add r1, r4, r1
		nop
	}
	.loc	2 1345 5
	{
		add r2, r4, r11
		ldw r1, r1[0]
	}
.Ltmp407:
	{
		nop
		ldw r2, r2[0]
	}
	ldw r3, cp[.LCPI21_7]
	.loc	2 1345 5
	{
		add r3, r4, r3
		nop
	}
	{
		nop
		ldw r3, r3[0]
	}
	.loc	2 1345 5
	bl AMBIPHONE_BAP_InitApp
	.loc	2 1352 1
	ldd r7, r6, sp[2]
	ldd r5, r4, sp[1]
	{
		nop
		retsp 6
	}
	# RETURN_REG_HOLDER
.Ltmp408:
	.cc_bottom BeClear_AMBIPHONE_BapInitApp.function
	.set	BeClear_AMBIPHONE_BapInitApp.nstackwords,(AMBIPHONE_BAP_InitApp.nstackwords + 6)
	.globl	BeClear_AMBIPHONE_BapInitApp.nstackwords
	.set	BeClear_AMBIPHONE_BapInitApp.maxcores,AMBIPHONE_BAP_InitApp.maxcores $M 1
	.globl	BeClear_AMBIPHONE_BapInitApp.maxcores
	.set	BeClear_AMBIPHONE_BapInitApp.maxtimers,AMBIPHONE_BAP_InitApp.maxtimers $M 0
	.globl	BeClear_AMBIPHONE_BapInitApp.maxtimers
	.set	BeClear_AMBIPHONE_BapInitApp.maxchanends,AMBIPHONE_BAP_InitApp.maxchanends $M 0
	.globl	BeClear_AMBIPHONE_BapInitApp.maxchanends
.Ltmp409:
	.size	BeClear_AMBIPHONE_BapInitApp, .Ltmp409-BeClear_AMBIPHONE_BapInitApp
.Lfunc_end21:
	.cfi_endproc

	.globl	BeClear_AMBIPHONE_BapRunTimeControl
	.align	4
	.type	BeClear_AMBIPHONE_BapRunTimeControl,@function
	.cc_top BeClear_AMBIPHONE_BapRunTimeControl.function,BeClear_AMBIPHONE_BapRunTimeControl
BeClear_AMBIPHONE_BapRunTimeControl:
.Lfunc_begin22:
	.loc	2 1367 0
	.cfi_startproc
	.issue_mode dual
	{
		nop
		dualentsp 0
	}
	.loc	2 1372 5 prologue_end
.Ltmp410:
	ldw r0, dp[frameCnt]
.Ltmp411:
	.loc	2 1372 5
	{
		add r0, r0, 1
		nop
	}
	.loc	2 1372 5
	stw r0, dp[frameCnt]
	{
		nop
		retsp 0
	}
	.loc	2 1403 1
	# RETURN_REG_HOLDER
.Ltmp412:
	.cc_bottom BeClear_AMBIPHONE_BapRunTimeControl.function
	.set	BeClear_AMBIPHONE_BapRunTimeControl.nstackwords,0
	.globl	BeClear_AMBIPHONE_BapRunTimeControl.nstackwords
	.set	BeClear_AMBIPHONE_BapRunTimeControl.maxcores,1
	.globl	BeClear_AMBIPHONE_BapRunTimeControl.maxcores
	.set	BeClear_AMBIPHONE_BapRunTimeControl.maxtimers,0
	.globl	BeClear_AMBIPHONE_BapRunTimeControl.maxtimers
	.set	BeClear_AMBIPHONE_BapRunTimeControl.maxchanends,0
	.globl	BeClear_AMBIPHONE_BapRunTimeControl.maxchanends
.Ltmp413:
	.size	BeClear_AMBIPHONE_BapRunTimeControl, .Ltmp413-BeClear_AMBIPHONE_BapRunTimeControl
.Lfunc_end22:
	.cfi_endproc

	.section	.cp.rodata.cst4,"aMc",@progbits,4
	.cc_top .LCPI23_0.data,.LCPI23_0
	.align	4
	.type	.LCPI23_0,@object
	.size	.LCPI23_0, 4
.LCPI23_0:
	.long	2871134157
	.cc_bottom .LCPI23_0.data
	.cc_top .LCPI23_1.data,.LCPI23_1
	.align	4
	.type	.LCPI23_1,@object
	.size	.LCPI23_1, 4
.LCPI23_1:
	.long	4011418095
	.cc_bottom .LCPI23_1.data
	.cc_top .LCPI23_2.data,.LCPI23_2
	.align	4
	.type	.LCPI23_2,@object
	.size	.LCPI23_2, 4
.LCPI23_2:
	.long	4262003164
	.cc_bottom .LCPI23_2.data
	.cc_top .LCPI23_3.data,.LCPI23_3
	.align	4
	.type	.LCPI23_3,@object
	.size	.LCPI23_3, 4
.LCPI23_3:
	.long	2871007147
	.cc_bottom .LCPI23_3.data
	.cc_top .LCPI23_4.data,.LCPI23_4
	.align	4
	.type	.LCPI23_4,@object
	.size	.LCPI23_4, 4
.LCPI23_4:
	.long	66608
	.cc_bottom .LCPI23_4.data
	.text
	.globl	BeClear_AMBIPHONE_BapMemoryUsage
	.align	4
	.type	BeClear_AMBIPHONE_BapMemoryUsage,@function
	.cc_top BeClear_AMBIPHONE_BapMemoryUsage.function,BeClear_AMBIPHONE_BapMemoryUsage
BeClear_AMBIPHONE_BapMemoryUsage:
.Lfunc_begin23:
	.loc	2 1419 0
	.cfi_startproc
	.issue_mode dual
	{
		nop
		dualentsp 8
	}
.Ltmp414:
	.cfi_def_cfa_offset 32
.Ltmp415:
	.cfi_offset 15, 0
	std r5, r4, sp[1]
.Ltmp416:
	.cfi_offset 4, -24
.Ltmp417:
	.cfi_offset 5, -20
	std r7, r6, sp[2]
.Ltmp418:
	.cfi_offset 6, -16
.Ltmp419:
	.cfi_offset 7, -12
	{
		nop
		stw r8, sp[6]
	}
.Ltmp420:
	.cfi_offset 8, -8
.Ltmp421:
	.loc	2 1427 5 prologue_end
	ldw r0, dp[bap_ap]
.Ltmp422:
	ldc r1, 54120
.Ltmp423:
	{
		add r0, r0, r1
		nop
	}
	ldc r5, 6766
	ldw r1, cp[.LCPI23_0]
	ldw r2, cp[.LCPI23_1]
	{
		ldc r4, 0
		nop
	}
.LBB23_1:
.Ltmp424:
	.loc	2 2675 14
	ldd r11, r3, r0[0]
	.loc	2 2675 14
	xor r11, r11, r1
	xor r3, r3, r2
	{
		or r3, r3, r11
		nop
	}
.Ltmp425:
	bt r3, .LBB23_4
.Ltmp426:
	.loc	2 2673 61
	{
		sub r5, r5, 1
		sub r0, r0, 8
	}
.Ltmp427:
	bt r5, .LBB23_1
.Ltmp428:
	.loc	2 1427 5
	{
		mov r5, r4
		nop
	}
.Ltmp429:
.LBB23_4:
	.loc	2 2680 5
	ldaw r11, cp[.L.str12]
.Ltmp430:
	{
		mov r0, r11
		nop
	}
.Ltmp431:
	bl printstr
.Ltmp432:
	.loc	2 2681 5
	ldaw r11, cp[.L.str16]
	{
		mov r0, r11
		nop
	}
	bl printstr
	.loc	2 2682 5
	{
		shl r0, r5, 3
		nop
	}
	.loc	2 2682 5
	bl printint
	.loc	2 2683 5
	ldaw r11, cp[.L.str17]
	{
		mov r0, r11
		nop
	}
	bl printstr
.Ltmp433:
	.loc	2 1429 5
	ldw r0, dp[bap_ap]
	ldc r1, 59360
	{
		add r0, r0, r1
		nop
	}
	ldc r6, 655
.Ltmp434:
	ldw r7, cp[.LCPI23_2]
	ldw r8, cp[.LCPI23_3]
.LBB23_5:
.Ltmp435:
	.loc	2 2675 14
	ldd r2, r1, r0[0]
.Ltmp436:
	.loc	2 2675 14
	xor r2, r2, r7
	xor r1, r1, r8
	{
		or r1, r1, r2
		nop
	}
.Ltmp437:
	bt r1, .LBB23_8
.Ltmp438:
	.loc	2 2673 61
	{
		sub r6, r6, 1
		sub r0, r0, 8
	}
.Ltmp439:
	bt r6, .LBB23_5
.Ltmp440:
	.loc	2 1429 5
	{
		mov r6, r4
		nop
	}
.Ltmp441:
.LBB23_8:
	.loc	2 2680 5
	ldaw r11, cp[.L.str13]
.Ltmp442:
	{
		mov r0, r11
		nop
	}
.Ltmp443:
	bl printstr
.Ltmp444:
	.loc	2 2681 5
	ldaw r11, cp[.L.str16]
	{
		mov r5, r11
		nop
	}
	{
		mov r0, r5
		nop
	}
	bl printstr
	.loc	2 2682 5
	{
		shl r0, r6, 3
		nop
	}
	.loc	2 2682 5
	bl printint
	.loc	2 2683 5
	ldaw r11, cp[.L.str17]
	{
		mov r6, r11
		nop
	}
	{
		mov r0, r6
		nop
	}
	bl printstr
.Ltmp445:
	.loc	2 2680 5
	ldaw r11, cp[.L.str14]
.Ltmp446:
	{
		mov r0, r11
		nop
	}
	bl printstr
.Ltmp447:
	.loc	2 2681 5
	{
		mov r0, r5
		nop
	}
	bl printstr
	.loc	2 2682 5
	{
		mov r0, r4
		nop
	}
	bl printint
	.loc	2 2683 5
	{
		mov r0, r6
		nop
	}
	bl printstr
.Ltmp448:
	.loc	2 1436 5
	ldw r0, dp[bap_ap]
	ldw r1, cp[.LCPI23_4]
	{
		add r0, r0, r1
		nop
	}
	ldc r5, 906
.Ltmp449:
.LBB23_9:
	.loc	2 2675 14
	ldd r2, r1, r0[0]
.Ltmp450:
	.loc	2 2675 14
	xor r2, r2, r7
	xor r1, r1, r8
	{
		or r1, r1, r2
		nop
	}
.Ltmp451:
	bt r1, .LBB23_12
.Ltmp452:
	.loc	2 2673 61
	{
		sub r5, r5, 1
		sub r0, r0, 8
	}
.Ltmp453:
	bt r5, .LBB23_9
.Ltmp454:
	.loc	2 1436 5
	{
		mov r5, r4
		nop
	}
.Ltmp455:
.LBB23_12:
	.loc	2 2680 5
	ldaw r11, cp[.L.str15]
.Ltmp456:
	{
		mov r0, r11
		nop
	}
.Ltmp457:
	bl printstr
.Ltmp458:
	.loc	2 2681 5
	ldaw r11, cp[.L.str16]
	{
		mov r0, r11
		nop
	}
	bl printstr
	.loc	2 2682 5
	{
		shl r0, r5, 3
		nop
	}
	.loc	2 2682 5
	bl printint
	.loc	2 2683 5
	ldaw r11, cp[.L.str17]
	{
		mov r0, r11
		nop
	}
	bl printstr
	{
		nop
		ldw r8, sp[6]
	}
.Ltmp459:
	.loc	2 1447 1
	ldd r7, r6, sp[2]
	ldd r5, r4, sp[1]
	{
		nop
		retsp 8
	}
	# RETURN_REG_HOLDER
.Ltmp460:
	.cc_bottom BeClear_AMBIPHONE_BapMemoryUsage.function
	.set	BeClear_AMBIPHONE_BapMemoryUsage.nstackwords,((printint.nstackwords $M printstr.nstackwords) + 8)
	.globl	BeClear_AMBIPHONE_BapMemoryUsage.nstackwords
	.set	BeClear_AMBIPHONE_BapMemoryUsage.maxcores,printint.maxcores $M printstr.maxcores $M 1
	.globl	BeClear_AMBIPHONE_BapMemoryUsage.maxcores
	.set	BeClear_AMBIPHONE_BapMemoryUsage.maxtimers,printint.maxtimers $M printstr.maxtimers $M 0
	.globl	BeClear_AMBIPHONE_BapMemoryUsage.maxtimers
	.set	BeClear_AMBIPHONE_BapMemoryUsage.maxchanends,printint.maxchanends $M printstr.maxchanends $M 0
	.globl	BeClear_AMBIPHONE_BapMemoryUsage.maxchanends
.Ltmp461:
	.size	BeClear_AMBIPHONE_BapMemoryUsage, .Ltmp461-BeClear_AMBIPHONE_BapMemoryUsage
.Lfunc_end23:
	.cfi_endproc

	.section	.cp.rodata.cst4,"aMc",@progbits,4
	.cc_top .LCPI24_0.data,.LCPI24_0
	.align	4
	.type	.LCPI24_0,@object
	.size	.LCPI24_0, 4
.LCPI24_0:
	.long	66676
	.cc_bottom .LCPI24_0.data
	.text
	.globl	BeClear_AMBIPHONE_FsbFilterPrim
	.align	4
	.type	BeClear_AMBIPHONE_FsbFilterPrim,@function
	.cc_top BeClear_AMBIPHONE_FsbFilterPrim.function,BeClear_AMBIPHONE_FsbFilterPrim
BeClear_AMBIPHONE_FsbFilterPrim:
.Lfunc_begin24:
	.loc	2 1462 0
	.cfi_startproc
	.issue_mode dual
	{
		nop
		dualentsp 2
	}
.Ltmp462:
	.cfi_def_cfa_offset 8
.Ltmp463:
	.cfi_offset 15, 0
	.loc	2 1463 5 prologue_end
.Ltmp464:
	ldw r1, dp[bap_ap]
	ldw r2, cp[.LCPI24_0]
	.loc	2 1463 5
	{
		add r1, r1, r2
		nop
	}
	{
		nop
		ldw r1, r1[0]
	}
	.loc	2 1463 5
	bl AMBIPHONE_FsbFilterPrim
.Ltmp465:
	{
		nop
		retsp 2
	}
	.loc	2 1464 1
	# RETURN_REG_HOLDER
.Ltmp466:
	.cc_bottom BeClear_AMBIPHONE_FsbFilterPrim.function
	.set	BeClear_AMBIPHONE_FsbFilterPrim.nstackwords,(AMBIPHONE_FsbFilterPrim.nstackwords + 2)
	.globl	BeClear_AMBIPHONE_FsbFilterPrim.nstackwords
	.set	BeClear_AMBIPHONE_FsbFilterPrim.maxcores,AMBIPHONE_FsbFilterPrim.maxcores $M 1
	.globl	BeClear_AMBIPHONE_FsbFilterPrim.maxcores
	.set	BeClear_AMBIPHONE_FsbFilterPrim.maxtimers,AMBIPHONE_FsbFilterPrim.maxtimers $M 0
	.globl	BeClear_AMBIPHONE_FsbFilterPrim.maxtimers
	.set	BeClear_AMBIPHONE_FsbFilterPrim.maxchanends,AMBIPHONE_FsbFilterPrim.maxchanends $M 0
	.globl	BeClear_AMBIPHONE_FsbFilterPrim.maxchanends
.Ltmp467:
	.size	BeClear_AMBIPHONE_FsbFilterPrim, .Ltmp467-BeClear_AMBIPHONE_FsbFilterPrim
.Lfunc_end24:
	.cfi_endproc

	.section	.cp.rodata.cst4,"aMc",@progbits,4
	.cc_top .LCPI25_0.data,.LCPI25_0
	.align	4
	.type	.LCPI25_0,@object
	.size	.LCPI25_0, 4
.LCPI25_0:
	.long	66676
	.cc_bottom .LCPI25_0.data
	.text
	.globl	BeClear_AMBIPHONE_FsbFilterFar
	.align	4
	.type	BeClear_AMBIPHONE_FsbFilterFar,@function
	.cc_top BeClear_AMBIPHONE_FsbFilterFar.function,BeClear_AMBIPHONE_FsbFilterFar
BeClear_AMBIPHONE_FsbFilterFar:
.Lfunc_begin25:
	.loc	2 1479 0
	.cfi_startproc
	.issue_mode dual
	{
		nop
		dualentsp 2
	}
.Ltmp468:
	.cfi_def_cfa_offset 8
.Ltmp469:
	.cfi_offset 15, 0
	.loc	2 1480 5 prologue_end
.Ltmp470:
	ldw r1, dp[bap_ap]
	ldw r2, cp[.LCPI25_0]
	.loc	2 1480 5
	{
		add r1, r1, r2
		nop
	}
	{
		nop
		ldw r1, r1[0]
	}
	.loc	2 1480 5
	bl AMBIPHONE_FsbFilterFar
.Ltmp471:
	{
		nop
		retsp 2
	}
	.loc	2 1481 1
	# RETURN_REG_HOLDER
.Ltmp472:
	.cc_bottom BeClear_AMBIPHONE_FsbFilterFar.function
	.set	BeClear_AMBIPHONE_FsbFilterFar.nstackwords,(AMBIPHONE_FsbFilterFar.nstackwords + 2)
	.globl	BeClear_AMBIPHONE_FsbFilterFar.nstackwords
	.set	BeClear_AMBIPHONE_FsbFilterFar.maxcores,AMBIPHONE_FsbFilterFar.maxcores $M 1
	.globl	BeClear_AMBIPHONE_FsbFilterFar.maxcores
	.set	BeClear_AMBIPHONE_FsbFilterFar.maxtimers,AMBIPHONE_FsbFilterFar.maxtimers $M 0
	.globl	BeClear_AMBIPHONE_FsbFilterFar.maxtimers
	.set	BeClear_AMBIPHONE_FsbFilterFar.maxchanends,AMBIPHONE_FsbFilterFar.maxchanends $M 0
	.globl	BeClear_AMBIPHONE_FsbFilterFar.maxchanends
.Ltmp473:
	.size	BeClear_AMBIPHONE_FsbFilterFar, .Ltmp473-BeClear_AMBIPHONE_FsbFilterFar
.Lfunc_end25:
	.cfi_endproc

	.section	.cp.rodata.cst4,"aMc",@progbits,4
	.cc_top .LCPI26_0.data,.LCPI26_0
	.align	4
	.type	.LCPI26_0,@object
	.size	.LCPI26_0, 4
.LCPI26_0:
	.long	66676
	.cc_bottom .LCPI26_0.data
	.text
	.globl	BeClear_AMBIPHONE_FsbFilterRefMic
	.align	4
	.type	BeClear_AMBIPHONE_FsbFilterRefMic,@function
	.cc_top BeClear_AMBIPHONE_FsbFilterRefMic.function,BeClear_AMBIPHONE_FsbFilterRefMic
BeClear_AMBIPHONE_FsbFilterRefMic:
.Lfunc_begin26:
	.loc	2 1497 0
	.cfi_startproc
	.issue_mode dual
	{
		nop
		dualentsp 2
	}
.Ltmp474:
	.cfi_def_cfa_offset 8
.Ltmp475:
	.cfi_offset 15, 0
	.loc	2 1498 5 prologue_end
.Ltmp476:
	ldw r2, dp[bap_ap]
	ldw r3, cp[.LCPI26_0]
	.loc	2 1498 5
	{
		add r2, r2, r3
		nop
	}
	{
		nop
		ldw r2, r2[0]
	}
	.loc	2 1498 5
	bl AMBIPHONE_FsbFilterRefMic
.Ltmp477:
	{
		nop
		retsp 2
	}
	.loc	2 1499 1
	# RETURN_REG_HOLDER
.Ltmp478:
	.cc_bottom BeClear_AMBIPHONE_FsbFilterRefMic.function
	.set	BeClear_AMBIPHONE_FsbFilterRefMic.nstackwords,(AMBIPHONE_FsbFilterRefMic.nstackwords + 2)
	.globl	BeClear_AMBIPHONE_FsbFilterRefMic.nstackwords
	.set	BeClear_AMBIPHONE_FsbFilterRefMic.maxcores,AMBIPHONE_FsbFilterRefMic.maxcores $M 1
	.globl	BeClear_AMBIPHONE_FsbFilterRefMic.maxcores
	.set	BeClear_AMBIPHONE_FsbFilterRefMic.maxtimers,AMBIPHONE_FsbFilterRefMic.maxtimers $M 0
	.globl	BeClear_AMBIPHONE_FsbFilterRefMic.maxtimers
	.set	BeClear_AMBIPHONE_FsbFilterRefMic.maxchanends,AMBIPHONE_FsbFilterRefMic.maxchanends $M 0
	.globl	BeClear_AMBIPHONE_FsbFilterRefMic.maxchanends
.Ltmp479:
	.size	BeClear_AMBIPHONE_FsbFilterRefMic, .Ltmp479-BeClear_AMBIPHONE_FsbFilterRefMic
.Lfunc_end26:
	.cfi_endproc

	.section	.cp.rodata.cst4,"aMc",@progbits,4
	.cc_top .LCPI27_0.data,.LCPI27_0
	.align	4
	.type	.LCPI27_0,@object
	.size	.LCPI27_0, 4
.LCPI27_0:
	.long	66676
	.cc_bottom .LCPI27_0.data
	.text
	.globl	BeClear_AMBIPHONE_FsbUpdateDelaylineMic
	.align	4
	.type	BeClear_AMBIPHONE_FsbUpdateDelaylineMic,@function
	.cc_top BeClear_AMBIPHONE_FsbUpdateDelaylineMic.function,BeClear_AMBIPHONE_FsbUpdateDelaylineMic
BeClear_AMBIPHONE_FsbUpdateDelaylineMic:
.Lfunc_begin27:
	.loc	2 1515 0
	.cfi_startproc
	.issue_mode dual
	{
		nop
		dualentsp 2
	}
.Ltmp480:
	.cfi_def_cfa_offset 8
.Ltmp481:
	.cfi_offset 15, 0
	.loc	2 1516 5 prologue_end
.Ltmp482:
	ldw r2, dp[bap_ap]
	ldw r3, cp[.LCPI27_0]
	.loc	2 1516 5
	{
		add r2, r2, r3
		nop
	}
	{
		nop
		ldw r2, r2[0]
	}
	.loc	2 1516 5
	bl AMBIPHONE_FsbUpdateDelaylineMic
.Ltmp483:
	{
		nop
		retsp 2
	}
	.loc	2 1517 1
	# RETURN_REG_HOLDER
.Ltmp484:
	.cc_bottom BeClear_AMBIPHONE_FsbUpdateDelaylineMic.function
	.set	BeClear_AMBIPHONE_FsbUpdateDelaylineMic.nstackwords,(AMBIPHONE_FsbUpdateDelaylineMic.nstackwords + 2)
	.globl	BeClear_AMBIPHONE_FsbUpdateDelaylineMic.nstackwords
	.set	BeClear_AMBIPHONE_FsbUpdateDelaylineMic.maxcores,AMBIPHONE_FsbUpdateDelaylineMic.maxcores $M 1
	.globl	BeClear_AMBIPHONE_FsbUpdateDelaylineMic.maxcores
	.set	BeClear_AMBIPHONE_FsbUpdateDelaylineMic.maxtimers,AMBIPHONE_FsbUpdateDelaylineMic.maxtimers $M 0
	.globl	BeClear_AMBIPHONE_FsbUpdateDelaylineMic.maxtimers
	.set	BeClear_AMBIPHONE_FsbUpdateDelaylineMic.maxchanends,AMBIPHONE_FsbUpdateDelaylineMic.maxchanends $M 0
	.globl	BeClear_AMBIPHONE_FsbUpdateDelaylineMic.maxchanends
.Ltmp485:
	.size	BeClear_AMBIPHONE_FsbUpdateDelaylineMic, .Ltmp485-BeClear_AMBIPHONE_FsbUpdateDelaylineMic
.Lfunc_end27:
	.cfi_endproc

	.section	.cp.rodata.cst4,"aMc",@progbits,4
	.cc_top .LCPI28_0.data,.LCPI28_0
	.align	4
	.type	.LCPI28_0,@object
	.size	.LCPI28_0, 4
.LCPI28_0:
	.long	66676
	.cc_bottom .LCPI28_0.data
	.text
	.globl	BeClear_AMBIPHONE_PostProcInput
	.align	4
	.type	BeClear_AMBIPHONE_PostProcInput,@function
	.cc_top BeClear_AMBIPHONE_PostProcInput.function,BeClear_AMBIPHONE_PostProcInput
BeClear_AMBIPHONE_PostProcInput:
.Lfunc_begin28:
	.loc	2 1532 0
	.cfi_startproc
	.issue_mode dual
	{
		nop
		dualentsp 2
	}
.Ltmp486:
	.cfi_def_cfa_offset 8
.Ltmp487:
	.cfi_offset 15, 0
	.loc	2 1533 5 prologue_end
.Ltmp488:
	ldw r1, dp[q]
	.loc	2 1533 5
	ldw r2, dp[bap_ap]
	ldw r3, cp[.LCPI28_0]
	.loc	2 1533 5
	{
		add r2, r2, r3
		nop
	}
	{
		nop
		ldw r2, r2[0]
	}
	.loc	2 1533 5
	bl AMBIPHONE_PostProcInput
.Ltmp489:
	{
		nop
		retsp 2
	}
	.loc	2 1534 1
	# RETURN_REG_HOLDER
.Ltmp490:
	.cc_bottom BeClear_AMBIPHONE_PostProcInput.function
	.set	BeClear_AMBIPHONE_PostProcInput.nstackwords,(AMBIPHONE_PostProcInput.nstackwords + 2)
	.globl	BeClear_AMBIPHONE_PostProcInput.nstackwords
	.set	BeClear_AMBIPHONE_PostProcInput.maxcores,AMBIPHONE_PostProcInput.maxcores $M 1
	.globl	BeClear_AMBIPHONE_PostProcInput.maxcores
	.set	BeClear_AMBIPHONE_PostProcInput.maxtimers,AMBIPHONE_PostProcInput.maxtimers $M 0
	.globl	BeClear_AMBIPHONE_PostProcInput.maxtimers
	.set	BeClear_AMBIPHONE_PostProcInput.maxchanends,AMBIPHONE_PostProcInput.maxchanends $M 0
	.globl	BeClear_AMBIPHONE_PostProcInput.maxchanends
.Ltmp491:
	.size	BeClear_AMBIPHONE_PostProcInput, .Ltmp491-BeClear_AMBIPHONE_PostProcInput
.Lfunc_end28:
	.cfi_endproc

	.section	.cp.rodata.cst4,"aMc",@progbits,4
	.cc_top .LCPI29_0.data,.LCPI29_0
	.align	4
	.type	.LCPI29_0,@object
	.size	.LCPI29_0, 4
.LCPI29_0:
	.long	66648
	.cc_bottom .LCPI29_0.data
	.cc_top .LCPI29_1.data,.LCPI29_1
	.align	4
	.type	.LCPI29_1,@object
	.size	.LCPI29_1, 4
.LCPI29_1:
	.long	66676
	.cc_bottom .LCPI29_1.data
	.text
	.globl	BeClear_AMBIPHONE_PostProcUpdate
	.align	4
	.type	BeClear_AMBIPHONE_PostProcUpdate,@function
	.cc_top BeClear_AMBIPHONE_PostProcUpdate.function,BeClear_AMBIPHONE_PostProcUpdate
BeClear_AMBIPHONE_PostProcUpdate:
.Lfunc_begin29:
	.loc	2 1550 0
	.cfi_startproc
	.issue_mode dual
	{
		nop
		dualentsp 2
	}
.Ltmp492:
	.cfi_def_cfa_offset 8
.Ltmp493:
	.cfi_offset 15, 0
	.loc	2 1551 5 prologue_end
.Ltmp494:
	ldw r2, dp[bap_ap]
	ldw r1, cp[.LCPI29_0]
	.loc	2 1551 5
	{
		add r1, r2, r1
		nop
	}
	{
		nop
		ldw r1, r1[0]
	}
	ldw r3, cp[.LCPI29_1]
	.loc	2 1551 5
	{
		add r2, r2, r3
		nop
	}
	{
		nop
		ldw r2, r2[0]
	}
	.loc	2 1551 5
	bl AMBIPHONE_PostProcUpdate
.Ltmp495:
	{
		nop
		retsp 2
	}
	.loc	2 1552 1
	# RETURN_REG_HOLDER
.Ltmp496:
	.cc_bottom BeClear_AMBIPHONE_PostProcUpdate.function
	.set	BeClear_AMBIPHONE_PostProcUpdate.nstackwords,(AMBIPHONE_PostProcUpdate.nstackwords + 2)
	.globl	BeClear_AMBIPHONE_PostProcUpdate.nstackwords
	.set	BeClear_AMBIPHONE_PostProcUpdate.maxcores,AMBIPHONE_PostProcUpdate.maxcores $M 1
	.globl	BeClear_AMBIPHONE_PostProcUpdate.maxcores
	.set	BeClear_AMBIPHONE_PostProcUpdate.maxtimers,AMBIPHONE_PostProcUpdate.maxtimers $M 0
	.globl	BeClear_AMBIPHONE_PostProcUpdate.maxtimers
	.set	BeClear_AMBIPHONE_PostProcUpdate.maxchanends,AMBIPHONE_PostProcUpdate.maxchanends $M 0
	.globl	BeClear_AMBIPHONE_PostProcUpdate.maxchanends
.Ltmp497:
	.size	BeClear_AMBIPHONE_PostProcUpdate, .Ltmp497-BeClear_AMBIPHONE_PostProcUpdate
.Lfunc_end29:
	.cfi_endproc

	.section	.cp.rodata.cst4,"aMc",@progbits,4
	.cc_top .LCPI30_0.data,.LCPI30_0
	.align	4
	.type	.LCPI30_0,@object
	.size	.LCPI30_0, 4
.LCPI30_0:
	.long	66676
	.cc_bottom .LCPI30_0.data
	.text
	.globl	BeClear_AMBIPHONE_PostProcApply
	.align	4
	.type	BeClear_AMBIPHONE_PostProcApply,@function
	.cc_top BeClear_AMBIPHONE_PostProcApply.function,BeClear_AMBIPHONE_PostProcApply
BeClear_AMBIPHONE_PostProcApply:
.Lfunc_begin30:
	.loc	2 1567 0
	.cfi_startproc
	.issue_mode dual
	{
		nop
		dualentsp 2
	}
.Ltmp498:
	.cfi_def_cfa_offset 8
.Ltmp499:
	.cfi_offset 15, 0
	.loc	2 1568 5 prologue_end
.Ltmp500:
	ldw r1, dp[q]
	.loc	2 1568 5
	ldw r2, dp[bap_ap]
	ldw r3, cp[.LCPI30_0]
	.loc	2 1568 5
	{
		add r2, r2, r3
		nop
	}
	{
		nop
		ldw r2, r2[0]
	}
	.loc	2 1568 5
	bl AMBIPHONE_PostProcApply
.Ltmp501:
	{
		nop
		retsp 2
	}
	.loc	2 1569 1
	# RETURN_REG_HOLDER
.Ltmp502:
	.cc_bottom BeClear_AMBIPHONE_PostProcApply.function
	.set	BeClear_AMBIPHONE_PostProcApply.nstackwords,(AMBIPHONE_PostProcApply.nstackwords + 2)
	.globl	BeClear_AMBIPHONE_PostProcApply.nstackwords
	.set	BeClear_AMBIPHONE_PostProcApply.maxcores,AMBIPHONE_PostProcApply.maxcores $M 1
	.globl	BeClear_AMBIPHONE_PostProcApply.maxcores
	.set	BeClear_AMBIPHONE_PostProcApply.maxtimers,AMBIPHONE_PostProcApply.maxtimers $M 0
	.globl	BeClear_AMBIPHONE_PostProcApply.maxtimers
	.set	BeClear_AMBIPHONE_PostProcApply.maxchanends,AMBIPHONE_PostProcApply.maxchanends $M 0
	.globl	BeClear_AMBIPHONE_PostProcApply.maxchanends
.Ltmp503:
	.size	BeClear_AMBIPHONE_PostProcApply, .Ltmp503-BeClear_AMBIPHONE_PostProcApply
.Lfunc_end30:
	.cfi_endproc

	.section	.cp.rodata.cst4,"aMc",@progbits,4
	.cc_top .LCPI31_0.data,.LCPI31_0
	.align	4
	.type	.LCPI31_0,@object
	.size	.LCPI31_0, 4
.LCPI31_0:
	.long	66676
	.cc_bottom .LCPI31_0.data
	.text
	.globl	BeClear_AMBIPHONE_Asl
	.align	4
	.type	BeClear_AMBIPHONE_Asl,@function
	.cc_top BeClear_AMBIPHONE_Asl.function,BeClear_AMBIPHONE_Asl
BeClear_AMBIPHONE_Asl:
.Lfunc_begin31:
	.loc	2 1584 0
	.cfi_startproc
	.issue_mode dual
	{
		nop
		dualentsp 2
	}
.Ltmp504:
	.cfi_def_cfa_offset 8
.Ltmp505:
	.cfi_offset 15, 0
	.loc	2 1585 5 prologue_end
.Ltmp506:
	ldw r1, dp[bap_ap]
	ldw r2, cp[.LCPI31_0]
	.loc	2 1585 5
	{
		add r1, r1, r2
		nop
	}
	{
		nop
		ldw r1, r1[0]
	}
	.loc	2 1585 5
	bl AMBIPHONE_Asl
.Ltmp507:
	{
		nop
		retsp 2
	}
	.loc	2 1586 1
	# RETURN_REG_HOLDER
.Ltmp508:
	.cc_bottom BeClear_AMBIPHONE_Asl.function
	.set	BeClear_AMBIPHONE_Asl.nstackwords,(AMBIPHONE_Asl.nstackwords + 2)
	.globl	BeClear_AMBIPHONE_Asl.nstackwords
	.set	BeClear_AMBIPHONE_Asl.maxcores,AMBIPHONE_Asl.maxcores $M 1
	.globl	BeClear_AMBIPHONE_Asl.maxcores
	.set	BeClear_AMBIPHONE_Asl.maxtimers,AMBIPHONE_Asl.maxtimers $M 0
	.globl	BeClear_AMBIPHONE_Asl.maxtimers
	.set	BeClear_AMBIPHONE_Asl.maxchanends,AMBIPHONE_Asl.maxchanends $M 0
	.globl	BeClear_AMBIPHONE_Asl.maxchanends
.Ltmp509:
	.size	BeClear_AMBIPHONE_Asl, .Ltmp509-BeClear_AMBIPHONE_Asl
.Lfunc_end31:
	.cfi_endproc

	.section	.cp.rodata.cst4,"aMc",@progbits,4
	.cc_top .LCPI32_0.data,.LCPI32_0
	.align	4
	.type	.LCPI32_0,@object
	.size	.LCPI32_0, 4
.LCPI32_0:
	.long	66648
	.cc_bottom .LCPI32_0.data
	.cc_top .LCPI32_1.data,.LCPI32_1
	.align	4
	.type	.LCPI32_1,@object
	.size	.LCPI32_1, 4
.LCPI32_1:
	.long	66676
	.cc_bottom .LCPI32_1.data
	.text
	.globl	BeClear_AMBIPHONE_AdjustFsbLength
	.align	4
	.type	BeClear_AMBIPHONE_AdjustFsbLength,@function
	.cc_top BeClear_AMBIPHONE_AdjustFsbLength.function,BeClear_AMBIPHONE_AdjustFsbLength
BeClear_AMBIPHONE_AdjustFsbLength:
.Lfunc_begin32:
	.loc	2 1601 0
	.cfi_startproc
	.issue_mode dual
	{
		nop
		dualentsp 2
	}
.Ltmp510:
	.cfi_def_cfa_offset 8
.Ltmp511:
	.cfi_offset 15, 0
	.loc	2 1602 5 prologue_end
.Ltmp512:
	ldw r2, dp[bap_ap]
	ldw r1, cp[.LCPI32_0]
	.loc	2 1602 5
	{
		add r1, r2, r1
		nop
	}
	{
		nop
		ldw r1, r1[0]
	}
	ldw r3, cp[.LCPI32_1]
	.loc	2 1602 5
	{
		add r2, r2, r3
		nop
	}
	{
		nop
		ldw r2, r2[0]
	}
	.loc	2 1602 5
	bl AMBIPHONE_AdjustFsbLength
.Ltmp513:
	{
		nop
		retsp 2
	}
	.loc	2 1603 1
	# RETURN_REG_HOLDER
.Ltmp514:
	.cc_bottom BeClear_AMBIPHONE_AdjustFsbLength.function
	.set	BeClear_AMBIPHONE_AdjustFsbLength.nstackwords,(AMBIPHONE_AdjustFsbLength.nstackwords + 2)
	.globl	BeClear_AMBIPHONE_AdjustFsbLength.nstackwords
	.set	BeClear_AMBIPHONE_AdjustFsbLength.maxcores,AMBIPHONE_AdjustFsbLength.maxcores $M 1
	.globl	BeClear_AMBIPHONE_AdjustFsbLength.maxcores
	.set	BeClear_AMBIPHONE_AdjustFsbLength.maxtimers,AMBIPHONE_AdjustFsbLength.maxtimers $M 0
	.globl	BeClear_AMBIPHONE_AdjustFsbLength.maxtimers
	.set	BeClear_AMBIPHONE_AdjustFsbLength.maxchanends,AMBIPHONE_AdjustFsbLength.maxchanends $M 0
	.globl	BeClear_AMBIPHONE_AdjustFsbLength.maxchanends
.Ltmp515:
	.size	BeClear_AMBIPHONE_AdjustFsbLength, .Ltmp515-BeClear_AMBIPHONE_AdjustFsbLength
.Lfunc_end32:
	.cfi_endproc

	.section	.cp.rodata.cst4,"aMc",@progbits,4
	.cc_top .LCPI33_0.data,.LCPI33_0
	.align	4
	.type	.LCPI33_0,@object
	.size	.LCPI33_0, 4
.LCPI33_0:
	.long	66676
	.cc_bottom .LCPI33_0.data
	.text
	.globl	BeClear_AMBIPHONE_FsbPcd
	.align	4
	.type	BeClear_AMBIPHONE_FsbPcd,@function
	.cc_top BeClear_AMBIPHONE_FsbPcd.function,BeClear_AMBIPHONE_FsbPcd
BeClear_AMBIPHONE_FsbPcd:
.Lfunc_begin33:
	.loc	2 1618 0
	.cfi_startproc
	.issue_mode dual
	{
		nop
		dualentsp 2
	}
.Ltmp516:
	.cfi_def_cfa_offset 8
.Ltmp517:
	.cfi_offset 15, 0
	.loc	2 1619 5 prologue_end
.Ltmp518:
	ldw r1, dp[bap_ap]
	ldw r2, cp[.LCPI33_0]
	.loc	2 1619 5
	{
		add r1, r1, r2
		nop
	}
	{
		nop
		ldw r1, r1[0]
	}
	.loc	2 1619 5
	bl AMBIPHONE_FsbPcd
.Ltmp519:
	{
		nop
		retsp 2
	}
	.loc	2 1620 1
	# RETURN_REG_HOLDER
.Ltmp520:
	.cc_bottom BeClear_AMBIPHONE_FsbPcd.function
	.set	BeClear_AMBIPHONE_FsbPcd.nstackwords,(AMBIPHONE_FsbPcd.nstackwords + 2)
	.globl	BeClear_AMBIPHONE_FsbPcd.nstackwords
	.set	BeClear_AMBIPHONE_FsbPcd.maxcores,AMBIPHONE_FsbPcd.maxcores $M 1
	.globl	BeClear_AMBIPHONE_FsbPcd.maxcores
	.set	BeClear_AMBIPHONE_FsbPcd.maxtimers,AMBIPHONE_FsbPcd.maxtimers $M 0
	.globl	BeClear_AMBIPHONE_FsbPcd.maxtimers
	.set	BeClear_AMBIPHONE_FsbPcd.maxchanends,AMBIPHONE_FsbPcd.maxchanends $M 0
	.globl	BeClear_AMBIPHONE_FsbPcd.maxchanends
.Ltmp521:
	.size	BeClear_AMBIPHONE_FsbPcd, .Ltmp521-BeClear_AMBIPHONE_FsbPcd
.Lfunc_end33:
	.cfi_endproc

	.section	.cp.rodata.cst4,"aMc",@progbits,4
	.cc_top .LCPI34_0.data,.LCPI34_0
	.align	4
	.type	.LCPI34_0,@object
	.size	.LCPI34_0, 4
.LCPI34_0:
	.long	66676
	.cc_bottom .LCPI34_0.data
	.text
	.globl	BeClear_AMBIPHONE_FsbUpdatePre
	.align	4
	.type	BeClear_AMBIPHONE_FsbUpdatePre,@function
	.cc_top BeClear_AMBIPHONE_FsbUpdatePre.function,BeClear_AMBIPHONE_FsbUpdatePre
BeClear_AMBIPHONE_FsbUpdatePre:
.Lfunc_begin34:
	.loc	2 1636 0
	.cfi_startproc
	.issue_mode dual
	{
		nop
		dualentsp 2
	}
.Ltmp522:
	.cfi_def_cfa_offset 8
.Ltmp523:
	.cfi_offset 15, 0
	.loc	2 1637 5 prologue_end
.Ltmp524:
	ldw r1, dp[bap_ap]
	ldw r2, cp[.LCPI34_0]
	.loc	2 1637 5
	{
		add r1, r1, r2
		nop
	}
	{
		nop
		ldw r1, r1[0]
	}
	.loc	2 1637 5
	bl AMBIPHONE_FsbUpdatePre
.Ltmp525:
	{
		nop
		retsp 2
	}
	.loc	2 1638 1
	# RETURN_REG_HOLDER
.Ltmp526:
	.cc_bottom BeClear_AMBIPHONE_FsbUpdatePre.function
	.set	BeClear_AMBIPHONE_FsbUpdatePre.nstackwords,(AMBIPHONE_FsbUpdatePre.nstackwords + 2)
	.globl	BeClear_AMBIPHONE_FsbUpdatePre.nstackwords
	.set	BeClear_AMBIPHONE_FsbUpdatePre.maxcores,AMBIPHONE_FsbUpdatePre.maxcores $M 1
	.globl	BeClear_AMBIPHONE_FsbUpdatePre.maxcores
	.set	BeClear_AMBIPHONE_FsbUpdatePre.maxtimers,AMBIPHONE_FsbUpdatePre.maxtimers $M 0
	.globl	BeClear_AMBIPHONE_FsbUpdatePre.maxtimers
	.set	BeClear_AMBIPHONE_FsbUpdatePre.maxchanends,AMBIPHONE_FsbUpdatePre.maxchanends $M 0
	.globl	BeClear_AMBIPHONE_FsbUpdatePre.maxchanends
.Ltmp527:
	.size	BeClear_AMBIPHONE_FsbUpdatePre, .Ltmp527-BeClear_AMBIPHONE_FsbUpdatePre
.Lfunc_end34:
	.cfi_endproc

	.section	.cp.rodata.cst4,"aMc",@progbits,4
	.cc_top .LCPI35_0.data,.LCPI35_0
	.align	4
	.type	.LCPI35_0,@object
	.size	.LCPI35_0, 4
.LCPI35_0:
	.long	66676
	.cc_bottom .LCPI35_0.data
	.text
	.globl	BeClear_AMBIPHONE_FsbUpdate
	.align	4
	.type	BeClear_AMBIPHONE_FsbUpdate,@function
	.cc_top BeClear_AMBIPHONE_FsbUpdate.function,BeClear_AMBIPHONE_FsbUpdate
BeClear_AMBIPHONE_FsbUpdate:
.Lfunc_begin35:
	.loc	2 1654 0
	.cfi_startproc
	.issue_mode dual
	{
		nop
		dualentsp 2
	}
.Ltmp528:
	.cfi_def_cfa_offset 8
.Ltmp529:
	.cfi_offset 15, 0
	.loc	2 1655 5 prologue_end
.Ltmp530:
	ldw r2, dp[bap_ap]
	ldw r3, cp[.LCPI35_0]
	.loc	2 1655 5
	{
		add r2, r2, r3
		nop
	}
	{
		nop
		ldw r2, r2[0]
	}
	.loc	2 1655 5
	bl AMBIPHONE_FsbUpdate
.Ltmp531:
	{
		nop
		retsp 2
	}
	.loc	2 1656 1
	# RETURN_REG_HOLDER
.Ltmp532:
	.cc_bottom BeClear_AMBIPHONE_FsbUpdate.function
	.set	BeClear_AMBIPHONE_FsbUpdate.nstackwords,(AMBIPHONE_FsbUpdate.nstackwords + 2)
	.globl	BeClear_AMBIPHONE_FsbUpdate.nstackwords
	.set	BeClear_AMBIPHONE_FsbUpdate.maxcores,AMBIPHONE_FsbUpdate.maxcores $M 1
	.globl	BeClear_AMBIPHONE_FsbUpdate.maxcores
	.set	BeClear_AMBIPHONE_FsbUpdate.maxtimers,AMBIPHONE_FsbUpdate.maxtimers $M 0
	.globl	BeClear_AMBIPHONE_FsbUpdate.maxtimers
	.set	BeClear_AMBIPHONE_FsbUpdate.maxchanends,AMBIPHONE_FsbUpdate.maxchanends $M 0
	.globl	BeClear_AMBIPHONE_FsbUpdate.maxchanends
.Ltmp533:
	.size	BeClear_AMBIPHONE_FsbUpdate, .Ltmp533-BeClear_AMBIPHONE_FsbUpdate
.Lfunc_end35:
	.cfi_endproc

	.section	.cp.rodata.cst4,"aMc",@progbits,4
	.cc_top .LCPI36_0.data,.LCPI36_0
	.align	4
	.type	.LCPI36_0,@object
	.size	.LCPI36_0, 4
.LCPI36_0:
	.long	66676
	.cc_bottom .LCPI36_0.data
	.text
	.globl	BeClear_AMBIPHONE_FsbPowerCstr
	.align	4
	.type	BeClear_AMBIPHONE_FsbPowerCstr,@function
	.cc_top BeClear_AMBIPHONE_FsbPowerCstr.function,BeClear_AMBIPHONE_FsbPowerCstr
BeClear_AMBIPHONE_FsbPowerCstr:
.Lfunc_begin36:
	.loc	2 1671 0
	.cfi_startproc
	.issue_mode dual
	{
		nop
		dualentsp 2
	}
.Ltmp534:
	.cfi_def_cfa_offset 8
.Ltmp535:
	.cfi_offset 15, 0
	.loc	2 1672 5 prologue_end
.Ltmp536:
	ldw r1, dp[bap_ap]
	ldw r2, cp[.LCPI36_0]
	.loc	2 1672 5
	{
		add r1, r1, r2
		nop
	}
	{
		nop
		ldw r1, r1[0]
	}
	.loc	2 1672 5
	bl AMBIPHONE_FsbPowerCstr
.Ltmp537:
	{
		nop
		retsp 2
	}
	.loc	2 1673 1
	# RETURN_REG_HOLDER
.Ltmp538:
	.cc_bottom BeClear_AMBIPHONE_FsbPowerCstr.function
	.set	BeClear_AMBIPHONE_FsbPowerCstr.nstackwords,(AMBIPHONE_FsbPowerCstr.nstackwords + 2)
	.globl	BeClear_AMBIPHONE_FsbPowerCstr.nstackwords
	.set	BeClear_AMBIPHONE_FsbPowerCstr.maxcores,AMBIPHONE_FsbPowerCstr.maxcores $M 1
	.globl	BeClear_AMBIPHONE_FsbPowerCstr.maxcores
	.set	BeClear_AMBIPHONE_FsbPowerCstr.maxtimers,AMBIPHONE_FsbPowerCstr.maxtimers $M 0
	.globl	BeClear_AMBIPHONE_FsbPowerCstr.maxtimers
	.set	BeClear_AMBIPHONE_FsbPowerCstr.maxchanends,AMBIPHONE_FsbPowerCstr.maxchanends $M 0
	.globl	BeClear_AMBIPHONE_FsbPowerCstr.maxchanends
.Ltmp539:
	.size	BeClear_AMBIPHONE_FsbPowerCstr, .Ltmp539-BeClear_AMBIPHONE_FsbPowerCstr
.Lfunc_end36:
	.cfi_endproc

	.section	.cp.rodata.cst4,"aMc",@progbits,4
	.cc_top .LCPI37_0.data,.LCPI37_0
	.align	4
	.type	.LCPI37_0,@object
	.size	.LCPI37_0, 4
.LCPI37_0:
	.long	66676
	.cc_bottom .LCPI37_0.data
	.text
	.globl	BeClear_AMBIPHONE_FsbCausalityCstr
	.align	4
	.type	BeClear_AMBIPHONE_FsbCausalityCstr,@function
	.cc_top BeClear_AMBIPHONE_FsbCausalityCstr.function,BeClear_AMBIPHONE_FsbCausalityCstr
BeClear_AMBIPHONE_FsbCausalityCstr:
.Lfunc_begin37:
	.loc	2 1689 0
	.cfi_startproc
	.issue_mode dual
	{
		nop
		dualentsp 2
	}
.Ltmp540:
	.cfi_def_cfa_offset 8
.Ltmp541:
	.cfi_offset 15, 0
	.loc	2 1690 5 prologue_end
.Ltmp542:
	ldw r2, dp[bap_ap]
	ldw r3, cp[.LCPI37_0]
	.loc	2 1690 5
	{
		add r2, r2, r3
		nop
	}
	{
		nop
		ldw r2, r2[0]
	}
	.loc	2 1690 5
	bl AMBIPHONE_FsbCausalityCstr
.Ltmp543:
	{
		nop
		retsp 2
	}
	.loc	2 1691 1
	# RETURN_REG_HOLDER
.Ltmp544:
	.cc_bottom BeClear_AMBIPHONE_FsbCausalityCstr.function
	.set	BeClear_AMBIPHONE_FsbCausalityCstr.nstackwords,(AMBIPHONE_FsbCausalityCstr.nstackwords + 2)
	.globl	BeClear_AMBIPHONE_FsbCausalityCstr.nstackwords
	.set	BeClear_AMBIPHONE_FsbCausalityCstr.maxcores,AMBIPHONE_FsbCausalityCstr.maxcores $M 1
	.globl	BeClear_AMBIPHONE_FsbCausalityCstr.maxcores
	.set	BeClear_AMBIPHONE_FsbCausalityCstr.maxtimers,AMBIPHONE_FsbCausalityCstr.maxtimers $M 0
	.globl	BeClear_AMBIPHONE_FsbCausalityCstr.maxtimers
	.set	BeClear_AMBIPHONE_FsbCausalityCstr.maxchanends,AMBIPHONE_FsbCausalityCstr.maxchanends $M 0
	.globl	BeClear_AMBIPHONE_FsbCausalityCstr.maxchanends
.Ltmp545:
	.size	BeClear_AMBIPHONE_FsbCausalityCstr, .Ltmp545-BeClear_AMBIPHONE_FsbCausalityCstr
.Lfunc_end37:
	.cfi_endproc

	.section	.cp.rodata.cst4,"aMc",@progbits,4
	.cc_top .LCPI38_0.data,.LCPI38_0
	.align	4
	.type	.LCPI38_0,@object
	.size	.LCPI38_0, 4
.LCPI38_0:
	.long	66676
	.cc_bottom .LCPI38_0.data
	.text
	.globl	BeClear_AMBIPHONE_FsbForceFullCstr
	.align	4
	.type	BeClear_AMBIPHONE_FsbForceFullCstr,@function
	.cc_top BeClear_AMBIPHONE_FsbForceFullCstr.function,BeClear_AMBIPHONE_FsbForceFullCstr
BeClear_AMBIPHONE_FsbForceFullCstr:
.Lfunc_begin38:
	.loc	2 1706 0
	.cfi_startproc
	.issue_mode dual
	{
		nop
		dualentsp 2
	}
.Ltmp546:
	.cfi_def_cfa_offset 8
.Ltmp547:
	.cfi_offset 15, 0
	.loc	2 1707 5 prologue_end
.Ltmp548:
	ldw r1, dp[bap_ap]
	ldw r2, cp[.LCPI38_0]
	.loc	2 1707 5
	{
		add r1, r1, r2
		nop
	}
	{
		nop
		ldw r1, r1[0]
	}
	.loc	2 1707 5
	bl AMBIPHONE_FsbForceFullCstr
.Ltmp549:
	{
		nop
		retsp 2
	}
	.loc	2 1708 1
	# RETURN_REG_HOLDER
.Ltmp550:
	.cc_bottom BeClear_AMBIPHONE_FsbForceFullCstr.function
	.set	BeClear_AMBIPHONE_FsbForceFullCstr.nstackwords,(AMBIPHONE_FsbForceFullCstr.nstackwords + 2)
	.globl	BeClear_AMBIPHONE_FsbForceFullCstr.nstackwords
	.set	BeClear_AMBIPHONE_FsbForceFullCstr.maxcores,AMBIPHONE_FsbForceFullCstr.maxcores $M 1
	.globl	BeClear_AMBIPHONE_FsbForceFullCstr.maxcores
	.set	BeClear_AMBIPHONE_FsbForceFullCstr.maxtimers,AMBIPHONE_FsbForceFullCstr.maxtimers $M 0
	.globl	BeClear_AMBIPHONE_FsbForceFullCstr.maxtimers
	.set	BeClear_AMBIPHONE_FsbForceFullCstr.maxchanends,AMBIPHONE_FsbForceFullCstr.maxchanends $M 0
	.globl	BeClear_AMBIPHONE_FsbForceFullCstr.maxchanends
.Ltmp551:
	.size	BeClear_AMBIPHONE_FsbForceFullCstr, .Ltmp551-BeClear_AMBIPHONE_FsbForceFullCstr
.Lfunc_end38:
	.cfi_endproc

	.section	.cp.rodata.cst4,"aMc",@progbits,4
	.cc_top .LCPI39_0.data,.LCPI39_0
	.align	4
	.type	.LCPI39_0,@object
	.size	.LCPI39_0, 4
.LCPI39_0:
	.long	66676
	.cc_bottom .LCPI39_0.data
	.text
	.globl	BeClear_AMBIPHONE_GetFsbDelay
	.align	4
	.type	BeClear_AMBIPHONE_GetFsbDelay,@function
	.cc_top BeClear_AMBIPHONE_GetFsbDelay.function,BeClear_AMBIPHONE_GetFsbDelay
BeClear_AMBIPHONE_GetFsbDelay:
.Lfunc_begin39:
	.loc	2 1725 0
	.cfi_startproc
	.issue_mode dual
	{
		nop
		dualentsp 2
	}
.Ltmp552:
	.cfi_def_cfa_offset 8
.Ltmp553:
	.cfi_offset 15, 0
	.loc	2 1728 5 prologue_end
.Ltmp554:
	ldw r3, dp[bap_ap]
	ldw r11, cp[.LCPI39_0]
	.loc	2 1728 5
	{
		add r3, r3, r11
		nop
	}
	{
		nop
		ldw r3, r3[0]
	}
	.loc	2 1727 8
	bf r1, .LBB39_2
.Ltmp555:
	{
		nop
		stw r3, sp[1]
	}
	.loc	2 1728 5
	ldaw r3, dp[td_doa0]
	bu .LBB39_3
.Ltmp556:
.LBB39_2:
	{
		nop
		stw r3, sp[1]
	}
	.loc	2 1730 5
	ldaw r3, dp[td_doa1]
	{
		ldc r1, 0
		nop
	}
.Ltmp557:
.LBB39_3:
	bl AMBIPHONE_GetFSBDelay
	{
		nop
		retsp 2
	}
.Ltmp558:
	.loc	2 1737 1
	# RETURN_REG_HOLDER
.Ltmp559:
	.cc_bottom BeClear_AMBIPHONE_GetFsbDelay.function
	.set	BeClear_AMBIPHONE_GetFsbDelay.nstackwords,(AMBIPHONE_GetFSBDelay.nstackwords + 2)
	.globl	BeClear_AMBIPHONE_GetFsbDelay.nstackwords
	.set	BeClear_AMBIPHONE_GetFsbDelay.maxcores,AMBIPHONE_GetFSBDelay.maxcores $M 1
	.globl	BeClear_AMBIPHONE_GetFsbDelay.maxcores
	.set	BeClear_AMBIPHONE_GetFsbDelay.maxtimers,AMBIPHONE_GetFSBDelay.maxtimers $M 0
	.globl	BeClear_AMBIPHONE_GetFsbDelay.maxtimers
	.set	BeClear_AMBIPHONE_GetFsbDelay.maxchanends,AMBIPHONE_GetFSBDelay.maxchanends $M 0
	.globl	BeClear_AMBIPHONE_GetFsbDelay.maxchanends
.Ltmp560:
	.size	BeClear_AMBIPHONE_GetFsbDelay, .Ltmp560-BeClear_AMBIPHONE_GetFsbDelay
.Lfunc_end39:
	.cfi_endproc

	.globl	BeClear_AMBIPHONE_PrintInitMemory
	.align	4
	.type	BeClear_AMBIPHONE_PrintInitMemory,@function
	.cc_top BeClear_AMBIPHONE_PrintInitMemory.function,BeClear_AMBIPHONE_PrintInitMemory
BeClear_AMBIPHONE_PrintInitMemory:
.Lfunc_begin40:
	.loc	2 1754 0
	.cfi_startproc
	.issue_mode dual
	{
		nop
		dualentsp 0
	}
	{
		nop
		retsp 0
	}
	.loc	2 1797 1 prologue_end
.Ltmp561:
	# RETURN_REG_HOLDER
.Ltmp562:
	.cc_bottom BeClear_AMBIPHONE_PrintInitMemory.function
	.set	BeClear_AMBIPHONE_PrintInitMemory.nstackwords,0
	.globl	BeClear_AMBIPHONE_PrintInitMemory.nstackwords
	.set	BeClear_AMBIPHONE_PrintInitMemory.maxcores,1
	.globl	BeClear_AMBIPHONE_PrintInitMemory.maxcores
	.set	BeClear_AMBIPHONE_PrintInitMemory.maxtimers,0
	.globl	BeClear_AMBIPHONE_PrintInitMemory.maxtimers
	.set	BeClear_AMBIPHONE_PrintInitMemory.maxchanends,0
	.globl	BeClear_AMBIPHONE_PrintInitMemory.maxchanends
.Ltmp563:
	.size	BeClear_AMBIPHONE_PrintInitMemory, .Ltmp563-BeClear_AMBIPHONE_PrintInitMemory
.Lfunc_end40:
	.cfi_endproc

	.section	.cp.rodata.cst4,"aMc",@progbits,4
	.cc_top .LCPI41_0.data,.LCPI41_0
	.align	4
	.type	.LCPI41_0,@object
	.size	.LCPI41_0, 4
.LCPI41_0:
	.long	66676
	.cc_bottom .LCPI41_0.data
	.text
	.globl	BeClear_AMBIPHONE_Process_GetNLModel
	.align	4
	.type	BeClear_AMBIPHONE_Process_GetNLModel,@function
	.cc_top BeClear_AMBIPHONE_Process_GetNLModel.function,BeClear_AMBIPHONE_Process_GetNLModel
BeClear_AMBIPHONE_Process_GetNLModel:
.Lfunc_begin41:
	.loc	2 1814 0
	.cfi_startproc
	.issue_mode dual
	{
		nop
		dualentsp 14
	}
.Ltmp564:
	.cfi_def_cfa_offset 56
.Ltmp565:
	.cfi_offset 15, 0
	std r5, r4, sp[3]
.Ltmp566:
	.cfi_offset 4, -32
.Ltmp567:
	.cfi_offset 5, -28
	std r7, r6, sp[4]
.Ltmp568:
	.cfi_offset 6, -24
.Ltmp569:
	.cfi_offset 7, -20
	std r9, r8, sp[5]
.Ltmp570:
	.cfi_offset 8, -16
.Ltmp571:
	.cfi_offset 9, -12
.Ltmp572:
	.cfi_offset 10, -8
.Ltmp573:
	{
		mov r5, r1
		stw r10, sp[12]
	}
.Ltmp574:
	{
		mov r4, r0
		nop
	}
.Ltmp575:
	.loc	2 1819 5 prologue_end
	ldw r0, dp[bap_ap]
	ldw r6, cp[.LCPI41_0]
	.loc	2 1819 5
	{
		add r0, r0, r6
		nop
	}
.Ltmp576:
	.loc	2 1819 5
	{
		ldaw r1, sp[5]
		ldw r3, r0[0]
	}
.Ltmp577:
	{
		ldaw r2, sp[4]
		mov r0, r4
	}
.Ltmp578:
	.loc	2 1819 5
	bl AMBIPHONE_GetNLModelSize
	{
		nop
		ldw r1, sp[5]
	}
.Ltmp579:
	.loc	2 1821 5
	{
		ldaw r3, sp[3]
		ldw r2, sp[4]
	}
.Ltmp580:
	.loc	2 1821 5
	{
		mov r0, r4
		nop
	}
	bl RFMatCreate_T
	.loc	2 1823 9
.Ltmp581:
	{
		ldc r0, 16
		ldw r1, sp[5]
	}
	.loc	2 1823 9
	{
		eq r0, r1, r0
		nop
	}
	bf r0, .LBB41_11
.Ltmp582:
	{
		mkmsk r2, 4
		ldw r0, sp[4]
	}
	{
		eq r0, r0, r2
		nop
	}
	bf r0, .LBB41_11
.Ltmp583:
	{
		nop
		ldw r3, sp[3]
	}
	.loc	2 1825 9
.Ltmp584:
	ldw r0, dp[bap_ap]
	.loc	2 1825 9
	{
		add r0, r0, r6
		nop
	}
	{
		nop
		ldw r0, r0[0]
	}
	.loc	2 1825 9
	{
		ldc r1, 16
		stw r0, sp[1]
	}
	{
		mkmsk r2, 4
		mov r0, r4
	}
	bl AMBIPHONE_GetNLModel
.Ltmp585:
	{
		nop
		ldw r1, sp[5]
	}
	.loc	2 1829 9
.Ltmp586:
	bf r1, .LBB41_3
.Ltmp587:
	.loc	2 1831 17
	{
		ldc r2, 0
		ldw r0, sp[3]
	}
	{
		nop
		ldw r3, sp[4]
	}
.Ltmp588:
	.loc	2 1816 21
	{
		mov r7, r3
		mov r11, r2
	}
	{
		mov r6, r2
		nop
	}
.Ltmp589:
.LBB41_5:
	{
		nop
		ldw r8, r0[r11]
	}
.Ltmp590:
	.loc	2 1830 13
	bf r7, .LBB41_6
.Ltmp591:
	ldaw r9, r5[r6]
	{
		mov r7, r2
		nop
	}
.Ltmp592:
.LBB41_8:
	{
		nop
		ldw r10, r8[r7]
	}
	.loc	2 1831 17
.Ltmp593:
	stw r10, r9[r7]
.Ltmp594:
	.loc	2 1830 49
	{
		add r7, r7, 1
		nop
	}
.Ltmp595:
	.loc	2 1830 13
	{
		lsu r10, r7, r3
		nop
	}
	.loc	2 1830 13
	bt r10, .LBB41_8
.Ltmp596:
	.loc	2 1830 13
	{
		add r9, r6, r7
		mov r7, r3
	}
.Ltmp597:
	bu .LBB41_10
.Ltmp598:
.LBB41_6:
	{
		mov r7, r2
		mov r9, r6
	}
.Ltmp599:
.LBB41_10:
	.loc	9 280 5
	ldaw r6, r8[-4]
.Ltmp600:
	.loc	2 1833 34
	{
		add r6, r9, 1
		ldw r8, r6[0]
	}
.Ltmp601:
	.loc	2 1833 34
	stw r8, r5[r9]
.Ltmp602:
	.loc	2 1829 45
	{
		add r11, r11, 1
		nop
	}
.Ltmp603:
	.loc	2 1829 9
	{
		lsu r8, r11, r1
		nop
	}
	bt r8, .LBB41_5
	bu .LBB41_11
.Ltmp604:
.LBB41_3:
	{
		ldc r1, 0
		nop
	}
.Ltmp605:
.LBB41_11:
	.loc	2 1837 5
	{
		mov r0, r4
		ldw r2, sp[3]
	}
	.loc	2 1837 5
	bl RFMatClose_T
	{
		nop
		ldw r10, sp[12]
	}
	.loc	2 1839 1
	ldd r9, r8, sp[5]
	ldd r7, r6, sp[4]
	ldd r5, r4, sp[3]
.Ltmp606:
	{
		nop
		retsp 14
	}
	# RETURN_REG_HOLDER
.Ltmp607:
	.cc_bottom BeClear_AMBIPHONE_Process_GetNLModel.function
	.set	BeClear_AMBIPHONE_Process_GetNLModel.nstackwords,((AMBIPHONE_GetNLModelSize.nstackwords $M RFMatCreate_T.nstackwords $M AMBIPHONE_GetNLModel.nstackwords $M RFMatClose_T.nstackwords) + 14)
	.globl	BeClear_AMBIPHONE_Process_GetNLModel.nstackwords
	.set	BeClear_AMBIPHONE_Process_GetNLModel.maxcores,AMBIPHONE_GetNLModel.maxcores $M AMBIPHONE_GetNLModelSize.maxcores $M RFMatClose_T.maxcores $M RFMatCreate_T.maxcores $M 1
	.globl	BeClear_AMBIPHONE_Process_GetNLModel.maxcores
	.set	BeClear_AMBIPHONE_Process_GetNLModel.maxtimers,AMBIPHONE_GetNLModel.maxtimers $M AMBIPHONE_GetNLModelSize.maxtimers $M RFMatClose_T.maxtimers $M RFMatCreate_T.maxtimers $M 0
	.globl	BeClear_AMBIPHONE_Process_GetNLModel.maxtimers
	.set	BeClear_AMBIPHONE_Process_GetNLModel.maxchanends,AMBIPHONE_GetNLModel.maxchanends $M AMBIPHONE_GetNLModelSize.maxchanends $M RFMatClose_T.maxchanends $M RFMatCreate_T.maxchanends $M 0
	.globl	BeClear_AMBIPHONE_Process_GetNLModel.maxchanends
.Ltmp608:
	.size	BeClear_AMBIPHONE_Process_GetNLModel, .Ltmp608-BeClear_AMBIPHONE_Process_GetNLModel
.Lfunc_end41:
	.cfi_endproc

	.section	.cp.rodata.cst4,"aMc",@progbits,4
	.cc_top .LCPI42_0.data,.LCPI42_0
	.align	4
	.type	.LCPI42_0,@object
	.size	.LCPI42_0, 4
.LCPI42_0:
	.long	131864
	.cc_bottom .LCPI42_0.data
	.cc_top .LCPI42_1.data,.LCPI42_1
	.align	4
	.type	.LCPI42_1,@object
	.size	.LCPI42_1, 4
.LCPI42_1:
	.long	4294967292
	.cc_bottom .LCPI42_1.data
	.cc_top .LCPI42_2.data,.LCPI42_2
	.align	4
	.type	.LCPI42_2,@object
	.size	.LCPI42_2, 4
.LCPI42_2:
	.long	131872
	.cc_bottom .LCPI42_2.data
	.text
	.globl	BeClear_AMBIPHONE_Process_GetAECCoefs
	.align	4
	.type	BeClear_AMBIPHONE_Process_GetAECCoefs,@function
	.cc_top BeClear_AMBIPHONE_Process_GetAECCoefs.function,BeClear_AMBIPHONE_Process_GetAECCoefs
BeClear_AMBIPHONE_Process_GetAECCoefs:
.Lfunc_begin42:
	.loc	2 1857 0
	.cfi_startproc
	.issue_mode dual
	{
		nop
		dualentsp 8
	}
.Ltmp609:
	.cfi_def_cfa_offset 32
.Ltmp610:
	.cfi_offset 15, 0
	std r5, r4, sp[1]
.Ltmp611:
	.cfi_offset 4, -24
.Ltmp612:
	.cfi_offset 5, -20
	std r7, r6, sp[2]
.Ltmp613:
	.cfi_offset 6, -16
.Ltmp614:
	.cfi_offset 7, -12
.Ltmp615:
	.cfi_offset 8, -8
.Ltmp616:
	{
		mov r5, r2
		stw r8, sp[6]
	}
.Ltmp617:
	{
		mov r4, r0
		nop
	}
.Ltmp618:
	.loc	2 1860 5 prologue_end
	ldw r0, dp[aec_ap]
.Ltmp619:
	ldw r8, cp[.LCPI42_0]
	.loc	2 1860 5
	{
		add r0, r0, r8
		nop
	}
	{
		nop
		ldw r0, r0[0]
	}
.Ltmp620:
	.loc	10 1088 5
	{
		ldc r2, 19
		ldw r7, r4[0]
	}
.Ltmp621:
	.loc	10 965 5
	ldaw r0, r2[r0]
	ldw r2, cp[.LCPI42_1]
	.loc	10 965 5
	{
		and r0, r0, r2
		nop
	}
.Ltmp622:
	.loc	10 1089 23
	{
		add r0, r7, r0
		nop
	}
	{
		nop
		stw r0, r4[0]
	}
.Ltmp623:
	.loc	9 404 5
	ldaw r6, r7[4]
.Ltmp624:
	.loc	2 1861 5
	ldw r0, dp[aec_ap]
	ldw r2, cp[.LCPI42_2]
	.loc	2 1861 5
	{
		add r0, r0, r2
		nop
	}
	.loc	2 1861 5
	{
		mov r0, r4
		ldw r3, r0[0]
	}
	.loc	2 1861 5
	{
		mov r2, r6
		nop
	}
	bl AMBIPHONE_GetAECCoefs
.Ltmp625:
	{
		nop
		ldw r0, r7[0]
	}
	{
		nop
		stw r0, r5[0]
	}
.Ltmp626:
	.loc	2 1864 5
	ldw r0, dp[aec_ap]
	.loc	2 1864 5
	{
		add r0, r0, r8
		nop
	}
	{
		nop
		ldw r1, r0[0]
	}
	bf r1, .LBB42_3
.Ltmp627:
	{
		add r1, r5, 4
		ldc r2, 0
	}
.Ltmp628:
.LBB42_2:
	.loc	2 1865 9
	{
		add r11, r2, 1
		ldw r3, r6[r2]
	}
.Ltmp629:
	.loc	2 1865 9
	stw r3, r1[r2]
	{
		nop
		ldw r2, r0[0]
	}
.Ltmp630:
	.loc	2 1864 5
	{
		lsu r3, r11, r2
		mov r2, r11
	}
.Ltmp631:
	bt r3, .LBB42_2
.Ltmp632:
.LBB42_3:
	{
		nop
		stw r7, r4[0]
	}
	{
		nop
		ldw r8, sp[6]
	}
	.loc	2 1869 1
	ldd r7, r6, sp[2]
.Ltmp633:
	ldd r5, r4, sp[1]
.Ltmp634:
	{
		nop
		retsp 8
	}
	# RETURN_REG_HOLDER
.Ltmp635:
	.cc_bottom BeClear_AMBIPHONE_Process_GetAECCoefs.function
	.set	BeClear_AMBIPHONE_Process_GetAECCoefs.nstackwords,(AMBIPHONE_GetAECCoefs.nstackwords + 8)
	.globl	BeClear_AMBIPHONE_Process_GetAECCoefs.nstackwords
	.set	BeClear_AMBIPHONE_Process_GetAECCoefs.maxcores,AMBIPHONE_GetAECCoefs.maxcores $M 1
	.globl	BeClear_AMBIPHONE_Process_GetAECCoefs.maxcores
	.set	BeClear_AMBIPHONE_Process_GetAECCoefs.maxtimers,AMBIPHONE_GetAECCoefs.maxtimers $M 0
	.globl	BeClear_AMBIPHONE_Process_GetAECCoefs.maxtimers
	.set	BeClear_AMBIPHONE_Process_GetAECCoefs.maxchanends,AMBIPHONE_GetAECCoefs.maxchanends $M 0
	.globl	BeClear_AMBIPHONE_Process_GetAECCoefs.maxchanends
.Ltmp636:
	.size	BeClear_AMBIPHONE_Process_GetAECCoefs, .Ltmp636-BeClear_AMBIPHONE_Process_GetAECCoefs
.Lfunc_end42:
	.cfi_endproc

	.section	.dp.bss.4,"awd",@nobits
	.cc_top frameCnt.data,frameCnt
	.globl	frameCnt
	.align	4
	.type	frameCnt,@object
	.size	frameCnt, 4
frameCnt:
	.long	0
	.cc_bottom frameCnt.data
	.section	.dp.data.4,"awd",@progbits
	.cc_top GoOn.data,GoOn
	.globl	GoOn
	.align	4
	.type	GoOn,@object
	.size	GoOn, 4
GoOn:
	.long	1
	.cc_bottom GoOn.data
	.section	.dp.bss,"awd",@nobits
	.cc_top mic_a.data,mic_a
	.globl	mic_a.globound
mic_a.globound = 2
	.globl	mic_a
	.align	8
	.type	mic_a,@object
	.size	mic_a, 32
mic_a:
	.space	32
	.cc_bottom mic_a.data
	.section	.dp.data.4,"awd",@progbits
	.cc_top mics1.data,mics1
	.globl	mics1
	.align	4
	.type	mics1,@object
	.size	mics1, 4
mics1:
	.long	mic_a+16
	.cc_bottom mics1.data
	.section	.dp.bss,"awd",@nobits
	.cc_top far_a.data,far_a
	.globl	far_a.globound
far_a.globound = 2
	.globl	far_a
	.align	8
	.type	far_a,@object
	.size	far_a, 8
far_a:
	.space	8
	.cc_bottom far_a.data
	.section	.dp.data.4,"awd",@progbits
	.cc_top far1.data,far1
	.globl	far1
	.align	4
	.type	far1,@object
	.size	far1, 4
far1:
	.long	far_a+4
	.cc_bottom far1.data
	.cc_top mics.data,mics
	.globl	mics
	.align	4
	.type	mics,@object
	.size	mics, 4
mics:
	.long	mic_a
	.cc_bottom mics.data
	.cc_top far.data,far
	.globl	far
	.align	4
	.type	far,@object
	.size	far, 4
far:
	.long	far_a
	.cc_bottom far.data
	.section	.dp.bss,"awd",@nobits
	.cc_top nl_model.data,nl_model
	.globl	nl_model.globound
nl_model.globound = 256
	.globl	nl_model
	.align	8
	.type	nl_model,@object
	.size	nl_model, 1024
nl_model:
	.space	1024
	.cc_bottom nl_model.data
	.section	.dp.bss.4,"awd",@nobits
	.cc_top aec_ap.data,aec_ap
	.globl	aec_ap
	.align	4
	.type	aec_ap,@object
	.size	aec_ap, 4
aec_ap:
	.long	0
	.cc_bottom aec_ap.data
	.cc_top bap_ap.data,bap_ap
	.globl	bap_ap
	.align	4
	.type	bap_ap,@object
	.size	bap_ap, 4
bap_ap:
	.long	0
	.cc_bottom bap_ap.data
	.cc_top q.data,q
	.globl	q
	.align	4
	.type	q,@object
	.size	q, 4
q:
	.long	0
	.cc_bottom q.data
	.section	.dp.data.4,"awd",@progbits
	.cc_top BeClear_AMBIPHONE_WriteOutput.writeBuffNo.data,BeClear_AMBIPHONE_WriteOutput.writeBuffNo
	.align	4
	.type	BeClear_AMBIPHONE_WriteOutput.writeBuffNo,@object
	.size	BeClear_AMBIPHONE_WriteOutput.writeBuffNo, 4
BeClear_AMBIPHONE_WriteOutput.writeBuffNo:
	.long	2
	.cc_bottom BeClear_AMBIPHONE_WriteOutput.writeBuffNo.data
	.section	.dp.bss,"awd",@nobits
	.cc_top q_a.data,q_a
	.globl	q_a.globound
q_a.globound = 3
	.globl	q_a
	.align	8
	.type	q_a,@object
	.size	q_a, 24
q_a:
	.space	24
	.cc_bottom q_a.data
	.cc_top aec_appl.data,aec_appl
	.globl	aec_appl
	.align	8
	.type	aec_appl,@object
	.size	aec_appl, 131880
aec_appl:
	.space	131880
	.cc_bottom aec_appl.data
	.section	.cp.rodata.string,"aMSc",@progbits
	.cc_top .L.str1.data,.L.str1
	.align	4
	.type	.L.str1,@object
	.size	.L.str1, 5
.L.str1:
.asciiz"AEC0"
	.cc_bottom .L.str1.data
	.cc_top .L.str2.data,.L.str2
	.align	4
	.type	.L.str2,@object
	.size	.L.str2, 5
.L.str2:
.asciiz"AEC1"
	.cc_bottom .L.str2.data
	.cc_top .L.str3.data,.L.str3
	.align	4
	.type	.L.str3,@object
	.size	.L.str3, 5
.L.str3:
.asciiz"AEC2"
	.cc_bottom .L.str3.data
	.section	.dp.bss.4,"awd",@nobits
	.cc_top aecfreezeonoff.data,aecfreezeonoff
	.globl	aecfreezeonoff
	.align	4
	.type	aecfreezeonoff,@object
	.size	aecfreezeonoff, 4
aecfreezeonoff:
	.long	0
	.cc_bottom aecfreezeonoff.data
	.section	.dp.bss,"awd",@nobits
	.cc_top aecnorm.data,aecnorm
	.globl	aecnorm
	.align	8
	.type	aecnorm,@object
	.size	aecnorm, 8
aecnorm:
	.long	0
	.long	0
	.cc_bottom aecnorm.data
	.section	.dp.bss.4,"awd",@nobits
	.cc_top aecpathchange.data,aecpathchange
	.globl	aecpathchange
	.align	4
	.type	aecpathchange,@object
	.size	aecpathchange, 4
aecpathchange:
	.long	0
	.cc_bottom aecpathchange.data
	.section	.dp.bss,"awd",@nobits
	.cc_top rt60.data,rt60
	.globl	rt60
	.align	8
	.type	rt60,@object
	.size	rt60, 8
rt60:
	.long	0
	.long	0
	.cc_bottom rt60.data
	.section	.dp.bss.4,"awd",@nobits
	.cc_top hpfonoff.data,hpfonoff
	.globl	hpfonoff
	.align	4
	.type	hpfonoff,@object
	.size	hpfonoff, 4
hpfonoff:
	.long	0
	.cc_bottom hpfonoff.data
	.cc_top rt60onoff.data,rt60onoff
	.globl	rt60onoff
	.align	4
	.type	rt60onoff,@object
	.size	rt60onoff, 4
rt60onoff:
	.long	0
	.cc_bottom rt60onoff.data
	.section	.dp.bss,"awd",@nobits
	.cc_top aecsilencelevel.data,aecsilencelevel
	.globl	aecsilencelevel
	.align	8
	.type	aecsilencelevel,@object
	.size	aecsilencelevel, 8
aecsilencelevel:
	.long	0
	.long	0
	.cc_bottom aecsilencelevel.data
	.section	.dp.bss.4,"awd",@nobits
	.cc_top aecsilencemode.data,aecsilencemode
	.globl	aecsilencemode
	.align	4
	.type	aecsilencemode,@object
	.size	aecsilencemode, 4
aecsilencemode:
	.long	0
	.cc_bottom aecsilencemode.data
	.cc_top profilingonoff.data,profilingonoff
	.globl	profilingonoff
	.align	4
	.type	profilingonoff,@object
	.size	profilingonoff, 4
profilingonoff:
	.long	0
	.cc_bottom profilingonoff.data
	.section	.dp.bss,"awd",@nobits
	.cc_top x_mics.data,x_mics
	.globl	x_mics.globound
x_mics.globound = 2
	.globl	x_mics
	.align	8
	.type	x_mics,@object
	.size	x_mics, 8320
x_mics:
	.space	8320
	.cc_bottom x_mics.data
	.cc_top x_far.data,x_far
	.globl	x_far.globound
x_far.globound = 2
	.globl	x_far
	.align	8
	.type	x_far,@object
	.size	x_far, 2080
x_far:
	.space	2080
	.cc_bottom x_far.data
	.section	.cp.rodata.string,"aMSc",@progbits
	.cc_top .L.str4.data,.L.str4
	.align	4
	.type	.L.str4,@object
	.size	.L.str4, 10
.L.str4:
.asciiz"AEC cmem0"
	.cc_bottom .L.str4.data
	.cc_top .L.str5.data,.L.str5
	.align	4
	.type	.L.str5,@object
	.size	.L.str5, 10
.L.str5:
.asciiz"AEC tmem0"
	.cc_bottom .L.str5.data
	.cc_top .L.str6.data,.L.str6
	.align	4
	.type	.L.str6,@object
	.size	.L.str6, 10
.L.str6:
.asciiz"AEC cmem1"
	.cc_bottom .L.str6.data
	.cc_top .L.str7.data,.L.str7
	.align	4
	.type	.L.str7,@object
	.size	.L.str7, 10
.L.str7:
.asciiz"AEC tmem1"
	.cc_bottom .L.str7.data
	.cc_top .L.str8.data,.L.str8
	.align	4
	.type	.L.str8,@object
	.size	.L.str8, 10
.L.str8:
.asciiz"AEC cmem2"
	.cc_bottom .L.str8.data
	.cc_top .L.str9.data,.L.str9
	.align	4
	.type	.L.str9,@object
	.size	.L.str9, 10
.L.str9:
.asciiz"AEC tmem2"
	.cc_bottom .L.str9.data
	.section	.dp.bss,"awd",@nobits
	.cc_top bap_appl.data,bap_appl
	.globl	bap_appl
	.align	8
	.type	bap_appl,@object
	.size	bap_appl, 66688
bap_appl:
	.space	66688
	.cc_bottom bap_appl.data
	.section	.cp.rodata.string,"aMSc",@progbits
	.cc_top .L.str10.data,.L.str10
	.align	4
	.type	.L.str10,@object
	.size	.L.str10, 5
.L.str10:
.asciiz"BAP0"
	.cc_bottom .L.str10.data
	.cc_top .L.str11.data,.L.str11
	.align	4
	.type	.L.str11,@object
	.size	.L.str11, 5
.L.str11:
.asciiz"BAP1"
	.cc_bottom .L.str11.data
	.section	.dp.bss.4,"awd",@nobits
	.cc_top agconoff.data,agconoff
	.globl	agconoff
	.align	4
	.type	agconoff,@object
	.size	agconoff, 4
agconoff:
	.long	0
	.cc_bottom agconoff.data
	.section	.dp.bss,"awd",@nobits
	.cc_top agcmaxgain.data,agcmaxgain
	.globl	agcmaxgain
	.align	8
	.type	agcmaxgain,@object
	.size	agcmaxgain, 8
agcmaxgain:
	.long	0
	.long	0
	.cc_bottom agcmaxgain.data
	.cc_top agcdesiredlevel.data,agcdesiredlevel
	.globl	agcdesiredlevel
	.align	8
	.type	agcdesiredlevel,@object
	.size	agcdesiredlevel, 8
agcdesiredlevel:
	.long	0
	.long	0
	.cc_bottom agcdesiredlevel.data
	.cc_top agcgain.data,agcgain
	.globl	agcgain
	.align	8
	.type	agcgain,@object
	.size	agcgain, 8
agcgain:
	.long	0
	.long	0
	.cc_bottom agcgain.data
	.cc_top agctime.data,agctime
	.globl	agctime
	.align	8
	.type	agctime,@object
	.size	agctime, 8
agctime:
	.long	0
	.long	0
	.cc_bottom agctime.data
	.section	.dp.bss.4,"awd",@nobits
	.cc_top cnionoff.data,cnionoff
	.globl	cnionoff
	.align	4
	.type	cnionoff,@object
	.size	cnionoff, 4
cnionoff:
	.long	0
	.cc_bottom cnionoff.data
	.cc_top freezeonoff.data,freezeonoff
	.globl	freezeonoff
	.align	4
	.type	freezeonoff,@object
	.size	freezeonoff, 4
freezeonoff:
	.long	0
	.cc_bottom freezeonoff.data
	.cc_top statnoiseonoff.data,statnoiseonoff
	.globl	statnoiseonoff
	.align	4
	.type	statnoiseonoff,@object
	.size	statnoiseonoff, 4
statnoiseonoff:
	.long	0
	.cc_bottom statnoiseonoff.data
	.section	.dp.bss,"awd",@nobits
	.cc_top gamma_ns.data,gamma_ns
	.globl	gamma_ns
	.align	8
	.type	gamma_ns,@object
	.size	gamma_ns, 8
gamma_ns:
	.long	0
	.long	0
	.cc_bottom gamma_ns.data
	.cc_top min_ns.data,min_ns
	.globl	min_ns
	.align	8
	.type	min_ns,@object
	.size	min_ns, 8
min_ns:
	.long	0
	.long	0
	.cc_bottom min_ns.data
	.section	.dp.bss.4,"awd",@nobits
	.cc_top nonstatnoiseonoff.data,nonstatnoiseonoff
	.globl	nonstatnoiseonoff
	.align	4
	.type	nonstatnoiseonoff,@object
	.size	nonstatnoiseonoff, 4
nonstatnoiseonoff:
	.long	0
	.cc_bottom nonstatnoiseonoff.data
	.section	.dp.bss,"awd",@nobits
	.cc_top gamma_nn.data,gamma_nn
	.globl	gamma_nn
	.align	8
	.type	gamma_nn,@object
	.size	gamma_nn, 8
gamma_nn:
	.long	0
	.long	0
	.cc_bottom gamma_nn.data
	.cc_top min_nn.data,min_nn
	.globl	min_nn
	.align	8
	.type	min_nn,@object
	.size	min_nn, 8
min_nn:
	.long	0
	.long	0
	.cc_bottom min_nn.data
	.section	.dp.bss.4,"awd",@nobits
	.cc_top echoonoff.data,echoonoff
	.globl	echoonoff
	.align	4
	.type	echoonoff,@object
	.size	echoonoff, 4
echoonoff:
	.long	0
	.cc_bottom echoonoff.data
	.section	.dp.bss,"awd",@nobits
	.cc_top gamma_e.data,gamma_e
	.globl	gamma_e
	.align	8
	.type	gamma_e,@object
	.size	gamma_e, 8
gamma_e:
	.long	0
	.long	0
	.cc_bottom gamma_e.data
	.cc_top gamma_etail.data,gamma_etail
	.globl	gamma_etail
	.align	8
	.type	gamma_etail,@object
	.size	gamma_etail, 8
gamma_etail:
	.long	0
	.long	0
	.cc_bottom gamma_etail.data
	.cc_top gamma_enl.data,gamma_enl
	.globl	gamma_enl
	.align	8
	.type	gamma_enl,@object
	.size	gamma_enl, 8
gamma_enl:
	.long	0
	.long	0
	.cc_bottom gamma_enl.data
	.section	.dp.bss.4,"awd",@nobits
	.cc_top nlattenonoff.data,nlattenonoff
	.globl	nlattenonoff
	.align	4
	.type	nlattenonoff,@object
	.size	nlattenonoff, 4
nlattenonoff:
	.long	0
	.cc_bottom nlattenonoff.data
	.cc_top nlaec_mode.data,nlaec_mode
	.globl	nlaec_mode
	.align	4
	.type	nlaec_mode,@object
	.size	nlaec_mode, 4
nlaec_mode:
	.long	0
	.cc_bottom nlaec_mode.data
	.cc_top speechdetected.data,speechdetected
	.globl	speechdetected
	.align	4
	.type	speechdetected,@object
	.size	speechdetected, 4
speechdetected:
	.long	0
	.cc_bottom speechdetected.data
	.cc_top fsbupdated.data,fsbupdated
	.globl	fsbupdated
	.align	4
	.type	fsbupdated,@object
	.size	fsbupdated, 4
fsbupdated:
	.long	0
	.cc_bottom fsbupdated.data
	.cc_top fsbpathchange.data,fsbpathchange
	.globl	fsbpathchange
	.align	4
	.type	fsbpathchange,@object
	.size	fsbpathchange, 4
fsbpathchange:
	.long	0
	.cc_bottom fsbpathchange.data
	.cc_top transientonoff.data,transientonoff
	.globl	transientonoff
	.align	4
	.type	transientonoff,@object
	.size	transientonoff, 4
transientonoff:
	.long	0
	.cc_bottom transientonoff.data
	.cc_top voiceactivity.data,voiceactivity
	.globl	voiceactivity
	.align	4
	.type	voiceactivity,@object
	.size	voiceactivity, 4
voiceactivity:
	.long	0
	.cc_bottom voiceactivity.data
	.cc_top sr_statnoiseonoff.data,sr_statnoiseonoff
	.globl	sr_statnoiseonoff
	.align	4
	.type	sr_statnoiseonoff,@object
	.size	sr_statnoiseonoff, 4
sr_statnoiseonoff:
	.long	0
	.cc_bottom sr_statnoiseonoff.data
	.cc_top sr_nonstatnoiseonoff.data,sr_nonstatnoiseonoff
	.globl	sr_nonstatnoiseonoff
	.align	4
	.type	sr_nonstatnoiseonoff,@object
	.size	sr_nonstatnoiseonoff, 4
sr_nonstatnoiseonoff:
	.long	0
	.cc_bottom sr_nonstatnoiseonoff.data
	.section	.dp.bss,"awd",@nobits
	.cc_top sr_gamma_ns.data,sr_gamma_ns
	.globl	sr_gamma_ns
	.align	8
	.type	sr_gamma_ns,@object
	.size	sr_gamma_ns, 8
sr_gamma_ns:
	.long	0
	.long	0
	.cc_bottom sr_gamma_ns.data
	.cc_top sr_gamma_nn.data,sr_gamma_nn
	.globl	sr_gamma_nn
	.align	8
	.type	sr_gamma_nn,@object
	.size	sr_gamma_nn, 8
sr_gamma_nn:
	.long	0
	.long	0
	.cc_bottom sr_gamma_nn.data
	.cc_top sr_min_ns.data,sr_min_ns
	.globl	sr_min_ns
	.align	8
	.type	sr_min_ns,@object
	.size	sr_min_ns, 8
sr_min_ns:
	.long	0
	.long	0
	.cc_bottom sr_min_ns.data
	.cc_top sr_min_nn.data,sr_min_nn
	.globl	sr_min_nn
	.align	8
	.type	sr_min_nn,@object
	.size	sr_min_nn, 8
sr_min_nn:
	.long	0
	.long	0
	.cc_bottom sr_min_nn.data
	.cc_top sr_gamma_vad.data,sr_gamma_vad
	.globl	sr_gamma_vad
	.align	8
	.type	sr_gamma_vad,@object
	.size	sr_gamma_vad, 8
sr_gamma_vad:
	.long	0
	.long	0
	.cc_bottom sr_gamma_vad.data
	.section	.cp.rodata.4,"ac",@progbits
	.cc_top micgeo.data,micgeo
	.align	4
	.type	micgeo,@object
	.size	micgeo, 48
micgeo:
	.long	0
	.long	75
	.long	0
	.long	43
	.long	75
	.long	0
	.long	43
	.long	0
	.long	0
	.long	0
	.long	0
	.long	0
	.cc_bottom micgeo.data
	.section	.dp.bss,"awd",@nobits
	.cc_top x_q.data,x_q
	.globl	x_q.globound
x_q.globound = 3
	.globl	x_q
	.align	8
	.type	x_q,@object
	.size	x_q, 6240
x_q:
	.space	6240
	.cc_bottom x_q.data
	.section	.cp.rodata.string,"aMSc",@progbits
	.cc_top .L.str12.data,.L.str12
	.align	4
	.type	.L.str12,@object
	.size	.L.str12, 10
.L.str12:
.asciiz"BAP cmem0"
	.cc_bottom .L.str12.data
	.cc_top .L.str13.data,.L.str13
	.align	4
	.type	.L.str13,@object
	.size	.L.str13, 10
.L.str13:
.asciiz"BAP tmem0"
	.cc_bottom .L.str13.data
	.cc_top .L.str14.data,.L.str14
	.align	4
	.type	.L.str14,@object
	.size	.L.str14, 10
.L.str14:
.asciiz"BAP cmem1"
	.cc_bottom .L.str14.data
	.cc_top .L.str15.data,.L.str15
	.align	4
	.type	.L.str15,@object
	.size	.L.str15, 10
.L.str15:
.asciiz"BAP tmem1"
	.cc_bottom .L.str15.data
	.section	.dp.bss,"awd",@nobits
	.cc_top td_doa0.data,td_doa0
	.globl	td_doa0
	.align	8
	.type	td_doa0,@object
	.size	td_doa0, 8
td_doa0:
	.long	0
	.long	0
	.cc_bottom td_doa0.data
	.cc_top td_doa1.data,td_doa1
	.globl	td_doa1
	.align	8
	.type	td_doa1,@object
	.size	td_doa1, 8
td_doa1:
	.long	0
	.long	0
	.cc_bottom td_doa1.data
	.section	.cp.rodata.string,"aMSc",@progbits
	.cc_top .L.str16.data,.L.str16
	.align	4
	.type	.L.str16,@object
	.size	.L.str16, 4
.L.str16:
.asciiz" = "
	.cc_bottom .L.str16.data
	.cc_top .L.str17.data,.L.str17
	.align	4
	.type	.L.str17,@object
	.size	.L.str17, 8
.L.str17:
.asciiz" bytes\n"
	.cc_bottom .L.str17.data
	.section	.dp.bss,"awd",@nobits
	.cc_top beamwidth.data,beamwidth
	.globl	beamwidth
	.align	8
	.type	beamwidth,@object
	.size	beamwidth, 8
beamwidth:
	.long	0
	.long	0
	.cc_bottom beamwidth.data
	.cc_top beamangle.data,beamangle
	.globl	beamangle
	.align	8
	.type	beamangle,@object
	.size	beamangle, 8
beamangle:
	.long	0
	.long	0
	.cc_bottom beamangle.data
	.section	.cp.rodata.4,"ac",@progbits
.Ldebug_end0:
	.section	.dp.bss.4,"awd",@nobits
.Ldebug_end1:
	.section	.dp.bss,"awd",@nobits
.Ldebug_end2:
	.section	.dp.data.4,"awd",@progbits
.Ldebug_end3:
	.text
.Ldebug_end4:
	.section	.trap_info,"",@progbits
.Ltrap_info_entries_start0:
	.long	.Ltrap_info_entries_end0-.Ltrap_info_entries_start0
	.long	1
.Ltrap_info_entries_end0: