	.text
	.file	"C:/Users/user/workspace/module_vocalfusion/src/beclear_int.xc"
                                        # Start of file scope inline assembly
	.inline_definition delay_seconds
	.inline_definition delay_milliseconds
	.inline_definition delay_microseconds
	.inline_definition _safe_memcmp
	.inline_definition _safe_memmove
	.inline_definition _safe_memset
	.inline_definition __i_i2c_master_if_read_reg
	.inline_definition __i_i2c_master_if_write_reg
	.inline_definition __i_i2c_master_if_read_reg8_addr16
	.inline_definition __i_i2c_master_if_write_reg8_addr16
	.inline_definition __i_i2c_master_if_read_reg16
	.inline_definition __i_i2c_master_if_write_reg16
	.inline_definition __i_i2c_master_if_read_reg16_addr8
	.inline_definition __i_i2c_master_if_write_reg16_addr8
	.inline_definition dsp_math_cos
	.inline_definition dsp_math_sinh
	.inline_definition dsp_math_cosh
	.set BeclearBuff.select.0.enable.savedstate,6
	.globl BeclearBuff.select.0.enable.savedstate
	.set BeclearBuff.select.0.enable.cases.maxtimers,0 $M BeclearBuff.select.0.case.0.maxtimers
	.globl BeclearBuff.select.0.enable.cases.maxtimers
	.set BeclearBuff.select.0.enable.cases.maxcores,0 $M BeclearBuff.select.0.case.0.maxcores
	.globl BeclearBuff.select.0.enable.cases.maxcores
	.set BeclearBuff.select.0.enable.cases.maxchanends,0 $M BeclearBuff.select.0.case.0.maxchanends
	.globl BeclearBuff.select.0.enable.cases.maxchanends
	.set BeclearBuff.select.0.enable.cases,0
	.globl BeclearBuff.select.0.enable.cases
	.set BeclearBuff.select.0.enable.cases.nstackwords, 0 $M (BeclearBuff.select.0.case.0.nstackwords)
	.globl BeclearBuff.select.0.enable.cases.nstackwords
	.set BeclearBuff.dynalloc_maxchanends, 0
	.globl BeclearBuff.dynalloc_maxchanends
	.set BeclearBuff.dynalloc_maxcores, 0
	.globl BeclearBuff.dynalloc_maxcores
	.set BeclearBuff.dynalloc_maxtimers, 0
	.globl BeclearBuff.dynalloc_maxtimers
	.set BeclearBuff.init.0.savedstate,6
	.globl BeclearBuff.init.0.savedstate
	.set BeclearBuff.select.yield.enable.savedstate,6
	.globl BeclearBuff.select.yield.enable.savedstate
	.set BeclearBuff.select.yield.enable.cases.maxtimers,0 $M BeclearBuff.select.yield.case.0.maxtimers
	.globl BeclearBuff.select.yield.enable.cases.maxtimers
	.set BeclearBuff.select.yield.enable.cases.maxcores,0 $M BeclearBuff.select.yield.case.0.maxcores
	.globl BeclearBuff.select.yield.enable.cases.maxcores
	.set BeclearBuff.select.yield.enable.cases.maxchanends,0 $M BeclearBuff.select.yield.case.0.maxchanends
	.globl BeclearBuff.select.yield.enable.cases.maxchanends
	.set BeclearBuff.select.yield.enable.cases,0
	.globl BeclearBuff.select.yield.enable.cases
	.set BeclearBuff.select.yield.enable.cases.nstackwords, 0 $M (BeclearBuff.select.yield.case.0.nstackwords)
	.globl BeclearBuff.select.yield.enable.cases.nstackwords
	.set BeclearBuff.select.enable.savedstate,6
	.globl BeclearBuff.select.enable.savedstate
	.set BeclearBuff.select.enable.cases.maxtimers,0 $M BeclearBuff.select.case.0.maxtimers
	.globl BeclearBuff.select.enable.cases.maxtimers
	.set BeclearBuff.select.enable.cases.maxcores,0 $M BeclearBuff.select.case.0.maxcores
	.globl BeclearBuff.select.enable.cases.maxcores
	.set BeclearBuff.select.enable.cases.maxchanends,0 $M BeclearBuff.select.case.0.maxchanends
	.globl BeclearBuff.select.enable.cases.maxchanends
	.set BeclearBuff.select.enable.cases,0
	.globl BeclearBuff.select.enable.cases
	.set BeclearBuff.select.enable.cases.nstackwords, 0 $M (BeclearBuff.select.case.0.nstackwords)
	.globl BeclearBuff.select.enable.cases.nstackwords
	.set _SBeclearBuff_0.select.0.enable.savedstate,6
	.globl _SBeclearBuff_0.select.0.enable.savedstate
	.set _SBeclearBuff_0.select.0.enable.cases.maxtimers,0 $M _SBeclearBuff_0.select.0.case.0.maxtimers
	.globl _SBeclearBuff_0.select.0.enable.cases.maxtimers
	.set _SBeclearBuff_0.select.0.enable.cases.maxcores,0 $M _SBeclearBuff_0.select.0.case.0.maxcores
	.globl _SBeclearBuff_0.select.0.enable.cases.maxcores
	.set _SBeclearBuff_0.select.0.enable.cases.maxchanends,0 $M _SBeclearBuff_0.select.0.case.0.maxchanends
	.globl _SBeclearBuff_0.select.0.enable.cases.maxchanends
	.set _SBeclearBuff_0.select.0.enable.cases,0
	.globl _SBeclearBuff_0.select.0.enable.cases
	.set _SBeclearBuff_0.select.0.enable.cases.nstackwords, 0 $M (_SBeclearBuff_0.select.0.case.0.nstackwords)
	.globl _SBeclearBuff_0.select.0.enable.cases.nstackwords
	.set _SBeclearBuff_0.dynalloc_maxchanends, 0
	.globl _SBeclearBuff_0.dynalloc_maxchanends
	.set _SBeclearBuff_0.dynalloc_maxcores, 0
	.globl _SBeclearBuff_0.dynalloc_maxcores
	.set _SBeclearBuff_0.dynalloc_maxtimers, 0
	.globl _SBeclearBuff_0.dynalloc_maxtimers
	.set _SBeclearBuff_0.init.0.savedstate,6
	.globl _SBeclearBuff_0.init.0.savedstate
	.set _SBeclearBuff_0.select.yield.enable.savedstate,6
	.globl _SBeclearBuff_0.select.yield.enable.savedstate
	.set _SBeclearBuff_0.select.yield.enable.cases.maxtimers,0 $M _SBeclearBuff_0.select.yield.case.0.maxtimers
	.globl _SBeclearBuff_0.select.yield.enable.cases.maxtimers
	.set _SBeclearBuff_0.select.yield.enable.cases.maxcores,0 $M _SBeclearBuff_0.select.yield.case.0.maxcores
	.globl _SBeclearBuff_0.select.yield.enable.cases.maxcores
	.set _SBeclearBuff_0.select.yield.enable.cases.maxchanends,0 $M _SBeclearBuff_0.select.yield.case.0.maxchanends
	.globl _SBeclearBuff_0.select.yield.enable.cases.maxchanends
	.set _SBeclearBuff_0.select.yield.enable.cases,0
	.globl _SBeclearBuff_0.select.yield.enable.cases
	.set _SBeclearBuff_0.select.yield.enable.cases.nstackwords, 0 $M (_SBeclearBuff_0.select.yield.case.0.nstackwords)
	.globl _SBeclearBuff_0.select.yield.enable.cases.nstackwords
	.set _SBeclearBuff_0.select.enable.savedstate,6
	.globl _SBeclearBuff_0.select.enable.savedstate
	.set _SBeclearBuff_0.select.enable.cases.maxtimers,0 $M _SBeclearBuff_0.select.case.0.maxtimers
	.globl _SBeclearBuff_0.select.enable.cases.maxtimers
	.set _SBeclearBuff_0.select.enable.cases.maxcores,0 $M _SBeclearBuff_0.select.case.0.maxcores
	.globl _SBeclearBuff_0.select.enable.cases.maxcores
	.set _SBeclearBuff_0.select.enable.cases.maxchanends,0 $M _SBeclearBuff_0.select.case.0.maxchanends
	.globl _SBeclearBuff_0.select.enable.cases.maxchanends
	.set _SBeclearBuff_0.select.enable.cases,0
	.globl _SBeclearBuff_0.select.enable.cases
	.set _SBeclearBuff_0.select.enable.cases.nstackwords, 0 $M (_SBeclearBuff_0.select.case.0.nstackwords)
	.globl _SBeclearBuff_0.select.enable.cases.nstackwords
	.weak _i.i2c_slave_callback_if.start_read_request.maxchanends.group
	.max_reduce _i.i2c_slave_callback_if.start_read_request.max.maxchanends, _i.i2c_slave_callback_if.start_read_request.maxchanends.group, 0
	.weak _i.i2c_slave_callback_if.start_read_request.maxcores.group
	.max_reduce _i.i2c_slave_callback_if.start_read_request.max.maxcores, _i.i2c_slave_callback_if.start_read_request.maxcores.group, 0
	.weak _i.i2c_slave_callback_if.start_read_request.maxtimers.group
	.max_reduce _i.i2c_slave_callback_if.start_read_request.max.maxtimers, _i.i2c_slave_callback_if.start_read_request.maxtimers.group, 0
	.weak _i.i2c_slave_callback_if.start_read_request.nstackwords.group
	.globl _i.i2c_slave_callback_if.start_read_request.nstackwords.group
	.weak _i.i2c_slave_callback_if.start_read_request.fns.group
	.globl _i.i2c_slave_callback_if.start_read_request.fns.group
	.max_reduce _i.i2c_slave_callback_if.start_read_request.max.nstackwords, _i.i2c_slave_callback_if.start_read_request.nstackwords.group, 0
	.max_reduce _i.i2c_slave_callback_if.start_read_request.fns, _i.i2c_slave_callback_if.start_read_request.fns.group, 0
	.weak _i.i2c_slave_callback_if.ack_read_request.maxchanends.group
	.max_reduce _i.i2c_slave_callback_if.ack_read_request.max.maxchanends, _i.i2c_slave_callback_if.ack_read_request.maxchanends.group, 0
	.weak _i.i2c_slave_callback_if.ack_read_request.maxcores.group
	.max_reduce _i.i2c_slave_callback_if.ack_read_request.max.maxcores, _i.i2c_slave_callback_if.ack_read_request.maxcores.group, 0
	.weak _i.i2c_slave_callback_if.ack_read_request.maxtimers.group
	.max_reduce _i.i2c_slave_callback_if.ack_read_request.max.maxtimers, _i.i2c_slave_callback_if.ack_read_request.maxtimers.group, 0
	.weak _i.i2c_slave_callback_if.ack_read_request.nstackwords.group
	.globl _i.i2c_slave_callback_if.ack_read_request.nstackwords.group
	.weak _i.i2c_slave_callback_if.ack_read_request.fns.group
	.globl _i.i2c_slave_callback_if.ack_read_request.fns.group
	.max_reduce _i.i2c_slave_callback_if.ack_read_request.max.nstackwords, _i.i2c_slave_callback_if.ack_read_request.nstackwords.group, 0
	.max_reduce _i.i2c_slave_callback_if.ack_read_request.fns, _i.i2c_slave_callback_if.ack_read_request.fns.group, 0
	.weak _i.i2c_slave_callback_if.start_write_request.maxchanends.group
	.max_reduce _i.i2c_slave_callback_if.start_write_request.max.maxchanends, _i.i2c_slave_callback_if.start_write_request.maxchanends.group, 0
	.weak _i.i2c_slave_callback_if.start_write_request.maxcores.group
	.max_reduce _i.i2c_slave_callback_if.start_write_request.max.maxcores, _i.i2c_slave_callback_if.start_write_request.maxcores.group, 0
	.weak _i.i2c_slave_callback_if.start_write_request.maxtimers.group
	.max_reduce _i.i2c_slave_callback_if.start_write_request.max.maxtimers, _i.i2c_slave_callback_if.start_write_request.maxtimers.group, 0
	.weak _i.i2c_slave_callback_if.start_write_request.nstackwords.group
	.globl _i.i2c_slave_callback_if.start_write_request.nstackwords.group
	.weak _i.i2c_slave_callback_if.start_write_request.fns.group
	.globl _i.i2c_slave_callback_if.start_write_request.fns.group
	.max_reduce _i.i2c_slave_callback_if.start_write_request.max.nstackwords, _i.i2c_slave_callback_if.start_write_request.nstackwords.group, 0
	.max_reduce _i.i2c_slave_callback_if.start_write_request.fns, _i.i2c_slave_callback_if.start_write_request.fns.group, 0
	.weak _i.i2c_slave_callback_if.ack_write_request.maxchanends.group
	.max_reduce _i.i2c_slave_callback_if.ack_write_request.max.maxchanends, _i.i2c_slave_callback_if.ack_write_request.maxchanends.group, 0
	.weak _i.i2c_slave_callback_if.ack_write_request.maxcores.group
	.max_reduce _i.i2c_slave_callback_if.ack_write_request.max.maxcores, _i.i2c_slave_callback_if.ack_write_request.maxcores.group, 0
	.weak _i.i2c_slave_callback_if.ack_write_request.maxtimers.group
	.max_reduce _i.i2c_slave_callback_if.ack_write_request.max.maxtimers, _i.i2c_slave_callback_if.ack_write_request.maxtimers.group, 0
	.weak _i.i2c_slave_callback_if.ack_write_request.nstackwords.group
	.globl _i.i2c_slave_callback_if.ack_write_request.nstackwords.group
	.weak _i.i2c_slave_callback_if.ack_write_request.fns.group
	.globl _i.i2c_slave_callback_if.ack_write_request.fns.group
	.max_reduce _i.i2c_slave_callback_if.ack_write_request.max.nstackwords, _i.i2c_slave_callback_if.ack_write_request.nstackwords.group, 0
	.max_reduce _i.i2c_slave_callback_if.ack_write_request.fns, _i.i2c_slave_callback_if.ack_write_request.fns.group, 0
	.weak _i.i2c_slave_callback_if.start_master_read.maxchanends.group
	.max_reduce _i.i2c_slave_callback_if.start_master_read.max.maxchanends, _i.i2c_slave_callback_if.start_master_read.maxchanends.group, 0
	.weak _i.i2c_slave_callback_if.start_master_read.maxcores.group
	.max_reduce _i.i2c_slave_callback_if.start_master_read.max.maxcores, _i.i2c_slave_callback_if.start_master_read.maxcores.group, 0
	.weak _i.i2c_slave_callback_if.start_master_read.maxtimers.group
	.max_reduce _i.i2c_slave_callback_if.start_master_read.max.maxtimers, _i.i2c_slave_callback_if.start_master_read.maxtimers.group, 0
	.weak _i.i2c_slave_callback_if.start_master_read.nstackwords.group
	.globl _i.i2c_slave_callback_if.start_master_read.nstackwords.group
	.weak _i.i2c_slave_callback_if.start_master_read.fns.group
	.globl _i.i2c_slave_callback_if.start_master_read.fns.group
	.max_reduce _i.i2c_slave_callback_if.start_master_read.max.nstackwords, _i.i2c_slave_callback_if.start_master_read.nstackwords.group, 0
	.max_reduce _i.i2c_slave_callback_if.start_master_read.fns, _i.i2c_slave_callback_if.start_master_read.fns.group, 0
	.weak _i.i2c_slave_callback_if.master_requires_data.maxchanends.group
	.max_reduce _i.i2c_slave_callback_if.master_requires_data.max.maxchanends, _i.i2c_slave_callback_if.master_requires_data.maxchanends.group, 0
	.weak _i.i2c_slave_callback_if.master_requires_data.maxcores.group
	.max_reduce _i.i2c_slave_callback_if.master_requires_data.max.maxcores, _i.i2c_slave_callback_if.master_requires_data.maxcores.group, 0
	.weak _i.i2c_slave_callback_if.master_requires_data.maxtimers.group
	.max_reduce _i.i2c_slave_callback_if.master_requires_data.max.maxtimers, _i.i2c_slave_callback_if.master_requires_data.maxtimers.group, 0
	.weak _i.i2c_slave_callback_if.master_requires_data.nstackwords.group
	.globl _i.i2c_slave_callback_if.master_requires_data.nstackwords.group
	.weak _i.i2c_slave_callback_if.master_requires_data.fns.group
	.globl _i.i2c_slave_callback_if.master_requires_data.fns.group
	.max_reduce _i.i2c_slave_callback_if.master_requires_data.max.nstackwords, _i.i2c_slave_callback_if.master_requires_data.nstackwords.group, 0
	.max_reduce _i.i2c_slave_callback_if.master_requires_data.fns, _i.i2c_slave_callback_if.master_requires_data.fns.group, 0
	.weak _i.i2c_slave_callback_if.start_master_write.maxchanends.group
	.max_reduce _i.i2c_slave_callback_if.start_master_write.max.maxchanends, _i.i2c_slave_callback_if.start_master_write.maxchanends.group, 0
	.weak _i.i2c_slave_callback_if.start_master_write.maxcores.group
	.max_reduce _i.i2c_slave_callback_if.start_master_write.max.maxcores, _i.i2c_slave_callback_if.start_master_write.maxcores.group, 0
	.weak _i.i2c_slave_callback_if.start_master_write.maxtimers.group
	.max_reduce _i.i2c_slave_callback_if.start_master_write.max.maxtimers, _i.i2c_slave_callback_if.start_master_write.maxtimers.group, 0
	.weak _i.i2c_slave_callback_if.start_master_write.nstackwords.group
	.globl _i.i2c_slave_callback_if.start_master_write.nstackwords.group
	.weak _i.i2c_slave_callback_if.start_master_write.fns.group
	.globl _i.i2c_slave_callback_if.start_master_write.fns.group
	.max_reduce _i.i2c_slave_callback_if.start_master_write.max.nstackwords, _i.i2c_slave_callback_if.start_master_write.nstackwords.group, 0
	.max_reduce _i.i2c_slave_callback_if.start_master_write.fns, _i.i2c_slave_callback_if.start_master_write.fns.group, 0
	.weak _i.i2c_slave_callback_if.master_sent_data.maxchanends.group
	.max_reduce _i.i2c_slave_callback_if.master_sent_data.max.maxchanends, _i.i2c_slave_callback_if.master_sent_data.maxchanends.group, 0
	.weak _i.i2c_slave_callback_if.master_sent_data.maxcores.group
	.max_reduce _i.i2c_slave_callback_if.master_sent_data.max.maxcores, _i.i2c_slave_callback_if.master_sent_data.maxcores.group, 0
	.weak _i.i2c_slave_callback_if.master_sent_data.maxtimers.group
	.max_reduce _i.i2c_slave_callback_if.master_sent_data.max.maxtimers, _i.i2c_slave_callback_if.master_sent_data.maxtimers.group, 0
	.weak _i.i2c_slave_callback_if.master_sent_data.nstackwords.group
	.globl _i.i2c_slave_callback_if.master_sent_data.nstackwords.group
	.weak _i.i2c_slave_callback_if.master_sent_data.fns.group
	.globl _i.i2c_slave_callback_if.master_sent_data.fns.group
	.max_reduce _i.i2c_slave_callback_if.master_sent_data.max.nstackwords, _i.i2c_slave_callback_if.master_sent_data.nstackwords.group, 0
	.max_reduce _i.i2c_slave_callback_if.master_sent_data.fns, _i.i2c_slave_callback_if.master_sent_data.fns.group, 0
	.weak _i.i2c_slave_callback_if.stop_bit.maxchanends.group
	.max_reduce _i.i2c_slave_callback_if.stop_bit.max.maxchanends, _i.i2c_slave_callback_if.stop_bit.maxchanends.group, 0
	.weak _i.i2c_slave_callback_if.stop_bit.maxcores.group
	.max_reduce _i.i2c_slave_callback_if.stop_bit.max.maxcores, _i.i2c_slave_callback_if.stop_bit.maxcores.group, 0
	.weak _i.i2c_slave_callback_if.stop_bit.maxtimers.group
	.max_reduce _i.i2c_slave_callback_if.stop_bit.max.maxtimers, _i.i2c_slave_callback_if.stop_bit.maxtimers.group, 0
	.weak _i.i2c_slave_callback_if.stop_bit.nstackwords.group
	.globl _i.i2c_slave_callback_if.stop_bit.nstackwords.group
	.weak _i.i2c_slave_callback_if.stop_bit.fns.group
	.globl _i.i2c_slave_callback_if.stop_bit.fns.group
	.max_reduce _i.i2c_slave_callback_if.stop_bit.max.nstackwords, _i.i2c_slave_callback_if.stop_bit.nstackwords.group, 0
	.max_reduce _i.i2c_slave_callback_if.stop_bit.fns, _i.i2c_slave_callback_if.stop_bit.fns.group, 0
	.weak _i.i2c_slave_callback_if.__interface_init.maxchanends.group
	.max_reduce _i.i2c_slave_callback_if.__interface_init.max.maxchanends, _i.i2c_slave_callback_if.__interface_init.maxchanends.group, 0
	.weak _i.i2c_slave_callback_if.__interface_init.maxcores.group
	.max_reduce _i.i2c_slave_callback_if.__interface_init.max.maxcores, _i.i2c_slave_callback_if.__interface_init.maxcores.group, 0
	.weak _i.i2c_slave_callback_if.__interface_init.maxtimers.group
	.max_reduce _i.i2c_slave_callback_if.__interface_init.max.maxtimers, _i.i2c_slave_callback_if.__interface_init.maxtimers.group, 0
	.weak _i.i2c_slave_callback_if.__interface_init.nstackwords.group
	.globl _i.i2c_slave_callback_if.__interface_init.nstackwords.group
	.weak _i.i2c_slave_callback_if.__interface_init.fns.group
	.globl _i.i2c_slave_callback_if.__interface_init.fns.group
	.max_reduce _i.i2c_slave_callback_if.__interface_init.max.nstackwords, _i.i2c_slave_callback_if.__interface_init.nstackwords.group, 0
	.max_reduce _i.i2c_slave_callback_if.__interface_init.fns, _i.i2c_slave_callback_if.__interface_init.fns.group, 0
	.weak _i.i2c_slave_callback_if._client_call_y.maxchanends.group
	.add_to_set _i.i2c_slave_callback_if._client_call_y.maxchanends.group, (__interface_client_call_y_other.maxchanends + __interface_client_call_y_extra.maxchanends), __interface_client_call_y_other
	.max_reduce _i.i2c_slave_callback_if._client_call_y.max.maxchanends, _i.i2c_slave_callback_if._client_call_y.maxchanends.group, 0
	.weak _i.i2c_slave_callback_if._client_call_y.maxcores.group
	.add_to_set _i.i2c_slave_callback_if._client_call_y.maxcores.group, (__interface_client_call_y_other.maxcores + __interface_client_call_y_extra.maxcores), __interface_client_call_y_other
	.max_reduce _i.i2c_slave_callback_if._client_call_y.max.maxcores, _i.i2c_slave_callback_if._client_call_y.maxcores.group, 0
	.weak _i.i2c_slave_callback_if._client_call_y.maxtimers.group
	.add_to_set _i.i2c_slave_callback_if._client_call_y.maxtimers.group, (__interface_client_call_y_other.maxtimers + __interface_client_call_y_extra.maxtimers), __interface_client_call_y_other
	.max_reduce _i.i2c_slave_callback_if._client_call_y.max.maxtimers, _i.i2c_slave_callback_if._client_call_y.maxtimers.group, 0
	.weak _i.i2c_slave_callback_if._client_call_y.nstackwords.group
	.globl _i.i2c_slave_callback_if._client_call_y.nstackwords.group
	.weak _i.i2c_slave_callback_if._client_call_y.fns.group
	.globl _i.i2c_slave_callback_if._client_call_y.fns.group
	.add_to_set _i.i2c_slave_callback_if._client_call_y.nstackwords.group, (__interface_client_call_y_other.nstackwords + __interface_client_call_y_extra.nstackwords), __interface_client_call_y_other
	.add_to_set _i.i2c_slave_callback_if._client_call_y.fns.group, __interface_client_call_y_other, __interface_client_call_y_other
	.max_reduce _i.i2c_slave_callback_if._client_call_y.max.nstackwords, _i.i2c_slave_callback_if._client_call_y.nstackwords.group, 0
	.max_reduce _i.i2c_slave_callback_if._client_call_y.fns, _i.i2c_slave_callback_if._client_call_y.fns.group, 0
	.weak _i.i2c_master_async_if.write.maxchanends.group
	.max_reduce _i.i2c_master_async_if.write.max.maxchanends, _i.i2c_master_async_if.write.maxchanends.group, 0
	.weak _i.i2c_master_async_if.write.maxcores.group
	.max_reduce _i.i2c_master_async_if.write.max.maxcores, _i.i2c_master_async_if.write.maxcores.group, 0
	.weak _i.i2c_master_async_if.write.maxtimers.group
	.max_reduce _i.i2c_master_async_if.write.max.maxtimers, _i.i2c_master_async_if.write.maxtimers.group, 0
	.weak _i.i2c_master_async_if.write.nstackwords.group
	.globl _i.i2c_master_async_if.write.nstackwords.group
	.weak _i.i2c_master_async_if.write.fns.group
	.globl _i.i2c_master_async_if.write.fns.group
	.max_reduce _i.i2c_master_async_if.write.max.nstackwords, _i.i2c_master_async_if.write.nstackwords.group, 0
	.max_reduce _i.i2c_master_async_if.write.fns, _i.i2c_master_async_if.write.fns.group, 0
	.weak _i.i2c_master_async_if.read.maxchanends.group
	.max_reduce _i.i2c_master_async_if.read.max.maxchanends, _i.i2c_master_async_if.read.maxchanends.group, 0
	.weak _i.i2c_master_async_if.read.maxcores.group
	.max_reduce _i.i2c_master_async_if.read.max.maxcores, _i.i2c_master_async_if.read.maxcores.group, 0
	.weak _i.i2c_master_async_if.read.maxtimers.group
	.max_reduce _i.i2c_master_async_if.read.max.maxtimers, _i.i2c_master_async_if.read.maxtimers.group, 0
	.weak _i.i2c_master_async_if.read.nstackwords.group
	.globl _i.i2c_master_async_if.read.nstackwords.group
	.weak _i.i2c_master_async_if.read.fns.group
	.globl _i.i2c_master_async_if.read.fns.group
	.max_reduce _i.i2c_master_async_if.read.max.nstackwords, _i.i2c_master_async_if.read.nstackwords.group, 0
	.max_reduce _i.i2c_master_async_if.read.fns, _i.i2c_master_async_if.read.fns.group, 0
	.weak _i.i2c_master_async_if.get_write_result.maxchanends.group
	.max_reduce _i.i2c_master_async_if.get_write_result.max.maxchanends, _i.i2c_master_async_if.get_write_result.maxchanends.group, 0
	.weak _i.i2c_master_async_if.get_write_result.maxcores.group
	.max_reduce _i.i2c_master_async_if.get_write_result.max.maxcores, _i.i2c_master_async_if.get_write_result.maxcores.group, 0
	.weak _i.i2c_master_async_if.get_write_result.maxtimers.group
	.max_reduce _i.i2c_master_async_if.get_write_result.max.maxtimers, _i.i2c_master_async_if.get_write_result.maxtimers.group, 0
	.weak _i.i2c_master_async_if.get_write_result.nstackwords.group
	.globl _i.i2c_master_async_if.get_write_result.nstackwords.group
	.weak _i.i2c_master_async_if.get_write_result.fns.group
	.globl _i.i2c_master_async_if.get_write_result.fns.group
	.max_reduce _i.i2c_master_async_if.get_write_result.max.nstackwords, _i.i2c_master_async_if.get_write_result.nstackwords.group, 0
	.max_reduce _i.i2c_master_async_if.get_write_result.fns, _i.i2c_master_async_if.get_write_result.fns.group, 0
	.weak _i.i2c_master_async_if.get_read_data.maxchanends.group
	.max_reduce _i.i2c_master_async_if.get_read_data.max.maxchanends, _i.i2c_master_async_if.get_read_data.maxchanends.group, 0
	.weak _i.i2c_master_async_if.get_read_data.maxcores.group
	.max_reduce _i.i2c_master_async_if.get_read_data.max.maxcores, _i.i2c_master_async_if.get_read_data.maxcores.group, 0
	.weak _i.i2c_master_async_if.get_read_data.maxtimers.group
	.max_reduce _i.i2c_master_async_if.get_read_data.max.maxtimers, _i.i2c_master_async_if.get_read_data.maxtimers.group, 0
	.weak _i.i2c_master_async_if.get_read_data.nstackwords.group
	.globl _i.i2c_master_async_if.get_read_data.nstackwords.group
	.weak _i.i2c_master_async_if.get_read_data.fns.group
	.globl _i.i2c_master_async_if.get_read_data.fns.group
	.max_reduce _i.i2c_master_async_if.get_read_data.max.nstackwords, _i.i2c_master_async_if.get_read_data.nstackwords.group, 0
	.max_reduce _i.i2c_master_async_if.get_read_data.fns, _i.i2c_master_async_if.get_read_data.fns.group, 0
	.weak _i.i2c_master_async_if.send_stop_bit.maxchanends.group
	.max_reduce _i.i2c_master_async_if.send_stop_bit.max.maxchanends, _i.i2c_master_async_if.send_stop_bit.maxchanends.group, 0
	.weak _i.i2c_master_async_if.send_stop_bit.maxcores.group
	.max_reduce _i.i2c_master_async_if.send_stop_bit.max.maxcores, _i.i2c_master_async_if.send_stop_bit.maxcores.group, 0
	.weak _i.i2c_master_async_if.send_stop_bit.maxtimers.group
	.max_reduce _i.i2c_master_async_if.send_stop_bit.max.maxtimers, _i.i2c_master_async_if.send_stop_bit.maxtimers.group, 0
	.weak _i.i2c_master_async_if.send_stop_bit.nstackwords.group
	.globl _i.i2c_master_async_if.send_stop_bit.nstackwords.group
	.weak _i.i2c_master_async_if.send_stop_bit.fns.group
	.globl _i.i2c_master_async_if.send_stop_bit.fns.group
	.max_reduce _i.i2c_master_async_if.send_stop_bit.max.nstackwords, _i.i2c_master_async_if.send_stop_bit.nstackwords.group, 0
	.max_reduce _i.i2c_master_async_if.send_stop_bit.fns, _i.i2c_master_async_if.send_stop_bit.fns.group, 0
	.weak _i.i2c_master_async_if.shutdown.maxchanends.group
	.max_reduce _i.i2c_master_async_if.shutdown.max.maxchanends, _i.i2c_master_async_if.shutdown.maxchanends.group, 0
	.weak _i.i2c_master_async_if.shutdown.maxcores.group
	.max_reduce _i.i2c_master_async_if.shutdown.max.maxcores, _i.i2c_master_async_if.shutdown.maxcores.group, 0
	.weak _i.i2c_master_async_if.shutdown.maxtimers.group
	.max_reduce _i.i2c_master_async_if.shutdown.max.maxtimers, _i.i2c_master_async_if.shutdown.maxtimers.group, 0
	.weak _i.i2c_master_async_if.shutdown.nstackwords.group
	.globl _i.i2c_master_async_if.shutdown.nstackwords.group
	.weak _i.i2c_master_async_if.shutdown.fns.group
	.globl _i.i2c_master_async_if.shutdown.fns.group
	.max_reduce _i.i2c_master_async_if.shutdown.max.nstackwords, _i.i2c_master_async_if.shutdown.nstackwords.group, 0
	.max_reduce _i.i2c_master_async_if.shutdown.fns, _i.i2c_master_async_if.shutdown.fns.group, 0
	.weak _i.i2c_master_async_if.__interface_init.maxchanends.group
	.max_reduce _i.i2c_master_async_if.__interface_init.max.maxchanends, _i.i2c_master_async_if.__interface_init.maxchanends.group, 0
	.weak _i.i2c_master_async_if.__interface_init.maxcores.group
	.max_reduce _i.i2c_master_async_if.__interface_init.max.maxcores, _i.i2c_master_async_if.__interface_init.maxcores.group, 0
	.weak _i.i2c_master_async_if.__interface_init.maxtimers.group
	.max_reduce _i.i2c_master_async_if.__interface_init.max.maxtimers, _i.i2c_master_async_if.__interface_init.maxtimers.group, 0
	.weak _i.i2c_master_async_if.__interface_init.nstackwords.group
	.globl _i.i2c_master_async_if.__interface_init.nstackwords.group
	.weak _i.i2c_master_async_if.__interface_init.fns.group
	.globl _i.i2c_master_async_if.__interface_init.fns.group
	.max_reduce _i.i2c_master_async_if.__interface_init.max.nstackwords, _i.i2c_master_async_if.__interface_init.nstackwords.group, 0
	.max_reduce _i.i2c_master_async_if.__interface_init.fns, _i.i2c_master_async_if.__interface_init.fns.group, 0
	.weak _i.i2c_master_async_if._client_call_y.maxchanends.group
	.add_to_set _i.i2c_master_async_if._client_call_y.maxchanends.group, (__interface_client_call_y_other.maxchanends + __interface_client_call_y_extra.maxchanends), __interface_client_call_y_other
	.max_reduce _i.i2c_master_async_if._client_call_y.max.maxchanends, _i.i2c_master_async_if._client_call_y.maxchanends.group, 0
	.weak _i.i2c_master_async_if._client_call_y.maxcores.group
	.add_to_set _i.i2c_master_async_if._client_call_y.maxcores.group, (__interface_client_call_y_other.maxcores + __interface_client_call_y_extra.maxcores), __interface_client_call_y_other
	.max_reduce _i.i2c_master_async_if._client_call_y.max.maxcores, _i.i2c_master_async_if._client_call_y.maxcores.group, 0
	.weak _i.i2c_master_async_if._client_call_y.maxtimers.group
	.add_to_set _i.i2c_master_async_if._client_call_y.maxtimers.group, (__interface_client_call_y_other.maxtimers + __interface_client_call_y_extra.maxtimers), __interface_client_call_y_other
	.max_reduce _i.i2c_master_async_if._client_call_y.max.maxtimers, _i.i2c_master_async_if._client_call_y.maxtimers.group, 0
	.weak _i.i2c_master_async_if._client_call_y.nstackwords.group
	.globl _i.i2c_master_async_if._client_call_y.nstackwords.group
	.weak _i.i2c_master_async_if._client_call_y.fns.group
	.globl _i.i2c_master_async_if._client_call_y.fns.group
	.add_to_set _i.i2c_master_async_if._client_call_y.nstackwords.group, (__interface_client_call_y_other.nstackwords + __interface_client_call_y_extra.nstackwords), __interface_client_call_y_other
	.add_to_set _i.i2c_master_async_if._client_call_y.fns.group, __interface_client_call_y_other, __interface_client_call_y_other
	.max_reduce _i.i2c_master_async_if._client_call_y.max.nstackwords, _i.i2c_master_async_if._client_call_y.nstackwords.group, 0
	.max_reduce _i.i2c_master_async_if._client_call_y.fns, _i.i2c_master_async_if._client_call_y.fns.group, 0
	.weak _i.i2c_master_if.write.maxchanends.group
	.max_reduce _i.i2c_master_if.write.max.maxchanends, _i.i2c_master_if.write.maxchanends.group, 0
	.weak _i.i2c_master_if.write.maxcores.group
	.max_reduce _i.i2c_master_if.write.max.maxcores, _i.i2c_master_if.write.maxcores.group, 0
	.weak _i.i2c_master_if.write.maxtimers.group
	.max_reduce _i.i2c_master_if.write.max.maxtimers, _i.i2c_master_if.write.maxtimers.group, 0
	.weak _i.i2c_master_if.write.nstackwords.group
	.globl _i.i2c_master_if.write.nstackwords.group
	.weak _i.i2c_master_if.write.fns.group
	.globl _i.i2c_master_if.write.fns.group
	.max_reduce _i.i2c_master_if.write.max.nstackwords, _i.i2c_master_if.write.nstackwords.group, 0
	.max_reduce _i.i2c_master_if.write.fns, _i.i2c_master_if.write.fns.group, 0
	.weak _i.i2c_master_if.read.maxchanends.group
	.max_reduce _i.i2c_master_if.read.max.maxchanends, _i.i2c_master_if.read.maxchanends.group, 0
	.weak _i.i2c_master_if.read.maxcores.group
	.max_reduce _i.i2c_master_if.read.max.maxcores, _i.i2c_master_if.read.maxcores.group, 0
	.weak _i.i2c_master_if.read.maxtimers.group
	.max_reduce _i.i2c_master_if.read.max.maxtimers, _i.i2c_master_if.read.maxtimers.group, 0
	.weak _i.i2c_master_if.read.nstackwords.group
	.globl _i.i2c_master_if.read.nstackwords.group
	.weak _i.i2c_master_if.read.fns.group
	.globl _i.i2c_master_if.read.fns.group
	.max_reduce _i.i2c_master_if.read.max.nstackwords, _i.i2c_master_if.read.nstackwords.group, 0
	.max_reduce _i.i2c_master_if.read.fns, _i.i2c_master_if.read.fns.group, 0
	.weak _i.i2c_master_if.send_stop_bit.maxchanends.group
	.max_reduce _i.i2c_master_if.send_stop_bit.max.maxchanends, _i.i2c_master_if.send_stop_bit.maxchanends.group, 0
	.weak _i.i2c_master_if.send_stop_bit.maxcores.group
	.max_reduce _i.i2c_master_if.send_stop_bit.max.maxcores, _i.i2c_master_if.send_stop_bit.maxcores.group, 0
	.weak _i.i2c_master_if.send_stop_bit.maxtimers.group
	.max_reduce _i.i2c_master_if.send_stop_bit.max.maxtimers, _i.i2c_master_if.send_stop_bit.maxtimers.group, 0
	.weak _i.i2c_master_if.send_stop_bit.nstackwords.group
	.globl _i.i2c_master_if.send_stop_bit.nstackwords.group
	.weak _i.i2c_master_if.send_stop_bit.fns.group
	.globl _i.i2c_master_if.send_stop_bit.fns.group
	.max_reduce _i.i2c_master_if.send_stop_bit.max.nstackwords, _i.i2c_master_if.send_stop_bit.nstackwords.group, 0
	.max_reduce _i.i2c_master_if.send_stop_bit.fns, _i.i2c_master_if.send_stop_bit.fns.group, 0
	.weak _i.i2c_master_if.shutdown.maxchanends.group
	.max_reduce _i.i2c_master_if.shutdown.max.maxchanends, _i.i2c_master_if.shutdown.maxchanends.group, 0
	.weak _i.i2c_master_if.shutdown.maxcores.group
	.max_reduce _i.i2c_master_if.shutdown.max.maxcores, _i.i2c_master_if.shutdown.maxcores.group, 0
	.weak _i.i2c_master_if.shutdown.maxtimers.group
	.max_reduce _i.i2c_master_if.shutdown.max.maxtimers, _i.i2c_master_if.shutdown.maxtimers.group, 0
	.weak _i.i2c_master_if.shutdown.nstackwords.group
	.globl _i.i2c_master_if.shutdown.nstackwords.group
	.weak _i.i2c_master_if.shutdown.fns.group
	.globl _i.i2c_master_if.shutdown.fns.group
	.max_reduce _i.i2c_master_if.shutdown.max.nstackwords, _i.i2c_master_if.shutdown.nstackwords.group, 0
	.max_reduce _i.i2c_master_if.shutdown.fns, _i.i2c_master_if.shutdown.fns.group, 0
	.weak _i.i2c_master_if.__interface_init.maxchanends.group
	.max_reduce _i.i2c_master_if.__interface_init.max.maxchanends, _i.i2c_master_if.__interface_init.maxchanends.group, 0
	.weak _i.i2c_master_if.__interface_init.maxcores.group
	.max_reduce _i.i2c_master_if.__interface_init.max.maxcores, _i.i2c_master_if.__interface_init.maxcores.group, 0
	.weak _i.i2c_master_if.__interface_init.maxtimers.group
	.max_reduce _i.i2c_master_if.__interface_init.max.maxtimers, _i.i2c_master_if.__interface_init.maxtimers.group, 0
	.weak _i.i2c_master_if.__interface_init.nstackwords.group
	.globl _i.i2c_master_if.__interface_init.nstackwords.group
	.weak _i.i2c_master_if.__interface_init.fns.group
	.globl _i.i2c_master_if.__interface_init.fns.group
	.max_reduce _i.i2c_master_if.__interface_init.max.nstackwords, _i.i2c_master_if.__interface_init.nstackwords.group, 0
	.max_reduce _i.i2c_master_if.__interface_init.fns, _i.i2c_master_if.__interface_init.fns.group, 0
	.weak _i.i2c_master_if._client_call_y.maxchanends.group
	.add_to_set _i.i2c_master_if._client_call_y.maxchanends.group, (__interface_client_call_y_other.maxchanends + __interface_client_call_y_extra.maxchanends), __interface_client_call_y_other
	.max_reduce _i.i2c_master_if._client_call_y.max.maxchanends, _i.i2c_master_if._client_call_y.maxchanends.group, 0
	.weak _i.i2c_master_if._client_call_y.maxcores.group
	.add_to_set _i.i2c_master_if._client_call_y.maxcores.group, (__interface_client_call_y_other.maxcores + __interface_client_call_y_extra.maxcores), __interface_client_call_y_other
	.max_reduce _i.i2c_master_if._client_call_y.max.maxcores, _i.i2c_master_if._client_call_y.maxcores.group, 0
	.weak _i.i2c_master_if._client_call_y.maxtimers.group
	.add_to_set _i.i2c_master_if._client_call_y.maxtimers.group, (__interface_client_call_y_other.maxtimers + __interface_client_call_y_extra.maxtimers), __interface_client_call_y_other
	.max_reduce _i.i2c_master_if._client_call_y.max.maxtimers, _i.i2c_master_if._client_call_y.maxtimers.group, 0
	.weak _i.i2c_master_if._client_call_y.nstackwords.group
	.globl _i.i2c_master_if._client_call_y.nstackwords.group
	.weak _i.i2c_master_if._client_call_y.fns.group
	.globl _i.i2c_master_if._client_call_y.fns.group
	.add_to_set _i.i2c_master_if._client_call_y.nstackwords.group, (__interface_client_call_y_other.nstackwords + __interface_client_call_y_extra.nstackwords), __interface_client_call_y_other
	.add_to_set _i.i2c_master_if._client_call_y.fns.group, __interface_client_call_y_other, __interface_client_call_y_other
	.max_reduce _i.i2c_master_if._client_call_y.max.nstackwords, _i.i2c_master_if._client_call_y.nstackwords.group, 0
	.max_reduce _i.i2c_master_if._client_call_y.fns, _i.i2c_master_if._client_call_y.fns.group, 0
	.weak _i.keyword_if.buffer_ready.maxchanends.group
	.max_reduce _i.keyword_if.buffer_ready.max.maxchanends, _i.keyword_if.buffer_ready.maxchanends.group, 0
	.weak _i.keyword_if.buffer_ready.maxcores.group
	.max_reduce _i.keyword_if.buffer_ready.max.maxcores, _i.keyword_if.buffer_ready.maxcores.group, 0
	.weak _i.keyword_if.buffer_ready.maxtimers.group
	.max_reduce _i.keyword_if.buffer_ready.max.maxtimers, _i.keyword_if.buffer_ready.maxtimers.group, 0
	.weak _i.keyword_if.buffer_ready.nstackwords.group
	.globl _i.keyword_if.buffer_ready.nstackwords.group
	.weak _i.keyword_if.buffer_ready.fns.group
	.globl _i.keyword_if.buffer_ready.fns.group
	.max_reduce _i.keyword_if.buffer_ready.max.nstackwords, _i.keyword_if.buffer_ready.nstackwords.group, 0
	.max_reduce _i.keyword_if.buffer_ready.fns, _i.keyword_if.buffer_ready.fns.group, 0
	.weak _i.keyword_if.__interface_init.maxchanends.group
	.max_reduce _i.keyword_if.__interface_init.max.maxchanends, _i.keyword_if.__interface_init.maxchanends.group, 0
	.weak _i.keyword_if.__interface_init.maxcores.group
	.max_reduce _i.keyword_if.__interface_init.max.maxcores, _i.keyword_if.__interface_init.maxcores.group, 0
	.weak _i.keyword_if.__interface_init.maxtimers.group
	.max_reduce _i.keyword_if.__interface_init.max.maxtimers, _i.keyword_if.__interface_init.maxtimers.group, 0
	.weak _i.keyword_if.__interface_init.nstackwords.group
	.globl _i.keyword_if.__interface_init.nstackwords.group
	.weak _i.keyword_if.__interface_init.fns.group
	.globl _i.keyword_if.__interface_init.fns.group
	.max_reduce _i.keyword_if.__interface_init.max.nstackwords, _i.keyword_if.__interface_init.nstackwords.group, 0
	.max_reduce _i.keyword_if.__interface_init.fns, _i.keyword_if.__interface_init.fns.group, 0
	.weak _i.keyword_if._client_call_y.maxchanends.group
	.add_to_set _i.keyword_if._client_call_y.maxchanends.group, (__interface_client_call_y_other.maxchanends + __interface_client_call_y_extra.maxchanends), __interface_client_call_y_other
	.max_reduce _i.keyword_if._client_call_y.max.maxchanends, _i.keyword_if._client_call_y.maxchanends.group, 0
	.weak _i.keyword_if._client_call_y.maxcores.group
	.add_to_set _i.keyword_if._client_call_y.maxcores.group, (__interface_client_call_y_other.maxcores + __interface_client_call_y_extra.maxcores), __interface_client_call_y_other
	.max_reduce _i.keyword_if._client_call_y.max.maxcores, _i.keyword_if._client_call_y.maxcores.group, 0
	.weak _i.keyword_if._client_call_y.maxtimers.group
	.add_to_set _i.keyword_if._client_call_y.maxtimers.group, (__interface_client_call_y_other.maxtimers + __interface_client_call_y_extra.maxtimers), __interface_client_call_y_other
	.max_reduce _i.keyword_if._client_call_y.max.maxtimers, _i.keyword_if._client_call_y.maxtimers.group, 0
	.weak _i.keyword_if._client_call_y.nstackwords.group
	.globl _i.keyword_if._client_call_y.nstackwords.group
	.weak _i.keyword_if._client_call_y.fns.group
	.globl _i.keyword_if._client_call_y.fns.group
	.add_to_set _i.keyword_if._client_call_y.nstackwords.group, (__interface_client_call_y_other.nstackwords + __interface_client_call_y_extra.nstackwords), __interface_client_call_y_other
	.add_to_set _i.keyword_if._client_call_y.fns.group, __interface_client_call_y_other, __interface_client_call_y_other
	.max_reduce _i.keyword_if._client_call_y.max.nstackwords, _i.keyword_if._client_call_y.nstackwords.group, 0
	.max_reduce _i.keyword_if._client_call_y.fns, _i.keyword_if._client_call_y.fns.group, 0
	.weak _i.beclear_if.swap_buffers.maxchanends.group
	.max_reduce _i.beclear_if.swap_buffers.max.maxchanends, _i.beclear_if.swap_buffers.maxchanends.group, 0
	.weak _i.beclear_if.swap_buffers.maxcores.group
	.max_reduce _i.beclear_if.swap_buffers.max.maxcores, _i.beclear_if.swap_buffers.maxcores.group, 0
	.weak _i.beclear_if.swap_buffers.maxtimers.group
	.max_reduce _i.beclear_if.swap_buffers.max.maxtimers, _i.beclear_if.swap_buffers.maxtimers.group, 0
	.weak _i.beclear_if.swap_buffers.nstackwords.group
	.globl _i.beclear_if.swap_buffers.nstackwords.group
	.weak _i.beclear_if.swap_buffers.fns.group
	.globl _i.beclear_if.swap_buffers.fns.group
	.max_reduce _i.beclear_if.swap_buffers.max.nstackwords, _i.beclear_if.swap_buffers.nstackwords.group, 0
	.max_reduce _i.beclear_if.swap_buffers.fns, _i.beclear_if.swap_buffers.fns.group, 0
	.weak _i.beclear_if.transfer_samples.maxchanends.group
	.max_reduce _i.beclear_if.transfer_samples.max.maxchanends, _i.beclear_if.transfer_samples.maxchanends.group, 0
	.weak _i.beclear_if.transfer_samples.maxcores.group
	.max_reduce _i.beclear_if.transfer_samples.max.maxcores, _i.beclear_if.transfer_samples.maxcores.group, 0
	.weak _i.beclear_if.transfer_samples.maxtimers.group
	.max_reduce _i.beclear_if.transfer_samples.max.maxtimers, _i.beclear_if.transfer_samples.maxtimers.group, 0
	.weak _i.beclear_if.transfer_samples.nstackwords.group
	.globl _i.beclear_if.transfer_samples.nstackwords.group
	.weak _i.beclear_if.transfer_samples.fns.group
	.globl _i.beclear_if.transfer_samples.fns.group
	.max_reduce _i.beclear_if.transfer_samples.max.nstackwords, _i.beclear_if.transfer_samples.nstackwords.group, 0
	.max_reduce _i.beclear_if.transfer_samples.fns, _i.beclear_if.transfer_samples.fns.group, 0
	.weak _i.beclear_if.__interface_init.maxchanends.group
	.max_reduce _i.beclear_if.__interface_init.max.maxchanends, _i.beclear_if.__interface_init.maxchanends.group, 0
	.weak _i.beclear_if.__interface_init.maxcores.group
	.max_reduce _i.beclear_if.__interface_init.max.maxcores, _i.beclear_if.__interface_init.maxcores.group, 0
	.weak _i.beclear_if.__interface_init.maxtimers.group
	.max_reduce _i.beclear_if.__interface_init.max.maxtimers, _i.beclear_if.__interface_init.maxtimers.group, 0
	.weak _i.beclear_if.__interface_init.nstackwords.group
	.globl _i.beclear_if.__interface_init.nstackwords.group
	.weak _i.beclear_if.__interface_init.fns.group
	.globl _i.beclear_if.__interface_init.fns.group
	.max_reduce _i.beclear_if.__interface_init.max.nstackwords, _i.beclear_if.__interface_init.nstackwords.group, 0
	.max_reduce _i.beclear_if.__interface_init.fns, _i.beclear_if.__interface_init.fns.group, 0
	.weak _i.beclear_if._client_call_y.maxchanends.group
	.add_to_set _i.beclear_if._client_call_y.maxchanends.group, (__interface_client_call_y_other.maxchanends + __interface_client_call_y_extra.maxchanends), __interface_client_call_y_other
	.max_reduce _i.beclear_if._client_call_y.max.maxchanends, _i.beclear_if._client_call_y.maxchanends.group, 0
	.weak _i.beclear_if._client_call_y.maxcores.group
	.add_to_set _i.beclear_if._client_call_y.maxcores.group, (__interface_client_call_y_other.maxcores + __interface_client_call_y_extra.maxcores), __interface_client_call_y_other
	.max_reduce _i.beclear_if._client_call_y.max.maxcores, _i.beclear_if._client_call_y.maxcores.group, 0
	.weak _i.beclear_if._client_call_y.maxtimers.group
	.add_to_set _i.beclear_if._client_call_y.maxtimers.group, (__interface_client_call_y_other.maxtimers + __interface_client_call_y_extra.maxtimers), __interface_client_call_y_other
	.max_reduce _i.beclear_if._client_call_y.max.maxtimers, _i.beclear_if._client_call_y.maxtimers.group, 0
	.weak _i.beclear_if._client_call_y.nstackwords.group
	.globl _i.beclear_if._client_call_y.nstackwords.group
	.weak _i.beclear_if._client_call_y.fns.group
	.globl _i.beclear_if._client_call_y.fns.group
	.add_to_set _i.beclear_if._client_call_y.nstackwords.group, (__interface_client_call_y_other.nstackwords + __interface_client_call_y_extra.nstackwords), __interface_client_call_y_other
	.add_to_set _i.beclear_if._client_call_y.fns.group, __interface_client_call_y_other, __interface_client_call_y_other
	.max_reduce _i.beclear_if._client_call_y.max.nstackwords, _i.beclear_if._client_call_y.nstackwords.group, 0
	.max_reduce _i.beclear_if._client_call_y.fns, _i.beclear_if._client_call_y.fns.group, 0
	.weak _i.control.register_resources.maxchanends.group
	.max_reduce _i.control.register_resources.max.maxchanends, _i.control.register_resources.maxchanends.group, 0
	.weak _i.control.register_resources.maxcores.group
	.max_reduce _i.control.register_resources.max.maxcores, _i.control.register_resources.maxcores.group, 0
	.weak _i.control.register_resources.maxtimers.group
	.max_reduce _i.control.register_resources.max.maxtimers, _i.control.register_resources.maxtimers.group, 0
	.weak _i.control.register_resources.nstackwords.group
	.globl _i.control.register_resources.nstackwords.group
	.weak _i.control.register_resources.fns.group
	.globl _i.control.register_resources.fns.group
	.max_reduce _i.control.register_resources.max.nstackwords, _i.control.register_resources.nstackwords.group, 0
	.max_reduce _i.control.register_resources.fns, _i.control.register_resources.fns.group, 0
	.weak _i.control.write_command.maxchanends.group
	.max_reduce _i.control.write_command.max.maxchanends, _i.control.write_command.maxchanends.group, 0
	.weak _i.control.write_command.maxcores.group
	.max_reduce _i.control.write_command.max.maxcores, _i.control.write_command.maxcores.group, 0
	.weak _i.control.write_command.maxtimers.group
	.max_reduce _i.control.write_command.max.maxtimers, _i.control.write_command.maxtimers.group, 0
	.weak _i.control.write_command.nstackwords.group
	.globl _i.control.write_command.nstackwords.group
	.weak _i.control.write_command.fns.group
	.globl _i.control.write_command.fns.group
	.max_reduce _i.control.write_command.max.nstackwords, _i.control.write_command.nstackwords.group, 0
	.max_reduce _i.control.write_command.fns, _i.control.write_command.fns.group, 0
	.weak _i.control.read_command.maxchanends.group
	.max_reduce _i.control.read_command.max.maxchanends, _i.control.read_command.maxchanends.group, 0
	.weak _i.control.read_command.maxcores.group
	.max_reduce _i.control.read_command.max.maxcores, _i.control.read_command.maxcores.group, 0
	.weak _i.control.read_command.maxtimers.group
	.max_reduce _i.control.read_command.max.maxtimers, _i.control.read_command.maxtimers.group, 0
	.weak _i.control.read_command.nstackwords.group
	.globl _i.control.read_command.nstackwords.group
	.weak _i.control.read_command.fns.group
	.globl _i.control.read_command.fns.group
	.max_reduce _i.control.read_command.max.nstackwords, _i.control.read_command.nstackwords.group, 0
	.max_reduce _i.control.read_command.fns, _i.control.read_command.fns.group, 0
	.weak _i.control.__interface_init.maxchanends.group
	.max_reduce _i.control.__interface_init.max.maxchanends, _i.control.__interface_init.maxchanends.group, 0
	.weak _i.control.__interface_init.maxcores.group
	.max_reduce _i.control.__interface_init.max.maxcores, _i.control.__interface_init.maxcores.group, 0
	.weak _i.control.__interface_init.maxtimers.group
	.max_reduce _i.control.__interface_init.max.maxtimers, _i.control.__interface_init.maxtimers.group, 0
	.weak _i.control.__interface_init.nstackwords.group
	.globl _i.control.__interface_init.nstackwords.group
	.weak _i.control.__interface_init.fns.group
	.globl _i.control.__interface_init.fns.group
	.max_reduce _i.control.__interface_init.max.nstackwords, _i.control.__interface_init.nstackwords.group, 0
	.max_reduce _i.control.__interface_init.fns, _i.control.__interface_init.fns.group, 0
	.weak _i.control._client_call_y.maxchanends.group
	.add_to_set _i.control._client_call_y.maxchanends.group, (__interface_client_call_y_other.maxchanends + __interface_client_call_y_extra.maxchanends), __interface_client_call_y_other
	.max_reduce _i.control._client_call_y.max.maxchanends, _i.control._client_call_y.maxchanends.group, 0
	.weak _i.control._client_call_y.maxcores.group
	.add_to_set _i.control._client_call_y.maxcores.group, (__interface_client_call_y_other.maxcores + __interface_client_call_y_extra.maxcores), __interface_client_call_y_other
	.max_reduce _i.control._client_call_y.max.maxcores, _i.control._client_call_y.maxcores.group, 0
	.weak _i.control._client_call_y.maxtimers.group
	.add_to_set _i.control._client_call_y.maxtimers.group, (__interface_client_call_y_other.maxtimers + __interface_client_call_y_extra.maxtimers), __interface_client_call_y_other
	.max_reduce _i.control._client_call_y.max.maxtimers, _i.control._client_call_y.maxtimers.group, 0
	.weak _i.control._client_call_y.nstackwords.group
	.globl _i.control._client_call_y.nstackwords.group
	.weak _i.control._client_call_y.fns.group
	.globl _i.control._client_call_y.fns.group
	.add_to_set _i.control._client_call_y.nstackwords.group, (__interface_client_call_y_other.nstackwords + __interface_client_call_y_extra.nstackwords), __interface_client_call_y_other
	.add_to_set _i.control._client_call_y.fns.group, __interface_client_call_y_other, __interface_client_call_y_other
	.max_reduce _i.control._client_call_y.max.nstackwords, _i.control._client_call_y.nstackwords.group, 0
	.max_reduce _i.control._client_call_y.fns, _i.control._client_call_y.fns.group, 0
	.weak _i.audManage_if.transfer_buffers.maxchanends.group
	.max_reduce _i.audManage_if.transfer_buffers.max.maxchanends, _i.audManage_if.transfer_buffers.maxchanends.group, 0
	.weak _i.audManage_if.transfer_buffers.maxcores.group
	.max_reduce _i.audManage_if.transfer_buffers.max.maxcores, _i.audManage_if.transfer_buffers.maxcores.group, 0
	.weak _i.audManage_if.transfer_buffers.maxtimers.group
	.max_reduce _i.audManage_if.transfer_buffers.max.maxtimers, _i.audManage_if.transfer_buffers.maxtimers.group, 0
	.weak _i.audManage_if.transfer_buffers.nstackwords.group
	.globl _i.audManage_if.transfer_buffers.nstackwords.group
	.weak _i.audManage_if.transfer_buffers.fns.group
	.globl _i.audManage_if.transfer_buffers.fns.group
	.max_reduce _i.audManage_if.transfer_buffers.max.nstackwords, _i.audManage_if.transfer_buffers.nstackwords.group, 0
	.max_reduce _i.audManage_if.transfer_buffers.fns, _i.audManage_if.transfer_buffers.fns.group, 0
	.weak _i.audManage_if.transfer_samples.maxchanends.group
	.max_reduce _i.audManage_if.transfer_samples.max.maxchanends, _i.audManage_if.transfer_samples.maxchanends.group, 0
	.weak _i.audManage_if.transfer_samples.maxcores.group
	.max_reduce _i.audManage_if.transfer_samples.max.maxcores, _i.audManage_if.transfer_samples.maxcores.group, 0
	.weak _i.audManage_if.transfer_samples.maxtimers.group
	.max_reduce _i.audManage_if.transfer_samples.max.maxtimers, _i.audManage_if.transfer_samples.maxtimers.group, 0
	.weak _i.audManage_if.transfer_samples.nstackwords.group
	.globl _i.audManage_if.transfer_samples.nstackwords.group
	.weak _i.audManage_if.transfer_samples.fns.group
	.globl _i.audManage_if.transfer_samples.fns.group
	.max_reduce _i.audManage_if.transfer_samples.max.nstackwords, _i.audManage_if.transfer_samples.nstackwords.group, 0
	.max_reduce _i.audManage_if.transfer_samples.fns, _i.audManage_if.transfer_samples.fns.group, 0
	.weak _i.audManage_if.__interface_init.maxchanends.group
	.max_reduce _i.audManage_if.__interface_init.max.maxchanends, _i.audManage_if.__interface_init.maxchanends.group, 0
	.weak _i.audManage_if.__interface_init.maxcores.group
	.max_reduce _i.audManage_if.__interface_init.max.maxcores, _i.audManage_if.__interface_init.maxcores.group, 0
	.weak _i.audManage_if.__interface_init.maxtimers.group
	.max_reduce _i.audManage_if.__interface_init.max.maxtimers, _i.audManage_if.__interface_init.maxtimers.group, 0
	.weak _i.audManage_if.__interface_init.nstackwords.group
	.globl _i.audManage_if.__interface_init.nstackwords.group
	.weak _i.audManage_if.__interface_init.fns.group
	.globl _i.audManage_if.__interface_init.fns.group
	.max_reduce _i.audManage_if.__interface_init.max.nstackwords, _i.audManage_if.__interface_init.nstackwords.group, 0
	.max_reduce _i.audManage_if.__interface_init.fns, _i.audManage_if.__interface_init.fns.group, 0
	.weak _i.audManage_if._client_call_y.maxchanends.group
	.add_to_set _i.audManage_if._client_call_y.maxchanends.group, (__interface_client_call_y_other.maxchanends + __interface_client_call_y_extra.maxchanends), __interface_client_call_y_other
	.max_reduce _i.audManage_if._client_call_y.max.maxchanends, _i.audManage_if._client_call_y.maxchanends.group, 0
	.weak _i.audManage_if._client_call_y.maxcores.group
	.add_to_set _i.audManage_if._client_call_y.maxcores.group, (__interface_client_call_y_other.maxcores + __interface_client_call_y_extra.maxcores), __interface_client_call_y_other
	.max_reduce _i.audManage_if._client_call_y.max.maxcores, _i.audManage_if._client_call_y.maxcores.group, 0
	.weak _i.audManage_if._client_call_y.maxtimers.group
	.add_to_set _i.audManage_if._client_call_y.maxtimers.group, (__interface_client_call_y_other.maxtimers + __interface_client_call_y_extra.maxtimers), __interface_client_call_y_other
	.max_reduce _i.audManage_if._client_call_y.max.maxtimers, _i.audManage_if._client_call_y.maxtimers.group, 0
	.weak _i.audManage_if._client_call_y.nstackwords.group
	.globl _i.audManage_if._client_call_y.nstackwords.group
	.weak _i.audManage_if._client_call_y.fns.group
	.globl _i.audManage_if._client_call_y.fns.group
	.add_to_set _i.audManage_if._client_call_y.nstackwords.group, (__interface_client_call_y_other.nstackwords + __interface_client_call_y_extra.nstackwords), __interface_client_call_y_other
	.add_to_set _i.audManage_if._client_call_y.fns.group, __interface_client_call_y_other, __interface_client_call_y_other
	.max_reduce _i.audManage_if._client_call_y.max.nstackwords, _i.audManage_if._client_call_y.nstackwords.group, 0
	.max_reduce _i.audManage_if._client_call_y.fns, _i.audManage_if._client_call_y.fns.group, 0
	.set usage.anon.0,0
	.set usage.anon.1,0
	.set usage.anon.2,0
	.set usage.anon.3,0
	.set usage.anon.4,0
	.set usage.anon.5,0
	.set usage.anon.6,0
	.set usage.anon.7,0
	.set usage.anon.8,0
	.set usage.anon.9,0
	.set usage.anon.10,0
	.set usage.anon.11,0
	.set usage.anon.12,0
	.set usage.anon.13,0
	.set usage.anon.14,0
	.set usage.anon.15,0
	.set usage.anon.16,0
	.set usage.anon.17,0
	.set usage.anon.18,0
	.set usage.anon.19,0
	.set usage.anon.20,0
	.set usage.anon.21,0
	.set usage.anon.22,0
	.set usage.anon.23,0
	.set usage.anon.24,0
	.set usage.anon.25,0
	.set usage.anon.26,0
	.set usage.anon.27,0
	.set usage.anon.28,0
	.set usage.anon.29,0
	.set usage.anon.30,0
	.set usage.anon.31,0
	.globread UserBufferManagement,usage.anon.29,"C:/Users/user/workspace/module_vocalfusion/src/beclear_int.xc:610:30: note: object used here\n            set_voice_status(vState, voiceActive, angle0);\n                             ^~~~~~"
	.globread UserBufferManagement,q_a,"C:/Users/user/workspace/module_vocalfusion/src/beclear_int.xc:305:49: note: object used here\n            APES_FLOAT * unsafe * unsafe outq = q_a[readBuffNo];\n                                                ^~~~~~~~~~~~~~~"
	.globread UserBufferManagement,td_doa1,"C:/Users/user/workspace/module_vocalfusion/src/beclear_int.xc:485:60: note: object used here\n            q8_24 doa1 =  pfloat_to_q24(PFLOAT_EXP(bap_op, td_doa1), PFLOAT_MANT(bap_op, td_doa1));\n                                                           ^~~~~~~\nC:/Users/user/workspace/lib_xbeclear/inc/xmos/APEStypes_fx_XMOS.h:48:40: note: expanded from macro \'PFLOAT_EXP\'\n#define PFLOAT_EXP(o,x)         ((int)(x >> 32))\n                                       ^"
	.globread UserBufferManagement,td_doa0,"C:/Users/user/workspace/module_vocalfusion/src/beclear_int.xc:475:60: note: object used here\n            q8_24 doa0 =  pfloat_to_q24(PFLOAT_EXP(bap_op, td_doa0), PFLOAT_MANT(bap_op, td_doa0));\n                                                           ^~~~~~~\nC:/Users/user/workspace/lib_xbeclear/inc/xmos/APEStypes_fx_XMOS.h:48:40: note: expanded from macro \'PFLOAT_EXP\'\n#define PFLOAT_EXP(o,x)         ((int)(x >> 32))\n                                       ^"
	.globread UserBufferManagement,g_doaAngle,"C:/Users/user/workspace/module_vocalfusion/src/beclear_int.xc:611:38: note: object used here\n            int * unsafe doaAngle = &g_doaAngle;\n                                     ^~~~~~~~~~"
	.globread UserBufferManagement,src_ff3v_fir_coefs,"C:/Users/user/workspace/module_vocalfusion/src/beclear_int.xc:265:62: note: object used here\n                                                             src_ff3v_fir_coefs[usbToBeclearRatioCounter],\n                                                             ^~~~~~~~~~~~~~~~~~~~~~~~~~~~~~~~~~~~~~~~~~~~"
	.globwrite UserBufferManagement,usage.anon.31,"C:/Users/user/workspace/module_vocalfusion/src/beclear_int.xc:615:15: note: object used here\n            ++readBuffNo;\n              ^~~~~~~~~~"
	.globwrite UserBufferManagement,usage.anon.30,"C:/Users/user/workspace/module_vocalfusion/src/beclear_int.xc:447:11: note: object used here\n        ++outSampCount;\n          ^~~~~~~~~~~~"
	.globwrite UserBufferManagement,usage.anon.27,"C:/Users/user/workspace/module_vocalfusion/src/beclear_int.xc:440:9: note: object used here\n        usbToBeclearRatioCounter = 0;\n        ^~~~~~~~~~~~~~~~~~~~~~~~"
	.globwrite UserBufferManagement,usage.anon.26,"C:/Users/user/workspace/module_vocalfusion/src/beclear_int.xc:321:53: note: object used here\n            commOutput = src_us3_voice_input_sample(commsUS3.delayLine,\n                                                    ^~~~~~~~~~~~~~~~~~"
	.globwrite UserBufferManagement,usage.anon.25,"C:/Users/user/workspace/module_vocalfusion/src/beclear_int.xc:326:56: note: object used here\n                asrOutput = src_us3_voice_input_sample(asrUS3.delayLine,\n                                                       ^~~~~~~~~~~~~~~~"
	.globwrite UserBufferManagement,usage.anon.24,"C:/Users/user/workspace/module_vocalfusion/src/beclear_int.xc:268:20: note: object used here\n            memset(&usbAecDs3Sum, 0, sizeof usbAecDs3Sum);\n                   ^~~~~~~~~~~~~\nC:\\Program Files (x86)\\XMOS\\xTIMEcomposer\\Community_14.3.3\\target/include/xc\\string.h:16:46: note: expanded from macro \'memset\'\n#define memset(s, c, n) _safe_memset((char *)s, c, n)\n                                             ^"
	.globwrite UserBufferManagement,usage.anon.23,"C:/Users/user/workspace/module_vocalfusion/src/beclear_int.xc:264:62: note: object used here\n                                                             usbAecDS3.delayLine[i][usbToBeclearRatioCounter],\n                                                             ^~~~~~~~~~~~~~~~~~~~~~~~~~~~~~~~~~~~~~~~~~~~~~~~"
	.globwrite UserBufferManagementInit,usage.anon.27,"C:/Users/user/workspace/module_vocalfusion/src/beclear_int.xc:137:5: note: object used here\n    usbToBeclearRatioCounter = 0;\n    ^~~~~~~~~~~~~~~~~~~~~~~~"
	.globwrite UserBufferManagementInit,usage.anon.26,"C:/Users/user/workspace/module_vocalfusion/src/beclear_int.xc:143:16: note: object used here\n        memset(commsUS3.delayLine, 0, sizeof commsUS3.delayLine);\n               ^~~~~~~~~~~~~~~~~~\nC:\\Program Files (x86)\\XMOS\\xTIMEcomposer\\Community_14.3.3\\target/include/xc\\string.h:16:46: note: expanded from macro \'memset\'\n#define memset(s, c, n) _safe_memset((char *)s, c, n)\n                                             ^"
	.globwrite UserBufferManagementInit,usage.anon.25,"C:/Users/user/workspace/module_vocalfusion/src/beclear_int.xc:144:16: note: object used here\n        memset(asrUS3.delayLine, 0, sizeof asrUS3.delayLine);\n               ^~~~~~~~~~~~~~~~\nC:\\Program Files (x86)\\XMOS\\xTIMEcomposer\\Community_14.3.3\\target/include/xc\\string.h:16:46: note: expanded from macro \'memset\'\n#define memset(s, c, n) _safe_memset((char *)s, c, n)\n                                             ^"
	.globwrite UserBufferManagementInit,usage.anon.24,"C:/Users/user/workspace/module_vocalfusion/src/beclear_int.xc:142:16: note: object used here\n        memset(&usbAecDs3Sum, 0, sizeof usbAecDs3Sum);\n               ^~~~~~~~~~~~~\nC:\\Program Files (x86)\\XMOS\\xTIMEcomposer\\Community_14.3.3\\target/include/xc\\string.h:16:46: note: expanded from macro \'memset\'\n#define memset(s, c, n) _safe_memset((char *)s, c, n)\n                                             ^"
	.globwrite UserBufferManagementInit,usage.anon.23,"C:/Users/user/workspace/module_vocalfusion/src/beclear_int.xc:141:16: note: object used here\n        memset(usbAecDS3.delayLine, 0, sizeof usbAecDS3.delayLine);\n               ^~~~~~~~~~~~~~~~~~~\nC:\\Program Files (x86)\\XMOS\\xTIMEcomposer\\Community_14.3.3\\target/include/xc\\string.h:16:46: note: expanded from macro \'memset\'\n#define memset(s, c, n) _safe_memset((char *)s, c, n)\n                                             ^"
	.call UserBufferManagement,usage.anon.5
	.call UserBufferManagement,usage.anon.28
	.call UserBufferManagement,src_us3_voice_input_sample
	.call UserBufferManagement,src_us3_voice_get_next_sample
	.call UserBufferManagement,src_ds3_voice_add_sample
	.call UserBufferManagement,src_ds3_voice_add_final_sample
	.call UserBufferManagement,set_voice_status
	.call UserBufferManagement,pfloat_to_q24
	.call UserBufferManagement,abs
	.call UserBufferManagement,AMBIPHONE_BAP_GetPar
	.call usage.anon.28,dsp_math_asin
	.call UserBufferManagementInit,usage.anon.5
	.call usage.anon.22,dsp_math_sinh_
	.call usage.anon.21,dsp_math_sinh_
	.call usage.anon.20,dsp_math_sin
	.call usage.anon.18,usage.anon.15
	.call usage.anon.16,usage.anon.15
	.call usage.anon.5,memset
	.call usage.anon.4,memmove
	.call usage.anon.3,memcmp
	.call usage.anon.2,delay_ticks_longlong
	.call usage.anon.1,delay_ticks_longlong
	.call usage.anon.0,delay_ticks_longlong
	.par abs,abs,"C:/Users/user/workspace/module_vocalfusion/src/beclear_int.xc:489:17: error: use of `%s\' causes an ambiguous evaluation\n            if (abs(angle1) < abs(angle0)) \n                ^~~~~~~~~~~~~~~~~~~~~~~~~"
	.set usage.anon.6.locnoside, 0
	.set usage.anon.7.locnoside, 0
	.set usage.anon.8.locnoside, 0
	.set usage.anon.9.locnoside, 0
	.set usage.anon.10.locnoside, 0
	.set usage.anon.11.locnoside, 0
	.set usage.anon.12.locnoside, 0
	.set usage.anon.13.locnoside, 0
	.set BeclearBuff.locnoside, 0
	.set UserBufferManagementInit.locnoside, 0
	.set UserBufferManagement.locnoside, 0
	.set BeclearBuff.locnoglobalaccess, 0
	.set UserBufferManagementInit.locnoglobalaccess, 0
	.set UserBufferManagement.locnoglobalaccess, 0
	.set usage.anon.6.locnointerfaceaccess, 0
	.set usage.anon.7.locnointerfaceaccess, 0
	.set usage.anon.8.locnointerfaceaccess, 0
	.set usage.anon.9.locnointerfaceaccess, 0
	.set usage.anon.10.locnointerfaceaccess, 0
	.set usage.anon.11.locnointerfaceaccess, 0
	.set usage.anon.12.locnointerfaceaccess, 0
	.set usage.anon.13.locnointerfaceaccess, 0
	.set BeclearBuff.locnointerfaceaccess, 0
	.set UserBufferManagement.locnointerfaceaccess, 0
	.assert 1,memset.actnoglobalaccess,"In file included from C:/Users/user/workspace/module_vocalfusion/src/beclear_int.xc:6:\nIn file included from C:\\Program Files (x86)\\XMOS\\xTIMEcomposer\\Community_14.3.3\\target/include/xc\\string.h:5:\nC:\\Program Files (x86)\\XMOS\\xTIMEcomposer\\Community_14.3.3\\target/include/xc\\safe/string.h:21:3: error: passing non-local alias to function `memset\' which accesses a global variable\n  memset(s, c, n);\n  ^~~~~~~~~~~~~~~"
	.assert 1,memmove.actnoglobalaccess,"In file included from C:/Users/user/workspace/module_vocalfusion/src/beclear_int.xc:6:\nIn file included from C:\\Program Files (x86)\\XMOS\\xTIMEcomposer\\Community_14.3.3\\target/include/xc\\string.h:5:\nC:\\Program Files (x86)\\XMOS\\xTIMEcomposer\\Community_14.3.3\\target/include/xc\\safe/string.h:15:3: error: passing non-local alias to function `memmove\' which accesses a global variable\n  memmove(s1, s2, n);\n  ^~~~~~~~~~~~~~~~~~"
	.globpassesref src_us3_voice_get_next_sample, src_ff3v_fir_coefs,"C:/Users/user/workspace/module_vocalfusion/src/beclear_int.xc:338:29: error: call to `src_us3_voice_get_next_sample\' in `UserBufferManagement\' makes alias of global \'src_ff3v_fir_coefs\'\n                asrOutput = src_us3_voice_get_next_sample(asrUS3.delayLine,\n                            ^~~~~~~~~~~~~~~~~~~~~~~~~~~~~~~~~~~~~~~~~~~~~~~"
	.globpassesref src_us3_voice_get_next_sample, usage.anon.25,"C:/Users/user/workspace/module_vocalfusion/src/beclear_int.xc:338:29: error: call to `src_us3_voice_get_next_sample\' in `UserBufferManagement\' makes alias of global \'asrUS3\'\n                asrOutput = src_us3_voice_get_next_sample(asrUS3.delayLine,\n                            ^~~~~~~~~~~~~~~~~~~~~~~~~~~~~~~~~~~~~~~~~~~~~~~"
	.globpassesref src_us3_voice_get_next_sample, src_ff3v_fir_coefs,"C:/Users/user/workspace/module_vocalfusion/src/beclear_int.xc:334:26: error: call to `src_us3_voice_get_next_sample\' in `UserBufferManagement\' makes alias of global \'src_ff3v_fir_coefs\'\n            commOutput = src_us3_voice_get_next_sample(commsUS3.delayLine,\n                         ^~~~~~~~~~~~~~~~~~~~~~~~~~~~~~~~~~~~~~~~~~~~~~~~~"
	.globpassesref src_us3_voice_get_next_sample, usage.anon.26,"C:/Users/user/workspace/module_vocalfusion/src/beclear_int.xc:334:26: error: call to `src_us3_voice_get_next_sample\' in `UserBufferManagement\' makes alias of global \'commsUS3\'\n            commOutput = src_us3_voice_get_next_sample(commsUS3.delayLine,\n                         ^~~~~~~~~~~~~~~~~~~~~~~~~~~~~~~~~~~~~~~~~~~~~~~~~"
	.globpassesref src_us3_voice_input_sample, src_ff3v_fir_coefs,"C:/Users/user/workspace/module_vocalfusion/src/beclear_int.xc:326:29: error: call to `src_us3_voice_input_sample\' in `UserBufferManagement\' makes alias of global \'src_ff3v_fir_coefs\'\n                asrOutput = src_us3_voice_input_sample(asrUS3.delayLine,\n                            ^~~~~~~~~~~~~~~~~~~~~~~~~~~~~~~~~~~~~~~~~~~~"
	.globpassesref src_us3_voice_input_sample, usage.anon.25,"C:/Users/user/workspace/module_vocalfusion/src/beclear_int.xc:326:29: error: call to `src_us3_voice_input_sample\' in `UserBufferManagement\' makes alias of global \'asrUS3\'\n                asrOutput = src_us3_voice_input_sample(asrUS3.delayLine,\n                            ^~~~~~~~~~~~~~~~~~~~~~~~~~~~~~~~~~~~~~~~~~~~"
	.globpassesref src_us3_voice_input_sample, src_ff3v_fir_coefs,"C:/Users/user/workspace/module_vocalfusion/src/beclear_int.xc:321:26: error: call to `src_us3_voice_input_sample\' in `UserBufferManagement\' makes alias of global \'src_ff3v_fir_coefs\'\n            commOutput = src_us3_voice_input_sample(commsUS3.delayLine,\n                         ^~~~~~~~~~~~~~~~~~~~~~~~~~~~~~~~~~~~~~~~~~~~~~"
	.globpassesref src_us3_voice_input_sample, usage.anon.26,"C:/Users/user/workspace/module_vocalfusion/src/beclear_int.xc:321:26: error: call to `src_us3_voice_input_sample\' in `UserBufferManagement\' makes alias of global \'commsUS3\'\n            commOutput = src_us3_voice_input_sample(commsUS3.delayLine,\n                         ^~~~~~~~~~~~~~~~~~~~~~~~~~~~~~~~~~~~~~~~~~~~~~"
	.globpassesref src_ds3_voice_add_sample, src_ff3v_fir_coefs,"C:/Users/user/workspace/module_vocalfusion/src/beclear_int.xc:274:35: error: call to `src_ds3_voice_add_sample\' in `UserBufferManagement\' makes alias of global \'src_ff3v_fir_coefs\'\n                usbAecDs3Sum[i] = src_ds3_voice_add_sample(usbAecDs3Sum[i],\n                                  ^~~~~~~~~~~~~~~~~~~~~~~~~~~~~~~~~~~~~~~~~"
	.globpassesref src_ds3_voice_add_sample, usage.anon.23,"C:/Users/user/workspace/module_vocalfusion/src/beclear_int.xc:274:35: error: call to `src_ds3_voice_add_sample\' in `UserBufferManagement\' makes alias of global \'usbAecDS3\'\n                usbAecDs3Sum[i] = src_ds3_voice_add_sample(usbAecDs3Sum[i],\n                                  ^~~~~~~~~~~~~~~~~~~~~~~~~~~~~~~~~~~~~~~~~"
	.globpassesref src_ds3_voice_add_final_sample, src_ff3v_fir_coefs,"C:/Users/user/workspace/module_vocalfusion/src/beclear_int.xc:263:31: error: call to `src_ds3_voice_add_final_sample\' in `UserBufferManagement\' makes alias of global \'src_ff3v_fir_coefs\'\n                inputFar[i] = src_ds3_voice_add_final_sample(usbAecDs3Sum[i],\n                              ^~~~~~~~~~~~~~~~~~~~~~~~~~~~~~~~~~~~~~~~~~~~~~~"
	.globpassesref src_ds3_voice_add_final_sample, usage.anon.23,"C:/Users/user/workspace/module_vocalfusion/src/beclear_int.xc:263:31: error: call to `src_ds3_voice_add_final_sample\' in `UserBufferManagement\' makes alias of global \'usbAecDS3\'\n                inputFar[i] = src_ds3_voice_add_final_sample(usbAecDs3Sum[i],\n                              ^~~~~~~~~~~~~~~~~~~~~~~~~~~~~~~~~~~~~~~~~~~~~~~"

                                        # End of file scope inline assembly
	.text
	.globl	_i.audManage_if.BeclearBuff._c0.transfer_samples
	.align	4
	.type	_i.audManage_if.BeclearBuff._c0.transfer_samples,@function
	.cc_top _i.audManage_if.BeclearBuff._c0.transfer_samples.function,_i.audManage_if.BeclearBuff._c0.transfer_samples
_i.audManage_if.BeclearBuff._c0.transfer_samples: # @_i.audManage_if.BeclearBuff._c0.transfer_samples
.Lfunc_begin0:
	.loc	1 89 0                  # C:/Users/user/workspace/module_vocalfusion/src/beclear_int.xc:89:0
	.cfi_startproc
	.issue_mode dual
# BB#0:                                 # %allocas
	{
		nop
		dualentsp 8
	}
.Ltmp0:
	.cfi_def_cfa_offset 32
.Ltmp1:
	.cfi_offset 15, 0
	std r5, r4, sp[1]               # 4-byte Folded Spill
.Ltmp2:
	.cfi_offset 4, -24
.Ltmp3:
	.cfi_offset 5, -20
	std r7, r6, sp[2]               # 4-byte Folded Spill
.Ltmp4:
	.cfi_offset 6, -16
.Ltmp5:
	.cfi_offset 7, -12
	{
		nop
		stw r8, sp[6]
	}
.Ltmp6:
	.cfi_offset 8, -8
	#DEBUG_VALUE: _i.audManage_if.BeclearBuff._c0.transfer_samples:p <- R0
	#DEBUG_VALUE: _i.audManage_if.BeclearBuff._c0.transfer_samples:in_mic_buf <- R1
	#DEBUG_VALUE: _i.audManage_if.BeclearBuff._c0.transfer_samples:in_spk_buf <- R2
	#DEBUG_VALUE: _i.audManage_if.BeclearBuff._c0.transfer_samples:out_mic_buf <- R3
	#DEBUG_VALUE: _i.audManage_if.BeclearBuff._c0.transfer_samples:out_spk_buf <- [SP+36]
	ldd r3, r11, sp[5]
.Ltmp7:
	{
		nop
		ldw r4, r0[0]
	}
.Ltmp8:
.LBB0_1:                                # %allocas
                                        # =>This Inner Loop Header: Depth=1
	{
		nop
		ldw r0, r4[0]
	}
	bf r0, .LBB0_1
# BB#2:                                 # %ifdone
.Ltmp9:
	#DEBUG_VALUE: _i.audManage_if.BeclearBuff._c0.transfer_samples:in_mic_buf <- R1
	#DEBUG_VALUE: _i.audManage_if.BeclearBuff._c0.transfer_samples:in_spk_buf <- R2
	#DEBUG_VALUE: _i.audManage_if.BeclearBuff._c0.transfer_samples:out_mic_buf <- R3
	#DEBUG_VALUE: _i.audManage_if.BeclearBuff._c0.transfer_samples:out_spk_buf <- [SP+36]
	{
		ldc r0, 0
		nop
	}
.Ltmp10:
	#DEBUG_VALUE: i <- 0
	{
		ldc r5, 4
		stw r0, r4[0]
	}
.Ltmp11:
.LBB0_3:                                # %LoopBody23
                                        # =>This Inner Loop Header: Depth=1
.Lxtalabel0:
	#DEBUG_VALUE: _i.audManage_if.BeclearBuff._c0.transfer_samples:in_mic_buf <- R1
	#DEBUG_VALUE: _i.audManage_if.BeclearBuff._c0.transfer_samples:in_spk_buf <- R2
	#DEBUG_VALUE: _i.audManage_if.BeclearBuff._c0.transfer_samples:out_mic_buf <- R3
	#DEBUG_VALUE: _i.audManage_if.BeclearBuff._c0.transfer_samples:out_spk_buf <- [SP+36]
	#DEBUG_VALUE: i <- 0
	.loc	1 94 0 prologue_end     # C:/Users/user/workspace/module_vocalfusion/src/beclear_int.xc:94:0
	{
		lsu r6, r0, r11
		nop
	}
.Ltrap_info0:
	{
		ecallf r6
		nop
	}
	#DEBUG_VALUE: _i.audManage_if.BeclearBuff._c0.transfer_samples:in_mic_buf <- R1
	#DEBUG_VALUE: _i.audManage_if.BeclearBuff._c0.transfer_samples:in_spk_buf <- R2
	#DEBUG_VALUE: _i.audManage_if.BeclearBuff._c0.transfer_samples:out_mic_buf <- R3
	#DEBUG_VALUE: _i.audManage_if.BeclearBuff._c0.transfer_samples:out_spk_buf <- [SP+36]
	#DEBUG_VALUE: i <- 0
	.loc	1 94 0                  # C:/Users/user/workspace/module_vocalfusion/src/beclear_int.xc:94:0
	ldw r6, dp[mics1]
	{
		nop
		ldw r6, r6[r0]
	}
	{
		nop
		ldw r7, r4[4]
	}
	{
		nop
		ldw r8, r1[r0]
	}
	.loc	1 94 0                  # C:/Users/user/workspace/module_vocalfusion/src/beclear_int.xc:94:0
	stw r8, r6[r7]
	.loc	1 92 0                  # C:/Users/user/workspace/module_vocalfusion/src/beclear_int.xc:92:0
	{
		add r0, r0, 1
		nop
	}
.Ltmp12:
	#DEBUG_VALUE: i <- R0
	.loc	1 92 0                  # C:/Users/user/workspace/module_vocalfusion/src/beclear_int.xc:92:0
	{
		lss r6, r0, r5
		nop
	}
.Lxta.loop_labels0:
	# LOOPMARKER 0
	bt r6, .LBB0_3
.Ltmp13:
# BB#4:                                 # %LoopBody43
.Lxtalabel1:
	#DEBUG_VALUE: _i.audManage_if.BeclearBuff._c0.transfer_samples:in_spk_buf <- R2
	#DEBUG_VALUE: _i.audManage_if.BeclearBuff._c0.transfer_samples:out_mic_buf <- R3
	#DEBUG_VALUE: _i.audManage_if.BeclearBuff._c0.transfer_samples:out_spk_buf <- [SP+36]
	#DEBUG_VALUE: i <- 0
.Ltrap_info1:
	{
		ecallf r3
		nop
	}
	#DEBUG_VALUE: _i.audManage_if.BeclearBuff._c0.transfer_samples:in_spk_buf <- R2
	#DEBUG_VALUE: _i.audManage_if.BeclearBuff._c0.transfer_samples:out_mic_buf <- R3
	#DEBUG_VALUE: _i.audManage_if.BeclearBuff._c0.transfer_samples:out_spk_buf <- [SP+36]
	#DEBUG_VALUE: i <- 0
	.loc	1 99 0                  # C:/Users/user/workspace/module_vocalfusion/src/beclear_int.xc:99:0
.Ltmp14:
	ldw r0, dp[far1]
	{
		nop
		ldw r0, r0[0]
	}
	{
		nop
		ldw r1, r4[4]
	}
	{
		nop
		ldw r2, r2[0]
	}
.Ltmp15:
	.loc	1 99 0                  # C:/Users/user/workspace/module_vocalfusion/src/beclear_int.xc:99:0
	stw r2, r0[r1]
.Ltmp16:
	#DEBUG_VALUE: i <- 1
	{
		nop
		ldw r0, r4[4]
	}
.Ltmp17:
	.loc	1 102 0                 # C:/Users/user/workspace/module_vocalfusion/src/beclear_int.xc:102:0
	{
		add r0, r0, 1
		nop
	}
	.loc	1 102 0                 # C:/Users/user/workspace/module_vocalfusion/src/beclear_int.xc:102:0
	{
		shr r0, r0, 8
		stw r0, r4[4]
	}
	bf r0, .LBB0_6
.Ltmp18:
# BB#5:                                 # %iftrue65
.Lxtalabel2:
	#DEBUG_VALUE: _i.audManage_if.BeclearBuff._c0.transfer_samples:out_mic_buf <- R3
	#DEBUG_VALUE: _i.audManage_if.BeclearBuff._c0.transfer_samples:out_spk_buf <- [SP+36]
	{
		nop
		ldw r1, r4[3]
	}
	{
		nop
		ldw r0, r1[0]
	}
	{
		nop
		ldw r1, r1[1]
	}
	{
		nop
		ldw r1, r1[0]
	}
.Lxta.call_labels0:
	{
		nop
		bla r1
	}
.Ltmp19:
	{
		ldc r0, 0
		nop
	}
	{
		nop
		stw r0, r4[4]
	}
.Ltmp20:
.LBB0_6:                                # %ifdone66
.Lxtalabel3:
	#DEBUG_VALUE: _i.audManage_if.BeclearBuff._c0.transfer_samples:out_mic_buf <- R3
	#DEBUG_VALUE: _i.audManage_if.BeclearBuff._c0.transfer_samples:out_spk_buf <- [SP+36]
	{
		mkmsk r0, 1
		nop
	}
	{
		nop
		stw r0, r4[0]
	}
	{
		nop
		ldw r8, sp[6]
	}
	ldd r7, r6, sp[2]               # 4-byte Folded Reload
	ldd r5, r4, sp[1]               # 4-byte Folded Reload
	{
		nop
		retsp 8
	}
.Ltmp21:
	# RETURN_REG_HOLDER
	.cc_bottom _i.audManage_if.BeclearBuff._c0.transfer_samples.function
	.set	_i.audManage_if.BeclearBuff._c0.transfer_samples.nstackwords,(_i.beclear_if.swap_buffers.max.nstackwords + 8)
	.globl	_i.audManage_if.BeclearBuff._c0.transfer_samples.nstackwords
	.set	_i.audManage_if.BeclearBuff._c0.transfer_samples.maxcores,_i.beclear_if.swap_buffers.max.maxcores $M 1
	.globl	_i.audManage_if.BeclearBuff._c0.transfer_samples.maxcores
	.set	_i.audManage_if.BeclearBuff._c0.transfer_samples.maxtimers,_i.beclear_if.swap_buffers.max.maxtimers $M 0
	.globl	_i.audManage_if.BeclearBuff._c0.transfer_samples.maxtimers
	.set	_i.audManage_if.BeclearBuff._c0.transfer_samples.maxchanends,_i.beclear_if.swap_buffers.max.maxchanends $M 0
	.globl	_i.audManage_if.BeclearBuff._c0.transfer_samples.maxchanends
.Ltmp22:
	.size	_i.audManage_if.BeclearBuff._c0.transfer_samples, .Ltmp22-_i.audManage_if.BeclearBuff._c0.transfer_samples
.Lfunc_end0:
	.cfi_endproc

	.globl	_i.audManage_if.BeclearBuff._c0.transfer_buffers
	.align	4
	.type	_i.audManage_if.BeclearBuff._c0.transfer_buffers,@function
	.cc_top _i.audManage_if.BeclearBuff._c0.transfer_buffers.function,_i.audManage_if.BeclearBuff._c0.transfer_buffers
_i.audManage_if.BeclearBuff._c0.transfer_buffers: # @_i.audManage_if.BeclearBuff._c0.transfer_buffers
	.cfi_startproc
	.issue_mode dual
# BB#0:                                 # %allocas
	{
		nop
		dualentsp 0
	}
	#DEBUG_VALUE: _i.audManage_if.BeclearBuff._c0.transfer_buffers:param.0 <- R0
	#DEBUG_VALUE: _i.audManage_if.BeclearBuff._c0.transfer_buffers:param.1 <- R1
	#DEBUG_VALUE: _i.audManage_if.BeclearBuff._c0.transfer_buffers:param.2 <- R2
	#DEBUG_VALUE: _i.audManage_if.BeclearBuff._c0.transfer_buffers:param.3 <- R3
	#DEBUG_VALUE: _i.audManage_if.BeclearBuff._c0.transfer_buffers:param.4 <- [SP+4]
.LBB1_1:                                # %LoopTest
                                        # =>This Inner Loop Header: Depth=1
	#DEBUG_VALUE: _i.audManage_if.BeclearBuff._c0.transfer_buffers:param.0 <- R0
	#DEBUG_VALUE: _i.audManage_if.BeclearBuff._c0.transfer_buffers:param.1 <- R1
	#DEBUG_VALUE: _i.audManage_if.BeclearBuff._c0.transfer_buffers:param.2 <- R2
	#DEBUG_VALUE: _i.audManage_if.BeclearBuff._c0.transfer_buffers:param.3 <- R3
	#DEBUG_VALUE: _i.audManage_if.BeclearBuff._c0.transfer_buffers:param.4 <- [SP+4]
	bu .LBB1_1
	.cc_bottom _i.audManage_if.BeclearBuff._c0.transfer_buffers.function
	.set	_i.audManage_if.BeclearBuff._c0.transfer_buffers.nstackwords,0
	.globl	_i.audManage_if.BeclearBuff._c0.transfer_buffers.nstackwords
	.set	_i.audManage_if.BeclearBuff._c0.transfer_buffers.maxcores,1
	.globl	_i.audManage_if.BeclearBuff._c0.transfer_buffers.maxcores
	.set	_i.audManage_if.BeclearBuff._c0.transfer_buffers.maxtimers,0
	.globl	_i.audManage_if.BeclearBuff._c0.transfer_buffers.maxtimers
	.set	_i.audManage_if.BeclearBuff._c0.transfer_buffers.maxchanends,0
	.globl	_i.audManage_if.BeclearBuff._c0.transfer_buffers.maxchanends
.Ltmp23:
	.size	_i.audManage_if.BeclearBuff._c0.transfer_buffers, .Ltmp23-_i.audManage_if.BeclearBuff._c0.transfer_buffers
	.cfi_endproc

	.globl	_i.audManage_if._SBeclearBuff_0._c0.transfer_samples
	.align	4
	.type	_i.audManage_if._SBeclearBuff_0._c0.transfer_samples,@function
	.cc_top _i.audManage_if._SBeclearBuff_0._c0.transfer_samples.function,_i.audManage_if._SBeclearBuff_0._c0.transfer_samples
_i.audManage_if._SBeclearBuff_0._c0.transfer_samples: # @_i.audManage_if._SBeclearBuff_0._c0.transfer_samples
.Lfunc_begin2:
	.loc	1 89 0                  # C:/Users/user/workspace/module_vocalfusion/src/beclear_int.xc:89:0
	.cfi_startproc
	.issue_mode dual
# BB#0:                                 # %allocas
	{
		nop
		dualentsp 8
	}
.Ltmp24:
	.cfi_def_cfa_offset 32
.Ltmp25:
	.cfi_offset 15, 0
	std r5, r4, sp[1]               # 4-byte Folded Spill
.Ltmp26:
	.cfi_offset 4, -24
.Ltmp27:
	.cfi_offset 5, -20
	std r7, r6, sp[2]               # 4-byte Folded Spill
.Ltmp28:
	.cfi_offset 6, -16
.Ltmp29:
	.cfi_offset 7, -12
	{
		nop
		stw r8, sp[6]
	}
.Ltmp30:
	.cfi_offset 8, -8
	#DEBUG_VALUE: _i.audManage_if._SBeclearBuff_0._c0.transfer_samples:p <- R0
	#DEBUG_VALUE: _i.audManage_if._SBeclearBuff_0._c0.transfer_samples:in_mic_buf <- R1
	#DEBUG_VALUE: _i.audManage_if._SBeclearBuff_0._c0.transfer_samples:in_spk_buf <- R2
	#DEBUG_VALUE: _i.audManage_if._SBeclearBuff_0._c0.transfer_samples:out_mic_buf <- R3
	#DEBUG_VALUE: _i.audManage_if._SBeclearBuff_0._c0.transfer_samples:out_spk_buf <- [SP+36]
	ldd r3, r11, sp[5]
.Ltmp31:
	{
		nop
		ldw r4, r0[0]
	}
.Ltmp32:
.LBB2_1:                                # %allocas
                                        # =>This Inner Loop Header: Depth=1
	{
		nop
		ldw r0, r4[0]
	}
	bf r0, .LBB2_1
# BB#2:                                 # %ifdone
.Ltmp33:
	#DEBUG_VALUE: _i.audManage_if._SBeclearBuff_0._c0.transfer_samples:in_mic_buf <- R1
	#DEBUG_VALUE: _i.audManage_if._SBeclearBuff_0._c0.transfer_samples:in_spk_buf <- R2
	#DEBUG_VALUE: _i.audManage_if._SBeclearBuff_0._c0.transfer_samples:out_mic_buf <- R3
	#DEBUG_VALUE: _i.audManage_if._SBeclearBuff_0._c0.transfer_samples:out_spk_buf <- [SP+36]
	{
		ldc r0, 0
		nop
	}
.Ltmp34:
	#DEBUG_VALUE: i <- 0
	{
		ldc r5, 4
		stw r0, r4[0]
	}
.Ltmp35:
.LBB2_3:                                # %LoopBody23
                                        # =>This Inner Loop Header: Depth=1
.Lxtalabel4:
	#DEBUG_VALUE: _i.audManage_if._SBeclearBuff_0._c0.transfer_samples:in_mic_buf <- R1
	#DEBUG_VALUE: _i.audManage_if._SBeclearBuff_0._c0.transfer_samples:in_spk_buf <- R2
	#DEBUG_VALUE: _i.audManage_if._SBeclearBuff_0._c0.transfer_samples:out_mic_buf <- R3
	#DEBUG_VALUE: _i.audManage_if._SBeclearBuff_0._c0.transfer_samples:out_spk_buf <- [SP+36]
	#DEBUG_VALUE: i <- 0
	.loc	1 94 0 prologue_end     # C:/Users/user/workspace/module_vocalfusion/src/beclear_int.xc:94:0
	{
		lsu r6, r0, r11
		nop
	}
.Ltrap_info2:
	{
		ecallf r6
		nop
	}
	#DEBUG_VALUE: _i.audManage_if._SBeclearBuff_0._c0.transfer_samples:in_mic_buf <- R1
	#DEBUG_VALUE: _i.audManage_if._SBeclearBuff_0._c0.transfer_samples:in_spk_buf <- R2
	#DEBUG_VALUE: _i.audManage_if._SBeclearBuff_0._c0.transfer_samples:out_mic_buf <- R3
	#DEBUG_VALUE: _i.audManage_if._SBeclearBuff_0._c0.transfer_samples:out_spk_buf <- [SP+36]
	#DEBUG_VALUE: i <- 0
	.loc	1 94 0                  # C:/Users/user/workspace/module_vocalfusion/src/beclear_int.xc:94:0
	ldw r6, dp[mics1]
	{
		nop
		ldw r6, r6[r0]
	}
	{
		nop
		ldw r7, r4[4]
	}
	{
		nop
		ldw r8, r1[r0]
	}
	.loc	1 94 0                  # C:/Users/user/workspace/module_vocalfusion/src/beclear_int.xc:94:0
	stw r8, r6[r7]
	.loc	1 92 0                  # C:/Users/user/workspace/module_vocalfusion/src/beclear_int.xc:92:0
	{
		add r0, r0, 1
		nop
	}
.Ltmp36:
	#DEBUG_VALUE: i <- R0
	.loc	1 92 0                  # C:/Users/user/workspace/module_vocalfusion/src/beclear_int.xc:92:0
	{
		lss r6, r0, r5
		nop
	}
.Lxta.loop_labels1:
	# LOOPMARKER 0
	bt r6, .LBB2_3
.Ltmp37:
# BB#4:                                 # %LoopBody43
.Lxtalabel5:
	#DEBUG_VALUE: _i.audManage_if._SBeclearBuff_0._c0.transfer_samples:in_spk_buf <- R2
	#DEBUG_VALUE: _i.audManage_if._SBeclearBuff_0._c0.transfer_samples:out_mic_buf <- R3
	#DEBUG_VALUE: _i.audManage_if._SBeclearBuff_0._c0.transfer_samples:out_spk_buf <- [SP+36]
	#DEBUG_VALUE: i <- 0
.Ltrap_info3:
	{
		ecallf r3
		nop
	}
	#DEBUG_VALUE: _i.audManage_if._SBeclearBuff_0._c0.transfer_samples:in_spk_buf <- R2
	#DEBUG_VALUE: _i.audManage_if._SBeclearBuff_0._c0.transfer_samples:out_mic_buf <- R3
	#DEBUG_VALUE: _i.audManage_if._SBeclearBuff_0._c0.transfer_samples:out_spk_buf <- [SP+36]
	#DEBUG_VALUE: i <- 0
	.loc	1 99 0                  # C:/Users/user/workspace/module_vocalfusion/src/beclear_int.xc:99:0
.Ltmp38:
	ldw r0, dp[far1]
	{
		nop
		ldw r0, r0[0]
	}
	{
		nop
		ldw r1, r4[4]
	}
	{
		nop
		ldw r2, r2[0]
	}
.Ltmp39:
	.loc	1 99 0                  # C:/Users/user/workspace/module_vocalfusion/src/beclear_int.xc:99:0
	stw r2, r0[r1]
.Ltmp40:
	#DEBUG_VALUE: i <- 1
	{
		nop
		ldw r0, r4[4]
	}
.Ltmp41:
	.loc	1 102 0                 # C:/Users/user/workspace/module_vocalfusion/src/beclear_int.xc:102:0
	{
		add r0, r0, 1
		nop
	}
	.loc	1 102 0                 # C:/Users/user/workspace/module_vocalfusion/src/beclear_int.xc:102:0
	{
		shr r0, r0, 8
		stw r0, r4[4]
	}
	bf r0, .LBB2_6
.Ltmp42:
# BB#5:                                 # %iftrue65
.Lxtalabel6:
	#DEBUG_VALUE: _i.audManage_if._SBeclearBuff_0._c0.transfer_samples:out_mic_buf <- R3
	#DEBUG_VALUE: _i.audManage_if._SBeclearBuff_0._c0.transfer_samples:out_spk_buf <- [SP+36]
	{
		nop
		ldw r0, r4[3]
	}
	{
		nop
		ldw r0, r0[0]
	}
	.loc	1 106 0                 # C:/Users/user/workspace/module_vocalfusion/src/beclear_int.xc:106:0
.Lxta.call_labels1:
	bl _i.beclear_if._chan.swap_buffers
.Ltmp43:
	{
		ldc r0, 0
		nop
	}
	{
		nop
		stw r0, r4[4]
	}
.Ltmp44:
.LBB2_6:                                # %ifdone66
.Lxtalabel7:
	#DEBUG_VALUE: _i.audManage_if._SBeclearBuff_0._c0.transfer_samples:out_mic_buf <- R3
	#DEBUG_VALUE: _i.audManage_if._SBeclearBuff_0._c0.transfer_samples:out_spk_buf <- [SP+36]
	{
		mkmsk r0, 1
		nop
	}
	{
		nop
		stw r0, r4[0]
	}
	{
		nop
		ldw r8, sp[6]
	}
	ldd r7, r6, sp[2]               # 4-byte Folded Reload
	ldd r5, r4, sp[1]               # 4-byte Folded Reload
	{
		nop
		retsp 8
	}
.Ltmp45:
	# RETURN_REG_HOLDER
	.cc_bottom _i.audManage_if._SBeclearBuff_0._c0.transfer_samples.function
	.set	_i.audManage_if._SBeclearBuff_0._c0.transfer_samples.nstackwords,(($D _i.beclear_if._chan.swap_buffers.nstackwords ? _i.beclear_if._chan.swap_buffers.nstackwords $: _i.beclear_if.swap_buffers.max.nstackwords) + 8)
	.globl	_i.audManage_if._SBeclearBuff_0._c0.transfer_samples.nstackwords
	.set	_i.audManage_if._SBeclearBuff_0._c0.transfer_samples.maxcores,($D _i.beclear_if._chan.swap_buffers.maxcores ? _i.beclear_if._chan.swap_buffers.maxcores $: _i.beclear_if.swap_buffers.max.maxcores) $M 1
	.globl	_i.audManage_if._SBeclearBuff_0._c0.transfer_samples.maxcores
	.set	_i.audManage_if._SBeclearBuff_0._c0.transfer_samples.maxtimers,($D _i.beclear_if._chan.swap_buffers.maxtimers ? _i.beclear_if._chan.swap_buffers.maxtimers $: _i.beclear_if.swap_buffers.max.maxtimers) $M 0
	.globl	_i.audManage_if._SBeclearBuff_0._c0.transfer_samples.maxtimers
	.set	_i.audManage_if._SBeclearBuff_0._c0.transfer_samples.maxchanends,($D _i.beclear_if._chan.swap_buffers.maxchanends ? _i.beclear_if._chan.swap_buffers.maxchanends $: _i.beclear_if.swap_buffers.max.maxchanends) $M 0
	.globl	_i.audManage_if._SBeclearBuff_0._c0.transfer_samples.maxchanends
.Ltmp46:
	.size	_i.audManage_if._SBeclearBuff_0._c0.transfer_samples, .Ltmp46-_i.audManage_if._SBeclearBuff_0._c0.transfer_samples
.Lfunc_end2:
	.cfi_endproc

	.globl	_i.audManage_if._SBeclearBuff_0._c0.transfer_buffers
	.align	4
	.type	_i.audManage_if._SBeclearBuff_0._c0.transfer_buffers,@function
	.cc_top _i.audManage_if._SBeclearBuff_0._c0.transfer_buffers.function,_i.audManage_if._SBeclearBuff_0._c0.transfer_buffers
_i.audManage_if._SBeclearBuff_0._c0.transfer_buffers: # @_i.audManage_if._SBeclearBuff_0._c0.transfer_buffers
	.cfi_startproc
	.issue_mode dual
# BB#0:                                 # %allocas
	{
		nop
		dualentsp 0
	}
	#DEBUG_VALUE: _i.audManage_if._SBeclearBuff_0._c0.transfer_buffers:param.0 <- R0
	#DEBUG_VALUE: _i.audManage_if._SBeclearBuff_0._c0.transfer_buffers:param.1 <- R1
	#DEBUG_VALUE: _i.audManage_if._SBeclearBuff_0._c0.transfer_buffers:param.2 <- R2
	#DEBUG_VALUE: _i.audManage_if._SBeclearBuff_0._c0.transfer_buffers:param.3 <- R3
	#DEBUG_VALUE: _i.audManage_if._SBeclearBuff_0._c0.transfer_buffers:param.4 <- [SP+4]
.LBB3_1:                                # %LoopTest
                                        # =>This Inner Loop Header: Depth=1
	#DEBUG_VALUE: _i.audManage_if._SBeclearBuff_0._c0.transfer_buffers:param.0 <- R0
	#DEBUG_VALUE: _i.audManage_if._SBeclearBuff_0._c0.transfer_buffers:param.1 <- R1
	#DEBUG_VALUE: _i.audManage_if._SBeclearBuff_0._c0.transfer_buffers:param.2 <- R2
	#DEBUG_VALUE: _i.audManage_if._SBeclearBuff_0._c0.transfer_buffers:param.3 <- R3
	#DEBUG_VALUE: _i.audManage_if._SBeclearBuff_0._c0.transfer_buffers:param.4 <- [SP+4]
	bu .LBB3_1
	.cc_bottom _i.audManage_if._SBeclearBuff_0._c0.transfer_buffers.function
	.set	_i.audManage_if._SBeclearBuff_0._c0.transfer_buffers.nstackwords,0
	.globl	_i.audManage_if._SBeclearBuff_0._c0.transfer_buffers.nstackwords
	.set	_i.audManage_if._SBeclearBuff_0._c0.transfer_buffers.maxcores,1
	.globl	_i.audManage_if._SBeclearBuff_0._c0.transfer_buffers.maxcores
	.set	_i.audManage_if._SBeclearBuff_0._c0.transfer_buffers.maxtimers,0
	.globl	_i.audManage_if._SBeclearBuff_0._c0.transfer_buffers.maxtimers
	.set	_i.audManage_if._SBeclearBuff_0._c0.transfer_buffers.maxchanends,0
	.globl	_i.audManage_if._SBeclearBuff_0._c0.transfer_buffers.maxchanends
.Ltmp47:
	.size	_i.audManage_if._SBeclearBuff_0._c0.transfer_buffers, .Ltmp47-_i.audManage_if._SBeclearBuff_0._c0.transfer_buffers
	.cfi_endproc

	.weak	_i.audManage_if._chan.transfer_samples
	.align	4
	.type	_i.audManage_if._chan.transfer_samples,@function
	.cc_top _i.audManage_if._chan.transfer_samples.function,_i.audManage_if._chan.transfer_samples
_i.audManage_if._chan.transfer_samples: # @_i.audManage_if._chan.transfer_samples
	.cfi_startproc
	.issue_mode dual
# BB#0:                                 # %allocas
	{
		nop
		dualentsp 14
	}
.Ltmp48:
	.cfi_def_cfa_offset 56
.Ltmp49:
	.cfi_offset 15, 0
	std r5, r4, sp[3]               # 4-byte Folded Spill
.Ltmp50:
	.cfi_offset 4, -32
.Ltmp51:
	.cfi_offset 5, -28
	std r7, r6, sp[4]               # 4-byte Folded Spill
.Ltmp52:
	.cfi_offset 6, -24
.Ltmp53:
	.cfi_offset 7, -20
	std r9, r8, sp[5]               # 4-byte Folded Spill
.Ltmp54:
	.cfi_offset 8, -16
.Ltmp55:
	.cfi_offset 9, -12
	{
		nop
		stw r10, sp[12]
	}
.Ltmp56:
	.cfi_offset 10, -8
	#DEBUG_VALUE: _i.audManage_if._chan.transfer_samples:dest <- R0
	#DEBUG_VALUE: _i.audManage_if._chan.transfer_samples:param1 <- R1
	#DEBUG_VALUE: _i.audManage_if._chan.transfer_samples:param2 <- R2
	#DEBUG_VALUE: _i.audManage_if._chan.transfer_samples:param3 <- R3
	#DEBUG_VALUE: _i.audManage_if._chan.transfer_samples:param4 <- [SP+60]
	#DEBUG_VALUE: _i.audManage_if._chan.transfer_samples:param3 <- [SP+4]
	#DEBUG_VALUE: _i.audManage_if._chan.transfer_samples:param2 <- R6
	{
		mov r6, r2
		stw r3, sp[1]
	}
	{
		mov r7, r1
		nop
	}
	#DEBUG_VALUE: _i.audManage_if._chan.transfer_samples:param1 <- R7
	ldd r10, r9, sp[9]
	ldd r4, r8, sp[8]
	{
		ldc r1, 0
		nop
	}
	{
		nop
		stw r1, sp[4]
	}
	{
		nop
		stw r1, sp[3]
	}
	{
		getr r5, 2
		stw r1, sp[2]
	}
	{
		setd res[r5], r0
		add r0, r5, 1
	}
	{
		out res[r5], r0
		nop
	}
	{
		outct res[r5], 2
		mov r0, r5
	}
	bl __interface_wait_and_yield
	{
		chkct res[r5], 1
		nop
	}
	{
		out res[r5], r8
		stw r7, sp[2]
	}
	{
		out res[r5], r4
		stw r6, sp[3]
	}
	{
		out res[r5], r9
		ldw r0, sp[1]
	}
	{
		out res[r5], r10
		stw r0, sp[4]
	}
	{
		nop
		ldw r0, sp[15]
	}
	{
		outct res[r5], 2
		stw r0, sp[5]
	}
	{
		ldaw r1, sp[2]
		mov r0, r5
	}
	bl __interface_client_call
	{
		chkct res[r5], 1
		nop
	}
	{
		freer res[r5]
		ldw r10, sp[12]
	}
	ldd r9, r8, sp[5]               # 4-byte Folded Reload
	ldd r7, r6, sp[4]               # 4-byte Folded Reload
	ldd r5, r4, sp[3]               # 4-byte Folded Reload
	{
		nop
		retsp 14
	}
	# RETURN_REG_HOLDER
	.cc_bottom _i.audManage_if._chan.transfer_samples.function
	.set	_i.audManage_if._chan.transfer_samples.nstackwords,((_i.audManage_if._client_call_y.max.nstackwords $M ($D __interface_wait_and_yield.nstackwords ? __interface_wait_and_yield.nstackwords $: _i.audManage_if._client_call_y.max.nstackwords) $M __interface_client_call.nstackwords) + 14)
	.globl	_i.audManage_if._chan.transfer_samples.nstackwords
	.weak	_i.audManage_if._chan.transfer_samples.nstackwords
	.set	_i.audManage_if._chan.transfer_samples.maxcores,__interface_client_call.maxcores $M ($D __interface_wait_and_yield.maxcores ? __interface_wait_and_yield.maxcores $: _i.audManage_if._client_call_y.max.maxcores) $M 1
	.globl	_i.audManage_if._chan.transfer_samples.maxcores
	.weak	_i.audManage_if._chan.transfer_samples.maxcores
	.set	_i.audManage_if._chan.transfer_samples.maxtimers,__interface_client_call.maxtimers $M ($D __interface_wait_and_yield.maxtimers ? __interface_wait_and_yield.maxtimers $: _i.audManage_if._client_call_y.max.maxtimers) $M 0
	.globl	_i.audManage_if._chan.transfer_samples.maxtimers
	.weak	_i.audManage_if._chan.transfer_samples.maxtimers
	.set	_i.audManage_if._chan.transfer_samples.maxchanends,(1 + __interface_client_call.maxchanends) $M (1 + ($D __interface_wait_and_yield.maxchanends ? __interface_wait_and_yield.maxchanends $: _i.audManage_if._client_call_y.max.maxchanends)) $M 1
	.globl	_i.audManage_if._chan.transfer_samples.maxchanends
	.weak	_i.audManage_if._chan.transfer_samples.maxchanends
.Ltmp57:
	.size	_i.audManage_if._chan.transfer_samples, .Ltmp57-_i.audManage_if._chan.transfer_samples
	.cfi_endproc

	.weak	_i.audManage_if._chan.transfer_buffers
	.align	4
	.type	_i.audManage_if._chan.transfer_buffers,@function
	.cc_top _i.audManage_if._chan.transfer_buffers.function,_i.audManage_if._chan.transfer_buffers
_i.audManage_if._chan.transfer_buffers: # @_i.audManage_if._chan.transfer_buffers
	.cfi_startproc
	.issue_mode dual
# BB#0:                                 # %allocas
	{
		nop
		dualentsp 8
	}
.Ltmp58:
	.cfi_def_cfa_offset 32
.Ltmp59:
	.cfi_offset 15, 0
	std r5, r4, sp[1]               # 4-byte Folded Spill
.Ltmp60:
	.cfi_offset 4, -24
.Ltmp61:
	.cfi_offset 5, -20
	std r7, r6, sp[2]               # 4-byte Folded Spill
.Ltmp62:
	.cfi_offset 6, -16
.Ltmp63:
	.cfi_offset 7, -12
.Ltmp64:
	.cfi_offset 8, -8
	#DEBUG_VALUE: _i.audManage_if._chan.transfer_buffers:dest <- R0
	#DEBUG_VALUE: _i.audManage_if._chan.transfer_buffers:param1 <- R1
	#DEBUG_VALUE: _i.audManage_if._chan.transfer_buffers:param2 <- R2
	#DEBUG_VALUE: _i.audManage_if._chan.transfer_buffers:param3 <- R3
	#DEBUG_VALUE: _i.audManage_if._chan.transfer_buffers:param4 <- [SP+36]
	#DEBUG_VALUE: _i.audManage_if._chan.transfer_buffers:param3 <- R5
	{
		mov r5, r3
		stw r8, sp[6]
	}
	#DEBUG_VALUE: _i.audManage_if._chan.transfer_buffers:param2 <- R6
	#DEBUG_VALUE: _i.audManage_if._chan.transfer_buffers:param1 <- R7
	{
		mov r6, r2
		mov r7, r1
	}
	{
		getr r4, 2
		ldw r8, sp[9]
	}
	{
		setd res[r4], r0
		nop
	}
	{
		out res[r4], r4
		nop
	}
	{
		outct res[r4], 2
		ldc r1, 0
	}
	{
		mov r0, r4
		nop
	}
	bl __interface_wait_and_yield
	{
		chkct res[r4], 1
		nop
	}
	#APP
	#NO_APP
	{
		out res[r4], r7
		nop
	}
	#APP
	#NO_APP
	{
		out res[r4], r6
		nop
	}
	#APP
	#NO_APP
	{
		out res[r4], r5
		nop
	}
	#APP
	#NO_APP
	{
		out res[r4], r8
		nop
	}
	{
		outct res[r4], 2
		nop
	}
	{
		in r0, res[r4]
		nop
	}
	{
		chkct res[r4], 1
		nop
	}
	{
		freer res[r4]
		ldw r8, sp[6]
	}
	ldd r7, r6, sp[2]               # 4-byte Folded Reload
	ldd r5, r4, sp[1]               # 4-byte Folded Reload
	{
		nop
		retsp 8
	}
	# RETURN_REG_HOLDER
	.cc_bottom _i.audManage_if._chan.transfer_buffers.function
	.set	_i.audManage_if._chan.transfer_buffers.nstackwords,((_i.audManage_if._client_call_y.max.nstackwords $M ($D __interface_wait_and_yield.nstackwords ? __interface_wait_and_yield.nstackwords $: _i.audManage_if._client_call_y.max.nstackwords)) + 8)
	.globl	_i.audManage_if._chan.transfer_buffers.nstackwords
	.weak	_i.audManage_if._chan.transfer_buffers.nstackwords
	.set	_i.audManage_if._chan.transfer_buffers.maxcores,($D __interface_wait_and_yield.maxcores ? __interface_wait_and_yield.maxcores $: _i.audManage_if._client_call_y.max.maxcores) $M 1
	.globl	_i.audManage_if._chan.transfer_buffers.maxcores
	.weak	_i.audManage_if._chan.transfer_buffers.maxcores
	.set	_i.audManage_if._chan.transfer_buffers.maxtimers,($D __interface_wait_and_yield.maxtimers ? __interface_wait_and_yield.maxtimers $: _i.audManage_if._client_call_y.max.maxtimers) $M 0
	.globl	_i.audManage_if._chan.transfer_buffers.maxtimers
	.weak	_i.audManage_if._chan.transfer_buffers.maxtimers
	.set	_i.audManage_if._chan.transfer_buffers.maxchanends,(1 + ($D __interface_wait_and_yield.maxchanends ? __interface_wait_and_yield.maxchanends $: _i.audManage_if._client_call_y.max.maxchanends)) $M 1
	.globl	_i.audManage_if._chan.transfer_buffers.maxchanends
	.weak	_i.audManage_if._chan.transfer_buffers.maxchanends
.Ltmp65:
	.size	_i.audManage_if._chan.transfer_buffers, .Ltmp65-_i.audManage_if._chan.transfer_buffers
	.cfi_endproc

	.weak	_i.audManage_if._chan_yield.transfer_samples
	.align	4
	.type	_i.audManage_if._chan_yield.transfer_samples,@function
	.cc_top _i.audManage_if._chan_yield.transfer_samples.function,_i.audManage_if._chan_yield.transfer_samples
_i.audManage_if._chan_yield.transfer_samples: # @_i.audManage_if._chan_yield.transfer_samples
	.cfi_startproc
	.issue_mode dual
# BB#0:                                 # %allocas
	{
		nop
		dualentsp 16
	}
.Ltmp66:
	.cfi_def_cfa_offset 64
.Ltmp67:
	.cfi_offset 15, 0
	std r5, r4, sp[4]               # 4-byte Folded Spill
.Ltmp68:
	.cfi_offset 4, -32
.Ltmp69:
	.cfi_offset 5, -28
	std r7, r6, sp[5]               # 4-byte Folded Spill
.Ltmp70:
	.cfi_offset 6, -24
.Ltmp71:
	.cfi_offset 7, -20
	std r9, r8, sp[6]               # 4-byte Folded Spill
.Ltmp72:
	.cfi_offset 8, -16
.Ltmp73:
	.cfi_offset 9, -12
	{
		nop
		stw r10, sp[14]
	}
.Ltmp74:
	.cfi_offset 10, -8
	#DEBUG_VALUE: _i.audManage_if._chan_yield.transfer_samples:s <- R0
	#DEBUG_VALUE: _i.audManage_if._chan_yield.transfer_samples:param1 <- R1
	#DEBUG_VALUE: _i.audManage_if._chan_yield.transfer_samples:param2 <- R2
	#DEBUG_VALUE: _i.audManage_if._chan_yield.transfer_samples:param3 <- R3
	#DEBUG_VALUE: _i.audManage_if._chan_yield.transfer_samples:param4 <- [SP+68]
	{
		nop
		stw r3, sp[3]
	}
	#DEBUG_VALUE: _i.audManage_if._chan_yield.transfer_samples:param3 <- [SP+12]
	#DEBUG_VALUE: _i.audManage_if._chan_yield.transfer_samples:param2 <- [SP+8]
	#DEBUG_VALUE: _i.audManage_if._chan_yield.transfer_samples:param1 <- R7
	{
		mov r7, r1
		stw r2, sp[2]
	}
	ldd r10, r9, sp[10]
	ldd r6, r4, sp[9]
	{
		ldc r1, 0
		nop
	}
	{
		nop
		stw r1, sp[6]
	}
	{
		nop
		stw r1, sp[5]
	}
	{
		nop
		stw r1, sp[4]
	}
	{
		getr r5, 2
		ldw r1, r0[0]
	}
	{
		setd res[r5], r1
		add r1, r5, 1
	}
	{
		out res[r5], r1
		nop
	}
	{
		outct res[r5], 2
		ldw r8, r0[1]
	}
	{
		mov r0, r5
		mov r1, r8
	}
	bl __interface_wait_and_yield
	{
		chkct res[r5], 1
		nop
	}
	{
		out res[r5], r4
		stw r7, sp[4]
	}
	{
		out res[r5], r6
		ldw r0, sp[2]
	}
	{
		out res[r5], r9
		stw r0, sp[5]
	}
	{
		nop
		ldw r0, sp[3]
	}
	{
		out res[r5], r10
		stw r0, sp[6]
	}
	{
		nop
		ldw r0, sp[17]
	}
	{
		outct res[r5], 2
		stw r0, sp[7]
	}
	{
		ldaw r1, sp[4]
		mov r0, r5
	}
	{
		mov r2, r8
		nop
	}
	bl __interface_client_call_y
	{
		chkct res[r5], 1
		nop
	}
	{
		freer res[r5]
		ldw r10, sp[14]
	}
	ldd r9, r8, sp[6]               # 4-byte Folded Reload
	ldd r7, r6, sp[5]               # 4-byte Folded Reload
	ldd r5, r4, sp[4]               # 4-byte Folded Reload
	{
		nop
		retsp 16
	}
	# RETURN_REG_HOLDER
	.cc_bottom _i.audManage_if._chan_yield.transfer_samples.function
	.set	_i.audManage_if._chan_yield.transfer_samples.nstackwords,((($D __interface_wait_and_yield.nstackwords ? __interface_wait_and_yield.nstackwords $: _i.audManage_if._client_call_y.max.nstackwords) $M _i.audManage_if._client_call_y.max.nstackwords $M ($D __interface_client_call_y.nstackwords ? __interface_client_call_y.nstackwords $: _i.audManage_if._client_call_y.max.nstackwords)) + 16)
	.globl	_i.audManage_if._chan_yield.transfer_samples.nstackwords
	.weak	_i.audManage_if._chan_yield.transfer_samples.nstackwords
	.set	_i.audManage_if._chan_yield.transfer_samples.maxcores,($D __interface_client_call_y.maxcores ? __interface_client_call_y.maxcores $: _i.audManage_if._client_call_y.max.maxcores) $M ($D __interface_wait_and_yield.maxcores ? __interface_wait_and_yield.maxcores $: _i.audManage_if._client_call_y.max.maxcores) $M 1
	.globl	_i.audManage_if._chan_yield.transfer_samples.maxcores
	.weak	_i.audManage_if._chan_yield.transfer_samples.maxcores
	.set	_i.audManage_if._chan_yield.transfer_samples.maxtimers,($D __interface_client_call_y.maxtimers ? __interface_client_call_y.maxtimers $: _i.audManage_if._client_call_y.max.maxtimers) $M ($D __interface_wait_and_yield.maxtimers ? __interface_wait_and_yield.maxtimers $: _i.audManage_if._client_call_y.max.maxtimers) $M 0
	.globl	_i.audManage_if._chan_yield.transfer_samples.maxtimers
	.weak	_i.audManage_if._chan_yield.transfer_samples.maxtimers
	.set	_i.audManage_if._chan_yield.transfer_samples.maxchanends,(1 + ($D __interface_client_call_y.maxchanends ? __interface_client_call_y.maxchanends $: _i.audManage_if._client_call_y.max.maxchanends)) $M (1 + ($D __interface_wait_and_yield.maxchanends ? __interface_wait_and_yield.maxchanends $: _i.audManage_if._client_call_y.max.maxchanends)) $M 1
	.globl	_i.audManage_if._chan_yield.transfer_samples.maxchanends
	.weak	_i.audManage_if._chan_yield.transfer_samples.maxchanends
.Ltmp75:
	.size	_i.audManage_if._chan_yield.transfer_samples, .Ltmp75-_i.audManage_if._chan_yield.transfer_samples
	.cfi_endproc

	.weak	_i.audManage_if._chan_yield.transfer_buffers
	.align	4
	.type	_i.audManage_if._chan_yield.transfer_buffers,@function
	.cc_top _i.audManage_if._chan_yield.transfer_buffers.function,_i.audManage_if._chan_yield.transfer_buffers
_i.audManage_if._chan_yield.transfer_buffers: # @_i.audManage_if._chan_yield.transfer_buffers
	.cfi_startproc
	.issue_mode dual
# BB#0:                                 # %allocas
	{
		nop
		dualentsp 8
	}
.Ltmp76:
	.cfi_def_cfa_offset 32
.Ltmp77:
	.cfi_offset 15, 0
	std r5, r4, sp[1]               # 4-byte Folded Spill
.Ltmp78:
	.cfi_offset 4, -24
.Ltmp79:
	.cfi_offset 5, -20
	std r7, r6, sp[2]               # 4-byte Folded Spill
.Ltmp80:
	.cfi_offset 6, -16
.Ltmp81:
	.cfi_offset 7, -12
	std r9, r8, sp[3]               # 4-byte Folded Spill
.Ltmp82:
	.cfi_offset 8, -8
.Ltmp83:
	.cfi_offset 9, -4
	#DEBUG_VALUE: _i.audManage_if._chan_yield.transfer_buffers:s <- R0
	#DEBUG_VALUE: _i.audManage_if._chan_yield.transfer_buffers:param1 <- R1
	#DEBUG_VALUE: _i.audManage_if._chan_yield.transfer_buffers:param2 <- R2
	#DEBUG_VALUE: _i.audManage_if._chan_yield.transfer_buffers:param3 <- R3
	#DEBUG_VALUE: _i.audManage_if._chan_yield.transfer_buffers:param4 <- [SP+36]
	#DEBUG_VALUE: _i.audManage_if._chan_yield.transfer_buffers:param3 <- R5
	#DEBUG_VALUE: _i.audManage_if._chan_yield.transfer_buffers:param2 <- R6
	{
		mov r5, r3
		mov r6, r2
	}
	#DEBUG_VALUE: _i.audManage_if._chan_yield.transfer_buffers:param1 <- R7
	{
		mov r7, r1
		ldw r9, sp[9]
	}
	{
		getr r4, 2
		ldw r1, r0[0]
	}
	{
		setd res[r4], r1
		nop
	}
	{
		out res[r4], r4
		nop
	}
	{
		outct res[r4], 2
		ldw r8, r0[1]
	}
	{
		mov r0, r4
		mov r1, r8
	}
	bl __interface_wait_and_yield
	{
		chkct res[r4], 1
		nop
	}
	#APP
	#NO_APP
	{
		out res[r4], r7
		nop
	}
	#APP
	#NO_APP
	{
		out res[r4], r6
		nop
	}
	#APP
	#NO_APP
	{
		out res[r4], r5
		nop
	}
	#APP
	#NO_APP
	{
		out res[r4], r9
		nop
	}
	{
		outct res[r4], 2
		ldc r1, 0
	}
	{
		mov r0, r4
		mov r2, r8
	}
	bl __interface_client_call_y
	{
		chkct res[r4], 1
		nop
	}
	{
		freer res[r4]
		nop
	}
	ldd r9, r8, sp[3]               # 4-byte Folded Reload
	ldd r7, r6, sp[2]               # 4-byte Folded Reload
	ldd r5, r4, sp[1]               # 4-byte Folded Reload
	{
		nop
		retsp 8
	}
	# RETURN_REG_HOLDER
	.cc_bottom _i.audManage_if._chan_yield.transfer_buffers.function
	.set	_i.audManage_if._chan_yield.transfer_buffers.nstackwords,((($D __interface_wait_and_yield.nstackwords ? __interface_wait_and_yield.nstackwords $: _i.audManage_if._client_call_y.max.nstackwords) $M _i.audManage_if._client_call_y.max.nstackwords $M ($D __interface_client_call_y.nstackwords ? __interface_client_call_y.nstackwords $: _i.audManage_if._client_call_y.max.nstackwords)) + 8)
	.globl	_i.audManage_if._chan_yield.transfer_buffers.nstackwords
	.weak	_i.audManage_if._chan_yield.transfer_buffers.nstackwords
	.set	_i.audManage_if._chan_yield.transfer_buffers.maxcores,($D __interface_client_call_y.maxcores ? __interface_client_call_y.maxcores $: _i.audManage_if._client_call_y.max.maxcores) $M ($D __interface_wait_and_yield.maxcores ? __interface_wait_and_yield.maxcores $: _i.audManage_if._client_call_y.max.maxcores) $M 1
	.globl	_i.audManage_if._chan_yield.transfer_buffers.maxcores
	.weak	_i.audManage_if._chan_yield.transfer_buffers.maxcores
	.set	_i.audManage_if._chan_yield.transfer_buffers.maxtimers,($D __interface_client_call_y.maxtimers ? __interface_client_call_y.maxtimers $: _i.audManage_if._client_call_y.max.maxtimers) $M ($D __interface_wait_and_yield.maxtimers ? __interface_wait_and_yield.maxtimers $: _i.audManage_if._client_call_y.max.maxtimers) $M 0
	.globl	_i.audManage_if._chan_yield.transfer_buffers.maxtimers
	.weak	_i.audManage_if._chan_yield.transfer_buffers.maxtimers
	.set	_i.audManage_if._chan_yield.transfer_buffers.maxchanends,(1 + ($D __interface_client_call_y.maxchanends ? __interface_client_call_y.maxchanends $: _i.audManage_if._client_call_y.max.maxchanends)) $M (1 + ($D __interface_wait_and_yield.maxchanends ? __interface_wait_and_yield.maxchanends $: _i.audManage_if._client_call_y.max.maxchanends)) $M 1
	.globl	_i.audManage_if._chan_yield.transfer_buffers.maxchanends
	.weak	_i.audManage_if._chan_yield.transfer_buffers.maxchanends
.Ltmp84:
	.size	_i.audManage_if._chan_yield.transfer_buffers, .Ltmp84-_i.audManage_if._chan_yield.transfer_buffers
	.cfi_endproc

	.weak	_i.control._chan.read_command
	.align	4
	.type	_i.control._chan.read_command,@function
	.cc_top _i.control._chan.read_command.function,_i.control._chan.read_command
_i.control._chan.read_command:          # @_i.control._chan.read_command
	.cfi_startproc
	.issue_mode dual
# BB#0:                                 # %allocas
	{
		nop
		dualentsp 4
	}
.Ltmp85:
	.cfi_def_cfa_offset 16
.Ltmp86:
	.cfi_offset 15, 0
	{
		nop
		stw r4, sp[2]
	}
.Ltmp87:
	.cfi_offset 4, -8
	#DEBUG_VALUE: _i.control._chan.read_command:dest <- R0
	#DEBUG_VALUE: _i.control._chan.read_command:param1 <- R1
	#DEBUG_VALUE: _i.control._chan.read_command:param2 <- R2
	#DEBUG_VALUE: _i.control._chan.read_command:param3 <- R3
	#DEBUG_VALUE: _i.control._chan.read_command:param4 <- [SP+20]
	{
		getr r4, 2
		ldw r11, sp[5]
	}
	{
		setd res[r4], r0
		add r0, r4, 2
	}
	{
		out res[r4], r0
		nop
	}
	{
		outct res[r4], 2
		nop
	}
	{
		chkct res[r4], 1
		nop
	}
	{
		outt res[r4], r1
		nop
	}
	{
		outt res[r4], r2
		stw r3, sp[1]
	}
	{
		out res[r4], r11
		nop
	}
	{
		outct res[r4], 2
		ldaw r1, sp[1]
	}
	{
		mov r0, r4
		nop
	}
	bl __interface_client_call
	{
		int r0, res[r4]
		nop
	}
	{
		chkct res[r4], 1
		nop
	}
	{
		freer res[r4]
		ldw r4, sp[2]
	}
	{
		nop
		retsp 4
	}
	# RETURN_REG_HOLDER
	.cc_bottom _i.control._chan.read_command.function
	.set	_i.control._chan.read_command.nstackwords,(__interface_client_call.nstackwords + 4)
	.globl	_i.control._chan.read_command.nstackwords
	.weak	_i.control._chan.read_command.nstackwords
	.set	_i.control._chan.read_command.maxcores,__interface_client_call.maxcores $M 1
	.globl	_i.control._chan.read_command.maxcores
	.weak	_i.control._chan.read_command.maxcores
	.set	_i.control._chan.read_command.maxtimers,__interface_client_call.maxtimers $M 0
	.globl	_i.control._chan.read_command.maxtimers
	.weak	_i.control._chan.read_command.maxtimers
	.set	_i.control._chan.read_command.maxchanends,(1 + __interface_client_call.maxchanends) $M 1
	.globl	_i.control._chan.read_command.maxchanends
	.weak	_i.control._chan.read_command.maxchanends
.Ltmp88:
	.size	_i.control._chan.read_command, .Ltmp88-_i.control._chan.read_command
	.cfi_endproc

	.weak	_i.control._chan.write_command
	.align	4
	.type	_i.control._chan.write_command,@function
	.cc_top _i.control._chan.write_command.function,_i.control._chan.write_command
_i.control._chan.write_command:         # @_i.control._chan.write_command
	.cfi_startproc
	.issue_mode dual
# BB#0:                                 # %allocas
	{
		nop
		dualentsp 4
	}
.Ltmp89:
	.cfi_def_cfa_offset 16
.Ltmp90:
	.cfi_offset 15, 0
	{
		nop
		stw r4, sp[2]
	}
.Ltmp91:
	.cfi_offset 4, -8
	#DEBUG_VALUE: _i.control._chan.write_command:dest <- R0
	#DEBUG_VALUE: _i.control._chan.write_command:param1 <- R1
	#DEBUG_VALUE: _i.control._chan.write_command:param2 <- R2
	#DEBUG_VALUE: _i.control._chan.write_command:param3 <- R3
	#DEBUG_VALUE: _i.control._chan.write_command:param4 <- [SP+20]
	{
		getr r4, 2
		ldw r11, sp[5]
	}
	{
		setd res[r4], r0
		add r0, r4, 1
	}
	{
		out res[r4], r0
		nop
	}
	{
		outct res[r4], 2
		nop
	}
	{
		chkct res[r4], 1
		nop
	}
	{
		outt res[r4], r1
		nop
	}
	{
		outt res[r4], r2
		stw r3, sp[1]
	}
	{
		out res[r4], r11
		nop
	}
	{
		outct res[r4], 2
		ldaw r1, sp[1]
	}
	{
		mov r0, r4
		nop
	}
	bl __interface_client_call
	{
		int r0, res[r4]
		nop
	}
	{
		chkct res[r4], 1
		nop
	}
	{
		freer res[r4]
		ldw r4, sp[2]
	}
	{
		nop
		retsp 4
	}
	# RETURN_REG_HOLDER
	.cc_bottom _i.control._chan.write_command.function
	.set	_i.control._chan.write_command.nstackwords,(__interface_client_call.nstackwords + 4)
	.globl	_i.control._chan.write_command.nstackwords
	.weak	_i.control._chan.write_command.nstackwords
	.set	_i.control._chan.write_command.maxcores,__interface_client_call.maxcores $M 1
	.globl	_i.control._chan.write_command.maxcores
	.weak	_i.control._chan.write_command.maxcores
	.set	_i.control._chan.write_command.maxtimers,__interface_client_call.maxtimers $M 0
	.globl	_i.control._chan.write_command.maxtimers
	.weak	_i.control._chan.write_command.maxtimers
	.set	_i.control._chan.write_command.maxchanends,(1 + __interface_client_call.maxchanends) $M 1
	.globl	_i.control._chan.write_command.maxchanends
	.weak	_i.control._chan.write_command.maxchanends
.Ltmp92:
	.size	_i.control._chan.write_command, .Ltmp92-_i.control._chan.write_command
	.cfi_endproc

	.weak	_i.control._chan.register_resources
	.align	4
	.type	_i.control._chan.register_resources,@function
	.cc_top _i.control._chan.register_resources.function,_i.control._chan.register_resources
_i.control._chan.register_resources:    # @_i.control._chan.register_resources
	.cfi_startproc
	.issue_mode dual
# BB#0:                                 # %allocas
	{
		nop
		dualentsp 4
	}
.Ltmp93:
	.cfi_def_cfa_offset 16
.Ltmp94:
	.cfi_offset 15, 0
	std r5, r4, sp[1]               # 4-byte Folded Spill
.Ltmp95:
	.cfi_offset 4, -8
.Ltmp96:
	.cfi_offset 5, -4
	#DEBUG_VALUE: _i.control._chan.register_resources:dest <- R0
	#DEBUG_VALUE: _i.control._chan.register_resources:param1 <- R1
	#DEBUG_VALUE: _i.control._chan.register_resources:param2 <- R2
	#DEBUG_VALUE: _i.control._chan.register_resources:param2 <- R4
	{
		getr r5, 2
		mov r4, r2
	}
	{
		setd res[r5], r0
		nop
	}
	{
		out res[r5], r5
		nop
	}
	{
		outct res[r5], 2
		nop
	}
	{
		chkct res[r5], 1
		stw r1, sp[1]
	}
	{
		nop
		ldw r0, r4[0]
	}
	{
		out res[r5], r0
		nop
	}
	{
		outct res[r5], 2
		ldaw r1, sp[1]
	}
	{
		mov r0, r5
		nop
	}
	bl __interface_client_call
	{
		in r0, res[r5]
		nop
	}
	{
		chkct res[r5], 1
		stw r0, r4[0]
	}
	{
		freer res[r5]
		nop
	}
	ldd r5, r4, sp[1]               # 4-byte Folded Reload
	{
		nop
		retsp 4
	}
	# RETURN_REG_HOLDER
	.cc_bottom _i.control._chan.register_resources.function
	.set	_i.control._chan.register_resources.nstackwords,(__interface_client_call.nstackwords + 4)
	.globl	_i.control._chan.register_resources.nstackwords
	.weak	_i.control._chan.register_resources.nstackwords
	.set	_i.control._chan.register_resources.maxcores,__interface_client_call.maxcores $M 1
	.globl	_i.control._chan.register_resources.maxcores
	.weak	_i.control._chan.register_resources.maxcores
	.set	_i.control._chan.register_resources.maxtimers,__interface_client_call.maxtimers $M 0
	.globl	_i.control._chan.register_resources.maxtimers
	.weak	_i.control._chan.register_resources.maxtimers
	.set	_i.control._chan.register_resources.maxchanends,(1 + __interface_client_call.maxchanends) $M 1
	.globl	_i.control._chan.register_resources.maxchanends
	.weak	_i.control._chan.register_resources.maxchanends
.Ltmp97:
	.size	_i.control._chan.register_resources, .Ltmp97-_i.control._chan.register_resources
	.cfi_endproc

	.weak	_i.control._chan_yield.read_command
	.align	4
	.type	_i.control._chan_yield.read_command,@function
	.cc_top _i.control._chan_yield.read_command.function,_i.control._chan_yield.read_command
_i.control._chan_yield.read_command:    # @_i.control._chan_yield.read_command
	.cfi_startproc
	.issue_mode dual
# BB#0:                                 # %allocas
	{
		nop
		dualentsp 4
	}
.Ltmp98:
	.cfi_def_cfa_offset 16
.Ltmp99:
	.cfi_offset 15, 0
	std r5, r4, sp[1]               # 4-byte Folded Spill
.Ltmp100:
	.cfi_offset 4, -8
.Ltmp101:
	.cfi_offset 5, -4
	#DEBUG_VALUE: _i.control._chan_yield.read_command:s <- R0
	#DEBUG_VALUE: _i.control._chan_yield.read_command:param1 <- R1
	#DEBUG_VALUE: _i.control._chan_yield.read_command:param2 <- R2
	#DEBUG_VALUE: _i.control._chan_yield.read_command:param3 <- R3
	#DEBUG_VALUE: _i.control._chan_yield.read_command:param4 <- [SP+20]
	{
		nop
		ldw r11, sp[5]
	}
	{
		getr r4, 2
		ldw r5, r0[0]
	}
	{
		setd res[r4], r5
		add r5, r4, 2
	}
	{
		out res[r4], r5
		nop
	}
	{
		outct res[r4], 2
		nop
	}
	{
		chkct res[r4], 1
		nop
	}
	{
		outt res[r4], r1
		nop
	}
	{
		outt res[r4], r2
		stw r3, sp[1]
	}
	{
		out res[r4], r11
		nop
	}
	{
		outct res[r4], 2
		ldw r2, r0[1]
	}
	{
		ldaw r1, sp[1]
		mov r0, r4
	}
	bl __interface_client_call_y
	{
		int r0, res[r4]
		nop
	}
	{
		chkct res[r4], 1
		nop
	}
	{
		freer res[r4]
		nop
	}
	ldd r5, r4, sp[1]               # 4-byte Folded Reload
	{
		nop
		retsp 4
	}
	# RETURN_REG_HOLDER
	.cc_bottom _i.control._chan_yield.read_command.function
	.set	_i.control._chan_yield.read_command.nstackwords,((_i.control._client_call_y.max.nstackwords $M ($D __interface_client_call_y.nstackwords ? __interface_client_call_y.nstackwords $: _i.control._client_call_y.max.nstackwords)) + 4)
	.globl	_i.control._chan_yield.read_command.nstackwords
	.weak	_i.control._chan_yield.read_command.nstackwords
	.set	_i.control._chan_yield.read_command.maxcores,($D __interface_client_call_y.maxcores ? __interface_client_call_y.maxcores $: _i.control._client_call_y.max.maxcores) $M 1
	.globl	_i.control._chan_yield.read_command.maxcores
	.weak	_i.control._chan_yield.read_command.maxcores
	.set	_i.control._chan_yield.read_command.maxtimers,($D __interface_client_call_y.maxtimers ? __interface_client_call_y.maxtimers $: _i.control._client_call_y.max.maxtimers) $M 0
	.globl	_i.control._chan_yield.read_command.maxtimers
	.weak	_i.control._chan_yield.read_command.maxtimers
	.set	_i.control._chan_yield.read_command.maxchanends,(1 + ($D __interface_client_call_y.maxchanends ? __interface_client_call_y.maxchanends $: _i.control._client_call_y.max.maxchanends)) $M 1
	.globl	_i.control._chan_yield.read_command.maxchanends
	.weak	_i.control._chan_yield.read_command.maxchanends
.Ltmp102:
	.size	_i.control._chan_yield.read_command, .Ltmp102-_i.control._chan_yield.read_command
	.cfi_endproc

	.weak	_i.control._chan_yield.write_command
	.align	4
	.type	_i.control._chan_yield.write_command,@function
	.cc_top _i.control._chan_yield.write_command.function,_i.control._chan_yield.write_command
_i.control._chan_yield.write_command:   # @_i.control._chan_yield.write_command
	.cfi_startproc
	.issue_mode dual
# BB#0:                                 # %allocas
	{
		nop
		dualentsp 4
	}
.Ltmp103:
	.cfi_def_cfa_offset 16
.Ltmp104:
	.cfi_offset 15, 0
	std r5, r4, sp[1]               # 4-byte Folded Spill
.Ltmp105:
	.cfi_offset 4, -8
.Ltmp106:
	.cfi_offset 5, -4
	#DEBUG_VALUE: _i.control._chan_yield.write_command:s <- R0
	#DEBUG_VALUE: _i.control._chan_yield.write_command:param1 <- R1
	#DEBUG_VALUE: _i.control._chan_yield.write_command:param2 <- R2
	#DEBUG_VALUE: _i.control._chan_yield.write_command:param3 <- R3
	#DEBUG_VALUE: _i.control._chan_yield.write_command:param4 <- [SP+20]
	{
		nop
		ldw r11, sp[5]
	}
	{
		getr r4, 2
		ldw r5, r0[0]
	}
	{
		setd res[r4], r5
		add r5, r4, 1
	}
	{
		out res[r4], r5
		nop
	}
	{
		outct res[r4], 2
		nop
	}
	{
		chkct res[r4], 1
		nop
	}
	{
		outt res[r4], r1
		nop
	}
	{
		outt res[r4], r2
		stw r3, sp[1]
	}
	{
		out res[r4], r11
		nop
	}
	{
		outct res[r4], 2
		ldw r2, r0[1]
	}
	{
		ldaw r1, sp[1]
		mov r0, r4
	}
	bl __interface_client_call_y
	{
		int r0, res[r4]
		nop
	}
	{
		chkct res[r4], 1
		nop
	}
	{
		freer res[r4]
		nop
	}
	ldd r5, r4, sp[1]               # 4-byte Folded Reload
	{
		nop
		retsp 4
	}
	# RETURN_REG_HOLDER
	.cc_bottom _i.control._chan_yield.write_command.function
	.set	_i.control._chan_yield.write_command.nstackwords,((_i.control._client_call_y.max.nstackwords $M ($D __interface_client_call_y.nstackwords ? __interface_client_call_y.nstackwords $: _i.control._client_call_y.max.nstackwords)) + 4)
	.globl	_i.control._chan_yield.write_command.nstackwords
	.weak	_i.control._chan_yield.write_command.nstackwords
	.set	_i.control._chan_yield.write_command.maxcores,($D __interface_client_call_y.maxcores ? __interface_client_call_y.maxcores $: _i.control._client_call_y.max.maxcores) $M 1
	.globl	_i.control._chan_yield.write_command.maxcores
	.weak	_i.control._chan_yield.write_command.maxcores
	.set	_i.control._chan_yield.write_command.maxtimers,($D __interface_client_call_y.maxtimers ? __interface_client_call_y.maxtimers $: _i.control._client_call_y.max.maxtimers) $M 0
	.globl	_i.control._chan_yield.write_command.maxtimers
	.weak	_i.control._chan_yield.write_command.maxtimers
	.set	_i.control._chan_yield.write_command.maxchanends,(1 + ($D __interface_client_call_y.maxchanends ? __interface_client_call_y.maxchanends $: _i.control._client_call_y.max.maxchanends)) $M 1
	.globl	_i.control._chan_yield.write_command.maxchanends
	.weak	_i.control._chan_yield.write_command.maxchanends
.Ltmp107:
	.size	_i.control._chan_yield.write_command, .Ltmp107-_i.control._chan_yield.write_command
	.cfi_endproc

	.weak	_i.control._chan_yield.register_resources
	.align	4
	.type	_i.control._chan_yield.register_resources,@function
	.cc_top _i.control._chan_yield.register_resources.function,_i.control._chan_yield.register_resources
_i.control._chan_yield.register_resources: # @_i.control._chan_yield.register_resources
	.cfi_startproc
	.issue_mode dual
# BB#0:                                 # %allocas
	{
		nop
		dualentsp 4
	}
.Ltmp108:
	.cfi_def_cfa_offset 16
.Ltmp109:
	.cfi_offset 15, 0
	std r5, r4, sp[1]               # 4-byte Folded Spill
.Ltmp110:
	.cfi_offset 4, -8
.Ltmp111:
	.cfi_offset 5, -4
	#DEBUG_VALUE: _i.control._chan_yield.register_resources:s <- R0
	#DEBUG_VALUE: _i.control._chan_yield.register_resources:param1 <- R1
	#DEBUG_VALUE: _i.control._chan_yield.register_resources:param2 <- R2
	#DEBUG_VALUE: _i.control._chan_yield.register_resources:param2 <- R4
	{
		mov r4, r2
		ldw r2, r0[0]
	}
	{
		getr r5, 2
		nop
	}
	{
		setd res[r5], r2
		nop
	}
	{
		out res[r5], r5
		nop
	}
	{
		outct res[r5], 2
		nop
	}
	{
		chkct res[r5], 1
		stw r1, sp[1]
	}
	{
		nop
		ldw r1, r4[0]
	}
	{
		out res[r5], r1
		nop
	}
	{
		outct res[r5], 2
		ldw r2, r0[1]
	}
	{
		ldaw r1, sp[1]
		mov r0, r5
	}
	bl __interface_client_call_y
	{
		in r0, res[r5]
		nop
	}
	{
		chkct res[r5], 1
		stw r0, r4[0]
	}
	{
		freer res[r5]
		nop
	}
	ldd r5, r4, sp[1]               # 4-byte Folded Reload
	{
		nop
		retsp 4
	}
	# RETURN_REG_HOLDER
	.cc_bottom _i.control._chan_yield.register_resources.function
	.set	_i.control._chan_yield.register_resources.nstackwords,((_i.control._client_call_y.max.nstackwords $M ($D __interface_client_call_y.nstackwords ? __interface_client_call_y.nstackwords $: _i.control._client_call_y.max.nstackwords)) + 4)
	.globl	_i.control._chan_yield.register_resources.nstackwords
	.weak	_i.control._chan_yield.register_resources.nstackwords
	.set	_i.control._chan_yield.register_resources.maxcores,($D __interface_client_call_y.maxcores ? __interface_client_call_y.maxcores $: _i.control._client_call_y.max.maxcores) $M 1
	.globl	_i.control._chan_yield.register_resources.maxcores
	.weak	_i.control._chan_yield.register_resources.maxcores
	.set	_i.control._chan_yield.register_resources.maxtimers,($D __interface_client_call_y.maxtimers ? __interface_client_call_y.maxtimers $: _i.control._client_call_y.max.maxtimers) $M 0
	.globl	_i.control._chan_yield.register_resources.maxtimers
	.weak	_i.control._chan_yield.register_resources.maxtimers
	.set	_i.control._chan_yield.register_resources.maxchanends,(1 + ($D __interface_client_call_y.maxchanends ? __interface_client_call_y.maxchanends $: _i.control._client_call_y.max.maxchanends)) $M 1
	.globl	_i.control._chan_yield.register_resources.maxchanends
	.weak	_i.control._chan_yield.register_resources.maxchanends
.Ltmp112:
	.size	_i.control._chan_yield.register_resources, .Ltmp112-_i.control._chan_yield.register_resources
	.cfi_endproc

	.weak	_i.beclear_if._chan.transfer_samples
	.align	4
	.type	_i.beclear_if._chan.transfer_samples,@function
	.cc_top _i.beclear_if._chan.transfer_samples.function,_i.beclear_if._chan.transfer_samples
_i.beclear_if._chan.transfer_samples:   # @_i.beclear_if._chan.transfer_samples
	.cfi_startproc
	.issue_mode dual
# BB#0:                                 # %allocas
	{
		nop
		dualentsp 12
	}
.Ltmp113:
	.cfi_def_cfa_offset 48
.Ltmp114:
	.cfi_offset 15, 0
	std r5, r4, sp[2]               # 4-byte Folded Spill
.Ltmp115:
	.cfi_offset 4, -32
.Ltmp116:
	.cfi_offset 5, -28
	std r7, r6, sp[3]               # 4-byte Folded Spill
.Ltmp117:
	.cfi_offset 6, -24
.Ltmp118:
	.cfi_offset 7, -20
	std r9, r8, sp[4]               # 4-byte Folded Spill
.Ltmp119:
	.cfi_offset 8, -16
.Ltmp120:
	.cfi_offset 9, -12
.Ltmp121:
	.cfi_offset 10, -8
	#DEBUG_VALUE: _i.beclear_if._chan.transfer_samples:dest <- R0
	#DEBUG_VALUE: _i.beclear_if._chan.transfer_samples:param1 <- R1
	#DEBUG_VALUE: _i.beclear_if._chan.transfer_samples:param2 <- R2
	#DEBUG_VALUE: _i.beclear_if._chan.transfer_samples:param3 <- R3
	#DEBUG_VALUE: _i.beclear_if._chan.transfer_samples:param3 <- R5
	{
		mov r5, r3
		stw r10, sp[10]
	}
	#DEBUG_VALUE: _i.beclear_if._chan.transfer_samples:param2 <- R6
	#DEBUG_VALUE: _i.beclear_if._chan.transfer_samples:param1 <- R7
	{
		mov r6, r2
		mov r7, r1
	}
	ldd r9, r8, sp[7]
	{
		getr r4, 2
		ldw r10, sp[13]
	}
	{
		setd res[r4], r0
		add r0, r4, 1
	}
	{
		out res[r4], r0
		nop
	}
	{
		outct res[r4], 2
		ldc r1, 0
	}
	{
		mov r0, r4
		nop
	}
	bl __interface_wait_and_yield
	{
		chkct res[r4], 1
		nop
	}
	{
		out res[r4], r10
		stw r7, sp[1]
	}
	{
		out res[r4], r8
		stw r6, sp[2]
	}
	{
		out res[r4], r9
		stw r5, sp[3]
	}
	{
		outct res[r4], 2
		ldaw r1, sp[1]
	}
	{
		mov r0, r4
		nop
	}
	bl __interface_client_call
	{
		chkct res[r4], 1
		nop
	}
	{
		freer res[r4]
		ldw r10, sp[10]
	}
	ldd r9, r8, sp[4]               # 4-byte Folded Reload
	ldd r7, r6, sp[3]               # 4-byte Folded Reload
	ldd r5, r4, sp[2]               # 4-byte Folded Reload
	{
		nop
		retsp 12
	}
	# RETURN_REG_HOLDER
	.cc_bottom _i.beclear_if._chan.transfer_samples.function
	.set	_i.beclear_if._chan.transfer_samples.nstackwords,((_i.beclear_if._client_call_y.max.nstackwords $M ($D __interface_wait_and_yield.nstackwords ? __interface_wait_and_yield.nstackwords $: _i.beclear_if._client_call_y.max.nstackwords) $M __interface_client_call.nstackwords) + 12)
	.globl	_i.beclear_if._chan.transfer_samples.nstackwords
	.weak	_i.beclear_if._chan.transfer_samples.nstackwords
	.set	_i.beclear_if._chan.transfer_samples.maxcores,__interface_client_call.maxcores $M ($D __interface_wait_and_yield.maxcores ? __interface_wait_and_yield.maxcores $: _i.beclear_if._client_call_y.max.maxcores) $M 1
	.globl	_i.beclear_if._chan.transfer_samples.maxcores
	.weak	_i.beclear_if._chan.transfer_samples.maxcores
	.set	_i.beclear_if._chan.transfer_samples.maxtimers,__interface_client_call.maxtimers $M ($D __interface_wait_and_yield.maxtimers ? __interface_wait_and_yield.maxtimers $: _i.beclear_if._client_call_y.max.maxtimers) $M 0
	.globl	_i.beclear_if._chan.transfer_samples.maxtimers
	.weak	_i.beclear_if._chan.transfer_samples.maxtimers
	.set	_i.beclear_if._chan.transfer_samples.maxchanends,(1 + __interface_client_call.maxchanends) $M (1 + ($D __interface_wait_and_yield.maxchanends ? __interface_wait_and_yield.maxchanends $: _i.beclear_if._client_call_y.max.maxchanends)) $M 1
	.globl	_i.beclear_if._chan.transfer_samples.maxchanends
	.weak	_i.beclear_if._chan.transfer_samples.maxchanends
.Ltmp122:
	.size	_i.beclear_if._chan.transfer_samples, .Ltmp122-_i.beclear_if._chan.transfer_samples
	.cfi_endproc

	.weak	_i.beclear_if._chan.swap_buffers
	.align	4
	.type	_i.beclear_if._chan.swap_buffers,@function
	.cc_top _i.beclear_if._chan.swap_buffers.function,_i.beclear_if._chan.swap_buffers
_i.beclear_if._chan.swap_buffers:       # @_i.beclear_if._chan.swap_buffers
	.cfi_startproc
	.issue_mode dual
# BB#0:                                 # %allocas
	{
		nop
		dualentsp 4
	}
.Ltmp123:
	.cfi_def_cfa_offset 16
.Ltmp124:
	.cfi_offset 15, 0
.Ltmp125:
	.cfi_offset 4, -8
	#DEBUG_VALUE: _i.beclear_if._chan.swap_buffers:dest <- R0
	{
		getr r4, 2
		stw r4, sp[2]
	}
	{
		setd res[r4], r0
		nop
	}
	{
		out res[r4], r4
		nop
	}
	{
		outct res[r4], 2
		ldc r1, 0
	}
	{
		mov r0, r4
		nop
	}
	bl __interface_wait_and_yield
	{
		in r0, res[r4]
		nop
	}
	{
		chkct res[r4], 1
		nop
	}
	{
		freer res[r4]
		ldw r4, sp[2]
	}
	{
		nop
		retsp 4
	}
	# RETURN_REG_HOLDER
	.cc_bottom _i.beclear_if._chan.swap_buffers.function
	.set	_i.beclear_if._chan.swap_buffers.nstackwords,((_i.beclear_if._client_call_y.max.nstackwords $M ($D __interface_wait_and_yield.nstackwords ? __interface_wait_and_yield.nstackwords $: _i.beclear_if._client_call_y.max.nstackwords)) + 4)
	.globl	_i.beclear_if._chan.swap_buffers.nstackwords
	.weak	_i.beclear_if._chan.swap_buffers.nstackwords
	.set	_i.beclear_if._chan.swap_buffers.maxcores,($D __interface_wait_and_yield.maxcores ? __interface_wait_and_yield.maxcores $: _i.beclear_if._client_call_y.max.maxcores) $M 1
	.globl	_i.beclear_if._chan.swap_buffers.maxcores
	.weak	_i.beclear_if._chan.swap_buffers.maxcores
	.set	_i.beclear_if._chan.swap_buffers.maxtimers,($D __interface_wait_and_yield.maxtimers ? __interface_wait_and_yield.maxtimers $: _i.beclear_if._client_call_y.max.maxtimers) $M 0
	.globl	_i.beclear_if._chan.swap_buffers.maxtimers
	.weak	_i.beclear_if._chan.swap_buffers.maxtimers
	.set	_i.beclear_if._chan.swap_buffers.maxchanends,(1 + ($D __interface_wait_and_yield.maxchanends ? __interface_wait_and_yield.maxchanends $: _i.beclear_if._client_call_y.max.maxchanends)) $M 1
	.globl	_i.beclear_if._chan.swap_buffers.maxchanends
	.weak	_i.beclear_if._chan.swap_buffers.maxchanends
.Ltmp126:
	.size	_i.beclear_if._chan.swap_buffers, .Ltmp126-_i.beclear_if._chan.swap_buffers
	.cfi_endproc

	.weak	_i.beclear_if._chan_yield.transfer_samples
	.align	4
	.type	_i.beclear_if._chan_yield.transfer_samples,@function
	.cc_top _i.beclear_if._chan_yield.transfer_samples.function,_i.beclear_if._chan_yield.transfer_samples
_i.beclear_if._chan_yield.transfer_samples: # @_i.beclear_if._chan_yield.transfer_samples
	.cfi_startproc
	.issue_mode dual
# BB#0:                                 # %allocas
	{
		nop
		dualentsp 12
	}
.Ltmp127:
	.cfi_def_cfa_offset 48
.Ltmp128:
	.cfi_offset 15, 0
	std r5, r4, sp[2]               # 4-byte Folded Spill
.Ltmp129:
	.cfi_offset 4, -32
.Ltmp130:
	.cfi_offset 5, -28
	std r7, r6, sp[3]               # 4-byte Folded Spill
.Ltmp131:
	.cfi_offset 6, -24
.Ltmp132:
	.cfi_offset 7, -20
	std r9, r8, sp[4]               # 4-byte Folded Spill
.Ltmp133:
	.cfi_offset 8, -16
.Ltmp134:
	.cfi_offset 9, -12
.Ltmp135:
	.cfi_offset 10, -8
	#DEBUG_VALUE: _i.beclear_if._chan_yield.transfer_samples:s <- R0
	#DEBUG_VALUE: _i.beclear_if._chan_yield.transfer_samples:param1 <- R1
	#DEBUG_VALUE: _i.beclear_if._chan_yield.transfer_samples:param2 <- R2
	#DEBUG_VALUE: _i.beclear_if._chan_yield.transfer_samples:param3 <- R3
	#DEBUG_VALUE: _i.beclear_if._chan_yield.transfer_samples:param3 <- R5
	{
		mov r5, r3
		stw r10, sp[10]
	}
	#DEBUG_VALUE: _i.beclear_if._chan_yield.transfer_samples:param2 <- R6
	#DEBUG_VALUE: _i.beclear_if._chan_yield.transfer_samples:param1 <- R7
	{
		mov r6, r2
		mov r7, r1
	}
	ldd r10, r9, sp[7]
	{
		getr r4, 2
		ldw r1, r0[0]
	}
	{
		setd res[r4], r1
		add r1, r4, 1
	}
	{
		out res[r4], r1
		nop
	}
	{
		outct res[r4], 2
		ldw r8, r0[1]
	}
	{
		mov r0, r4
		mov r1, r8
	}
	bl __interface_wait_and_yield
	{
		chkct res[r4], 1
		ldw r0, sp[13]
	}
	{
		out res[r4], r0
		stw r7, sp[1]
	}
	{
		out res[r4], r9
		stw r6, sp[2]
	}
	{
		out res[r4], r10
		stw r5, sp[3]
	}
	{
		outct res[r4], 2
		ldaw r1, sp[1]
	}
	{
		mov r0, r4
		mov r2, r8
	}
	bl __interface_client_call_y
	{
		chkct res[r4], 1
		nop
	}
	{
		freer res[r4]
		ldw r10, sp[10]
	}
	ldd r9, r8, sp[4]               # 4-byte Folded Reload
	ldd r7, r6, sp[3]               # 4-byte Folded Reload
	ldd r5, r4, sp[2]               # 4-byte Folded Reload
	{
		nop
		retsp 12
	}
	# RETURN_REG_HOLDER
	.cc_bottom _i.beclear_if._chan_yield.transfer_samples.function
	.set	_i.beclear_if._chan_yield.transfer_samples.nstackwords,((($D __interface_wait_and_yield.nstackwords ? __interface_wait_and_yield.nstackwords $: _i.beclear_if._client_call_y.max.nstackwords) $M _i.beclear_if._client_call_y.max.nstackwords $M ($D __interface_client_call_y.nstackwords ? __interface_client_call_y.nstackwords $: _i.beclear_if._client_call_y.max.nstackwords)) + 12)
	.globl	_i.beclear_if._chan_yield.transfer_samples.nstackwords
	.weak	_i.beclear_if._chan_yield.transfer_samples.nstackwords
	.set	_i.beclear_if._chan_yield.transfer_samples.maxcores,($D __interface_client_call_y.maxcores ? __interface_client_call_y.maxcores $: _i.beclear_if._client_call_y.max.maxcores) $M ($D __interface_wait_and_yield.maxcores ? __interface_wait_and_yield.maxcores $: _i.beclear_if._client_call_y.max.maxcores) $M 1
	.globl	_i.beclear_if._chan_yield.transfer_samples.maxcores
	.weak	_i.beclear_if._chan_yield.transfer_samples.maxcores
	.set	_i.beclear_if._chan_yield.transfer_samples.maxtimers,($D __interface_client_call_y.maxtimers ? __interface_client_call_y.maxtimers $: _i.beclear_if._client_call_y.max.maxtimers) $M ($D __interface_wait_and_yield.maxtimers ? __interface_wait_and_yield.maxtimers $: _i.beclear_if._client_call_y.max.maxtimers) $M 0
	.globl	_i.beclear_if._chan_yield.transfer_samples.maxtimers
	.weak	_i.beclear_if._chan_yield.transfer_samples.maxtimers
	.set	_i.beclear_if._chan_yield.transfer_samples.maxchanends,(1 + ($D __interface_client_call_y.maxchanends ? __interface_client_call_y.maxchanends $: _i.beclear_if._client_call_y.max.maxchanends)) $M (1 + ($D __interface_wait_and_yield.maxchanends ? __interface_wait_and_yield.maxchanends $: _i.beclear_if._client_call_y.max.maxchanends)) $M 1
	.globl	_i.beclear_if._chan_yield.transfer_samples.maxchanends
	.weak	_i.beclear_if._chan_yield.transfer_samples.maxchanends
.Ltmp136:
	.size	_i.beclear_if._chan_yield.transfer_samples, .Ltmp136-_i.beclear_if._chan_yield.transfer_samples
	.cfi_endproc

	.weak	_i.beclear_if._chan_yield.swap_buffers
	.align	4
	.type	_i.beclear_if._chan_yield.swap_buffers,@function
	.cc_top _i.beclear_if._chan_yield.swap_buffers.function,_i.beclear_if._chan_yield.swap_buffers
_i.beclear_if._chan_yield.swap_buffers: # @_i.beclear_if._chan_yield.swap_buffers
	.cfi_startproc
	.issue_mode dual
# BB#0:                                 # %allocas
	{
		nop
		dualentsp 4
	}
.Ltmp137:
	.cfi_def_cfa_offset 16
.Ltmp138:
	.cfi_offset 15, 0
	std r5, r4, sp[1]               # 4-byte Folded Spill
.Ltmp139:
	.cfi_offset 4, -8
.Ltmp140:
	.cfi_offset 5, -4
	#DEBUG_VALUE: _i.beclear_if._chan_yield.swap_buffers:s <- R0
	{
		getr r4, 2
		ldw r1, r0[0]
	}
	{
		setd res[r4], r1
		nop
	}
	{
		out res[r4], r4
		nop
	}
	{
		outct res[r4], 2
		ldw r5, r0[1]
	}
	{
		mov r0, r4
		mov r1, r5
	}
	bl __interface_wait_and_yield
	{
		ldc r1, 0
		mov r0, r4
	}
	{
		mov r2, r5
		nop
	}
	bl __interface_client_call_y
	{
		chkct res[r4], 1
		nop
	}
	{
		freer res[r4]
		nop
	}
	ldd r5, r4, sp[1]               # 4-byte Folded Reload
	{
		nop
		retsp 4
	}
	# RETURN_REG_HOLDER
	.cc_bottom _i.beclear_if._chan_yield.swap_buffers.function
	.set	_i.beclear_if._chan_yield.swap_buffers.nstackwords,((($D __interface_wait_and_yield.nstackwords ? __interface_wait_and_yield.nstackwords $: _i.beclear_if._client_call_y.max.nstackwords) $M _i.beclear_if._client_call_y.max.nstackwords $M ($D __interface_client_call_y.nstackwords ? __interface_client_call_y.nstackwords $: _i.beclear_if._client_call_y.max.nstackwords)) + 4)
	.globl	_i.beclear_if._chan_yield.swap_buffers.nstackwords
	.weak	_i.beclear_if._chan_yield.swap_buffers.nstackwords
	.set	_i.beclear_if._chan_yield.swap_buffers.maxcores,($D __interface_client_call_y.maxcores ? __interface_client_call_y.maxcores $: _i.beclear_if._client_call_y.max.maxcores) $M ($D __interface_wait_and_yield.maxcores ? __interface_wait_and_yield.maxcores $: _i.beclear_if._client_call_y.max.maxcores) $M 1
	.globl	_i.beclear_if._chan_yield.swap_buffers.maxcores
	.weak	_i.beclear_if._chan_yield.swap_buffers.maxcores
	.set	_i.beclear_if._chan_yield.swap_buffers.maxtimers,($D __interface_client_call_y.maxtimers ? __interface_client_call_y.maxtimers $: _i.beclear_if._client_call_y.max.maxtimers) $M ($D __interface_wait_and_yield.maxtimers ? __interface_wait_and_yield.maxtimers $: _i.beclear_if._client_call_y.max.maxtimers) $M 0
	.globl	_i.beclear_if._chan_yield.swap_buffers.maxtimers
	.weak	_i.beclear_if._chan_yield.swap_buffers.maxtimers
	.set	_i.beclear_if._chan_yield.swap_buffers.maxchanends,(1 + ($D __interface_client_call_y.maxchanends ? __interface_client_call_y.maxchanends $: _i.beclear_if._client_call_y.max.maxchanends)) $M (1 + ($D __interface_wait_and_yield.maxchanends ? __interface_wait_and_yield.maxchanends $: _i.beclear_if._client_call_y.max.maxchanends)) $M 1
	.globl	_i.beclear_if._chan_yield.swap_buffers.maxchanends
	.weak	_i.beclear_if._chan_yield.swap_buffers.maxchanends
.Ltmp141:
	.size	_i.beclear_if._chan_yield.swap_buffers, .Ltmp141-_i.beclear_if._chan_yield.swap_buffers
	.cfi_endproc

	.weak	_i.keyword_if._chan.buffer_ready
	.align	4
	.type	_i.keyword_if._chan.buffer_ready,@function
	.cc_top _i.keyword_if._chan.buffer_ready.function,_i.keyword_if._chan.buffer_ready
_i.keyword_if._chan.buffer_ready:       # @_i.keyword_if._chan.buffer_ready
	.cfi_startproc
	.issue_mode dual
# BB#0:                                 # %allocas
	#DEBUG_VALUE: _i.keyword_if._chan.buffer_ready:dest <- R0
	#DEBUG_VALUE: _i.keyword_if._chan.buffer_ready:param1 <- R1
	{
		getr r2, 2
		dualentsp 0
	}
	{
		setd res[r2], r0
		nop
	}
	{
		out res[r2], r2
		nop
	}
	{
		outct res[r2], 2
		nop
	}
	{
		chkct res[r2], 1
		nop
	}
	{
		out res[r2], r1
		nop
	}
	{
		outct res[r2], 2
		nop
	}
	{
		in r0, res[r2]
		nop
	}
	{
		in r0, res[r2]
		nop
	}
	{
		chkct res[r2], 1
		nop
	}
	{
		freer res[r2]
		retsp 0
	}
	# RETURN_REG_HOLDER
	.cc_bottom _i.keyword_if._chan.buffer_ready.function
	.set	_i.keyword_if._chan.buffer_ready.nstackwords,0
	.globl	_i.keyword_if._chan.buffer_ready.nstackwords
	.weak	_i.keyword_if._chan.buffer_ready.nstackwords
	.set	_i.keyword_if._chan.buffer_ready.maxcores,1
	.globl	_i.keyword_if._chan.buffer_ready.maxcores
	.weak	_i.keyword_if._chan.buffer_ready.maxcores
	.set	_i.keyword_if._chan.buffer_ready.maxtimers,0
	.globl	_i.keyword_if._chan.buffer_ready.maxtimers
	.weak	_i.keyword_if._chan.buffer_ready.maxtimers
	.set	_i.keyword_if._chan.buffer_ready.maxchanends,1
	.globl	_i.keyword_if._chan.buffer_ready.maxchanends
	.weak	_i.keyword_if._chan.buffer_ready.maxchanends
.Ltmp142:
	.size	_i.keyword_if._chan.buffer_ready, .Ltmp142-_i.keyword_if._chan.buffer_ready
	.cfi_endproc

	.weak	_i.keyword_if._chan_yield.buffer_ready
	.align	4
	.type	_i.keyword_if._chan_yield.buffer_ready,@function
	.cc_top _i.keyword_if._chan_yield.buffer_ready.function,_i.keyword_if._chan_yield.buffer_ready
_i.keyword_if._chan_yield.buffer_ready: # @_i.keyword_if._chan_yield.buffer_ready
	.cfi_startproc
	.issue_mode dual
# BB#0:                                 # %allocas
	{
		nop
		dualentsp 4
	}
.Ltmp143:
	.cfi_def_cfa_offset 16
.Ltmp144:
	.cfi_offset 15, 0
	{
		nop
		stw r4, sp[2]
	}
.Ltmp145:
	.cfi_offset 4, -8
	#DEBUG_VALUE: _i.keyword_if._chan_yield.buffer_ready:s <- R0
	#DEBUG_VALUE: _i.keyword_if._chan_yield.buffer_ready:param1 <- R1
	{
		getr r4, 2
		ldw r2, r0[0]
	}
	{
		setd res[r4], r2
		nop
	}
	{
		out res[r4], r4
		nop
	}
	{
		outct res[r4], 2
		nop
	}
	{
		chkct res[r4], 1
		nop
	}
	{
		out res[r4], r1
		nop
	}
	{
		outct res[r4], 2
		ldw r2, r0[1]
	}
	{
		ldc r1, 0
		mov r0, r4
	}
	bl __interface_client_call_y
	{
		in r0, res[r4]
		nop
	}
	{
		chkct res[r4], 1
		nop
	}
	{
		freer res[r4]
		ldw r4, sp[2]
	}
	{
		nop
		retsp 4
	}
	# RETURN_REG_HOLDER
	.cc_bottom _i.keyword_if._chan_yield.buffer_ready.function
	.set	_i.keyword_if._chan_yield.buffer_ready.nstackwords,((_i.keyword_if._client_call_y.max.nstackwords $M ($D __interface_client_call_y.nstackwords ? __interface_client_call_y.nstackwords $: _i.keyword_if._client_call_y.max.nstackwords)) + 4)
	.globl	_i.keyword_if._chan_yield.buffer_ready.nstackwords
	.weak	_i.keyword_if._chan_yield.buffer_ready.nstackwords
	.set	_i.keyword_if._chan_yield.buffer_ready.maxcores,($D __interface_client_call_y.maxcores ? __interface_client_call_y.maxcores $: _i.keyword_if._client_call_y.max.maxcores) $M 1
	.globl	_i.keyword_if._chan_yield.buffer_ready.maxcores
	.weak	_i.keyword_if._chan_yield.buffer_ready.maxcores
	.set	_i.keyword_if._chan_yield.buffer_ready.maxtimers,($D __interface_client_call_y.maxtimers ? __interface_client_call_y.maxtimers $: _i.keyword_if._client_call_y.max.maxtimers) $M 0
	.globl	_i.keyword_if._chan_yield.buffer_ready.maxtimers
	.weak	_i.keyword_if._chan_yield.buffer_ready.maxtimers
	.set	_i.keyword_if._chan_yield.buffer_ready.maxchanends,(1 + ($D __interface_client_call_y.maxchanends ? __interface_client_call_y.maxchanends $: _i.keyword_if._client_call_y.max.maxchanends)) $M 1
	.globl	_i.keyword_if._chan_yield.buffer_ready.maxchanends
	.weak	_i.keyword_if._chan_yield.buffer_ready.maxchanends
.Ltmp146:
	.size	_i.keyword_if._chan_yield.buffer_ready, .Ltmp146-_i.keyword_if._chan_yield.buffer_ready
	.cfi_endproc

	.weak	_i.i2c_master_if._chan.shutdown
	.align	4
	.type	_i.i2c_master_if._chan.shutdown,@function
	.cc_top _i.i2c_master_if._chan.shutdown.function,_i.i2c_master_if._chan.shutdown
_i.i2c_master_if._chan.shutdown:        # @_i.i2c_master_if._chan.shutdown
	.cfi_startproc
	.issue_mode dual
# BB#0:                                 # %allocas
	{
		nop
		dualentsp 4
	}
.Ltmp147:
	.cfi_def_cfa_offset 16
.Ltmp148:
	.cfi_offset 15, 0
.Ltmp149:
	.cfi_offset 4, -8
	#DEBUG_VALUE: _i.i2c_master_if._chan.shutdown:dest <- R0
	{
		getr r4, 2
		stw r4, sp[2]
	}
	{
		setd res[r4], r0
		add r0, r4, 3
	}
	{
		out res[r4], r0
		nop
	}
	{
		outct res[r4], 2
		ldc r1, 0
	}
	{
		mov r0, r4
		nop
	}
	bl __interface_wait_and_yield
	{
		in r0, res[r4]
		nop
	}
	{
		chkct res[r4], 1
		nop
	}
	{
		freer res[r4]
		ldw r4, sp[2]
	}
	{
		nop
		retsp 4
	}
	# RETURN_REG_HOLDER
	.cc_bottom _i.i2c_master_if._chan.shutdown.function
	.set	_i.i2c_master_if._chan.shutdown.nstackwords,((_i.i2c_master_if._client_call_y.max.nstackwords $M ($D __interface_wait_and_yield.nstackwords ? __interface_wait_and_yield.nstackwords $: _i.i2c_master_if._client_call_y.max.nstackwords)) + 4)
	.globl	_i.i2c_master_if._chan.shutdown.nstackwords
	.weak	_i.i2c_master_if._chan.shutdown.nstackwords
	.set	_i.i2c_master_if._chan.shutdown.maxcores,($D __interface_wait_and_yield.maxcores ? __interface_wait_and_yield.maxcores $: _i.i2c_master_if._client_call_y.max.maxcores) $M 1
	.globl	_i.i2c_master_if._chan.shutdown.maxcores
	.weak	_i.i2c_master_if._chan.shutdown.maxcores
	.set	_i.i2c_master_if._chan.shutdown.maxtimers,($D __interface_wait_and_yield.maxtimers ? __interface_wait_and_yield.maxtimers $: _i.i2c_master_if._client_call_y.max.maxtimers) $M 0
	.globl	_i.i2c_master_if._chan.shutdown.maxtimers
	.weak	_i.i2c_master_if._chan.shutdown.maxtimers
	.set	_i.i2c_master_if._chan.shutdown.maxchanends,(1 + ($D __interface_wait_and_yield.maxchanends ? __interface_wait_and_yield.maxchanends $: _i.i2c_master_if._client_call_y.max.maxchanends)) $M 1
	.globl	_i.i2c_master_if._chan.shutdown.maxchanends
	.weak	_i.i2c_master_if._chan.shutdown.maxchanends
.Ltmp150:
	.size	_i.i2c_master_if._chan.shutdown, .Ltmp150-_i.i2c_master_if._chan.shutdown
	.cfi_endproc

	.weak	_i.i2c_master_if._chan.send_stop_bit
	.align	4
	.type	_i.i2c_master_if._chan.send_stop_bit,@function
	.cc_top _i.i2c_master_if._chan.send_stop_bit.function,_i.i2c_master_if._chan.send_stop_bit
_i.i2c_master_if._chan.send_stop_bit:   # @_i.i2c_master_if._chan.send_stop_bit
	.cfi_startproc
	.issue_mode dual
# BB#0:                                 # %allocas
	{
		nop
		dualentsp 4
	}
.Ltmp151:
	.cfi_def_cfa_offset 16
.Ltmp152:
	.cfi_offset 15, 0
.Ltmp153:
	.cfi_offset 4, -8
	#DEBUG_VALUE: _i.i2c_master_if._chan.send_stop_bit:dest <- R0
	{
		getr r4, 2
		stw r4, sp[2]
	}
	{
		setd res[r4], r0
		add r0, r4, 2
	}
	{
		out res[r4], r0
		nop
	}
	{
		outct res[r4], 2
		ldc r1, 0
	}
	{
		mov r0, r4
		nop
	}
	bl __interface_wait_and_yield
	{
		in r0, res[r4]
		nop
	}
	{
		chkct res[r4], 1
		nop
	}
	{
		freer res[r4]
		ldw r4, sp[2]
	}
	{
		nop
		retsp 4
	}
	# RETURN_REG_HOLDER
	.cc_bottom _i.i2c_master_if._chan.send_stop_bit.function
	.set	_i.i2c_master_if._chan.send_stop_bit.nstackwords,((_i.i2c_master_if._client_call_y.max.nstackwords $M ($D __interface_wait_and_yield.nstackwords ? __interface_wait_and_yield.nstackwords $: _i.i2c_master_if._client_call_y.max.nstackwords)) + 4)
	.globl	_i.i2c_master_if._chan.send_stop_bit.nstackwords
	.weak	_i.i2c_master_if._chan.send_stop_bit.nstackwords
	.set	_i.i2c_master_if._chan.send_stop_bit.maxcores,($D __interface_wait_and_yield.maxcores ? __interface_wait_and_yield.maxcores $: _i.i2c_master_if._client_call_y.max.maxcores) $M 1
	.globl	_i.i2c_master_if._chan.send_stop_bit.maxcores
	.weak	_i.i2c_master_if._chan.send_stop_bit.maxcores
	.set	_i.i2c_master_if._chan.send_stop_bit.maxtimers,($D __interface_wait_and_yield.maxtimers ? __interface_wait_and_yield.maxtimers $: _i.i2c_master_if._client_call_y.max.maxtimers) $M 0
	.globl	_i.i2c_master_if._chan.send_stop_bit.maxtimers
	.weak	_i.i2c_master_if._chan.send_stop_bit.maxtimers
	.set	_i.i2c_master_if._chan.send_stop_bit.maxchanends,(1 + ($D __interface_wait_and_yield.maxchanends ? __interface_wait_and_yield.maxchanends $: _i.i2c_master_if._client_call_y.max.maxchanends)) $M 1
	.globl	_i.i2c_master_if._chan.send_stop_bit.maxchanends
	.weak	_i.i2c_master_if._chan.send_stop_bit.maxchanends
.Ltmp154:
	.size	_i.i2c_master_if._chan.send_stop_bit, .Ltmp154-_i.i2c_master_if._chan.send_stop_bit
	.cfi_endproc

	.weak	_i.i2c_master_if._chan.read
	.align	4
	.type	_i.i2c_master_if._chan.read,@function
	.cc_top _i.i2c_master_if._chan.read.function,_i.i2c_master_if._chan.read
_i.i2c_master_if._chan.read:            # @_i.i2c_master_if._chan.read
	.cfi_startproc
	.issue_mode dual
# BB#0:                                 # %allocas
	{
		nop
		dualentsp 8
	}
.Ltmp155:
	.cfi_def_cfa_offset 32
.Ltmp156:
	.cfi_offset 15, 0
	std r5, r4, sp[1]               # 4-byte Folded Spill
.Ltmp157:
	.cfi_offset 4, -24
.Ltmp158:
	.cfi_offset 5, -20
	std r7, r6, sp[2]               # 4-byte Folded Spill
.Ltmp159:
	.cfi_offset 6, -16
.Ltmp160:
	.cfi_offset 7, -12
.Ltmp161:
	.cfi_offset 8, -8
	#DEBUG_VALUE: _i.i2c_master_if._chan.read:dest <- R0
	#DEBUG_VALUE: _i.i2c_master_if._chan.read:param1 <- R1
	#DEBUG_VALUE: _i.i2c_master_if._chan.read:param2 <- R2
	#DEBUG_VALUE: _i.i2c_master_if._chan.read:param3 <- R3
	#DEBUG_VALUE: _i.i2c_master_if._chan.read:param4 <- [SP+36]
	#DEBUG_VALUE: _i.i2c_master_if._chan.read:param3 <- R5
	{
		mov r5, r3
		stw r8, sp[6]
	}
	#DEBUG_VALUE: _i.i2c_master_if._chan.read:param2 <- R6
	#DEBUG_VALUE: _i.i2c_master_if._chan.read:param1 <- R7
	{
		mov r6, r2
		mov r7, r1
	}
	{
		getr r4, 2
		ldw r8, sp[9]
	}
	{
		setd res[r4], r0
		add r0, r4, 1
	}
	{
		out res[r4], r0
		nop
	}
	{
		outct res[r4], 2
		ldc r1, 0
	}
	{
		mov r0, r4
		nop
	}
	bl __interface_wait_and_yield
	{
		chkct res[r4], 1
		nop
	}
	{
		outt res[r4], r7
		stw r6, sp[1]
	}
	{
		out res[r4], r5
		nop
	}
	{
		out res[r4], r8
		nop
	}
	{
		outct res[r4], 2
		ldaw r1, sp[1]
	}
	{
		mov r0, r4
		nop
	}
	bl __interface_client_call
	{
		in r0, res[r4]
		nop
	}
	{
		chkct res[r4], 1
		nop
	}
	{
		freer res[r4]
		ldw r8, sp[6]
	}
	ldd r7, r6, sp[2]               # 4-byte Folded Reload
	ldd r5, r4, sp[1]               # 4-byte Folded Reload
	{
		nop
		retsp 8
	}
	# RETURN_REG_HOLDER
	.cc_bottom _i.i2c_master_if._chan.read.function
	.set	_i.i2c_master_if._chan.read.nstackwords,((_i.i2c_master_if._client_call_y.max.nstackwords $M ($D __interface_wait_and_yield.nstackwords ? __interface_wait_and_yield.nstackwords $: _i.i2c_master_if._client_call_y.max.nstackwords) $M __interface_client_call.nstackwords) + 8)
	.globl	_i.i2c_master_if._chan.read.nstackwords
	.weak	_i.i2c_master_if._chan.read.nstackwords
	.set	_i.i2c_master_if._chan.read.maxcores,__interface_client_call.maxcores $M ($D __interface_wait_and_yield.maxcores ? __interface_wait_and_yield.maxcores $: _i.i2c_master_if._client_call_y.max.maxcores) $M 1
	.globl	_i.i2c_master_if._chan.read.maxcores
	.weak	_i.i2c_master_if._chan.read.maxcores
	.set	_i.i2c_master_if._chan.read.maxtimers,__interface_client_call.maxtimers $M ($D __interface_wait_and_yield.maxtimers ? __interface_wait_and_yield.maxtimers $: _i.i2c_master_if._client_call_y.max.maxtimers) $M 0
	.globl	_i.i2c_master_if._chan.read.maxtimers
	.weak	_i.i2c_master_if._chan.read.maxtimers
	.set	_i.i2c_master_if._chan.read.maxchanends,(1 + __interface_client_call.maxchanends) $M (1 + ($D __interface_wait_and_yield.maxchanends ? __interface_wait_and_yield.maxchanends $: _i.i2c_master_if._client_call_y.max.maxchanends)) $M 1
	.globl	_i.i2c_master_if._chan.read.maxchanends
	.weak	_i.i2c_master_if._chan.read.maxchanends
.Ltmp162:
	.size	_i.i2c_master_if._chan.read, .Ltmp162-_i.i2c_master_if._chan.read
	.cfi_endproc

	.weak	_i.i2c_master_if._chan.write
	.align	4
	.type	_i.i2c_master_if._chan.write,@function
	.cc_top _i.i2c_master_if._chan.write.function,_i.i2c_master_if._chan.write
_i.i2c_master_if._chan.write:           # @_i.i2c_master_if._chan.write
	.cfi_startproc
	.issue_mode dual
# BB#0:                                 # %allocas
	{
		nop
		dualentsp 8
	}
.Ltmp163:
	.cfi_def_cfa_offset 32
.Ltmp164:
	.cfi_offset 15, 0
	std r5, r4, sp[1]               # 4-byte Folded Spill
.Ltmp165:
	.cfi_offset 4, -24
.Ltmp166:
	.cfi_offset 5, -20
	std r7, r6, sp[2]               # 4-byte Folded Spill
.Ltmp167:
	.cfi_offset 6, -16
.Ltmp168:
	.cfi_offset 7, -12
	std r9, r8, sp[3]               # 4-byte Folded Spill
.Ltmp169:
	.cfi_offset 8, -8
.Ltmp170:
	.cfi_offset 9, -4
	#DEBUG_VALUE: _i.i2c_master_if._chan.write:dest <- R0
	#DEBUG_VALUE: _i.i2c_master_if._chan.write:param1 <- R1
	#DEBUG_VALUE: _i.i2c_master_if._chan.write:param2 <- R2
	#DEBUG_VALUE: _i.i2c_master_if._chan.write:param3 <- R3
	#DEBUG_VALUE: _i.i2c_master_if._chan.write:param4 <- [SP+36]
	#DEBUG_VALUE: _i.i2c_master_if._chan.write:param5 <- [SP+40]
	#DEBUG_VALUE: _i.i2c_master_if._chan.write:param3 <- R5
	#DEBUG_VALUE: _i.i2c_master_if._chan.write:param2 <- R6
	{
		mov r5, r3
		mov r6, r2
	}
	#DEBUG_VALUE: _i.i2c_master_if._chan.write:param1 <- R7
	{
		mov r7, r1
		ldw r9, sp[10]
	}
	{
		getr r4, 2
		ldw r8, sp[9]
	}
	{
		setd res[r4], r0
		nop
	}
	{
		out res[r4], r4
		nop
	}
	{
		outct res[r4], 2
		ldc r1, 0
	}
	{
		mov r0, r4
		nop
	}
	bl __interface_wait_and_yield
	{
		chkct res[r4], 1
		nop
	}
	{
		outt res[r4], r7
		stw r6, sp[1]
	}
	{
		out res[r4], r5
		ldw r0, r8[0]
	}
	{
		out res[r4], r0
		nop
	}
	{
		out res[r4], r9
		nop
	}
	{
		outct res[r4], 2
		ldaw r1, sp[1]
	}
	{
		mov r0, r4
		nop
	}
	bl __interface_client_call
	{
		in r0, res[r4]
		nop
	}
	{
		in r0, res[r4]
		stw r0, r8[0]
	}
	{
		chkct res[r4], 1
		nop
	}
	{
		freer res[r4]
		nop
	}
	ldd r9, r8, sp[3]               # 4-byte Folded Reload
	ldd r7, r6, sp[2]               # 4-byte Folded Reload
	ldd r5, r4, sp[1]               # 4-byte Folded Reload
	{
		nop
		retsp 8
	}
	# RETURN_REG_HOLDER
	.cc_bottom _i.i2c_master_if._chan.write.function
	.set	_i.i2c_master_if._chan.write.nstackwords,((_i.i2c_master_if._client_call_y.max.nstackwords $M ($D __interface_wait_and_yield.nstackwords ? __interface_wait_and_yield.nstackwords $: _i.i2c_master_if._client_call_y.max.nstackwords) $M __interface_client_call.nstackwords) + 8)
	.globl	_i.i2c_master_if._chan.write.nstackwords
	.weak	_i.i2c_master_if._chan.write.nstackwords
	.set	_i.i2c_master_if._chan.write.maxcores,__interface_client_call.maxcores $M ($D __interface_wait_and_yield.maxcores ? __interface_wait_and_yield.maxcores $: _i.i2c_master_if._client_call_y.max.maxcores) $M 1
	.globl	_i.i2c_master_if._chan.write.maxcores
	.weak	_i.i2c_master_if._chan.write.maxcores
	.set	_i.i2c_master_if._chan.write.maxtimers,__interface_client_call.maxtimers $M ($D __interface_wait_and_yield.maxtimers ? __interface_wait_and_yield.maxtimers $: _i.i2c_master_if._client_call_y.max.maxtimers) $M 0
	.globl	_i.i2c_master_if._chan.write.maxtimers
	.weak	_i.i2c_master_if._chan.write.maxtimers
	.set	_i.i2c_master_if._chan.write.maxchanends,(1 + __interface_client_call.maxchanends) $M (1 + ($D __interface_wait_and_yield.maxchanends ? __interface_wait_and_yield.maxchanends $: _i.i2c_master_if._client_call_y.max.maxchanends)) $M 1
	.globl	_i.i2c_master_if._chan.write.maxchanends
	.weak	_i.i2c_master_if._chan.write.maxchanends
.Ltmp171:
	.size	_i.i2c_master_if._chan.write, .Ltmp171-_i.i2c_master_if._chan.write
	.cfi_endproc

	.weak	_i.i2c_master_if._chan_yield.shutdown
	.align	4
	.type	_i.i2c_master_if._chan_yield.shutdown,@function
	.cc_top _i.i2c_master_if._chan_yield.shutdown.function,_i.i2c_master_if._chan_yield.shutdown
_i.i2c_master_if._chan_yield.shutdown:  # @_i.i2c_master_if._chan_yield.shutdown
	.cfi_startproc
	.issue_mode dual
# BB#0:                                 # %allocas
	{
		nop
		dualentsp 4
	}
.Ltmp172:
	.cfi_def_cfa_offset 16
.Ltmp173:
	.cfi_offset 15, 0
	std r5, r4, sp[1]               # 4-byte Folded Spill
.Ltmp174:
	.cfi_offset 4, -8
.Ltmp175:
	.cfi_offset 5, -4
	#DEBUG_VALUE: _i.i2c_master_if._chan_yield.shutdown:s <- R0
	{
		getr r4, 2
		ldw r1, r0[0]
	}
	{
		setd res[r4], r1
		add r1, r4, 3
	}
	{
		out res[r4], r1
		nop
	}
	{
		outct res[r4], 2
		ldw r5, r0[1]
	}
	{
		mov r0, r4
		mov r1, r5
	}
	bl __interface_wait_and_yield
	{
		ldc r1, 0
		mov r0, r4
	}
	{
		mov r2, r5
		nop
	}
	bl __interface_client_call_y
	{
		chkct res[r4], 1
		nop
	}
	{
		freer res[r4]
		nop
	}
	ldd r5, r4, sp[1]               # 4-byte Folded Reload
	{
		nop
		retsp 4
	}
	# RETURN_REG_HOLDER
	.cc_bottom _i.i2c_master_if._chan_yield.shutdown.function
	.set	_i.i2c_master_if._chan_yield.shutdown.nstackwords,((($D __interface_wait_and_yield.nstackwords ? __interface_wait_and_yield.nstackwords $: _i.i2c_master_if._client_call_y.max.nstackwords) $M _i.i2c_master_if._client_call_y.max.nstackwords $M ($D __interface_client_call_y.nstackwords ? __interface_client_call_y.nstackwords $: _i.i2c_master_if._client_call_y.max.nstackwords)) + 4)
	.globl	_i.i2c_master_if._chan_yield.shutdown.nstackwords
	.weak	_i.i2c_master_if._chan_yield.shutdown.nstackwords
	.set	_i.i2c_master_if._chan_yield.shutdown.maxcores,($D __interface_client_call_y.maxcores ? __interface_client_call_y.maxcores $: _i.i2c_master_if._client_call_y.max.maxcores) $M ($D __interface_wait_and_yield.maxcores ? __interface_wait_and_yield.maxcores $: _i.i2c_master_if._client_call_y.max.maxcores) $M 1
	.globl	_i.i2c_master_if._chan_yield.shutdown.maxcores
	.weak	_i.i2c_master_if._chan_yield.shutdown.maxcores
	.set	_i.i2c_master_if._chan_yield.shutdown.maxtimers,($D __interface_client_call_y.maxtimers ? __interface_client_call_y.maxtimers $: _i.i2c_master_if._client_call_y.max.maxtimers) $M ($D __interface_wait_and_yield.maxtimers ? __interface_wait_and_yield.maxtimers $: _i.i2c_master_if._client_call_y.max.maxtimers) $M 0
	.globl	_i.i2c_master_if._chan_yield.shutdown.maxtimers
	.weak	_i.i2c_master_if._chan_yield.shutdown.maxtimers
	.set	_i.i2c_master_if._chan_yield.shutdown.maxchanends,(1 + ($D __interface_client_call_y.maxchanends ? __interface_client_call_y.maxchanends $: _i.i2c_master_if._client_call_y.max.maxchanends)) $M (1 + ($D __interface_wait_and_yield.maxchanends ? __interface_wait_and_yield.maxchanends $: _i.i2c_master_if._client_call_y.max.maxchanends)) $M 1
	.globl	_i.i2c_master_if._chan_yield.shutdown.maxchanends
	.weak	_i.i2c_master_if._chan_yield.shutdown.maxchanends
.Ltmp176:
	.size	_i.i2c_master_if._chan_yield.shutdown, .Ltmp176-_i.i2c_master_if._chan_yield.shutdown
	.cfi_endproc

	.weak	_i.i2c_master_if._chan_yield.send_stop_bit
	.align	4
	.type	_i.i2c_master_if._chan_yield.send_stop_bit,@function
	.cc_top _i.i2c_master_if._chan_yield.send_stop_bit.function,_i.i2c_master_if._chan_yield.send_stop_bit
_i.i2c_master_if._chan_yield.send_stop_bit: # @_i.i2c_master_if._chan_yield.send_stop_bit
	.cfi_startproc
	.issue_mode dual
# BB#0:                                 # %allocas
	{
		nop
		dualentsp 4
	}
.Ltmp177:
	.cfi_def_cfa_offset 16
.Ltmp178:
	.cfi_offset 15, 0
	std r5, r4, sp[1]               # 4-byte Folded Spill
.Ltmp179:
	.cfi_offset 4, -8
.Ltmp180:
	.cfi_offset 5, -4
	#DEBUG_VALUE: _i.i2c_master_if._chan_yield.send_stop_bit:s <- R0
	{
		getr r4, 2
		ldw r1, r0[0]
	}
	{
		setd res[r4], r1
		add r1, r4, 2
	}
	{
		out res[r4], r1
		nop
	}
	{
		outct res[r4], 2
		ldw r5, r0[1]
	}
	{
		mov r0, r4
		mov r1, r5
	}
	bl __interface_wait_and_yield
	{
		ldc r1, 0
		mov r0, r4
	}
	{
		mov r2, r5
		nop
	}
	bl __interface_client_call_y
	{
		chkct res[r4], 1
		nop
	}
	{
		freer res[r4]
		nop
	}
	ldd r5, r4, sp[1]               # 4-byte Folded Reload
	{
		nop
		retsp 4
	}
	# RETURN_REG_HOLDER
	.cc_bottom _i.i2c_master_if._chan_yield.send_stop_bit.function
	.set	_i.i2c_master_if._chan_yield.send_stop_bit.nstackwords,((($D __interface_wait_and_yield.nstackwords ? __interface_wait_and_yield.nstackwords $: _i.i2c_master_if._client_call_y.max.nstackwords) $M _i.i2c_master_if._client_call_y.max.nstackwords $M ($D __interface_client_call_y.nstackwords ? __interface_client_call_y.nstackwords $: _i.i2c_master_if._client_call_y.max.nstackwords)) + 4)
	.globl	_i.i2c_master_if._chan_yield.send_stop_bit.nstackwords
	.weak	_i.i2c_master_if._chan_yield.send_stop_bit.nstackwords
	.set	_i.i2c_master_if._chan_yield.send_stop_bit.maxcores,($D __interface_client_call_y.maxcores ? __interface_client_call_y.maxcores $: _i.i2c_master_if._client_call_y.max.maxcores) $M ($D __interface_wait_and_yield.maxcores ? __interface_wait_and_yield.maxcores $: _i.i2c_master_if._client_call_y.max.maxcores) $M 1
	.globl	_i.i2c_master_if._chan_yield.send_stop_bit.maxcores
	.weak	_i.i2c_master_if._chan_yield.send_stop_bit.maxcores
	.set	_i.i2c_master_if._chan_yield.send_stop_bit.maxtimers,($D __interface_client_call_y.maxtimers ? __interface_client_call_y.maxtimers $: _i.i2c_master_if._client_call_y.max.maxtimers) $M ($D __interface_wait_and_yield.maxtimers ? __interface_wait_and_yield.maxtimers $: _i.i2c_master_if._client_call_y.max.maxtimers) $M 0
	.globl	_i.i2c_master_if._chan_yield.send_stop_bit.maxtimers
	.weak	_i.i2c_master_if._chan_yield.send_stop_bit.maxtimers
	.set	_i.i2c_master_if._chan_yield.send_stop_bit.maxchanends,(1 + ($D __interface_client_call_y.maxchanends ? __interface_client_call_y.maxchanends $: _i.i2c_master_if._client_call_y.max.maxchanends)) $M (1 + ($D __interface_wait_and_yield.maxchanends ? __interface_wait_and_yield.maxchanends $: _i.i2c_master_if._client_call_y.max.maxchanends)) $M 1
	.globl	_i.i2c_master_if._chan_yield.send_stop_bit.maxchanends
	.weak	_i.i2c_master_if._chan_yield.send_stop_bit.maxchanends
.Ltmp181:
	.size	_i.i2c_master_if._chan_yield.send_stop_bit, .Ltmp181-_i.i2c_master_if._chan_yield.send_stop_bit
	.cfi_endproc

	.weak	_i.i2c_master_if._chan_yield.read
	.align	4
	.type	_i.i2c_master_if._chan_yield.read,@function
	.cc_top _i.i2c_master_if._chan_yield.read.function,_i.i2c_master_if._chan_yield.read
_i.i2c_master_if._chan_yield.read:      # @_i.i2c_master_if._chan_yield.read
	.cfi_startproc
	.issue_mode dual
# BB#0:                                 # %allocas
	{
		nop
		dualentsp 8
	}
.Ltmp182:
	.cfi_def_cfa_offset 32
.Ltmp183:
	.cfi_offset 15, 0
	std r5, r4, sp[1]               # 4-byte Folded Spill
.Ltmp184:
	.cfi_offset 4, -24
.Ltmp185:
	.cfi_offset 5, -20
	std r7, r6, sp[2]               # 4-byte Folded Spill
.Ltmp186:
	.cfi_offset 6, -16
.Ltmp187:
	.cfi_offset 7, -12
	std r9, r8, sp[3]               # 4-byte Folded Spill
.Ltmp188:
	.cfi_offset 8, -8
.Ltmp189:
	.cfi_offset 9, -4
	#DEBUG_VALUE: _i.i2c_master_if._chan_yield.read:s <- R0
	#DEBUG_VALUE: _i.i2c_master_if._chan_yield.read:param1 <- R1
	#DEBUG_VALUE: _i.i2c_master_if._chan_yield.read:param2 <- R2
	#DEBUG_VALUE: _i.i2c_master_if._chan_yield.read:param3 <- R3
	#DEBUG_VALUE: _i.i2c_master_if._chan_yield.read:param4 <- [SP+36]
	#DEBUG_VALUE: _i.i2c_master_if._chan_yield.read:param3 <- R5
	#DEBUG_VALUE: _i.i2c_master_if._chan_yield.read:param2 <- R6
	{
		mov r5, r3
		mov r6, r2
	}
	#DEBUG_VALUE: _i.i2c_master_if._chan_yield.read:param1 <- R7
	{
		mov r7, r1
		ldw r9, sp[9]
	}
	{
		getr r4, 2
		ldw r1, r0[0]
	}
	{
		setd res[r4], r1
		add r1, r4, 1
	}
	{
		out res[r4], r1
		nop
	}
	{
		outct res[r4], 2
		ldw r8, r0[1]
	}
	{
		mov r0, r4
		mov r1, r8
	}
	bl __interface_wait_and_yield
	{
		chkct res[r4], 1
		nop
	}
	{
		outt res[r4], r7
		stw r6, sp[1]
	}
	{
		out res[r4], r5
		nop
	}
	{
		out res[r4], r9
		nop
	}
	{
		outct res[r4], 2
		ldaw r1, sp[1]
	}
	{
		mov r0, r4
		mov r2, r8
	}
	bl __interface_client_call_y
	{
		in r0, res[r4]
		nop
	}
	{
		chkct res[r4], 1
		nop
	}
	{
		freer res[r4]
		nop
	}
	ldd r9, r8, sp[3]               # 4-byte Folded Reload
	ldd r7, r6, sp[2]               # 4-byte Folded Reload
	ldd r5, r4, sp[1]               # 4-byte Folded Reload
	{
		nop
		retsp 8
	}
	# RETURN_REG_HOLDER
	.cc_bottom _i.i2c_master_if._chan_yield.read.function
	.set	_i.i2c_master_if._chan_yield.read.nstackwords,((($D __interface_wait_and_yield.nstackwords ? __interface_wait_and_yield.nstackwords $: _i.i2c_master_if._client_call_y.max.nstackwords) $M _i.i2c_master_if._client_call_y.max.nstackwords $M ($D __interface_client_call_y.nstackwords ? __interface_client_call_y.nstackwords $: _i.i2c_master_if._client_call_y.max.nstackwords)) + 8)
	.globl	_i.i2c_master_if._chan_yield.read.nstackwords
	.weak	_i.i2c_master_if._chan_yield.read.nstackwords
	.set	_i.i2c_master_if._chan_yield.read.maxcores,($D __interface_client_call_y.maxcores ? __interface_client_call_y.maxcores $: _i.i2c_master_if._client_call_y.max.maxcores) $M ($D __interface_wait_and_yield.maxcores ? __interface_wait_and_yield.maxcores $: _i.i2c_master_if._client_call_y.max.maxcores) $M 1
	.globl	_i.i2c_master_if._chan_yield.read.maxcores
	.weak	_i.i2c_master_if._chan_yield.read.maxcores
	.set	_i.i2c_master_if._chan_yield.read.maxtimers,($D __interface_client_call_y.maxtimers ? __interface_client_call_y.maxtimers $: _i.i2c_master_if._client_call_y.max.maxtimers) $M ($D __interface_wait_and_yield.maxtimers ? __interface_wait_and_yield.maxtimers $: _i.i2c_master_if._client_call_y.max.maxtimers) $M 0
	.globl	_i.i2c_master_if._chan_yield.read.maxtimers
	.weak	_i.i2c_master_if._chan_yield.read.maxtimers
	.set	_i.i2c_master_if._chan_yield.read.maxchanends,(1 + ($D __interface_client_call_y.maxchanends ? __interface_client_call_y.maxchanends $: _i.i2c_master_if._client_call_y.max.maxchanends)) $M (1 + ($D __interface_wait_and_yield.maxchanends ? __interface_wait_and_yield.maxchanends $: _i.i2c_master_if._client_call_y.max.maxchanends)) $M 1
	.globl	_i.i2c_master_if._chan_yield.read.maxchanends
	.weak	_i.i2c_master_if._chan_yield.read.maxchanends
.Ltmp190:
	.size	_i.i2c_master_if._chan_yield.read, .Ltmp190-_i.i2c_master_if._chan_yield.read
	.cfi_endproc

	.weak	_i.i2c_master_if._chan_yield.write
	.align	4
	.type	_i.i2c_master_if._chan_yield.write,@function
	.cc_top _i.i2c_master_if._chan_yield.write.function,_i.i2c_master_if._chan_yield.write
_i.i2c_master_if._chan_yield.write:     # @_i.i2c_master_if._chan_yield.write
	.cfi_startproc
	.issue_mode dual
# BB#0:                                 # %allocas
	{
		nop
		dualentsp 10
	}
.Ltmp191:
	.cfi_def_cfa_offset 40
.Ltmp192:
	.cfi_offset 15, 0
	std r5, r4, sp[1]               # 4-byte Folded Spill
.Ltmp193:
	.cfi_offset 4, -32
.Ltmp194:
	.cfi_offset 5, -28
	std r7, r6, sp[2]               # 4-byte Folded Spill
.Ltmp195:
	.cfi_offset 6, -24
.Ltmp196:
	.cfi_offset 7, -20
	std r9, r8, sp[3]               # 4-byte Folded Spill
.Ltmp197:
	.cfi_offset 8, -16
.Ltmp198:
	.cfi_offset 9, -12
.Ltmp199:
	.cfi_offset 10, -8
	#DEBUG_VALUE: _i.i2c_master_if._chan_yield.write:s <- R0
	#DEBUG_VALUE: _i.i2c_master_if._chan_yield.write:param1 <- R1
	#DEBUG_VALUE: _i.i2c_master_if._chan_yield.write:param2 <- R2
	#DEBUG_VALUE: _i.i2c_master_if._chan_yield.write:param3 <- R3
	#DEBUG_VALUE: _i.i2c_master_if._chan_yield.write:param4 <- [SP+44]
	#DEBUG_VALUE: _i.i2c_master_if._chan_yield.write:param5 <- [SP+48]
	#DEBUG_VALUE: _i.i2c_master_if._chan_yield.write:param3 <- R5
	{
		mov r5, r3
		stw r10, sp[8]
	}
	#DEBUG_VALUE: _i.i2c_master_if._chan_yield.write:param2 <- R6
	#DEBUG_VALUE: _i.i2c_master_if._chan_yield.write:param1 <- R7
	{
		mov r6, r2
		mov r7, r1
	}
	{
		nop
		ldw r10, sp[12]
	}
	{
		nop
		ldw r9, sp[11]
	}
	{
		getr r4, 2
		ldw r1, r0[0]
	}
	{
		setd res[r4], r1
		nop
	}
	{
		out res[r4], r4
		nop
	}
	{
		outct res[r4], 2
		ldw r8, r0[1]
	}
	{
		mov r0, r4
		mov r1, r8
	}
	bl __interface_wait_and_yield
	{
		chkct res[r4], 1
		nop
	}
	{
		outt res[r4], r7
		stw r6, sp[1]
	}
	{
		out res[r4], r5
		ldw r0, r9[0]
	}
	{
		out res[r4], r0
		nop
	}
	{
		out res[r4], r10
		nop
	}
	{
		outct res[r4], 2
		ldaw r1, sp[1]
	}
	{
		mov r0, r4
		mov r2, r8
	}
	bl __interface_client_call_y
	{
		in r0, res[r4]
		nop
	}
	{
		in r0, res[r4]
		stw r0, r9[0]
	}
	{
		chkct res[r4], 1
		nop
	}
	{
		freer res[r4]
		ldw r10, sp[8]
	}
	ldd r9, r8, sp[3]               # 4-byte Folded Reload
	ldd r7, r6, sp[2]               # 4-byte Folded Reload
	ldd r5, r4, sp[1]               # 4-byte Folded Reload
	{
		nop
		retsp 10
	}
	# RETURN_REG_HOLDER
	.cc_bottom _i.i2c_master_if._chan_yield.write.function
	.set	_i.i2c_master_if._chan_yield.write.nstackwords,((($D __interface_wait_and_yield.nstackwords ? __interface_wait_and_yield.nstackwords $: _i.i2c_master_if._client_call_y.max.nstackwords) $M _i.i2c_master_if._client_call_y.max.nstackwords $M ($D __interface_client_call_y.nstackwords ? __interface_client_call_y.nstackwords $: _i.i2c_master_if._client_call_y.max.nstackwords)) + 10)
	.globl	_i.i2c_master_if._chan_yield.write.nstackwords
	.weak	_i.i2c_master_if._chan_yield.write.nstackwords
	.set	_i.i2c_master_if._chan_yield.write.maxcores,($D __interface_client_call_y.maxcores ? __interface_client_call_y.maxcores $: _i.i2c_master_if._client_call_y.max.maxcores) $M ($D __interface_wait_and_yield.maxcores ? __interface_wait_and_yield.maxcores $: _i.i2c_master_if._client_call_y.max.maxcores) $M 1
	.globl	_i.i2c_master_if._chan_yield.write.maxcores
	.weak	_i.i2c_master_if._chan_yield.write.maxcores
	.set	_i.i2c_master_if._chan_yield.write.maxtimers,($D __interface_client_call_y.maxtimers ? __interface_client_call_y.maxtimers $: _i.i2c_master_if._client_call_y.max.maxtimers) $M ($D __interface_wait_and_yield.maxtimers ? __interface_wait_and_yield.maxtimers $: _i.i2c_master_if._client_call_y.max.maxtimers) $M 0
	.globl	_i.i2c_master_if._chan_yield.write.maxtimers
	.weak	_i.i2c_master_if._chan_yield.write.maxtimers
	.set	_i.i2c_master_if._chan_yield.write.maxchanends,(1 + ($D __interface_client_call_y.maxchanends ? __interface_client_call_y.maxchanends $: _i.i2c_master_if._client_call_y.max.maxchanends)) $M (1 + ($D __interface_wait_and_yield.maxchanends ? __interface_wait_and_yield.maxchanends $: _i.i2c_master_if._client_call_y.max.maxchanends)) $M 1
	.globl	_i.i2c_master_if._chan_yield.write.maxchanends
	.weak	_i.i2c_master_if._chan_yield.write.maxchanends
.Ltmp200:
	.size	_i.i2c_master_if._chan_yield.write, .Ltmp200-_i.i2c_master_if._chan_yield.write
	.cfi_endproc

	.weak	_i.i2c_master_async_if._chan.shutdown
	.align	4
	.type	_i.i2c_master_async_if._chan.shutdown,@function
	.cc_top _i.i2c_master_async_if._chan.shutdown.function,_i.i2c_master_async_if._chan.shutdown
_i.i2c_master_async_if._chan.shutdown:  # @_i.i2c_master_async_if._chan.shutdown
	.cfi_startproc
	.issue_mode dual
# BB#0:                                 # %allocas
	{
		nop
		dualentsp 4
	}
.Ltmp201:
	.cfi_def_cfa_offset 16
.Ltmp202:
	.cfi_offset 15, 0
.Ltmp203:
	.cfi_offset 4, -8
	#DEBUG_VALUE: _i.i2c_master_async_if._chan.shutdown:dest <- R0
	{
		getr r4, 2
		stw r4, sp[2]
	}
	{
		setd res[r4], r0
		add r0, r4, 5
	}
	{
		out res[r4], r0
		nop
	}
	{
		outct res[r4], 2
		ldc r1, 0
	}
	{
		mov r0, r4
		nop
	}
	bl __interface_wait_and_yield
	{
		in r0, res[r4]
		nop
	}
	{
		chkct res[r4], 1
		nop
	}
	{
		freer res[r4]
		ldw r4, sp[2]
	}
	{
		nop
		retsp 4
	}
	# RETURN_REG_HOLDER
	.cc_bottom _i.i2c_master_async_if._chan.shutdown.function
	.set	_i.i2c_master_async_if._chan.shutdown.nstackwords,((_i.i2c_master_async_if._client_call_y.max.nstackwords $M ($D __interface_wait_and_yield.nstackwords ? __interface_wait_and_yield.nstackwords $: _i.i2c_master_async_if._client_call_y.max.nstackwords)) + 4)
	.globl	_i.i2c_master_async_if._chan.shutdown.nstackwords
	.weak	_i.i2c_master_async_if._chan.shutdown.nstackwords
	.set	_i.i2c_master_async_if._chan.shutdown.maxcores,($D __interface_wait_and_yield.maxcores ? __interface_wait_and_yield.maxcores $: _i.i2c_master_async_if._client_call_y.max.maxcores) $M 1
	.globl	_i.i2c_master_async_if._chan.shutdown.maxcores
	.weak	_i.i2c_master_async_if._chan.shutdown.maxcores
	.set	_i.i2c_master_async_if._chan.shutdown.maxtimers,($D __interface_wait_and_yield.maxtimers ? __interface_wait_and_yield.maxtimers $: _i.i2c_master_async_if._client_call_y.max.maxtimers) $M 0
	.globl	_i.i2c_master_async_if._chan.shutdown.maxtimers
	.weak	_i.i2c_master_async_if._chan.shutdown.maxtimers
	.set	_i.i2c_master_async_if._chan.shutdown.maxchanends,(1 + ($D __interface_wait_and_yield.maxchanends ? __interface_wait_and_yield.maxchanends $: _i.i2c_master_async_if._client_call_y.max.maxchanends)) $M 1
	.globl	_i.i2c_master_async_if._chan.shutdown.maxchanends
	.weak	_i.i2c_master_async_if._chan.shutdown.maxchanends
.Ltmp204:
	.size	_i.i2c_master_async_if._chan.shutdown, .Ltmp204-_i.i2c_master_async_if._chan.shutdown
	.cfi_endproc

	.weak	_i.i2c_master_async_if._chan.send_stop_bit
	.align	4
	.type	_i.i2c_master_async_if._chan.send_stop_bit,@function
	.cc_top _i.i2c_master_async_if._chan.send_stop_bit.function,_i.i2c_master_async_if._chan.send_stop_bit
_i.i2c_master_async_if._chan.send_stop_bit: # @_i.i2c_master_async_if._chan.send_stop_bit
	.cfi_startproc
	.issue_mode dual
# BB#0:                                 # %allocas
	{
		nop
		dualentsp 4
	}
.Ltmp205:
	.cfi_def_cfa_offset 16
.Ltmp206:
	.cfi_offset 15, 0
.Ltmp207:
	.cfi_offset 4, -8
	#DEBUG_VALUE: _i.i2c_master_async_if._chan.send_stop_bit:dest <- R0
	{
		getr r4, 2
		stw r4, sp[2]
	}
	{
		setd res[r4], r0
		add r0, r4, 4
	}
	{
		out res[r4], r0
		nop
	}
	{
		outct res[r4], 2
		ldc r1, 0
	}
	{
		mov r0, r4
		nop
	}
	bl __interface_wait_and_yield
	{
		in r0, res[r4]
		nop
	}
	{
		chkct res[r4], 1
		nop
	}
	{
		freer res[r4]
		ldw r4, sp[2]
	}
	{
		nop
		retsp 4
	}
	# RETURN_REG_HOLDER
	.cc_bottom _i.i2c_master_async_if._chan.send_stop_bit.function
	.set	_i.i2c_master_async_if._chan.send_stop_bit.nstackwords,((_i.i2c_master_async_if._client_call_y.max.nstackwords $M ($D __interface_wait_and_yield.nstackwords ? __interface_wait_and_yield.nstackwords $: _i.i2c_master_async_if._client_call_y.max.nstackwords)) + 4)
	.globl	_i.i2c_master_async_if._chan.send_stop_bit.nstackwords
	.weak	_i.i2c_master_async_if._chan.send_stop_bit.nstackwords
	.set	_i.i2c_master_async_if._chan.send_stop_bit.maxcores,($D __interface_wait_and_yield.maxcores ? __interface_wait_and_yield.maxcores $: _i.i2c_master_async_if._client_call_y.max.maxcores) $M 1
	.globl	_i.i2c_master_async_if._chan.send_stop_bit.maxcores
	.weak	_i.i2c_master_async_if._chan.send_stop_bit.maxcores
	.set	_i.i2c_master_async_if._chan.send_stop_bit.maxtimers,($D __interface_wait_and_yield.maxtimers ? __interface_wait_and_yield.maxtimers $: _i.i2c_master_async_if._client_call_y.max.maxtimers) $M 0
	.globl	_i.i2c_master_async_if._chan.send_stop_bit.maxtimers
	.weak	_i.i2c_master_async_if._chan.send_stop_bit.maxtimers
	.set	_i.i2c_master_async_if._chan.send_stop_bit.maxchanends,(1 + ($D __interface_wait_and_yield.maxchanends ? __interface_wait_and_yield.maxchanends $: _i.i2c_master_async_if._client_call_y.max.maxchanends)) $M 1
	.globl	_i.i2c_master_async_if._chan.send_stop_bit.maxchanends
	.weak	_i.i2c_master_async_if._chan.send_stop_bit.maxchanends
.Ltmp208:
	.size	_i.i2c_master_async_if._chan.send_stop_bit, .Ltmp208-_i.i2c_master_async_if._chan.send_stop_bit
	.cfi_endproc

	.weak	_i.i2c_master_async_if._chan.get_read_data
	.align	4
	.type	_i.i2c_master_async_if._chan.get_read_data,@function
	.cc_top _i.i2c_master_async_if._chan.get_read_data.function,_i.i2c_master_async_if._chan.get_read_data
_i.i2c_master_async_if._chan.get_read_data: # @_i.i2c_master_async_if._chan.get_read_data
	.cfi_startproc
	.issue_mode dual
# BB#0:                                 # %allocas
	{
		nop
		dualentsp 6
	}
.Ltmp209:
	.cfi_def_cfa_offset 24
.Ltmp210:
	.cfi_offset 15, 0
	std r5, r4, sp[1]               # 4-byte Folded Spill
.Ltmp211:
	.cfi_offset 4, -16
.Ltmp212:
	.cfi_offset 5, -12
	std r7, r6, sp[2]               # 4-byte Folded Spill
.Ltmp213:
	.cfi_offset 6, -8
.Ltmp214:
	.cfi_offset 7, -4
	#DEBUG_VALUE: _i.i2c_master_async_if._chan.get_read_data:dest <- R0
	#DEBUG_VALUE: _i.i2c_master_async_if._chan.get_read_data:clientNotifyFlag <- R1
	#DEBUG_VALUE: _i.i2c_master_async_if._chan.get_read_data:param2 <- R2
	#DEBUG_VALUE: _i.i2c_master_async_if._chan.get_read_data:param3 <- R3
	#DEBUG_VALUE: _i.i2c_master_async_if._chan.get_read_data:param3 <- R4
	#DEBUG_VALUE: _i.i2c_master_async_if._chan.get_read_data:param2 <- R5
	{
		mov r4, r3
		mov r5, r2
	}
	#DEBUG_VALUE: _i.i2c_master_async_if._chan.get_read_data:clientNotifyFlag <- R6
	{
		getr r7, 2
		mov r6, r1
	}
	{
		setd res[r7], r0
		add r0, r7, 3
	}
	{
		out res[r7], r0
		nop
	}
	{
		outct res[r7], 2
		ldc r1, 0
	}
	{
		mov r0, r7
		nop
	}
	bl __interface_wait_and_yield
	{
		chkct res[r7], 1
		nop
	}
	{
		out res[r7], r6
		stw r5, sp[1]
	}
	{
		out res[r7], r4
		nop
	}
	{
		outct res[r7], 2
		ldaw r1, sp[1]
	}
	{
		mov r0, r7
		nop
	}
	bl __interface_client_call
	{
		in r0, res[r7]
		nop
	}
	{
		chkct res[r7], 1
		nop
	}
	{
		freer res[r7]
		nop
	}
	ldd r7, r6, sp[2]               # 4-byte Folded Reload
	ldd r5, r4, sp[1]               # 4-byte Folded Reload
	{
		nop
		retsp 6
	}
	# RETURN_REG_HOLDER
	.cc_bottom _i.i2c_master_async_if._chan.get_read_data.function
	.set	_i.i2c_master_async_if._chan.get_read_data.nstackwords,((_i.i2c_master_async_if._client_call_y.max.nstackwords $M ($D __interface_wait_and_yield.nstackwords ? __interface_wait_and_yield.nstackwords $: _i.i2c_master_async_if._client_call_y.max.nstackwords) $M __interface_client_call.nstackwords) + 6)
	.globl	_i.i2c_master_async_if._chan.get_read_data.nstackwords
	.weak	_i.i2c_master_async_if._chan.get_read_data.nstackwords
	.set	_i.i2c_master_async_if._chan.get_read_data.maxcores,__interface_client_call.maxcores $M ($D __interface_wait_and_yield.maxcores ? __interface_wait_and_yield.maxcores $: _i.i2c_master_async_if._client_call_y.max.maxcores) $M 1
	.globl	_i.i2c_master_async_if._chan.get_read_data.maxcores
	.weak	_i.i2c_master_async_if._chan.get_read_data.maxcores
	.set	_i.i2c_master_async_if._chan.get_read_data.maxtimers,__interface_client_call.maxtimers $M ($D __interface_wait_and_yield.maxtimers ? __interface_wait_and_yield.maxtimers $: _i.i2c_master_async_if._client_call_y.max.maxtimers) $M 0
	.globl	_i.i2c_master_async_if._chan.get_read_data.maxtimers
	.weak	_i.i2c_master_async_if._chan.get_read_data.maxtimers
	.set	_i.i2c_master_async_if._chan.get_read_data.maxchanends,(1 + __interface_client_call.maxchanends) $M (1 + ($D __interface_wait_and_yield.maxchanends ? __interface_wait_and_yield.maxchanends $: _i.i2c_master_async_if._client_call_y.max.maxchanends)) $M 1
	.globl	_i.i2c_master_async_if._chan.get_read_data.maxchanends
	.weak	_i.i2c_master_async_if._chan.get_read_data.maxchanends
.Ltmp215:
	.size	_i.i2c_master_async_if._chan.get_read_data, .Ltmp215-_i.i2c_master_async_if._chan.get_read_data
	.cfi_endproc

	.weak	_i.i2c_master_async_if._chan.get_write_result
	.align	4
	.type	_i.i2c_master_async_if._chan.get_write_result,@function
	.cc_top _i.i2c_master_async_if._chan.get_write_result.function,_i.i2c_master_async_if._chan.get_write_result
_i.i2c_master_async_if._chan.get_write_result: # @_i.i2c_master_async_if._chan.get_write_result
	.cfi_startproc
	.issue_mode dual
# BB#0:                                 # %allocas
	{
		nop
		dualentsp 6
	}
.Ltmp216:
	.cfi_def_cfa_offset 24
.Ltmp217:
	.cfi_offset 15, 0
	std r5, r4, sp[1]               # 4-byte Folded Spill
.Ltmp218:
	.cfi_offset 4, -16
.Ltmp219:
	.cfi_offset 5, -12
.Ltmp220:
	.cfi_offset 6, -8
	#DEBUG_VALUE: _i.i2c_master_async_if._chan.get_write_result:dest <- R0
	#DEBUG_VALUE: _i.i2c_master_async_if._chan.get_write_result:clientNotifyFlag <- R1
	#DEBUG_VALUE: _i.i2c_master_async_if._chan.get_write_result:param2 <- R2
	#DEBUG_VALUE: _i.i2c_master_async_if._chan.get_write_result:param2 <- R4
	{
		mov r4, r2
		stw r6, sp[4]
	}
	#DEBUG_VALUE: _i.i2c_master_async_if._chan.get_write_result:clientNotifyFlag <- R5
	{
		getr r6, 2
		mov r5, r1
	}
	{
		setd res[r6], r0
		add r0, r6, 2
	}
	{
		out res[r6], r0
		nop
	}
	{
		outct res[r6], 2
		ldc r1, 0
	}
	{
		mov r0, r6
		nop
	}
	bl __interface_wait_and_yield
	{
		chkct res[r6], 1
		nop
	}
	{
		out res[r6], r5
		ldw r0, r4[0]
	}
	{
		out res[r6], r0
		nop
	}
	{
		outct res[r6], 2
		nop
	}
	{
		in r0, res[r6]
		nop
	}
	{
		in r0, res[r6]
		nop
	}
	{
		in r0, res[r6]
		stw r0, r4[0]
	}
	{
		chkct res[r6], 1
		nop
	}
	{
		freer res[r6]
		ldw r6, sp[4]
	}
	ldd r5, r4, sp[1]               # 4-byte Folded Reload
	{
		nop
		retsp 6
	}
	# RETURN_REG_HOLDER
	.cc_bottom _i.i2c_master_async_if._chan.get_write_result.function
	.set	_i.i2c_master_async_if._chan.get_write_result.nstackwords,((_i.i2c_master_async_if._client_call_y.max.nstackwords $M ($D __interface_wait_and_yield.nstackwords ? __interface_wait_and_yield.nstackwords $: _i.i2c_master_async_if._client_call_y.max.nstackwords)) + 6)
	.globl	_i.i2c_master_async_if._chan.get_write_result.nstackwords
	.weak	_i.i2c_master_async_if._chan.get_write_result.nstackwords
	.set	_i.i2c_master_async_if._chan.get_write_result.maxcores,($D __interface_wait_and_yield.maxcores ? __interface_wait_and_yield.maxcores $: _i.i2c_master_async_if._client_call_y.max.maxcores) $M 1
	.globl	_i.i2c_master_async_if._chan.get_write_result.maxcores
	.weak	_i.i2c_master_async_if._chan.get_write_result.maxcores
	.set	_i.i2c_master_async_if._chan.get_write_result.maxtimers,($D __interface_wait_and_yield.maxtimers ? __interface_wait_and_yield.maxtimers $: _i.i2c_master_async_if._client_call_y.max.maxtimers) $M 0
	.globl	_i.i2c_master_async_if._chan.get_write_result.maxtimers
	.weak	_i.i2c_master_async_if._chan.get_write_result.maxtimers
	.set	_i.i2c_master_async_if._chan.get_write_result.maxchanends,(1 + ($D __interface_wait_and_yield.maxchanends ? __interface_wait_and_yield.maxchanends $: _i.i2c_master_async_if._client_call_y.max.maxchanends)) $M 1
	.globl	_i.i2c_master_async_if._chan.get_write_result.maxchanends
	.weak	_i.i2c_master_async_if._chan.get_write_result.maxchanends
.Ltmp221:
	.size	_i.i2c_master_async_if._chan.get_write_result, .Ltmp221-_i.i2c_master_async_if._chan.get_write_result
	.cfi_endproc

	.weak	_i.i2c_master_async_if._chan.read
	.align	4
	.type	_i.i2c_master_async_if._chan.read,@function
	.cc_top _i.i2c_master_async_if._chan.read.function,_i.i2c_master_async_if._chan.read
_i.i2c_master_async_if._chan.read:      # @_i.i2c_master_async_if._chan.read
	.cfi_startproc
	.issue_mode dual
# BB#0:                                 # %allocas
	{
		nop
		dualentsp 6
	}
.Ltmp222:
	.cfi_def_cfa_offset 24
.Ltmp223:
	.cfi_offset 15, 0
	std r5, r4, sp[1]               # 4-byte Folded Spill
.Ltmp224:
	.cfi_offset 4, -16
.Ltmp225:
	.cfi_offset 5, -12
	std r7, r6, sp[2]               # 4-byte Folded Spill
.Ltmp226:
	.cfi_offset 6, -8
.Ltmp227:
	.cfi_offset 7, -4
	#DEBUG_VALUE: _i.i2c_master_async_if._chan.read:dest <- R0
	#DEBUG_VALUE: _i.i2c_master_async_if._chan.read:param1 <- R1
	#DEBUG_VALUE: _i.i2c_master_async_if._chan.read:param2 <- R2
	#DEBUG_VALUE: _i.i2c_master_async_if._chan.read:param3 <- R3
	#DEBUG_VALUE: _i.i2c_master_async_if._chan.read:param3 <- R4
	#DEBUG_VALUE: _i.i2c_master_async_if._chan.read:param2 <- R5
	{
		mov r4, r3
		mov r5, r2
	}
	#DEBUG_VALUE: _i.i2c_master_async_if._chan.read:param1 <- R6
	{
		getr r7, 2
		mov r6, r1
	}
	{
		setd res[r7], r0
		add r0, r7, 1
	}
	{
		out res[r7], r0
		nop
	}
	{
		outct res[r7], 2
		ldc r1, 0
	}
	{
		mov r0, r7
		nop
	}
	bl __interface_wait_and_yield
	{
		chkct res[r7], 1
		nop
	}
	{
		outt res[r7], r6
		nop
	}
	{
		out res[r7], r5
		nop
	}
	{
		out res[r7], r4
		nop
	}
	{
		outct res[r7], 2
		nop
	}
	{
		in r0, res[r7]
		nop
	}
	{
		chkct res[r7], 1
		nop
	}
	{
		freer res[r7]
		nop
	}
	ldd r7, r6, sp[2]               # 4-byte Folded Reload
	ldd r5, r4, sp[1]               # 4-byte Folded Reload
	{
		nop
		retsp 6
	}
	# RETURN_REG_HOLDER
	.cc_bottom _i.i2c_master_async_if._chan.read.function
	.set	_i.i2c_master_async_if._chan.read.nstackwords,((_i.i2c_master_async_if._client_call_y.max.nstackwords $M ($D __interface_wait_and_yield.nstackwords ? __interface_wait_and_yield.nstackwords $: _i.i2c_master_async_if._client_call_y.max.nstackwords)) + 6)
	.globl	_i.i2c_master_async_if._chan.read.nstackwords
	.weak	_i.i2c_master_async_if._chan.read.nstackwords
	.set	_i.i2c_master_async_if._chan.read.maxcores,($D __interface_wait_and_yield.maxcores ? __interface_wait_and_yield.maxcores $: _i.i2c_master_async_if._client_call_y.max.maxcores) $M 1
	.globl	_i.i2c_master_async_if._chan.read.maxcores
	.weak	_i.i2c_master_async_if._chan.read.maxcores
	.set	_i.i2c_master_async_if._chan.read.maxtimers,($D __interface_wait_and_yield.maxtimers ? __interface_wait_and_yield.maxtimers $: _i.i2c_master_async_if._client_call_y.max.maxtimers) $M 0
	.globl	_i.i2c_master_async_if._chan.read.maxtimers
	.weak	_i.i2c_master_async_if._chan.read.maxtimers
	.set	_i.i2c_master_async_if._chan.read.maxchanends,(1 + ($D __interface_wait_and_yield.maxchanends ? __interface_wait_and_yield.maxchanends $: _i.i2c_master_async_if._client_call_y.max.maxchanends)) $M 1
	.globl	_i.i2c_master_async_if._chan.read.maxchanends
	.weak	_i.i2c_master_async_if._chan.read.maxchanends
.Ltmp228:
	.size	_i.i2c_master_async_if._chan.read, .Ltmp228-_i.i2c_master_async_if._chan.read
	.cfi_endproc

	.weak	_i.i2c_master_async_if._chan.write
	.align	4
	.type	_i.i2c_master_async_if._chan.write,@function
	.cc_top _i.i2c_master_async_if._chan.write.function,_i.i2c_master_async_if._chan.write
_i.i2c_master_async_if._chan.write:     # @_i.i2c_master_async_if._chan.write
	.cfi_startproc
	.issue_mode dual
# BB#0:                                 # %allocas
	{
		nop
		dualentsp 8
	}
.Ltmp229:
	.cfi_def_cfa_offset 32
.Ltmp230:
	.cfi_offset 15, 0
	std r5, r4, sp[1]               # 4-byte Folded Spill
.Ltmp231:
	.cfi_offset 4, -24
.Ltmp232:
	.cfi_offset 5, -20
	std r7, r6, sp[2]               # 4-byte Folded Spill
.Ltmp233:
	.cfi_offset 6, -16
.Ltmp234:
	.cfi_offset 7, -12
.Ltmp235:
	.cfi_offset 8, -8
	#DEBUG_VALUE: _i.i2c_master_async_if._chan.write:dest <- R0
	#DEBUG_VALUE: _i.i2c_master_async_if._chan.write:param1 <- R1
	#DEBUG_VALUE: _i.i2c_master_async_if._chan.write:param2 <- R2
	#DEBUG_VALUE: _i.i2c_master_async_if._chan.write:param3 <- R3
	#DEBUG_VALUE: _i.i2c_master_async_if._chan.write:param4 <- [SP+36]
	#DEBUG_VALUE: _i.i2c_master_async_if._chan.write:param3 <- R4
	{
		mov r4, r3
		stw r8, sp[6]
	}
	#DEBUG_VALUE: _i.i2c_master_async_if._chan.write:param2 <- R5
	#DEBUG_VALUE: _i.i2c_master_async_if._chan.write:param1 <- R6
	{
		mov r5, r2
		mov r6, r1
	}
	{
		getr r7, 2
		ldw r8, sp[9]
	}
	{
		setd res[r7], r0
		nop
	}
	{
		out res[r7], r7
		nop
	}
	{
		outct res[r7], 2
		ldc r1, 0
	}
	{
		mov r0, r7
		nop
	}
	bl __interface_wait_and_yield
	{
		chkct res[r7], 1
		nop
	}
	{
		outt res[r7], r6
		stw r5, sp[1]
	}
	{
		out res[r7], r4
		nop
	}
	{
		out res[r7], r8
		nop
	}
	{
		outct res[r7], 2
		ldaw r1, sp[1]
	}
	{
		mov r0, r7
		nop
	}
	bl __interface_client_call
	{
		chkct res[r7], 1
		nop
	}
	{
		freer res[r7]
		ldw r8, sp[6]
	}
	ldd r7, r6, sp[2]               # 4-byte Folded Reload
	ldd r5, r4, sp[1]               # 4-byte Folded Reload
	{
		nop
		retsp 8
	}
	# RETURN_REG_HOLDER
	.cc_bottom _i.i2c_master_async_if._chan.write.function
	.set	_i.i2c_master_async_if._chan.write.nstackwords,((_i.i2c_master_async_if._client_call_y.max.nstackwords $M ($D __interface_wait_and_yield.nstackwords ? __interface_wait_and_yield.nstackwords $: _i.i2c_master_async_if._client_call_y.max.nstackwords) $M __interface_client_call.nstackwords) + 8)
	.globl	_i.i2c_master_async_if._chan.write.nstackwords
	.weak	_i.i2c_master_async_if._chan.write.nstackwords
	.set	_i.i2c_master_async_if._chan.write.maxcores,__interface_client_call.maxcores $M ($D __interface_wait_and_yield.maxcores ? __interface_wait_and_yield.maxcores $: _i.i2c_master_async_if._client_call_y.max.maxcores) $M 1
	.globl	_i.i2c_master_async_if._chan.write.maxcores
	.weak	_i.i2c_master_async_if._chan.write.maxcores
	.set	_i.i2c_master_async_if._chan.write.maxtimers,__interface_client_call.maxtimers $M ($D __interface_wait_and_yield.maxtimers ? __interface_wait_and_yield.maxtimers $: _i.i2c_master_async_if._client_call_y.max.maxtimers) $M 0
	.globl	_i.i2c_master_async_if._chan.write.maxtimers
	.weak	_i.i2c_master_async_if._chan.write.maxtimers
	.set	_i.i2c_master_async_if._chan.write.maxchanends,(1 + __interface_client_call.maxchanends) $M (1 + ($D __interface_wait_and_yield.maxchanends ? __interface_wait_and_yield.maxchanends $: _i.i2c_master_async_if._client_call_y.max.maxchanends)) $M 1
	.globl	_i.i2c_master_async_if._chan.write.maxchanends
	.weak	_i.i2c_master_async_if._chan.write.maxchanends
.Ltmp236:
	.size	_i.i2c_master_async_if._chan.write, .Ltmp236-_i.i2c_master_async_if._chan.write
	.cfi_endproc

	.weak	_i.i2c_master_async_if._chan_yield.shutdown
	.align	4
	.type	_i.i2c_master_async_if._chan_yield.shutdown,@function
	.cc_top _i.i2c_master_async_if._chan_yield.shutdown.function,_i.i2c_master_async_if._chan_yield.shutdown
_i.i2c_master_async_if._chan_yield.shutdown: # @_i.i2c_master_async_if._chan_yield.shutdown
	.cfi_startproc
	.issue_mode dual
# BB#0:                                 # %allocas
	{
		nop
		dualentsp 4
	}
.Ltmp237:
	.cfi_def_cfa_offset 16
.Ltmp238:
	.cfi_offset 15, 0
	std r5, r4, sp[1]               # 4-byte Folded Spill
.Ltmp239:
	.cfi_offset 4, -8
.Ltmp240:
	.cfi_offset 5, -4
	#DEBUG_VALUE: _i.i2c_master_async_if._chan_yield.shutdown:s <- R0
	{
		getr r4, 2
		ldw r1, r0[0]
	}
	{
		setd res[r4], r1
		add r1, r4, 5
	}
	{
		out res[r4], r1
		nop
	}
	{
		outct res[r4], 2
		ldw r5, r0[1]
	}
	{
		mov r0, r4
		mov r1, r5
	}
	bl __interface_wait_and_yield
	{
		ldc r1, 0
		mov r0, r4
	}
	{
		mov r2, r5
		nop
	}
	bl __interface_client_call_y
	{
		chkct res[r4], 1
		nop
	}
	{
		freer res[r4]
		nop
	}
	ldd r5, r4, sp[1]               # 4-byte Folded Reload
	{
		nop
		retsp 4
	}
	# RETURN_REG_HOLDER
	.cc_bottom _i.i2c_master_async_if._chan_yield.shutdown.function
	.set	_i.i2c_master_async_if._chan_yield.shutdown.nstackwords,((($D __interface_wait_and_yield.nstackwords ? __interface_wait_and_yield.nstackwords $: _i.i2c_master_async_if._client_call_y.max.nstackwords) $M _i.i2c_master_async_if._client_call_y.max.nstackwords $M ($D __interface_client_call_y.nstackwords ? __interface_client_call_y.nstackwords $: _i.i2c_master_async_if._client_call_y.max.nstackwords)) + 4)
	.globl	_i.i2c_master_async_if._chan_yield.shutdown.nstackwords
	.weak	_i.i2c_master_async_if._chan_yield.shutdown.nstackwords
	.set	_i.i2c_master_async_if._chan_yield.shutdown.maxcores,($D __interface_client_call_y.maxcores ? __interface_client_call_y.maxcores $: _i.i2c_master_async_if._client_call_y.max.maxcores) $M ($D __interface_wait_and_yield.maxcores ? __interface_wait_and_yield.maxcores $: _i.i2c_master_async_if._client_call_y.max.maxcores) $M 1
	.globl	_i.i2c_master_async_if._chan_yield.shutdown.maxcores
	.weak	_i.i2c_master_async_if._chan_yield.shutdown.maxcores
	.set	_i.i2c_master_async_if._chan_yield.shutdown.maxtimers,($D __interface_client_call_y.maxtimers ? __interface_client_call_y.maxtimers $: _i.i2c_master_async_if._client_call_y.max.maxtimers) $M ($D __interface_wait_and_yield.maxtimers ? __interface_wait_and_yield.maxtimers $: _i.i2c_master_async_if._client_call_y.max.maxtimers) $M 0
	.globl	_i.i2c_master_async_if._chan_yield.shutdown.maxtimers
	.weak	_i.i2c_master_async_if._chan_yield.shutdown.maxtimers
	.set	_i.i2c_master_async_if._chan_yield.shutdown.maxchanends,(1 + ($D __interface_client_call_y.maxchanends ? __interface_client_call_y.maxchanends $: _i.i2c_master_async_if._client_call_y.max.maxchanends)) $M (1 + ($D __interface_wait_and_yield.maxchanends ? __interface_wait_and_yield.maxchanends $: _i.i2c_master_async_if._client_call_y.max.maxchanends)) $M 1
	.globl	_i.i2c_master_async_if._chan_yield.shutdown.maxchanends
	.weak	_i.i2c_master_async_if._chan_yield.shutdown.maxchanends
.Ltmp241:
	.size	_i.i2c_master_async_if._chan_yield.shutdown, .Ltmp241-_i.i2c_master_async_if._chan_yield.shutdown
	.cfi_endproc

	.weak	_i.i2c_master_async_if._chan_yield.send_stop_bit
	.align	4
	.type	_i.i2c_master_async_if._chan_yield.send_stop_bit,@function
	.cc_top _i.i2c_master_async_if._chan_yield.send_stop_bit.function,_i.i2c_master_async_if._chan_yield.send_stop_bit
_i.i2c_master_async_if._chan_yield.send_stop_bit: # @_i.i2c_master_async_if._chan_yield.send_stop_bit
	.cfi_startproc
	.issue_mode dual
# BB#0:                                 # %allocas
	{
		nop
		dualentsp 4
	}
.Ltmp242:
	.cfi_def_cfa_offset 16
.Ltmp243:
	.cfi_offset 15, 0
	std r5, r4, sp[1]               # 4-byte Folded Spill
.Ltmp244:
	.cfi_offset 4, -8
.Ltmp245:
	.cfi_offset 5, -4
	#DEBUG_VALUE: _i.i2c_master_async_if._chan_yield.send_stop_bit:s <- R0
	{
		getr r4, 2
		ldw r1, r0[0]
	}
	{
		setd res[r4], r1
		add r1, r4, 4
	}
	{
		out res[r4], r1
		nop
	}
	{
		outct res[r4], 2
		ldw r5, r0[1]
	}
	{
		mov r0, r4
		mov r1, r5
	}
	bl __interface_wait_and_yield
	{
		ldc r1, 0
		mov r0, r4
	}
	{
		mov r2, r5
		nop
	}
	bl __interface_client_call_y
	{
		chkct res[r4], 1
		nop
	}
	{
		freer res[r4]
		nop
	}
	ldd r5, r4, sp[1]               # 4-byte Folded Reload
	{
		nop
		retsp 4
	}
	# RETURN_REG_HOLDER
	.cc_bottom _i.i2c_master_async_if._chan_yield.send_stop_bit.function
	.set	_i.i2c_master_async_if._chan_yield.send_stop_bit.nstackwords,((($D __interface_wait_and_yield.nstackwords ? __interface_wait_and_yield.nstackwords $: _i.i2c_master_async_if._client_call_y.max.nstackwords) $M _i.i2c_master_async_if._client_call_y.max.nstackwords $M ($D __interface_client_call_y.nstackwords ? __interface_client_call_y.nstackwords $: _i.i2c_master_async_if._client_call_y.max.nstackwords)) + 4)
	.globl	_i.i2c_master_async_if._chan_yield.send_stop_bit.nstackwords
	.weak	_i.i2c_master_async_if._chan_yield.send_stop_bit.nstackwords
	.set	_i.i2c_master_async_if._chan_yield.send_stop_bit.maxcores,($D __interface_client_call_y.maxcores ? __interface_client_call_y.maxcores $: _i.i2c_master_async_if._client_call_y.max.maxcores) $M ($D __interface_wait_and_yield.maxcores ? __interface_wait_and_yield.maxcores $: _i.i2c_master_async_if._client_call_y.max.maxcores) $M 1
	.globl	_i.i2c_master_async_if._chan_yield.send_stop_bit.maxcores
	.weak	_i.i2c_master_async_if._chan_yield.send_stop_bit.maxcores
	.set	_i.i2c_master_async_if._chan_yield.send_stop_bit.maxtimers,($D __interface_client_call_y.maxtimers ? __interface_client_call_y.maxtimers $: _i.i2c_master_async_if._client_call_y.max.maxtimers) $M ($D __interface_wait_and_yield.maxtimers ? __interface_wait_and_yield.maxtimers $: _i.i2c_master_async_if._client_call_y.max.maxtimers) $M 0
	.globl	_i.i2c_master_async_if._chan_yield.send_stop_bit.maxtimers
	.weak	_i.i2c_master_async_if._chan_yield.send_stop_bit.maxtimers
	.set	_i.i2c_master_async_if._chan_yield.send_stop_bit.maxchanends,(1 + ($D __interface_client_call_y.maxchanends ? __interface_client_call_y.maxchanends $: _i.i2c_master_async_if._client_call_y.max.maxchanends)) $M (1 + ($D __interface_wait_and_yield.maxchanends ? __interface_wait_and_yield.maxchanends $: _i.i2c_master_async_if._client_call_y.max.maxchanends)) $M 1
	.globl	_i.i2c_master_async_if._chan_yield.send_stop_bit.maxchanends
	.weak	_i.i2c_master_async_if._chan_yield.send_stop_bit.maxchanends
.Ltmp246:
	.size	_i.i2c_master_async_if._chan_yield.send_stop_bit, .Ltmp246-_i.i2c_master_async_if._chan_yield.send_stop_bit
	.cfi_endproc

	.weak	_i.i2c_master_async_if._chan_yield.get_read_data
	.align	4
	.type	_i.i2c_master_async_if._chan_yield.get_read_data,@function
	.cc_top _i.i2c_master_async_if._chan_yield.get_read_data.function,_i.i2c_master_async_if._chan_yield.get_read_data
_i.i2c_master_async_if._chan_yield.get_read_data: # @_i.i2c_master_async_if._chan_yield.get_read_data
	.cfi_startproc
	.issue_mode dual
# BB#0:                                 # %allocas
	{
		nop
		dualentsp 8
	}
.Ltmp247:
	.cfi_def_cfa_offset 32
.Ltmp248:
	.cfi_offset 15, 0
	std r5, r4, sp[1]               # 4-byte Folded Spill
.Ltmp249:
	.cfi_offset 4, -24
.Ltmp250:
	.cfi_offset 5, -20
	std r7, r6, sp[2]               # 4-byte Folded Spill
.Ltmp251:
	.cfi_offset 6, -16
.Ltmp252:
	.cfi_offset 7, -12
.Ltmp253:
	.cfi_offset 8, -8
	#DEBUG_VALUE: _i.i2c_master_async_if._chan_yield.get_read_data:s <- R0
	#DEBUG_VALUE: _i.i2c_master_async_if._chan_yield.get_read_data:clientNotifyFlag <- R1
	#DEBUG_VALUE: _i.i2c_master_async_if._chan_yield.get_read_data:param2 <- R2
	#DEBUG_VALUE: _i.i2c_master_async_if._chan_yield.get_read_data:param3 <- R3
	#DEBUG_VALUE: _i.i2c_master_async_if._chan_yield.get_read_data:param3 <- R5
	{
		mov r5, r3
		stw r8, sp[6]
	}
	#DEBUG_VALUE: _i.i2c_master_async_if._chan_yield.get_read_data:param2 <- R6
	#DEBUG_VALUE: _i.i2c_master_async_if._chan_yield.get_read_data:clientNotifyFlag <- R7
	{
		mov r6, r2
		mov r7, r1
	}
	{
		getr r4, 2
		ldw r1, r0[0]
	}
	{
		setd res[r4], r1
		add r1, r4, 3
	}
	{
		out res[r4], r1
		nop
	}
	{
		outct res[r4], 2
		ldw r8, r0[1]
	}
	{
		mov r0, r4
		mov r1, r8
	}
	bl __interface_wait_and_yield
	{
		chkct res[r4], 1
		nop
	}
	{
		out res[r4], r7
		stw r6, sp[1]
	}
	{
		out res[r4], r5
		nop
	}
	{
		outct res[r4], 2
		ldaw r1, sp[1]
	}
	{
		mov r0, r4
		mov r2, r8
	}
	bl __interface_client_call_y
	{
		in r0, res[r4]
		nop
	}
	{
		chkct res[r4], 1
		nop
	}
	{
		freer res[r4]
		ldw r8, sp[6]
	}
	ldd r7, r6, sp[2]               # 4-byte Folded Reload
	ldd r5, r4, sp[1]               # 4-byte Folded Reload
	{
		nop
		retsp 8
	}
	# RETURN_REG_HOLDER
	.cc_bottom _i.i2c_master_async_if._chan_yield.get_read_data.function
	.set	_i.i2c_master_async_if._chan_yield.get_read_data.nstackwords,((($D __interface_wait_and_yield.nstackwords ? __interface_wait_and_yield.nstackwords $: _i.i2c_master_async_if._client_call_y.max.nstackwords) $M _i.i2c_master_async_if._client_call_y.max.nstackwords $M ($D __interface_client_call_y.nstackwords ? __interface_client_call_y.nstackwords $: _i.i2c_master_async_if._client_call_y.max.nstackwords)) + 8)
	.globl	_i.i2c_master_async_if._chan_yield.get_read_data.nstackwords
	.weak	_i.i2c_master_async_if._chan_yield.get_read_data.nstackwords
	.set	_i.i2c_master_async_if._chan_yield.get_read_data.maxcores,($D __interface_client_call_y.maxcores ? __interface_client_call_y.maxcores $: _i.i2c_master_async_if._client_call_y.max.maxcores) $M ($D __interface_wait_and_yield.maxcores ? __interface_wait_and_yield.maxcores $: _i.i2c_master_async_if._client_call_y.max.maxcores) $M 1
	.globl	_i.i2c_master_async_if._chan_yield.get_read_data.maxcores
	.weak	_i.i2c_master_async_if._chan_yield.get_read_data.maxcores
	.set	_i.i2c_master_async_if._chan_yield.get_read_data.maxtimers,($D __interface_client_call_y.maxtimers ? __interface_client_call_y.maxtimers $: _i.i2c_master_async_if._client_call_y.max.maxtimers) $M ($D __interface_wait_and_yield.maxtimers ? __interface_wait_and_yield.maxtimers $: _i.i2c_master_async_if._client_call_y.max.maxtimers) $M 0
	.globl	_i.i2c_master_async_if._chan_yield.get_read_data.maxtimers
	.weak	_i.i2c_master_async_if._chan_yield.get_read_data.maxtimers
	.set	_i.i2c_master_async_if._chan_yield.get_read_data.maxchanends,(1 + ($D __interface_client_call_y.maxchanends ? __interface_client_call_y.maxchanends $: _i.i2c_master_async_if._client_call_y.max.maxchanends)) $M (1 + ($D __interface_wait_and_yield.maxchanends ? __interface_wait_and_yield.maxchanends $: _i.i2c_master_async_if._client_call_y.max.maxchanends)) $M 1
	.globl	_i.i2c_master_async_if._chan_yield.get_read_data.maxchanends
	.weak	_i.i2c_master_async_if._chan_yield.get_read_data.maxchanends
.Ltmp254:
	.size	_i.i2c_master_async_if._chan_yield.get_read_data, .Ltmp254-_i.i2c_master_async_if._chan_yield.get_read_data
	.cfi_endproc

	.weak	_i.i2c_master_async_if._chan_yield.get_write_result
	.align	4
	.type	_i.i2c_master_async_if._chan_yield.get_write_result,@function
	.cc_top _i.i2c_master_async_if._chan_yield.get_write_result.function,_i.i2c_master_async_if._chan_yield.get_write_result
_i.i2c_master_async_if._chan_yield.get_write_result: # @_i.i2c_master_async_if._chan_yield.get_write_result
	.cfi_startproc
	.issue_mode dual
# BB#0:                                 # %allocas
	{
		nop
		dualentsp 6
	}
.Ltmp255:
	.cfi_def_cfa_offset 24
.Ltmp256:
	.cfi_offset 15, 0
	std r5, r4, sp[1]               # 4-byte Folded Spill
.Ltmp257:
	.cfi_offset 4, -16
.Ltmp258:
	.cfi_offset 5, -12
	std r7, r6, sp[2]               # 4-byte Folded Spill
.Ltmp259:
	.cfi_offset 6, -8
.Ltmp260:
	.cfi_offset 7, -4
	#DEBUG_VALUE: _i.i2c_master_async_if._chan_yield.get_write_result:s <- R0
	#DEBUG_VALUE: _i.i2c_master_async_if._chan_yield.get_write_result:clientNotifyFlag <- R1
	#DEBUG_VALUE: _i.i2c_master_async_if._chan_yield.get_write_result:param2 <- R2
	#DEBUG_VALUE: _i.i2c_master_async_if._chan_yield.get_write_result:param2 <- R4
	#DEBUG_VALUE: _i.i2c_master_async_if._chan_yield.get_write_result:clientNotifyFlag <- R6
	{
		mov r4, r2
		mov r6, r1
	}
	{
		getr r5, 2
		ldw r1, r0[0]
	}
	{
		setd res[r5], r1
		add r1, r5, 2
	}
	{
		out res[r5], r1
		nop
	}
	{
		outct res[r5], 2
		ldw r7, r0[1]
	}
	{
		mov r0, r5
		mov r1, r7
	}
	bl __interface_wait_and_yield
	{
		chkct res[r5], 1
		nop
	}
	{
		out res[r5], r6
		ldw r0, r4[0]
	}
	{
		out res[r5], r0
		nop
	}
	{
		outct res[r5], 2
		ldc r1, 0
	}
	{
		mov r0, r5
		mov r2, r7
	}
	bl __interface_client_call_y
	{
		in r0, res[r5]
		nop
	}
	{
		in r0, res[r5]
		stw r0, r4[0]
	}
	{
		chkct res[r5], 1
		nop
	}
	{
		freer res[r5]
		nop
	}
	ldd r7, r6, sp[2]               # 4-byte Folded Reload
	ldd r5, r4, sp[1]               # 4-byte Folded Reload
	{
		nop
		retsp 6
	}
	# RETURN_REG_HOLDER
	.cc_bottom _i.i2c_master_async_if._chan_yield.get_write_result.function
	.set	_i.i2c_master_async_if._chan_yield.get_write_result.nstackwords,((($D __interface_wait_and_yield.nstackwords ? __interface_wait_and_yield.nstackwords $: _i.i2c_master_async_if._client_call_y.max.nstackwords) $M _i.i2c_master_async_if._client_call_y.max.nstackwords $M ($D __interface_client_call_y.nstackwords ? __interface_client_call_y.nstackwords $: _i.i2c_master_async_if._client_call_y.max.nstackwords)) + 6)
	.globl	_i.i2c_master_async_if._chan_yield.get_write_result.nstackwords
	.weak	_i.i2c_master_async_if._chan_yield.get_write_result.nstackwords
	.set	_i.i2c_master_async_if._chan_yield.get_write_result.maxcores,($D __interface_client_call_y.maxcores ? __interface_client_call_y.maxcores $: _i.i2c_master_async_if._client_call_y.max.maxcores) $M ($D __interface_wait_and_yield.maxcores ? __interface_wait_and_yield.maxcores $: _i.i2c_master_async_if._client_call_y.max.maxcores) $M 1
	.globl	_i.i2c_master_async_if._chan_yield.get_write_result.maxcores
	.weak	_i.i2c_master_async_if._chan_yield.get_write_result.maxcores
	.set	_i.i2c_master_async_if._chan_yield.get_write_result.maxtimers,($D __interface_client_call_y.maxtimers ? __interface_client_call_y.maxtimers $: _i.i2c_master_async_if._client_call_y.max.maxtimers) $M ($D __interface_wait_and_yield.maxtimers ? __interface_wait_and_yield.maxtimers $: _i.i2c_master_async_if._client_call_y.max.maxtimers) $M 0
	.globl	_i.i2c_master_async_if._chan_yield.get_write_result.maxtimers
	.weak	_i.i2c_master_async_if._chan_yield.get_write_result.maxtimers
	.set	_i.i2c_master_async_if._chan_yield.get_write_result.maxchanends,(1 + ($D __interface_client_call_y.maxchanends ? __interface_client_call_y.maxchanends $: _i.i2c_master_async_if._client_call_y.max.maxchanends)) $M (1 + ($D __interface_wait_and_yield.maxchanends ? __interface_wait_and_yield.maxchanends $: _i.i2c_master_async_if._client_call_y.max.maxchanends)) $M 1
	.globl	_i.i2c_master_async_if._chan_yield.get_write_result.maxchanends
	.weak	_i.i2c_master_async_if._chan_yield.get_write_result.maxchanends
.Ltmp261:
	.size	_i.i2c_master_async_if._chan_yield.get_write_result, .Ltmp261-_i.i2c_master_async_if._chan_yield.get_write_result
	.cfi_endproc

	.weak	_i.i2c_master_async_if._chan_yield.read
	.align	4
	.type	_i.i2c_master_async_if._chan_yield.read,@function
	.cc_top _i.i2c_master_async_if._chan_yield.read.function,_i.i2c_master_async_if._chan_yield.read
_i.i2c_master_async_if._chan_yield.read: # @_i.i2c_master_async_if._chan_yield.read
	.cfi_startproc
	.issue_mode dual
# BB#0:                                 # %allocas
	{
		nop
		dualentsp 8
	}
.Ltmp262:
	.cfi_def_cfa_offset 32
.Ltmp263:
	.cfi_offset 15, 0
	std r5, r4, sp[1]               # 4-byte Folded Spill
.Ltmp264:
	.cfi_offset 4, -24
.Ltmp265:
	.cfi_offset 5, -20
	std r7, r6, sp[2]               # 4-byte Folded Spill
.Ltmp266:
	.cfi_offset 6, -16
.Ltmp267:
	.cfi_offset 7, -12
.Ltmp268:
	.cfi_offset 8, -8
	#DEBUG_VALUE: _i.i2c_master_async_if._chan_yield.read:s <- R0
	#DEBUG_VALUE: _i.i2c_master_async_if._chan_yield.read:param1 <- R1
	#DEBUG_VALUE: _i.i2c_master_async_if._chan_yield.read:param2 <- R2
	#DEBUG_VALUE: _i.i2c_master_async_if._chan_yield.read:param3 <- R3
	#DEBUG_VALUE: _i.i2c_master_async_if._chan_yield.read:param3 <- R4
	{
		mov r4, r3
		stw r8, sp[6]
	}
	#DEBUG_VALUE: _i.i2c_master_async_if._chan_yield.read:param2 <- R5
	#DEBUG_VALUE: _i.i2c_master_async_if._chan_yield.read:param1 <- R6
	{
		mov r5, r2
		mov r6, r1
	}
	{
		getr r7, 2
		ldw r1, r0[0]
	}
	{
		setd res[r7], r1
		add r1, r7, 1
	}
	{
		out res[r7], r1
		nop
	}
	{
		outct res[r7], 2
		ldw r8, r0[1]
	}
	{
		mov r0, r7
		mov r1, r8
	}
	bl __interface_wait_and_yield
	{
		chkct res[r7], 1
		nop
	}
	{
		outt res[r7], r6
		nop
	}
	{
		out res[r7], r5
		nop
	}
	{
		out res[r7], r4
		nop
	}
	{
		outct res[r7], 2
		ldc r1, 0
	}
	{
		mov r0, r7
		mov r2, r8
	}
	bl __interface_client_call_y
	{
		chkct res[r7], 1
		nop
	}
	{
		freer res[r7]
		ldw r8, sp[6]
	}
	ldd r7, r6, sp[2]               # 4-byte Folded Reload
	ldd r5, r4, sp[1]               # 4-byte Folded Reload
	{
		nop
		retsp 8
	}
	# RETURN_REG_HOLDER
	.cc_bottom _i.i2c_master_async_if._chan_yield.read.function
	.set	_i.i2c_master_async_if._chan_yield.read.nstackwords,((($D __interface_wait_and_yield.nstackwords ? __interface_wait_and_yield.nstackwords $: _i.i2c_master_async_if._client_call_y.max.nstackwords) $M _i.i2c_master_async_if._client_call_y.max.nstackwords $M ($D __interface_client_call_y.nstackwords ? __interface_client_call_y.nstackwords $: _i.i2c_master_async_if._client_call_y.max.nstackwords)) + 8)
	.globl	_i.i2c_master_async_if._chan_yield.read.nstackwords
	.weak	_i.i2c_master_async_if._chan_yield.read.nstackwords
	.set	_i.i2c_master_async_if._chan_yield.read.maxcores,($D __interface_client_call_y.maxcores ? __interface_client_call_y.maxcores $: _i.i2c_master_async_if._client_call_y.max.maxcores) $M ($D __interface_wait_and_yield.maxcores ? __interface_wait_and_yield.maxcores $: _i.i2c_master_async_if._client_call_y.max.maxcores) $M 1
	.globl	_i.i2c_master_async_if._chan_yield.read.maxcores
	.weak	_i.i2c_master_async_if._chan_yield.read.maxcores
	.set	_i.i2c_master_async_if._chan_yield.read.maxtimers,($D __interface_client_call_y.maxtimers ? __interface_client_call_y.maxtimers $: _i.i2c_master_async_if._client_call_y.max.maxtimers) $M ($D __interface_wait_and_yield.maxtimers ? __interface_wait_and_yield.maxtimers $: _i.i2c_master_async_if._client_call_y.max.maxtimers) $M 0
	.globl	_i.i2c_master_async_if._chan_yield.read.maxtimers
	.weak	_i.i2c_master_async_if._chan_yield.read.maxtimers
	.set	_i.i2c_master_async_if._chan_yield.read.maxchanends,(1 + ($D __interface_client_call_y.maxchanends ? __interface_client_call_y.maxchanends $: _i.i2c_master_async_if._client_call_y.max.maxchanends)) $M (1 + ($D __interface_wait_and_yield.maxchanends ? __interface_wait_and_yield.maxchanends $: _i.i2c_master_async_if._client_call_y.max.maxchanends)) $M 1
	.globl	_i.i2c_master_async_if._chan_yield.read.maxchanends
	.weak	_i.i2c_master_async_if._chan_yield.read.maxchanends
.Ltmp269:
	.size	_i.i2c_master_async_if._chan_yield.read, .Ltmp269-_i.i2c_master_async_if._chan_yield.read
	.cfi_endproc

	.weak	_i.i2c_master_async_if._chan_yield.write
	.align	4
	.type	_i.i2c_master_async_if._chan_yield.write,@function
	.cc_top _i.i2c_master_async_if._chan_yield.write.function,_i.i2c_master_async_if._chan_yield.write
_i.i2c_master_async_if._chan_yield.write: # @_i.i2c_master_async_if._chan_yield.write
	.cfi_startproc
	.issue_mode dual
# BB#0:                                 # %allocas
	{
		nop
		dualentsp 8
	}
.Ltmp270:
	.cfi_def_cfa_offset 32
.Ltmp271:
	.cfi_offset 15, 0
	std r5, r4, sp[1]               # 4-byte Folded Spill
.Ltmp272:
	.cfi_offset 4, -24
.Ltmp273:
	.cfi_offset 5, -20
	std r7, r6, sp[2]               # 4-byte Folded Spill
.Ltmp274:
	.cfi_offset 6, -16
.Ltmp275:
	.cfi_offset 7, -12
	std r9, r8, sp[3]               # 4-byte Folded Spill
.Ltmp276:
	.cfi_offset 8, -8
.Ltmp277:
	.cfi_offset 9, -4
	#DEBUG_VALUE: _i.i2c_master_async_if._chan_yield.write:s <- R0
	#DEBUG_VALUE: _i.i2c_master_async_if._chan_yield.write:param1 <- R1
	#DEBUG_VALUE: _i.i2c_master_async_if._chan_yield.write:param2 <- R2
	#DEBUG_VALUE: _i.i2c_master_async_if._chan_yield.write:param3 <- R3
	#DEBUG_VALUE: _i.i2c_master_async_if._chan_yield.write:param4 <- [SP+36]
	#DEBUG_VALUE: _i.i2c_master_async_if._chan_yield.write:param3 <- R4
	#DEBUG_VALUE: _i.i2c_master_async_if._chan_yield.write:param2 <- R5
	{
		mov r4, r3
		mov r5, r2
	}
	#DEBUG_VALUE: _i.i2c_master_async_if._chan_yield.write:param1 <- R6
	{
		mov r6, r1
		ldw r9, sp[9]
	}
	{
		getr r7, 2
		ldw r1, r0[0]
	}
	{
		setd res[r7], r1
		nop
	}
	{
		out res[r7], r7
		nop
	}
	{
		outct res[r7], 2
		ldw r8, r0[1]
	}
	{
		mov r0, r7
		mov r1, r8
	}
	bl __interface_wait_and_yield
	{
		chkct res[r7], 1
		nop
	}
	{
		outt res[r7], r6
		stw r5, sp[1]
	}
	{
		out res[r7], r4
		nop
	}
	{
		out res[r7], r9
		nop
	}
	{
		outct res[r7], 2
		ldaw r1, sp[1]
	}
	{
		mov r0, r7
		mov r2, r8
	}
	bl __interface_client_call_y
	{
		chkct res[r7], 1
		nop
	}
	{
		freer res[r7]
		nop
	}
	ldd r9, r8, sp[3]               # 4-byte Folded Reload
	ldd r7, r6, sp[2]               # 4-byte Folded Reload
	ldd r5, r4, sp[1]               # 4-byte Folded Reload
	{
		nop
		retsp 8
	}
	# RETURN_REG_HOLDER
	.cc_bottom _i.i2c_master_async_if._chan_yield.write.function
	.set	_i.i2c_master_async_if._chan_yield.write.nstackwords,((($D __interface_wait_and_yield.nstackwords ? __interface_wait_and_yield.nstackwords $: _i.i2c_master_async_if._client_call_y.max.nstackwords) $M _i.i2c_master_async_if._client_call_y.max.nstackwords $M ($D __interface_client_call_y.nstackwords ? __interface_client_call_y.nstackwords $: _i.i2c_master_async_if._client_call_y.max.nstackwords)) + 8)
	.globl	_i.i2c_master_async_if._chan_yield.write.nstackwords
	.weak	_i.i2c_master_async_if._chan_yield.write.nstackwords
	.set	_i.i2c_master_async_if._chan_yield.write.maxcores,($D __interface_client_call_y.maxcores ? __interface_client_call_y.maxcores $: _i.i2c_master_async_if._client_call_y.max.maxcores) $M ($D __interface_wait_and_yield.maxcores ? __interface_wait_and_yield.maxcores $: _i.i2c_master_async_if._client_call_y.max.maxcores) $M 1
	.globl	_i.i2c_master_async_if._chan_yield.write.maxcores
	.weak	_i.i2c_master_async_if._chan_yield.write.maxcores
	.set	_i.i2c_master_async_if._chan_yield.write.maxtimers,($D __interface_client_call_y.maxtimers ? __interface_client_call_y.maxtimers $: _i.i2c_master_async_if._client_call_y.max.maxtimers) $M ($D __interface_wait_and_yield.maxtimers ? __interface_wait_and_yield.maxtimers $: _i.i2c_master_async_if._client_call_y.max.maxtimers) $M 0
	.globl	_i.i2c_master_async_if._chan_yield.write.maxtimers
	.weak	_i.i2c_master_async_if._chan_yield.write.maxtimers
	.set	_i.i2c_master_async_if._chan_yield.write.maxchanends,(1 + ($D __interface_client_call_y.maxchanends ? __interface_client_call_y.maxchanends $: _i.i2c_master_async_if._client_call_y.max.maxchanends)) $M (1 + ($D __interface_wait_and_yield.maxchanends ? __interface_wait_and_yield.maxchanends $: _i.i2c_master_async_if._client_call_y.max.maxchanends)) $M 1
	.globl	_i.i2c_master_async_if._chan_yield.write.maxchanends
	.weak	_i.i2c_master_async_if._chan_yield.write.maxchanends
.Ltmp278:
	.size	_i.i2c_master_async_if._chan_yield.write, .Ltmp278-_i.i2c_master_async_if._chan_yield.write
	.cfi_endproc

	.weak	_i.i2c_slave_callback_if._chan.stop_bit
	.align	4
	.type	_i.i2c_slave_callback_if._chan.stop_bit,@function
	.cc_top _i.i2c_slave_callback_if._chan.stop_bit.function,_i.i2c_slave_callback_if._chan.stop_bit
_i.i2c_slave_callback_if._chan.stop_bit: # @_i.i2c_slave_callback_if._chan.stop_bit
	.cfi_startproc
	.issue_mode dual
# BB#0:                                 # %allocas
	{
		nop
		dualentsp 4
	}
.Ltmp279:
	.cfi_def_cfa_offset 16
.Ltmp280:
	.cfi_offset 15, 0
.Ltmp281:
	.cfi_offset 4, -8
	#DEBUG_VALUE: _i.i2c_slave_callback_if._chan.stop_bit:dest <- R0
	{
		getr r4, 2
		stw r4, sp[2]
	}
	{
		setd res[r4], r0
		add r0, r4, 8
	}
	{
		out res[r4], r0
		nop
	}
	{
		outct res[r4], 2
		ldc r1, 0
	}
	{
		mov r0, r4
		nop
	}
	bl __interface_wait_and_yield
	{
		in r0, res[r4]
		nop
	}
	{
		chkct res[r4], 1
		nop
	}
	{
		freer res[r4]
		ldw r4, sp[2]
	}
	{
		nop
		retsp 4
	}
	# RETURN_REG_HOLDER
	.cc_bottom _i.i2c_slave_callback_if._chan.stop_bit.function
	.set	_i.i2c_slave_callback_if._chan.stop_bit.nstackwords,((_i.i2c_slave_callback_if._client_call_y.max.nstackwords $M ($D __interface_wait_and_yield.nstackwords ? __interface_wait_and_yield.nstackwords $: _i.i2c_slave_callback_if._client_call_y.max.nstackwords)) + 4)
	.globl	_i.i2c_slave_callback_if._chan.stop_bit.nstackwords
	.weak	_i.i2c_slave_callback_if._chan.stop_bit.nstackwords
	.set	_i.i2c_slave_callback_if._chan.stop_bit.maxcores,($D __interface_wait_and_yield.maxcores ? __interface_wait_and_yield.maxcores $: _i.i2c_slave_callback_if._client_call_y.max.maxcores) $M 1
	.globl	_i.i2c_slave_callback_if._chan.stop_bit.maxcores
	.weak	_i.i2c_slave_callback_if._chan.stop_bit.maxcores
	.set	_i.i2c_slave_callback_if._chan.stop_bit.maxtimers,($D __interface_wait_and_yield.maxtimers ? __interface_wait_and_yield.maxtimers $: _i.i2c_slave_callback_if._client_call_y.max.maxtimers) $M 0
	.globl	_i.i2c_slave_callback_if._chan.stop_bit.maxtimers
	.weak	_i.i2c_slave_callback_if._chan.stop_bit.maxtimers
	.set	_i.i2c_slave_callback_if._chan.stop_bit.maxchanends,(1 + ($D __interface_wait_and_yield.maxchanends ? __interface_wait_and_yield.maxchanends $: _i.i2c_slave_callback_if._client_call_y.max.maxchanends)) $M 1
	.globl	_i.i2c_slave_callback_if._chan.stop_bit.maxchanends
	.weak	_i.i2c_slave_callback_if._chan.stop_bit.maxchanends
.Ltmp282:
	.size	_i.i2c_slave_callback_if._chan.stop_bit, .Ltmp282-_i.i2c_slave_callback_if._chan.stop_bit
	.cfi_endproc

	.weak	_i.i2c_slave_callback_if._chan.master_sent_data
	.align	4
	.type	_i.i2c_slave_callback_if._chan.master_sent_data,@function
	.cc_top _i.i2c_slave_callback_if._chan.master_sent_data.function,_i.i2c_slave_callback_if._chan.master_sent_data
_i.i2c_slave_callback_if._chan.master_sent_data: # @_i.i2c_slave_callback_if._chan.master_sent_data
	.cfi_startproc
	.issue_mode dual
# BB#0:                                 # %allocas
	{
		nop
		dualentsp 4
	}
.Ltmp283:
	.cfi_def_cfa_offset 16
.Ltmp284:
	.cfi_offset 15, 0
	std r5, r4, sp[1]               # 4-byte Folded Spill
.Ltmp285:
	.cfi_offset 4, -8
.Ltmp286:
	.cfi_offset 5, -4
	#DEBUG_VALUE: _i.i2c_slave_callback_if._chan.master_sent_data:dest <- R0
	#DEBUG_VALUE: _i.i2c_slave_callback_if._chan.master_sent_data:param1 <- R1
	#DEBUG_VALUE: _i.i2c_slave_callback_if._chan.master_sent_data:param1 <- R4
	{
		getr r5, 2
		mov r4, r1
	}
	{
		setd res[r5], r0
		add r0, r5, 7
	}
	{
		out res[r5], r0
		nop
	}
	{
		outct res[r5], 2
		ldc r1, 0
	}
	{
		mov r0, r5
		nop
	}
	bl __interface_wait_and_yield
	{
		chkct res[r5], 1
		nop
	}
	{
		outt res[r5], r4
		nop
	}
	{
		outct res[r5], 2
		nop
	}
	{
		in r0, res[r5]
		nop
	}
	{
		in r0, res[r5]
		nop
	}
	{
		chkct res[r5], 1
		nop
	}
	{
		freer res[r5]
		nop
	}
	ldd r5, r4, sp[1]               # 4-byte Folded Reload
	{
		nop
		retsp 4
	}
	# RETURN_REG_HOLDER
	.cc_bottom _i.i2c_slave_callback_if._chan.master_sent_data.function
	.set	_i.i2c_slave_callback_if._chan.master_sent_data.nstackwords,((_i.i2c_slave_callback_if._client_call_y.max.nstackwords $M ($D __interface_wait_and_yield.nstackwords ? __interface_wait_and_yield.nstackwords $: _i.i2c_slave_callback_if._client_call_y.max.nstackwords)) + 4)
	.globl	_i.i2c_slave_callback_if._chan.master_sent_data.nstackwords
	.weak	_i.i2c_slave_callback_if._chan.master_sent_data.nstackwords
	.set	_i.i2c_slave_callback_if._chan.master_sent_data.maxcores,($D __interface_wait_and_yield.maxcores ? __interface_wait_and_yield.maxcores $: _i.i2c_slave_callback_if._client_call_y.max.maxcores) $M 1
	.globl	_i.i2c_slave_callback_if._chan.master_sent_data.maxcores
	.weak	_i.i2c_slave_callback_if._chan.master_sent_data.maxcores
	.set	_i.i2c_slave_callback_if._chan.master_sent_data.maxtimers,($D __interface_wait_and_yield.maxtimers ? __interface_wait_and_yield.maxtimers $: _i.i2c_slave_callback_if._client_call_y.max.maxtimers) $M 0
	.globl	_i.i2c_slave_callback_if._chan.master_sent_data.maxtimers
	.weak	_i.i2c_slave_callback_if._chan.master_sent_data.maxtimers
	.set	_i.i2c_slave_callback_if._chan.master_sent_data.maxchanends,(1 + ($D __interface_wait_and_yield.maxchanends ? __interface_wait_and_yield.maxchanends $: _i.i2c_slave_callback_if._client_call_y.max.maxchanends)) $M 1
	.globl	_i.i2c_slave_callback_if._chan.master_sent_data.maxchanends
	.weak	_i.i2c_slave_callback_if._chan.master_sent_data.maxchanends
.Ltmp287:
	.size	_i.i2c_slave_callback_if._chan.master_sent_data, .Ltmp287-_i.i2c_slave_callback_if._chan.master_sent_data
	.cfi_endproc

	.weak	_i.i2c_slave_callback_if._chan.start_master_write
	.align	4
	.type	_i.i2c_slave_callback_if._chan.start_master_write,@function
	.cc_top _i.i2c_slave_callback_if._chan.start_master_write.function,_i.i2c_slave_callback_if._chan.start_master_write
_i.i2c_slave_callback_if._chan.start_master_write: # @_i.i2c_slave_callback_if._chan.start_master_write
	.cfi_startproc
	.issue_mode dual
# BB#0:                                 # %allocas
	{
		nop
		dualentsp 4
	}
.Ltmp288:
	.cfi_def_cfa_offset 16
.Ltmp289:
	.cfi_offset 15, 0
.Ltmp290:
	.cfi_offset 4, -8
	#DEBUG_VALUE: _i.i2c_slave_callback_if._chan.start_master_write:dest <- R0
	{
		getr r4, 2
		stw r4, sp[2]
	}
	{
		setd res[r4], r0
		add r0, r4, 6
	}
	{
		out res[r4], r0
		nop
	}
	{
		outct res[r4], 2
		ldc r1, 0
	}
	{
		mov r0, r4
		nop
	}
	bl __interface_wait_and_yield
	{
		in r0, res[r4]
		nop
	}
	{
		chkct res[r4], 1
		nop
	}
	{
		freer res[r4]
		ldw r4, sp[2]
	}
	{
		nop
		retsp 4
	}
	# RETURN_REG_HOLDER
	.cc_bottom _i.i2c_slave_callback_if._chan.start_master_write.function
	.set	_i.i2c_slave_callback_if._chan.start_master_write.nstackwords,((_i.i2c_slave_callback_if._client_call_y.max.nstackwords $M ($D __interface_wait_and_yield.nstackwords ? __interface_wait_and_yield.nstackwords $: _i.i2c_slave_callback_if._client_call_y.max.nstackwords)) + 4)
	.globl	_i.i2c_slave_callback_if._chan.start_master_write.nstackwords
	.weak	_i.i2c_slave_callback_if._chan.start_master_write.nstackwords
	.set	_i.i2c_slave_callback_if._chan.start_master_write.maxcores,($D __interface_wait_and_yield.maxcores ? __interface_wait_and_yield.maxcores $: _i.i2c_slave_callback_if._client_call_y.max.maxcores) $M 1
	.globl	_i.i2c_slave_callback_if._chan.start_master_write.maxcores
	.weak	_i.i2c_slave_callback_if._chan.start_master_write.maxcores
	.set	_i.i2c_slave_callback_if._chan.start_master_write.maxtimers,($D __interface_wait_and_yield.maxtimers ? __interface_wait_and_yield.maxtimers $: _i.i2c_slave_callback_if._client_call_y.max.maxtimers) $M 0
	.globl	_i.i2c_slave_callback_if._chan.start_master_write.maxtimers
	.weak	_i.i2c_slave_callback_if._chan.start_master_write.maxtimers
	.set	_i.i2c_slave_callback_if._chan.start_master_write.maxchanends,(1 + ($D __interface_wait_and_yield.maxchanends ? __interface_wait_and_yield.maxchanends $: _i.i2c_slave_callback_if._client_call_y.max.maxchanends)) $M 1
	.globl	_i.i2c_slave_callback_if._chan.start_master_write.maxchanends
	.weak	_i.i2c_slave_callback_if._chan.start_master_write.maxchanends
.Ltmp291:
	.size	_i.i2c_slave_callback_if._chan.start_master_write, .Ltmp291-_i.i2c_slave_callback_if._chan.start_master_write
	.cfi_endproc

	.weak	_i.i2c_slave_callback_if._chan.master_requires_data
	.align	4
	.type	_i.i2c_slave_callback_if._chan.master_requires_data,@function
	.cc_top _i.i2c_slave_callback_if._chan.master_requires_data.function,_i.i2c_slave_callback_if._chan.master_requires_data
_i.i2c_slave_callback_if._chan.master_requires_data: # @_i.i2c_slave_callback_if._chan.master_requires_data
	.cfi_startproc
	.issue_mode dual
# BB#0:                                 # %allocas
	{
		nop
		dualentsp 4
	}
.Ltmp292:
	.cfi_def_cfa_offset 16
.Ltmp293:
	.cfi_offset 15, 0
.Ltmp294:
	.cfi_offset 4, -8
	#DEBUG_VALUE: _i.i2c_slave_callback_if._chan.master_requires_data:dest <- R0
	{
		getr r4, 2
		stw r4, sp[2]
	}
	{
		setd res[r4], r0
		add r0, r4, 5
	}
	{
		out res[r4], r0
		nop
	}
	{
		outct res[r4], 2
		ldc r1, 0
	}
	{
		mov r0, r4
		nop
	}
	bl __interface_wait_and_yield
	{
		in r0, res[r4]
		nop
	}
	{
		int r0, res[r4]
		nop
	}
	{
		chkct res[r4], 1
		nop
	}
	{
		freer res[r4]
		ldw r4, sp[2]
	}
	{
		nop
		retsp 4
	}
	# RETURN_REG_HOLDER
	.cc_bottom _i.i2c_slave_callback_if._chan.master_requires_data.function
	.set	_i.i2c_slave_callback_if._chan.master_requires_data.nstackwords,((_i.i2c_slave_callback_if._client_call_y.max.nstackwords $M ($D __interface_wait_and_yield.nstackwords ? __interface_wait_and_yield.nstackwords $: _i.i2c_slave_callback_if._client_call_y.max.nstackwords)) + 4)
	.globl	_i.i2c_slave_callback_if._chan.master_requires_data.nstackwords
	.weak	_i.i2c_slave_callback_if._chan.master_requires_data.nstackwords
	.set	_i.i2c_slave_callback_if._chan.master_requires_data.maxcores,($D __interface_wait_and_yield.maxcores ? __interface_wait_and_yield.maxcores $: _i.i2c_slave_callback_if._client_call_y.max.maxcores) $M 1
	.globl	_i.i2c_slave_callback_if._chan.master_requires_data.maxcores
	.weak	_i.i2c_slave_callback_if._chan.master_requires_data.maxcores
	.set	_i.i2c_slave_callback_if._chan.master_requires_data.maxtimers,($D __interface_wait_and_yield.maxtimers ? __interface_wait_and_yield.maxtimers $: _i.i2c_slave_callback_if._client_call_y.max.maxtimers) $M 0
	.globl	_i.i2c_slave_callback_if._chan.master_requires_data.maxtimers
	.weak	_i.i2c_slave_callback_if._chan.master_requires_data.maxtimers
	.set	_i.i2c_slave_callback_if._chan.master_requires_data.maxchanends,(1 + ($D __interface_wait_and_yield.maxchanends ? __interface_wait_and_yield.maxchanends $: _i.i2c_slave_callback_if._client_call_y.max.maxchanends)) $M 1
	.globl	_i.i2c_slave_callback_if._chan.master_requires_data.maxchanends
	.weak	_i.i2c_slave_callback_if._chan.master_requires_data.maxchanends
.Ltmp295:
	.size	_i.i2c_slave_callback_if._chan.master_requires_data, .Ltmp295-_i.i2c_slave_callback_if._chan.master_requires_data
	.cfi_endproc

	.weak	_i.i2c_slave_callback_if._chan.start_master_read
	.align	4
	.type	_i.i2c_slave_callback_if._chan.start_master_read,@function
	.cc_top _i.i2c_slave_callback_if._chan.start_master_read.function,_i.i2c_slave_callback_if._chan.start_master_read
_i.i2c_slave_callback_if._chan.start_master_read: # @_i.i2c_slave_callback_if._chan.start_master_read
	.cfi_startproc
	.issue_mode dual
# BB#0:                                 # %allocas
	{
		nop
		dualentsp 4
	}
.Ltmp296:
	.cfi_def_cfa_offset 16
.Ltmp297:
	.cfi_offset 15, 0
.Ltmp298:
	.cfi_offset 4, -8
	#DEBUG_VALUE: _i.i2c_slave_callback_if._chan.start_master_read:dest <- R0
	{
		getr r4, 2
		stw r4, sp[2]
	}
	{
		setd res[r4], r0
		add r0, r4, 4
	}
	{
		out res[r4], r0
		nop
	}
	{
		outct res[r4], 2
		ldc r1, 0
	}
	{
		mov r0, r4
		nop
	}
	bl __interface_wait_and_yield
	{
		in r0, res[r4]
		nop
	}
	{
		chkct res[r4], 1
		nop
	}
	{
		freer res[r4]
		ldw r4, sp[2]
	}
	{
		nop
		retsp 4
	}
	# RETURN_REG_HOLDER
	.cc_bottom _i.i2c_slave_callback_if._chan.start_master_read.function
	.set	_i.i2c_slave_callback_if._chan.start_master_read.nstackwords,((_i.i2c_slave_callback_if._client_call_y.max.nstackwords $M ($D __interface_wait_and_yield.nstackwords ? __interface_wait_and_yield.nstackwords $: _i.i2c_slave_callback_if._client_call_y.max.nstackwords)) + 4)
	.globl	_i.i2c_slave_callback_if._chan.start_master_read.nstackwords
	.weak	_i.i2c_slave_callback_if._chan.start_master_read.nstackwords
	.set	_i.i2c_slave_callback_if._chan.start_master_read.maxcores,($D __interface_wait_and_yield.maxcores ? __interface_wait_and_yield.maxcores $: _i.i2c_slave_callback_if._client_call_y.max.maxcores) $M 1
	.globl	_i.i2c_slave_callback_if._chan.start_master_read.maxcores
	.weak	_i.i2c_slave_callback_if._chan.start_master_read.maxcores
	.set	_i.i2c_slave_callback_if._chan.start_master_read.maxtimers,($D __interface_wait_and_yield.maxtimers ? __interface_wait_and_yield.maxtimers $: _i.i2c_slave_callback_if._client_call_y.max.maxtimers) $M 0
	.globl	_i.i2c_slave_callback_if._chan.start_master_read.maxtimers
	.weak	_i.i2c_slave_callback_if._chan.start_master_read.maxtimers
	.set	_i.i2c_slave_callback_if._chan.start_master_read.maxchanends,(1 + ($D __interface_wait_and_yield.maxchanends ? __interface_wait_and_yield.maxchanends $: _i.i2c_slave_callback_if._client_call_y.max.maxchanends)) $M 1
	.globl	_i.i2c_slave_callback_if._chan.start_master_read.maxchanends
	.weak	_i.i2c_slave_callback_if._chan.start_master_read.maxchanends
.Ltmp299:
	.size	_i.i2c_slave_callback_if._chan.start_master_read, .Ltmp299-_i.i2c_slave_callback_if._chan.start_master_read
	.cfi_endproc

	.weak	_i.i2c_slave_callback_if._chan.ack_write_request
	.align	4
	.type	_i.i2c_slave_callback_if._chan.ack_write_request,@function
	.cc_top _i.i2c_slave_callback_if._chan.ack_write_request.function,_i.i2c_slave_callback_if._chan.ack_write_request
_i.i2c_slave_callback_if._chan.ack_write_request: # @_i.i2c_slave_callback_if._chan.ack_write_request
	.cfi_startproc
	.issue_mode dual
# BB#0:                                 # %allocas
	{
		nop
		dualentsp 4
	}
.Ltmp300:
	.cfi_def_cfa_offset 16
.Ltmp301:
	.cfi_offset 15, 0
.Ltmp302:
	.cfi_offset 4, -8
	#DEBUG_VALUE: _i.i2c_slave_callback_if._chan.ack_write_request:dest <- R0
	{
		getr r4, 2
		stw r4, sp[2]
	}
	{
		setd res[r4], r0
		add r0, r4, 3
	}
	{
		out res[r4], r0
		nop
	}
	{
		outct res[r4], 2
		ldc r1, 0
	}
	{
		mov r0, r4
		nop
	}
	bl __interface_wait_and_yield
	{
		in r0, res[r4]
		nop
	}
	{
		in r0, res[r4]
		nop
	}
	{
		chkct res[r4], 1
		nop
	}
	{
		freer res[r4]
		ldw r4, sp[2]
	}
	{
		nop
		retsp 4
	}
	# RETURN_REG_HOLDER
	.cc_bottom _i.i2c_slave_callback_if._chan.ack_write_request.function
	.set	_i.i2c_slave_callback_if._chan.ack_write_request.nstackwords,((_i.i2c_slave_callback_if._client_call_y.max.nstackwords $M ($D __interface_wait_and_yield.nstackwords ? __interface_wait_and_yield.nstackwords $: _i.i2c_slave_callback_if._client_call_y.max.nstackwords)) + 4)
	.globl	_i.i2c_slave_callback_if._chan.ack_write_request.nstackwords
	.weak	_i.i2c_slave_callback_if._chan.ack_write_request.nstackwords
	.set	_i.i2c_slave_callback_if._chan.ack_write_request.maxcores,($D __interface_wait_and_yield.maxcores ? __interface_wait_and_yield.maxcores $: _i.i2c_slave_callback_if._client_call_y.max.maxcores) $M 1
	.globl	_i.i2c_slave_callback_if._chan.ack_write_request.maxcores
	.weak	_i.i2c_slave_callback_if._chan.ack_write_request.maxcores
	.set	_i.i2c_slave_callback_if._chan.ack_write_request.maxtimers,($D __interface_wait_and_yield.maxtimers ? __interface_wait_and_yield.maxtimers $: _i.i2c_slave_callback_if._client_call_y.max.maxtimers) $M 0
	.globl	_i.i2c_slave_callback_if._chan.ack_write_request.maxtimers
	.weak	_i.i2c_slave_callback_if._chan.ack_write_request.maxtimers
	.set	_i.i2c_slave_callback_if._chan.ack_write_request.maxchanends,(1 + ($D __interface_wait_and_yield.maxchanends ? __interface_wait_and_yield.maxchanends $: _i.i2c_slave_callback_if._client_call_y.max.maxchanends)) $M 1
	.globl	_i.i2c_slave_callback_if._chan.ack_write_request.maxchanends
	.weak	_i.i2c_slave_callback_if._chan.ack_write_request.maxchanends
.Ltmp303:
	.size	_i.i2c_slave_callback_if._chan.ack_write_request, .Ltmp303-_i.i2c_slave_callback_if._chan.ack_write_request
	.cfi_endproc

	.weak	_i.i2c_slave_callback_if._chan.start_write_request
	.align	4
	.type	_i.i2c_slave_callback_if._chan.start_write_request,@function
	.cc_top _i.i2c_slave_callback_if._chan.start_write_request.function,_i.i2c_slave_callback_if._chan.start_write_request
_i.i2c_slave_callback_if._chan.start_write_request: # @_i.i2c_slave_callback_if._chan.start_write_request
	.cfi_startproc
	.issue_mode dual
# BB#0:                                 # %allocas
	{
		nop
		dualentsp 4
	}
.Ltmp304:
	.cfi_def_cfa_offset 16
.Ltmp305:
	.cfi_offset 15, 0
.Ltmp306:
	.cfi_offset 4, -8
	#DEBUG_VALUE: _i.i2c_slave_callback_if._chan.start_write_request:dest <- R0
	{
		getr r4, 2
		stw r4, sp[2]
	}
	{
		setd res[r4], r0
		add r0, r4, 2
	}
	{
		out res[r4], r0
		nop
	}
	{
		outct res[r4], 2
		ldc r1, 0
	}
	{
		mov r0, r4
		nop
	}
	bl __interface_wait_and_yield
	{
		in r0, res[r4]
		nop
	}
	{
		chkct res[r4], 1
		nop
	}
	{
		freer res[r4]
		ldw r4, sp[2]
	}
	{
		nop
		retsp 4
	}
	# RETURN_REG_HOLDER
	.cc_bottom _i.i2c_slave_callback_if._chan.start_write_request.function
	.set	_i.i2c_slave_callback_if._chan.start_write_request.nstackwords,((_i.i2c_slave_callback_if._client_call_y.max.nstackwords $M ($D __interface_wait_and_yield.nstackwords ? __interface_wait_and_yield.nstackwords $: _i.i2c_slave_callback_if._client_call_y.max.nstackwords)) + 4)
	.globl	_i.i2c_slave_callback_if._chan.start_write_request.nstackwords
	.weak	_i.i2c_slave_callback_if._chan.start_write_request.nstackwords
	.set	_i.i2c_slave_callback_if._chan.start_write_request.maxcores,($D __interface_wait_and_yield.maxcores ? __interface_wait_and_yield.maxcores $: _i.i2c_slave_callback_if._client_call_y.max.maxcores) $M 1
	.globl	_i.i2c_slave_callback_if._chan.start_write_request.maxcores
	.weak	_i.i2c_slave_callback_if._chan.start_write_request.maxcores
	.set	_i.i2c_slave_callback_if._chan.start_write_request.maxtimers,($D __interface_wait_and_yield.maxtimers ? __interface_wait_and_yield.maxtimers $: _i.i2c_slave_callback_if._client_call_y.max.maxtimers) $M 0
	.globl	_i.i2c_slave_callback_if._chan.start_write_request.maxtimers
	.weak	_i.i2c_slave_callback_if._chan.start_write_request.maxtimers
	.set	_i.i2c_slave_callback_if._chan.start_write_request.maxchanends,(1 + ($D __interface_wait_and_yield.maxchanends ? __interface_wait_and_yield.maxchanends $: _i.i2c_slave_callback_if._client_call_y.max.maxchanends)) $M 1
	.globl	_i.i2c_slave_callback_if._chan.start_write_request.maxchanends
	.weak	_i.i2c_slave_callback_if._chan.start_write_request.maxchanends
.Ltmp307:
	.size	_i.i2c_slave_callback_if._chan.start_write_request, .Ltmp307-_i.i2c_slave_callback_if._chan.start_write_request
	.cfi_endproc

	.weak	_i.i2c_slave_callback_if._chan.ack_read_request
	.align	4
	.type	_i.i2c_slave_callback_if._chan.ack_read_request,@function
	.cc_top _i.i2c_slave_callback_if._chan.ack_read_request.function,_i.i2c_slave_callback_if._chan.ack_read_request
_i.i2c_slave_callback_if._chan.ack_read_request: # @_i.i2c_slave_callback_if._chan.ack_read_request
	.cfi_startproc
	.issue_mode dual
# BB#0:                                 # %allocas
	{
		nop
		dualentsp 4
	}
.Ltmp308:
	.cfi_def_cfa_offset 16
.Ltmp309:
	.cfi_offset 15, 0
.Ltmp310:
	.cfi_offset 4, -8
	#DEBUG_VALUE: _i.i2c_slave_callback_if._chan.ack_read_request:dest <- R0
	{
		getr r4, 2
		stw r4, sp[2]
	}
	{
		setd res[r4], r0
		add r0, r4, 1
	}
	{
		out res[r4], r0
		nop
	}
	{
		outct res[r4], 2
		ldc r1, 0
	}
	{
		mov r0, r4
		nop
	}
	bl __interface_wait_and_yield
	{
		in r0, res[r4]
		nop
	}
	{
		in r0, res[r4]
		nop
	}
	{
		chkct res[r4], 1
		nop
	}
	{
		freer res[r4]
		ldw r4, sp[2]
	}
	{
		nop
		retsp 4
	}
	# RETURN_REG_HOLDER
	.cc_bottom _i.i2c_slave_callback_if._chan.ack_read_request.function
	.set	_i.i2c_slave_callback_if._chan.ack_read_request.nstackwords,((_i.i2c_slave_callback_if._client_call_y.max.nstackwords $M ($D __interface_wait_and_yield.nstackwords ? __interface_wait_and_yield.nstackwords $: _i.i2c_slave_callback_if._client_call_y.max.nstackwords)) + 4)
	.globl	_i.i2c_slave_callback_if._chan.ack_read_request.nstackwords
	.weak	_i.i2c_slave_callback_if._chan.ack_read_request.nstackwords
	.set	_i.i2c_slave_callback_if._chan.ack_read_request.maxcores,($D __interface_wait_and_yield.maxcores ? __interface_wait_and_yield.maxcores $: _i.i2c_slave_callback_if._client_call_y.max.maxcores) $M 1
	.globl	_i.i2c_slave_callback_if._chan.ack_read_request.maxcores
	.weak	_i.i2c_slave_callback_if._chan.ack_read_request.maxcores
	.set	_i.i2c_slave_callback_if._chan.ack_read_request.maxtimers,($D __interface_wait_and_yield.maxtimers ? __interface_wait_and_yield.maxtimers $: _i.i2c_slave_callback_if._client_call_y.max.maxtimers) $M 0
	.globl	_i.i2c_slave_callback_if._chan.ack_read_request.maxtimers
	.weak	_i.i2c_slave_callback_if._chan.ack_read_request.maxtimers
	.set	_i.i2c_slave_callback_if._chan.ack_read_request.maxchanends,(1 + ($D __interface_wait_and_yield.maxchanends ? __interface_wait_and_yield.maxchanends $: _i.i2c_slave_callback_if._client_call_y.max.maxchanends)) $M 1
	.globl	_i.i2c_slave_callback_if._chan.ack_read_request.maxchanends
	.weak	_i.i2c_slave_callback_if._chan.ack_read_request.maxchanends
.Ltmp311:
	.size	_i.i2c_slave_callback_if._chan.ack_read_request, .Ltmp311-_i.i2c_slave_callback_if._chan.ack_read_request
	.cfi_endproc

	.weak	_i.i2c_slave_callback_if._chan.start_read_request
	.align	4
	.type	_i.i2c_slave_callback_if._chan.start_read_request,@function
	.cc_top _i.i2c_slave_callback_if._chan.start_read_request.function,_i.i2c_slave_callback_if._chan.start_read_request
_i.i2c_slave_callback_if._chan.start_read_request: # @_i.i2c_slave_callback_if._chan.start_read_request
	.cfi_startproc
	.issue_mode dual
# BB#0:                                 # %allocas
	{
		nop
		dualentsp 4
	}
.Ltmp312:
	.cfi_def_cfa_offset 16
.Ltmp313:
	.cfi_offset 15, 0
.Ltmp314:
	.cfi_offset 4, -8
	#DEBUG_VALUE: _i.i2c_slave_callback_if._chan.start_read_request:dest <- R0
	{
		getr r4, 2
		stw r4, sp[2]
	}
	{
		setd res[r4], r0
		nop
	}
	{
		out res[r4], r4
		nop
	}
	{
		outct res[r4], 2
		ldc r1, 0
	}
	{
		mov r0, r4
		nop
	}
	bl __interface_wait_and_yield
	{
		in r0, res[r4]
		nop
	}
	{
		chkct res[r4], 1
		nop
	}
	{
		freer res[r4]
		ldw r4, sp[2]
	}
	{
		nop
		retsp 4
	}
	# RETURN_REG_HOLDER
	.cc_bottom _i.i2c_slave_callback_if._chan.start_read_request.function
	.set	_i.i2c_slave_callback_if._chan.start_read_request.nstackwords,((_i.i2c_slave_callback_if._client_call_y.max.nstackwords $M ($D __interface_wait_and_yield.nstackwords ? __interface_wait_and_yield.nstackwords $: _i.i2c_slave_callback_if._client_call_y.max.nstackwords)) + 4)
	.globl	_i.i2c_slave_callback_if._chan.start_read_request.nstackwords
	.weak	_i.i2c_slave_callback_if._chan.start_read_request.nstackwords
	.set	_i.i2c_slave_callback_if._chan.start_read_request.maxcores,($D __interface_wait_and_yield.maxcores ? __interface_wait_and_yield.maxcores $: _i.i2c_slave_callback_if._client_call_y.max.maxcores) $M 1
	.globl	_i.i2c_slave_callback_if._chan.start_read_request.maxcores
	.weak	_i.i2c_slave_callback_if._chan.start_read_request.maxcores
	.set	_i.i2c_slave_callback_if._chan.start_read_request.maxtimers,($D __interface_wait_and_yield.maxtimers ? __interface_wait_and_yield.maxtimers $: _i.i2c_slave_callback_if._client_call_y.max.maxtimers) $M 0
	.globl	_i.i2c_slave_callback_if._chan.start_read_request.maxtimers
	.weak	_i.i2c_slave_callback_if._chan.start_read_request.maxtimers
	.set	_i.i2c_slave_callback_if._chan.start_read_request.maxchanends,(1 + ($D __interface_wait_and_yield.maxchanends ? __interface_wait_and_yield.maxchanends $: _i.i2c_slave_callback_if._client_call_y.max.maxchanends)) $M 1
	.globl	_i.i2c_slave_callback_if._chan.start_read_request.maxchanends
	.weak	_i.i2c_slave_callback_if._chan.start_read_request.maxchanends
.Ltmp315:
	.size	_i.i2c_slave_callback_if._chan.start_read_request, .Ltmp315-_i.i2c_slave_callback_if._chan.start_read_request
	.cfi_endproc

	.weak	_i.i2c_slave_callback_if._chan_yield.stop_bit
	.align	4
	.type	_i.i2c_slave_callback_if._chan_yield.stop_bit,@function
	.cc_top _i.i2c_slave_callback_if._chan_yield.stop_bit.function,_i.i2c_slave_callback_if._chan_yield.stop_bit
_i.i2c_slave_callback_if._chan_yield.stop_bit: # @_i.i2c_slave_callback_if._chan_yield.stop_bit
	.cfi_startproc
	.issue_mode dual
# BB#0:                                 # %allocas
	{
		nop
		dualentsp 4
	}
.Ltmp316:
	.cfi_def_cfa_offset 16
.Ltmp317:
	.cfi_offset 15, 0
	std r5, r4, sp[1]               # 4-byte Folded Spill
.Ltmp318:
	.cfi_offset 4, -8
.Ltmp319:
	.cfi_offset 5, -4
	#DEBUG_VALUE: _i.i2c_slave_callback_if._chan_yield.stop_bit:s <- R0
	{
		getr r4, 2
		ldw r1, r0[0]
	}
	{
		setd res[r4], r1
		add r1, r4, 8
	}
	{
		out res[r4], r1
		nop
	}
	{
		outct res[r4], 2
		ldw r5, r0[1]
	}
	{
		mov r0, r4
		mov r1, r5
	}
	bl __interface_wait_and_yield
	{
		ldc r1, 0
		mov r0, r4
	}
	{
		mov r2, r5
		nop
	}
	bl __interface_client_call_y
	{
		chkct res[r4], 1
		nop
	}
	{
		freer res[r4]
		nop
	}
	ldd r5, r4, sp[1]               # 4-byte Folded Reload
	{
		nop
		retsp 4
	}
	# RETURN_REG_HOLDER
	.cc_bottom _i.i2c_slave_callback_if._chan_yield.stop_bit.function
	.set	_i.i2c_slave_callback_if._chan_yield.stop_bit.nstackwords,((($D __interface_wait_and_yield.nstackwords ? __interface_wait_and_yield.nstackwords $: _i.i2c_slave_callback_if._client_call_y.max.nstackwords) $M _i.i2c_slave_callback_if._client_call_y.max.nstackwords $M ($D __interface_client_call_y.nstackwords ? __interface_client_call_y.nstackwords $: _i.i2c_slave_callback_if._client_call_y.max.nstackwords)) + 4)
	.globl	_i.i2c_slave_callback_if._chan_yield.stop_bit.nstackwords
	.weak	_i.i2c_slave_callback_if._chan_yield.stop_bit.nstackwords
	.set	_i.i2c_slave_callback_if._chan_yield.stop_bit.maxcores,($D __interface_client_call_y.maxcores ? __interface_client_call_y.maxcores $: _i.i2c_slave_callback_if._client_call_y.max.maxcores) $M ($D __interface_wait_and_yield.maxcores ? __interface_wait_and_yield.maxcores $: _i.i2c_slave_callback_if._client_call_y.max.maxcores) $M 1
	.globl	_i.i2c_slave_callback_if._chan_yield.stop_bit.maxcores
	.weak	_i.i2c_slave_callback_if._chan_yield.stop_bit.maxcores
	.set	_i.i2c_slave_callback_if._chan_yield.stop_bit.maxtimers,($D __interface_client_call_y.maxtimers ? __interface_client_call_y.maxtimers $: _i.i2c_slave_callback_if._client_call_y.max.maxtimers) $M ($D __interface_wait_and_yield.maxtimers ? __interface_wait_and_yield.maxtimers $: _i.i2c_slave_callback_if._client_call_y.max.maxtimers) $M 0
	.globl	_i.i2c_slave_callback_if._chan_yield.stop_bit.maxtimers
	.weak	_i.i2c_slave_callback_if._chan_yield.stop_bit.maxtimers
	.set	_i.i2c_slave_callback_if._chan_yield.stop_bit.maxchanends,(1 + ($D __interface_client_call_y.maxchanends ? __interface_client_call_y.maxchanends $: _i.i2c_slave_callback_if._client_call_y.max.maxchanends)) $M (1 + ($D __interface_wait_and_yield.maxchanends ? __interface_wait_and_yield.maxchanends $: _i.i2c_slave_callback_if._client_call_y.max.maxchanends)) $M 1
	.globl	_i.i2c_slave_callback_if._chan_yield.stop_bit.maxchanends
	.weak	_i.i2c_slave_callback_if._chan_yield.stop_bit.maxchanends
.Ltmp320:
	.size	_i.i2c_slave_callback_if._chan_yield.stop_bit, .Ltmp320-_i.i2c_slave_callback_if._chan_yield.stop_bit
	.cfi_endproc

	.weak	_i.i2c_slave_callback_if._chan_yield.master_sent_data
	.align	4
	.type	_i.i2c_slave_callback_if._chan_yield.master_sent_data,@function
	.cc_top _i.i2c_slave_callback_if._chan_yield.master_sent_data.function,_i.i2c_slave_callback_if._chan_yield.master_sent_data
_i.i2c_slave_callback_if._chan_yield.master_sent_data: # @_i.i2c_slave_callback_if._chan_yield.master_sent_data
	.cfi_startproc
	.issue_mode dual
# BB#0:                                 # %allocas
	{
		nop
		dualentsp 6
	}
.Ltmp321:
	.cfi_def_cfa_offset 24
.Ltmp322:
	.cfi_offset 15, 0
	std r5, r4, sp[1]               # 4-byte Folded Spill
.Ltmp323:
	.cfi_offset 4, -16
.Ltmp324:
	.cfi_offset 5, -12
.Ltmp325:
	.cfi_offset 6, -8
	#DEBUG_VALUE: _i.i2c_slave_callback_if._chan_yield.master_sent_data:s <- R0
	#DEBUG_VALUE: _i.i2c_slave_callback_if._chan_yield.master_sent_data:param1 <- R1
	#DEBUG_VALUE: _i.i2c_slave_callback_if._chan_yield.master_sent_data:param1 <- R4
	{
		mov r4, r1
		stw r6, sp[4]
	}
	{
		getr r5, 2
		ldw r1, r0[0]
	}
	{
		setd res[r5], r1
		add r1, r5, 7
	}
	{
		out res[r5], r1
		nop
	}
	{
		outct res[r5], 2
		ldw r6, r0[1]
	}
	{
		mov r0, r5
		mov r1, r6
	}
	bl __interface_wait_and_yield
	{
		chkct res[r5], 1
		nop
	}
	{
		outt res[r5], r4
		nop
	}
	{
		outct res[r5], 2
		ldc r1, 0
	}
	{
		mov r0, r5
		mov r2, r6
	}
	bl __interface_client_call_y
	{
		in r0, res[r5]
		nop
	}
	{
		chkct res[r5], 1
		nop
	}
	{
		freer res[r5]
		ldw r6, sp[4]
	}
	ldd r5, r4, sp[1]               # 4-byte Folded Reload
	{
		nop
		retsp 6
	}
	# RETURN_REG_HOLDER
	.cc_bottom _i.i2c_slave_callback_if._chan_yield.master_sent_data.function
	.set	_i.i2c_slave_callback_if._chan_yield.master_sent_data.nstackwords,((($D __interface_wait_and_yield.nstackwords ? __interface_wait_and_yield.nstackwords $: _i.i2c_slave_callback_if._client_call_y.max.nstackwords) $M _i.i2c_slave_callback_if._client_call_y.max.nstackwords $M ($D __interface_client_call_y.nstackwords ? __interface_client_call_y.nstackwords $: _i.i2c_slave_callback_if._client_call_y.max.nstackwords)) + 6)
	.globl	_i.i2c_slave_callback_if._chan_yield.master_sent_data.nstackwords
	.weak	_i.i2c_slave_callback_if._chan_yield.master_sent_data.nstackwords
	.set	_i.i2c_slave_callback_if._chan_yield.master_sent_data.maxcores,($D __interface_client_call_y.maxcores ? __interface_client_call_y.maxcores $: _i.i2c_slave_callback_if._client_call_y.max.maxcores) $M ($D __interface_wait_and_yield.maxcores ? __interface_wait_and_yield.maxcores $: _i.i2c_slave_callback_if._client_call_y.max.maxcores) $M 1
	.globl	_i.i2c_slave_callback_if._chan_yield.master_sent_data.maxcores
	.weak	_i.i2c_slave_callback_if._chan_yield.master_sent_data.maxcores
	.set	_i.i2c_slave_callback_if._chan_yield.master_sent_data.maxtimers,($D __interface_client_call_y.maxtimers ? __interface_client_call_y.maxtimers $: _i.i2c_slave_callback_if._client_call_y.max.maxtimers) $M ($D __interface_wait_and_yield.maxtimers ? __interface_wait_and_yield.maxtimers $: _i.i2c_slave_callback_if._client_call_y.max.maxtimers) $M 0
	.globl	_i.i2c_slave_callback_if._chan_yield.master_sent_data.maxtimers
	.weak	_i.i2c_slave_callback_if._chan_yield.master_sent_data.maxtimers
	.set	_i.i2c_slave_callback_if._chan_yield.master_sent_data.maxchanends,(1 + ($D __interface_client_call_y.maxchanends ? __interface_client_call_y.maxchanends $: _i.i2c_slave_callback_if._client_call_y.max.maxchanends)) $M (1 + ($D __interface_wait_and_yield.maxchanends ? __interface_wait_and_yield.maxchanends $: _i.i2c_slave_callback_if._client_call_y.max.maxchanends)) $M 1
	.globl	_i.i2c_slave_callback_if._chan_yield.master_sent_data.maxchanends
	.weak	_i.i2c_slave_callback_if._chan_yield.master_sent_data.maxchanends
.Ltmp326:
	.size	_i.i2c_slave_callback_if._chan_yield.master_sent_data, .Ltmp326-_i.i2c_slave_callback_if._chan_yield.master_sent_data
	.cfi_endproc

	.weak	_i.i2c_slave_callback_if._chan_yield.start_master_write
	.align	4
	.type	_i.i2c_slave_callback_if._chan_yield.start_master_write,@function
	.cc_top _i.i2c_slave_callback_if._chan_yield.start_master_write.function,_i.i2c_slave_callback_if._chan_yield.start_master_write
_i.i2c_slave_callback_if._chan_yield.start_master_write: # @_i.i2c_slave_callback_if._chan_yield.start_master_write
	.cfi_startproc
	.issue_mode dual
# BB#0:                                 # %allocas
	{
		nop
		dualentsp 4
	}
.Ltmp327:
	.cfi_def_cfa_offset 16
.Ltmp328:
	.cfi_offset 15, 0
	std r5, r4, sp[1]               # 4-byte Folded Spill
.Ltmp329:
	.cfi_offset 4, -8
.Ltmp330:
	.cfi_offset 5, -4
	#DEBUG_VALUE: _i.i2c_slave_callback_if._chan_yield.start_master_write:s <- R0
	{
		getr r4, 2
		ldw r1, r0[0]
	}
	{
		setd res[r4], r1
		add r1, r4, 6
	}
	{
		out res[r4], r1
		nop
	}
	{
		outct res[r4], 2
		ldw r5, r0[1]
	}
	{
		mov r0, r4
		mov r1, r5
	}
	bl __interface_wait_and_yield
	{
		ldc r1, 0
		mov r0, r4
	}
	{
		mov r2, r5
		nop
	}
	bl __interface_client_call_y
	{
		chkct res[r4], 1
		nop
	}
	{
		freer res[r4]
		nop
	}
	ldd r5, r4, sp[1]               # 4-byte Folded Reload
	{
		nop
		retsp 4
	}
	# RETURN_REG_HOLDER
	.cc_bottom _i.i2c_slave_callback_if._chan_yield.start_master_write.function
	.set	_i.i2c_slave_callback_if._chan_yield.start_master_write.nstackwords,((($D __interface_wait_and_yield.nstackwords ? __interface_wait_and_yield.nstackwords $: _i.i2c_slave_callback_if._client_call_y.max.nstackwords) $M _i.i2c_slave_callback_if._client_call_y.max.nstackwords $M ($D __interface_client_call_y.nstackwords ? __interface_client_call_y.nstackwords $: _i.i2c_slave_callback_if._client_call_y.max.nstackwords)) + 4)
	.globl	_i.i2c_slave_callback_if._chan_yield.start_master_write.nstackwords
	.weak	_i.i2c_slave_callback_if._chan_yield.start_master_write.nstackwords
	.set	_i.i2c_slave_callback_if._chan_yield.start_master_write.maxcores,($D __interface_client_call_y.maxcores ? __interface_client_call_y.maxcores $: _i.i2c_slave_callback_if._client_call_y.max.maxcores) $M ($D __interface_wait_and_yield.maxcores ? __interface_wait_and_yield.maxcores $: _i.i2c_slave_callback_if._client_call_y.max.maxcores) $M 1
	.globl	_i.i2c_slave_callback_if._chan_yield.start_master_write.maxcores
	.weak	_i.i2c_slave_callback_if._chan_yield.start_master_write.maxcores
	.set	_i.i2c_slave_callback_if._chan_yield.start_master_write.maxtimers,($D __interface_client_call_y.maxtimers ? __interface_client_call_y.maxtimers $: _i.i2c_slave_callback_if._client_call_y.max.maxtimers) $M ($D __interface_wait_and_yield.maxtimers ? __interface_wait_and_yield.maxtimers $: _i.i2c_slave_callback_if._client_call_y.max.maxtimers) $M 0
	.globl	_i.i2c_slave_callback_if._chan_yield.start_master_write.maxtimers
	.weak	_i.i2c_slave_callback_if._chan_yield.start_master_write.maxtimers
	.set	_i.i2c_slave_callback_if._chan_yield.start_master_write.maxchanends,(1 + ($D __interface_client_call_y.maxchanends ? __interface_client_call_y.maxchanends $: _i.i2c_slave_callback_if._client_call_y.max.maxchanends)) $M (1 + ($D __interface_wait_and_yield.maxchanends ? __interface_wait_and_yield.maxchanends $: _i.i2c_slave_callback_if._client_call_y.max.maxchanends)) $M 1
	.globl	_i.i2c_slave_callback_if._chan_yield.start_master_write.maxchanends
	.weak	_i.i2c_slave_callback_if._chan_yield.start_master_write.maxchanends
.Ltmp331:
	.size	_i.i2c_slave_callback_if._chan_yield.start_master_write, .Ltmp331-_i.i2c_slave_callback_if._chan_yield.start_master_write
	.cfi_endproc

	.weak	_i.i2c_slave_callback_if._chan_yield.master_requires_data
	.align	4
	.type	_i.i2c_slave_callback_if._chan_yield.master_requires_data,@function
	.cc_top _i.i2c_slave_callback_if._chan_yield.master_requires_data.function,_i.i2c_slave_callback_if._chan_yield.master_requires_data
_i.i2c_slave_callback_if._chan_yield.master_requires_data: # @_i.i2c_slave_callback_if._chan_yield.master_requires_data
	.cfi_startproc
	.issue_mode dual
# BB#0:                                 # %allocas
	{
		nop
		dualentsp 4
	}
.Ltmp332:
	.cfi_def_cfa_offset 16
.Ltmp333:
	.cfi_offset 15, 0
	std r5, r4, sp[1]               # 4-byte Folded Spill
.Ltmp334:
	.cfi_offset 4, -8
.Ltmp335:
	.cfi_offset 5, -4
	#DEBUG_VALUE: _i.i2c_slave_callback_if._chan_yield.master_requires_data:s <- R0
	{
		getr r4, 2
		ldw r1, r0[0]
	}
	{
		setd res[r4], r1
		add r1, r4, 5
	}
	{
		out res[r4], r1
		nop
	}
	{
		outct res[r4], 2
		ldw r5, r0[1]
	}
	{
		mov r0, r4
		mov r1, r5
	}
	bl __interface_wait_and_yield
	{
		ldc r1, 0
		mov r0, r4
	}
	{
		mov r2, r5
		nop
	}
	bl __interface_client_call_y
	{
		int r0, res[r4]
		nop
	}
	{
		chkct res[r4], 1
		nop
	}
	{
		freer res[r4]
		nop
	}
	ldd r5, r4, sp[1]               # 4-byte Folded Reload
	{
		nop
		retsp 4
	}
	# RETURN_REG_HOLDER
	.cc_bottom _i.i2c_slave_callback_if._chan_yield.master_requires_data.function
	.set	_i.i2c_slave_callback_if._chan_yield.master_requires_data.nstackwords,((($D __interface_wait_and_yield.nstackwords ? __interface_wait_and_yield.nstackwords $: _i.i2c_slave_callback_if._client_call_y.max.nstackwords) $M _i.i2c_slave_callback_if._client_call_y.max.nstackwords $M ($D __interface_client_call_y.nstackwords ? __interface_client_call_y.nstackwords $: _i.i2c_slave_callback_if._client_call_y.max.nstackwords)) + 4)
	.globl	_i.i2c_slave_callback_if._chan_yield.master_requires_data.nstackwords
	.weak	_i.i2c_slave_callback_if._chan_yield.master_requires_data.nstackwords
	.set	_i.i2c_slave_callback_if._chan_yield.master_requires_data.maxcores,($D __interface_client_call_y.maxcores ? __interface_client_call_y.maxcores $: _i.i2c_slave_callback_if._client_call_y.max.maxcores) $M ($D __interface_wait_and_yield.maxcores ? __interface_wait_and_yield.maxcores $: _i.i2c_slave_callback_if._client_call_y.max.maxcores) $M 1
	.globl	_i.i2c_slave_callback_if._chan_yield.master_requires_data.maxcores
	.weak	_i.i2c_slave_callback_if._chan_yield.master_requires_data.maxcores
	.set	_i.i2c_slave_callback_if._chan_yield.master_requires_data.maxtimers,($D __interface_client_call_y.maxtimers ? __interface_client_call_y.maxtimers $: _i.i2c_slave_callback_if._client_call_y.max.maxtimers) $M ($D __interface_wait_and_yield.maxtimers ? __interface_wait_and_yield.maxtimers $: _i.i2c_slave_callback_if._client_call_y.max.maxtimers) $M 0
	.globl	_i.i2c_slave_callback_if._chan_yield.master_requires_data.maxtimers
	.weak	_i.i2c_slave_callback_if._chan_yield.master_requires_data.maxtimers
	.set	_i.i2c_slave_callback_if._chan_yield.master_requires_data.maxchanends,(1 + ($D __interface_client_call_y.maxchanends ? __interface_client_call_y.maxchanends $: _i.i2c_slave_callback_if._client_call_y.max.maxchanends)) $M (1 + ($D __interface_wait_and_yield.maxchanends ? __interface_wait_and_yield.maxchanends $: _i.i2c_slave_callback_if._client_call_y.max.maxchanends)) $M 1
	.globl	_i.i2c_slave_callback_if._chan_yield.master_requires_data.maxchanends
	.weak	_i.i2c_slave_callback_if._chan_yield.master_requires_data.maxchanends
.Ltmp336:
	.size	_i.i2c_slave_callback_if._chan_yield.master_requires_data, .Ltmp336-_i.i2c_slave_callback_if._chan_yield.master_requires_data
	.cfi_endproc

	.weak	_i.i2c_slave_callback_if._chan_yield.start_master_read
	.align	4
	.type	_i.i2c_slave_callback_if._chan_yield.start_master_read,@function
	.cc_top _i.i2c_slave_callback_if._chan_yield.start_master_read.function,_i.i2c_slave_callback_if._chan_yield.start_master_read
_i.i2c_slave_callback_if._chan_yield.start_master_read: # @_i.i2c_slave_callback_if._chan_yield.start_master_read
	.cfi_startproc
	.issue_mode dual
# BB#0:                                 # %allocas
	{
		nop
		dualentsp 4
	}
.Ltmp337:
	.cfi_def_cfa_offset 16
.Ltmp338:
	.cfi_offset 15, 0
	std r5, r4, sp[1]               # 4-byte Folded Spill
.Ltmp339:
	.cfi_offset 4, -8
.Ltmp340:
	.cfi_offset 5, -4
	#DEBUG_VALUE: _i.i2c_slave_callback_if._chan_yield.start_master_read:s <- R0
	{
		getr r4, 2
		ldw r1, r0[0]
	}
	{
		setd res[r4], r1
		add r1, r4, 4
	}
	{
		out res[r4], r1
		nop
	}
	{
		outct res[r4], 2
		ldw r5, r0[1]
	}
	{
		mov r0, r4
		mov r1, r5
	}
	bl __interface_wait_and_yield
	{
		ldc r1, 0
		mov r0, r4
	}
	{
		mov r2, r5
		nop
	}
	bl __interface_client_call_y
	{
		chkct res[r4], 1
		nop
	}
	{
		freer res[r4]
		nop
	}
	ldd r5, r4, sp[1]               # 4-byte Folded Reload
	{
		nop
		retsp 4
	}
	# RETURN_REG_HOLDER
	.cc_bottom _i.i2c_slave_callback_if._chan_yield.start_master_read.function
	.set	_i.i2c_slave_callback_if._chan_yield.start_master_read.nstackwords,((($D __interface_wait_and_yield.nstackwords ? __interface_wait_and_yield.nstackwords $: _i.i2c_slave_callback_if._client_call_y.max.nstackwords) $M _i.i2c_slave_callback_if._client_call_y.max.nstackwords $M ($D __interface_client_call_y.nstackwords ? __interface_client_call_y.nstackwords $: _i.i2c_slave_callback_if._client_call_y.max.nstackwords)) + 4)
	.globl	_i.i2c_slave_callback_if._chan_yield.start_master_read.nstackwords
	.weak	_i.i2c_slave_callback_if._chan_yield.start_master_read.nstackwords
	.set	_i.i2c_slave_callback_if._chan_yield.start_master_read.maxcores,($D __interface_client_call_y.maxcores ? __interface_client_call_y.maxcores $: _i.i2c_slave_callback_if._client_call_y.max.maxcores) $M ($D __interface_wait_and_yield.maxcores ? __interface_wait_and_yield.maxcores $: _i.i2c_slave_callback_if._client_call_y.max.maxcores) $M 1
	.globl	_i.i2c_slave_callback_if._chan_yield.start_master_read.maxcores
	.weak	_i.i2c_slave_callback_if._chan_yield.start_master_read.maxcores
	.set	_i.i2c_slave_callback_if._chan_yield.start_master_read.maxtimers,($D __interface_client_call_y.maxtimers ? __interface_client_call_y.maxtimers $: _i.i2c_slave_callback_if._client_call_y.max.maxtimers) $M ($D __interface_wait_and_yield.maxtimers ? __interface_wait_and_yield.maxtimers $: _i.i2c_slave_callback_if._client_call_y.max.maxtimers) $M 0
	.globl	_i.i2c_slave_callback_if._chan_yield.start_master_read.maxtimers
	.weak	_i.i2c_slave_callback_if._chan_yield.start_master_read.maxtimers
