	.text
	.file	"C:/Users/user/workspace/lib_device_control/src/control.xc"
                                        # Start of file scope inline assembly
	.inline_definition _safe_memcmp
	.inline_definition _safe_memmove
	.inline_definition _safe_memset
	.weak _i.control.register_resources.maxchanends.group
	.max_reduce _i.control.register_resources.max.maxchanends, _i.control.register_resources.maxchanends.group, 0
	.weak _i.control.register_resources.maxcores.group
	.max_reduce _i.control.register_resources.max.maxcores, _i.control.register_resources.maxcores.group, 0
	.weak _i.control.register_resources.maxtimers.group
	.max_reduce _i.control.register_resources.max.maxtimers, _i.control.register_resources.maxtimers.group, 0
	.weak _i.control.register_resources.nstackwords.group
	.globl _i.control.register_resources.nstackwords.group
	.weak _i.control.register_resources.fns.group
	.globl _i.control.register_resources.fns.group
	.max_reduce _i.control.register_resources.max.nstackwords, _i.control.register_resources.nstackwords.group, 0
	.max_reduce _i.control.register_resources.fns, _i.control.register_resources.fns.group, 0
	.weak _i.control.write_command.maxchanends.group
	.max_reduce _i.control.write_command.max.maxchanends, _i.control.write_command.maxchanends.group, 0
	.weak _i.control.write_command.maxcores.group
	.max_reduce _i.control.write_command.max.maxcores, _i.control.write_command.maxcores.group, 0
	.weak _i.control.write_command.maxtimers.group
	.max_reduce _i.control.write_command.max.maxtimers, _i.control.write_command.maxtimers.group, 0
	.weak _i.control.write_command.nstackwords.group
	.globl _i.control.write_command.nstackwords.group
	.weak _i.control.write_command.fns.group
	.globl _i.control.write_command.fns.group
	.max_reduce _i.control.write_command.max.nstackwords, _i.control.write_command.nstackwords.group, 0
	.max_reduce _i.control.write_command.fns, _i.control.write_command.fns.group, 0
	.weak _i.control.read_command.maxchanends.group
	.max_reduce _i.control.read_command.max.maxchanends, _i.control.read_command.maxchanends.group, 0
	.weak _i.control.read_command.maxcores.group
	.max_reduce _i.control.read_command.max.maxcores, _i.control.read_command.maxcores.group, 0
	.weak _i.control.read_command.maxtimers.group
	.max_reduce _i.control.read_command.max.maxtimers, _i.control.read_command.maxtimers.group, 0
	.weak _i.control.read_command.nstackwords.group
	.globl _i.control.read_command.nstackwords.group
	.weak _i.control.read_command.fns.group
	.globl _i.control.read_command.fns.group
	.max_reduce _i.control.read_command.max.nstackwords, _i.control.read_command.nstackwords.group, 0
	.max_reduce _i.control.read_command.fns, _i.control.read_command.fns.group, 0
	.weak _i.control.__interface_init.maxchanends.group
	.max_reduce _i.control.__interface_init.max.maxchanends, _i.control.__interface_init.maxchanends.group, 0
	.weak _i.control.__interface_init.maxcores.group
	.max_reduce _i.control.__interface_init.max.maxcores, _i.control.__interface_init.maxcores.group, 0
	.weak _i.control.__interface_init.maxtimers.group
	.max_reduce _i.control.__interface_init.max.maxtimers, _i.control.__interface_init.maxtimers.group, 0
	.weak _i.control.__interface_init.nstackwords.group
	.globl _i.control.__interface_init.nstackwords.group
	.weak _i.control.__interface_init.fns.group
	.globl _i.control.__interface_init.fns.group
	.max_reduce _i.control.__interface_init.max.nstackwords, _i.control.__interface_init.nstackwords.group, 0
	.max_reduce _i.control.__interface_init.fns, _i.control.__interface_init.fns.group, 0
	.weak _i.control._client_call_y.maxchanends.group
	.add_to_set _i.control._client_call_y.maxchanends.group, (__interface_client_call_y_other.maxchanends + __interface_client_call_y_extra.maxchanends), __interface_client_call_y_other
	.max_reduce _i.control._client_call_y.max.maxchanends, _i.control._client_call_y.maxchanends.group, 0
	.weak _i.control._client_call_y.maxcores.group
	.add_to_set _i.control._client_call_y.maxcores.group, (__interface_client_call_y_other.maxcores + __interface_client_call_y_extra.maxcores), __interface_client_call_y_other
	.max_reduce _i.control._client_call_y.max.maxcores, _i.control._client_call_y.maxcores.group, 0
	.weak _i.control._client_call_y.maxtimers.group
	.add_to_set _i.control._client_call_y.maxtimers.group, (__interface_client_call_y_other.maxtimers + __interface_client_call_y_extra.maxtimers), __interface_client_call_y_other
	.max_reduce _i.control._client_call_y.max.maxtimers, _i.control._client_call_y.maxtimers.group, 0
	.weak _i.control._client_call_y.nstackwords.group
	.globl _i.control._client_call_y.nstackwords.group
	.weak _i.control._client_call_y.fns.group
	.globl _i.control._client_call_y.fns.group
	.add_to_set _i.control._client_call_y.nstackwords.group, (__interface_client_call_y_other.nstackwords + __interface_client_call_y_extra.nstackwords), __interface_client_call_y_other
	.add_to_set _i.control._client_call_y.fns.group, __interface_client_call_y_other, __interface_client_call_y_other
	.max_reduce _i.control._client_call_y.max.nstackwords, _i.control._client_call_y.nstackwords.group, 0
	.max_reduce _i.control._client_call_y.fns, _i.control._client_call_y.fns.group, 0
	.set usage.anon.0,0
	.set usage.anon.1,0
	.set usage.anon.2,0
	.set usage.anon.3,0
	.set usage.anon.4,0
	.set usage.anon.5,0
	.set usage.anon.6,0
	.set usage.anon.7,0
	.globread control_process_spi_master_requires_data,usage.anon.7,8,4,"C:/Users/user/workspace/lib_device_control/src/control.xc:499:39: note: object used here (bytes 8..12)\n                         spi.payload, spi.payload_len_from_header);\n                                      ^~~~~~~~~~~~~~~~~~~~~~~~~~~"
	.globread control_process_spi_master_requires_data,usage.anon.7,6,1,"C:/Users/user/workspace/lib_device_control/src/control.xc:498:33: note: object used here (bytes 6..7)\n      ret = read_command(i_ctl, spi.ifnum, spi.resid, spi.cmd, \n                                ^~~~~~~~~"
	.globread control_process_spi_master_requires_data,usage.anon.7,5,1,"C:/Users/user/workspace/lib_device_control/src/control.xc:498:55: note: object used here (bytes 5..6)\n      ret = read_command(i_ctl, spi.ifnum, spi.resid, spi.cmd, \n                                                      ^~~~~~~"
	.globread control_process_spi_master_requires_data,usage.anon.7,4,1,"C:/Users/user/workspace/lib_device_control/src/control.xc:498:44: note: object used here (bytes 4..5)\n      ret = read_command(i_ctl, spi.ifnum, spi.resid, spi.cmd, \n                                           ^~~~~~~~~"
	.globread control_process_spi_master_ends_transaction,usage.anon.7,16,253,"C:/Users/user/workspace/lib_device_control/src/control.xc:462:29: note: object used here (bytes 16..269)\n                            spi.payload, spi.payload_len_transmitted);\n                            ^~~~~~~~~~~"
	.globread control_process_spi_master_ends_transaction,usage.anon.7,12,4,"C:/Users/user/workspace/lib_device_control/src/control.xc:455:10: note: object used here (bytes 12..16)\n      if(spi.payload_len_transmitted < spi.payload_len_from_header) {\n         ^~~~~~~~~~~~~~~~~~~~~~~~~~~"
	.globread control_process_spi_master_ends_transaction,usage.anon.7,8,4,"C:/Users/user/workspace/lib_device_control/src/control.xc:455:40: note: object used here (bytes 8..12)\n      if(spi.payload_len_transmitted < spi.payload_len_from_header) {\n                                       ^~~~~~~~~~~~~~~~~~~~~~~~~~~"
	.globread control_process_spi_master_ends_transaction,usage.anon.7,6,1,"C:/Users/user/workspace/lib_device_control/src/control.xc:461:36: note: object used here (bytes 6..7)\n        ret = write_command(i_ctl, spi.ifnum, spi.resid, spi.cmd, \n                                   ^~~~~~~~~"
	.globread control_process_spi_master_ends_transaction,usage.anon.7,5,1,"C:/Users/user/workspace/lib_device_control/src/control.xc:461:58: note: object used here (bytes 5..6)\n        ret = write_command(i_ctl, spi.ifnum, spi.resid, spi.cmd, \n                                                         ^~~~~~~"
	.globread control_process_spi_master_ends_transaction,usage.anon.7,4,1,"C:/Users/user/workspace/lib_device_control/src/control.xc:461:47: note: object used here (bytes 4..5)\n        ret = write_command(i_ctl, spi.ifnum, spi.resid, spi.cmd, \n                                              ^~~~~~~~~"
	.globread control_process_spi_master_ends_transaction,usage.anon.7,0,4,"C:/Users/user/workspace/lib_device_control/src/control.xc:453:10: note: object used here (bytes 0..4)\n  switch(spi.state) {\n         ^~~~~~~~~"
	.globread control_process_i2c_stop,usage.anon.6,12,4,"C:/Users/user/workspace/lib_device_control/src/control.xc:288:9: note: object used here (bytes 12..16)\n    if (i2c.payload_len_transmitted < i2c.payload_len_from_header) {\n        ^~~~~~~~~~~~~~~~~~~~~~~~~~~"
	.globread control_process_i2c_stop,usage.anon.6,8,4,"C:/Users/user/workspace/lib_device_control/src/control.xc:279:9: note: object used here (bytes 8..12)\n    if (i2c.payload_len_from_header != 0) {\n        ^~~~~~~~~~~~~~~~~~~~~~~~~~~"
	.globread control_process_i2c_read_data,usage.anon.6,16,1,"C:/Users/user/workspace/lib_device_control/src/control.xc:248:12: note: object used here (bytes 16..17)\n    data = i2c.payload[0];\n           ^~~~~~~~~~~~~~"
	.globread control_process_i2c_read_data,usage.anon.6,16,253,"C:/Users/user/workspace/lib_device_control/src/control.xc:261:12: note: object used here (bytes 16..269)\n    data = i2c.payload[i2c.payload_len_transmitted];\n           ^~~~~~~~~~~~~~~~~~~~~~~~~~~~~~~~~~~~~~~~"
	.globread control_process_i2c_read_data,usage.anon.6,8,4,"C:/Users/user/workspace/lib_device_control/src/control.xc:254:40: note: object used here (bytes 8..12)\n    if (i2c.payload_len_transmitted == i2c.payload_len_from_header) {\n                                       ^~~~~~~~~~~~~~~~~~~~~~~~~~~"
	.globread control_process_i2c_read_start,usage.anon.6,8,4,"C:/Users/user/workspace/lib_device_control/src/control.xc:225:22: note: object used here (bytes 8..12)\n        i2c.payload, i2c.payload_len_from_header);\n                     ^~~~~~~~~~~~~~~~~~~~~~~~~~~"
	.globread control_process_i2c_read_start,usage.anon.6,6,1,"C:/Users/user/workspace/lib_device_control/src/control.xc:224:29: note: object used here (bytes 6..7)\n      ret = read_command(i, i2c.ifnum, i2c.resid, i2c.cmd,\n                            ^~~~~~~~~"
	.globread control_process_i2c_read_start,usage.anon.6,5,1,"C:/Users/user/workspace/lib_device_control/src/control.xc:221:9: note: object used here (bytes 5..6)\n    if (IS_CONTROL_CMD_READ(i2c.cmd)) {\n        ^~~~~~~~~~~~~~~~~~~~~~~~~~~~\nC:/Users/user/workspace/lib_device_control/src/control_transport.h:7:33: note: expanded from macro \'IS_CONTROL_CMD_READ\'\n#define IS_CONTROL_CMD_READ(c) ((c) & 0x80)\n                                ^~~"
	.globread control_process_i2c_read_start,usage.anon.6,4,1,"C:/Users/user/workspace/lib_device_control/src/control.xc:224:40: note: object used here (bytes 4..5)\n      ret = read_command(i, i2c.ifnum, i2c.resid, i2c.cmd,\n                                       ^~~~~~~~~"
	.globwrite control_process_spi_master_supplied_data,usage.anon.7,16,253,"C:/Users/user/workspace/lib_device_control/src/control.xc:573:9: note: object used here (bytes 16..269)\n        spi.payload[spi.payload_len_transmitted] = datum;\n        ^~~~~~~~~~~~~~~~~~~~~~~~~~~~~~~~~~~~~~~~"
	.globwrite control_process_spi_master_supplied_data,usage.anon.7,12,4,"C:/Users/user/workspace/lib_device_control/src/control.xc:578:9: note: object used here (bytes 12..16)\n      ++spi.payload_len_transmitted;\n        ^~~~~~~~~~~~~~~~~~~~~~~~~~~"
	.globwrite control_process_spi_master_supplied_data,usage.anon.7,8,4,"C:/Users/user/workspace/lib_device_control/src/control.xc:561:7: note: object used here (bytes 8..12)\n      spi.payload_len_from_header = datum;\n      ^~~~~~~~~~~~~~~~~~~~~~~~~~~"
	.globwrite control_process_spi_master_supplied_data,usage.anon.7,6,1,"C:/Users/user/workspace/lib_device_control/src/control.xc:546:9: note: object used here (bytes 6..7)\n        spi.ifnum = ifnum;\n        ^~~~~~~~~"
	.globwrite control_process_spi_master_supplied_data,usage.anon.7,5,1,"C:/Users/user/workspace/lib_device_control/src/control.xc:552:7: note: object used here (bytes 5..6)\n      spi.cmd = datum & 0x7F; // 0111 1111\n      ^~~~~~~"
	.globwrite control_process_spi_master_supplied_data,usage.anon.7,4,1,"C:/Users/user/workspace/lib_device_control/src/control.xc:545:9: note: object used here (bytes 4..5)\n        spi.resid = datum;\n        ^~~~~~~~~"
	.globwrite control_process_spi_master_supplied_data,usage.anon.7,0,4,"C:/Users/user/workspace/lib_device_control/src/control.xc:542:9: note: object used here (bytes 0..4)\n        spi.state = SPI_ERROR;\n        ^~~~~~~~~"
	.globwrite control_process_spi_master_supplied_data,usage.anon.7,"C:/Users/user/workspace/lib_device_control/src/control.xc:534:12: note: object used here\n    memset(&spi, 0, sizeof(spi));\n           ^~~~\nC:\\Program Files (x86)\\XMOS\\xTIMEcomposer\\Community_14.3.3\\target/include/xc\\string.h:16:46: note: expanded from macro \'memset\'\n#define memset(s, c, n) _safe_memset((char *)s, c, n)\n                                             ^"
	.globwrite control_process_spi_master_supplied_data,usage.anon.7,0,4,"C:/Users/user/workspace/lib_device_control/src/control.xc:542:9: note: object used here (bytes 0..4)\n        spi.state = SPI_ERROR;\n        ^~~~~~~~~"
	.globwrite control_process_spi_master_requires_data,usage.anon.7,16,253,"C:/Users/user/workspace/lib_device_control/src/control.xc:499:26: note: object used here (bytes 16..269)\n                         spi.payload, spi.payload_len_from_header);\n                         ^~~~~~~~~~~"
	.globwrite control_process_spi_master_requires_data,usage.anon.7,12,4,"C:/Users/user/workspace/lib_device_control/src/control.xc:507:11: note: object used here (bytes 12..16)\n        ++spi.payload_len_transmitted;\n          ^~~~~~~~~~~~~~~~~~~~~~~~~~~"
	.globwrite control_process_spi_master_requires_data,usage.anon.7,0,4,"C:/Users/user/workspace/lib_device_control/src/control.xc:500:7: note: object used here (bytes 0..4)\n      spi.state = SPI_READ_DATA_WAIT;\n      ^~~~~~~~~"
	.globwrite control_process_spi_master_ends_transaction,usage.anon.7,"C:/Users/user/workspace/lib_device_control/src/control.xc:484:12: note: object used here\n    memset(&spi, 0, sizeof(spi));\n           ^~~~\nC:\\Program Files (x86)\\XMOS\\xTIMEcomposer\\Community_14.3.3\\target/include/xc\\string.h:16:46: note: expanded from macro \'memset\'\n#define memset(s, c, n) _safe_memset((char *)s, c, n)\n                                             ^"
	.globwrite control_process_spi_master_ends_transaction,usage.anon.7,0,4,"C:/Users/user/workspace/lib_device_control/src/control.xc:478:7: note: object used here (bytes 0..4)\n      spi.state = SPI_READ_DATA;\n      ^~~~~~~~~"
	.globwrite control_process_i2c_stop,usage.anon.6,0,4,"C:/Users/user/workspace/lib_device_control/src/control.xc:312:5: note: object used here (bytes 0..4)\n    i2c.state = I2C_IDLE;\n    ^~~~~~~~~"
	.globwrite control_process_i2c_read_data,usage.anon.6,12,4,"C:/Users/user/workspace/lib_device_control/src/control.xc:249:5: note: object used here (bytes 12..16)\n    i2c.payload_len_transmitted = 1;\n    ^~~~~~~~~~~~~~~~~~~~~~~~~~~"
	.globwrite control_process_i2c_read_data,usage.anon.6,0,4,"C:/Users/user/workspace/lib_device_control/src/control.xc:250:5: note: object used here (bytes 0..4)\n    i2c.state = I2C_READ_DATA;\n    ^~~~~~~~~"
	.globwrite control_process_i2c_read_start,usage.anon.6,16,253,"C:/Users/user/workspace/lib_device_control/src/control.xc:225:9: note: object used here (bytes 16..269)\n        i2c.payload, i2c.payload_len_from_header);\n        ^~~~~~~~~~~"
	.globwrite control_process_i2c_read_start,usage.anon.6,12,4,"C:/Users/user/workspace/lib_device_control/src/control.xc:228:9: note: object used here (bytes 12..16)\n        i2c.payload_len_transmitted = 0;\n        ^~~~~~~~~~~~~~~~~~~~~~~~~~~"
	.globwrite control_process_i2c_read_start,usage.anon.6,0,4,"C:/Users/user/workspace/lib_device_control/src/control.xc:217:5: note: object used here (bytes 0..4)\n    i2c.state = I2C_ERROR;\n    ^~~~~~~~~"
	.globwrite control_process_i2c_write_data,usage.anon.6,16,253,"C:/Users/user/workspace/lib_device_control/src/control.xc:190:7: note: object used here (bytes 16..269)\n      i2c.payload[i2c.payload_len_transmitted] = data;\n      ^~~~~~~~~~~~~~~~~~~~~~~~~~~~~~~~~~~~~~~~"
	.globwrite control_process_i2c_write_data,usage.anon.6,16,1,"C:/Users/user/workspace/lib_device_control/src/control.xc:170:7: note: object used here (bytes 16..17)\n      i2c.payload[0] = data;\n      ^~~~~~~~~~~~~~"
	.globwrite control_process_i2c_write_data,usage.anon.6,16,253,"C:/Users/user/workspace/lib_device_control/src/control.xc:190:7: note: object used here (bytes 16..269)\n      i2c.payload[i2c.payload_len_transmitted] = data;\n      ^~~~~~~~~~~~~~~~~~~~~~~~~~~~~~~~~~~~~~~~"
	.globwrite control_process_i2c_write_data,usage.anon.6,12,4,"C:/Users/user/workspace/lib_device_control/src/control.xc:152:7: note: object used here (bytes 12..16)\n      i2c.payload_len_transmitted = 0;\n      ^~~~~~~~~~~~~~~~~~~~~~~~~~~"
	.globwrite control_process_i2c_write_data,usage.anon.6,8,4,"C:/Users/user/workspace/lib_device_control/src/control.xc:151:7: note: object used here (bytes 8..12)\n      i2c.payload_len_from_header = data;\n      ^~~~~~~~~~~~~~~~~~~~~~~~~~~"
	.globwrite control_process_i2c_write_data,usage.anon.6,6,1,"C:/Users/user/workspace/lib_device_control/src/control.xc:134:7: note: object used here (bytes 6..7)\n      i2c.ifnum = ifnum;\n      ^~~~~~~~~"
	.globwrite control_process_i2c_write_data,usage.anon.6,5,1,"C:/Users/user/workspace/lib_device_control/src/control.xc:140:5: note: object used here (bytes 5..6)\n    i2c.cmd = data;\n    ^~~~~~~"
	.globwrite control_process_i2c_write_data,usage.anon.6,4,1,"C:/Users/user/workspace/lib_device_control/src/control.xc:133:7: note: object used here (bytes 4..5)\n      i2c.resid = data;\n      ^~~~~~~~~"
	.globwrite control_process_i2c_write_data,usage.anon.6,0,4,"C:/Users/user/workspace/lib_device_control/src/control.xc:129:7: note: object used here (bytes 0..4)\n      i2c.state = I2C_ERROR;\n      ^~~~~~~~~"
	.globwrite control_process_i2c_write_start,usage.anon.6,0,4,"C:/Users/user/workspace/lib_device_control/src/control.xc:117:3: note: object used here (bytes 0..4)\n  i2c.state = I2C_WRITE_START;\n  ^~~~~~~~~"
	.call control_process_spi_master_supplied_data,usage.anon.2
	.call control_process_spi_master_supplied_data,resource_table_search
	.call control_process_spi_master_requires_data,usage.anon.5
	.call control_process_spi_master_ends_transaction,usage.anon.4
	.call control_process_spi_master_ends_transaction,usage.anon.2
	.call control_process_xscope_upload,usage.anon.5
	.call control_process_xscope_upload,usage.anon.4
	.call control_process_xscope_upload,resource_table_search
	.call control_process_usb_get_request,usage.anon.5
	.call control_process_usb_get_request,resource_table_search
	.call control_process_usb_set_request,usage.anon.4
	.call control_process_usb_set_request,resource_table_search
	.call control_process_i2c_read_start,usage.anon.5
	.call control_process_i2c_write_data,usage.anon.4
	.call control_process_i2c_write_data,resource_table_search
	.call usage.anon.5,usage.anon.3
	.call control_register_resources,resource_table_add
	.call control_init,resource_table_init
	.call usage.anon.2,memset
	.call usage.anon.1,memmove
	.call usage.anon.0,memcmp
	.set control_register_resources.locnoside, 0
	.set usage.anon.3.locnoside, 0
	.set usage.anon.4.locnoside, 0
	.set usage.anon.5.locnoside, 0
	.set control_process_i2c_write_start.locnoside, 0
	.set control_process_i2c_write_data.locnoside, 0
	.set control_process_i2c_read_start.locnoside, 0
	.set control_process_i2c_read_data.locnoside, 0
	.set control_process_i2c_stop.locnoside, 0
	.set control_process_usb_get_request.locnoside, 0
	.set control_process_xscope_upload.locnoside, 0
	.set control_process_spi_master_ends_transaction.locnoside, 0
	.set control_process_spi_master_requires_data.locnoside, 0
	.set control_process_spi_master_supplied_data.locnoside, 0
	.set control_process_i2c_write_start.locnoglobalaccess, 0
	.set control_process_i2c_write_data.locnoglobalaccess, 0
	.set control_process_i2c_read_start.locnoglobalaccess, 0
	.set control_process_i2c_read_data.locnoglobalaccess, 0
	.set control_process_i2c_stop.locnoglobalaccess, 0
	.set control_process_spi_master_ends_transaction.locnoglobalaccess, 0
	.set control_process_spi_master_requires_data.locnoglobalaccess, 0
	.set control_process_spi_master_supplied_data.locnoglobalaccess, 0
	.set control_register_resources.locnointerfaceaccess, 0
	.set usage.anon.4.locnointerfaceaccess, 0
	.set usage.anon.5.locnointerfaceaccess, 0
	.assert 1,memset.actnoglobalaccess,"In file included from C:/Users/user/workspace/lib_device_control/src/control.xc:8:\nIn file included from C:\\Program Files (x86)\\XMOS\\xTIMEcomposer\\Community_14.3.3\\target/include/xc\\string.h:5:\nC:\\Program Files (x86)\\XMOS\\xTIMEcomposer\\Community_14.3.3\\target/include/xc\\safe/string.h:21:3: error: passing non-local alias to function `memset\' which accesses a global variable\n  memset(s, c, n);\n  ^~~~~~~~~~~~~~~"
	.assert 1,memmove.actnoglobalaccess,"In file included from C:/Users/user/workspace/lib_device_control/src/control.xc:8:\nIn file included from C:\\Program Files (x86)\\XMOS\\xTIMEcomposer\\Community_14.3.3\\target/include/xc\\string.h:5:\nC:\\Program Files (x86)\\XMOS\\xTIMEcomposer\\Community_14.3.3\\target/include/xc\\safe/string.h:15:3: error: passing non-local alias to function `memmove\' which accesses a global variable\n  memmove(s1, s2, n);\n  ^~~~~~~~~~~~~~~~~~"
	.globpassesref usage.anon.5, usage.anon.7,"C:/Users/user/workspace/lib_device_control/src/control.xc:498:13: error: call to `read_command\' in `control_process_spi_master_requires_data\' makes alias of global \'spi\'\n      ret = read_command(i_ctl, spi.ifnum, spi.resid, spi.cmd, \n            ^~~~~~~~~~~~~~~~~~~~~~~~~~~~~~~~~~~~~~~~~~~~~~~~~~"
	.globpassesref usage.anon.4, usage.anon.7,"C:/Users/user/workspace/lib_device_control/src/control.xc:461:15: error: call to `write_command\' in `control_process_spi_master_ends_transaction\' makes alias of global \'spi\'\n        ret = write_command(i_ctl, spi.ifnum, spi.resid, spi.cmd, \n              ^~~~~~~~~~~~~~~~~~~~~~~~~~~~~~~~~~~~~~~~~~~~~~~~~~~"
	.globpassesref usage.anon.5, usage.anon.6,"C:/Users/user/workspace/lib_device_control/src/control.xc:224:13: error: call to `read_command\' in `control_process_i2c_read_start\' makes alias of global \'i2c\'\n      ret = read_command(i, i2c.ifnum, i2c.resid, i2c.cmd,\n            ^~~~~~~~~~~~~~~~~~~~~~~~~~~~~~~~~~~~~~~~~~~~~~"
	.globpassesref usage.anon.4, usage.anon.6,"C:/Users/user/workspace/lib_device_control/src/control.xc:193:16: error: call to `write_command\' in `control_process_i2c_write_data\' makes alias of global \'i2c\'\n        return write_command(i, i2c.ifnum, i2c.resid, i2c.cmd,\n               ^~~~~~~~~~~~~~~~~~~~~~~~~~~~~~~~~~~~~~~~~~~~~~~"
	.globpassesref usage.anon.4, usage.anon.6,"C:/Users/user/workspace/lib_device_control/src/control.xc:174:16: error: call to `write_command\' in `control_process_i2c_write_data\' makes alias of global \'i2c\'\n        return write_command(i, i2c.ifnum, i2c.resid, i2c.cmd,\n               ^~~~~~~~~~~~~~~~~~~~~~~~~~~~~~~~~~~~~~~~~~~~~~~"
	.globpassesref usage.anon.4, usage.anon.6,"C:/Users/user/workspace/lib_device_control/src/control.xc:155:16: error: call to `write_command\' in `control_process_i2c_write_data\' makes alias of global \'i2c\'\n        return write_command(i, i2c.ifnum, i2c.resid, i2c.cmd,\n               ^~~~~~~~~~~~~~~~~~~~~~~~~~~~~~~~~~~~~~~~~~~~~~~"

                                        # End of file scope inline assembly
	.text
	.weak	_i.control._chan.read_command
	.align	4
	.type	_i.control._chan.read_command,@function
	.cc_top _i.control._chan.read_command.function,_i.control._chan.read_command
_i.control._chan.read_command:          # @_i.control._chan.read_command
	.cfi_startproc
	.issue_mode dual
# BB#0:                                 # %allocas
	{
		nop
		dualentsp 4
	}
.Ltmp0:
	.cfi_def_cfa_offset 16
.Ltmp1:
	.cfi_offset 15, 0
	{
		nop
		stw r4, sp[2]
	}
.Ltmp2:
	.cfi_offset 4, -8
	#DEBUG_VALUE: _i.control._chan.read_command:dest <- R0
	#DEBUG_VALUE: _i.control._chan.read_command:param1 <- R1
	#DEBUG_VALUE: _i.control._chan.read_command:param2 <- R2
	#DEBUG_VALUE: _i.control._chan.read_command:param3 <- R3
	#DEBUG_VALUE: _i.control._chan.read_command:param4 <- [SP+20]
	{
		getr r4, 2
		ldw r11, sp[5]
	}
	{
		setd res[r4], r0
		add r0, r4, 2
	}
	{
		out res[r4], r0
		nop
	}
	{
		outct res[r4], 2
		nop
	}
	{
		chkct res[r4], 1
		nop
	}
	{
		outt res[r4], r1
		nop
	}
	{
		outt res[r4], r2
		stw r3, sp[1]
	}
	{
		out res[r4], r11
		nop
	}
	{
		outct res[r4], 2
		ldaw r1, sp[1]
	}
	{
		mov r0, r4
		nop
	}
	bl __interface_client_call
	{
		int r0, res[r4]
		nop
	}
	{
		chkct res[r4], 1
		nop
	}
	{
		freer res[r4]
		ldw r4, sp[2]
	}
	{
		nop
		retsp 4
	}
	# RETURN_REG_HOLDER
	.cc_bottom _i.control._chan.read_command.function
	.set	_i.control._chan.read_command.nstackwords,(__interface_client_call.nstackwords + 4)
	.globl	_i.control._chan.read_command.nstackwords
	.weak	_i.control._chan.read_command.nstackwords
	.set	_i.control._chan.read_command.maxcores,__interface_client_call.maxcores $M 1
	.globl	_i.control._chan.read_command.maxcores
	.weak	_i.control._chan.read_command.maxcores
	.set	_i.control._chan.read_command.maxtimers,__interface_client_call.maxtimers $M 0
	.globl	_i.control._chan.read_command.maxtimers
	.weak	_i.control._chan.read_command.maxtimers
	.set	_i.control._chan.read_command.maxchanends,(1 + __interface_client_call.maxchanends) $M 1
	.globl	_i.control._chan.read_command.maxchanends
	.weak	_i.control._chan.read_command.maxchanends
.Ltmp3:
	.size	_i.control._chan.read_command, .Ltmp3-_i.control._chan.read_command
	.cfi_endproc

	.weak	_i.control._chan.write_command
	.align	4
	.type	_i.control._chan.write_command,@function
	.cc_top _i.control._chan.write_command.function,_i.control._chan.write_command
_i.control._chan.write_command:         # @_i.control._chan.write_command
	.cfi_startproc
	.issue_mode dual
# BB#0:                                 # %allocas
	{
		nop
		dualentsp 4
	}
.Ltmp4:
	.cfi_def_cfa_offset 16
.Ltmp5:
	.cfi_offset 15, 0
	{
		nop
		stw r4, sp[2]
	}
.Ltmp6:
	.cfi_offset 4, -8
	#DEBUG_VALUE: _i.control._chan.write_command:dest <- R0
	#DEBUG_VALUE: _i.control._chan.write_command:param1 <- R1
	#DEBUG_VALUE: _i.control._chan.write_command:param2 <- R2
	#DEBUG_VALUE: _i.control._chan.write_command:param3 <- R3
	#DEBUG_VALUE: _i.control._chan.write_command:param4 <- [SP+20]
	{
		getr r4, 2
		ldw r11, sp[5]
	}
	{
		setd res[r4], r0
		add r0, r4, 1
	}
	{
		out res[r4], r0
		nop
	}
	{
		outct res[r4], 2
		nop
	}
	{
		chkct res[r4], 1
		nop
	}
	{
		outt res[r4], r1
		nop
	}
	{
		outt res[r4], r2
		stw r3, sp[1]
	}
	{
		out res[r4], r11
		nop
	}
	{
		outct res[r4], 2
		ldaw r1, sp[1]
	}
	{
		mov r0, r4
		nop
	}
	bl __interface_client_call
	{
		int r0, res[r4]
		nop
	}
	{
		chkct res[r4], 1
		nop
	}
	{
		freer res[r4]
		ldw r4, sp[2]
	}
	{
		nop
		retsp 4
	}
	# RETURN_REG_HOLDER
	.cc_bottom _i.control._chan.write_command.function
	.set	_i.control._chan.write_command.nstackwords,(__interface_client_call.nstackwords + 4)
	.globl	_i.control._chan.write_command.nstackwords
	.weak	_i.control._chan.write_command.nstackwords
	.set	_i.control._chan.write_command.maxcores,__interface_client_call.maxcores $M 1
	.globl	_i.control._chan.write_command.maxcores
	.weak	_i.control._chan.write_command.maxcores
	.set	_i.control._chan.write_command.maxtimers,__interface_client_call.maxtimers $M 0
	.globl	_i.control._chan.write_command.maxtimers
	.weak	_i.control._chan.write_command.maxtimers
	.set	_i.control._chan.write_command.maxchanends,(1 + __interface_client_call.maxchanends) $M 1
	.globl	_i.control._chan.write_command.maxchanends
	.weak	_i.control._chan.write_command.maxchanends
.Ltmp7:
	.size	_i.control._chan.write_command, .Ltmp7-_i.control._chan.write_command
	.cfi_endproc

	.weak	_i.control._chan.register_resources
	.align	4
	.type	_i.control._chan.register_resources,@function
	.cc_top _i.control._chan.register_resources.function,_i.control._chan.register_resources
_i.control._chan.register_resources:    # @_i.control._chan.register_resources
	.cfi_startproc
	.issue_mode dual
# BB#0:                                 # %allocas
	{
		nop
		dualentsp 4
	}
.Ltmp8:
	.cfi_def_cfa_offset 16
.Ltmp9:
	.cfi_offset 15, 0
	std r5, r4, sp[1]               # 4-byte Folded Spill
.Ltmp10:
	.cfi_offset 4, -8
.Ltmp11:
	.cfi_offset 5, -4
	#DEBUG_VALUE: _i.control._chan.register_resources:dest <- R0
	#DEBUG_VALUE: _i.control._chan.register_resources:param1 <- R1
	#DEBUG_VALUE: _i.control._chan.register_resources:param2 <- R2
	#DEBUG_VALUE: _i.control._chan.register_resources:param2 <- R4
	{
		getr r5, 2
		mov r4, r2
	}
	{
		setd res[r5], r0
		nop
	}
	{
		out res[r5], r5
		nop
	}
	{
		outct res[r5], 2
		nop
	}
	{
		chkct res[r5], 1
		stw r1, sp[1]
	}
	{
		nop
		ldw r0, r4[0]
	}
	{
		out res[r5], r0
		nop
	}
	{
		outct res[r5], 2
		ldaw r1, sp[1]
	}
	{
		mov r0, r5
		nop
	}
	bl __interface_client_call
	{
		in r0, res[r5]
		nop
	}
	{
		chkct res[r5], 1
		stw r0, r4[0]
	}
	{
		freer res[r5]
		nop
	}
	ldd r5, r4, sp[1]               # 4-byte Folded Reload
	{
		nop
		retsp 4
	}
	# RETURN_REG_HOLDER
	.cc_bottom _i.control._chan.register_resources.function
	.set	_i.control._chan.register_resources.nstackwords,(__interface_client_call.nstackwords + 4)
	.globl	_i.control._chan.register_resources.nstackwords
	.weak	_i.control._chan.register_resources.nstackwords
	.set	_i.control._chan.register_resources.maxcores,__interface_client_call.maxcores $M 1
	.globl	_i.control._chan.register_resources.maxcores
	.weak	_i.control._chan.register_resources.maxcores
	.set	_i.control._chan.register_resources.maxtimers,__interface_client_call.maxtimers $M 0
	.globl	_i.control._chan.register_resources.maxtimers
	.weak	_i.control._chan.register_resources.maxtimers
	.set	_i.control._chan.register_resources.maxchanends,(1 + __interface_client_call.maxchanends) $M 1
	.globl	_i.control._chan.register_resources.maxchanends
	.weak	_i.control._chan.register_resources.maxchanends
.Ltmp12:
	.size	_i.control._chan.register_resources, .Ltmp12-_i.control._chan.register_resources
	.cfi_endproc

	.weak	_i.control._chan_yield.read_command
	.align	4
	.type	_i.control._chan_yield.read_command,@function
	.cc_top _i.control._chan_yield.read_command.function,_i.control._chan_yield.read_command
_i.control._chan_yield.read_command:    # @_i.control._chan_yield.read_command
	.cfi_startproc
	.issue_mode dual
# BB#0:                                 # %allocas
	{
		nop
		dualentsp 4
	}
.Ltmp13:
	.cfi_def_cfa_offset 16
.Ltmp14:
	.cfi_offset 15, 0
	std r5, r4, sp[1]               # 4-byte Folded Spill
.Ltmp15:
	.cfi_offset 4, -8
.Ltmp16:
	.cfi_offset 5, -4
	#DEBUG_VALUE: _i.control._chan_yield.read_command:s <- R0
	#DEBUG_VALUE: _i.control._chan_yield.read_command:param1 <- R1
	#DEBUG_VALUE: _i.control._chan_yield.read_command:param2 <- R2
	#DEBUG_VALUE: _i.control._chan_yield.read_command:param3 <- R3
	#DEBUG_VALUE: _i.control._chan_yield.read_command:param4 <- [SP+20]
	{
		nop
		ldw r11, sp[5]
	}
	{
		getr r4, 2
		ldw r5, r0[0]
	}
	{
		setd res[r4], r5
		add r5, r4, 2
	}
	{
		out res[r4], r5
		nop
	}
	{
		outct res[r4], 2
		nop
	}
	{
		chkct res[r4], 1
		nop
	}
	{
		outt res[r4], r1
		nop
	}
	{
		outt res[r4], r2
		stw r3, sp[1]
	}
	{
		out res[r4], r11
		nop
	}
	{
		outct res[r4], 2
		ldw r2, r0[1]
	}
	{
		ldaw r1, sp[1]
		mov r0, r4
	}
	bl __interface_client_call_y
	{
		int r0, res[r4]
		nop
	}
	{
		chkct res[r4], 1
		nop
	}
	{
		freer res[r4]
		nop
	}
	ldd r5, r4, sp[1]               # 4-byte Folded Reload
	{
		nop
		retsp 4
	}
	# RETURN_REG_HOLDER
	.cc_bottom _i.control._chan_yield.read_command.function
	.set	_i.control._chan_yield.read_command.nstackwords,((_i.control._client_call_y.max.nstackwords $M ($D __interface_client_call_y.nstackwords ? __interface_client_call_y.nstackwords $: _i.control._client_call_y.max.nstackwords)) + 4)
	.globl	_i.control._chan_yield.read_command.nstackwords
	.weak	_i.control._chan_yield.read_command.nstackwords
	.set	_i.control._chan_yield.read_command.maxcores,($D __interface_client_call_y.maxcores ? __interface_client_call_y.maxcores $: _i.control._client_call_y.max.maxcores) $M 1
	.globl	_i.control._chan_yield.read_command.maxcores
	.weak	_i.control._chan_yield.read_command.maxcores
	.set	_i.control._chan_yield.read_command.maxtimers,($D __interface_client_call_y.maxtimers ? __interface_client_call_y.maxtimers $: _i.control._client_call_y.max.maxtimers) $M 0
	.globl	_i.control._chan_yield.read_command.maxtimers
	.weak	_i.control._chan_yield.read_command.maxtimers
	.set	_i.control._chan_yield.read_command.maxchanends,(1 + ($D __interface_client_call_y.maxchanends ? __interface_client_call_y.maxchanends $: _i.control._client_call_y.max.maxchanends)) $M 1
	.globl	_i.control._chan_yield.read_command.maxchanends
	.weak	_i.control._chan_yield.read_command.maxchanends
.Ltmp17:
	.size	_i.control._chan_yield.read_command, .Ltmp17-_i.control._chan_yield.read_command
	.cfi_endproc

	.weak	_i.control._chan_yield.write_command
	.align	4
	.type	_i.control._chan_yield.write_command,@function
	.cc_top _i.control._chan_yield.write_command.function,_i.control._chan_yield.write_command
_i.control._chan_yield.write_command:   # @_i.control._chan_yield.write_command
	.cfi_startproc
	.issue_mode dual
# BB#0:                                 # %allocas
	{
		nop
		dualentsp 4
	}
.Ltmp18:
	.cfi_def_cfa_offset 16
.Ltmp19:
	.cfi_offset 15, 0
	std r5, r4, sp[1]               # 4-byte Folded Spill
.Ltmp20:
	.cfi_offset 4, -8
.Ltmp21:
	.cfi_offset 5, -4
	#DEBUG_VALUE: _i.control._chan_yield.write_command:s <- R0
	#DEBUG_VALUE: _i.control._chan_yield.write_command:param1 <- R1
	#DEBUG_VALUE: _i.control._chan_yield.write_command:param2 <- R2
	#DEBUG_VALUE: _i.control._chan_yield.write_command:param3 <- R3
	#DEBUG_VALUE: _i.control._chan_yield.write_command:param4 <- [SP+20]
	{
		nop
		ldw r11, sp[5]
	}
	{
		getr r4, 2
		ldw r5, r0[0]
	}
	{
		setd res[r4], r5
		add r5, r4, 1
	}
	{
		out res[r4], r5
		nop
	}
	{
		outct res[r4], 2
		nop
	}
	{
		chkct res[r4], 1
		nop
	}
	{
		outt res[r4], r1
		nop
	}
	{
		outt res[r4], r2
		stw r3, sp[1]
	}
	{
		out res[r4], r11
		nop
	}
	{
		outct res[r4], 2
		ldw r2, r0[1]
	}
	{
		ldaw r1, sp[1]
		mov r0, r4
	}
	bl __interface_client_call_y
	{
		int r0, res[r4]
		nop
	}
	{
		chkct res[r4], 1
		nop
	}
	{
		freer res[r4]
		nop
	}
	ldd r5, r4, sp[1]               # 4-byte Folded Reload
	{
		nop
		retsp 4
	}
	# RETURN_REG_HOLDER
	.cc_bottom _i.control._chan_yield.write_command.function
	.set	_i.control._chan_yield.write_command.nstackwords,((_i.control._client_call_y.max.nstackwords $M ($D __interface_client_call_y.nstackwords ? __interface_client_call_y.nstackwords $: _i.control._client_call_y.max.nstackwords)) + 4)
	.globl	_i.control._chan_yield.write_command.nstackwords
	.weak	_i.control._chan_yield.write_command.nstackwords
	.set	_i.control._chan_yield.write_command.maxcores,($D __interface_client_call_y.maxcores ? __interface_client_call_y.maxcores $: _i.control._client_call_y.max.maxcores) $M 1
	.globl	_i.control._chan_yield.write_command.maxcores
	.weak	_i.control._chan_yield.write_command.maxcores
	.set	_i.control._chan_yield.write_command.maxtimers,($D __interface_client_call_y.maxtimers ? __interface_client_call_y.maxtimers $: _i.control._client_call_y.max.maxtimers) $M 0
	.globl	_i.control._chan_yield.write_command.maxtimers
	.weak	_i.control._chan_yield.write_command.maxtimers
	.set	_i.control._chan_yield.write_command.maxchanends,(1 + ($D __interface_client_call_y.maxchanends ? __interface_client_call_y.maxchanends $: _i.control._client_call_y.max.maxchanends)) $M 1
	.globl	_i.control._chan_yield.write_command.maxchanends
	.weak	_i.control._chan_yield.write_command.maxchanends
.Ltmp22:
	.size	_i.control._chan_yield.write_command, .Ltmp22-_i.control._chan_yield.write_command
	.cfi_endproc

	.weak	_i.control._chan_yield.register_resources
	.align	4
	.type	_i.control._chan_yield.register_resources,@function
	.cc_top _i.control._chan_yield.register_resources.function,_i.control._chan_yield.register_resources
_i.control._chan_yield.register_resources: # @_i.control._chan_yield.register_resources
	.cfi_startproc
	.issue_mode dual
# BB#0:                                 # %allocas
	{
		nop
		dualentsp 4
	}
.Ltmp23:
	.cfi_def_cfa_offset 16
.Ltmp24:
	.cfi_offset 15, 0
	std r5, r4, sp[1]               # 4-byte Folded Spill
.Ltmp25:
	.cfi_offset 4, -8
.Ltmp26:
	.cfi_offset 5, -4
	#DEBUG_VALUE: _i.control._chan_yield.register_resources:s <- R0
	#DEBUG_VALUE: _i.control._chan_yield.register_resources:param1 <- R1
	#DEBUG_VALUE: _i.control._chan_yield.register_resources:param2 <- R2
	#DEBUG_VALUE: _i.control._chan_yield.register_resources:param2 <- R4
	{
		mov r4, r2
		ldw r2, r0[0]
	}
	{
		getr r5, 2
		nop
	}
	{
		setd res[r5], r2
		nop
	}
	{
		out res[r5], r5
		nop
	}
	{
		outct res[r5], 2
		nop
	}
	{
		chkct res[r5], 1
		stw r1, sp[1]
	}
	{
		nop
		ldw r1, r4[0]
	}
	{
		out res[r5], r1
		nop
	}
	{
		outct res[r5], 2
		ldw r2, r0[1]
	}
	{
		ldaw r1, sp[1]
		mov r0, r5
	}
	bl __interface_client_call_y
	{
		in r0, res[r5]
		nop
	}
	{
		chkct res[r5], 1
		stw r0, r4[0]
	}
	{
		freer res[r5]
		nop
	}
	ldd r5, r4, sp[1]               # 4-byte Folded Reload
	{
		nop
		retsp 4
	}
	# RETURN_REG_HOLDER
	.cc_bottom _i.control._chan_yield.register_resources.function
	.set	_i.control._chan_yield.register_resources.nstackwords,((_i.control._client_call_y.max.nstackwords $M ($D __interface_client_call_y.nstackwords ? __interface_client_call_y.nstackwords $: _i.control._client_call_y.max.nstackwords)) + 4)
	.globl	_i.control._chan_yield.register_resources.nstackwords
	.weak	_i.control._chan_yield.register_resources.nstackwords
	.set	_i.control._chan_yield.register_resources.maxcores,($D __interface_client_call_y.maxcores ? __interface_client_call_y.maxcores $: _i.control._client_call_y.max.maxcores) $M 1
	.globl	_i.control._chan_yield.register_resources.maxcores
	.weak	_i.control._chan_yield.register_resources.maxcores
	.set	_i.control._chan_yield.register_resources.maxtimers,($D __interface_client_call_y.maxtimers ? __interface_client_call_y.maxtimers $: _i.control._client_call_y.max.maxtimers) $M 0
	.globl	_i.control._chan_yield.register_resources.maxtimers
	.weak	_i.control._chan_yield.register_resources.maxtimers
	.set	_i.control._chan_yield.register_resources.maxchanends,(1 + ($D __interface_client_call_y.maxchanends ? __interface_client_call_y.maxchanends $: _i.control._client_call_y.max.maxchanends)) $M 1
	.globl	_i.control._chan_yield.register_resources.maxchanends
	.weak	_i.control._chan_yield.register_resources.maxchanends
.Ltmp27:
	.size	_i.control._chan_yield.register_resources, .Ltmp27-_i.control._chan_yield.register_resources
	.cfi_endproc

	.globl	control_init
	.align	4
	.type	control_init,@function
	.cc_top control_init.function,control_init
control_init:                           # @control_init
.Lfunc_begin6:
	.loc	1 14 0                  # C:/Users/user/workspace/lib_device_control/src/control.xc:14:0
	.cfi_startproc
	.issue_mode dual
# BB#0:                                 # %allocas
.Lxtalabel0:
	{
		nop
		dualentsp 2
	}
.Ltmp28:
	.cfi_def_cfa_offset 8
.Ltmp29:
	.cfi_offset 15, 0
	.loc	1 15 0 prologue_end     # C:/Users/user/workspace/lib_device_control/src/control.xc:15:0
.Ltmp30:
.Lxta.call_labels0:
	bl _Sresource_table_init_0
	{
		ldc r0, 0
		retsp 2
	}
	# RETURN_REG_HOLDER
.Ltmp31:
	.cc_bottom control_init.function
	.set	control_init.nstackwords,(_Sresource_table_init_0.nstackwords + 2)
	.globl	control_init.nstackwords
	.set	control_init.maxcores,_Sresource_table_init_0.maxcores $M 1
	.globl	control_init.maxcores
	.set	control_init.maxtimers,_Sresource_table_init_0.maxtimers $M 0
	.globl	control_init.maxtimers
	.set	control_init.maxchanends,_Sresource_table_init_0.maxchanends $M 0
	.globl	control_init.maxchanends
.Ltmp32:
	.size	control_init, .Ltmp32-control_init
.Lfunc_end6:
	.cfi_endproc

	.globl	control_register_resources
	.align	4
	.type	control_register_resources,@function
	.cc_top control_register_resources.function,control_register_resources
control_register_resources:             # @control_register_resources
.Lfunc_begin7:
	.loc	1 20 0                  # C:/Users/user/workspace/lib_device_control/src/control.xc:20:0
	.cfi_startproc
	.issue_mode dual
# BB#0:                                 # %allocas
.Lxtalabel1:
	{
		nop
		dualentsp 24
	}
.Ltmp33:
	.cfi_def_cfa_offset 96
.Ltmp34:
	.cfi_offset 15, 0
	std r5, r4, sp[9]               # 4-byte Folded Spill
.Ltmp35:
	.cfi_offset 4, -24
.Ltmp36:
	.cfi_offset 5, -20
	std r7, r6, sp[10]              # 4-byte Folded Spill
.Ltmp37:
	.cfi_offset 6, -16
.Ltmp38:
	.cfi_offset 7, -12
	std r9, r8, sp[11]              # 4-byte Folded Spill
.Ltmp39:
	.cfi_offset 8, -8
.Ltmp40:
	.cfi_offset 9, -4
	#DEBUG_VALUE: control_register_resources:i <- R0
	#DEBUG_VALUE: control_register_resources:n <- R1
.Ltmp41:
	#DEBUG_VALUE: control_register_resources:n <- R5
	#DEBUG_VALUE: j <- 0
	#DEBUG_VALUE: ret <- 0
	#DEBUG_VALUE: control_register_resources:i <- R6
	{
		mov r5, r1
		mov r6, r0
	}
.Ltmp42:
	{
		ldc r4, 0
		nop
	}
	bf r5, .LBB7_5
# BB#1:
.Ltmp43:
	#DEBUG_VALUE: control_register_resources:i <- R6
	#DEBUG_VALUE: control_register_resources:n <- R5
	{
		ldaw r7, sp[2]
		ldaw r8, sp[1]
	}
	{
		mov r9, r4
		nop
	}
.Ltmp44:
.LBB7_2:                                # %afterboundcheck
                                        # =>This Inner Loop Header: Depth=1
.Lxtalabel2:
	#DEBUG_VALUE: control_register_resources:i <- R6
	#DEBUG_VALUE: control_register_resources:n <- R5
	{
		nop
		ldw r1, r6[r9]
	}
	{
		nop
		ldw r0, r1[0]
	}
	{
		nop
		ldw r1, r1[1]
	}
.Ltmp45:
	#DEBUG_VALUE: n0 <- [R8+0]
	.loc	1 29 0 prologue_end     # C:/Users/user/workspace/lib_device_control/src/control.xc:29:0
	{
		mov r1, r7
		ldw r3, r1[0]
	}
	.loc	1 29 0                  # C:/Users/user/workspace/lib_device_control/src/control.xc:29:0
	{
		mov r2, r8
		nop
	}
.Lxta.call_labels1:
	{
		nop
		bla r3
	}
	.loc	1 30 5                  # C:/Users/user/workspace/lib_device_control/src/control.xc:30:5
	{
		mov r2, r9
		ldw r1, sp[1]
	}
	.loc	1 30 5                  # C:/Users/user/workspace/lib_device_control/src/control.xc:30:5
	{
		zext r2, 8
		mov r0, r7
	}
.Lxta.call_labels2:
	bl resource_table_add
	bf r0, .LBB7_4
.Ltmp46:
# BB#3:                                 # %iftrue5
                                        #   in Loop: Header=BB7_2 Depth=1
.Lxtalabel3:
	#DEBUG_VALUE: control_register_resources:i <- R6
	#DEBUG_VALUE: control_register_resources:n <- R5
	#DEBUG_VALUE: n0 <- [R8+0]
	.loc	1 31 0                  # C:/Users/user/workspace/lib_device_control/src/control.xc:31:0
	{
		zext r4, 8
		nop
	}
	.loc	1 31 0                  # C:/Users/user/workspace/lib_device_control/src/control.xc:31:0
	{
		add r4, r4, 1
		nop
	}
.Ltmp47:
.LBB7_4:                                # %LoopIncrement
                                        #   in Loop: Header=BB7_2 Depth=1
.Lxtalabel4:
	#DEBUG_VALUE: control_register_resources:i <- R6
	#DEBUG_VALUE: control_register_resources:n <- R5
	#DEBUG_VALUE: n0 <- [R8+0]
	.loc	1 28 0                  # C:/Users/user/workspace/lib_device_control/src/control.xc:28:0
	{
		add r9, r9, 1
		nop
	}
.Ltmp48:
	#DEBUG_VALUE: j <- R9
	.loc	1 28 0                  # C:/Users/user/workspace/lib_device_control/src/control.xc:28:0
	{
		lsu r0, r9, r5
		nop
	}
.Lxta.loop_labels0:
	# LOOPMARKER 0
	bt r0, .LBB7_2
.Ltmp49:
.LBB7_5:                                # %ifdone
.Lxtalabel5:
	{
		zext r4, 8
		nop
	}
	{
		mov r0, r4
		nop
	}
	ldd r9, r8, sp[11]              # 4-byte Folded Reload
	ldd r7, r6, sp[10]              # 4-byte Folded Reload
	ldd r5, r4, sp[9]               # 4-byte Folded Reload
	{
		nop
		retsp 24
	}
	# RETURN_REG_HOLDER
	.cc_bottom control_register_resources.function
	.set	control_register_resources.nstackwords,((_i.control.register_resources.max.nstackwords $M resource_table_add.nstackwords) + 24)
	.globl	control_register_resources.nstackwords
	.set	control_register_resources.maxcores,_i.control.register_resources.max.maxcores $M resource_table_add.maxcores $M 1
	.globl	control_register_resources.maxcores
	.set	control_register_resources.maxtimers,_i.control.register_resources.max.maxtimers $M resource_table_add.maxtimers $M 0
	.globl	control_register_resources.maxtimers
	.set	control_register_resources.maxchanends,_i.control.register_resources.max.maxchanends $M resource_table_add.maxchanends $M 0
	.globl	control_register_resources.maxchanends
.Ltmp50:
	.size	control_register_resources, .Ltmp50-control_register_resources
.Lfunc_end7:
	.cfi_endproc

	.globl	control_process_i2c_write_start
	.align	4
	.type	control_process_i2c_write_start,@function
	.cc_top control_process_i2c_write_start.function,control_process_i2c_write_start
control_process_i2c_write_start:        # @control_process_i2c_write_start
.Lfunc_begin8:
	.loc	1 114 0                 # C:/Users/user/workspace/lib_device_control/src/control.xc:114:0
	.cfi_startproc
	.issue_mode dual
# BB#0:                                 # %allocas
.Lxtalabel6:
	#DEBUG_VALUE: control_process_i2c_write_start:i <- R0
	{
		mkmsk r0, 1
		dualentsp 0
	}
.Ltmp51:
	.loc	1 117 0 prologue_end    # C:/Users/user/workspace/lib_device_control/src/control.xc:117:0
	stw r0, dp[i2c]
	{
		ldc r0, 0
		retsp 0
	}
	# RETURN_REG_HOLDER
.Ltmp52:
	.cc_bottom control_process_i2c_write_start.function
	.set	control_process_i2c_write_start.nstackwords,0
	.globl	control_process_i2c_write_start.nstackwords
	.set	control_process_i2c_write_start.maxcores,1
	.globl	control_process_i2c_write_start.maxcores
	.set	control_process_i2c_write_start.maxtimers,0
	.globl	control_process_i2c_write_start.maxtimers
	.set	control_process_i2c_write_start.maxchanends,0
	.globl	control_process_i2c_write_start.maxchanends
.Ltmp53:
	.size	control_process_i2c_write_start, .Ltmp53-control_process_i2c_write_start
.Lfunc_end8:
	.cfi_endproc

	.globl	control_process_i2c_read_start
	.align	4
	.type	control_process_i2c_read_start,@function
	.cc_top control_process_i2c_read_start.function,control_process_i2c_read_start
control_process_i2c_read_start:         # @control_process_i2c_read_start
.Lfunc_begin9:
	.loc	1 212 0                 # C:/Users/user/workspace/lib_device_control/src/control.xc:212:0
	.cfi_startproc
	.issue_mode dual
# BB#0:                                 # %allocas
.Lxtalabel7:
	{
		nop
		dualentsp 10
	}
.Ltmp54:
	.cfi_def_cfa_offset 40
.Ltmp55:
	.cfi_offset 15, 0
	std r5, r4, sp[3]               # 4-byte Folded Spill
.Ltmp56:
	.cfi_offset 4, -16
.Ltmp57:
	.cfi_offset 5, -12
	{
		nop
		stw r6, sp[8]
	}
.Ltmp58:
	.cfi_offset 6, -8
	#DEBUG_VALUE: control_process_i2c_read_start:i <- R0
	.loc	1 215 3 prologue_end    # C:/Users/user/workspace/lib_device_control/src/control.xc:215:3
.Ltmp59:
	ldw r2, dp[i2c]
	.loc	1 215 3                 # C:/Users/user/workspace/lib_device_control/src/control.xc:215:3
	{
		eq r2, r2, 4
		nop
	}
	.loc	1 215 3                 # C:/Users/user/workspace/lib_device_control/src/control.xc:215:3
	bf r2, .LBB9_1
.Ltmp60:
# BB#2:                                 # %iffalse
.Lxtalabel8:
	#DEBUG_VALUE: control_process_i2c_read_start:i <- R0
	{
		mkmsk r2, 1
		nop
	}
	ldaw r11, dp[i2c+4]
	{
		nop
		ld8u r3, r11[r2]
	}
	.loc	1 221 5                 # C:/Users/user/workspace/lib_device_control/src/control.xc:221:5
	{
		sext r3, 8
		nop
	}
	.loc	1 221 5                 # C:/Users/user/workspace/lib_device_control/src/control.xc:221:5
	ashr r2, r3, 32
	bt r2, .LBB9_3
.Ltmp61:
.LBB9_1:                                # %iftrue
.Lxtalabel9:
	{
		ldc r0, 10
		nop
	}
	.loc	1 217 0                 # C:/Users/user/workspace/lib_device_control/src/control.xc:217:0
	stw r0, dp[i2c]
	{
		ldc r0, 4
		nop
	}
.LBB9_5:                                # %return
	{
		nop
		ldw r6, sp[8]
	}
	ldd r5, r4, sp[3]               # 4-byte Folded Reload
	{
		nop
		retsp 10
	}
	# RETURN_REG_HOLDER
.LBB9_3:                                # %iftrue1
.Lxtalabel10:
.Ltmp62:
	#DEBUG_VALUE: control_process_i2c_read_start:i <- R0
	.loc	1 224 0                 # C:/Users/user/workspace/lib_device_control/src/control.xc:224:0
	ldw r5, dp[i2c+8]
	.loc	1 224 0                 # C:/Users/user/workspace/lib_device_control/src/control.xc:224:0
	{
		ldc r4, 0
		nop
	}
	{
		ldc r6, 2
		ld8u r2, r11[r4]
	}
	{
		nop
		ld8u r11, r11[r6]
	}
	std r1, r5, sp[1]
	ldc r1, 253
	{
		nop
		stw r1, sp[4]
	}
	ldaw r1, dp[i2c+16]
	{
		zext r3, 8
		stw r1, sp[1]
	}
	{
		mov r1, r11
		nop
	}
.Lxta.call_labels3:
	bl _Sread_command_0
.Ltmp63:
	bt r0, .LBB9_5
# BB#4:                                 # %iftrue11
.Lxtalabel11:
	.loc	1 228 0                 # C:/Users/user/workspace/lib_device_control/src/control.xc:228:0
	stw r4, dp[i2c+12]
	{
		mkmsk r0, 3
		nop
	}
	.loc	1 229 0                 # C:/Users/user/workspace/lib_device_control/src/control.xc:229:0
	stw r0, dp[i2c]
	{
		mov r0, r4
		nop
	}
	bu .LBB9_5
.Ltmp64:
	.cc_bottom control_process_i2c_read_start.function
	.set	control_process_i2c_read_start.nstackwords,(_Sread_command_0.nstackwords + 10)
	.globl	control_process_i2c_read_start.nstackwords
	.set	control_process_i2c_read_start.maxcores,_Sread_command_0.maxcores $M 1
	.globl	control_process_i2c_read_start.maxcores
	.set	control_process_i2c_read_start.maxtimers,_Sread_command_0.maxtimers $M 0
	.globl	control_process_i2c_read_start.maxtimers
	.set	control_process_i2c_read_start.maxchanends,_Sread_command_0.maxchanends $M 0
	.globl	control_process_i2c_read_start.maxchanends
.Ltmp65:
	.size	control_process_i2c_read_start, .Ltmp65-control_process_i2c_read_start
.Lfunc_end9:
	.cfi_endproc

	.globl	control_process_i2c_write_data
	.align	4
	.type	control_process_i2c_write_data,@function
	.cc_top control_process_i2c_write_data.function,control_process_i2c_write_data
control_process_i2c_write_data:         # @control_process_i2c_write_data
.Lfunc_begin10:
	.loc	1 123 0                 # C:/Users/user/workspace/lib_device_control/src/control.xc:123:0
	.cfi_startproc
	.issue_mode dual
# BB#0:                                 # %allocas
.Lxtalabel12:
	{
		nop
		dualentsp 10
	}
.Ltmp66:
	.cfi_def_cfa_offset 40
.Ltmp67:
	.cfi_offset 15, 0
	std r5, r4, sp[3]               # 4-byte Folded Spill
.Ltmp68:
	.cfi_offset 4, -16
.Ltmp69:
	.cfi_offset 5, -12
	std r7, r6, sp[4]               # 4-byte Folded Spill
.Ltmp70:
	.cfi_offset 6, -8
.Ltmp71:
	.cfi_offset 7, -4
	#DEBUG_VALUE: control_process_i2c_write_data:data <- R0
	#DEBUG_VALUE: control_process_i2c_write_data:i <- R1
	{
		mov r4, r0
		nop
	}
.Ltmp72:
	#DEBUG_VALUE: control_process_i2c_write_data:data <- R4
	.loc	1 126 3 prologue_end    # C:/Users/user/workspace/lib_device_control/src/control.xc:126:3
	ldw r0, dp[i2c]
	.loc	1 126 3                 # C:/Users/user/workspace/lib_device_control/src/control.xc:126:3
	{
		sub r11, r0, 1
		ldc r3, 5
	}
	{
		lsu r0, r3, r11
		nop
	}
	bf r0, .LBB10_1
.Ltmp73:
# BB#19:                                # %iffalse118
.Lxtalabel13:
	{
		ldc r0, 10
		nop
	}
	.loc	1 205 0                 # C:/Users/user/workspace/lib_device_control/src/control.xc:205:0
	stw r0, dp[i2c]
	{
		mov r0, r3
		nop
	}
.LBB10_20:                              # %return
	ldd r7, r6, sp[4]               # 4-byte Folded Reload
	ldd r5, r4, sp[3]               # 4-byte Folded Reload
	{
		nop
		retsp 10
	}
	# RETURN_REG_HOLDER
.LBB10_1:                               # %allocas
.Lxtalabel14:
.Ltmp74:
	#DEBUG_VALUE: control_process_i2c_write_data:data <- R4
	#DEBUG_VALUE: control_process_i2c_write_data:i <- R1
	{
		ldc r0, 0
		nop
	}

	.xtabranch .Ljumptable0+4,.Ljumptable0+8,.Ljumptable0+12,.Ljumptable0+16,.Ljumptable0+20,.Ljumptable0+24
.Ljumptable0:
		
	{
		nop
		bru r11
	}
	.jmptable32 .LBB10_2,.LBB10_5,.LBB10_6,.LBB10_11,.LBB10_15,.LBB10_20
.Ltmp75:
.LBB10_2:                               # %iftrue
.Lxtalabel15:
	#DEBUG_VALUE: control_process_i2c_write_data:data <- R4
	#DEBUG_VALUE: ifnum <- [R5+0]
	{
		ldaw r5, sp[5]
		mov r0, r4
	}
.Ltmp76:
	.loc	1 127 5                 # C:/Users/user/workspace/lib_device_control/src/control.xc:127:5
	{
		mov r1, r5
		nop
	}
.Lxta.call_labels4:
	bl resource_table_search
	.loc	1 127 5                 # C:/Users/user/workspace/lib_device_control/src/control.xc:127:5
	bt r0, .LBB10_3
.Ltmp77:
# BB#4:                                 # %iffalse6
.Lxtalabel16:
	#DEBUG_VALUE: control_process_i2c_write_data:data <- R4
	#DEBUG_VALUE: ifnum <- [R5+0]
	.loc	1 134 0                 # C:/Users/user/workspace/lib_device_control/src/control.xc:134:0
	{
		ldc r0, 0
		nop
	}
	ldaw r1, dp[i2c+4]
	.loc	1 133 0                 # C:/Users/user/workspace/lib_device_control/src/control.xc:133:0
	st8 r4, r1[r0]
	.loc	1 134 0                 # C:/Users/user/workspace/lib_device_control/src/control.xc:134:0
	{
		ldc r3, 2
		ld8u r2, r5[r0]
	}
	.loc	1 134 0                 # C:/Users/user/workspace/lib_device_control/src/control.xc:134:0
	st8 r2, r1[r3]
	.loc	1 135 0                 # C:/Users/user/workspace/lib_device_control/src/control.xc:135:0
	stw r3, dp[i2c]
	bu .LBB10_20
.Ltmp78:
.LBB10_5:                               # %iftrue9
.Lxtalabel17:
	#DEBUG_VALUE: control_process_i2c_write_data:data <- R4
	{
		mkmsk r1, 1
		nop
	}
	ldaw r2, dp[i2c+4]
	.loc	1 140 0                 # C:/Users/user/workspace/lib_device_control/src/control.xc:140:0
	st8 r4, r2[r1]
	{
		mkmsk r1, 2
		nop
	}
	.loc	1 141 0                 # C:/Users/user/workspace/lib_device_control/src/control.xc:141:0
	stw r1, dp[i2c]
	bu .LBB10_20
.Ltmp79:
.LBB10_6:                               # %iftrue18
.Lxtalabel18:
	#DEBUG_VALUE: control_process_i2c_write_data:data <- R4
	#DEBUG_VALUE: control_process_i2c_write_data:i <- R1
	ldc r0, 254
	.loc	1 145 5                 # C:/Users/user/workspace/lib_device_control/src/control.xc:145:5
	{
		lsu r0, r4, r0
		nop
	}
	bt r0, .LBB10_7
.Ltmp80:
.LBB10_3:                               # %iftrue1
.Lxtalabel19:
	{
		ldc r0, 10
		nop
	}
	.loc	1 129 0                 # C:/Users/user/workspace/lib_device_control/src/control.xc:129:0
	stw r0, dp[i2c]
	{
		ldc r0, 2
		nop
	}
	bu .LBB10_20
.LBB10_11:                              # %iftrue49
.Lxtalabel20:
.Ltmp81:
	#DEBUG_VALUE: control_process_i2c_write_data:data <- R4
	#DEBUG_VALUE: control_process_i2c_write_data:i <- R1
	{
		mkmsk r5, 1
		nop
	}
	ldaw r6, dp[i2c+4]
	{
		nop
		ld8u r0, r6[r5]
	}
	.loc	1 164 5                 # C:/Users/user/workspace/lib_device_control/src/control.xc:164:5
	{
		sext r0, 8
		nop
	}
	.loc	1 164 5                 # C:/Users/user/workspace/lib_device_control/src/control.xc:164:5
	ashr r0, r0, 32
	bt r0, .LBB10_12
.Ltmp82:
# BB#13:                                # %iffalse61
.Lxtalabel21:
	#DEBUG_VALUE: control_process_i2c_write_data:data <- R4
	#DEBUG_VALUE: control_process_i2c_write_data:i <- R1
	.loc	1 170 0                 # C:/Users/user/workspace/lib_device_control/src/control.xc:170:0
	{
		ldc r0, 0
		nop
	}
	ldaw r7, dp[i2c+16]
	st8 r4, r7[r0]
	.loc	1 171 0                 # C:/Users/user/workspace/lib_device_control/src/control.xc:171:0
	stw r5, dp[i2c+12]
	.loc	1 172 0                 # C:/Users/user/workspace/lib_device_control/src/control.xc:172:0
	stw r3, dp[i2c]
	.loc	1 173 7                 # C:/Users/user/workspace/lib_device_control/src/control.xc:173:7
	ldw r3, dp[i2c+8]
	.loc	1 173 7                 # C:/Users/user/workspace/lib_device_control/src/control.xc:173:7
	{
		eq r3, r3, 1
		nop
	}
	bf r3, .LBB10_20
.Ltmp83:
# BB#14:                                # %iftrue64
.Lxtalabel22:
	#DEBUG_VALUE: control_process_i2c_write_data:i <- R1
	.loc	1 174 9                 # C:/Users/user/workspace/lib_device_control/src/control.xc:174:9
	{
		ldc r0, 0
		nop
	}
	{
		nop
		ld16s r11, r6[r0]
	}
	ldc r0, 65280
	{
		and r0, r11, r0
		nop
	}
	{
		shr r3, r0, 8
		ldc r0, 2
	}
	{
		nop
		ld8u r4, r6[r0]
	}
	.loc	1 174 9                 # C:/Users/user/workspace/lib_device_control/src/control.xc:174:9
	std r2, r5, sp[1]
	{
		zext r11, 8
		nop
	}
	ldc r0, 253
	{
		nop
		stw r0, sp[4]
	}
	{
		nop
		stw r7, sp[1]
	}
	bu .LBB10_10
.Ltmp84:
.LBB10_15:                              # %iftrue78
.Lxtalabel23:
	#DEBUG_VALUE: control_process_i2c_write_data:data <- R4
	#DEBUG_VALUE: control_process_i2c_write_data:i <- R1
	.loc	1 183 5                 # C:/Users/user/workspace/lib_device_control/src/control.xc:183:5
	ldw r3, dp[i2c+12]
	.loc	1 183 5                 # C:/Users/user/workspace/lib_device_control/src/control.xc:183:5
	ldw r11, dp[i2c+8]
	.loc	1 183 5                 # C:/Users/user/workspace/lib_device_control/src/control.xc:183:5
	{
		eq r11, r3, r11
		nop
	}
	bf r11, .LBB10_17
.Ltmp85:
# BB#16:                                # %iftrue85
.Lxtalabel24:
	{
		ldc r0, 6
		nop
	}
	.loc	1 186 0                 # C:/Users/user/workspace/lib_device_control/src/control.xc:186:0
	stw r0, dp[i2c]
	{
		mkmsk r0, 2
		nop
	}
	bu .LBB10_20
.LBB10_7:                               # %iffalse32
.Lxtalabel25:
.Ltmp86:
	#DEBUG_VALUE: control_process_i2c_write_data:data <- R4
	#DEBUG_VALUE: control_process_i2c_write_data:i <- R1
	.loc	1 151 0                 # C:/Users/user/workspace/lib_device_control/src/control.xc:151:0
	stw r4, dp[i2c+8]
	{
		ldc r0, 0
		nop
	}
	.loc	1 152 0                 # C:/Users/user/workspace/lib_device_control/src/control.xc:152:0
	stw r0, dp[i2c+12]
	{
		ldc r3, 4
		nop
	}
	.loc	1 153 0                 # C:/Users/user/workspace/lib_device_control/src/control.xc:153:0
	stw r3, dp[i2c]
	bt r4, .LBB10_20
.Ltmp87:
# BB#8:                                 # %iftrue36
.Lxtalabel26:
	#DEBUG_VALUE: control_process_i2c_write_data:i <- R1
	.loc	1 155 9                 # C:/Users/user/workspace/lib_device_control/src/control.xc:155:9
	{
		ldc r0, 0
		nop
	}
	ldaw r4, dp[i2c+4]
	{
		nop
		ld16s r11, r4[r0]
	}
	ldc r3, 65280
	{
		and r3, r11, r3
		nop
	}
	{
		shr r3, r3, 8
		ldc r5, 2
	}
	{
		nop
		ld8u r4, r4[r5]
	}
	.loc	1 155 9                 # C:/Users/user/workspace/lib_device_control/src/control.xc:155:9
	std r2, r0, sp[1]
	bu .LBB10_9
.Ltmp88:
.LBB10_17:                              # %iffalse92
.Lxtalabel27:
	#DEBUG_VALUE: control_process_i2c_write_data:data <- R4
	#DEBUG_VALUE: control_process_i2c_write_data:i <- R1
	ldc r11, 252
	.loc	1 190 0                 # C:/Users/user/workspace/lib_device_control/src/control.xc:190:0
	{
		lsu r11, r11, r3
		nop
	}
.Ltrap_info0:
	{
		ecallt r11
		nop
	}
	#DEBUG_VALUE: control_process_i2c_write_data:data <- R4
	#DEBUG_VALUE: control_process_i2c_write_data:i <- R1
	.loc	1 190 0                 # C:/Users/user/workspace/lib_device_control/src/control.xc:190:0
	ldaw r11, dp[i2c]
	{
		add r3, r11, r3
		ldc r11, 16
	}
	.loc	1 190 0                 # C:/Users/user/workspace/lib_device_control/src/control.xc:190:0
	st8 r4, r3[r11]
	.loc	1 191 0                 # C:/Users/user/workspace/lib_device_control/src/control.xc:191:0
	ldw r3, dp[i2c+12]
	.loc	1 191 0                 # C:/Users/user/workspace/lib_device_control/src/control.xc:191:0
	{
		add r5, r3, 1
		nop
	}
	.loc	1 191 0                 # C:/Users/user/workspace/lib_device_control/src/control.xc:191:0
	stw r5, dp[i2c+12]
	.loc	1 192 7                 # C:/Users/user/workspace/lib_device_control/src/control.xc:192:7
	ldw r3, dp[i2c+8]
	.loc	1 192 7                 # C:/Users/user/workspace/lib_device_control/src/control.xc:192:7
	{
		eq r3, r5, r3
		nop
	}
	bf r3, .LBB10_20
.Ltmp89:
# BB#18:                                # %iftrue97
.Lxtalabel28:
	#DEBUG_VALUE: control_process_i2c_write_data:i <- R1
	.loc	1 193 9                 # C:/Users/user/workspace/lib_device_control/src/control.xc:193:9
	{
		ldc r0, 0
		nop
	}
	ldaw r4, dp[i2c+4]
	{
		nop
		ld16s r11, r4[r0]
	}
	ldc r0, 65280
	{
		and r0, r11, r0
		nop
	}
	{
		shr r3, r0, 8
		ldc r0, 2
	}
	{
		nop
		ld8u r4, r4[r0]
	}
	.loc	1 193 9                 # C:/Users/user/workspace/lib_device_control/src/control.xc:193:9
	std r2, r5, sp[1]
.Ltmp90:
.LBB10_9:                               # %return
	.loc	1 155 9                 # C:/Users/user/workspace/lib_device_control/src/control.xc:155:9
	{
		zext r11, 8
		nop
	}
	ldc r0, 253
	{
		nop
		stw r0, sp[4]
	}
	ldaw r0, dp[i2c+16]
	{
		nop
		stw r0, sp[1]
	}
.LBB10_10:                              # %return
	{
		mov r0, r1
		mov r1, r4
	}
	{
		mov r2, r11
		nop
	}
.Lxta.call_labels5:
	bl _Swrite_command_0
	bu .LBB10_20
.LBB10_12:                              # %iftrue56
.Lxtalabel29:
	{
		ldc r0, 10
		nop
	}
	.loc	1 166 0                 # C:/Users/user/workspace/lib_device_control/src/control.xc:166:0
	stw r0, dp[i2c]
	{
		ldc r0, 4
		nop
	}
	bu .LBB10_20
.Ltmp91:
	.cc_bottom control_process_i2c_write_data.function
	.set	control_process_i2c_write_data.nstackwords,((resource_table_search.nstackwords $M _Swrite_command_0.nstackwords) + 10)
	.globl	control_process_i2c_write_data.nstackwords
	.set	control_process_i2c_write_data.maxcores,_Swrite_command_0.maxcores $M resource_table_search.maxcores $M 1
	.globl	control_process_i2c_write_data.maxcores
	.set	control_process_i2c_write_data.maxtimers,_Swrite_command_0.maxtimers $M resource_table_search.maxtimers $M 0
	.globl	control_process_i2c_write_data.maxtimers
	.set	control_process_i2c_write_data.maxchanends,_Swrite_command_0.maxchanends $M resource_table_search.maxchanends $M 0
	.globl	control_process_i2c_write_data.maxchanends
.Ltmp92:
	.size	control_process_i2c_write_data, .Ltmp92-control_process_i2c_write_data
.Lfunc_end10:
	.cfi_endproc

	.globl	control_process_i2c_read_data
	.align	4
	.type	control_process_i2c_read_data,@function
	.cc_top control_process_i2c_read_data.function,control_process_i2c_read_data
control_process_i2c_read_data:          # @control_process_i2c_read_data
.Lfunc_begin11:
	.loc	1 246 0                 # C:/Users/user/workspace/lib_device_control/src/control.xc:246:0
	.cfi_startproc
	.issue_mode dual
# BB#0:                                 # %allocas
.Lxtalabel30:
	{
		nop
		dualentsp 0
	}
	#DEBUG_VALUE: control_process_i2c_read_data:data <- R0
	#DEBUG_VALUE: control_process_i2c_read_data:i <- R1
	.loc	1 247 3 prologue_end    # C:/Users/user/workspace/lib_device_control/src/control.xc:247:3
.Ltmp93:
	ldw r1, dp[i2c]
.Ltmp94:
	.loc	1 247 3                 # C:/Users/user/workspace/lib_device_control/src/control.xc:247:3
	{
		eq r2, r1, 8
		nop
	}
	bf r2, .LBB11_1
.Ltmp95:
# BB#3:                                 # %iftrue2
.Lxtalabel31:
	#DEBUG_VALUE: control_process_i2c_read_data:data <- R0
	#DEBUG_VALUE: control_process_i2c_read_data:i <- R1
	.loc	1 254 5                 # C:/Users/user/workspace/lib_device_control/src/control.xc:254:5
	ldw r2, dp[i2c+12]
	.loc	1 254 5                 # C:/Users/user/workspace/lib_device_control/src/control.xc:254:5
	ldw r1, dp[i2c+8]
.Ltmp96:
	.loc	1 254 5                 # C:/Users/user/workspace/lib_device_control/src/control.xc:254:5
	{
		eq r1, r2, r1
		nop
	}
	.loc	1 254 5                 # C:/Users/user/workspace/lib_device_control/src/control.xc:254:5
	bf r1, .LBB11_5
.Ltmp97:
# BB#4:                                 # %iftrue9
.Lxtalabel32:
	#DEBUG_VALUE: control_process_i2c_read_data:i <- R1
	{
		ldc r0, 9
		nop
	}
	.loc	1 258 0                 # C:/Users/user/workspace/lib_device_control/src/control.xc:258:0
	stw r0, dp[i2c]
	{
		ldc r1, 0
		nop
	}
.Ltmp98:
	bu .LBB11_7
.LBB11_1:                               # %allocas
.Lxtalabel33:
.Ltmp99:
	#DEBUG_VALUE: control_process_i2c_read_data:data <- R0
	#DEBUG_VALUE: control_process_i2c_read_data:i <- R1
	{
		eq r1, r1, 7
		nop
	}
.Ltmp100:
	bf r1, .LBB11_6
.Ltmp101:
# BB#2:                                 # %iftrue
.Lxtalabel34:
	#DEBUG_VALUE: control_process_i2c_read_data:data <- R0
	#DEBUG_VALUE: control_process_i2c_read_data:i <- R1
	.loc	1 248 0                 # C:/Users/user/workspace/lib_device_control/src/control.xc:248:0
	{
		ldc r1, 0
		nop
	}
.Ltmp102:
	ldaw r2, dp[i2c+16]
	{
		nop
		ld8u r2, r2[r1]
	}
	st8 r2, r0[r1]
	{
		mkmsk r0, 1
		nop
	}
.Ltmp103:
	.loc	1 249 0                 # C:/Users/user/workspace/lib_device_control/src/control.xc:249:0
	stw r0, dp[i2c+12]
	{
		ldc r0, 8
		nop
	}
	.loc	1 250 0                 # C:/Users/user/workspace/lib_device_control/src/control.xc:250:0
	stw r0, dp[i2c]
	bu .LBB11_7
.LBB11_5:                               # %ifdone10
.Lxtalabel35:
.Ltmp104:
	#DEBUG_VALUE: control_process_i2c_read_data:data <- R0
	#DEBUG_VALUE: control_process_i2c_read_data:i <- R1
	ldc r1, 252
.Ltmp105:
	.loc	1 261 0                 # C:/Users/user/workspace/lib_device_control/src/control.xc:261:0
	{
		lsu r1, r1, r2
		nop
	}
.Ltrap_info1:
	{
		ecallt r1
		nop
	}
	#DEBUG_VALUE: control_process_i2c_read_data:data <- R0
.Ltmp106:
	#DEBUG_VALUE: control_process_i2c_read_data:i <- R1
	.loc	1 261 0                 # C:/Users/user/workspace/lib_device_control/src/control.xc:261:0
	ldaw r1, dp[i2c]
.Ltmp107:
	{
		add r1, r1, r2
		ldc r3, 16
	}
	.loc	1 261 0                 # C:/Users/user/workspace/lib_device_control/src/control.xc:261:0
	{
		ldc r1, 0
		ld8u r3, r1[r3]
	}
	.loc	1 261 0                 # C:/Users/user/workspace/lib_device_control/src/control.xc:261:0
	st8 r3, r0[r1]
	.loc	1 262 0                 # C:/Users/user/workspace/lib_device_control/src/control.xc:262:0
	{
		add r0, r2, 1
		nop
	}
.Ltmp108:
	.loc	1 262 0                 # C:/Users/user/workspace/lib_device_control/src/control.xc:262:0
	stw r0, dp[i2c+12]
	bu .LBB11_7
.LBB11_6:                               # %iffalse8
.Lxtalabel36:
.Ltmp109:
	#DEBUG_VALUE: control_process_i2c_read_data:i <- R1
	{
		ldc r0, 10
		nop
	}
	.loc	1 266 0                 # C:/Users/user/workspace/lib_device_control/src/control.xc:266:0
	stw r0, dp[i2c]
	{
		ldc r1, 5
		nop
	}
.Ltmp110:
.LBB11_7:                               # %return
	#DEBUG_VALUE: control_process_i2c_read_data:i <- R1
	{
		zext r1, 8
		nop
	}
.Ltmp111:
	{
		mov r0, r1
		retsp 0
	}
	# RETURN_REG_HOLDER
	.cc_bottom control_process_i2c_read_data.function
	.set	control_process_i2c_read_data.nstackwords,0
	.globl	control_process_i2c_read_data.nstackwords
	.set	control_process_i2c_read_data.maxcores,1
	.globl	control_process_i2c_read_data.maxcores
	.set	control_process_i2c_read_data.maxtimers,0
	.globl	control_process_i2c_read_data.maxtimers
	.set	control_process_i2c_read_data.maxchanends,0
	.globl	control_process_i2c_read_data.maxchanends
.Ltmp112:
	.size	control_process_i2c_read_data, .Ltmp112-control_process_i2c_read_data
.Lfunc_end11:
	.cfi_endproc

	.globl	control_process_i2c_stop
	.align	4
	.type	control_process_i2c_stop,@function
	.cc_top control_process_i2c_stop.function,control_process_i2c_stop
control_process_i2c_stop:               # @control_process_i2c_stop
.Lfunc_begin12:
	.loc	1 273 0                 # C:/Users/user/workspace/lib_device_control/src/control.xc:273:0
	.cfi_startproc
	.issue_mode dual
# BB#0:                                 # %allocas
.Lxtalabel37:
	#DEBUG_VALUE: control_process_i2c_stop:i <- R0
	#DEBUG_VALUE: ret <- 0
	{
		ldc r1, 0
		dualentsp 0
	}
	.loc	1 278 3 prologue_end    # C:/Users/user/workspace/lib_device_control/src/control.xc:278:3
.Ltmp113:
	ldw r0, dp[i2c]
.Ltmp114:
	.loc	1 278 3                 # C:/Users/user/workspace/lib_device_control/src/control.xc:278:3
	{
		sub r2, r0, 4
		ldc r0, 5
	}
	{
		lsu r0, r0, r2
		nop
	}
	bt r0, .LBB12_11
# BB#1:                                 # %allocas
.Lxtalabel38:
.Ltmp115:
	#DEBUG_VALUE: control_process_i2c_stop:i <- R0
	{
		mov r0, r1
		nop
	}
.Ltmp116:

	.xtabranch .Ljumptable1+4,.Ljumptable1+8,.Ljumptable1+12,.Ljumptable1+16,.Ljumptable1+20,.Ljumptable1+24
.Ljumptable1:
		
	{
		nop
		bru r2
	}
	.jmptable32 .LBB12_2,.LBB12_5,.LBB12_12,.LBB12_11,.LBB12_8,.LBB12_12
.LBB12_2:                               # %iftrue
.Lxtalabel39:
.Ltmp117:
	#DEBUG_VALUE: control_process_i2c_stop:i <- R0
	.loc	1 279 5                 # C:/Users/user/workspace/lib_device_control/src/control.xc:279:5
	ldw r0, dp[i2c+8]
.Ltmp118:
	.loc	1 284 0                 # C:/Users/user/workspace/lib_device_control/src/control.xc:284:0
	bt r0, .LBB12_3
# BB#4:                                 # %iftrue
.Lxtalabel40:
.Ltmp119:
	#DEBUG_VALUE: control_process_i2c_stop:i <- R0
	{
		ldc r0, 0
		nop
	}
.Ltmp120:
	bu .LBB12_12
.LBB12_11:                              # %iffalse56
.Lxtalabel41:
.Ltmp121:
	#DEBUG_VALUE: control_process_i2c_stop:i <- R0
	{
		ldc r0, 4
		nop
	}
.Ltmp122:
.LBB12_12:                              # %return
	#DEBUG_VALUE: control_process_i2c_stop:i <- R0
	#DEBUG_VALUE: ret <- 0
	.loc	1 312 0                 # C:/Users/user/workspace/lib_device_control/src/control.xc:312:0
	stw r1, dp[i2c]
	{
		zext r0, 8
		retsp 0
	}
.Ltmp123:
	# RETURN_REG_HOLDER
.LBB12_5:                               # %iftrue8
.Lxtalabel42:
.Ltmp124:
	#DEBUG_VALUE: control_process_i2c_stop:i <- R0
	.loc	1 288 5                 # C:/Users/user/workspace/lib_device_control/src/control.xc:288:5
	ldw r0, dp[i2c+12]
.Ltmp125:
	.loc	1 288 5                 # C:/Users/user/workspace/lib_device_control/src/control.xc:288:5
	ldw r2, dp[i2c+8]
	.loc	1 288 5                 # C:/Users/user/workspace/lib_device_control/src/control.xc:288:5
	{
		lsu r0, r0, r2
		nop
	}
.Ltmp126:
	#DEBUG_VALUE: ret <- 3
	.loc	1 288 5                 # C:/Users/user/workspace/lib_device_control/src/control.xc:288:5
	bt r0, .LBB12_6
# BB#7:                                 # %iftrue8
.Lxtalabel43:
.Ltmp127:
	#DEBUG_VALUE: control_process_i2c_stop:i <- R0
	{
		ldc r0, 0
		nop
	}
.Ltmp128:
	bu .LBB12_12
.LBB12_8:                               # %iftrue36
.Lxtalabel44:
.Ltmp129:
	#DEBUG_VALUE: control_process_i2c_stop:i <- R0
	.loc	1 302 5                 # C:/Users/user/workspace/lib_device_control/src/control.xc:302:5
	ldw r0, dp[i2c+12]
.Ltmp130:
	.loc	1 302 5                 # C:/Users/user/workspace/lib_device_control/src/control.xc:302:5
	ldw r2, dp[i2c+8]
	.loc	1 302 5                 # C:/Users/user/workspace/lib_device_control/src/control.xc:302:5
	{
		lsu r0, r0, r2
		nop
	}
	#DEBUG_VALUE: ret <- 3
	.loc	1 302 5                 # C:/Users/user/workspace/lib_device_control/src/control.xc:302:5
	bt r0, .LBB12_9
.Ltmp131:
# BB#10:                                # %iftrue36
.Lxtalabel45:
	#DEBUG_VALUE: control_process_i2c_stop:i <- R0
	{
		ldc r0, 0
		nop
	}
.Ltmp132:
	bu .LBB12_12
.LBB12_3:
.Ltmp133:
	#DEBUG_VALUE: control_process_i2c_stop:i <- R0
	{
		mkmsk r0, 2
		nop
	}
.Ltmp134:
	bu .LBB12_12
.LBB12_6:
.Ltmp135:
	#DEBUG_VALUE: control_process_i2c_stop:i <- R0
	{
		mkmsk r0, 2
		nop
	}
.Ltmp136:
	bu .LBB12_12
.LBB12_9:
.Ltmp137:
	#DEBUG_VALUE: control_process_i2c_stop:i <- R0
	{
		mkmsk r0, 2
		nop
	}
.Ltmp138:
	bu .LBB12_12
	.cc_bottom control_process_i2c_stop.function
	.set	control_process_i2c_stop.nstackwords,0
	.globl	control_process_i2c_stop.nstackwords
	.set	control_process_i2c_stop.maxcores,1
	.globl	control_process_i2c_stop.maxcores
	.set	control_process_i2c_stop.maxtimers,0
	.globl	control_process_i2c_stop.maxtimers
	.set	control_process_i2c_stop.maxchanends,0
	.globl	control_process_i2c_stop.maxchanends
.Ltmp139:
	.size	control_process_i2c_stop, .Ltmp139-control_process_i2c_stop
.Lfunc_end12:
	.cfi_endproc

	.globl	control_process_usb_set_request
	.align	4
	.type	control_process_usb_set_request,@function
	.cc_top control_process_usb_set_request.function,control_process_usb_set_request
control_process_usb_set_request:        # @control_process_usb_set_request
.Lfunc_begin13:
	.loc	1 327 0                 # C:/Users/user/workspace/lib_device_control/src/control.xc:327:0
	.cfi_startproc
	.issue_mode dual
# BB#0:                                 # %allocas
.Lxtalabel46:
	{
		nop
		dualentsp 14
	}
.Ltmp140:
	.cfi_def_cfa_offset 56
.Ltmp141:
	.cfi_offset 15, 0
	std r5, r4, sp[3]               # 4-byte Folded Spill
.Ltmp142:
	.cfi_offset 4, -32
.Ltmp143:
	.cfi_offset 5, -28
	std r7, r6, sp[4]               # 4-byte Folded Spill
.Ltmp144:
	.cfi_offset 6, -24
.Ltmp145:
	.cfi_offset 7, -20
	std r9, r8, sp[5]               # 4-byte Folded Spill
.Ltmp146:
	.cfi_offset 8, -16
.Ltmp147:
	.cfi_offset 9, -12
.Ltmp148:
	.cfi_offset 10, -8
	#DEBUG_VALUE: control_process_usb_set_request:windex <- R0
	#DEBUG_VALUE: control_process_usb_set_request:wvalue <- R1
	#DEBUG_VALUE: control_process_usb_set_request:wlength <- R2
	#DEBUG_VALUE: control_process_usb_set_request:request_data <- R3
.Ltmp149:
	#DEBUG_VALUE: payload_len <- R2
	#DEBUG_VALUE: control_process_usb_set_request:request_data <- R6
	{
		mov r6, r3
		stw r10, sp[12]
	}
.Ltmp150:
	#DEBUG_VALUE: payload_len <- R7
	#DEBUG_VALUE: control_process_usb_set_request:wlength <- R7
	#DEBUG_VALUE: control_process_usb_set_request:wvalue <- R4
	{
		mov r7, r2
		mov r4, r1
	}
.Ltmp151:
	{
		mov r5, r0
		nop
	}
.Ltmp152:
	#DEBUG_VALUE: control_process_usb_set_request:windex <- R5
	ldd r10, r9, sp[8]
.Ltmp153:
	#DEBUG_VALUE: ifnum <- [R8+0]
	.loc	1 337 3 prologue_end    # C:/Users/user/workspace/lib_device_control/src/control.xc:337:3
	{
		zext r5, 8
		ldaw r8, sp[5]
	}
.Ltmp154:
	{
		mov r0, r5
		mov r1, r8
	}
.Lxta.call_labels6:
	bl resource_table_search
	{
		mov r1, r0
		ldc r0, 2
	}
	bt r1, .LBB13_3
# BB#1:                                 # %allocas
.Lxtalabel47:
.Ltmp155:
	#DEBUG_VALUE: control_process_usb_set_request:wvalue <- R4
	#DEBUG_VALUE: control_process_usb_set_request:wlength <- R7
	#DEBUG_VALUE: control_process_usb_set_request:request_data <- R6
	#DEBUG_VALUE: payload_len <- R7
	#DEBUG_VALUE: ifnum <- [R8+0]
	ldc r1, 128
	.loc	1 337 3                 # C:/Users/user/workspace/lib_device_control/src/control.xc:337:3
	{
		and r1, r4, r1
		nop
	}
	bt r1, .LBB13_3
.Ltmp156:
# BB#2:                                 # %ifdone5
.Lxtalabel48:
	#DEBUG_VALUE: control_process_usb_set_request:wvalue <- R4
	#DEBUG_VALUE: control_process_usb_set_request:wlength <- R7
	#DEBUG_VALUE: control_process_usb_set_request:request_data <- R6
	#DEBUG_VALUE: payload_len <- R7
	#DEBUG_VALUE: ifnum <- [R8+0]
	#DEBUG_VALUE: control_process_usb_set_request:i <- R0
	{
		ldc r1, 0
		ldw r0, sp[15]
	}
.Ltmp157:
	{
		nop
		ld8u r1, r8[r1]
	}
	.loc	1 347 3                 # C:/Users/user/workspace/lib_device_control/src/control.xc:347:3
	std r10, r7, sp[1]
	{
		nop
		stw r9, sp[4]
	}
	{
		zext r4, 8
		stw r6, sp[1]
	}
.Ltmp158:
	{
		mov r2, r5
		mov r3, r4
	}
.Lxta.call_labels7:
	bl _Swrite_command_0
.Ltmp159:
.LBB13_3:                               # %return
	{
		nop
		ldw r10, sp[12]
	}
	ldd r9, r8, sp[5]               # 4-byte Folded Reload
	ldd r7, r6, sp[4]               # 4-byte Folded Reload
	ldd r5, r4, sp[3]               # 4-byte Folded Reload
	{
		nop
		retsp 14
	}
	# RETURN_REG_HOLDER
	.cc_bottom control_process_usb_set_request.function
	.set	control_process_usb_set_request.nstackwords,((resource_table_search.nstackwords $M _Swrite_command_0.nstackwords) + 14)
	.globl	control_process_usb_set_request.nstackwords
	.set	control_process_usb_set_request.maxcores,_Swrite_command_0.maxcores $M resource_table_search.maxcores $M 1
	.globl	control_process_usb_set_request.maxcores
	.set	control_process_usb_set_request.maxtimers,_Swrite_command_0.maxtimers $M resource_table_search.maxtimers $M 0
	.globl	control_process_usb_set_request.maxtimers
	.set	control_process_usb_set_request.maxchanends,_Swrite_command_0.maxchanends $M resource_table_search.maxchanends $M 0
	.globl	control_process_usb_set_request.maxchanends
.Ltmp160:
	.size	control_process_usb_set_request, .Ltmp160-control_process_usb_set_request
.Lfunc_end13:
	.cfi_endproc

	.globl	control_process_usb_get_request
	.align	4
	.type	control_process_usb_get_request,@function
	.cc_top control_process_usb_get_request.function,control_process_usb_get_request
control_process_usb_get_request:        # @control_process_usb_get_request
.Lfunc_begin14:
	.loc	1 354 0                 # C:/Users/user/workspace/lib_device_control/src/control.xc:354:0
	.cfi_startproc
	.issue_mode dual
# BB#0:                                 # %allocas
.Lxtalabel49:
	{
		nop
		dualentsp 14
	}
.Ltmp161:
	.cfi_def_cfa_offset 56
.Ltmp162:
	.cfi_offset 15, 0
	std r5, r4, sp[3]               # 4-byte Folded Spill
.Ltmp163:
	.cfi_offset 4, -32
.Ltmp164:
	.cfi_offset 5, -28
	std r7, r6, sp[4]               # 4-byte Folded Spill
.Ltmp165:
	.cfi_offset 6, -24
.Ltmp166:
	.cfi_offset 7, -20
	std r9, r8, sp[5]               # 4-byte Folded Spill
.Ltmp167:
	.cfi_offset 8, -16
.Ltmp168:
	.cfi_offset 9, -12
.Ltmp169:
	.cfi_offset 10, -8
	#DEBUG_VALUE: control_process_usb_get_request:windex <- R0
	#DEBUG_VALUE: control_process_usb_get_request:wvalue <- R1
	#DEBUG_VALUE: control_process_usb_get_request:wlength <- R2
	#DEBUG_VALUE: control_process_usb_get_request:request_data <- R3
.Ltmp170:
	#DEBUG_VALUE: payload_len <- R2
	#DEBUG_VALUE: control_process_usb_get_request:request_data <- R6
	{
		mov r6, r3
		stw r10, sp[12]
	}
.Ltmp171:
	#DEBUG_VALUE: payload_len <- R7
	#DEBUG_VALUE: control_process_usb_get_request:wlength <- R7
	#DEBUG_VALUE: control_process_usb_get_request:wvalue <- R4
	{
		mov r7, r2
		mov r4, r1
	}
.Ltmp172:
	{
		mov r5, r0
		nop
	}
.Ltmp173:
	#DEBUG_VALUE: control_process_usb_get_request:windex <- R5
	ldd r10, r9, sp[8]
.Ltmp174:
	#DEBUG_VALUE: ifnum <- [R8+0]
	.loc	1 364 3 prologue_end    # C:/Users/user/workspace/lib_device_control/src/control.xc:364:3
	{
		zext r5, 8
		ldaw r8, sp[5]
	}
.Ltmp175:
	{
		mov r0, r5
		mov r1, r8
	}
.Lxta.call_labels8:
	bl resource_table_search
	{
		mov r1, r0
		ldc r0, 2
	}
	bt r1, .LBB14_3
# BB#1:                                 # %allocas
.Lxtalabel50:
.Ltmp176:
	#DEBUG_VALUE: control_process_usb_get_request:wvalue <- R4
	#DEBUG_VALUE: control_process_usb_get_request:wlength <- R7
	#DEBUG_VALUE: control_process_usb_get_request:request_data <- R6
	#DEBUG_VALUE: payload_len <- R7
	#DEBUG_VALUE: ifnum <- [R8+0]
	ldc r1, 128
	.loc	1 364 3                 # C:/Users/user/workspace/lib_device_control/src/control.xc:364:3
	{
		and r1, r4, r1
		nop
	}
	bf r1, .LBB14_3
.Ltmp177:
# BB#2:                                 # %ifdone5
.Lxtalabel51:
	#DEBUG_VALUE: control_process_usb_get_request:wvalue <- R4
	#DEBUG_VALUE: control_process_usb_get_request:wlength <- R7
	#DEBUG_VALUE: control_process_usb_get_request:request_data <- R6
	#DEBUG_VALUE: payload_len <- R7
	#DEBUG_VALUE: ifnum <- [R8+0]
	#DEBUG_VALUE: control_process_usb_get_request:i <- R0
	{
		ldc r1, 0
		ldw r0, sp[15]
	}
.Ltmp178:
	{
		nop
		ld8u r1, r8[r1]
	}
	.loc	1 374 3                 # C:/Users/user/workspace/lib_device_control/src/control.xc:374:3
	std r10, r7, sp[1]
	{
		nop
		stw r9, sp[4]
	}
	{
		zext r4, 8
		stw r6, sp[1]
	}
.Ltmp179:
	{
		mov r2, r5
		mov r3, r4
	}
.Lxta.call_labels9:
	bl _Sread_command_0
.Ltmp180:
.LBB14_3:                               # %return
	{
		nop
		ldw r10, sp[12]
	}
	ldd r9, r8, sp[5]               # 4-byte Folded Reload
	ldd r7, r6, sp[4]               # 4-byte Folded Reload
	ldd r5, r4, sp[3]               # 4-byte Folded Reload
	{
		nop
		retsp 14
	}
	# RETURN_REG_HOLDER
	.cc_bottom control_process_usb_get_request.function
	.set	control_process_usb_get_request.nstackwords,((resource_table_search.nstackwords $M _Sread_command_0.nstackwords) + 14)
	.globl	control_process_usb_get_request.nstackwords
	.set	control_process_usb_get_request.maxcores,_Sread_command_0.maxcores $M resource_table_search.maxcores $M 1
	.globl	control_process_usb_get_request.maxcores
	.set	control_process_usb_get_request.maxtimers,_Sread_command_0.maxtimers $M resource_table_search.maxtimers $M 0
	.globl	control_process_usb_get_request.maxtimers
	.set	control_process_usb_get_request.maxchanends,_Sread_command_0.maxchanends $M resource_table_search.maxchanends $M 0
	.globl	control_process_usb_get_request.maxchanends
.Ltmp181:
	.size	control_process_usb_get_request, .Ltmp181-control_process_usb_get_request
.Lfunc_end14:
	.cfi_endproc

	.globl	control_process_xscope_upload
	.align	4
	.type	control_process_xscope_upload,@function
	.cc_top control_process_xscope_upload.function,control_process_xscope_upload
control_process_xscope_upload:          # @control_process_xscope_upload
.Lfunc_begin15:
	.loc	1 381 0                 # C:/Users/user/workspace/lib_device_control/src/control.xc:381:0
	.cfi_startproc
	.issue_mode dual
# BB#0:                                 # %allocas
.Lxtalabel52:
	{
		nop
		dualentsp 14
	}
.Ltmp182:
	.cfi_def_cfa_offset 56
.Ltmp183:
	.cfi_offset 15, 0
	std r5, r4, sp[3]               # 4-byte Folded Spill
.Ltmp184:
	.cfi_offset 4, -32
.Ltmp185:
	.cfi_offset 5, -28
	std r7, r6, sp[4]               # 4-byte Folded Spill
.Ltmp186:
	.cfi_offset 6, -24
.Ltmp187:
	.cfi_offset 7, -20
	std r9, r8, sp[5]               # 4-byte Folded Spill
.Ltmp188:
	.cfi_offset 8, -16
.Ltmp189:
	.cfi_offset 9, -12
.Ltmp190:
	.cfi_offset 10, -8
	#DEBUG_VALUE: control_process_xscope_upload:buf <- R0
	#DEBUG_VALUE: control_process_xscope_upload:buf_size <- R1
	#DEBUG_VALUE: control_process_xscope_upload:length_in <- R2
	#DEBUG_VALUE: control_process_xscope_upload:length_out <- R3
.Ltmp191:
	#DEBUG_VALUE: control_process_xscope_upload:length_out <- R5
	{
		mov r5, r3
		stw r10, sp[12]
	}
.Ltmp192:
	{
		mov r4, r0
		nop
	}
.Ltmp193:
	#DEBUG_VALUE: control_process_xscope_upload:buf <- R4
	ldd r9, r10, sp[8]
	{
		ldc r0, 4
		nop
	}
	.loc	1 389 0 prologue_end    # C:/Users/user/workspace/lib_device_control/src/control.xc:389:0
.Ltmp194:
	{
		lsu r0, r10, r0
		stw r0, r5[0]
	}
.Ltrap_info2:
	{
		ecallt r0
		nop
	}
	#DEBUG_VALUE: control_process_xscope_upload:buf <- R4
	#DEBUG_VALUE: control_process_xscope_upload:buf_size <- R1
	#DEBUG_VALUE: control_process_xscope_upload:length_in <- R2
.Ltmp195:
	#DEBUG_VALUE: control_process_xscope_upload:length_out <- R5
	.loc	1 391 3                 # C:/Users/user/workspace/lib_device_control/src/control.xc:391:3
	{
		ldc r8, 0
		nop
	}
.Ltmp196:
	#DEBUG_VALUE: ifnum <- [R7+0]
	{
		ldaw r7, sp[5]
		ld8u r6, r4[r8]
	}
.Ltmp197:
	.loc	1 391 3                 # C:/Users/user/workspace/lib_device_control/src/control.xc:391:3
	{
		mov r0, r6
		mov r1, r7
	}
.Ltmp198:
.Lxta.call_labels10:
	bl resource_table_search
.Ltmp199:
	.loc	1 391 3                 # C:/Users/user/workspace/lib_device_control/src/control.xc:391:3
	bf r0, .LBB15_2
.Ltmp200:
# BB#1:
	#DEBUG_VALUE: control_process_xscope_upload:buf_size <- R1
	#DEBUG_VALUE: control_process_xscope_upload:length_in <- R2
	{
		ldc r0, 2
		nop
	}
	bu .LBB15_6
.Ltmp201:
.LBB15_2:                               # %afterboundcheck15
.Lxtalabel53:
	#DEBUG_VALUE: control_process_xscope_upload:buf <- R4
	#DEBUG_VALUE: control_process_xscope_upload:buf_size <- R1
	#DEBUG_VALUE: control_process_xscope_upload:length_in <- R2
	#DEBUG_VALUE: control_process_xscope_upload:length_out <- R5
	#DEBUG_VALUE: ifnum <- [R7+0]
	#DEBUG_VALUE: control_process_xscope_upload:i <- R0
	{
		mkmsk r1, 1
		ldw r0, sp[15]
	}
.Ltmp202:
	{
		nop
		ld8u r3, r4[r1]
	}
	.loc	1 396 3                 # C:/Users/user/workspace/lib_device_control/src/control.xc:396:3
	{
		sext r3, 8
		ld8u r1, r7[r8]
	}
	.loc	1 397 0                 # C:/Users/user/workspace/lib_device_control/src/control.xc:397:0
	{
		add r2, r4, 4
		nop
	}
.Ltmp203:
	.loc	1 396 3                 # C:/Users/user/workspace/lib_device_control/src/control.xc:396:3
	ashr r11, r3, 32
	bt r11, .LBB15_3
.Ltmp204:
# BB#5:                                 # %afterboundcheck120
.Lxtalabel54:
	#DEBUG_VALUE: control_process_xscope_upload:buf <- R4
	#DEBUG_VALUE: control_process_xscope_upload:buf_size <- R1
	#DEBUG_VALUE: control_process_xscope_upload:length_in <- R2
	#DEBUG_VALUE: control_process_xscope_upload:i <- R0
	.loc	1 405 0                 # C:/Users/user/workspace/lib_device_control/src/control.xc:405:0
	{
		lsu r11, r2, r4
		nop
	}
.Ltrap_info3:
	{
		ecallt r11
		nop
	}
	#DEBUG_VALUE: control_process_xscope_upload:buf <- R4
	#DEBUG_VALUE: control_process_xscope_upload:buf_size <- R1
	#DEBUG_VALUE: control_process_xscope_upload:length_in <- R2
	#DEBUG_VALUE: control_process_xscope_upload:i <- R0
	.loc	1 405 0                 # C:/Users/user/workspace/lib_device_control/src/control.xc:405:0
	{
		sub r11, r10, 4
		ldc r5, 2
	}
	{
		nop
		ld8u r5, r4[r5]
	}
	.loc	1 405 0                 # C:/Users/user/workspace/lib_device_control/src/control.xc:405:0
	std r9, r5, sp[1]
	{
		nop
		stw r11, sp[4]
	}
	{
		zext r3, 8
		stw r2, sp[1]
	}
	{
		mov r2, r6
		nop
	}
.Ltmp205:
.Lxta.call_labels11:
	bl _Swrite_command_0
.Ltmp206:
	{
		mkmsk r1, 2
		nop
	}
	.loc	1 405 0                 # C:/Users/user/workspace/lib_device_control/src/control.xc:405:0
	st8 r0, r4[r1]
	bu .LBB15_6
.Ltmp207:
.LBB15_3:                               # %afterboundcheck29
.Lxtalabel55:
	#DEBUG_VALUE: control_process_xscope_upload:buf <- R4
	#DEBUG_VALUE: control_process_xscope_upload:buf_size <- R1
	#DEBUG_VALUE: control_process_xscope_upload:length_in <- R2
	#DEBUG_VALUE: control_process_xscope_upload:length_out <- R5
	#DEBUG_VALUE: control_process_xscope_upload:i <- R0
	.loc	1 397 0                 # C:/Users/user/workspace/lib_device_control/src/control.xc:397:0
	{
		lsu r11, r2, r4
		nop
	}
.Ltrap_info4:
	{
		ecallt r11
		nop
	}
	#DEBUG_VALUE: control_process_xscope_upload:buf <- R4
	#DEBUG_VALUE: control_process_xscope_upload:buf_size <- R1
	#DEBUG_VALUE: control_process_xscope_upload:length_in <- R2
	#DEBUG_VALUE: control_process_xscope_upload:length_out <- R5
	#DEBUG_VALUE: control_process_xscope_upload:i <- R0
	.loc	1 397 0                 # C:/Users/user/workspace/lib_device_control/src/control.xc:397:0
	{
		sub r11, r10, 4
		ldc r7, 2
	}
	{
		nop
		ld8u r10, r4[r7]
	}
	.loc	1 397 0                 # C:/Users/user/workspace/lib_device_control/src/control.xc:397:0
	std r9, r10, sp[1]
	{
		nop
		stw r11, sp[4]
	}
	{
		zext r3, 8
		stw r2, sp[1]
	}
	{
		mov r2, r6
		nop
	}
.Ltmp208:
.Lxta.call_labels12:
	bl _Sread_command_0
.Ltmp209:
	{
		mkmsk r1, 2
		nop
	}
	.loc	1 397 0                 # C:/Users/user/workspace/lib_device_control/src/control.xc:397:0
	st8 r0, r4[r1]
	bt r0, .LBB15_6
.Ltmp210:
# BB#4:                                 # %afterboundcheck105
.Lxtalabel56:
	#DEBUG_VALUE: control_process_xscope_upload:buf <- R4
	#DEBUG_VALUE: control_process_xscope_upload:buf_size <- R1
	#DEBUG_VALUE: control_process_xscope_upload:length_in <- R2
	#DEBUG_VALUE: control_process_xscope_upload:length_out <- R5
	{
		nop
		ld8u r0, r4[r7]
	}
	.loc	1 402 0                 # C:/Users/user/workspace/lib_device_control/src/control.xc:402:0
	{
		add r0, r0, 4
		nop
	}
	.loc	1 402 0                 # C:/Users/user/workspace/lib_device_control/src/control.xc:402:0
	{
		mov r0, r8
		stw r0, r5[0]
	}
.Ltmp211:
.LBB15_6:                               # %return
	#DEBUG_VALUE: control_process_xscope_upload:buf_size <- R1
	#DEBUG_VALUE: control_process_xscope_upload:length_in <- R2
	{
		nop
		ldw r10, sp[12]
	}
	ldd r9, r8, sp[5]               # 4-byte Folded Reload
	ldd r7, r6, sp[4]               # 4-byte Folded Reload
	ldd r5, r4, sp[3]               # 4-byte Folded Reload
	{
		nop
		retsp 14
	}
	# RETURN_REG_HOLDER
	.cc_bottom control_process_xscope_upload.function
	.set	control_process_xscope_upload.nstackwords,((resource_table_search.nstackwords $M _Sread_command_0.nstackwords $M _Swrite_command_0.nstackwords) + 14)
	.globl	control_process_xscope_upload.nstackwords
	.set	control_process_xscope_upload.maxcores,_Sread_command_0.maxcores $M _Swrite_command_0.maxcores $M resource_table_search.maxcores $M 1
	.globl	control_process_xscope_upload.maxcores
	.set	control_process_xscope_upload.maxtimers,_Sread_command_0.maxtimers $M _Swrite_command_0.maxtimers $M resource_table_search.maxtimers $M 0
	.globl	control_process_xscope_upload.maxtimers
	.set	control_process_xscope_upload.maxchanends,_Sread_command_0.maxchanends $M _Swrite_command_0.maxchanends $M resource_table_search.maxchanends $M 0
	.globl	control_process_xscope_upload.maxchanends
.Ltmp212:
	.size	control_process_xscope_upload, .Ltmp212-control_process_xscope_upload
.Lfunc_end15:
	.cfi_endproc

	.globl	control_process_spi_master_ends_transaction
	.align	4
	.type	control_process_spi_master_ends_transaction,@function
	.cc_top control_process_spi_master_ends_transaction.function,control_process_spi_master_ends_transaction
control_process_spi_master_ends_transaction: # @control_process_spi_master_ends_transaction
.Lfunc_begin16:
	.loc	1 441 0                 # C:/Users/user/workspace/lib_device_control/src/control.xc:441:0
	.cfi_startproc
	.issue_mode dual
# BB#0:                                 # %allocas
.Lxtalabel57:
	{
		nop
		dualentsp 8
	}
.Ltmp213:
	.cfi_def_cfa_offset 32
.Ltmp214:
	.cfi_offset 15, 0
	std r5, r4, sp[3]               # 4-byte Folded Spill
.Ltmp215:
	.cfi_offset 4, -8
.Ltmp216:
	.cfi_offset 5, -4
	#DEBUG_VALUE: control_process_spi_master_ends_transaction:i_ctl <- R0
.Ltmp217:
	#DEBUG_VALUE: ret <- 0
	#DEBUG_VALUE: reset <- 1
	.loc	1 453 0 prologue_end    # C:/Users/user/workspace/lib_device_control/src/control.xc:453:0
	ldw r2, dp[spi]
	.loc	1 453 0                 # C:/Users/user/workspace/lib_device_control/src/control.xc:453:0
	{
		eq r3, r2, 3
		nop
	}
	bf r3, .LBB16_1
.Ltmp218:
# BB#4:                                 # %switchcase
.Lxtalabel58:
	#DEBUG_VALUE: control_process_spi_master_ends_transaction:i_ctl <- R0
	#DEBUG_VALUE: ret <- 0
	#DEBUG_VALUE: reset <- 1
	.loc	1 455 7                 # C:/Users/user/workspace/lib_device_control/src/control.xc:455:7
	ldw r4, dp[spi+12]
	.loc	1 455 7                 # C:/Users/user/workspace/lib_device_control/src/control.xc:455:7
	ldw r2, dp[spi+8]
	.loc	1 455 7                 # C:/Users/user/workspace/lib_device_control/src/control.xc:455:7
	{
		lsu r2, r4, r2
		nop
	}
	.loc	1 455 7                 # C:/Users/user/workspace/lib_device_control/src/control.xc:455:7
	bf r2, .LBB16_6
.Ltmp219:
# BB#5:
	{
		ldc r4, 5
		nop
	}
	bu .LBB16_7
.LBB16_1:                               # %allocas
.Lxtalabel59:
	{
		eq r0, r2, 6
		nop
	}
	bf r0, .LBB16_2
# BB#3:                                 # %switchdone
.Lxtalabel60:
	{
		mkmsk r0, 3
		nop
	}
	.loc	1 478 0                 # C:/Users/user/workspace/lib_device_control/src/control.xc:478:0
	stw r0, dp[spi]
.Ltmp220:
	#DEBUG_VALUE: reset <- 0
	{
		ldc r4, 0
		nop
	}
	bu .LBB16_8
.LBB16_6:                               # %iffalse
.Lxtalabel61:
.Ltmp221:
	#DEBUG_VALUE: control_process_spi_master_ends_transaction:i_ctl <- R0
	#DEBUG_VALUE: ret <- 0
	#DEBUG_VALUE: reset <- 1
	.loc	1 461 0                 # C:/Users/user/workspace/lib_device_control/src/control.xc:461:0
	{
		ldc r2, 0
		nop
	}
	ldaw r11, dp[spi+4]
	{
		nop
		ld16s r2, r11[r2]
	}
	ldc r3, 65280
	{
		and r3, r2, r3
		nop
	}
	{
		shr r3, r3, 8
		ldc r5, 2
	}
	{
		nop
		ld8u r11, r11[r5]
	}
	.loc	1 461 0                 # C:/Users/user/workspace/lib_device_control/src/control.xc:461:0
	std r1, r4, sp[1]
	{
		zext r2, 8
		nop
	}
	ldc r1, 253
	{
		nop
		stw r1, sp[4]
	}
	ldaw r1, dp[spi+16]
	{
		mov r1, r11
		stw r1, sp[1]
	}
.Lxta.call_labels13:
	bl _Swrite_command_0
.Ltmp222:
	{
		mov r4, r0
		nop
	}
	bu .LBB16_7
.LBB16_2:
	{
		ldc r4, 0
		nop
	}
.LBB16_7:                               # %iftrue25
.Lxtalabel62:
	#DEBUG_VALUE: ret <- 0
	#DEBUG_VALUE: reset <- 1
.Ltmp223:
	#DEBUG_VALUE: _safe_memset:c <- 0
	#DEBUG_VALUE: _safe_memset:n <- 272
	.file	2 "C:\\Program Files (x86)\\XMOS\\xTIMEcomposer\\Community_14.3.3\\target/include/xc\\safe\\string.h"
	.loc	2 21 0                  # C:\Program Files (x86)\XMOS\xTIMEcomposer\Community_14.3.3\target/include/xc\safe/string.h:21:0
	ldaw r0, dp[spi]
	{
		ldc r1, 0
		nop
	}
	ldc r2, 272
	bl memset
.Ltmp224:
.LBB16_8:                               # %ifdone26
.Lxtalabel63:
	{
		mov r0, r4
		nop
	}
	ldd r5, r4, sp[3]               # 4-byte Folded Reload
	{
		nop
		retsp 8
	}
	# RETURN_REG_HOLDER
	.cc_bottom control_process_spi_master_ends_transaction.function
	.set	control_process_spi_master_ends_transaction.nstackwords,((memset.nstackwords $M _Swrite_command_0.nstackwords) + 8)
	.globl	control_process_spi_master_ends_transaction.nstackwords
	.set	control_process_spi_master_ends_transaction.maxcores,_Swrite_command_0.maxcores $M 1
	.globl	control_process_spi_master_ends_transaction.maxcores
	.set	control_process_spi_master_ends_transaction.maxtimers,_Swrite_command_0.maxtimers $M 0
	.globl	control_process_spi_master_ends_transaction.maxtimers
	.set	control_process_spi_master_ends_transaction.maxchanends,_Swrite_command_0.maxchanends $M 0
	.globl	control_process_spi_master_ends_transaction.maxchanends
.Ltmp225:
	.size	control_process_spi_master_ends_transaction, .Ltmp225-control_process_spi_master_ends_transaction
.Lfunc_end16:
	.cfi_endproc

	.globl	control_process_spi_master_requires_data
	.align	4
	.type	control_process_spi_master_requires_data,@function
	.cc_top control_process_spi_master_requires_data.function,control_process_spi_master_requires_data
control_process_spi_master_requires_data: # @control_process_spi_master_requires_data
.Lfunc_begin17:
	.loc	1 492 0                 # C:/Users/user/workspace/lib_device_control/src/control.xc:492:0
	.cfi_startproc
	.issue_mode dual
# BB#0:                                 # %allocas
.Lxtalabel64:
	{
		nop
		dualentsp 8
	}
.Ltmp226:
	.cfi_def_cfa_offset 32
.Ltmp227:
	.cfi_offset 15, 0
	std r5, r4, sp[3]               # 4-byte Folded Spill
.Ltmp228:
	.cfi_offset 4, -8
.Ltmp229:
	.cfi_offset 5, -4
	#DEBUG_VALUE: control_process_spi_master_requires_data:data <- R0
	#DEBUG_VALUE: control_process_spi_master_requires_data:i_ctl <- R1
.Ltmp230:
	#DEBUG_VALUE: ret <- 0
	#DEBUG_VALUE: control_process_spi_master_requires_data:data <- R3
	{
		mov r3, r0
		ldc r0, 0
	}
.Ltmp231:
	{
		nop
		stw r0, r3[0]
	}
	.loc	1 496 0 prologue_end    # C:/Users/user/workspace/lib_device_control/src/control.xc:496:0
.Ltmp232:
	ldw r11, dp[spi]
	.loc	1 496 0                 # C:/Users/user/workspace/lib_device_control/src/control.xc:496:0
	{
		eq r4, r11, 5
		nop
	}
	bf r4, .LBB17_1
.Ltmp233:
# BB#3:                                 # %switchcase
.Lxtalabel65:
	#DEBUG_VALUE: control_process_spi_master_requires_data:i_ctl <- R1
	#DEBUG_VALUE: ret <- 0
	.loc	1 498 0                 # C:/Users/user/workspace/lib_device_control/src/control.xc:498:0
	{
		ldc r0, 0
		nop
	}
	ldaw r4, dp[spi+4]
	{
		nop
		ld16s r11, r4[r0]
	}
	ldc r0, 65280
	{
		and r0, r11, r0
		nop
	}
	{
		shr r3, r0, 8
		nop
	}
	.loc	1 498 0                 # C:/Users/user/workspace/lib_device_control/src/control.xc:498:0
	ldw r0, dp[spi+8]
	{
		ldc r5, 2
		nop
	}
	{
		nop
		ld8u r4, r4[r5]
	}
	.loc	1 498 0                 # C:/Users/user/workspace/lib_device_control/src/control.xc:498:0
	std r2, r0, sp[1]
	{
		zext r11, 8
		nop
	}
	ldc r0, 253
	{
		nop
		stw r0, sp[4]
	}
	ldaw r0, dp[spi+16]
	{
		mov r0, r1
		stw r0, sp[1]
	}
	{
		mov r1, r4
		mov r2, r11
	}
.Ltmp234:
.Lxta.call_labels14:
	bl _Sread_command_0
	{
		ldc r1, 6
		nop
	}
	.loc	1 500 0                 # C:/Users/user/workspace/lib_device_control/src/control.xc:500:0
	stw r1, dp[spi]
	bu .LBB17_2
.LBB17_1:                               # %allocas
.Lxtalabel66:
.Ltmp235:
	#DEBUG_VALUE: control_process_spi_master_requires_data:data <- R3
	{
		eq r1, r11, 7
		nop
	}
	bf r1, .LBB17_2
.Ltmp236:
# BB#4:                                 # %switchcase1
.Lxtalabel67:
	#DEBUG_VALUE: control_process_spi_master_requires_data:data <- R3
	.loc	1 504 7                 # C:/Users/user/workspace/lib_device_control/src/control.xc:504:7
	ldw r1, dp[spi+12]
	.loc	1 504 7                 # C:/Users/user/workspace/lib_device_control/src/control.xc:504:7
	ldw r2, dp[spi+8]
	.loc	1 504 7                 # C:/Users/user/workspace/lib_device_control/src/control.xc:504:7
	{
		lsu r2, r1, r2
		nop
	}
	bf r2, .LBB17_2
.Ltmp237:
# BB#5:                                 # %switchcase1
.Lxtalabel68:
	#DEBUG_VALUE: control_process_spi_master_requires_data:data <- R3
	ldc r2, 252
	{
		lsu r2, r2, r1
		nop
	}
	bt r2, .LBB17_2
.Ltmp238:
# BB#6:                                 # %afterboundcheck
.Lxtalabel69:
	#DEBUG_VALUE: control_process_spi_master_requires_data:data <- R3
	.loc	1 506 0                 # C:/Users/user/workspace/lib_device_control/src/control.xc:506:0
	ldaw r2, dp[spi]
	{
		add r2, r2, r1
		ldc r11, 16
	}
	{
		nop
		ld8u r2, r2[r11]
	}
	.loc	1 506 0                 # C:/Users/user/workspace/lib_device_control/src/control.xc:506:0
	{
		add r1, r1, 1
		stw r2, r3[0]
	}
	.loc	1 507 0                 # C:/Users/user/workspace/lib_device_control/src/control.xc:507:0
	stw r1, dp[spi+12]
.Ltmp239:
.LBB17_2:                               # %switchdone
.Lxtalabel70:
	ldd r5, r4, sp[3]               # 4-byte Folded Reload
	{
		nop
		retsp 8
	}
	# RETURN_REG_HOLDER
	.cc_bottom control_process_spi_master_requires_data.function
	.set	control_process_spi_master_requires_data.nstackwords,(_Sread_command_0.nstackwords + 8)
	.globl	control_process_spi_master_requires_data.nstackwords
	.set	control_process_spi_master_requires_data.maxcores,_Sread_command_0.maxcores $M 1
	.globl	control_process_spi_master_requires_data.maxcores
	.set	control_process_spi_master_requires_data.maxtimers,_Sread_command_0.maxtimers $M 0
	.globl	control_process_spi_master_requires_data.maxtimers
	.set	control_process_spi_master_requires_data.maxchanends,_Sread_command_0.maxchanends $M 0
	.globl	control_process_spi_master_requires_data.maxchanends
.Ltmp240:
	.size	control_process_spi_master_requires_data, .Ltmp240-control_process_spi_master_requires_data
.Lfunc_end17:
	.cfi_endproc

	.globl	control_process_spi_master_supplied_data
	.align	4
	.type	control_process_spi_master_supplied_data,@function
	.cc_top control_process_spi_master_supplied_data.function,control_process_spi_master_supplied_data
control_process_spi_master_supplied_data: # @control_process_spi_master_supplied_data
.Lfunc_begin18:
	.loc	1 517 0                 # C:/Users/user/workspace/lib_device_control/src/control.xc:517:0
	.cfi_startproc
	.issue_mode dual
# BB#0:                                 # %allocas
.Lxtalabel71:
	{
		nop
		dualentsp 6
	}
.Ltmp241:
	.cfi_def_cfa_offset 24
.Ltmp242:
	.cfi_offset 15, 0
	std r5, r4, sp[1]               # 4-byte Folded Spill
.Ltmp243:
	.cfi_offset 4, -16
.Ltmp244:
	.cfi_offset 5, -12
.Ltmp245:
	.cfi_offset 6, -8
	#DEBUG_VALUE: control_process_spi_master_supplied_data:datum <- R0
	#DEBUG_VALUE: control_process_spi_master_supplied_data:valid_bits <- R1
	#DEBUG_VALUE: control_process_spi_master_supplied_data:i_ctl <- R2
.Ltmp246:
	#DEBUG_VALUE: ret <- 0
	#DEBUG_VALUE: control_process_spi_master_supplied_data:datum <- R4
	{
		mov r4, r0
		stw r6, sp[4]
	}
.Ltmp247:
	{
		ldc r6, 5
		eq r0, r1, 8
	}
	.loc	1 526 3 prologue_end    # C:/Users/user/workspace/lib_device_control/src/control.xc:526:3
.Ltmp248:
	bf r0, .LBB18_1
.Ltmp249:
# BB#2:                                 # %ifdone
.Lxtalabel72:
	#DEBUG_VALUE: control_process_spi_master_supplied_data:datum <- R4
	#DEBUG_VALUE: control_process_spi_master_supplied_data:i_ctl <- R2
	#DEBUG_VALUE: ret <- 0
	.loc	1 532 3                 # C:/Users/user/workspace/lib_device_control/src/control.xc:532:3
	ldw r1, dp[spi]
	.loc	1 532 3                 # C:/Users/user/workspace/lib_device_control/src/control.xc:532:3
	{
		eq r0, r1, 6
		nop
	}
	bf r0, .LBB18_7
.Ltmp250:
# BB#3:                                 # %ifdone
.Lxtalabel73:
	#DEBUG_VALUE: control_process_spi_master_supplied_data:datum <- R4
	#DEBUG_VALUE: control_process_spi_master_supplied_data:i_ctl <- R2
	bf r4, .LBB18_7
.Ltmp251:
# BB#4:                                 # %ifdone2.thread
.Lxtalabel74:
	#DEBUG_VALUE: control_process_spi_master_supplied_data:datum <- R4
	#DEBUG_VALUE: control_process_spi_master_supplied_data:i_ctl <- R2
	#DEBUG_VALUE: _safe_memset:c <- 0
	#DEBUG_VALUE: _safe_memset:n <- 272
	.loc	2 21 0                  # C:\Program Files (x86)\XMOS\xTIMEcomposer\Community_14.3.3\target/include/xc\safe/string.h:21:0
	ldaw r0, dp[spi]
	{
		ldc r1, 0
		nop
	}
	ldc r2, 272
.Ltmp252:
	bl memset
.Ltmp253:
.LBB18_5:                               # %switchcase
.Lxtalabel75:
	#DEBUG_VALUE: control_process_spi_master_supplied_data:datum <- R4
	#DEBUG_VALUE: control_process_spi_master_supplied_data:i_ctl <- R2
	#DEBUG_VALUE: ret <- 0
	.loc	1 540 7                 # C:/Users/user/workspace/lib_device_control/src/control.xc:540:7
	{
		mov r0, r4
		nop
	}
.Ltmp254:
	#DEBUG_VALUE: ifnum <- [R5+0]
	{
		zext r0, 8
		ldaw r5, sp[1]
	}
.Ltmp255:
	{
		mov r1, r5
		nop
	}
.Lxta.call_labels15:
	bl resource_table_search
.Ltmp256:
	.loc	1 540 7                 # C:/Users/user/workspace/lib_device_control/src/control.xc:540:7
	bf r0, .LBB18_20
.Ltmp257:
# BB#6:                                 # %iftrue10
.Lxtalabel76:
	#DEBUG_VALUE: control_process_spi_master_supplied_data:i_ctl <- R2
	#DEBUG_VALUE: ret <- 0
	{
		ldc r0, 8
		nop
	}
	.loc	1 542 0                 # C:/Users/user/workspace/lib_device_control/src/control.xc:542:0
	stw r0, dp[spi]
.Ltmp258:
	#DEBUG_VALUE: ret <- 5
	{
		mov r0, r6
		nop
	}
	bu .LBB18_22
.Ltmp259:
.LBB18_1:
	#DEBUG_VALUE: control_process_spi_master_supplied_data:i_ctl <- R2
	{
		mov r0, r6
		nop
	}
	bu .LBB18_22
.Ltmp260:
.LBB18_7:                               # %ifdone2
.Lxtalabel77:
	#DEBUG_VALUE: control_process_spi_master_supplied_data:datum <- R4
	#DEBUG_VALUE: control_process_spi_master_supplied_data:i_ctl <- R2
	#DEBUG_VALUE: ret <- 0
	{
		ldc r0, 0
		ldc r2, 9
	}
.Ltmp261:
	.loc	1 537 0                 # C:/Users/user/workspace/lib_device_control/src/control.xc:537:0
	{
		lsu r3, r2, r1
		nop
	}
	bt r3, .LBB18_22
.Ltmp262:
# BB#8:                                 # %ifdone2
.Lxtalabel78:
	#DEBUG_VALUE: control_process_spi_master_supplied_data:datum <- R4
	#DEBUG_VALUE: control_process_spi_master_supplied_data:i_ctl <- R2

	.xtabranch .Ljumptable2+4,.Ljumptable2+8,.Ljumptable2+12,.Ljumptable2+16,.Ljumptable2+20,.Ljumptable2+24,.Ljumptable2+28,.Ljumptable2+32,.Ljumptable2+36,.Ljumptable2+40
.Ljumptable2:
		
	{
		nop
		bru r1
	}
	.jmptable32 .LBB18_5,.LBB18_11,.LBB18_13,.LBB18_14,.LBB18_9,.LBB18_22,.LBB18_22,.LBB18_22,.LBB18_22,.LBB18_18
.Ltmp263:
.LBB18_11:                              # %switchcase9
.Lxtalabel79:
	#DEBUG_VALUE: control_process_spi_master_supplied_data:datum <- R4
	#DEBUG_VALUE: control_process_spi_master_supplied_data:i_ctl <- R2
	.loc	1 552 0                 # C:/Users/user/workspace/lib_device_control/src/control.xc:552:0
	{
		mov r1, r4
		nop
	}
	{
		zext r1, 7
		mkmsk r2, 1
	}
.Ltmp264:
	ldaw r3, dp[spi+4]
	.loc	1 552 0                 # C:/Users/user/workspace/lib_device_control/src/control.xc:552:0
	st8 r1, r3[r2]
	ldc r1, 128
	.loc	1 553 7                 # C:/Users/user/workspace/lib_device_control/src/control.xc:553:7
	{
		and r1, r4, r1
		nop
	}
	.loc	1 553 7                 # C:/Users/user/workspace/lib_device_control/src/control.xc:553:7
	bf r1, .LBB18_12
.Ltmp265:
# BB#10:                                # %iftrue22
.Lxtalabel80:
	#DEBUG_VALUE: control_process_spi_master_supplied_data:i_ctl <- R2
	{
		ldc r1, 4
		nop
	}
	bu .LBB18_21
.Ltmp266:
.LBB18_20:                              # %iffalse
.Lxtalabel81:
	#DEBUG_VALUE: control_process_spi_master_supplied_data:datum <- R4
	#DEBUG_VALUE: control_process_spi_master_supplied_data:i_ctl <- R2
	#DEBUG_VALUE: ret <- 0
	#DEBUG_VALUE: ifnum <- [R5+0]
	.loc	1 546 0                 # C:/Users/user/workspace/lib_device_control/src/control.xc:546:0
	{
		ldc r0, 0
		nop
	}
	ldaw r1, dp[spi+4]
	.loc	1 545 0                 # C:/Users/user/workspace/lib_device_control/src/control.xc:545:0
	st8 r4, r1[r0]
	.loc	1 546 0                 # C:/Users/user/workspace/lib_device_control/src/control.xc:546:0
	{
		ldc r3, 2
		ld8u r2, r5[r0]
	}
.Ltmp267:
	.loc	1 546 0                 # C:/Users/user/workspace/lib_device_control/src/control.xc:546:0
	st8 r2, r1[r3]
	{
		mkmsk r1, 1
		nop
	}
.Ltmp268:
.LBB18_21:                              # %return
	.loc	1 547 0                 # C:/Users/user/workspace/lib_device_control/src/control.xc:547:0
	stw r1, dp[spi]
	bu .LBB18_22
.Ltmp269:
.LBB18_13:                              # %switchcase29
.Lxtalabel82:
	#DEBUG_VALUE: control_process_spi_master_supplied_data:datum <- R4
	#DEBUG_VALUE: control_process_spi_master_supplied_data:i_ctl <- R2
	.loc	1 566 0                 # C:/Users/user/workspace/lib_device_control/src/control.xc:566:0
	stw r4, dp[spi+8]
	{
		mkmsk r1, 2
		nop
	}
	bu .LBB18_21
.Ltmp270:
.LBB18_14:                              # %switchcase32
.Lxtalabel83:
	#DEBUG_VALUE: control_process_spi_master_supplied_data:datum <- R4
	#DEBUG_VALUE: control_process_spi_master_supplied_data:i_ctl <- R2
	.loc	1 571 7                 # C:/Users/user/workspace/lib_device_control/src/control.xc:571:7
	ldw r1, dp[spi+12]
	.loc	1 571 7                 # C:/Users/user/workspace/lib_device_control/src/control.xc:571:7
	ldw r0, dp[spi+8]
	.loc	1 571 7                 # C:/Users/user/workspace/lib_device_control/src/control.xc:571:7
	{
		lsu r0, r1, r0
		nop
	}
	bf r0, .LBB18_16
.Ltmp271:
# BB#15:                                # %switchcase32
.Lxtalabel84:
	#DEBUG_VALUE: control_process_spi_master_supplied_data:datum <- R4
	#DEBUG_VALUE: control_process_spi_master_supplied_data:i_ctl <- R2
	ldc r0, 253
	{
		lsu r0, r1, r0
		nop
	}
	bf r0, .LBB18_16
.Ltmp272:
# BB#17:                                # %afterboundcheck
.Lxtalabel85:
	#DEBUG_VALUE: control_process_spi_master_supplied_data:datum <- R4
	#DEBUG_VALUE: control_process_spi_master_supplied_data:i_ctl <- R2
	.loc	1 573 0                 # C:/Users/user/workspace/lib_device_control/src/control.xc:573:0
	ldaw r0, dp[spi]
	{
		add r0, r0, r1
		ldc r1, 16
	}
	.loc	1 573 0                 # C:/Users/user/workspace/lib_device_control/src/control.xc:573:0
	st8 r4, r0[r1]
	{
		ldc r0, 0
		nop
	}
.Ltmp273:
.LBB18_18:                              # %switchcase35
.Lxtalabel86:
	#DEBUG_VALUE: control_process_spi_master_supplied_data:i_ctl <- R2
	.loc	1 582 0                 # C:/Users/user/workspace/lib_device_control/src/control.xc:582:0
	ldw r1, dp[spi+12]
	bu .LBB18_19
.Ltmp274:
.LBB18_9:                               # %switchcase19
.Lxtalabel87:
	#DEBUG_VALUE: control_process_spi_master_supplied_data:datum <- R4
	#DEBUG_VALUE: control_process_spi_master_supplied_data:i_ctl <- R2
	.loc	1 561 0                 # C:/Users/user/workspace/lib_device_control/src/control.xc:561:0
	stw r4, dp[spi+8]
	{
		ldc r1, 5
		nop
	}
	bu .LBB18_21
.Ltmp275:
.LBB18_16:                              # %iffalse53.critedge
.Lxtalabel88:
	#DEBUG_VALUE: control_process_spi_master_supplied_data:i_ctl <- R2
	.loc	1 575 0                 # C:/Users/user/workspace/lib_device_control/src/control.xc:575:0
	stw r2, dp[spi]
.Ltmp276:
	#DEBUG_VALUE: ret <- 5
	{
		ldc r0, 5
		nop
	}
.Ltmp277:
.LBB18_19:                              # %ifdone37
.Lxtalabel89:
	#DEBUG_VALUE: control_process_spi_master_supplied_data:i_ctl <- R2
	.loc	1 578 0                 # C:/Users/user/workspace/lib_device_control/src/control.xc:578:0
	{
		add r1, r1, 1
		nop
	}
	.loc	1 578 0                 # C:/Users/user/workspace/lib_device_control/src/control.xc:578:0
	stw r1, dp[spi+12]
.Ltmp278:
.LBB18_22:                              # %return
	#DEBUG_VALUE: control_process_spi_master_supplied_data:i_ctl <- R2
	{
		zext r0, 8
		ldw r6, sp[4]
	}
	ldd r5, r4, sp[1]               # 4-byte Folded Reload
	{
		nop
		retsp 6
	}
	# RETURN_REG_HOLDER
.Ltmp279:
.LBB18_12:                              # %iffalse27
.Lxtalabel90:
	#DEBUG_VALUE: control_process_spi_master_supplied_data:i_ctl <- R2
	{
		ldc r1, 2
		nop
	}
	bu .LBB18_21
	.cc_bottom control_process_spi_master_supplied_data.function
	.set	control_process_spi_master_supplied_data.nstackwords,((memset.nstackwords $M resource_table_search.nstackwords) + 6)
	.globl	control_process_spi_master_supplied_data.nstackwords
	.set	control_process_spi_master_supplied_data.maxcores,resource_table_search.maxcores $M 1
	.globl	control_process_spi_master_supplied_data.maxcores
	.set	control_process_spi_master_supplied_data.maxtimers,resource_table_search.maxtimers $M 0
	.globl	control_process_spi_master_supplied_data.maxtimers
	.set	control_process_spi_master_supplied_data.maxchanends,resource_table_search.maxchanends $M 0
	.globl	control_process_spi_master_supplied_data.maxchanends
.Ltmp280:
	.size	control_process_spi_master_supplied_data, .Ltmp280-control_process_spi_master_supplied_data
.Lfunc_end18:
	.cfi_endproc

	.align	4
	.type	_Swrite_command_0,@function
	.cc_top _Swrite_command_0.function,_Swrite_command_0
_Swrite_command_0:                      # @_Swrite_command_0
.Lfunc_begin19:
	.loc	1 87 0                  # C:/Users/user/workspace/lib_device_control/src/control.xc:87:0
	.cfi_startproc
	.issue_mode dual
# BB#0:                                 # %allocas
.Lxtalabel91:
	{
		nop
		dualentsp 4
	}
.Ltmp281:
	.cfi_def_cfa_offset 16
.Ltmp282:
	.cfi_offset 15, 0
	std r5, r4, sp[1]               # 4-byte Folded Spill
.Ltmp283:
	.cfi_offset 4, -8
.Ltmp284:
	.cfi_offset 5, -4
	#DEBUG_VALUE: write_command:i <- R0
	#DEBUG_VALUE: write_command:ifnum <- R1
	#DEBUG_VALUE: write_command:resid <- R2
	#DEBUG_VALUE: write_command:cmd <- R3
	ldd r11, r4, sp[3]
	#DEBUG_VALUE: write_command:payload_len <- R4
	.loc	1 88 3 prologue_end     # C:/Users/user/workspace/lib_device_control/src/control.xc:88:3
.Ltmp285:
	bf r2, .LBB19_1
.Ltmp286:
# BB#2:                                 # %iffalse
.Lxtalabel92:
	#DEBUG_VALUE: write_command:i <- R0
	#DEBUG_VALUE: write_command:ifnum <- R1
	#DEBUG_VALUE: write_command:resid <- R2
	#DEBUG_VALUE: write_command:cmd <- R3
	#DEBUG_VALUE: write_command:payload_len <- R4
	.loc	1 94 5                  # C:/Users/user/workspace/lib_device_control/src/control.xc:94:5
	{
		lsu r11, r1, r11
		nop
	}
.Ltrap_info5:
	{
		ecallf r11
		nop
	}
	#DEBUG_VALUE: write_command:i <- R0
	#DEBUG_VALUE: write_command:ifnum <- R1
	#DEBUG_VALUE: write_command:resid <- R2
	#DEBUG_VALUE: write_command:cmd <- R3
	#DEBUG_VALUE: write_command:payload_len <- R4
	{
		nop
		ldw r11, sp[8]
	}
	.loc	1 94 5                  # C:/Users/user/workspace/lib_device_control/src/control.xc:94:5
	{
		lsu r11, r11, r4
		nop
	}
.Ltrap_info6:
	{
		ecallt r11
		nop
	}
	#DEBUG_VALUE: write_command:i <- R0
	#DEBUG_VALUE: write_command:ifnum <- R1
	#DEBUG_VALUE: write_command:resid <- R2
	#DEBUG_VALUE: write_command:cmd <- R3
	#DEBUG_VALUE: write_command:payload_len <- R4
	{
		nop
		ldw r11, sp[5]
	}
	#DEBUG_VALUE: write_command:payload <- R11
	{
		nop
		ldw r0, r0[r1]
	}
.Ltmp287:
	{
		nop
		ldw r1, r0[1]
	}
.Ltmp288:
	{
		nop
		ldw r5, r1[1]
	}
	{
		nop
		ldw r0, r0[0]
	}
	.loc	1 94 5                  # C:/Users/user/workspace/lib_device_control/src/control.xc:94:5
	{
		mov r1, r2
		stw r4, sp[1]
	}
	{
		mov r2, r3
		mov r3, r11
	}
.Ltmp289:
.Lxta.call_labels16:
	{
		nop
		bla r5
	}
.Ltmp290:
	bu .LBB19_3
.Ltmp291:
.LBB19_1:
	{
		ldc r0, 2
		nop
	}
.LBB19_3:                               # %return
	ldd r5, r4, sp[1]               # 4-byte Folded Reload
	{
		nop
		retsp 4
	}
	# RETURN_REG_HOLDER
	.cc_bottom _Swrite_command_0.function
	.set	_Swrite_command_0.nstackwords,(_i.control.write_command.max.nstackwords + 4)
	.set	_Swrite_command_0.maxcores,_i.control.write_command.max.maxcores $M 1
	.set	_Swrite_command_0.maxtimers,_i.control.write_command.max.maxtimers $M 0
	.set	_Swrite_command_0.maxchanends,_i.control.write_command.max.maxchanends $M 0
.Ltmp292:
	.size	_Swrite_command_0, .Ltmp292-_Swrite_command_0
.Lfunc_end19:
	.cfi_endproc

	.align	4
	.type	_Sread_command_0,@function
	.cc_top _Sread_command_0.function,_Sread_command_0
_Sread_command_0:                       # @_Sread_command_0
.Lfunc_begin20:
	.loc	1 102 0                 # C:/Users/user/workspace/lib_device_control/src/control.xc:102:0
	.cfi_startproc
	.issue_mode dual
# BB#0:                                 # %allocas
.Lxtalabel93:
	{
		nop
		dualentsp 6
	}
.Ltmp293:
	.cfi_def_cfa_offset 24
.Ltmp294:
	.cfi_offset 15, 0
	std r5, r4, sp[1]               # 4-byte Folded Spill
.Ltmp295:
	.cfi_offset 4, -16
.Ltmp296:
	.cfi_offset 5, -12
.Ltmp297:
	.cfi_offset 6, -8
	#DEBUG_VALUE: read_command:i <- R0
	#DEBUG_VALUE: read_command:ifnum <- R1
	#DEBUG_VALUE: read_command:resid <- R2
	#DEBUG_VALUE: read_command:cmd <- R3
.Ltmp298:
	#DEBUG_VALUE: read_command:cmd <- R11
	{
		mov r11, r3
		stw r6, sp[4]
	}
.Ltmp299:
	{
		nop
		ldw r5, sp[10]
	}
	ldd r6, r4, sp[4]
	#DEBUG_VALUE: read_command:payload_len <- R4
	{
		nop
		ldw r3, sp[7]
	}
	#DEBUG_VALUE: read_command:payload <- R3
	.loc	1 103 3 prologue_end    # C:/Users/user/workspace/lib_device_control/src/control.xc:103:3
.Ltmp300:
	bf r2, .LBB20_1
.Ltmp301:
# BB#4:                                 # %iffalse
.Lxtalabel94:
	#DEBUG_VALUE: read_command:i <- R0
	#DEBUG_VALUE: read_command:ifnum <- R1
	#DEBUG_VALUE: read_command:resid <- R2
	#DEBUG_VALUE: read_command:cmd <- R11
	#DEBUG_VALUE: read_command:payload_len <- R4
	#DEBUG_VALUE: read_command:payload <- R3
	.loc	1 108 5                 # C:/Users/user/workspace/lib_device_control/src/control.xc:108:5
	{
		lsu r6, r1, r6
		nop
	}
.Ltrap_info7:
	{
		ecallf r6
		nop
	}
	#DEBUG_VALUE: read_command:i <- R0
	#DEBUG_VALUE: read_command:ifnum <- R1
	#DEBUG_VALUE: read_command:resid <- R2
	#DEBUG_VALUE: read_command:cmd <- R11
	#DEBUG_VALUE: read_command:payload_len <- R4
	#DEBUG_VALUE: read_command:payload <- R3
	.loc	1 108 5                 # C:/Users/user/workspace/lib_device_control/src/control.xc:108:5
	{
		lsu r5, r5, r4
		nop
	}
.Ltrap_info8:
	{
		ecallt r5
		nop
	}
	#DEBUG_VALUE: read_command:i <- R0
	#DEBUG_VALUE: read_command:ifnum <- R1
	#DEBUG_VALUE: read_command:resid <- R2
	#DEBUG_VALUE: read_command:cmd <- R11
	#DEBUG_VALUE: read_command:payload_len <- R4
	#DEBUG_VALUE: read_command:payload <- R3
	{
		nop
		ldw r0, r0[r1]
	}
.Ltmp302:
	{
		nop
		ldw r1, r0[1]
	}
.Ltmp303:
	{
		nop
		ldw r5, r1[2]
	}
	{
		nop
		ldw r0, r0[0]
	}
	.loc	1 108 5                 # C:/Users/user/workspace/lib_device_control/src/control.xc:108:5
	{
		mov r1, r2
		stw r4, sp[1]
	}
	{
		mov r2, r11
		nop
	}
.Ltmp304:
.Lxta.call_labels17:
	{
		nop
		bla r5
	}
.Ltmp305:
	bu .LBB20_5
.Ltmp306:
.LBB20_1:                               # %iftrue
.Lxtalabel95:
	#DEBUG_VALUE: read_command:cmd <- R11
	#DEBUG_VALUE: read_command:payload_len <- R4
	#DEBUG_VALUE: read_command:payload <- R3
	{
		ldc r0, 2
		nop
	}
	ldc r1, 128
	.loc	1 64 3                  # C:/Users/user/workspace/lib_device_control/src/control.xc:64:3
.Ltmp307:
	{
		eq r1, r11, r1
		nop
	}
	bf r1, .LBB20_5
.Ltmp308:
# BB#2:                                 # %iftrue
.Lxtalabel96:
	#DEBUG_VALUE: read_command:payload_len <- R4
	#DEBUG_VALUE: read_command:payload <- R3
	{
		eq r1, r4, 1
		nop
	}
	bf r1, .LBB20_5
.Ltmp309:
# BB#3:                                 # %iffalse7.i
.Lxtalabel97:
	#DEBUG_VALUE: read_command:payload <- R3
	.loc	1 104 5                 # C:/Users/user/workspace/lib_device_control/src/control.xc:104:5
.Ltrap_info9:
	{
		ecallf r5
		nop
	}
	#DEBUG_VALUE: read_command:payload <- R3
.Ltmp310:
	#DEBUG_VALUE: special_read_command:payload <- R3
	.loc	1 73 0                  # C:/Users/user/workspace/lib_device_control/src/control.xc:73:0
	{
		ldc r0, 0
		ldc r1, 16
	}
	st8 r1, r3[r0]
.Ltmp311:
.LBB20_5:                               # %return
	{
		nop
		ldw r6, sp[4]
	}
	ldd r5, r4, sp[1]               # 4-byte Folded Reload
	{
		nop
		retsp 6
	}
	# RETURN_REG_HOLDER
	.cc_bottom _Sread_command_0.function
	.set	_Sread_command_0.nstackwords,(_i.control.read_command.max.nstackwords + 6)
	.set	_Sread_command_0.maxcores,_i.control.read_command.max.maxcores $M 1
	.set	_Sread_command_0.maxtimers,_i.control.read_command.max.maxtimers $M 0
	.set	_Sread_command_0.maxchanends,_i.control.read_command.max.maxchanends $M 0
.Ltmp312:
	.size	_Sread_command_0, .Ltmp312-_Sread_command_0
.Lfunc_end20:
	.cfi_endproc

	.section	.dp.data.4,"awd",@progbits
	.cc_top i2c.data,i2c
	.align	4
	.type	i2c,@object
	.size	i2c, 272
i2c:
	.long	0                       # 0x0
	.byte	0                       # 0x0
	.byte	0                       # 0x0
	.byte	0                       # 0x0
	.space	1
	.long	0                       # 0x0
	.long	0                       # 0x0
	.space	253
	.space	3
	.cc_bottom i2c.data
	.cc_top spi.data,spi
	.align	4
	.type	spi,@object
	.size	spi, 272
spi:
	.long	0                       # 0x0
	.byte	0                       # 0x0
	.byte	0                       # 0x0
	.byte	0                       # 0x0
	.space	1
	.long	0                       # 0x0
	.long	0                       # 0x0
	.space	253
	.space	3
	.cc_bottom spi.data
.Ldebug_end0:
	.text
.Ldebug_end1:
	.section	.xtacalltable,"",@progbits
.Lentries_start0:
	.long	.Lentries_end1-.Lentries_start0
	.long	0
	.ascii	"C:\\Users\\user\\workspace\\app_vf_spk_base\\.build_1i0o0_cir43_i2s_only_16khz"
	.byte	0
.cc_top cc_0,.Lxta.call_labels0
	.ascii	"C:/Users/user/workspace/lib_device_control/src/control.xc"
	.byte	0
	.long	15
	.long	.Lxta.call_labels0
.cc_bottom cc_0
.cc_top cc_1,.Lxta.call_labels1
	.ascii	"C:/Users/user/workspace/lib_device_control/src/control.xc"
	.byte	0
	.long	29
	.long	.Lxta.call_labels1
.cc_bottom cc_1
.cc_top cc_2,.Lxta.call_labels2
	.ascii	"C:/Users/user/workspace/lib_device_control/src/control.xc"
	.byte	0
	.long	30
	.long	.Lxta.call_labels2
.cc_bottom cc_2
.cc_top cc_3,.Lxta.call_labels16
	.ascii	"C:/Users/user/workspace/lib_device_control/src/control.xc"
	.byte	0
	.long	94
	.long	.Lxta.call_labels16
.cc_bottom cc_3
.cc_top cc_4,.Lxta.call_labels17
	.ascii	"C:/Users/user/workspace/lib_device_control/src/control.xc"
	.byte	0
	.long	108
	.long	.Lxta.call_labels17
.cc_bottom cc_4
.cc_top cc_5,.Lxta.call_labels4
	.ascii	"C:/Users/user/workspace/lib_device_control/src/control.xc"
	.byte	0
	.long	127
	.long	.Lxta.call_labels4
.cc_bottom cc_5
.cc_top cc_6,.Lxta.call_labels5
	.ascii	"C:/Users/user/workspace/lib_device_control/src/control.xc"
	.byte	0
	.long	155
	.long	.Lxta.call_labels5
.cc_bottom cc_6
.cc_top cc_7,.Lxta.call_labels3
	.ascii	"C:/Users/user/workspace/lib_device_control/src/control.xc"
	.byte	0
	.long	224
	.long	.Lxta.call_labels3
.cc_bottom cc_7
.cc_top cc_8,.Lxta.call_labels6
	.ascii	"C:/Users/user/workspace/lib_device_control/src/control.xc"
	.byte	0
	.long	337
	.long	.Lxta.call_labels6
.cc_bottom cc_8
.cc_top cc_9,.Lxta.call_labels7
	.ascii	"C:/Users/user/workspace/lib_device_control/src/control.xc"
	.byte	0
	.long	347
	.long	.Lxta.call_labels7
.cc_bottom cc_9
.cc_top cc_10,.Lxta.call_labels8
	.ascii	"C:/Users/user/workspace/lib_device_control/src/control.xc"
	.byte	0
	.long	364
	.long	.Lxta.call_labels8
.cc_bottom cc_10
.cc_top cc_11,.Lxta.call_labels9
	.ascii	"C:/Users/user/workspace/lib_device_control/src/control.xc"
	.byte	0
	.long	374
	.long	.Lxta.call_labels9
.cc_bottom cc_11
.cc_top cc_12,.Lxta.call_labels10
	.ascii	"C:/Users/user/workspace/lib_device_control/src/control.xc"
	.byte	0
	.long	391
	.long	.Lxta.call_labels10
.cc_bottom cc_12
.cc_top cc_13,.Lxta.call_labels12
	.ascii	"C:/Users/user/workspace/lib_device_control/src/control.xc"
	.byte	0
	.long	397
	.long	.Lxta.call_labels12
.cc_bottom cc_13
.cc_top cc_14,.Lxta.call_labels11
	.ascii	"C:/Users/user/workspace/lib_device_control/src/control.xc"
	.byte	0
	.long	405
	.long	.Lxta.call_labels11
.cc_bottom cc_14
.cc_top cc_15,.Lxta.call_labels13
	.ascii	"C:/Users/user/workspace/lib_device_control/src/control.xc"
	.byte	0
	.long	461
	.long	.Lxta.call_labels13
.cc_bottom cc_15
.cc_top cc_16,.Lxta.call_labels14
	.ascii	"C:/Users/user/workspace/lib_device_control/src/control.xc"
	.byte	0
	.long	498
	.long	.Lxta.call_labels14
.cc_bottom cc_16
.cc_top cc_17,.Lxta.call_labels15
	.ascii	"C:/Users/user/workspace/lib_device_control/src/control.xc"
	.byte	0
	.long	540
	.long	.Lxta.call_labels15
.cc_bottom cc_17
.Lentries_end1:
	.section	.xtalabeltable,"",@progbits
.Lentries_start2:
	.long	.Lentries_end3-.Lentries_start2
	.long	0
	.ascii	"C:\\Users\\user\\workspace\\app_vf_spk_base\\.build_1i0o0_cir43_i2s_only_16khz"
	.byte	0
.cc_top cc_18,.Lxtalabel0
	.ascii	"C:/Users/user/workspace/lib_device_control/src/control.xc"
	.byte	0
	.long	14
	.long	17
	.long	.Lxtalabel0
.cc_bottom cc_18
.cc_top cc_19,.Lxtalabel1
	.ascii	"C:/Users/user/workspace/lib_device_control/src/control.xc"
	.byte	0
	.long	20
	.long	24
	.long	.Lxtalabel1
.cc_bottom cc_19
.cc_top cc_20,.Lxtalabel1
	.ascii	"C:/Users/user/workspace/lib_device_control/src/control.xc"
	.byte	0
	.long	26
	.long	26
	.long	.Lxtalabel1
.cc_bottom cc_20
.cc_top cc_21,.Lxtalabel1
	.ascii	"C:/Users/user/workspace/lib_device_control/src/control.xc"
	.byte	0
	.long	28
	.long	28
	.long	.Lxtalabel1
.cc_bottom cc_21
.cc_top cc_22,.Lxtalabel2
	.ascii	"C:/Users/user/workspace/lib_device_control/src/control.xc"
	.byte	0
	.long	29
	.long	30
	.long	.Lxtalabel2
.cc_bottom cc_22
.cc_top cc_23,.Lxtalabel3
	.ascii	"C:/Users/user/workspace/lib_device_control/src/control.xc"
	.byte	0
	.long	31
	.long	31
	.long	.Lxtalabel3
.cc_bottom cc_23
.cc_top cc_24,.Lxtalabel4
	.ascii	"C:/Users/user/workspace/lib_device_control/src/control.xc"
	.byte	0
	.long	32
	.long	32
	.long	.Lxtalabel4
.cc_bottom cc_24
.cc_top cc_25,.Lxtalabel5
	.ascii	"C:/Users/user/workspace/lib_device_control/src/control.xc"
	.byte	0
	.long	34
	.long	35
	.long	.Lxtalabel5
.cc_bottom cc_25
.cc_top cc_26,.Lxtalabel96
	.ascii	"C:/Users/user/workspace/lib_device_control/src/control.xc"
	.byte	0
	.long	63
	.long	64
	.long	.Lxtalabel96
.cc_bottom cc_26
.cc_top cc_27,.Lxtalabel95
	.ascii	"C:/Users/user/workspace/lib_device_control/src/control.xc"
	.byte	0
	.long	63
	.long	64
	.long	.Lxtalabel95
.cc_bottom cc_27
.cc_top cc_28,.Lxtalabel97
	.ascii	"C:/Users/user/workspace/lib_device_control/src/control.xc"
	.byte	0
	.long	72
	.long	75
	.long	.Lxtalabel97
.cc_bottom cc_28
.cc_top cc_29,.Lxtalabel96
	.ascii	"C:/Users/user/workspace/lib_device_control/src/control.xc"
	.byte	0
	.long	77
	.long	80
	.long	.Lxtalabel96
.cc_bottom cc_29
.cc_top cc_30,.Lxtalabel95
	.ascii	"C:/Users/user/workspace/lib_device_control/src/control.xc"
	.byte	0
	.long	77
	.long	80
	.long	.Lxtalabel95
.cc_bottom cc_30
.cc_top cc_31,.Lxtalabel91
	.ascii	"C:/Users/user/workspace/lib_device_control/src/control.xc"
	.byte	0
	.long	87
	.long	88
	.long	.Lxtalabel91
.cc_bottom cc_31
.cc_top cc_32,.Lxtalabel91
	.ascii	"C:/Users/user/workspace/lib_device_control/src/control.xc"
	.byte	0
	.long	89
	.long	91
	.long	.Lxtalabel91
.cc_bottom cc_32
.cc_top cc_33,.Lxtalabel92
	.ascii	"C:/Users/user/workspace/lib_device_control/src/control.xc"
	.byte	0
	.long	92
	.long	95
	.long	.Lxtalabel92
.cc_bottom cc_33
.cc_top cc_34,.Lxtalabel93
	.ascii	"C:/Users/user/workspace/lib_device_control/src/control.xc"
	.byte	0
	.long	102
	.long	103
	.long	.Lxtalabel93
.cc_bottom cc_34
.cc_top cc_35,.Lxtalabel96
	.ascii	"C:/Users/user/workspace/lib_device_control/src/control.xc"
	.byte	0
	.long	104
	.long	105
	.long	.Lxtalabel96
.cc_bottom cc_35
.cc_top cc_36,.Lxtalabel95
	.ascii	"C:/Users/user/workspace/lib_device_control/src/control.xc"
	.byte	0
	.long	104
	.long	105
	.long	.Lxtalabel95
.cc_bottom cc_36
.cc_top cc_37,.Lxtalabel94
	.ascii	"C:/Users/user/workspace/lib_device_control/src/control.xc"
	.byte	0
	.long	106
	.long	109
	.long	.Lxtalabel94
.cc_bottom cc_37
.cc_top cc_38,.Lxtalabel6
	.ascii	"C:/Users/user/workspace/lib_device_control/src/control.xc"
	.byte	0
	.long	114
	.long	114
	.long	.Lxtalabel6
.cc_bottom cc_38
.cc_top cc_39,.Lxtalabel6
	.ascii	"C:/Users/user/workspace/lib_device_control/src/control.xc"
	.byte	0
	.long	117
	.long	119
	.long	.Lxtalabel6
.cc_bottom cc_39
.cc_top cc_40,.Lxtalabel14
	.ascii	"C:/Users/user/workspace/lib_device_control/src/control.xc"
	.byte	0
	.long	123
	.long	124
	.long	.Lxtalabel14
.cc_bottom cc_40
.cc_top cc_41,.Lxtalabel12
	.ascii	"C:/Users/user/workspace/lib_device_control/src/control.xc"
	.byte	0
	.long	123
	.long	124
	.long	.Lxtalabel12
.cc_bottom cc_41
.cc_top cc_42,.Lxtalabel12
	.ascii	"C:/Users/user/workspace/lib_device_control/src/control.xc"
	.byte	0
	.long	126
	.long	126
	.long	.Lxtalabel12
.cc_bottom cc_42
.cc_top cc_43,.Lxtalabel14
	.ascii	"C:/Users/user/workspace/lib_device_control/src/control.xc"
	.byte	0
	.long	126
	.long	126
	.long	.Lxtalabel14
.cc_bottom cc_43
.cc_top cc_44,.Lxtalabel15
	.ascii	"C:/Users/user/workspace/lib_device_control/src/control.xc"
	.byte	0
	.long	127
	.long	127
	.long	.Lxtalabel15
.cc_bottom cc_44
.cc_top cc_45,.Lxtalabel19
	.ascii	"C:/Users/user/workspace/lib_device_control/src/control.xc"
	.byte	0
	.long	128
	.long	131
	.long	.Lxtalabel19
.cc_bottom cc_45
.cc_top cc_46,.Lxtalabel16
	.ascii	"C:/Users/user/workspace/lib_device_control/src/control.xc"
	.byte	0
	.long	132
	.long	137
	.long	.Lxtalabel16
.cc_bottom cc_46
.cc_top cc_47,.Lxtalabel17
	.ascii	"C:/Users/user/workspace/lib_device_control/src/control.xc"
	.byte	0
	.long	140
	.long	143
	.long	.Lxtalabel17
.cc_bottom cc_47
.cc_top cc_48,.Lxtalabel18
	.ascii	"C:/Users/user/workspace/lib_device_control/src/control.xc"
	.byte	0
	.long	145
	.long	145
	.long	.Lxtalabel18
.cc_bottom cc_48
.cc_top cc_49,.Lxtalabel25
	.ascii	"C:/Users/user/workspace/lib_device_control/src/control.xc"
	.byte	0
	.long	150
	.long	154
	.long	.Lxtalabel25
.cc_bottom cc_49
.cc_top cc_50,.Lxtalabel26
	.ascii	"C:/Users/user/workspace/lib_device_control/src/control.xc"
	.byte	0
	.long	155
	.long	157
	.long	.Lxtalabel26
.cc_bottom cc_50
.cc_top cc_51,.Lxtalabel25
	.ascii	"C:/Users/user/workspace/lib_device_control/src/control.xc"
	.byte	0
	.long	158
	.long	160
	.long	.Lxtalabel25
.cc_bottom cc_51
.cc_top cc_52,.Lxtalabel20
	.ascii	"C:/Users/user/workspace/lib_device_control/src/control.xc"
	.byte	0
	.long	164
	.long	164
	.long	.Lxtalabel20
.cc_bottom cc_52
.cc_top cc_53,.Lxtalabel29
	.ascii	"C:/Users/user/workspace/lib_device_control/src/control.xc"
	.byte	0
	.long	165
	.long	168
	.long	.Lxtalabel29
.cc_bottom cc_53
.cc_top cc_54,.Lxtalabel21
	.ascii	"C:/Users/user/workspace/lib_device_control/src/control.xc"
	.byte	0
	.long	169
	.long	173
	.long	.Lxtalabel21
.cc_bottom cc_54
.cc_top cc_55,.Lxtalabel22
	.ascii	"C:/Users/user/workspace/lib_device_control/src/control.xc"
	.byte	0
	.long	174
	.long	176
	.long	.Lxtalabel22
.cc_bottom cc_55
.cc_top cc_56,.Lxtalabel21
	.ascii	"C:/Users/user/workspace/lib_device_control/src/control.xc"
	.byte	0
	.long	177
	.long	179
	.long	.Lxtalabel21
.cc_bottom cc_56
.cc_top cc_57,.Lxtalabel23
	.ascii	"C:/Users/user/workspace/lib_device_control/src/control.xc"
	.byte	0
	.long	183
	.long	183
	.long	.Lxtalabel23
.cc_bottom cc_57
.cc_top cc_58,.Lxtalabel24
	.ascii	"C:/Users/user/workspace/lib_device_control/src/control.xc"
	.byte	0
	.long	185
	.long	188
	.long	.Lxtalabel24
.cc_bottom cc_58
.cc_top cc_59,.Lxtalabel27
	.ascii	"C:/Users/user/workspace/lib_device_control/src/control.xc"
	.byte	0
	.long	189
	.long	192
	.long	.Lxtalabel27
.cc_bottom cc_59
.cc_top cc_60,.Lxtalabel28
	.ascii	"C:/Users/user/workspace/lib_device_control/src/control.xc"
	.byte	0
	.long	193
	.long	195
	.long	.Lxtalabel28
.cc_bottom cc_60
.cc_top cc_61,.Lxtalabel12
	.ascii	"C:/Users/user/workspace/lib_device_control/src/control.xc"
	.byte	0
	.long	202
	.long	203
	.long	.Lxtalabel12
.cc_bottom cc_61
.cc_top cc_62,.Lxtalabel14
	.ascii	"C:/Users/user/workspace/lib_device_control/src/control.xc"
	.byte	0
	.long	202
	.long	203
	.long	.Lxtalabel14
.cc_bottom cc_62
.cc_top cc_63,.Lxtalabel13
	.ascii	"C:/Users/user/workspace/lib_device_control/src/control.xc"
	.byte	0
	.long	204
	.long	207
	.long	.Lxtalabel13
.cc_bottom cc_63
.cc_top cc_64,.Lxtalabel7
	.ascii	"C:/Users/user/workspace/lib_device_control/src/control.xc"
	.byte	0
	.long	212
	.long	213
	.long	.Lxtalabel7
.cc_bottom cc_64
.cc_top cc_65,.Lxtalabel7
	.ascii	"C:/Users/user/workspace/lib_device_control/src/control.xc"
	.byte	0
	.long	215
	.long	215
	.long	.Lxtalabel7
.cc_bottom cc_65
.cc_top cc_66,.Lxtalabel9
	.ascii	"C:/Users/user/workspace/lib_device_control/src/control.xc"
	.byte	0
	.long	216
	.long	219
	.long	.Lxtalabel9
.cc_bottom cc_66
.cc_top cc_67,.Lxtalabel8
	.ascii	"C:/Users/user/workspace/lib_device_control/src/control.xc"
	.byte	0
	.long	220
	.long	221
	.long	.Lxtalabel8
.cc_bottom cc_67
.cc_top cc_68,.Lxtalabel10
	.ascii	"C:/Users/user/workspace/lib_device_control/src/control.xc"
	.byte	0
	.long	224
	.long	225
	.long	.Lxtalabel10
.cc_bottom cc_68
.cc_top cc_69,.Lxtalabel10
	.ascii	"C:/Users/user/workspace/lib_device_control/src/control.xc"
	.byte	0
	.long	227
	.long	227
	.long	.Lxtalabel10
.cc_bottom cc_69
.cc_top cc_70,.Lxtalabel11
	.ascii	"C:/Users/user/workspace/lib_device_control/src/control.xc"
	.byte	0
	.long	228
	.long	231
	.long	.Lxtalabel11
.cc_bottom cc_70
.cc_top cc_71,.Lxtalabel10
	.ascii	"C:/Users/user/workspace/lib_device_control/src/control.xc"
	.byte	0
	.long	232
	.long	234
	.long	.Lxtalabel10
.cc_bottom cc_71
.cc_top cc_72,.Lxtalabel33
	.ascii	"C:/Users/user/workspace/lib_device_control/src/control.xc"
	.byte	0
	.long	246
	.long	247
	.long	.Lxtalabel33
.cc_bottom cc_72
.cc_top cc_73,.Lxtalabel30
	.ascii	"C:/Users/user/workspace/lib_device_control/src/control.xc"
	.byte	0
	.long	246
	.long	247
	.long	.Lxtalabel30
.cc_bottom cc_73
.cc_top cc_74,.Lxtalabel34
	.ascii	"C:/Users/user/workspace/lib_device_control/src/control.xc"
	.byte	0
	.long	248
	.long	252
	.long	.Lxtalabel34
.cc_bottom cc_74
.cc_top cc_75,.Lxtalabel31
	.ascii	"C:/Users/user/workspace/lib_device_control/src/control.xc"
	.byte	0
	.long	254
	.long	254
	.long	.Lxtalabel31
.cc_bottom cc_75
.cc_top cc_76,.Lxtalabel32
	.ascii	"C:/Users/user/workspace/lib_device_control/src/control.xc"
	.byte	0
	.long	256
	.long	256
	.long	.Lxtalabel32
.cc_bottom cc_76
.cc_top cc_77,.Lxtalabel32
	.ascii	"C:/Users/user/workspace/lib_device_control/src/control.xc"
	.byte	0
	.long	258
	.long	260
	.long	.Lxtalabel32
.cc_bottom cc_77
.cc_top cc_78,.Lxtalabel35
	.ascii	"C:/Users/user/workspace/lib_device_control/src/control.xc"
	.byte	0
	.long	261
	.long	264
	.long	.Lxtalabel35
.cc_bottom cc_78
.cc_top cc_79,.Lxtalabel36
	.ascii	"C:/Users/user/workspace/lib_device_control/src/control.xc"
	.byte	0
	.long	265
	.long	268
	.long	.Lxtalabel36
.cc_bottom cc_79
.cc_top cc_80,.Lxtalabel37
	.ascii	"C:/Users/user/workspace/lib_device_control/src/control.xc"
	.byte	0
	.long	273
	.long	274
	.long	.Lxtalabel37
.cc_bottom cc_80
.cc_top cc_81,.Lxtalabel38
	.ascii	"C:/Users/user/workspace/lib_device_control/src/control.xc"
	.byte	0
	.long	273
	.long	274
	.long	.Lxtalabel38
.cc_bottom cc_81
.cc_top cc_82,.Lxtalabel37
	.ascii	"C:/Users/user/workspace/lib_device_control/src/control.xc"
	.byte	0
	.long	276
	.long	276
	.long	.Lxtalabel37
.cc_bottom cc_82
.cc_top cc_83,.Lxtalabel38
	.ascii	"C:/Users/user/workspace/lib_device_control/src/control.xc"
	.byte	0
	.long	276
	.long	276
	.long	.Lxtalabel38
.cc_bottom cc_83
.cc_top cc_84,.Lxtalabel37
	.ascii	"C:/Users/user/workspace/lib_device_control/src/control.xc"
	.byte	0
	.long	278
	.long	278
	.long	.Lxtalabel37
.cc_bottom cc_84
.cc_top cc_85,.Lxtalabel38
	.ascii	"C:/Users/user/workspace/lib_device_control/src/control.xc"
	.byte	0
	.long	278
	.long	278
	.long	.Lxtalabel38
.cc_bottom cc_85
.cc_top cc_86,.Lxtalabel39
	.ascii	"C:/Users/user/workspace/lib_device_control/src/control.xc"
	.byte	0
	.long	279
	.long	279
	.long	.Lxtalabel39
.cc_bottom cc_86
.cc_top cc_87,.Lxtalabel40
	.ascii	"C:/Users/user/workspace/lib_device_control/src/control.xc"
	.byte	0
	.long	279
	.long	279
	.long	.Lxtalabel40
.cc_bottom cc_87
.cc_top cc_88,.Lxtalabel42
	.ascii	"C:/Users/user/workspace/lib_device_control/src/control.xc"
	.byte	0
	.long	288
	.long	288
	.long	.Lxtalabel42
.cc_bottom cc_88
.cc_top cc_89,.Lxtalabel43
	.ascii	"C:/Users/user/workspace/lib_device_control/src/control.xc"
	.byte	0
	.long	288
	.long	288
	.long	.Lxtalabel43
.cc_bottom cc_89
.cc_top cc_90,.Lxtalabel42
	.ascii	"C:/Users/user/workspace/lib_device_control/src/control.xc"
	.byte	0
	.long	290
	.long	292
	.long	.Lxtalabel42
.cc_bottom cc_90
.cc_top cc_91,.Lxtalabel43
	.ascii	"C:/Users/user/workspace/lib_device_control/src/control.xc"
	.byte	0
	.long	290
	.long	292
	.long	.Lxtalabel43
.cc_bottom cc_91
.cc_top cc_92,.Lxtalabel44
	.ascii	"C:/Users/user/workspace/lib_device_control/src/control.xc"
	.byte	0
	.long	302
	.long	302
	.long	.Lxtalabel44
.cc_bottom cc_92
.cc_top cc_93,.Lxtalabel45
	.ascii	"C:/Users/user/workspace/lib_device_control/src/control.xc"
	.byte	0
	.long	302
	.long	302
	.long	.Lxtalabel45
.cc_bottom cc_93
.cc_top cc_94,.Lxtalabel44
	.ascii	"C:/Users/user/workspace/lib_device_control/src/control.xc"
	.byte	0
	.long	304
	.long	306
	.long	.Lxtalabel44
.cc_bottom cc_94
.cc_top cc_95,.Lxtalabel45
	.ascii	"C:/Users/user/workspace/lib_device_control/src/control.xc"
	.byte	0
	.long	304
	.long	306
	.long	.Lxtalabel45
.cc_bottom cc_95
.cc_top cc_96,.Lxtalabel41
	.ascii	"C:/Users/user/workspace/lib_device_control/src/control.xc"
	.byte	0
	.long	311
	.long	315
	.long	.Lxtalabel41
.cc_bottom cc_96
.cc_top cc_97,.Lxtalabel47
	.ascii	"C:/Users/user/workspace/lib_device_control/src/control.xc"
	.byte	0
	.long	327
	.long	331
	.long	.Lxtalabel47
.cc_bottom cc_97
.cc_top cc_98,.Lxtalabel46
	.ascii	"C:/Users/user/workspace/lib_device_control/src/control.xc"
	.byte	0
	.long	327
	.long	331
	.long	.Lxtalabel46
.cc_bottom cc_98
.cc_top cc_99,.Lxtalabel47
	.ascii	"C:/Users/user/workspace/lib_device_control/src/control.xc"
	.byte	0
	.long	333
	.long	335
	.long	.Lxtalabel47
.cc_bottom cc_99
.cc_top cc_100,.Lxtalabel46
	.ascii	"C:/Users/user/workspace/lib_device_control/src/control.xc"
	.byte	0
	.long	333
	.long	335
	.long	.Lxtalabel46
.cc_bottom cc_100
.cc_top cc_101,.Lxtalabel47
	.ascii	"C:/Users/user/workspace/lib_device_control/src/control.xc"
	.byte	0
	.long	337
	.long	337
	.long	.Lxtalabel47
.cc_bottom cc_101
.cc_top cc_102,.Lxtalabel46
	.ascii	"C:/Users/user/workspace/lib_device_control/src/control.xc"
	.byte	0
	.long	337
	.long	337
	.long	.Lxtalabel46
.cc_bottom cc_102
.cc_top cc_103,.Lxtalabel46
	.ascii	"C:/Users/user/workspace/lib_device_control/src/control.xc"
	.byte	0
	.long	338
	.long	340
	.long	.Lxtalabel46
.cc_bottom cc_103
.cc_top cc_104,.Lxtalabel47
	.ascii	"C:/Users/user/workspace/lib_device_control/src/control.xc"
	.byte	0
	.long	338
	.long	340
	.long	.Lxtalabel47
.cc_bottom cc_104
.cc_top cc_105,.Lxtalabel48
	.ascii	"C:/Users/user/workspace/lib_device_control/src/control.xc"
	.byte	0
	.long	347
	.long	348
	.long	.Lxtalabel48
.cc_bottom cc_105
.cc_top cc_106,.Lxtalabel49
	.ascii	"C:/Users/user/workspace/lib_device_control/src/control.xc"
	.byte	0
	.long	354
	.long	358
	.long	.Lxtalabel49
.cc_bottom cc_106
.cc_top cc_107,.Lxtalabel50
	.ascii	"C:/Users/user/workspace/lib_device_control/src/control.xc"
	.byte	0
	.long	354
	.long	358
	.long	.Lxtalabel50
.cc_bottom cc_107
.cc_top cc_108,.Lxtalabel49
	.ascii	"C:/Users/user/workspace/lib_device_control/src/control.xc"
	.byte	0
	.long	360
	.long	362
	.long	.Lxtalabel49
.cc_bottom cc_108
.cc_top cc_109,.Lxtalabel50
	.ascii	"C:/Users/user/workspace/lib_device_control/src/control.xc"
	.byte	0
	.long	360
	.long	362
	.long	.Lxtalabel50
.cc_bottom cc_109
.cc_top cc_110,.Lxtalabel49
	.ascii	"C:/Users/user/workspace/lib_device_control/src/control.xc"
	.byte	0
	.long	364
	.long	364
	.long	.Lxtalabel49
.cc_bottom cc_110
.cc_top cc_111,.Lxtalabel50
	.ascii	"C:/Users/user/workspace/lib_device_control/src/control.xc"
	.byte	0
	.long	364
	.long	364
	.long	.Lxtalabel50
.cc_bottom cc_111
.cc_top cc_112,.Lxtalabel50
	.ascii	"C:/Users/user/workspace/lib_device_control/src/control.xc"
	.byte	0
	.long	365
	.long	367
	.long	.Lxtalabel50
.cc_bottom cc_112
.cc_top cc_113,.Lxtalabel49
	.ascii	"C:/Users/user/workspace/lib_device_control/src/control.xc"
	.byte	0
	.long	365
	.long	367
	.long	.Lxtalabel49
.cc_bottom cc_113
.cc_top cc_114,.Lxtalabel51
	.ascii	"C:/Users/user/workspace/lib_device_control/src/control.xc"
	.byte	0
	.long	374
	.long	375
	.long	.Lxtalabel51
.cc_bottom cc_114
.cc_top cc_115,.Lxtalabel52
	.ascii	"C:/Users/user/workspace/lib_device_control/src/control.xc"
	.byte	0
	.long	381
	.long	384
	.long	.Lxtalabel52
.cc_bottom cc_115
.cc_top cc_116,.Lxtalabel52
	.ascii	"C:/Users/user/workspace/lib_device_control/src/control.xc"
	.byte	0
	.long	386
	.long	387
	.long	.Lxtalabel52
.cc_bottom cc_116
.cc_top cc_117,.Lxtalabel52
	.ascii	"C:/Users/user/workspace/lib_device_control/src/control.xc"
	.byte	0
	.long	389
	.long	389
	.long	.Lxtalabel52
.cc_bottom cc_117
.cc_top cc_118,.Lxtalabel52
	.ascii	"C:/Users/user/workspace/lib_device_control/src/control.xc"
	.byte	0
	.long	391
	.long	391
	.long	.Lxtalabel52
.cc_bottom cc_118
.cc_top cc_119,.Lxtalabel53
	.ascii	"C:/Users/user/workspace/lib_device_control/src/control.xc"
	.byte	0
	.long	396
	.long	396
	.long	.Lxtalabel53
.cc_bottom cc_119
.cc_top cc_120,.Lxtalabel55
	.ascii	"C:/Users/user/workspace/lib_device_control/src/control.xc"
	.byte	0
	.long	397
	.long	398
	.long	.Lxtalabel55
.cc_bottom cc_120
.cc_top cc_121,.Lxtalabel55
	.ascii	"C:/Users/user/workspace/lib_device_control/src/control.xc"
	.byte	0
	.long	401
	.long	401
	.long	.Lxtalabel55
.cc_bottom cc_121
.cc_top cc_122,.Lxtalabel56
	.ascii	"C:/Users/user/workspace/lib_device_control/src/control.xc"
	.byte	0
	.long	402
	.long	402
	.long	.Lxtalabel56
.cc_bottom cc_122
.cc_top cc_123,.Lxtalabel54
	.ascii	"C:/Users/user/workspace/lib_device_control/src/control.xc"
	.byte	0
	.long	404
	.long	407
	.long	.Lxtalabel54
.cc_bottom cc_123
.cc_top cc_124,.Lxtalabel57
	.ascii	"C:/Users/user/workspace/lib_device_control/src/control.xc"
	.byte	0
	.long	441
	.long	441
	.long	.Lxtalabel57
.cc_bottom cc_124
.cc_top cc_125,.Lxtalabel59
	.ascii	"C:/Users/user/workspace/lib_device_control/src/control.xc"
	.byte	0
	.long	441
	.long	441
	.long	.Lxtalabel59
.cc_bottom cc_125
.cc_top cc_126,.Lxtalabel57
	.ascii	"C:/Users/user/workspace/lib_device_control/src/control.xc"
	.byte	0
	.long	450
	.long	451
	.long	.Lxtalabel57
.cc_bottom cc_126
.cc_top cc_127,.Lxtalabel59
	.ascii	"C:/Users/user/workspace/lib_device_control/src/control.xc"
	.byte	0
	.long	450
	.long	451
	.long	.Lxtalabel59
.cc_bottom cc_127
.cc_top cc_128,.Lxtalabel57
	.ascii	"C:/Users/user/workspace/lib_device_control/src/control.xc"
	.byte	0
	.long	453
	.long	454
	.long	.Lxtalabel57
.cc_bottom cc_128
.cc_top cc_129,.Lxtalabel59
	.ascii	"C:/Users/user/workspace/lib_device_control/src/control.xc"
	.byte	0
	.long	453
	.long	454
	.long	.Lxtalabel59
.cc_bottom cc_129
.cc_top cc_130,.Lxtalabel58
	.ascii	"C:/Users/user/workspace/lib_device_control/src/control.xc"
	.byte	0
	.long	455
	.long	455
	.long	.Lxtalabel58
.cc_bottom cc_130
.cc_top cc_131,.Lxtalabel58
	.ascii	"C:/Users/user/workspace/lib_device_control/src/control.xc"
	.byte	0
	.long	458
	.long	460
	.long	.Lxtalabel58
.cc_bottom cc_131
.cc_top cc_132,.Lxtalabel61
	.ascii	"C:/Users/user/workspace/lib_device_control/src/control.xc"
	.byte	0
	.long	461
	.long	463
	.long	.Lxtalabel61
.cc_bottom cc_132
.cc_top cc_133,.Lxtalabel59
	.ascii	"C:/Users/user/workspace/lib_device_control/src/control.xc"
	.byte	0
	.long	467
	.long	467
	.long	.Lxtalabel59
.cc_bottom cc_133
.cc_top cc_134,.Lxtalabel57
	.ascii	"C:/Users/user/workspace/lib_device_control/src/control.xc"
	.byte	0
	.long	467
	.long	467
	.long	.Lxtalabel57
.cc_bottom cc_134
.cc_top cc_135,.Lxtalabel57
	.ascii	"C:/Users/user/workspace/lib_device_control/src/control.xc"
	.byte	0
	.long	468
	.long	469
	.long	.Lxtalabel57
.cc_bottom cc_135
.cc_top cc_136,.Lxtalabel59
	.ascii	"C:/Users/user/workspace/lib_device_control/src/control.xc"
	.byte	0
	.long	468
	.long	469
	.long	.Lxtalabel59
.cc_bottom cc_136
.cc_top cc_137,.Lxtalabel57
	.ascii	"C:/Users/user/workspace/lib_device_control/src/control.xc"
	.byte	0
	.long	470
	.long	471
	.long	.Lxtalabel57
.cc_bottom cc_137
.cc_top cc_138,.Lxtalabel59
	.ascii	"C:/Users/user/workspace/lib_device_control/src/control.xc"
	.byte	0
	.long	470
	.long	471
	.long	.Lxtalabel59
.cc_bottom cc_138
.cc_top cc_139,.Lxtalabel60
	.ascii	"C:/Users/user/workspace/lib_device_control/src/control.xc"
	.byte	0
	.long	478
	.long	481
	.long	.Lxtalabel60
.cc_bottom cc_139
.cc_top cc_140,.Lxtalabel62
	.ascii	"C:/Users/user/workspace/lib_device_control/src/control.xc"
	.byte	0
	.long	483
	.long	483
	.long	.Lxtalabel62
.cc_bottom cc_140
.cc_top cc_141,.Lxtalabel60
	.ascii	"C:/Users/user/workspace/lib_device_control/src/control.xc"
	.byte	0
	.long	483
	.long	483
	.long	.Lxtalabel60
.cc_bottom cc_141
.cc_top cc_142,.Lxtalabel62
	.ascii	"C:/Users/user/workspace/lib_device_control/src/control.xc"
	.byte	0
	.long	484
	.long	484
	.long	.Lxtalabel62
.cc_bottom cc_142
.cc_top cc_143,.Lxtalabel62
	.ascii	"C:/Users/user/workspace/lib_device_control/src/control.xc"
	.byte	0
	.long	485
	.long	485
	.long	.Lxtalabel62
.cc_bottom cc_143
.cc_top cc_144,.Lxtalabel63
	.ascii	"C:/Users/user/workspace/lib_device_control/src/control.xc"
	.byte	0
	.long	487
	.long	488
	.long	.Lxtalabel63
.cc_bottom cc_144
.cc_top cc_145,.Lxtalabel66
	.ascii	"C:/Users/user/workspace/lib_device_control/src/control.xc"
	.byte	0
	.long	492
	.long	494
	.long	.Lxtalabel66
.cc_bottom cc_145
.cc_top cc_146,.Lxtalabel64
	.ascii	"C:/Users/user/workspace/lib_device_control/src/control.xc"
	.byte	0
	.long	492
	.long	494
	.long	.Lxtalabel64
.cc_bottom cc_146
.cc_top cc_147,.Lxtalabel66
	.ascii	"C:/Users/user/workspace/lib_device_control/src/control.xc"
	.byte	0
	.long	496
	.long	497
	.long	.Lxtalabel66
.cc_bottom cc_147
.cc_top cc_148,.Lxtalabel64
	.ascii	"C:/Users/user/workspace/lib_device_control/src/control.xc"
	.byte	0
	.long	496
	.long	497
	.long	.Lxtalabel64
.cc_bottom cc_148
.cc_top cc_149,.Lxtalabel65
	.ascii	"C:/Users/user/workspace/lib_device_control/src/control.xc"
	.byte	0
	.long	498
	.long	501
	.long	.Lxtalabel65
.cc_bottom cc_149
.cc_top cc_150,.Lxtalabel65
	.ascii	"C:/Users/user/workspace/lib_device_control/src/control.xc"
	.byte	0
	.long	503
	.long	503
	.long	.Lxtalabel65
.cc_bottom cc_150
.cc_top cc_151,.Lxtalabel68
	.ascii	"C:/Users/user/workspace/lib_device_control/src/control.xc"
	.byte	0
	.long	504
	.long	505
	.long	.Lxtalabel68
.cc_bottom cc_151
.cc_top cc_152,.Lxtalabel67
	.ascii	"C:/Users/user/workspace/lib_device_control/src/control.xc"
	.byte	0
	.long	504
	.long	505
	.long	.Lxtalabel67
.cc_bottom cc_152
.cc_top cc_153,.Lxtalabel69
	.ascii	"C:/Users/user/workspace/lib_device_control/src/control.xc"
	.byte	0
	.long	506
	.long	508
	.long	.Lxtalabel69
.cc_bottom cc_153
.cc_top cc_154,.Lxtalabel70
	.ascii	"C:/Users/user/workspace/lib_device_control/src/control.xc"
	.byte	0
	.long	512
	.long	513
	.long	.Lxtalabel70
.cc_bottom cc_154
.cc_top cc_155,.Lxtalabel71
	.ascii	"C:/Users/user/workspace/lib_device_control/src/control.xc"
	.byte	0
	.long	517
	.long	517
	.long	.Lxtalabel71
.cc_bottom cc_155
.cc_top cc_156,.Lxtalabel71
	.ascii	"C:/Users/user/workspace/lib_device_control/src/control.xc"
	.byte	0
	.long	523
	.long	523
	.long	.Lxtalabel71
.cc_bottom cc_156
.cc_top cc_157,.Lxtalabel71
	.ascii	"C:/Users/user/workspace/lib_device_control/src/control.xc"
	.byte	0
	.long	526
	.long	526
	.long	.Lxtalabel71
.cc_bottom cc_157
.cc_top cc_158,.Lxtalabel71
	.ascii	"C:/Users/user/workspace/lib_device_control/src/control.xc"
	.byte	0
	.long	528
	.long	530
	.long	.Lxtalabel71
.cc_bottom cc_158
.cc_top cc_159,.Lxtalabel73
	.ascii	"C:/Users/user/workspace/lib_device_control/src/control.xc"
	.byte	0
	.long	532
	.long	532
	.long	.Lxtalabel73
.cc_bottom cc_159
.cc_top cc_160,.Lxtalabel72
	.ascii	"C:/Users/user/workspace/lib_device_control/src/control.xc"
	.byte	0
	.long	532
	.long	532
	.long	.Lxtalabel72
.cc_bottom cc_160
.cc_top cc_161,.Lxtalabel74
	.ascii	"C:/Users/user/workspace/lib_device_control/src/control.xc"
	.byte	0
	.long	534
	.long	534
	.long	.Lxtalabel74
.cc_bottom cc_161
.cc_top cc_162,.Lxtalabel74
	.ascii	"C:/Users/user/workspace/lib_device_control/src/control.xc"
	.byte	0
	.long	535
	.long	535
	.long	.Lxtalabel74
.cc_bottom cc_162
.cc_top cc_163,.Lxtalabel74
	.ascii	"C:/Users/user/workspace/lib_device_control/src/control.xc"
	.byte	0
	.long	537
	.long	538
	.long	.Lxtalabel74
.cc_bottom cc_163
.cc_top cc_164,.Lxtalabel77
	.ascii	"C:/Users/user/workspace/lib_device_control/src/control.xc"
	.byte	0
	.long	537
	.long	538
	.long	.Lxtalabel77
.cc_bottom cc_164
.cc_top cc_165,.Lxtalabel78
	.ascii	"C:/Users/user/workspace/lib_device_control/src/control.xc"
	.byte	0
	.long	537
	.long	538
	.long	.Lxtalabel78
.cc_bottom cc_165
.cc_top cc_166,.Lxtalabel75
	.ascii	"C:/Users/user/workspace/lib_device_control/src/control.xc"
	.byte	0
	.long	539
	.long	540
	.long	.Lxtalabel75
.cc_bottom cc_166
.cc_top cc_167,.Lxtalabel76
	.ascii	"C:/Users/user/workspace/lib_device_control/src/control.xc"
	.byte	0
	.long	541
	.long	544
	.long	.Lxtalabel76
.cc_bottom cc_167
.cc_top cc_168,.Lxtalabel81
	.ascii	"C:/Users/user/workspace/lib_device_control/src/control.xc"
	.byte	0
	.long	545
	.long	548
	.long	.Lxtalabel81
.cc_bottom cc_168
.cc_top cc_169,.Lxtalabel79
	.ascii	"C:/Users/user/workspace/lib_device_control/src/control.xc"
	.byte	0
	.long	552
	.long	553
	.long	.Lxtalabel79
.cc_bottom cc_169
.cc_top cc_170,.Lxtalabel80
	.ascii	"C:/Users/user/workspace/lib_device_control/src/control.xc"
	.byte	0
	.long	554
	.long	555
	.long	.Lxtalabel80
.cc_bottom cc_170
.cc_top cc_171,.Lxtalabel90
	.ascii	"C:/Users/user/workspace/lib_device_control/src/control.xc"
	.byte	0
	.long	556
	.long	557
	.long	.Lxtalabel90
.cc_bottom cc_171
.cc_top cc_172,.Lxtalabel87
	.ascii	"C:/Users/user/workspace/lib_device_control/src/control.xc"
	.byte	0
	.long	561
	.long	563
	.long	.Lxtalabel87
.cc_bottom cc_172
.cc_top cc_173,.Lxtalabel87
	.ascii	"C:/Users/user/workspace/lib_device_control/src/control.xc"
	.byte	0
	.long	565
	.long	565
	.long	.Lxtalabel87
.cc_bottom cc_173
.cc_top cc_174,.Lxtalabel82
	.ascii	"C:/Users/user/workspace/lib_device_control/src/control.xc"
	.byte	0
	.long	566
	.long	568
	.long	.Lxtalabel82
.cc_bottom cc_174
.cc_top cc_175,.Lxtalabel82
	.ascii	"C:/Users/user/workspace/lib_device_control/src/control.xc"
	.byte	0
	.long	570
	.long	570
	.long	.Lxtalabel82
.cc_bottom cc_175
.cc_top cc_176,.Lxtalabel83
	.ascii	"C:/Users/user/workspace/lib_device_control/src/control.xc"
	.byte	0
	.long	571
	.long	572
	.long	.Lxtalabel83
.cc_bottom cc_176
.cc_top cc_177,.Lxtalabel84
	.ascii	"C:/Users/user/workspace/lib_device_control/src/control.xc"
	.byte	0
	.long	571
	.long	572
	.long	.Lxtalabel84
.cc_bottom cc_177
.cc_top cc_178,.Lxtalabel85
	.ascii	"C:/Users/user/workspace/lib_device_control/src/control.xc"
	.byte	0
	.long	573
	.long	574
	.long	.Lxtalabel85
.cc_bottom cc_178
.cc_top cc_179,.Lxtalabel88
	.ascii	"C:/Users/user/workspace/lib_device_control/src/control.xc"
	.byte	0
	.long	575
	.long	577
	.long	.Lxtalabel88
.cc_bottom cc_179
.cc_top cc_180,.Lxtalabel89
	.ascii	"C:/Users/user/workspace/lib_device_control/src/control.xc"
	.byte	0
	.long	578
	.long	579
	.long	.Lxtalabel89
.cc_bottom cc_180
.cc_top cc_181,.Lxtalabel89
	.ascii	"C:/Users/user/workspace/lib_device_control/src/control.xc"
	.byte	0
	.long	581
	.long	581
	.long	.Lxtalabel89
.cc_bottom cc_181
.cc_top cc_182,.Lxtalabel86
	.ascii	"C:/Users/user/workspace/lib_device_control/src/control.xc"
	.byte	0
	.long	582
	.long	584
	.long	.Lxtalabel86
.cc_bottom cc_182
.cc_top cc_183,.Lxtalabel62
	.ascii	"C:\\Program Files (x86)\\XMOS\\xTIMEcomposer\\Community_14.3.3\\target/include/xc\\safe/string.h"
	.byte	0
	.long	19
	.long	19
	.long	.Lxtalabel62
.cc_bottom cc_183
.cc_top cc_184,.Lxtalabel74
	.ascii	"C:\\Program Files (x86)\\XMOS\\xTIMEcomposer\\Community_14.3.3\\target/include/xc\\safe/string.h"
	.byte	0
	.long	19
	.long	19
	.long	.Lxtalabel74
.cc_bottom cc_184
.Lentries_end3:
	.section	.xtalooplabeltable,"",@progbits
.Lentries_start4:
	.long	.Lentries_end5-.Lentries_start4
	.long	0
	.ascii	"C:\\Users\\user\\workspace\\app_vf_spk_base\\.build_1i0o0_cir43_i2s_only_16khz"
	.byte	0
.cc_top cc_185,.Lxta.loop_labels0
	.ascii	"C:/Users/user/workspace/lib_device_control/src/control.xc"
	.byte	0
	.long	29
	.long	32
	.long	.Lxta.loop_labels0
.cc_bottom cc_185
.Lentries_end5:
	.section	.trap_info,"",@progbits
.Ltrap_info_entries_start0:
	.long	.Ltrap_info_entries_end0-.Ltrap_info_entries_start0
	.long	1
	.section	.trap_info_str,"MS",@progbits
.Ltrap_info_str0:
.asciiz"C:/Users/user/workspace/lib_device_control/src/control.xc:190:7: error: out of bounds array access\n      i2c.payload[i2c.payload_len_transmitted] = data;\n      ^~~~~~~~~~~~~~~~~~~~~~~~~~~~~~~~~~~~~~~~\n"
	.section	.trap_info,"",@progbits
.cc_top cc_trapinfo_0,.Ltrap_info0
	.long	.Ltrap_info0
	.long	.Ltrap_info_str0
.cc_bottom cc_trapinfo_0
	.section	.trap_info_str,"MS",@progbits
.Ltrap_info_str1:
.asciiz"C:/Users/user/workspace/lib_device_control/src/control.xc:261:12: error: out of bounds array access\n    data = i2c.payload[i2c.payload_len_transmitted];\n           ^~~~~~~~~~~~~~~~~~~~~~~~~~~~~~~~~~~~~~~~\n"
	.section	.trap_info,"",@progbits
.cc_top cc_trapinfo_1,.Ltrap_info1
	.long	.Ltrap_info1
	.long	.Ltrap_info_str1
.cc_bottom cc_trapinfo_1
	.section	.trap_info_str,"MS",@progbits
.Ltrap_info_str2:
.asciiz"C:/Users/user/workspace/lib_device_control/src/control.xc:391:29: error: out of bounds array or pointer access\n  if (resource_table_search(p->resid, ifnum) != 0) {\n                            ^~~~~~~~\n"
	.section	.trap_info,"",@progbits
.cc_top cc_trapinfo_2,.Ltrap_info2
	.long	.Ltrap_info2
	.long	.Ltrap_info_str2
.cc_bottom cc_trapinfo_2
	.section	.trap_info_str,"MS",@progbits
.Ltrap_info_str3:
.asciiz"C:/Users/user/workspace/lib_device_control/src/control.xc:406:7: error: conversion of out-of-bounds pointer to array reference\n      buf + sizeof(struct control_xscope_packet), p->payload_len);\n      ^~~~~~~~~~~~~~~~~~~~~~~~~~~~~~~~~~~~~~~~~~\n"
	.section	.trap_info,"",@progbits
.cc_top cc_trapinfo_3,.Ltrap_info3
	.long	.Ltrap_info3
	.long	.Ltrap_info_str3
.cc_bottom cc_trapinfo_3
	.section	.trap_info_str,"MS",@progbits
.Ltrap_info_str4:
.asciiz"C:/Users/user/workspace/lib_device_control/src/control.xc:398:7: error: conversion of out-of-bounds pointer to array reference\n      buf + sizeof(struct control_xscope_response), p->payload_len);\n      ^~~~~~~~~~~~~~~~~~~~~~~~~~~~~~~~~~~~~~~~~~~~\n"
	.section	.trap_info,"",@progbits
.cc_top cc_trapinfo_4,.Ltrap_info4
	.long	.Ltrap_info4
	.long	.Ltrap_info_str4
.cc_bottom cc_trapinfo_4
	.section	.trap_info_str,"MS",@progbits
.Ltrap_info_str5:
.asciiz"C:/Users/user/workspace/lib_device_control/src/control.xc:94:12: error: out of bounds array access\n    return i[ifnum].write_command(resid, cmd, payload, payload_len);\n           ^~~~~~~~\n"
	.section	.trap_info,"",@progbits
.cc_top cc_trapinfo_5,.Ltrap_info5
	.long	.Ltrap_info5
	.long	.Ltrap_info_str5
.cc_bottom cc_trapinfo_5
	.section	.trap_info_str,"MS",@progbits
.Ltrap_info_str6:
.asciiz"C:/Users/user/workspace/lib_device_control/src/control.xc:94:47: error: array argument has fewer elements than parameter type\n    return i[ifnum].write_command(resid, cmd, payload, payload_len);\n                                              ^~~~~~~\n"
	.section	.trap_info,"",@progbits
.cc_top cc_trapinfo_6,.Ltrap_info6
	.long	.Ltrap_info6
	.long	.Ltrap_info_str6
.cc_bottom cc_trapinfo_6
	.section	.trap_info_str,"MS",@progbits
.Ltrap_info_str7:
.asciiz"C:/Users/user/workspace/lib_device_control/src/control.xc:108:12: error: out of bounds array access\n    return i[ifnum].read_command(resid, cmd, payload, payload_len);\n           ^~~~~~~~\n"
	.section	.trap_info,"",@progbits
.cc_top cc_trapinfo_7,.Ltrap_info7
	.long	.Ltrap_info7
	.long	.Ltrap_info_str7
.cc_bottom cc_trapinfo_7
	.section	.trap_info_str,"MS",@progbits
.Ltrap_info_str8:
.asciiz"C:/Users/user/workspace/lib_device_control/src/control.xc:108:46: error: array argument has fewer elements than parameter type\n    return i[ifnum].read_command(resid, cmd, payload, payload_len);\n                                             ^~~~~~~\n"
	.section	.trap_info,"",@progbits
.cc_top cc_trapinfo_8,.Ltrap_info8
	.long	.Ltrap_info8
	.long	.Ltrap_info_str8
.cc_bottom cc_trapinfo_8
	.section	.trap_info_str,"MS",@progbits
.Ltrap_info_str9:
.asciiz"C:/Users/user/workspace/lib_device_control/src/control.xc:73:7: error: access of zero length array\n      *((control_version_t*)payload) = CONTROL_VERSION;\n      ^~~~~~~~~~~~~~~~~~~~~~~~~~~~~~\n"
	.section	.trap_info,"",@progbits
.cc_top cc_trapinfo_9,.Ltrap_info9
	.long	.Ltrap_info9
	.long	.Ltrap_info_str9
.cc_bottom cc_trapinfo_9
.Ltrap_info_entries_end0: