	.text
	.file	"C:/Users/user/workspace/lib_i2c/src/i2c_master_async.xc"
                                        # Start of file scope inline assembly
	.inline_definition __i_i2c_master_if_read_reg
	.inline_definition __i_i2c_master_if_write_reg
	.inline_definition __i_i2c_master_if_read_reg8_addr16
	.inline_definition __i_i2c_master_if_write_reg8_addr16
	.inline_definition __i_i2c_master_if_read_reg16
	.inline_definition __i_i2c_master_if_write_reg16
	.inline_definition __i_i2c_master_if_read_reg16_addr8
	.inline_definition __i_i2c_master_if_write_reg16_addr8
	.inline_definition delay_seconds
	.inline_definition delay_milliseconds
	.inline_definition delay_microseconds
	.inline_definition _safe_memcmp
	.inline_definition _safe_memmove
	.inline_definition _safe_memset
	.inline_definition xassert_msg
	.weak i2c_master_async_aux.3.maxargsize.group
	.globl i2c_master_async_aux.3.maxargsize.group
	.add_to_set i2c_master_async_aux.3.maxargsize.group, 1
	.weak i2c_master_async_aux.3.maxargsize
	.globl i2c_master_async_aux.3.maxargsize
	.max_reduce i2c_master_async_aux.3.maxargsize, i2c_master_async_aux.3.maxargsize.group, 0
	.weak _Si2c_master_async_aux_0.3.maxargsize.group
	.globl _Si2c_master_async_aux_0.3.maxargsize.group
	.add_to_set _Si2c_master_async_aux_0.3.maxargsize.group, 1
	.weak _Si2c_master_async_aux_0.3.maxargsize
	.globl _Si2c_master_async_aux_0.3.maxargsize
	.max_reduce _Si2c_master_async_aux_0.3.maxargsize, _Si2c_master_async_aux_0.3.maxargsize.group, 0
	.weak _Si2c_master_async_aux_0.3.maxargsize.group
	.globl _Si2c_master_async_aux_0.3.maxargsize.group
	.add_to_set _Si2c_master_async_aux_0.3.maxargsize.group, i2c_master_async.5.maxargsize
	.set i2c_master_async.savedstate,16 + 0 + _Si2c_master_0.init.0.savedstate + 1
	.globl i2c_master_async.savedstate
	.weak i2c_master_async.5.maxargsize.group
	.globl i2c_master_async.5.maxargsize.group
	.add_to_set i2c_master_async.5.maxargsize.group, 1
	.weak i2c_master_async.5.maxargsize
	.globl i2c_master_async.5.maxargsize
	.max_reduce i2c_master_async.5.maxargsize, i2c_master_async.5.maxargsize.group, 0
	.weak _i.i2c_master_if.write.maxchanends.group
	.add_to_set _i.i2c_master_if.write.maxchanends.group, _i.i2c_master_if._Si2c_master_0.0.write.maxchanends, _i.i2c_master_if._Si2c_master_0.0.write
	.max_reduce _i.i2c_master_if.write.max.maxchanends, _i.i2c_master_if.write.maxchanends.group, 0
	.weak _i.i2c_master_if.write.maxcores.group
	.add_to_set _i.i2c_master_if.write.maxcores.group, _i.i2c_master_if._Si2c_master_0.0.write.maxcores, _i.i2c_master_if._Si2c_master_0.0.write
	.max_reduce _i.i2c_master_if.write.max.maxcores, _i.i2c_master_if.write.maxcores.group, 0
	.weak _i.i2c_master_if.write.maxtimers.group
	.add_to_set _i.i2c_master_if.write.maxtimers.group, _i.i2c_master_if._Si2c_master_0.0.write.maxtimers, _i.i2c_master_if._Si2c_master_0.0.write
	.max_reduce _i.i2c_master_if.write.max.maxtimers, _i.i2c_master_if.write.maxtimers.group, 0
	.weak _i.i2c_master_if.write.nstackwords.group
	.globl _i.i2c_master_if.write.nstackwords.group
	.weak _i.i2c_master_if.write.fns.group
	.globl _i.i2c_master_if.write.fns.group
	.add_to_set _i.i2c_master_if.write.nstackwords.group, _i.i2c_master_if._Si2c_master_0.0.write.nstackwords, _i.i2c_master_if._Si2c_master_0.0.write
	.add_to_set _i.i2c_master_if.write.fns.group, _i.i2c_master_if._Si2c_master_0.0.write, _i.i2c_master_if._Si2c_master_0.0.write
	.max_reduce _i.i2c_master_if.write.max.nstackwords, _i.i2c_master_if.write.nstackwords.group, 0
	.max_reduce _i.i2c_master_if.write.fns, _i.i2c_master_if.write.fns.group, 0
	.weak _i.i2c_master_if.read.maxchanends.group
	.add_to_set _i.i2c_master_if.read.maxchanends.group, _i.i2c_master_if._Si2c_master_0.0.read.maxchanends, _i.i2c_master_if._Si2c_master_0.0.read
	.max_reduce _i.i2c_master_if.read.max.maxchanends, _i.i2c_master_if.read.maxchanends.group, 0
	.weak _i.i2c_master_if.read.maxcores.group
	.add_to_set _i.i2c_master_if.read.maxcores.group, _i.i2c_master_if._Si2c_master_0.0.read.maxcores, _i.i2c_master_if._Si2c_master_0.0.read
	.max_reduce _i.i2c_master_if.read.max.maxcores, _i.i2c_master_if.read.maxcores.group, 0
	.weak _i.i2c_master_if.read.maxtimers.group
	.add_to_set _i.i2c_master_if.read.maxtimers.group, _i.i2c_master_if._Si2c_master_0.0.read.maxtimers, _i.i2c_master_if._Si2c_master_0.0.read
	.max_reduce _i.i2c_master_if.read.max.maxtimers, _i.i2c_master_if.read.maxtimers.group, 0
	.weak _i.i2c_master_if.read.nstackwords.group
	.globl _i.i2c_master_if.read.nstackwords.group
	.weak _i.i2c_master_if.read.fns.group
	.globl _i.i2c_master_if.read.fns.group
	.add_to_set _i.i2c_master_if.read.nstackwords.group, _i.i2c_master_if._Si2c_master_0.0.read.nstackwords, _i.i2c_master_if._Si2c_master_0.0.read
	.add_to_set _i.i2c_master_if.read.fns.group, _i.i2c_master_if._Si2c_master_0.0.read, _i.i2c_master_if._Si2c_master_0.0.read
	.max_reduce _i.i2c_master_if.read.max.nstackwords, _i.i2c_master_if.read.nstackwords.group, 0
	.max_reduce _i.i2c_master_if.read.fns, _i.i2c_master_if.read.fns.group, 0
	.weak _i.i2c_master_if.send_stop_bit.maxchanends.group
	.add_to_set _i.i2c_master_if.send_stop_bit.maxchanends.group, _i.i2c_master_if._Si2c_master_0.0.send_stop_bit.maxchanends, _i.i2c_master_if._Si2c_master_0.0.send_stop_bit
	.max_reduce _i.i2c_master_if.send_stop_bit.max.maxchanends, _i.i2c_master_if.send_stop_bit.maxchanends.group, 0
	.weak _i.i2c_master_if.send_stop_bit.maxcores.group
	.add_to_set _i.i2c_master_if.send_stop_bit.maxcores.group, _i.i2c_master_if._Si2c_master_0.0.send_stop_bit.maxcores, _i.i2c_master_if._Si2c_master_0.0.send_stop_bit
	.max_reduce _i.i2c_master_if.send_stop_bit.max.maxcores, _i.i2c_master_if.send_stop_bit.maxcores.group, 0
	.weak _i.i2c_master_if.send_stop_bit.maxtimers.group
	.add_to_set _i.i2c_master_if.send_stop_bit.maxtimers.group, _i.i2c_master_if._Si2c_master_0.0.send_stop_bit.maxtimers, _i.i2c_master_if._Si2c_master_0.0.send_stop_bit
	.max_reduce _i.i2c_master_if.send_stop_bit.max.maxtimers, _i.i2c_master_if.send_stop_bit.maxtimers.group, 0
	.weak _i.i2c_master_if.send_stop_bit.nstackwords.group
	.globl _i.i2c_master_if.send_stop_bit.nstackwords.group
	.weak _i.i2c_master_if.send_stop_bit.fns.group
	.globl _i.i2c_master_if.send_stop_bit.fns.group
	.add_to_set _i.i2c_master_if.send_stop_bit.nstackwords.group, _i.i2c_master_if._Si2c_master_0.0.send_stop_bit.nstackwords, _i.i2c_master_if._Si2c_master_0.0.send_stop_bit
	.add_to_set _i.i2c_master_if.send_stop_bit.fns.group, _i.i2c_master_if._Si2c_master_0.0.send_stop_bit, _i.i2c_master_if._Si2c_master_0.0.send_stop_bit
	.max_reduce _i.i2c_master_if.send_stop_bit.max.nstackwords, _i.i2c_master_if.send_stop_bit.nstackwords.group, 0
	.max_reduce _i.i2c_master_if.send_stop_bit.fns, _i.i2c_master_if.send_stop_bit.fns.group, 0
	.weak _i.i2c_master_if.shutdown.maxchanends.group
	.add_to_set _i.i2c_master_if.shutdown.maxchanends.group, _i.i2c_master_if._Si2c_master_0.0.shutdown.maxchanends, _i.i2c_master_if._Si2c_master_0.0.shutdown
	.max_reduce _i.i2c_master_if.shutdown.max.maxchanends, _i.i2c_master_if.shutdown.maxchanends.group, 0
	.weak _i.i2c_master_if.shutdown.maxcores.group
	.add_to_set _i.i2c_master_if.shutdown.maxcores.group, _i.i2c_master_if._Si2c_master_0.0.shutdown.maxcores, _i.i2c_master_if._Si2c_master_0.0.shutdown
	.max_reduce _i.i2c_master_if.shutdown.max.maxcores, _i.i2c_master_if.shutdown.maxcores.group, 0
	.weak _i.i2c_master_if.shutdown.maxtimers.group
	.add_to_set _i.i2c_master_if.shutdown.maxtimers.group, _i.i2c_master_if._Si2c_master_0.0.shutdown.maxtimers, _i.i2c_master_if._Si2c_master_0.0.shutdown
	.max_reduce _i.i2c_master_if.shutdown.max.maxtimers, _i.i2c_master_if.shutdown.maxtimers.group, 0
	.weak _i.i2c_master_if.shutdown.nstackwords.group
	.globl _i.i2c_master_if.shutdown.nstackwords.group
	.weak _i.i2c_master_if.shutdown.fns.group
	.globl _i.i2c_master_if.shutdown.fns.group
	.add_to_set _i.i2c_master_if.shutdown.nstackwords.group, _i.i2c_master_if._Si2c_master_0.0.shutdown.nstackwords, _i.i2c_master_if._Si2c_master_0.0.shutdown
	.add_to_set _i.i2c_master_if.shutdown.fns.group, _i.i2c_master_if._Si2c_master_0.0.shutdown, _i.i2c_master_if._Si2c_master_0.0.shutdown
	.max_reduce _i.i2c_master_if.shutdown.max.nstackwords, _i.i2c_master_if.shutdown.nstackwords.group, 0
	.max_reduce _i.i2c_master_if.shutdown.fns, _i.i2c_master_if.shutdown.fns.group, 0
	.weak _i.i2c_master_if.__interface_init.maxchanends.group
	.add_to_set _i.i2c_master_if.__interface_init.maxchanends.group, (_Si2c_master_0.init.0.maxchanends + __interface_init_task_extra.maxchanends), _Si2c_master_0.init.0
	.max_reduce _i.i2c_master_if.__interface_init.max.maxchanends, _i.i2c_master_if.__interface_init.maxchanends.group, 0
	.weak _i.i2c_master_if.__interface_init.maxcores.group
	.add_to_set _i.i2c_master_if.__interface_init.maxcores.group, (_Si2c_master_0.init.0.maxcores + __interface_init_task_extra.maxcores), _Si2c_master_0.init.0
	.max_reduce _i.i2c_master_if.__interface_init.max.maxcores, _i.i2c_master_if.__interface_init.maxcores.group, 0
	.weak _i.i2c_master_if.__interface_init.maxtimers.group
	.add_to_set _i.i2c_master_if.__interface_init.maxtimers.group, (_Si2c_master_0.init.0.maxtimers + __interface_init_task_extra.maxtimers), _Si2c_master_0.init.0
	.max_reduce _i.i2c_master_if.__interface_init.max.maxtimers, _i.i2c_master_if.__interface_init.maxtimers.group, 0
	.weak _i.i2c_master_if.__interface_init.nstackwords.group
	.globl _i.i2c_master_if.__interface_init.nstackwords.group
	.weak _i.i2c_master_if.__interface_init.fns.group
	.globl _i.i2c_master_if.__interface_init.fns.group
	.add_to_set _i.i2c_master_if.__interface_init.nstackwords.group, (_Si2c_master_0.init.0.nstackwords + __interface_init_task_extra.nstackwords), _Si2c_master_0.init.0
	.add_to_set _i.i2c_master_if.__interface_init.fns.group, _Si2c_master_0.init.0, _Si2c_master_0.init.0
	.max_reduce _i.i2c_master_if.__interface_init.max.nstackwords, _i.i2c_master_if.__interface_init.nstackwords.group, 0
	.max_reduce _i.i2c_master_if.__interface_init.fns, _i.i2c_master_if.__interface_init.fns.group, 0
	.weak _i.i2c_master_if._client_call_y.maxchanends.group
	.add_to_set _i.i2c_master_if._client_call_y.maxchanends.group, (__interface_client_call_y_other.maxchanends + __interface_client_call_y_extra.maxchanends), __interface_client_call_y_other
	.max_reduce _i.i2c_master_if._client_call_y.max.maxchanends, _i.i2c_master_if._client_call_y.maxchanends.group, 0
	.weak _i.i2c_master_if._client_call_y.maxcores.group
	.add_to_set _i.i2c_master_if._client_call_y.maxcores.group, (__interface_client_call_y_other.maxcores + __interface_client_call_y_extra.maxcores), __interface_client_call_y_other
	.max_reduce _i.i2c_master_if._client_call_y.max.maxcores, _i.i2c_master_if._client_call_y.maxcores.group, 0
	.weak _i.i2c_master_if._client_call_y.maxtimers.group
	.add_to_set _i.i2c_master_if._client_call_y.maxtimers.group, (__interface_client_call_y_other.maxtimers + __interface_client_call_y_extra.maxtimers), __interface_client_call_y_other
	.max_reduce _i.i2c_master_if._client_call_y.max.maxtimers, _i.i2c_master_if._client_call_y.maxtimers.group, 0
	.weak _i.i2c_master_if._client_call_y.nstackwords.group
	.globl _i.i2c_master_if._client_call_y.nstackwords.group
	.weak _i.i2c_master_if._client_call_y.fns.group
	.globl _i.i2c_master_if._client_call_y.fns.group
	.add_to_set _i.i2c_master_if._client_call_y.nstackwords.group, (__interface_client_call_y_other.nstackwords + __interface_client_call_y_extra.nstackwords), __interface_client_call_y_other
	.add_to_set _i.i2c_master_if._client_call_y.fns.group, __interface_client_call_y_other, __interface_client_call_y_other
	.max_reduce _i.i2c_master_if._client_call_y.max.nstackwords, _i.i2c_master_if._client_call_y.nstackwords.group, 0
	.max_reduce _i.i2c_master_if._client_call_y.fns, _i.i2c_master_if._client_call_y.fns.group, 0
	.weak i2c_master_async_comb.5.maxargsize.group
	.globl i2c_master_async_comb.5.maxargsize.group
	.add_to_set i2c_master_async_comb.5.maxargsize.group, 1
	.weak i2c_master_async_comb.5.maxargsize
	.globl i2c_master_async_comb.5.maxargsize
	.max_reduce i2c_master_async_comb.5.maxargsize, i2c_master_async_comb.5.maxargsize.group, 0
	.set i2c_master_async_comb.select.0.enable.savedstate,66
	.globl i2c_master_async_comb.select.0.enable.savedstate
	.set i2c_master_async_comb.select.0.enable.cases.maxtimers,0 $M i2c_master_async_comb.select.0.case.0.maxtimers
	.globl i2c_master_async_comb.select.0.enable.cases.maxtimers
	.set i2c_master_async_comb.select.0.enable.cases.maxcores,0 $M i2c_master_async_comb.select.0.case.0.maxcores
	.globl i2c_master_async_comb.select.0.enable.cases.maxcores
	.set i2c_master_async_comb.select.0.enable.cases.maxchanends,0 $M i2c_master_async_comb.select.0.case.0.maxchanends
	.globl i2c_master_async_comb.select.0.enable.cases.maxchanends
	.set i2c_master_async_comb.select.0.enable.cases,0
	.globl i2c_master_async_comb.select.0.enable.cases
	.set i2c_master_async_comb.select.0.enable.cases.nstackwords, 0 $M (i2c_master_async_comb.select.0.case.0.nstackwords)
	.globl i2c_master_async_comb.select.0.enable.cases.nstackwords
	.set i2c_master_async_comb.dynalloc_maxchanends, 0
	.globl i2c_master_async_comb.dynalloc_maxchanends
	.set i2c_master_async_comb.dynalloc_maxcores, 0
	.globl i2c_master_async_comb.dynalloc_maxcores
	.set i2c_master_async_comb.dynalloc_maxtimers, 0
	.globl i2c_master_async_comb.dynalloc_maxtimers
	.set i2c_master_async_comb.init.0.savedstate,66 + 0 + (((i2c_master_async_comb.5.maxargsize * 1)+3)/4)
	.globl i2c_master_async_comb.init.0.savedstate
	.set i2c_master_async_comb.select.yield.enable.savedstate,66
	.globl i2c_master_async_comb.select.yield.enable.savedstate
	.set i2c_master_async_comb.select.yield.enable.cases.maxtimers,0 $M i2c_master_async_comb.select.yield.case.2.maxtimers $M i2c_master_async_comb.select.yield.case.1.maxtimers $M i2c_master_async_comb.select.yield.case.0.maxtimers
	.globl i2c_master_async_comb.select.yield.enable.cases.maxtimers
	.set i2c_master_async_comb.select.yield.enable.cases.maxcores,0 $M i2c_master_async_comb.select.yield.case.2.maxcores $M i2c_master_async_comb.select.yield.case.1.maxcores $M i2c_master_async_comb.select.yield.case.0.maxcores
	.globl i2c_master_async_comb.select.yield.enable.cases.maxcores
	.set i2c_master_async_comb.select.yield.enable.cases.maxchanends,0 $M i2c_master_async_comb.select.yield.case.2.maxchanends $M i2c_master_async_comb.select.yield.case.1.maxchanends $M i2c_master_async_comb.select.yield.case.0.maxchanends
	.globl i2c_master_async_comb.select.yield.enable.cases.maxchanends
	.set i2c_master_async_comb.select.yield.enable.cases,0
	.globl i2c_master_async_comb.select.yield.enable.cases
	.set i2c_master_async_comb.select.yield.enable.cases.nstackwords, 0 $M (i2c_master_async_comb.select.yield.case.0.nstackwords) $M (i2c_master_async_comb.select.yield.case.1.nstackwords) $M (i2c_master_async_comb.select.yield.case.2.nstackwords)
	.globl i2c_master_async_comb.select.yield.enable.cases.nstackwords
	.set i2c_master_async_comb.select.enable.savedstate,66
	.globl i2c_master_async_comb.select.enable.savedstate
	.set i2c_master_async_comb.select.enable.cases.maxtimers,0 $M i2c_master_async_comb.select.case.2.maxtimers $M i2c_master_async_comb.select.case.1.maxtimers $M i2c_master_async_comb.select.case.0.maxtimers
	.globl i2c_master_async_comb.select.enable.cases.maxtimers
	.set i2c_master_async_comb.select.enable.cases.maxcores,0 $M i2c_master_async_comb.select.case.2.maxcores $M i2c_master_async_comb.select.case.1.maxcores $M i2c_master_async_comb.select.case.0.maxcores
	.globl i2c_master_async_comb.select.enable.cases.maxcores
	.set i2c_master_async_comb.select.enable.cases.maxchanends,0 $M i2c_master_async_comb.select.case.2.maxchanends $M i2c_master_async_comb.select.case.1.maxchanends $M i2c_master_async_comb.select.case.0.maxchanends
	.globl i2c_master_async_comb.select.enable.cases.maxchanends
	.set i2c_master_async_comb.select.enable.cases,0
	.globl i2c_master_async_comb.select.enable.cases
	.set i2c_master_async_comb.select.enable.cases.nstackwords, 0 $M (i2c_master_async_comb.select.case.0.nstackwords) $M (i2c_master_async_comb.select.case.1.nstackwords) $M (i2c_master_async_comb.select.case.2.nstackwords)
	.globl i2c_master_async_comb.select.enable.cases.nstackwords
	.weak _i.i2c_slave_callback_if.start_read_request.maxchanends.group
	.max_reduce _i.i2c_slave_callback_if.start_read_request.max.maxchanends, _i.i2c_slave_callback_if.start_read_request.maxchanends.group, 0
	.weak _i.i2c_slave_callback_if.start_read_request.maxcores.group
	.max_reduce _i.i2c_slave_callback_if.start_read_request.max.maxcores, _i.i2c_slave_callback_if.start_read_request.maxcores.group, 0
	.weak _i.i2c_slave_callback_if.start_read_request.maxtimers.group
	.max_reduce _i.i2c_slave_callback_if.start_read_request.max.maxtimers, _i.i2c_slave_callback_if.start_read_request.maxtimers.group, 0
	.weak _i.i2c_slave_callback_if.start_read_request.nstackwords.group
	.globl _i.i2c_slave_callback_if.start_read_request.nstackwords.group
	.weak _i.i2c_slave_callback_if.start_read_request.fns.group
	.globl _i.i2c_slave_callback_if.start_read_request.fns.group
	.max_reduce _i.i2c_slave_callback_if.start_read_request.max.nstackwords, _i.i2c_slave_callback_if.start_read_request.nstackwords.group, 0
	.max_reduce _i.i2c_slave_callback_if.start_read_request.fns, _i.i2c_slave_callback_if.start_read_request.fns.group, 0
	.weak _i.i2c_slave_callback_if.ack_read_request.maxchanends.group
	.max_reduce _i.i2c_slave_callback_if.ack_read_request.max.maxchanends, _i.i2c_slave_callback_if.ack_read_request.maxchanends.group, 0
	.weak _i.i2c_slave_callback_if.ack_read_request.maxcores.group
	.max_reduce _i.i2c_slave_callback_if.ack_read_request.max.maxcores, _i.i2c_slave_callback_if.ack_read_request.maxcores.group, 0
	.weak _i.i2c_slave_callback_if.ack_read_request.maxtimers.group
	.max_reduce _i.i2c_slave_callback_if.ack_read_request.max.maxtimers, _i.i2c_slave_callback_if.ack_read_request.maxtimers.group, 0
	.weak _i.i2c_slave_callback_if.ack_read_request.nstackwords.group
	.globl _i.i2c_slave_callback_if.ack_read_request.nstackwords.group
	.weak _i.i2c_slave_callback_if.ack_read_request.fns.group
	.globl _i.i2c_slave_callback_if.ack_read_request.fns.group
	.max_reduce _i.i2c_slave_callback_if.ack_read_request.max.nstackwords, _i.i2c_slave_callback_if.ack_read_request.nstackwords.group, 0
	.max_reduce _i.i2c_slave_callback_if.ack_read_request.fns, _i.i2c_slave_callback_if.ack_read_request.fns.group, 0
	.weak _i.i2c_slave_callback_if.start_write_request.maxchanends.group
	.max_reduce _i.i2c_slave_callback_if.start_write_request.max.maxchanends, _i.i2c_slave_callback_if.start_write_request.maxchanends.group, 0
	.weak _i.i2c_slave_callback_if.start_write_request.maxcores.group
	.max_reduce _i.i2c_slave_callback_if.start_write_request.max.maxcores, _i.i2c_slave_callback_if.start_write_request.maxcores.group, 0
	.weak _i.i2c_slave_callback_if.start_write_request.maxtimers.group
	.max_reduce _i.i2c_slave_callback_if.start_write_request.max.maxtimers, _i.i2c_slave_callback_if.start_write_request.maxtimers.group, 0
	.weak _i.i2c_slave_callback_if.start_write_request.nstackwords.group
	.globl _i.i2c_slave_callback_if.start_write_request.nstackwords.group
	.weak _i.i2c_slave_callback_if.start_write_request.fns.group
	.globl _i.i2c_slave_callback_if.start_write_request.fns.group
	.max_reduce _i.i2c_slave_callback_if.start_write_request.max.nstackwords, _i.i2c_slave_callback_if.start_write_request.nstackwords.group, 0
	.max_reduce _i.i2c_slave_callback_if.start_write_request.fns, _i.i2c_slave_callback_if.start_write_request.fns.group, 0
	.weak _i.i2c_slave_callback_if.ack_write_request.maxchanends.group
	.max_reduce _i.i2c_slave_callback_if.ack_write_request.max.maxchanends, _i.i2c_slave_callback_if.ack_write_request.maxchanends.group, 0
	.weak _i.i2c_slave_callback_if.ack_write_request.maxcores.group
	.max_reduce _i.i2c_slave_callback_if.ack_write_request.max.maxcores, _i.i2c_slave_callback_if.ack_write_request.maxcores.group, 0
	.weak _i.i2c_slave_callback_if.ack_write_request.maxtimers.group
	.max_reduce _i.i2c_slave_callback_if.ack_write_request.max.maxtimers, _i.i2c_slave_callback_if.ack_write_request.maxtimers.group, 0
	.weak _i.i2c_slave_callback_if.ack_write_request.nstackwords.group
	.globl _i.i2c_slave_callback_if.ack_write_request.nstackwords.group
	.weak _i.i2c_slave_callback_if.ack_write_request.fns.group
	.globl _i.i2c_slave_callback_if.ack_write_request.fns.group
	.max_reduce _i.i2c_slave_callback_if.ack_write_request.max.nstackwords, _i.i2c_slave_callback_if.ack_write_request.nstackwords.group, 0
	.max_reduce _i.i2c_slave_callback_if.ack_write_request.fns, _i.i2c_slave_callback_if.ack_write_request.fns.group, 0
	.weak _i.i2c_slave_callback_if.start_master_read.maxchanends.group
	.max_reduce _i.i2c_slave_callback_if.start_master_read.max.maxchanends, _i.i2c_slave_callback_if.start_master_read.maxchanends.group, 0
	.weak _i.i2c_slave_callback_if.start_master_read.maxcores.group
	.max_reduce _i.i2c_slave_callback_if.start_master_read.max.maxcores, _i.i2c_slave_callback_if.start_master_read.maxcores.group, 0
	.weak _i.i2c_slave_callback_if.start_master_read.maxtimers.group
	.max_reduce _i.i2c_slave_callback_if.start_master_read.max.maxtimers, _i.i2c_slave_callback_if.start_master_read.maxtimers.group, 0
	.weak _i.i2c_slave_callback_if.start_master_read.nstackwords.group
	.globl _i.i2c_slave_callback_if.start_master_read.nstackwords.group
	.weak _i.i2c_slave_callback_if.start_master_read.fns.group
	.globl _i.i2c_slave_callback_if.start_master_read.fns.group
	.max_reduce _i.i2c_slave_callback_if.start_master_read.max.nstackwords, _i.i2c_slave_callback_if.start_master_read.nstackwords.group, 0
	.max_reduce _i.i2c_slave_callback_if.start_master_read.fns, _i.i2c_slave_callback_if.start_master_read.fns.group, 0
	.weak _i.i2c_slave_callback_if.master_requires_data.maxchanends.group
	.max_reduce _i.i2c_slave_callback_if.master_requires_data.max.maxchanends, _i.i2c_slave_callback_if.master_requires_data.maxchanends.group, 0
	.weak _i.i2c_slave_callback_if.master_requires_data.maxcores.group
	.max_reduce _i.i2c_slave_callback_if.master_requires_data.max.maxcores, _i.i2c_slave_callback_if.master_requires_data.maxcores.group, 0
	.weak _i.i2c_slave_callback_if.master_requires_data.maxtimers.group
	.max_reduce _i.i2c_slave_callback_if.master_requires_data.max.maxtimers, _i.i2c_slave_callback_if.master_requires_data.maxtimers.group, 0
	.weak _i.i2c_slave_callback_if.master_requires_data.nstackwords.group
	.globl _i.i2c_slave_callback_if.master_requires_data.nstackwords.group
	.weak _i.i2c_slave_callback_if.master_requires_data.fns.group
	.globl _i.i2c_slave_callback_if.master_requires_data.fns.group
	.max_reduce _i.i2c_slave_callback_if.master_requires_data.max.nstackwords, _i.i2c_slave_callback_if.master_requires_data.nstackwords.group, 0
	.max_reduce _i.i2c_slave_callback_if.master_requires_data.fns, _i.i2c_slave_callback_if.master_requires_data.fns.group, 0
	.weak _i.i2c_slave_callback_if.start_master_write.maxchanends.group
	.max_reduce _i.i2c_slave_callback_if.start_master_write.max.maxchanends, _i.i2c_slave_callback_if.start_master_write.maxchanends.group, 0
	.weak _i.i2c_slave_callback_if.start_master_write.maxcores.group
	.max_reduce _i.i2c_slave_callback_if.start_master_write.max.maxcores, _i.i2c_slave_callback_if.start_master_write.maxcores.group, 0
	.weak _i.i2c_slave_callback_if.start_master_write.maxtimers.group
	.max_reduce _i.i2c_slave_callback_if.start_master_write.max.maxtimers, _i.i2c_slave_callback_if.start_master_write.maxtimers.group, 0
	.weak _i.i2c_slave_callback_if.start_master_write.nstackwords.group
	.globl _i.i2c_slave_callback_if.start_master_write.nstackwords.group
	.weak _i.i2c_slave_callback_if.start_master_write.fns.group
	.globl _i.i2c_slave_callback_if.start_master_write.fns.group
	.max_reduce _i.i2c_slave_callback_if.start_master_write.max.nstackwords, _i.i2c_slave_callback_if.start_master_write.nstackwords.group, 0
	.max_reduce _i.i2c_slave_callback_if.start_master_write.fns, _i.i2c_slave_callback_if.start_master_write.fns.group, 0
	.weak _i.i2c_slave_callback_if.master_sent_data.maxchanends.group
	.max_reduce _i.i2c_slave_callback_if.master_sent_data.max.maxchanends, _i.i2c_slave_callback_if.master_sent_data.maxchanends.group, 0
	.weak _i.i2c_slave_callback_if.master_sent_data.maxcores.group
	.max_reduce _i.i2c_slave_callback_if.master_sent_data.max.maxcores, _i.i2c_slave_callback_if.master_sent_data.maxcores.group, 0
	.weak _i.i2c_slave_callback_if.master_sent_data.maxtimers.group
	.max_reduce _i.i2c_slave_callback_if.master_sent_data.max.maxtimers, _i.i2c_slave_callback_if.master_sent_data.maxtimers.group, 0
	.weak _i.i2c_slave_callback_if.master_sent_data.nstackwords.group
	.globl _i.i2c_slave_callback_if.master_sent_data.nstackwords.group
	.weak _i.i2c_slave_callback_if.master_sent_data.fns.group
	.globl _i.i2c_slave_callback_if.master_sent_data.fns.group
	.max_reduce _i.i2c_slave_callback_if.master_sent_data.max.nstackwords, _i.i2c_slave_callback_if.master_sent_data.nstackwords.group, 0
	.max_reduce _i.i2c_slave_callback_if.master_sent_data.fns, _i.i2c_slave_callback_if.master_sent_data.fns.group, 0
	.weak _i.i2c_slave_callback_if.stop_bit.maxchanends.group
	.max_reduce _i.i2c_slave_callback_if.stop_bit.max.maxchanends, _i.i2c_slave_callback_if.stop_bit.maxchanends.group, 0
	.weak _i.i2c_slave_callback_if.stop_bit.maxcores.group
	.max_reduce _i.i2c_slave_callback_if.stop_bit.max.maxcores, _i.i2c_slave_callback_if.stop_bit.maxcores.group, 0
	.weak _i.i2c_slave_callback_if.stop_bit.maxtimers.group
	.max_reduce _i.i2c_slave_callback_if.stop_bit.max.maxtimers, _i.i2c_slave_callback_if.stop_bit.maxtimers.group, 0
	.weak _i.i2c_slave_callback_if.stop_bit.nstackwords.group
	.globl _i.i2c_slave_callback_if.stop_bit.nstackwords.group
	.weak _i.i2c_slave_callback_if.stop_bit.fns.group
	.globl _i.i2c_slave_callback_if.stop_bit.fns.group
	.max_reduce _i.i2c_slave_callback_if.stop_bit.max.nstackwords, _i.i2c_slave_callback_if.stop_bit.nstackwords.group, 0
	.max_reduce _i.i2c_slave_callback_if.stop_bit.fns, _i.i2c_slave_callback_if.stop_bit.fns.group, 0
	.weak _i.i2c_slave_callback_if.__interface_init.maxchanends.group
	.max_reduce _i.i2c_slave_callback_if.__interface_init.max.maxchanends, _i.i2c_slave_callback_if.__interface_init.maxchanends.group, 0
	.weak _i.i2c_slave_callback_if.__interface_init.maxcores.group
	.max_reduce _i.i2c_slave_callback_if.__interface_init.max.maxcores, _i.i2c_slave_callback_if.__interface_init.maxcores.group, 0
	.weak _i.i2c_slave_callback_if.__interface_init.maxtimers.group
	.max_reduce _i.i2c_slave_callback_if.__interface_init.max.maxtimers, _i.i2c_slave_callback_if.__interface_init.maxtimers.group, 0
	.weak _i.i2c_slave_callback_if.__interface_init.nstackwords.group
	.globl _i.i2c_slave_callback_if.__interface_init.nstackwords.group
	.weak _i.i2c_slave_callback_if.__interface_init.fns.group
	.globl _i.i2c_slave_callback_if.__interface_init.fns.group
	.max_reduce _i.i2c_slave_callback_if.__interface_init.max.nstackwords, _i.i2c_slave_callback_if.__interface_init.nstackwords.group, 0
	.max_reduce _i.i2c_slave_callback_if.__interface_init.fns, _i.i2c_slave_callback_if.__interface_init.fns.group, 0
	.weak _i.i2c_slave_callback_if._client_call_y.maxchanends.group
	.add_to_set _i.i2c_slave_callback_if._client_call_y.maxchanends.group, (__interface_client_call_y_other.maxchanends + __interface_client_call_y_extra.maxchanends), __interface_client_call_y_other
	.max_reduce _i.i2c_slave_callback_if._client_call_y.max.maxchanends, _i.i2c_slave_callback_if._client_call_y.maxchanends.group, 0
	.weak _i.i2c_slave_callback_if._client_call_y.maxcores.group
	.add_to_set _i.i2c_slave_callback_if._client_call_y.maxcores.group, (__interface_client_call_y_other.maxcores + __interface_client_call_y_extra.maxcores), __interface_client_call_y_other
	.max_reduce _i.i2c_slave_callback_if._client_call_y.max.maxcores, _i.i2c_slave_callback_if._client_call_y.maxcores.group, 0
	.weak _i.i2c_slave_callback_if._client_call_y.maxtimers.group
	.add_to_set _i.i2c_slave_callback_if._client_call_y.maxtimers.group, (__interface_client_call_y_other.maxtimers + __interface_client_call_y_extra.maxtimers), __interface_client_call_y_other
	.max_reduce _i.i2c_slave_callback_if._client_call_y.max.maxtimers, _i.i2c_slave_callback_if._client_call_y.maxtimers.group, 0
	.weak _i.i2c_slave_callback_if._client_call_y.nstackwords.group
	.globl _i.i2c_slave_callback_if._client_call_y.nstackwords.group
	.weak _i.i2c_slave_callback_if._client_call_y.fns.group
	.globl _i.i2c_slave_callback_if._client_call_y.fns.group
	.add_to_set _i.i2c_slave_callback_if._client_call_y.nstackwords.group, (__interface_client_call_y_other.nstackwords + __interface_client_call_y_extra.nstackwords), __interface_client_call_y_other
	.add_to_set _i.i2c_slave_callback_if._client_call_y.fns.group, __interface_client_call_y_other, __interface_client_call_y_other
	.max_reduce _i.i2c_slave_callback_if._client_call_y.max.nstackwords, _i.i2c_slave_callback_if._client_call_y.nstackwords.group, 0
	.max_reduce _i.i2c_slave_callback_if._client_call_y.fns, _i.i2c_slave_callback_if._client_call_y.fns.group, 0
	.weak _i.i2c_master_async_if.write.maxchanends.group
	.max_reduce _i.i2c_master_async_if.write.max.maxchanends, _i.i2c_master_async_if.write.maxchanends.group, 0
	.weak _i.i2c_master_async_if.write.maxcores.group
	.max_reduce _i.i2c_master_async_if.write.max.maxcores, _i.i2c_master_async_if.write.maxcores.group, 0
	.weak _i.i2c_master_async_if.write.maxtimers.group
	.max_reduce _i.i2c_master_async_if.write.max.maxtimers, _i.i2c_master_async_if.write.maxtimers.group, 0
	.weak _i.i2c_master_async_if.write.nstackwords.group
	.globl _i.i2c_master_async_if.write.nstackwords.group
	.weak _i.i2c_master_async_if.write.fns.group
	.globl _i.i2c_master_async_if.write.fns.group
	.max_reduce _i.i2c_master_async_if.write.max.nstackwords, _i.i2c_master_async_if.write.nstackwords.group, 0
	.max_reduce _i.i2c_master_async_if.write.fns, _i.i2c_master_async_if.write.fns.group, 0
	.weak _i.i2c_master_async_if.read.maxchanends.group
	.max_reduce _i.i2c_master_async_if.read.max.maxchanends, _i.i2c_master_async_if.read.maxchanends.group, 0
	.weak _i.i2c_master_async_if.read.maxcores.group
	.max_reduce _i.i2c_master_async_if.read.max.maxcores, _i.i2c_master_async_if.read.maxcores.group, 0
	.weak _i.i2c_master_async_if.read.maxtimers.group
	.max_reduce _i.i2c_master_async_if.read.max.maxtimers, _i.i2c_master_async_if.read.maxtimers.group, 0
	.weak _i.i2c_master_async_if.read.nstackwords.group
	.globl _i.i2c_master_async_if.read.nstackwords.group
	.weak _i.i2c_master_async_if.read.fns.group
	.globl _i.i2c_master_async_if.read.fns.group
	.max_reduce _i.i2c_master_async_if.read.max.nstackwords, _i.i2c_master_async_if.read.nstackwords.group, 0
	.max_reduce _i.i2c_master_async_if.read.fns, _i.i2c_master_async_if.read.fns.group, 0
	.weak _i.i2c_master_async_if.get_write_result.maxchanends.group
	.max_reduce _i.i2c_master_async_if.get_write_result.max.maxchanends, _i.i2c_master_async_if.get_write_result.maxchanends.group, 0
	.weak _i.i2c_master_async_if.get_write_result.maxcores.group
	.max_reduce _i.i2c_master_async_if.get_write_result.max.maxcores, _i.i2c_master_async_if.get_write_result.maxcores.group, 0
	.weak _i.i2c_master_async_if.get_write_result.maxtimers.group
	.max_reduce _i.i2c_master_async_if.get_write_result.max.maxtimers, _i.i2c_master_async_if.get_write_result.maxtimers.group, 0
	.weak _i.i2c_master_async_if.get_write_result.nstackwords.group
	.globl _i.i2c_master_async_if.get_write_result.nstackwords.group
	.weak _i.i2c_master_async_if.get_write_result.fns.group
	.globl _i.i2c_master_async_if.get_write_result.fns.group
	.max_reduce _i.i2c_master_async_if.get_write_result.max.nstackwords, _i.i2c_master_async_if.get_write_result.nstackwords.group, 0
	.max_reduce _i.i2c_master_async_if.get_write_result.fns, _i.i2c_master_async_if.get_write_result.fns.group, 0
	.weak _i.i2c_master_async_if.get_read_data.maxchanends.group
	.max_reduce _i.i2c_master_async_if.get_read_data.max.maxchanends, _i.i2c_master_async_if.get_read_data.maxchanends.group, 0
	.weak _i.i2c_master_async_if.get_read_data.maxcores.group
	.max_reduce _i.i2c_master_async_if.get_read_data.max.maxcores, _i.i2c_master_async_if.get_read_data.maxcores.group, 0
	.weak _i.i2c_master_async_if.get_read_data.maxtimers.group
	.max_reduce _i.i2c_master_async_if.get_read_data.max.maxtimers, _i.i2c_master_async_if.get_read_data.maxtimers.group, 0
	.weak _i.i2c_master_async_if.get_read_data.nstackwords.group
	.globl _i.i2c_master_async_if.get_read_data.nstackwords.group
	.weak _i.i2c_master_async_if.get_read_data.fns.group
	.globl _i.i2c_master_async_if.get_read_data.fns.group
	.max_reduce _i.i2c_master_async_if.get_read_data.max.nstackwords, _i.i2c_master_async_if.get_read_data.nstackwords.group, 0
	.max_reduce _i.i2c_master_async_if.get_read_data.fns, _i.i2c_master_async_if.get_read_data.fns.group, 0
	.weak _i.i2c_master_async_if.send_stop_bit.maxchanends.group
	.max_reduce _i.i2c_master_async_if.send_stop_bit.max.maxchanends, _i.i2c_master_async_if.send_stop_bit.maxchanends.group, 0
	.weak _i.i2c_master_async_if.send_stop_bit.maxcores.group
	.max_reduce _i.i2c_master_async_if.send_stop_bit.max.maxcores, _i.i2c_master_async_if.send_stop_bit.maxcores.group, 0
	.weak _i.i2c_master_async_if.send_stop_bit.maxtimers.group
	.max_reduce _i.i2c_master_async_if.send_stop_bit.max.maxtimers, _i.i2c_master_async_if.send_stop_bit.maxtimers.group, 0
	.weak _i.i2c_master_async_if.send_stop_bit.nstackwords.group
	.globl _i.i2c_master_async_if.send_stop_bit.nstackwords.group
	.weak _i.i2c_master_async_if.send_stop_bit.fns.group
	.globl _i.i2c_master_async_if.send_stop_bit.fns.group
	.max_reduce _i.i2c_master_async_if.send_stop_bit.max.nstackwords, _i.i2c_master_async_if.send_stop_bit.nstackwords.group, 0
	.max_reduce _i.i2c_master_async_if.send_stop_bit.fns, _i.i2c_master_async_if.send_stop_bit.fns.group, 0
	.weak _i.i2c_master_async_if.shutdown.maxchanends.group
	.max_reduce _i.i2c_master_async_if.shutdown.max.maxchanends, _i.i2c_master_async_if.shutdown.maxchanends.group, 0
	.weak _i.i2c_master_async_if.shutdown.maxcores.group
	.max_reduce _i.i2c_master_async_if.shutdown.max.maxcores, _i.i2c_master_async_if.shutdown.maxcores.group, 0
	.weak _i.i2c_master_async_if.shutdown.maxtimers.group
	.max_reduce _i.i2c_master_async_if.shutdown.max.maxtimers, _i.i2c_master_async_if.shutdown.maxtimers.group, 0
	.weak _i.i2c_master_async_if.shutdown.nstackwords.group
	.globl _i.i2c_master_async_if.shutdown.nstackwords.group
	.weak _i.i2c_master_async_if.shutdown.fns.group
	.globl _i.i2c_master_async_if.shutdown.fns.group
	.max_reduce _i.i2c_master_async_if.shutdown.max.nstackwords, _i.i2c_master_async_if.shutdown.nstackwords.group, 0
	.max_reduce _i.i2c_master_async_if.shutdown.fns, _i.i2c_master_async_if.shutdown.fns.group, 0
	.weak _i.i2c_master_async_if.__interface_init.maxchanends.group
	.max_reduce _i.i2c_master_async_if.__interface_init.max.maxchanends, _i.i2c_master_async_if.__interface_init.maxchanends.group, 0
	.weak _i.i2c_master_async_if.__interface_init.maxcores.group
	.max_reduce _i.i2c_master_async_if.__interface_init.max.maxcores, _i.i2c_master_async_if.__interface_init.maxcores.group, 0
	.weak _i.i2c_master_async_if.__interface_init.maxtimers.group
	.max_reduce _i.i2c_master_async_if.__interface_init.max.maxtimers, _i.i2c_master_async_if.__interface_init.maxtimers.group, 0
	.weak _i.i2c_master_async_if.__interface_init.nstackwords.group
	.globl _i.i2c_master_async_if.__interface_init.nstackwords.group
	.weak _i.i2c_master_async_if.__interface_init.fns.group
	.globl _i.i2c_master_async_if.__interface_init.fns.group
	.max_reduce _i.i2c_master_async_if.__interface_init.max.nstackwords, _i.i2c_master_async_if.__interface_init.nstackwords.group, 0
	.max_reduce _i.i2c_master_async_if.__interface_init.fns, _i.i2c_master_async_if.__interface_init.fns.group, 0
	.weak _i.i2c_master_async_if._client_call_y.maxchanends.group
	.add_to_set _i.i2c_master_async_if._client_call_y.maxchanends.group, (__interface_client_call_y_other.maxchanends + __interface_client_call_y_extra.maxchanends), __interface_client_call_y_other
	.max_reduce _i.i2c_master_async_if._client_call_y.max.maxchanends, _i.i2c_master_async_if._client_call_y.maxchanends.group, 0
	.weak _i.i2c_master_async_if._client_call_y.maxcores.group
	.add_to_set _i.i2c_master_async_if._client_call_y.maxcores.group, (__interface_client_call_y_other.maxcores + __interface_client_call_y_extra.maxcores), __interface_client_call_y_other
	.max_reduce _i.i2c_master_async_if._client_call_y.max.maxcores, _i.i2c_master_async_if._client_call_y.maxcores.group, 0
	.weak _i.i2c_master_async_if._client_call_y.maxtimers.group
	.add_to_set _i.i2c_master_async_if._client_call_y.maxtimers.group, (__interface_client_call_y_other.maxtimers + __interface_client_call_y_extra.maxtimers), __interface_client_call_y_other
	.max_reduce _i.i2c_master_async_if._client_call_y.max.maxtimers, _i.i2c_master_async_if._client_call_y.maxtimers.group, 0
	.weak _i.i2c_master_async_if._client_call_y.nstackwords.group
	.globl _i.i2c_master_async_if._client_call_y.nstackwords.group
	.weak _i.i2c_master_async_if._client_call_y.fns.group
	.globl _i.i2c_master_async_if._client_call_y.fns.group
	.add_to_set _i.i2c_master_async_if._client_call_y.nstackwords.group, (__interface_client_call_y_other.nstackwords + __interface_client_call_y_extra.nstackwords), __interface_client_call_y_other
	.add_to_set _i.i2c_master_async_if._client_call_y.fns.group, __interface_client_call_y_other, __interface_client_call_y_other
	.max_reduce _i.i2c_master_async_if._client_call_y.max.nstackwords, _i.i2c_master_async_if._client_call_y.nstackwords.group, 0
	.max_reduce _i.i2c_master_async_if._client_call_y.fns, _i.i2c_master_async_if._client_call_y.fns.group, 0
	.weak _i.i2c_master_if.write.maxchanends.group
	.weak _i.i2c_master_if.write.maxcores.group
	.weak _i.i2c_master_if.write.maxtimers.group
	.weak _i.i2c_master_if.write.nstackwords.group
	.globl _i.i2c_master_if.write.nstackwords.group
	.weak _i.i2c_master_if.write.fns.group
	.globl _i.i2c_master_if.write.fns.group
	.weak _i.i2c_master_if.read.maxchanends.group
	.weak _i.i2c_master_if.read.maxcores.group
	.weak _i.i2c_master_if.read.maxtimers.group
	.weak _i.i2c_master_if.read.nstackwords.group
	.globl _i.i2c_master_if.read.nstackwords.group
	.weak _i.i2c_master_if.read.fns.group
	.globl _i.i2c_master_if.read.fns.group
	.weak _i.i2c_master_if.send_stop_bit.maxchanends.group
	.weak _i.i2c_master_if.send_stop_bit.maxcores.group
	.weak _i.i2c_master_if.send_stop_bit.maxtimers.group
	.weak _i.i2c_master_if.send_stop_bit.nstackwords.group
	.globl _i.i2c_master_if.send_stop_bit.nstackwords.group
	.weak _i.i2c_master_if.send_stop_bit.fns.group
	.globl _i.i2c_master_if.send_stop_bit.fns.group
	.weak _i.i2c_master_if.shutdown.maxchanends.group
	.weak _i.i2c_master_if.shutdown.maxcores.group
	.weak _i.i2c_master_if.shutdown.maxtimers.group
	.weak _i.i2c_master_if.shutdown.nstackwords.group
	.globl _i.i2c_master_if.shutdown.nstackwords.group
	.weak _i.i2c_master_if.shutdown.fns.group
	.globl _i.i2c_master_if.shutdown.fns.group
	.weak _i.i2c_master_if.__interface_init.maxchanends.group
	.weak _i.i2c_master_if.__interface_init.maxcores.group
	.weak _i.i2c_master_if.__interface_init.maxtimers.group
	.weak _i.i2c_master_if.__interface_init.nstackwords.group
	.globl _i.i2c_master_if.__interface_init.nstackwords.group
	.weak _i.i2c_master_if.__interface_init.fns.group
	.globl _i.i2c_master_if.__interface_init.fns.group
	.set usage.anon.0,0
	.set usage.anon.1,0
	.set usage.anon.2,0
	.set usage.anon.3,0
	.set usage.anon.4,0
	.set usage.anon.5,0
	.set usage.anon.6,0
	.set usage.anon.7,0
	.set usage.anon.8,0
	.set usage.anon.9,0
	.set usage.anon.10,0
	.set usage.anon.11,0
	.set usage.anon.12,0
	.set usage.anon.13,0
	.set usage.anon.14,0
	.set usage.anon.15,0
	.set usage.anon.16,0
	.call i2c_master_async_comb,usage.anon.16
	.call i2c_master_async_comb,usage.anon.15
	.call i2c_master_async,i2c_master_async_aux
	.call i2c_master_async,i2c_master
	.call usage.anon.13,memset
	.call usage.anon.12,memmove
	.call usage.anon.11,memcmp
	.call usage.anon.10,delay_ticks_longlong
	.call usage.anon.9,delay_ticks_longlong
	.call usage.anon.8,delay_ticks_longlong
	.par i2c_master,i2c_master_async_aux,"C:/Users/user/workspace/lib_i2c/src/i2c_master_async.xc:124:3: error: use of `%s\' violates parallel usage rules\n  par {\n  ^~~"
	.set usage.anon.0.locnoside, 0
	.set usage.anon.1.locnoside, 0
	.set usage.anon.2.locnoside, 0
	.set usage.anon.3.locnoside, 0
	.set usage.anon.4.locnoside, 0
	.set usage.anon.5.locnoside, 0
	.set usage.anon.6.locnoside, 0
	.set usage.anon.7.locnoside, 0
	.set i2c_master_async_aux.locnoside, 0
	.set i2c_master_async.locnoside, 0
	.set usage.anon.15.locnoside, 0
	.set i2c_master_async_comb.locnoside, 0
	.set usage.anon.0.locnointerfaceaccess, 0
	.set usage.anon.1.locnointerfaceaccess, 0
	.set usage.anon.2.locnointerfaceaccess, 0
	.set usage.anon.3.locnointerfaceaccess, 0
	.set usage.anon.4.locnointerfaceaccess, 0
	.set usage.anon.5.locnointerfaceaccess, 0
	.set usage.anon.6.locnointerfaceaccess, 0
	.set usage.anon.7.locnointerfaceaccess, 0
	.set i2c_master_async_aux.locnointerfaceaccess, 0
	.set i2c_master_async_comb.locnointerfaceaccess, 0
	.assert 1,usage.anon.16.actnonotificationselect,"C:/Users/user/workspace/lib_i2c/src/i2c_master_async.xc:376:21: error: call to function `adjust_fall\' which selects on a notification in a combinable function select case\n        fall_time = adjust_fall(event_time, now, fall_time);\n                    ^~~~~~~~~~~~~~~~~~~~~~~~~~~~~~~~~~~~~~~"
	.assert 1,usage.anon.15.actnonotificationselect,"C:/Users/user/workspace/lib_i2c/src/i2c_master_async.xc:384:9: error: call to function `adjust_for_slip\' which selects on a notification in a combinable function select case\n        adjust_for_slip(now, event_time, fall_time);\n        ^~~~~~~~~~~~~~~~~~~~~~~~~~~~~~~~~~~~~~~~~~~"
	.assert 1,memset.actnoglobalaccess,"In file included from C:/Users/user/workspace/lib_i2c/src/i2c_master_async.xc:4:\nIn file included from C:\\Program Files (x86)\\XMOS\\xTIMEcomposer\\Community_14.3.3\\target/include/xc\\string.h:5:\nC:\\Program Files (x86)\\XMOS\\xTIMEcomposer\\Community_14.3.3\\target/include/xc\\safe/string.h:21:3: error: passing non-local alias to function `memset\' which accesses a global variable\n  memset(s, c, n);\n  ^~~~~~~~~~~~~~~"
	.assert 1,memmove.actnoglobalaccess,"In file included from C:/Users/user/workspace/lib_i2c/src/i2c_master_async.xc:4:\nIn file included from C:\\Program Files (x86)\\XMOS\\xTIMEcomposer\\Community_14.3.3\\target/include/xc\\string.h:5:\nC:\\Program Files (x86)\\XMOS\\xTIMEcomposer\\Community_14.3.3\\target/include/xc\\safe/string.h:15:3: error: passing non-local alias to function `memmove\' which accesses a global variable\n  memmove(s1, s2, n);\n  ^~~~~~~~~~~~~~~~~~"

                                        # End of file scope inline assembly
	.text
	.globl	_i.i2c_master_async_if.i2c_master_async_comb._c0.shutdown
	.align	4
	.type	_i.i2c_master_async_if.i2c_master_async_comb._c0.shutdown,@function
	.cc_top _i.i2c_master_async_if.i2c_master_async_comb._c0.shutdown.function,_i.i2c_master_async_if.i2c_master_async_comb._c0.shutdown
_i.i2c_master_async_if.i2c_master_async_comb._c0.shutdown: # @_i.i2c_master_async_if.i2c_master_async_comb._c0.shutdown
	.cfi_startproc
	.issue_mode single
# BB#0:                                 # %allocas
	ENTSP_lu6 0
	#DEBUG_VALUE: _i.i2c_master_async_if.i2c_master_async_comb._c0.shutdown:p <- R0
	ldw r0, r0[0]
.LBB0_1:                                # %LoopTest
                                        # =>This Inner Loop Header: Depth=1
	ldw r1, r0[0]
	bf r1, .LBB0_1
# BB#2:                                 # %ifdone
	ldc r1, 0
	stw r1, r0[0]
	retsp 0
	# RETURN_REG_HOLDER
	.cc_bottom _i.i2c_master_async_if.i2c_master_async_comb._c0.shutdown.function
	.set	_i.i2c_master_async_if.i2c_master_async_comb._c0.shutdown.nstackwords,0
	.globl	_i.i2c_master_async_if.i2c_master_async_comb._c0.shutdown.nstackwords
	.set	_i.i2c_master_async_if.i2c_master_async_comb._c0.shutdown.maxcores,1
	.globl	_i.i2c_master_async_if.i2c_master_async_comb._c0.shutdown.maxcores
	.set	_i.i2c_master_async_if.i2c_master_async_comb._c0.shutdown.maxtimers,0
	.globl	_i.i2c_master_async_if.i2c_master_async_comb._c0.shutdown.maxtimers
	.set	_i.i2c_master_async_if.i2c_master_async_comb._c0.shutdown.maxchanends,0
	.globl	_i.i2c_master_async_if.i2c_master_async_comb._c0.shutdown.maxchanends
.Ltmp0:
	.size	_i.i2c_master_async_if.i2c_master_async_comb._c0.shutdown, .Ltmp0-_i.i2c_master_async_if.i2c_master_async_comb._c0.shutdown
	.cfi_endproc

	.globl	_i.i2c_master_async_if.i2c_master_async_comb._c0.send_stop_bit
	.align	4
	.type	_i.i2c_master_async_if.i2c_master_async_comb._c0.send_stop_bit,@function
	.cc_top _i.i2c_master_async_if.i2c_master_async_comb._c0.send_stop_bit.function,_i.i2c_master_async_if.i2c_master_async_comb._c0.send_stop_bit
_i.i2c_master_async_if.i2c_master_async_comb._c0.send_stop_bit: # @_i.i2c_master_async_if.i2c_master_async_comb._c0.send_stop_bit
	.cfi_startproc
	.issue_mode single
# BB#0:                                 # %allocas
	ENTSP_lu6 0
	#DEBUG_VALUE: _i.i2c_master_async_if.i2c_master_async_comb._c0.send_stop_bit:p <- R0
	ldw r0, r0[0]
.LBB1_1:                                # %LoopTest
                                        # =>This Inner Loop Header: Depth=1
	ldw r1, r0[0]
	bf r1, .LBB1_1
# BB#2:                                 # %ifdone
	mkmsk r1, 1
	stw r1, r0[0]
	retsp 0
	# RETURN_REG_HOLDER
	.cc_bottom _i.i2c_master_async_if.i2c_master_async_comb._c0.send_stop_bit.function
	.set	_i.i2c_master_async_if.i2c_master_async_comb._c0.send_stop_bit.nstackwords,0
	.globl	_i.i2c_master_async_if.i2c_master_async_comb._c0.send_stop_bit.nstackwords
	.set	_i.i2c_master_async_if.i2c_master_async_comb._c0.send_stop_bit.maxcores,1
	.globl	_i.i2c_master_async_if.i2c_master_async_comb._c0.send_stop_bit.maxcores
	.set	_i.i2c_master_async_if.i2c_master_async_comb._c0.send_stop_bit.maxtimers,0
	.globl	_i.i2c_master_async_if.i2c_master_async_comb._c0.send_stop_bit.maxtimers
	.set	_i.i2c_master_async_if.i2c_master_async_comb._c0.send_stop_bit.maxchanends,0
	.globl	_i.i2c_master_async_if.i2c_master_async_comb._c0.send_stop_bit.maxchanends
.Ltmp1:
	.size	_i.i2c_master_async_if.i2c_master_async_comb._c0.send_stop_bit, .Ltmp1-_i.i2c_master_async_if.i2c_master_async_comb._c0.send_stop_bit
	.cfi_endproc

	.globl	_i.i2c_master_async_if.i2c_master_async_comb._c0.get_read_data
	.align	4
	.type	_i.i2c_master_async_if.i2c_master_async_comb._c0.get_read_data,@function
	.cc_top _i.i2c_master_async_if.i2c_master_async_comb._c0.get_read_data.function,_i.i2c_master_async_if.i2c_master_async_comb._c0.get_read_data
_i.i2c_master_async_if.i2c_master_async_comb._c0.get_read_data: # @_i.i2c_master_async_if.i2c_master_async_comb._c0.get_read_data
.Lfunc_begin2:
	.loc	2 445 0                 # C:/Users/user/workspace/lib_i2c/src/i2c_master_async.xc:445:0
	.cfi_startproc
	.issue_mode single
# BB#0:                                 # %allocas
	ENTSP_lu6 4
.Ltmp2:
	.cfi_def_cfa_offset 16
.Ltmp3:
	.cfi_offset 15, 0
	std r5, r4, sp[1]               # 4-byte Folded Spill
.Ltmp4:
	.cfi_offset 4, -8
.Ltmp5:
	.cfi_offset 5, -4
	#DEBUG_VALUE: _i.i2c_master_async_if.i2c_master_async_comb._c0.get_read_data:p <- R0
	#DEBUG_VALUE: _i.i2c_master_async_if.i2c_master_async_comb._c0.get_read_data:clientNotifyFlag <- R1
	#DEBUG_VALUE: _i.i2c_master_async_if.i2c_master_async_comb._c0.get_read_data:buf0 <- R2
	#DEBUG_VALUE: _i.i2c_master_async_if.i2c_master_async_comb._c0.get_read_data:n <- R3
	ldw r4, r0[0]
	ldw r0, r0[1]
.Ltmp6:
.LBB2_1:                                # %allocas
                                        # =>This Inner Loop Header: Depth=1
	ldw r11, r4[0]
	bf r11, .LBB2_1
# BB#2:                                 # %ifdone
.Ltmp7:
	#DEBUG_VALUE: _i.i2c_master_async_if.i2c_master_async_comb._c0.get_read_data:clientNotifyFlag <- R1
	#DEBUG_VALUE: _i.i2c_master_async_if.i2c_master_async_comb._c0.get_read_data:buf0 <- R2
	#DEBUG_VALUE: _i.i2c_master_async_if.i2c_master_async_comb._c0.get_read_data:n <- R3
	ldc r11, 0
	stw r11, r4[0]
	ldw r11, r4[2]
	ldw r0, r11[r0]
	ldw r11, r0[4]
	eq r1, r11, r1
.Ltmp8:
	bt r1, .LBB2_4
.Ltmp9:
# BB#3:                                 # %refillchan
	#DEBUG_VALUE: _i.i2c_master_async_if.i2c_master_async_comb._c0.get_read_data:buf0 <- R2
	#DEBUG_VALUE: _i.i2c_master_async_if.i2c_master_async_comb._c0.get_read_data:n <- R3
	ldw r1, r0[2]
	ldw r11, r0[3]
	#APP
	getd r5, res[r1]
	#NO_APP
	setd res[r1], r11
	outct res[r1], 1
	setd res[r1], r5
.Ltmp10:
.LBB2_4:                                # %afternotifycheck
	#DEBUG_VALUE: _i.i2c_master_async_if.i2c_master_async_comb._c0.get_read_data:buf0 <- R2
	#DEBUG_VALUE: _i.i2c_master_async_if.i2c_master_async_comb._c0.get_read_data:n <- R3
	mkmsk r5, 1
	stw r5, r0[4]
	.loc	2 446 0 prologue_end    # C:/Users/user/workspace/lib_i2c/src/i2c_master_async.xc:446:0
.Ltmp11:
	ldw r0, r4[10]
	.loc	2 446 0                 # C:/Users/user/workspace/lib_i2c/src/i2c_master_async.xc:446:0
	lsu r0, r0, r3
.Ltrap_info0:
	ecallt r0
	#DEBUG_VALUE: _i.i2c_master_async_if.i2c_master_async_comb._c0.get_read_data:buf0 <- R2
	#DEBUG_VALUE: _i.i2c_master_async_if.i2c_master_async_comb._c0.get_read_data:n <- R3
	.loc	2 446 0                 # C:/Users/user/workspace/lib_i2c/src/i2c_master_async.xc:446:0
	ldw r1, r4[9]
	.loc	2 446 0                 # C:/Users/user/workspace/lib_i2c/src/i2c_master_async.xc:446:0
	mov r0, r2
	mov r2, r3
.Ltmp12:
	bl memcpy
.Ltmp13:
	ldc r0, 92
	.loc	2 447 0                 # C:/Users/user/workspace/lib_i2c/src/i2c_master_async.xc:447:0
	add r0, r4, r0
	.loc	2 447 0                 # C:/Users/user/workspace/lib_i2c/src/i2c_master_async.xc:447:0
	ldw r0, r0[0]
	stw r5, r4[0]
	ldd r5, r4, sp[1]               # 4-byte Folded Reload
	retsp 4
	# RETURN_REG_HOLDER
.Ltmp14:
	.cc_bottom _i.i2c_master_async_if.i2c_master_async_comb._c0.get_read_data.function
	.set	_i.i2c_master_async_if.i2c_master_async_comb._c0.get_read_data.nstackwords,(memcpy.nstackwords + 4)
	.globl	_i.i2c_master_async_if.i2c_master_async_comb._c0.get_read_data.nstackwords
	.set	_i.i2c_master_async_if.i2c_master_async_comb._c0.get_read_data.maxcores,1
	.globl	_i.i2c_master_async_if.i2c_master_async_comb._c0.get_read_data.maxcores
	.set	_i.i2c_master_async_if.i2c_master_async_comb._c0.get_read_data.maxtimers,0
	.globl	_i.i2c_master_async_if.i2c_master_async_comb._c0.get_read_data.maxtimers
	.set	_i.i2c_master_async_if.i2c_master_async_comb._c0.get_read_data.maxchanends,0
	.globl	_i.i2c_master_async_if.i2c_master_async_comb._c0.get_read_data.maxchanends
.Ltmp15:
	.size	_i.i2c_master_async_if.i2c_master_async_comb._c0.get_read_data, .Ltmp15-_i.i2c_master_async_if.i2c_master_async_comb._c0.get_read_data
.Lfunc_end2:
	.cfi_endproc

	.globl	_i.i2c_master_async_if.i2c_master_async_comb._c0.get_write_result
	.align	4
	.type	_i.i2c_master_async_if.i2c_master_async_comb._c0.get_write_result,@function
	.cc_top _i.i2c_master_async_if.i2c_master_async_comb._c0.get_write_result.function,_i.i2c_master_async_if.i2c_master_async_comb._c0.get_write_result
_i.i2c_master_async_if.i2c_master_async_comb._c0.get_write_result: # @_i.i2c_master_async_if.i2c_master_async_comb._c0.get_write_result
.Lfunc_begin3:
	.loc	2 440 0                 # C:/Users/user/workspace/lib_i2c/src/i2c_master_async.xc:440:0
	.cfi_startproc
	.issue_mode single
# BB#0:                                 # %allocas
	ENTSP_lu6 0
	extsp 2
.Ltmp16:
	.cfi_def_cfa_offset 8
	stw r4, sp[0]                   # 4-byte Folded Spill
.Ltmp17:
	.cfi_offset 4, -8
	#DEBUG_VALUE: _i.i2c_master_async_if.i2c_master_async_comb._c0.get_write_result:p <- R0
	#DEBUG_VALUE: _i.i2c_master_async_if.i2c_master_async_comb._c0.get_write_result:clientNotifyFlag <- R1
	#DEBUG_VALUE: _i.i2c_master_async_if.i2c_master_async_comb._c0.get_write_result:num_bytes_sent <- R2
	ldw r3, r0[0]
	ldw r0, r0[1]
.Ltmp18:
.LBB3_1:                                # %allocas
                                        # =>This Inner Loop Header: Depth=1
	ldw r11, r3[0]
	bf r11, .LBB3_1
# BB#2:                                 # %ifdone
.Ltmp19:
	#DEBUG_VALUE: _i.i2c_master_async_if.i2c_master_async_comb._c0.get_write_result:clientNotifyFlag <- R1
	#DEBUG_VALUE: _i.i2c_master_async_if.i2c_master_async_comb._c0.get_write_result:num_bytes_sent <- R2
	ldc r11, 0
	stw r11, r3[0]
	ldw r11, r3[2]
	ldw r0, r11[r0]
	ldw r11, r0[4]
	eq r1, r11, r1
.Ltmp20:
	bt r1, .LBB3_4
# BB#3:                                 # %refillchan
	#DEBUG_VALUE: _i.i2c_master_async_if.i2c_master_async_comb._c0.get_write_result:num_bytes_sent <- R2
	ldw r1, r0[2]
	ldw r11, r0[3]
	#APP
	getd r4, res[r1]
	#NO_APP
	setd res[r1], r11
	outct res[r1], 1
	setd res[r1], r4
.LBB3_4:                                # %afternotifycheck
	#DEBUG_VALUE: _i.i2c_master_async_if.i2c_master_async_comb._c0.get_write_result:num_bytes_sent <- R2
	mkmsk r1, 1
	stw r1, r0[4]
	ldc r0, 76
	.loc	2 441 0 prologue_end    # C:/Users/user/workspace/lib_i2c/src/i2c_master_async.xc:441:0
.Ltmp21:
	add r0, r3, r0
	.loc	2 441 0                 # C:/Users/user/workspace/lib_i2c/src/i2c_master_async.xc:441:0
	ldw r0, r0[0]
	.loc	2 441 0                 # C:/Users/user/workspace/lib_i2c/src/i2c_master_async.xc:441:0
	stw r0, r2[0]
	ldc r0, 92
	.loc	2 442 0                 # C:/Users/user/workspace/lib_i2c/src/i2c_master_async.xc:442:0
	add r0, r3, r0
	.loc	2 442 0                 # C:/Users/user/workspace/lib_i2c/src/i2c_master_async.xc:442:0
	ldw r0, r0[0]
	stw r1, r3[0]
	ldw r4, sp[0]                   # 4-byte Folded Reload
	ldaw sp, sp[2]
	retsp 0
	# RETURN_REG_HOLDER
.Ltmp22:
	.cc_bottom _i.i2c_master_async_if.i2c_master_async_comb._c0.get_write_result.function
	.set	_i.i2c_master_async_if.i2c_master_async_comb._c0.get_write_result.nstackwords,2
	.globl	_i.i2c_master_async_if.i2c_master_async_comb._c0.get_write_result.nstackwords
	.set	_i.i2c_master_async_if.i2c_master_async_comb._c0.get_write_result.maxcores,1
	.globl	_i.i2c_master_async_if.i2c_master_async_comb._c0.get_write_result.maxcores
	.set	_i.i2c_master_async_if.i2c_master_async_comb._c0.get_write_result.maxtimers,0
	.globl	_i.i2c_master_async_if.i2c_master_async_comb._c0.get_write_result.maxtimers
	.set	_i.i2c_master_async_if.i2c_master_async_comb._c0.get_write_result.maxchanends,0
	.globl	_i.i2c_master_async_if.i2c_master_async_comb._c0.get_write_result.maxchanends
.Ltmp23:
	.size	_i.i2c_master_async_if.i2c_master_async_comb._c0.get_write_result, .Ltmp23-_i.i2c_master_async_if.i2c_master_async_comb._c0.get_write_result
.Lfunc_end3:
	.cfi_endproc

	.globl	_i.i2c_master_async_if.i2c_master_async_comb._c0.read
	.align	4
	.type	_i.i2c_master_async_if.i2c_master_async_comb._c0.read,@function
	.cc_top _i.i2c_master_async_if.i2c_master_async_comb._c0.read.function,_i.i2c_master_async_if.i2c_master_async_comb._c0.read
_i.i2c_master_async_if.i2c_master_async_comb._c0.read: # @_i.i2c_master_async_if.i2c_master_async_comb._c0.read
.Lfunc_begin4:
	.loc	2 423 0                 # C:/Users/user/workspace/lib_i2c/src/i2c_master_async.xc:423:0
	.cfi_startproc
	.issue_mode single
# BB#0:                                 # %allocas
	ENTSP_lu6 0
	extsp 2
.Ltmp24:
	.cfi_def_cfa_offset 8
	stw r4, sp[0]                   # 4-byte Folded Spill
.Ltmp25:
	.cfi_offset 4, -8
	#DEBUG_VALUE: _i.i2c_master_async_if.i2c_master_async_comb._c0.read:p <- R0
	#DEBUG_VALUE: _i.i2c_master_async_if.i2c_master_async_comb._c0.read:device_addr <- R1
.Ltmp26:
	#DEBUG_VALUE: _i.i2c_master_async_if.i2c_master_async_comb._c0.read:device_addr <- undef
	#DEBUG_VALUE: _i.i2c_master_async_if.i2c_master_async_comb._c0.read:n <- R2
	#DEBUG_VALUE: _i.i2c_master_async_if.i2c_master_async_comb._c0.read:send_stop_bit <- R3
	ldw r3, r0[0]
.Ltmp27:
	ldw r0, r0[1]
.Ltmp28:
.LBB4_1:                                # %LoopTest
                                        # =>This Inner Loop Header: Depth=1
	#DEBUG_VALUE: _i.i2c_master_async_if.i2c_master_async_comb._c0.read:device_addr <- undef
	#DEBUG_VALUE: _i.i2c_master_async_if.i2c_master_async_comb._c0.read:n <- R2
	#DEBUG_VALUE: _i.i2c_master_async_if.i2c_master_async_comb._c0.read:send_stop_bit <- R3
	ldw r11, r3[0]
	bf r11, .LBB4_1
.Ltmp29:
# BB#2:                                 # %ifdone
	#DEBUG_VALUE: _i.i2c_master_async_if.i2c_master_async_comb._c0.read:device_addr <- undef
	#DEBUG_VALUE: _i.i2c_master_async_if.i2c_master_async_comb._c0.read:n <- R2
	#DEBUG_VALUE: _i.i2c_master_async_if.i2c_master_async_comb._c0.read:send_stop_bit <- R3
	ldc r11, 68
	.loc	2 424 0 prologue_end    # C:/Users/user/workspace/lib_i2c/src/i2c_master_async.xc:424:0
.Ltmp30:
	add r11, r3, r11
	.loc	2 424 0                 # C:/Users/user/workspace/lib_i2c/src/i2c_master_async.xc:424:0
	shl r4, r1, 1
	mkmsk r1, 1
	.loc	2 424 0                 # C:/Users/user/workspace/lib_i2c/src/i2c_master_async.xc:424:0
	or r4, r4, r1
	.loc	2 424 0                 # C:/Users/user/workspace/lib_i2c/src/i2c_master_async.xc:424:0
	stw r4, r11[0]
	ldc r11, 72
	.loc	2 425 0                 # C:/Users/user/workspace/lib_i2c/src/i2c_master_async.xc:425:0
	add r11, r3, r11
	ldc r4, 0
	.loc	2 425 0                 # C:/Users/user/workspace/lib_i2c/src/i2c_master_async.xc:425:0
	stw r4, r11[0]
	ldc r11, 60
	.loc	2 426 0                 # C:/Users/user/workspace/lib_i2c/src/i2c_master_async.xc:426:0
	add r11, r3, r11
	.loc	2 426 0                 # C:/Users/user/workspace/lib_i2c/src/i2c_master_async.xc:426:0
	stw r1, r11[0]
	ldc r11, 80
	.loc	2 427 0                 # C:/Users/user/workspace/lib_i2c/src/i2c_master_async.xc:427:0
	add r11, r3, r11
	.loc	2 427 0                 # C:/Users/user/workspace/lib_i2c/src/i2c_master_async.xc:427:0
	stw r2, r11[0]
	ldc r2, 76
.Ltmp31:
	.loc	2 430 0                 # C:/Users/user/workspace/lib_i2c/src/i2c_master_async.xc:430:0
	add r2, r3, r2
	mkmsk r11, 32
	.loc	2 430 0                 # C:/Users/user/workspace/lib_i2c/src/i2c_master_async.xc:430:0
	stw r11, r2[0]
	ldc r2, 56
	.loc	2 431 0                 # C:/Users/user/workspace/lib_i2c/src/i2c_master_async.xc:431:0
	add r2, r3, r2
	.loc	2 431 0                 # C:/Users/user/workspace/lib_i2c/src/i2c_master_async.xc:431:0
	stw r1, r2[0]
	ldc r2, 88
	.loc	2 432 0                 # C:/Users/user/workspace/lib_i2c/src/i2c_master_async.xc:432:0
	add r2, r3, r2
	.loc	2 432 0                 # C:/Users/user/workspace/lib_i2c/src/i2c_master_async.xc:432:0
	stw r0, r2[0]
	ldc r0, 84
	.loc	2 433 0                 # C:/Users/user/workspace/lib_i2c/src/i2c_master_async.xc:433:0
	add r0, r3, r0
	.loc	2 433 0                 # C:/Users/user/workspace/lib_i2c/src/i2c_master_async.xc:433:0
	gettime r2
	.loc	2 433 0                 # C:/Users/user/workspace/lib_i2c/src/i2c_master_async.xc:433:0
	stw r2, r0[0]
	ldc r0, 48
	.loc	2 434 0                 # C:/Users/user/workspace/lib_i2c/src/i2c_master_async.xc:434:0
.Ltmp32:
	add r0, r3, r0
	.loc	2 434 0                 # C:/Users/user/workspace/lib_i2c/src/i2c_master_async.xc:434:0
	stw r1, r0[0]
	stw r1, r3[0]
	ldw r4, sp[0]                   # 4-byte Folded Reload
	ldaw sp, sp[2]
	retsp 0
	# RETURN_REG_HOLDER
.Ltmp33:
	.cc_bottom _i.i2c_master_async_if.i2c_master_async_comb._c0.read.function
	.set	_i.i2c_master_async_if.i2c_master_async_comb._c0.read.nstackwords,2
	.globl	_i.i2c_master_async_if.i2c_master_async_comb._c0.read.nstackwords
	.set	_i.i2c_master_async_if.i2c_master_async_comb._c0.read.maxcores,1
	.globl	_i.i2c_master_async_if.i2c_master_async_comb._c0.read.maxcores
	.set	_i.i2c_master_async_if.i2c_master_async_comb._c0.read.maxtimers,0
	.globl	_i.i2c_master_async_if.i2c_master_async_comb._c0.read.maxtimers
	.set	_i.i2c_master_async_if.i2c_master_async_comb._c0.read.maxchanends,0
	.globl	_i.i2c_master_async_if.i2c_master_async_comb._c0.read.maxchanends
.Ltmp34:
	.size	_i.i2c_master_async_if.i2c_master_async_comb._c0.read, .Ltmp34-_i.i2c_master_async_if.i2c_master_async_comb._c0.read
.Lfunc_end4:
	.cfi_endproc

	.globl	_i.i2c_master_async_if.i2c_master_async_comb._c0.write
	.align	4
	.type	_i.i2c_master_async_if.i2c_master_async_comb._c0.write,@function
	.cc_top _i.i2c_master_async_if.i2c_master_async_comb._c0.write.function,_i.i2c_master_async_if.i2c_master_async_comb._c0.write
_i.i2c_master_async_if.i2c_master_async_comb._c0.write: # @_i.i2c_master_async_if.i2c_master_async_comb._c0.write
.Lfunc_begin5:
	.loc	2 407 0                 # C:/Users/user/workspace/lib_i2c/src/i2c_master_async.xc:407:0
	.cfi_startproc
	.issue_mode single
# BB#0:                                 # %allocas
	ENTSP_lu6 4
.Ltmp35:
	.cfi_def_cfa_offset 16
.Ltmp36:
	.cfi_offset 15, 0
	std r5, r4, sp[1]               # 4-byte Folded Spill
.Ltmp37:
	.cfi_offset 4, -8
.Ltmp38:
	.cfi_offset 5, -4
	#DEBUG_VALUE: _i.i2c_master_async_if.i2c_master_async_comb._c0.write:p <- R0
	#DEBUG_VALUE: _i.i2c_master_async_if.i2c_master_async_comb._c0.write:device_addr <- R1
.Ltmp39:
	#DEBUG_VALUE: _i.i2c_master_async_if.i2c_master_async_comb._c0.write:device_addr <- undef
	#DEBUG_VALUE: _i.i2c_master_async_if.i2c_master_async_comb._c0.write:buf0 <- R2
	#DEBUG_VALUE: _i.i2c_master_async_if.i2c_master_async_comb._c0.write:n <- R3
	#DEBUG_VALUE: _i.i2c_master_async_if.i2c_master_async_comb._c0.write:send_stop_bit <- [SP+20]
	ldw r4, r0[0]
	ldw r5, r0[1]
.Ltmp40:
.LBB5_1:                                # %LoopTest
                                        # =>This Inner Loop Header: Depth=1
	#DEBUG_VALUE: _i.i2c_master_async_if.i2c_master_async_comb._c0.write:device_addr <- undef
	#DEBUG_VALUE: _i.i2c_master_async_if.i2c_master_async_comb._c0.write:buf0 <- R2
	#DEBUG_VALUE: _i.i2c_master_async_if.i2c_master_async_comb._c0.write:n <- R3
	#DEBUG_VALUE: _i.i2c_master_async_if.i2c_master_async_comb._c0.write:send_stop_bit <- [SP+20]
	ldw r0, r4[0]
	bf r0, .LBB5_1
.Ltmp41:
# BB#2:                                 # %ifdone
	#DEBUG_VALUE: _i.i2c_master_async_if.i2c_master_async_comb._c0.write:device_addr <- undef
	#DEBUG_VALUE: _i.i2c_master_async_if.i2c_master_async_comb._c0.write:buf0 <- R2
	#DEBUG_VALUE: _i.i2c_master_async_if.i2c_master_async_comb._c0.write:n <- R3
	#DEBUG_VALUE: _i.i2c_master_async_if.i2c_master_async_comb._c0.write:send_stop_bit <- [SP+20]
	ldc r0, 0
	stw r0, r4[0]
	ldc r11, 68
	.loc	2 409 0 prologue_end    # C:/Users/user/workspace/lib_i2c/src/i2c_master_async.xc:409:0
.Ltmp42:
	add r11, r4, r11
	.loc	2 409 0                 # C:/Users/user/workspace/lib_i2c/src/i2c_master_async.xc:409:0
	shl r1, r1, 1
	.loc	2 409 0                 # C:/Users/user/workspace/lib_i2c/src/i2c_master_async.xc:409:0
	stw r1, r11[0]
	ldc r1, 72
	.loc	2 410 0                 # C:/Users/user/workspace/lib_i2c/src/i2c_master_async.xc:410:0
	add r1, r4, r1
	.loc	2 410 0                 # C:/Users/user/workspace/lib_i2c/src/i2c_master_async.xc:410:0
	stw r0, r1[0]
	ldc r1, 60
	.loc	2 411 0                 # C:/Users/user/workspace/lib_i2c/src/i2c_master_async.xc:411:0
	add r1, r4, r1
	.loc	2 411 0                 # C:/Users/user/workspace/lib_i2c/src/i2c_master_async.xc:411:0
	stw r0, r1[0]
	ldc r0, 80
	.loc	2 412 0                 # C:/Users/user/workspace/lib_i2c/src/i2c_master_async.xc:412:0
	add r0, r4, r0
	.loc	2 412 0                 # C:/Users/user/workspace/lib_i2c/src/i2c_master_async.xc:412:0
	stw r3, r0[0]
	.loc	2 413 0                 # C:/Users/user/workspace/lib_i2c/src/i2c_master_async.xc:413:0
	ldw r0, r4[10]
	.loc	2 413 0                 # C:/Users/user/workspace/lib_i2c/src/i2c_master_async.xc:413:0
	lsu r0, r0, r3
.Ltrap_info1:
	ecallt r0
	#DEBUG_VALUE: _i.i2c_master_async_if.i2c_master_async_comb._c0.write:device_addr <- undef
	#DEBUG_VALUE: _i.i2c_master_async_if.i2c_master_async_comb._c0.write:buf0 <- R2
	#DEBUG_VALUE: _i.i2c_master_async_if.i2c_master_async_comb._c0.write:n <- R3
	#DEBUG_VALUE: _i.i2c_master_async_if.i2c_master_async_comb._c0.write:send_stop_bit <- [SP+20]
	.loc	2 413 0                 # C:/Users/user/workspace/lib_i2c/src/i2c_master_async.xc:413:0
	ldw r0, r4[9]
	.loc	2 413 0                 # C:/Users/user/workspace/lib_i2c/src/i2c_master_async.xc:413:0
	mov r1, r2
	mov r2, r3
.Ltmp43:
	bl memcpy
.Ltmp44:
	ldc r0, 76
	.loc	2 416 0                 # C:/Users/user/workspace/lib_i2c/src/i2c_master_async.xc:416:0
	add r0, r4, r0
	mkmsk r1, 32
	.loc	2 416 0                 # C:/Users/user/workspace/lib_i2c/src/i2c_master_async.xc:416:0
	stw r1, r0[0]
	ldc r0, 56
	.loc	2 417 0                 # C:/Users/user/workspace/lib_i2c/src/i2c_master_async.xc:417:0
	add r0, r4, r0
	mkmsk r1, 1
	.loc	2 417 0                 # C:/Users/user/workspace/lib_i2c/src/i2c_master_async.xc:417:0
	stw r1, r0[0]
	ldc r0, 88
	.loc	2 418 0                 # C:/Users/user/workspace/lib_i2c/src/i2c_master_async.xc:418:0
	add r0, r4, r0
	.loc	2 418 0                 # C:/Users/user/workspace/lib_i2c/src/i2c_master_async.xc:418:0
	stw r5, r0[0]
	ldc r0, 84
	.loc	2 419 0                 # C:/Users/user/workspace/lib_i2c/src/i2c_master_async.xc:419:0
	add r0, r4, r0
	.loc	2 419 0                 # C:/Users/user/workspace/lib_i2c/src/i2c_master_async.xc:419:0
	gettime r2
	.loc	2 419 0                 # C:/Users/user/workspace/lib_i2c/src/i2c_master_async.xc:419:0
	stw r2, r0[0]
	ldc r0, 48
	.loc	2 420 0                 # C:/Users/user/workspace/lib_i2c/src/i2c_master_async.xc:420:0
.Ltmp45:
	add r0, r4, r0
	.loc	2 420 0                 # C:/Users/user/workspace/lib_i2c/src/i2c_master_async.xc:420:0
	stw r1, r0[0]
	stw r1, r4[0]
	ldd r5, r4, sp[1]               # 4-byte Folded Reload
	retsp 4
.Ltmp46:
	# RETURN_REG_HOLDER
.Ltmp47:
	.cc_bottom _i.i2c_master_async_if.i2c_master_async_comb._c0.write.function
	.set	_i.i2c_master_async_if.i2c_master_async_comb._c0.write.nstackwords,(memcpy.nstackwords + 4)
	.globl	_i.i2c_master_async_if.i2c_master_async_comb._c0.write.nstackwords
	.set	_i.i2c_master_async_if.i2c_master_async_comb._c0.write.maxcores,1
	.globl	_i.i2c_master_async_if.i2c_master_async_comb._c0.write.maxcores
	.set	_i.i2c_master_async_if.i2c_master_async_comb._c0.write.maxtimers,0
	.globl	_i.i2c_master_async_if.i2c_master_async_comb._c0.write.maxtimers
	.set	_i.i2c_master_async_if.i2c_master_async_comb._c0.write.maxchanends,0
	.globl	_i.i2c_master_async_if.i2c_master_async_comb._c0.write.maxchanends
.Ltmp48:
	.size	_i.i2c_master_async_if.i2c_master_async_comb._c0.write, .Ltmp48-_i.i2c_master_async_if.i2c_master_async_comb._c0.write
.Lfunc_end5:
	.cfi_endproc

	.weak	_i.i2c_master_if._chan.shutdown
	.align	4
	.type	_i.i2c_master_if._chan.shutdown,@function
	.cc_top _i.i2c_master_if._chan.shutdown.function,_i.i2c_master_if._chan.shutdown
_i.i2c_master_if._chan.shutdown:        # @_i.i2c_master_if._chan.shutdown
	.cfi_startproc
	.issue_mode single
# BB#0:                                 # %allocas
	ENTSP_lu6 4
.Ltmp49:
	.cfi_def_cfa_offset 16
.Ltmp50:
	.cfi_offset 15, 0
	stw r4, sp[2]                   # 4-byte Folded Spill
.Ltmp51:
	.cfi_offset 4, -8
	#DEBUG_VALUE: _i.i2c_master_if._chan.shutdown:dest <- R0
	getr r4, 2
	setd res[r4], r0
	add r0, r4, 3
	out res[r4], r0
	outct res[r4], 2
	ldc r1, 0
	mov r0, r4
	bl __interface_wait_and_yield
	in r0, res[r4]
	chkct res[r4], 1
	freer res[r4]
	ldw r4, sp[2]                   # 4-byte Folded Reload
	retsp 4
	# RETURN_REG_HOLDER
	.cc_bottom _i.i2c_master_if._chan.shutdown.function
	.set	_i.i2c_master_if._chan.shutdown.nstackwords,((_i.i2c_master_if._client_call_y.max.nstackwords $M ($D __interface_wait_and_yield.nstackwords ? __interface_wait_and_yield.nstackwords $: _i.i2c_master_if._client_call_y.max.nstackwords)) + 4)
	.globl	_i.i2c_master_if._chan.shutdown.nstackwords
	.weak	_i.i2c_master_if._chan.shutdown.nstackwords
	.set	_i.i2c_master_if._chan.shutdown.maxcores,($D __interface_wait_and_yield.maxcores ? __interface_wait_and_yield.maxcores $: _i.i2c_master_if._client_call_y.max.maxcores) $M 1
	.globl	_i.i2c_master_if._chan.shutdown.maxcores
	.weak	_i.i2c_master_if._chan.shutdown.maxcores
	.set	_i.i2c_master_if._chan.shutdown.maxtimers,($D __interface_wait_and_yield.maxtimers ? __interface_wait_and_yield.maxtimers $: _i.i2c_master_if._client_call_y.max.maxtimers) $M 0
	.globl	_i.i2c_master_if._chan.shutdown.maxtimers
	.weak	_i.i2c_master_if._chan.shutdown.maxtimers
	.set	_i.i2c_master_if._chan.shutdown.maxchanends,(1 + ($D __interface_wait_and_yield.maxchanends ? __interface_wait_and_yield.maxchanends $: _i.i2c_master_if._client_call_y.max.maxchanends)) $M 1
	.globl	_i.i2c_master_if._chan.shutdown.maxchanends
	.weak	_i.i2c_master_if._chan.shutdown.maxchanends
.Ltmp52:
	.size	_i.i2c_master_if._chan.shutdown, .Ltmp52-_i.i2c_master_if._chan.shutdown
	.cfi_endproc

	.weak	_i.i2c_master_if._chan.send_stop_bit
	.align	4
	.type	_i.i2c_master_if._chan.send_stop_bit,@function
	.cc_top _i.i2c_master_if._chan.send_stop_bit.function,_i.i2c_master_if._chan.send_stop_bit
_i.i2c_master_if._chan.send_stop_bit:   # @_i.i2c_master_if._chan.send_stop_bit
	.cfi_startproc
	.issue_mode single
# BB#0:                                 # %allocas
	ENTSP_lu6 4
.Ltmp53:
	.cfi_def_cfa_offset 16
.Ltmp54:
	.cfi_offset 15, 0
	stw r4, sp[2]                   # 4-byte Folded Spill
.Ltmp55:
	.cfi_offset 4, -8
	#DEBUG_VALUE: _i.i2c_master_if._chan.send_stop_bit:dest <- R0
	getr r4, 2
	setd res[r4], r0
	add r0, r4, 2
	out res[r4], r0
	outct res[r4], 2
	ldc r1, 0
	mov r0, r4
	bl __interface_wait_and_yield
	in r0, res[r4]
	chkct res[r4], 1
	freer res[r4]
	ldw r4, sp[2]                   # 4-byte Folded Reload
	retsp 4
	# RETURN_REG_HOLDER
	.cc_bottom _i.i2c_master_if._chan.send_stop_bit.function
	.set	_i.i2c_master_if._chan.send_stop_bit.nstackwords,((_i.i2c_master_if._client_call_y.max.nstackwords $M ($D __interface_wait_and_yield.nstackwords ? __interface_wait_and_yield.nstackwords $: _i.i2c_master_if._client_call_y.max.nstackwords)) + 4)
	.globl	_i.i2c_master_if._chan.send_stop_bit.nstackwords
	.weak	_i.i2c_master_if._chan.send_stop_bit.nstackwords
	.set	_i.i2c_master_if._chan.send_stop_bit.maxcores,($D __interface_wait_and_yield.maxcores ? __interface_wait_and_yield.maxcores $: _i.i2c_master_if._client_call_y.max.maxcores) $M 1
	.globl	_i.i2c_master_if._chan.send_stop_bit.maxcores
	.weak	_i.i2c_master_if._chan.send_stop_bit.maxcores
	.set	_i.i2c_master_if._chan.send_stop_bit.maxtimers,($D __interface_wait_and_yield.maxtimers ? __interface_wait_and_yield.maxtimers $: _i.i2c_master_if._client_call_y.max.maxtimers) $M 0
	.globl	_i.i2c_master_if._chan.send_stop_bit.maxtimers
	.weak	_i.i2c_master_if._chan.send_stop_bit.maxtimers
	.set	_i.i2c_master_if._chan.send_stop_bit.maxchanends,(1 + ($D __interface_wait_and_yield.maxchanends ? __interface_wait_and_yield.maxchanends $: _i.i2c_master_if._client_call_y.max.maxchanends)) $M 1
	.globl	_i.i2c_master_if._chan.send_stop_bit.maxchanends
	.weak	_i.i2c_master_if._chan.send_stop_bit.maxchanends
.Ltmp56:
	.size	_i.i2c_master_if._chan.send_stop_bit, .Ltmp56-_i.i2c_master_if._chan.send_stop_bit
	.cfi_endproc

	.weak	_i.i2c_master_if._chan.read
	.align	4
	.type	_i.i2c_master_if._chan.read,@function
	.cc_top _i.i2c_master_if._chan.read.function,_i.i2c_master_if._chan.read
_i.i2c_master_if._chan.read:            # @_i.i2c_master_if._chan.read
	.cfi_startproc
	.issue_mode single
# BB#0:                                 # %allocas
	ENTSP_lu6 8
.Ltmp57:
	.cfi_def_cfa_offset 32
.Ltmp58:
	.cfi_offset 15, 0
	std r5, r4, sp[1]               # 4-byte Folded Spill
.Ltmp59:
	.cfi_offset 4, -24
.Ltmp60:
	.cfi_offset 5, -20
	std r7, r6, sp[2]               # 4-byte Folded Spill
.Ltmp61:
	.cfi_offset 6, -16
.Ltmp62:
	.cfi_offset 7, -12
	stw r8, sp[6]                   # 4-byte Folded Spill
.Ltmp63:
	.cfi_offset 8, -8
	#DEBUG_VALUE: _i.i2c_master_if._chan.read:dest <- R0
	#DEBUG_VALUE: _i.i2c_master_if._chan.read:param1 <- R1
	#DEBUG_VALUE: _i.i2c_master_if._chan.read:param2 <- R2
	#DEBUG_VALUE: _i.i2c_master_if._chan.read:param3 <- R3
	#DEBUG_VALUE: _i.i2c_master_if._chan.read:param4 <- [SP+36]
	mov r5, r3
	#DEBUG_VALUE: _i.i2c_master_if._chan.read:param3 <- R5
	mov r6, r2
	#DEBUG_VALUE: _i.i2c_master_if._chan.read:param2 <- R6
	mov r7, r1
	#DEBUG_VALUE: _i.i2c_master_if._chan.read:param1 <- R7
	ldw r8, sp[9]
	getr r4, 2
	setd res[r4], r0
	add r0, r4, 1
	out res[r4], r0
	outct res[r4], 2
	ldc r1, 0
	mov r0, r4
	bl __interface_wait_and_yield
	chkct res[r4], 1
	outt res[r4], r7
	stw r6, sp[1]
	out res[r4], r5
	out res[r4], r8
	outct res[r4], 2
	ldaw r1, sp[1]
	mov r0, r4
	bl __interface_client_call
	in r0, res[r4]
	chkct res[r4], 1
	freer res[r4]
	ldw r8, sp[6]                   # 4-byte Folded Reload
	ldd r7, r6, sp[2]               # 4-byte Folded Reload
	ldd r5, r4, sp[1]               # 4-byte Folded Reload
	retsp 8
	# RETURN_REG_HOLDER
	.cc_bottom _i.i2c_master_if._chan.read.function
	.set	_i.i2c_master_if._chan.read.nstackwords,((_i.i2c_master_if._client_call_y.max.nstackwords $M ($D __interface_wait_and_yield.nstackwords ? __interface_wait_and_yield.nstackwords $: _i.i2c_master_if._client_call_y.max.nstackwords) $M __interface_client_call.nstackwords) + 8)
	.globl	_i.i2c_master_if._chan.read.nstackwords
	.weak	_i.i2c_master_if._chan.read.nstackwords
	.set	_i.i2c_master_if._chan.read.maxcores,__interface_client_call.maxcores $M ($D __interface_wait_and_yield.maxcores ? __interface_wait_and_yield.maxcores $: _i.i2c_master_if._client_call_y.max.maxcores) $M 1
	.globl	_i.i2c_master_if._chan.read.maxcores
	.weak	_i.i2c_master_if._chan.read.maxcores
	.set	_i.i2c_master_if._chan.read.maxtimers,__interface_client_call.maxtimers $M ($D __interface_wait_and_yield.maxtimers ? __interface_wait_and_yield.maxtimers $: _i.i2c_master_if._client_call_y.max.maxtimers) $M 0
	.globl	_i.i2c_master_if._chan.read.maxtimers
	.weak	_i.i2c_master_if._chan.read.maxtimers
	.set	_i.i2c_master_if._chan.read.maxchanends,(1 + __interface_client_call.maxchanends) $M (1 + ($D __interface_wait_and_yield.maxchanends ? __interface_wait_and_yield.maxchanends $: _i.i2c_master_if._client_call_y.max.maxchanends)) $M 1
	.globl	_i.i2c_master_if._chan.read.maxchanends
	.weak	_i.i2c_master_if._chan.read.maxchanends
.Ltmp64:
	.size	_i.i2c_master_if._chan.read, .Ltmp64-_i.i2c_master_if._chan.read
	.cfi_endproc

	.weak	_i.i2c_master_if._chan.write
	.align	4
	.type	_i.i2c_master_if._chan.write,@function
	.cc_top _i.i2c_master_if._chan.write.function,_i.i2c_master_if._chan.write
_i.i2c_master_if._chan.write:           # @_i.i2c_master_if._chan.write
	.cfi_startproc
	.issue_mode single
# BB#0:                                 # %allocas
	ENTSP_lu6 8
.Ltmp65:
	.cfi_def_cfa_offset 32
.Ltmp66:
	.cfi_offset 15, 0
	std r5, r4, sp[1]               # 4-byte Folded Spill
.Ltmp67:
	.cfi_offset 4, -24
.Ltmp68:
	.cfi_offset 5, -20
	std r7, r6, sp[2]               # 4-byte Folded Spill
.Ltmp69:
	.cfi_offset 6, -16
.Ltmp70:
	.cfi_offset 7, -12
	std r9, r8, sp[3]               # 4-byte Folded Spill
.Ltmp71:
	.cfi_offset 8, -8
.Ltmp72:
	.cfi_offset 9, -4
	#DEBUG_VALUE: _i.i2c_master_if._chan.write:dest <- R0
	#DEBUG_VALUE: _i.i2c_master_if._chan.write:param1 <- R1
	#DEBUG_VALUE: _i.i2c_master_if._chan.write:param2 <- R2
	#DEBUG_VALUE: _i.i2c_master_if._chan.write:param3 <- R3
	#DEBUG_VALUE: _i.i2c_master_if._chan.write:param4 <- [SP+36]
	#DEBUG_VALUE: _i.i2c_master_if._chan.write:param5 <- [SP+40]
	mov r5, r3
	#DEBUG_VALUE: _i.i2c_master_if._chan.write:param3 <- R5
	mov r6, r2
	#DEBUG_VALUE: _i.i2c_master_if._chan.write:param2 <- R6
	mov r7, r1
	#DEBUG_VALUE: _i.i2c_master_if._chan.write:param1 <- R7
	ldw r9, sp[10]
	ldw r8, sp[9]
	getr r4, 2
	setd res[r4], r0
	out res[r4], r4
	outct res[r4], 2
	ldc r1, 0
	mov r0, r4
	bl __interface_wait_and_yield
	chkct res[r4], 1
	outt res[r4], r7
	stw r6, sp[1]
	out res[r4], r5
	ldw r0, r8[0]
	out res[r4], r0
	out res[r4], r9
	outct res[r4], 2
	ldaw r1, sp[1]
	mov r0, r4
	bl __interface_client_call
	in r0, res[r4]
	stw r0, r8[0]
	in r0, res[r4]
	chkct res[r4], 1
	freer res[r4]
	ldd r9, r8, sp[3]               # 4-byte Folded Reload
	ldd r7, r6, sp[2]               # 4-byte Folded Reload
	ldd r5, r4, sp[1]               # 4-byte Folded Reload
	retsp 8
	# RETURN_REG_HOLDER
	.cc_bottom _i.i2c_master_if._chan.write.function
	.set	_i.i2c_master_if._chan.write.nstackwords,((_i.i2c_master_if._client_call_y.max.nstackwords $M ($D __interface_wait_and_yield.nstackwords ? __interface_wait_and_yield.nstackwords $: _i.i2c_master_if._client_call_y.max.nstackwords) $M __interface_client_call.nstackwords) + 8)
	.globl	_i.i2c_master_if._chan.write.nstackwords
	.weak	_i.i2c_master_if._chan.write.nstackwords
	.set	_i.i2c_master_if._chan.write.maxcores,__interface_client_call.maxcores $M ($D __interface_wait_and_yield.maxcores ? __interface_wait_and_yield.maxcores $: _i.i2c_master_if._client_call_y.max.maxcores) $M 1
	.globl	_i.i2c_master_if._chan.write.maxcores
	.weak	_i.i2c_master_if._chan.write.maxcores
	.set	_i.i2c_master_if._chan.write.maxtimers,__interface_client_call.maxtimers $M ($D __interface_wait_and_yield.maxtimers ? __interface_wait_and_yield.maxtimers $: _i.i2c_master_if._client_call_y.max.maxtimers) $M 0
	.globl	_i.i2c_master_if._chan.write.maxtimers
	.weak	_i.i2c_master_if._chan.write.maxtimers
	.set	_i.i2c_master_if._chan.write.maxchanends,(1 + __interface_client_call.maxchanends) $M (1 + ($D __interface_wait_and_yield.maxchanends ? __interface_wait_and_yield.maxchanends $: _i.i2c_master_if._client_call_y.max.maxchanends)) $M 1
	.globl	_i.i2c_master_if._chan.write.maxchanends
	.weak	_i.i2c_master_if._chan.write.maxchanends
.Ltmp73:
	.size	_i.i2c_master_if._chan.write, .Ltmp73-_i.i2c_master_if._chan.write
	.cfi_endproc

	.weak	_i.i2c_master_if._chan_yield.shutdown
	.align	4
	.type	_i.i2c_master_if._chan_yield.shutdown,@function
	.cc_top _i.i2c_master_if._chan_yield.shutdown.function,_i.i2c_master_if._chan_yield.shutdown
_i.i2c_master_if._chan_yield.shutdown:  # @_i.i2c_master_if._chan_yield.shutdown
	.cfi_startproc
	.issue_mode single
# BB#0:                                 # %allocas
	ENTSP_lu6 4
.Ltmp74:
	.cfi_def_cfa_offset 16
.Ltmp75:
	.cfi_offset 15, 0
	std r5, r4, sp[1]               # 4-byte Folded Spill
.Ltmp76:
	.cfi_offset 4, -8
.Ltmp77:
	.cfi_offset 5, -4
	#DEBUG_VALUE: _i.i2c_master_if._chan_yield.shutdown:s <- R0
	ldw r1, r0[0]
	getr r4, 2
	setd res[r4], r1
	add r1, r4, 3
	out res[r4], r1
	outct res[r4], 2
	ldw r5, r0[1]
	mov r0, r4
	mov r1, r5
	bl __interface_wait_and_yield
	ldc r1, 0
	mov r0, r4
	mov r2, r5
	bl __interface_client_call_y
	chkct res[r4], 1
	freer res[r4]
	ldd r5, r4, sp[1]               # 4-byte Folded Reload
	retsp 4
	# RETURN_REG_HOLDER
	.cc_bottom _i.i2c_master_if._chan_yield.shutdown.function
	.set	_i.i2c_master_if._chan_yield.shutdown.nstackwords,((($D __interface_wait_and_yield.nstackwords ? __interface_wait_and_yield.nstackwords $: _i.i2c_master_if._client_call_y.max.nstackwords) $M _i.i2c_master_if._client_call_y.max.nstackwords $M ($D __interface_client_call_y.nstackwords ? __interface_client_call_y.nstackwords $: _i.i2c_master_if._client_call_y.max.nstackwords)) + 4)
	.globl	_i.i2c_master_if._chan_yield.shutdown.nstackwords
	.weak	_i.i2c_master_if._chan_yield.shutdown.nstackwords
	.set	_i.i2c_master_if._chan_yield.shutdown.maxcores,($D __interface_client_call_y.maxcores ? __interface_client_call_y.maxcores $: _i.i2c_master_if._client_call_y.max.maxcores) $M ($D __interface_wait_and_yield.maxcores ? __interface_wait_and_yield.maxcores $: _i.i2c_master_if._client_call_y.max.maxcores) $M 1
	.globl	_i.i2c_master_if._chan_yield.shutdown.maxcores
	.weak	_i.i2c_master_if._chan_yield.shutdown.maxcores
	.set	_i.i2c_master_if._chan_yield.shutdown.maxtimers,($D __interface_client_call_y.maxtimers ? __interface_client_call_y.maxtimers $: _i.i2c_master_if._client_call_y.max.maxtimers) $M ($D __interface_wait_and_yield.maxtimers ? __interface_wait_and_yield.maxtimers $: _i.i2c_master_if._client_call_y.max.maxtimers) $M 0
	.globl	_i.i2c_master_if._chan_yield.shutdown.maxtimers
	.weak	_i.i2c_master_if._chan_yield.shutdown.maxtimers
	.set	_i.i2c_master_if._chan_yield.shutdown.maxchanends,(1 + ($D __interface_client_call_y.maxchanends ? __interface_client_call_y.maxchanends $: _i.i2c_master_if._client_call_y.max.maxchanends)) $M (1 + ($D __interface_wait_and_yield.maxchanends ? __interface_wait_and_yield.maxchanends $: _i.i2c_master_if._client_call_y.max.maxchanends)) $M 1
	.globl	_i.i2c_master_if._chan_yield.shutdown.maxchanends
	.weak	_i.i2c_master_if._chan_yield.shutdown.maxchanends
.Ltmp78:
	.size	_i.i2c_master_if._chan_yield.shutdown, .Ltmp78-_i.i2c_master_if._chan_yield.shutdown
	.cfi_endproc

	.weak	_i.i2c_master_if._chan_yield.send_stop_bit
	.align	4
	.type	_i.i2c_master_if._chan_yield.send_stop_bit,@function
	.cc_top _i.i2c_master_if._chan_yield.send_stop_bit.function,_i.i2c_master_if._chan_yield.send_stop_bit
_i.i2c_master_if._chan_yield.send_stop_bit: # @_i.i2c_master_if._chan_yield.send_stop_bit
	.cfi_startproc
	.issue_mode single
# BB#0:                                 # %allocas
	ENTSP_lu6 4
.Ltmp79:
	.cfi_def_cfa_offset 16
.Ltmp80:
	.cfi_offset 15, 0
	std r5, r4, sp[1]               # 4-byte Folded Spill
.Ltmp81:
	.cfi_offset 4, -8
.Ltmp82:
	.cfi_offset 5, -4
	#DEBUG_VALUE: _i.i2c_master_if._chan_yield.send_stop_bit:s <- R0
	ldw r1, r0[0]
	getr r4, 2
	setd res[r4], r1
	add r1, r4, 2
	out res[r4], r1
	outct res[r4], 2
	ldw r5, r0[1]
	mov r0, r4
	mov r1, r5
	bl __interface_wait_and_yield
	ldc r1, 0
	mov r0, r4
	mov r2, r5
	bl __interface_client_call_y
	chkct res[r4], 1
	freer res[r4]
	ldd r5, r4, sp[1]               # 4-byte Folded Reload
	retsp 4
	# RETURN_REG_HOLDER
	.cc_bottom _i.i2c_master_if._chan_yield.send_stop_bit.function
	.set	_i.i2c_master_if._chan_yield.send_stop_bit.nstackwords,((($D __interface_wait_and_yield.nstackwords ? __interface_wait_and_yield.nstackwords $: _i.i2c_master_if._client_call_y.max.nstackwords) $M _i.i2c_master_if._client_call_y.max.nstackwords $M ($D __interface_client_call_y.nstackwords ? __interface_client_call_y.nstackwords $: _i.i2c_master_if._client_call_y.max.nstackwords)) + 4)
	.globl	_i.i2c_master_if._chan_yield.send_stop_bit.nstackwords
	.weak	_i.i2c_master_if._chan_yield.send_stop_bit.nstackwords
	.set	_i.i2c_master_if._chan_yield.send_stop_bit.maxcores,($D __interface_client_call_y.maxcores ? __interface_client_call_y.maxcores $: _i.i2c_master_if._client_call_y.max.maxcores) $M ($D __interface_wait_and_yield.maxcores ? __interface_wait_and_yield.maxcores $: _i.i2c_master_if._client_call_y.max.maxcores) $M 1
	.globl	_i.i2c_master_if._chan_yield.send_stop_bit.maxcores
	.weak	_i.i2c_master_if._chan_yield.send_stop_bit.maxcores
	.set	_i.i2c_master_if._chan_yield.send_stop_bit.maxtimers,($D __interface_client_call_y.maxtimers ? __interface_client_call_y.maxtimers $: _i.i2c_master_if._client_call_y.max.maxtimers) $M ($D __interface_wait_and_yield.maxtimers ? __interface_wait_and_yield.maxtimers $: _i.i2c_master_if._client_call_y.max.maxtimers) $M 0
	.globl	_i.i2c_master_if._chan_yield.send_stop_bit.maxtimers
	.weak	_i.i2c_master_if._chan_yield.send_stop_bit.maxtimers
	.set	_i.i2c_master_if._chan_yield.send_stop_bit.maxchanends,(1 + ($D __interface_client_call_y.maxchanends ? __interface_client_call_y.maxchanends $: _i.i2c_master_if._client_call_y.max.maxchanends)) $M (1 + ($D __interface_wait_and_yield.maxchanends ? __interface_wait_and_yield.maxchanends $: _i.i2c_master_if._client_call_y.max.maxchanends)) $M 1
	.globl	_i.i2c_master_if._chan_yield.send_stop_bit.maxchanends
	.weak	_i.i2c_master_if._chan_yield.send_stop_bit.maxchanends
.Ltmp83:
	.size	_i.i2c_master_if._chan_yield.send_stop_bit, .Ltmp83-_i.i2c_master_if._chan_yield.send_stop_bit
	.cfi_endproc

	.weak	_i.i2c_master_if._chan_yield.read
	.align	4
	.type	_i.i2c_master_if._chan_yield.read,@function
	.cc_top _i.i2c_master_if._chan_yield.read.function,_i.i2c_master_if._chan_yield.read
_i.i2c_master_if._chan_yield.read:      # @_i.i2c_master_if._chan_yield.read
	.cfi_startproc
	.issue_mode single
# BB#0:                                 # %allocas
	ENTSP_lu6 8
.Ltmp84:
	.cfi_def_cfa_offset 32
.Ltmp85:
	.cfi_offset 15, 0
	std r5, r4, sp[1]               # 4-byte Folded Spill
.Ltmp86:
	.cfi_offset 4, -24
.Ltmp87:
	.cfi_offset 5, -20
	std r7, r6, sp[2]               # 4-byte Folded Spill
.Ltmp88:
	.cfi_offset 6, -16
.Ltmp89:
	.cfi_offset 7, -12
	std r9, r8, sp[3]               # 4-byte Folded Spill
.Ltmp90:
	.cfi_offset 8, -8
.Ltmp91:
	.cfi_offset 9, -4
	#DEBUG_VALUE: _i.i2c_master_if._chan_yield.read:s <- R0
	#DEBUG_VALUE: _i.i2c_master_if._chan_yield.read:param1 <- R1
	#DEBUG_VALUE: _i.i2c_master_if._chan_yield.read:param2 <- R2
	#DEBUG_VALUE: _i.i2c_master_if._chan_yield.read:param3 <- R3
	#DEBUG_VALUE: _i.i2c_master_if._chan_yield.read:param4 <- [SP+36]
	mov r5, r3
	#DEBUG_VALUE: _i.i2c_master_if._chan_yield.read:param3 <- R5
	mov r6, r2
	#DEBUG_VALUE: _i.i2c_master_if._chan_yield.read:param2 <- R6
	mov r7, r1
	#DEBUG_VALUE: _i.i2c_master_if._chan_yield.read:param1 <- R7
	ldw r9, sp[9]
	ldw r1, r0[0]
	getr r4, 2
	setd res[r4], r1
	add r1, r4, 1
	out res[r4], r1
	outct res[r4], 2
	ldw r8, r0[1]
	mov r0, r4
	mov r1, r8
	bl __interface_wait_and_yield
	chkct res[r4], 1
	outt res[r4], r7
	stw r6, sp[1]
	out res[r4], r5
	out res[r4], r9
	outct res[r4], 2
	ldaw r1, sp[1]
	mov r0, r4
	mov r2, r8
	bl __interface_client_call_y
	in r0, res[r4]
	chkct res[r4], 1
	freer res[r4]
	ldd r9, r8, sp[3]               # 4-byte Folded Reload
	ldd r7, r6, sp[2]               # 4-byte Folded Reload
	ldd r5, r4, sp[1]               # 4-byte Folded Reload
	retsp 8
	# RETURN_REG_HOLDER
	.cc_bottom _i.i2c_master_if._chan_yield.read.function
	.set	_i.i2c_master_if._chan_yield.read.nstackwords,((($D __interface_wait_and_yield.nstackwords ? __interface_wait_and_yield.nstackwords $: _i.i2c_master_if._client_call_y.max.nstackwords) $M _i.i2c_master_if._client_call_y.max.nstackwords $M ($D __interface_client_call_y.nstackwords ? __interface_client_call_y.nstackwords $: _i.i2c_master_if._client_call_y.max.nstackwords)) + 8)
	.globl	_i.i2c_master_if._chan_yield.read.nstackwords
	.weak	_i.i2c_master_if._chan_yield.read.nstackwords
	.set	_i.i2c_master_if._chan_yield.read.maxcores,($D __interface_client_call_y.maxcores ? __interface_client_call_y.maxcores $: _i.i2c_master_if._client_call_y.max.maxcores) $M ($D __interface_wait_and_yield.maxcores ? __interface_wait_and_yield.maxcores $: _i.i2c_master_if._client_call_y.max.maxcores) $M 1
	.globl	_i.i2c_master_if._chan_yield.read.maxcores
	.weak	_i.i2c_master_if._chan_yield.read.maxcores
	.set	_i.i2c_master_if._chan_yield.read.maxtimers,($D __interface_client_call_y.maxtimers ? __interface_client_call_y.maxtimers $: _i.i2c_master_if._client_call_y.max.maxtimers) $M ($D __interface_wait_and_yield.maxtimers ? __interface_wait_and_yield.maxtimers $: _i.i2c_master_if._client_call_y.max.maxtimers) $M 0
	.globl	_i.i2c_master_if._chan_yield.read.maxtimers
	.weak	_i.i2c_master_if._chan_yield.read.maxtimers
	.set	_i.i2c_master_if._chan_yield.read.maxchanends,(1 + ($D __interface_client_call_y.maxchanends ? __interface_client_call_y.maxchanends $: _i.i2c_master_if._client_call_y.max.maxchanends)) $M (1 + ($D __interface_wait_and_yield.maxchanends ? __interface_wait_and_yield.maxchanends $: _i.i2c_master_if._client_call_y.max.maxchanends)) $M 1
	.globl	_i.i2c_master_if._chan_yield.read.maxchanends
	.weak	_i.i2c_master_if._chan_yield.read.maxchanends
.Ltmp92:
	.size	_i.i2c_master_if._chan_yield.read, .Ltmp92-_i.i2c_master_if._chan_yield.read
	.cfi_endproc

	.weak	_i.i2c_master_if._chan_yield.write
	.align	4
	.type	_i.i2c_master_if._chan_yield.write,@function
	.cc_top _i.i2c_master_if._chan_yield.write.function,_i.i2c_master_if._chan_yield.write
_i.i2c_master_if._chan_yield.write:     # @_i.i2c_master_if._chan_yield.write
	.cfi_startproc
	.issue_mode single
# BB#0:                                 # %allocas
	ENTSP_lu6 10
.Ltmp93:
	.cfi_def_cfa_offset 40
.Ltmp94:
	.cfi_offset 15, 0
	std r5, r4, sp[1]               # 4-byte Folded Spill
.Ltmp95:
	.cfi_offset 4, -32
.Ltmp96:
	.cfi_offset 5, -28
	std r7, r6, sp[2]               # 4-byte Folded Spill
.Ltmp97:
	.cfi_offset 6, -24
.Ltmp98:
	.cfi_offset 7, -20
	std r9, r8, sp[3]               # 4-byte Folded Spill
.Ltmp99:
	.cfi_offset 8, -16
.Ltmp100:
	.cfi_offset 9, -12
	stw r10, sp[8]                  # 4-byte Folded Spill
.Ltmp101:
	.cfi_offset 10, -8
	#DEBUG_VALUE: _i.i2c_master_if._chan_yield.write:s <- R0
	#DEBUG_VALUE: _i.i2c_master_if._chan_yield.write:param1 <- R1
	#DEBUG_VALUE: _i.i2c_master_if._chan_yield.write:param2 <- R2
	#DEBUG_VALUE: _i.i2c_master_if._chan_yield.write:param3 <- R3
	#DEBUG_VALUE: _i.i2c_master_if._chan_yield.write:param4 <- [SP+44]
	#DEBUG_VALUE: _i.i2c_master_if._chan_yield.write:param5 <- [SP+48]
	mov r5, r3
	#DEBUG_VALUE: _i.i2c_master_if._chan_yield.write:param3 <- R5
	mov r6, r2
	#DEBUG_VALUE: _i.i2c_master_if._chan_yield.write:param2 <- R6
	mov r7, r1
	#DEBUG_VALUE: _i.i2c_master_if._chan_yield.write:param1 <- R7
	ldw r10, sp[12]
	ldw r9, sp[11]
	ldw r1, r0[0]
	getr r4, 2
	setd res[r4], r1
	out res[r4], r4
	outct res[r4], 2
	ldw r8, r0[1]
	mov r0, r4
	mov r1, r8
	bl __interface_wait_and_yield
	chkct res[r4], 1
	outt res[r4], r7
	stw r6, sp[1]
	out res[r4], r5
	ldw r0, r9[0]
	out res[r4], r0
	out res[r4], r10
	outct res[r4], 2
	ldaw r1, sp[1]
	mov r0, r4
	mov r2, r8
	bl __interface_client_call_y
	in r0, res[r4]
	stw r0, r9[0]
	in r0, res[r4]
	chkct res[r4], 1
	freer res[r4]
	ldw r10, sp[8]                  # 4-byte Folded Reload
	ldd r9, r8, sp[3]               # 4-byte Folded Reload
	ldd r7, r6, sp[2]               # 4-byte Folded Reload
	ldd r5, r4, sp[1]               # 4-byte Folded Reload
	retsp 10
	# RETURN_REG_HOLDER
	.cc_bottom _i.i2c_master_if._chan_yield.write.function
	.set	_i.i2c_master_if._chan_yield.write.nstackwords,((($D __interface_wait_and_yield.nstackwords ? __interface_wait_and_yield.nstackwords $: _i.i2c_master_if._client_call_y.max.nstackwords) $M _i.i2c_master_if._client_call_y.max.nstackwords $M ($D __interface_client_call_y.nstackwords ? __interface_client_call_y.nstackwords $: _i.i2c_master_if._client_call_y.max.nstackwords)) + 10)
	.globl	_i.i2c_master_if._chan_yield.write.nstackwords
	.weak	_i.i2c_master_if._chan_yield.write.nstackwords
	.set	_i.i2c_master_if._chan_yield.write.maxcores,($D __interface_client_call_y.maxcores ? __interface_client_call_y.maxcores $: _i.i2c_master_if._client_call_y.max.maxcores) $M ($D __interface_wait_and_yield.maxcores ? __interface_wait_and_yield.maxcores $: _i.i2c_master_if._client_call_y.max.maxcores) $M 1
	.globl	_i.i2c_master_if._chan_yield.write.maxcores
	.weak	_i.i2c_master_if._chan_yield.write.maxcores
	.set	_i.i2c_master_if._chan_yield.write.maxtimers,($D __interface_client_call_y.maxtimers ? __interface_client_call_y.maxtimers $: _i.i2c_master_if._client_call_y.max.maxtimers) $M ($D __interface_wait_and_yield.maxtimers ? __interface_wait_and_yield.maxtimers $: _i.i2c_master_if._client_call_y.max.maxtimers) $M 0
	.globl	_i.i2c_master_if._chan_yield.write.maxtimers
	.weak	_i.i2c_master_if._chan_yield.write.maxtimers
	.set	_i.i2c_master_if._chan_yield.write.maxchanends,(1 + ($D __interface_client_call_y.maxchanends ? __interface_client_call_y.maxchanends $: _i.i2c_master_if._client_call_y.max.maxchanends)) $M (1 + ($D __interface_wait_and_yield.maxchanends ? __interface_wait_and_yield.maxchanends $: _i.i2c_master_if._client_call_y.max.maxchanends)) $M 1
	.globl	_i.i2c_master_if._chan_yield.write.maxchanends
	.weak	_i.i2c_master_if._chan_yield.write.maxchanends
.Ltmp102:
	.size	_i.i2c_master_if._chan_yield.write, .Ltmp102-_i.i2c_master_if._chan_yield.write
	.cfi_endproc

	.weak	_i.i2c_master_async_if._chan.shutdown
	.align	4
	.type	_i.i2c_master_async_if._chan.shutdown,@function
	.cc_top _i.i2c_master_async_if._chan.shutdown.function,_i.i2c_master_async_if._chan.shutdown
_i.i2c_master_async_if._chan.shutdown:  # @_i.i2c_master_async_if._chan.shutdown
	.cfi_startproc
	.issue_mode single
# BB#0:                                 # %allocas
	ENTSP_lu6 4
.Ltmp103:
	.cfi_def_cfa_offset 16
.Ltmp104:
	.cfi_offset 15, 0
	stw r4, sp[2]                   # 4-byte Folded Spill
.Ltmp105:
	.cfi_offset 4, -8
	#DEBUG_VALUE: _i.i2c_master_async_if._chan.shutdown:dest <- R0
	getr r4, 2
	setd res[r4], r0
	add r0, r4, 5
	out res[r4], r0
	outct res[r4], 2
	ldc r1, 0
	mov r0, r4
	bl __interface_wait_and_yield
	in r0, res[r4]
	chkct res[r4], 1
	freer res[r4]
	ldw r4, sp[2]                   # 4-byte Folded Reload
	retsp 4
	# RETURN_REG_HOLDER
	.cc_bottom _i.i2c_master_async_if._chan.shutdown.function
	.set	_i.i2c_master_async_if._chan.shutdown.nstackwords,((_i.i2c_master_async_if._client_call_y.max.nstackwords $M ($D __interface_wait_and_yield.nstackwords ? __interface_wait_and_yield.nstackwords $: _i.i2c_master_async_if._client_call_y.max.nstackwords)) + 4)
	.globl	_i.i2c_master_async_if._chan.shutdown.nstackwords
	.weak	_i.i2c_master_async_if._chan.shutdown.nstackwords
	.set	_i.i2c_master_async_if._chan.shutdown.maxcores,($D __interface_wait_and_yield.maxcores ? __interface_wait_and_yield.maxcores $: _i.i2c_master_async_if._client_call_y.max.maxcores) $M 1
	.globl	_i.i2c_master_async_if._chan.shutdown.maxcores
	.weak	_i.i2c_master_async_if._chan.shutdown.maxcores
	.set	_i.i2c_master_async_if._chan.shutdown.maxtimers,($D __interface_wait_and_yield.maxtimers ? __interface_wait_and_yield.maxtimers $: _i.i2c_master_async_if._client_call_y.max.maxtimers) $M 0
	.globl	_i.i2c_master_async_if._chan.shutdown.maxtimers
	.weak	_i.i2c_master_async_if._chan.shutdown.maxtimers
	.set	_i.i2c_master_async_if._chan.shutdown.maxchanends,(1 + ($D __interface_wait_and_yield.maxchanends ? __interface_wait_and_yield.maxchanends $: _i.i2c_master_async_if._client_call_y.max.maxchanends)) $M 1
	.globl	_i.i2c_master_async_if._chan.shutdown.maxchanends
	.weak	_i.i2c_master_async_if._chan.shutdown.maxchanends
.Ltmp106:
	.size	_i.i2c_master_async_if._chan.shutdown, .Ltmp106-_i.i2c_master_async_if._chan.shutdown
	.cfi_endproc

	.weak	_i.i2c_master_async_if._chan.send_stop_bit
	.align	4
	.type	_i.i2c_master_async_if._chan.send_stop_bit,@function
	.cc_top _i.i2c_master_async_if._chan.send_stop_bit.function,_i.i2c_master_async_if._chan.send_stop_bit
_i.i2c_master_async_if._chan.send_stop_bit: # @_i.i2c_master_async_if._chan.send_stop_bit
	.cfi_startproc
	.issue_mode single
# BB#0:                                 # %allocas
	ENTSP_lu6 4
.Ltmp107:
	.cfi_def_cfa_offset 16
.Ltmp108:
	.cfi_offset 15, 0
	stw r4, sp[2]                   # 4-byte Folded Spill
.Ltmp109:
	.cfi_offset 4, -8
	#DEBUG_VALUE: _i.i2c_master_async_if._chan.send_stop_bit:dest <- R0
	getr r4, 2
	setd res[r4], r0
	add r0, r4, 4
	out res[r4], r0
	outct res[r4], 2
	ldc r1, 0
	mov r0, r4
	bl __interface_wait_and_yield
	in r0, res[r4]
	chkct res[r4], 1
	freer res[r4]
	ldw r4, sp[2]                   # 4-byte Folded Reload
	retsp 4
	# RETURN_REG_HOLDER
	.cc_bottom _i.i2c_master_async_if._chan.send_stop_bit.function
	.set	_i.i2c_master_async_if._chan.send_stop_bit.nstackwords,((_i.i2c_master_async_if._client_call_y.max.nstackwords $M ($D __interface_wait_and_yield.nstackwords ? __interface_wait_and_yield.nstackwords $: _i.i2c_master_async_if._client_call_y.max.nstackwords)) + 4)
	.globl	_i.i2c_master_async_if._chan.send_stop_bit.nstackwords
	.weak	_i.i2c_master_async_if._chan.send_stop_bit.nstackwords
	.set	_i.i2c_master_async_if._chan.send_stop_bit.maxcores,($D __interface_wait_and_yield.maxcores ? __interface_wait_and_yield.maxcores $: _i.i2c_master_async_if._client_call_y.max.maxcores) $M 1
	.globl	_i.i2c_master_async_if._chan.send_stop_bit.maxcores
	.weak	_i.i2c_master_async_if._chan.send_stop_bit.maxcores
	.set	_i.i2c_master_async_if._chan.send_stop_bit.maxtimers,($D __interface_wait_and_yield.maxtimers ? __interface_wait_and_yield.maxtimers $: _i.i2c_master_async_if._client_call_y.max.maxtimers) $M 0
	.globl	_i.i2c_master_async_if._chan.send_stop_bit.maxtimers
	.weak	_i.i2c_master_async_if._chan.send_stop_bit.maxtimers
	.set	_i.i2c_master_async_if._chan.send_stop_bit.maxchanends,(1 + ($D __interface_wait_and_yield.maxchanends ? __interface_wait_and_yield.maxchanends $: _i.i2c_master_async_if._client_call_y.max.maxchanends)) $M 1
	.globl	_i.i2c_master_async_if._chan.send_stop_bit.maxchanends
	.weak	_i.i2c_master_async_if._chan.send_stop_bit.maxchanends
.Ltmp110:
	.size	_i.i2c_master_async_if._chan.send_stop_bit, .Ltmp110-_i.i2c_master_async_if._chan.send_stop_bit
	.cfi_endproc

	.weak	_i.i2c_master_async_if._chan.get_read_data
	.align	4
	.type	_i.i2c_master_async_if._chan.get_read_data,@function
	.cc_top _i.i2c_master_async_if._chan.get_read_data.function,_i.i2c_master_async_if._chan.get_read_data
_i.i2c_master_async_if._chan.get_read_data: # @_i.i2c_master_async_if._chan.get_read_data
	.cfi_startproc
	.issue_mode single
# BB#0:                                 # %allocas
	ENTSP_lu6 6
.Ltmp111:
	.cfi_def_cfa_offset 24
.Ltmp112:
	.cfi_offset 15, 0
	std r5, r4, sp[1]               # 4-byte Folded Spill
.Ltmp113:
	.cfi_offset 4, -16
.Ltmp114:
	.cfi_offset 5, -12
	std r7, r6, sp[2]               # 4-byte Folded Spill
.Ltmp115:
	.cfi_offset 6, -8
.Ltmp116:
	.cfi_offset 7, -4
	#DEBUG_VALUE: _i.i2c_master_async_if._chan.get_read_data:dest <- R0
	#DEBUG_VALUE: _i.i2c_master_async_if._chan.get_read_data:clientNotifyFlag <- R1
	#DEBUG_VALUE: _i.i2c_master_async_if._chan.get_read_data:param2 <- R2
	#DEBUG_VALUE: _i.i2c_master_async_if._chan.get_read_data:param3 <- R3
	mov r4, r3
	#DEBUG_VALUE: _i.i2c_master_async_if._chan.get_read_data:param3 <- R4
	mov r5, r2
	#DEBUG_VALUE: _i.i2c_master_async_if._chan.get_read_data:param2 <- R5
	mov r6, r1
	#DEBUG_VALUE: _i.i2c_master_async_if._chan.get_read_data:clientNotifyFlag <- R6
	getr r7, 2
	setd res[r7], r0
	add r0, r7, 3
	out res[r7], r0
	outct res[r7], 2
	ldc r1, 0
	mov r0, r7
	bl __interface_wait_and_yield
	chkct res[r7], 1
	out res[r7], r6
	stw r5, sp[1]
	out res[r7], r4
	outct res[r7], 2
	ldaw r1, sp[1]
	mov r0, r7
	bl __interface_client_call
	in r0, res[r7]
	chkct res[r7], 1
	freer res[r7]
	ldd r7, r6, sp[2]               # 4-byte Folded Reload
	ldd r5, r4, sp[1]               # 4-byte Folded Reload
	retsp 6
	# RETURN_REG_HOLDER
	.cc_bottom _i.i2c_master_async_if._chan.get_read_data.function
	.set	_i.i2c_master_async_if._chan.get_read_data.nstackwords,((_i.i2c_master_async_if._client_call_y.max.nstackwords $M ($D __interface_wait_and_yield.nstackwords ? __interface_wait_and_yield.nstackwords $: _i.i2c_master_async_if._client_call_y.max.nstackwords) $M __interface_client_call.nstackwords) + 6)
	.globl	_i.i2c_master_async_if._chan.get_read_data.nstackwords
	.weak	_i.i2c_master_async_if._chan.get_read_data.nstackwords
	.set	_i.i2c_master_async_if._chan.get_read_data.maxcores,__interface_client_call.maxcores $M ($D __interface_wait_and_yield.maxcores ? __interface_wait_and_yield.maxcores $: _i.i2c_master_async_if._client_call_y.max.maxcores) $M 1
	.globl	_i.i2c_master_async_if._chan.get_read_data.maxcores
	.weak	_i.i2c_master_async_if._chan.get_read_data.maxcores
	.set	_i.i2c_master_async_if._chan.get_read_data.maxtimers,__interface_client_call.maxtimers $M ($D __interface_wait_and_yield.maxtimers ? __interface_wait_and_yield.maxtimers $: _i.i2c_master_async_if._client_call_y.max.maxtimers) $M 0
	.globl	_i.i2c_master_async_if._chan.get_read_data.maxtimers
	.weak	_i.i2c_master_async_if._chan.get_read_data.maxtimers
	.set	_i.i2c_master_async_if._chan.get_read_data.maxchanends,(1 + __interface_client_call.maxchanends) $M (1 + ($D __interface_wait_and_yield.maxchanends ? __interface_wait_and_yield.maxchanends $: _i.i2c_master_async_if._client_call_y.max.maxchanends)) $M 1
	.globl	_i.i2c_master_async_if._chan.get_read_data.maxchanends
	.weak	_i.i2c_master_async_if._chan.get_read_data.maxchanends
.Ltmp117:
	.size	_i.i2c_master_async_if._chan.get_read_data, .Ltmp117-_i.i2c_master_async_if._chan.get_read_data
	.cfi_endproc

	.weak	_i.i2c_master_async_if._chan.get_write_result
	.align	4
	.type	_i.i2c_master_async_if._chan.get_write_result,@function
	.cc_top _i.i2c_master_async_if._chan.get_write_result.function,_i.i2c_master_async_if._chan.get_write_result
_i.i2c_master_async_if._chan.get_write_result: # @_i.i2c_master_async_if._chan.get_write_result
	.cfi_startproc
	.issue_mode single
# BB#0:                                 # %allocas
	ENTSP_lu6 6
.Ltmp118:
	.cfi_def_cfa_offset 24
.Ltmp119:
	.cfi_offset 15, 0
	std r5, r4, sp[1]               # 4-byte Folded Spill
.Ltmp120:
	.cfi_offset 4, -16
.Ltmp121:
	.cfi_offset 5, -12
	stw r6, sp[4]                   # 4-byte Folded Spill
.Ltmp122:
	.cfi_offset 6, -8
	#DEBUG_VALUE: _i.i2c_master_async_if._chan.get_write_result:dest <- R0
	#DEBUG_VALUE: _i.i2c_master_async_if._chan.get_write_result:clientNotifyFlag <- R1
	#DEBUG_VALUE: _i.i2c_master_async_if._chan.get_write_result:param2 <- R2
	mov r4, r2
	#DEBUG_VALUE: _i.i2c_master_async_if._chan.get_write_result:param2 <- R4
	mov r5, r1
	#DEBUG_VALUE: _i.i2c_master_async_if._chan.get_write_result:clientNotifyFlag <- R5
	getr r6, 2
	setd res[r6], r0
	add r0, r6, 2
	out res[r6], r0
	outct res[r6], 2
	ldc r1, 0
	mov r0, r6
	bl __interface_wait_and_yield
	chkct res[r6], 1
	out res[r6], r5
	ldw r0, r4[0]
	out res[r6], r0
	outct res[r6], 2
	in r0, res[r6]
	in r0, res[r6]
	stw r0, r4[0]
	in r0, res[r6]
	chkct res[r6], 1
	freer res[r6]
	ldw r6, sp[4]                   # 4-byte Folded Reload
	ldd r5, r4, sp[1]               # 4-byte Folded Reload
	retsp 6
	# RETURN_REG_HOLDER
	.cc_bottom _i.i2c_master_async_if._chan.get_write_result.function
	.set	_i.i2c_master_async_if._chan.get_write_result.nstackwords,((_i.i2c_master_async_if._client_call_y.max.nstackwords $M ($D __interface_wait_and_yield.nstackwords ? __interface_wait_and_yield.nstackwords $: _i.i2c_master_async_if._client_call_y.max.nstackwords)) + 6)
	.globl	_i.i2c_master_async_if._chan.get_write_result.nstackwords
	.weak	_i.i2c_master_async_if._chan.get_write_result.nstackwords
	.set	_i.i2c_master_async_if._chan.get_write_result.maxcores,($D __interface_wait_and_yield.maxcores ? __interface_wait_and_yield.maxcores $: _i.i2c_master_async_if._client_call_y.max.maxcores) $M 1
	.globl	_i.i2c_master_async_if._chan.get_write_result.maxcores
	.weak	_i.i2c_master_async_if._chan.get_write_result.maxcores
	.set	_i.i2c_master_async_if._chan.get_write_result.maxtimers,($D __interface_wait_and_yield.maxtimers ? __interface_wait_and_yield.maxtimers $: _i.i2c_master_async_if._client_call_y.max.maxtimers) $M 0
	.globl	_i.i2c_master_async_if._chan.get_write_result.maxtimers
	.weak	_i.i2c_master_async_if._chan.get_write_result.maxtimers
	.set	_i.i2c_master_async_if._chan.get_write_result.maxchanends,(1 + ($D __interface_wait_and_yield.maxchanends ? __interface_wait_and_yield.maxchanends $: _i.i2c_master_async_if._client_call_y.max.maxchanends)) $M 1
	.globl	_i.i2c_master_async_if._chan.get_write_result.maxchanends
	.weak	_i.i2c_master_async_if._chan.get_write_result.maxchanends
.Ltmp123:
	.size	_i.i2c_master_async_if._chan.get_write_result, .Ltmp123-_i.i2c_master_async_if._chan.get_write_result
	.cfi_endproc

	.weak	_i.i2c_master_async_if._chan.read
	.align	4
	.type	_i.i2c_master_async_if._chan.read,@function
	.cc_top _i.i2c_master_async_if._chan.read.function,_i.i2c_master_async_if._chan.read
_i.i2c_master_async_if._chan.read:      # @_i.i2c_master_async_if._chan.read
	.cfi_startproc
	.issue_mode single
# BB#0:                                 # %allocas
	ENTSP_lu6 6
.Ltmp124:
	.cfi_def_cfa_offset 24
.Ltmp125:
	.cfi_offset 15, 0
	std r5, r4, sp[1]               # 4-byte Folded Spill
.Ltmp126:
	.cfi_offset 4, -16
.Ltmp127:
	.cfi_offset 5, -12
	std r7, r6, sp[2]               # 4-byte Folded Spill
.Ltmp128:
	.cfi_offset 6, -8
.Ltmp129:
	.cfi_offset 7, -4
	#DEBUG_VALUE: _i.i2c_master_async_if._chan.read:dest <- R0
	#DEBUG_VALUE: _i.i2c_master_async_if._chan.read:param1 <- R1
	#DEBUG_VALUE: _i.i2c_master_async_if._chan.read:param2 <- R2
	#DEBUG_VALUE: _i.i2c_master_async_if._chan.read:param3 <- R3
	mov r4, r3
	#DEBUG_VALUE: _i.i2c_master_async_if._chan.read:param3 <- R4
	mov r5, r2
	#DEBUG_VALUE: _i.i2c_master_async_if._chan.read:param2 <- R5
	mov r6, r1
	#DEBUG_VALUE: _i.i2c_master_async_if._chan.read:param1 <- R6
	getr r7, 2
	setd res[r7], r0
	add r0, r7, 1
	out res[r7], r0
	outct res[r7], 2
	ldc r1, 0
	mov r0, r7
	bl __interface_wait_and_yield
	chkct res[r7], 1
	outt res[r7], r6
	out res[r7], r5
	out res[r7], r4
	outct res[r7], 2
	in r0, res[r7]
	chkct res[r7], 1
	freer res[r7]
	ldd r7, r6, sp[2]               # 4-byte Folded Reload
	ldd r5, r4, sp[1]               # 4-byte Folded Reload
	retsp 6
	# RETURN_REG_HOLDER
	.cc_bottom _i.i2c_master_async_if._chan.read.function
	.set	_i.i2c_master_async_if._chan.read.nstackwords,((_i.i2c_master_async_if._client_call_y.max.nstackwords $M ($D __interface_wait_and_yield.nstackwords ? __interface_wait_and_yield.nstackwords $: _i.i2c_master_async_if._client_call_y.max.nstackwords)) + 6)
	.globl	_i.i2c_master_async_if._chan.read.nstackwords
	.weak	_i.i2c_master_async_if._chan.read.nstackwords
	.set	_i.i2c_master_async_if._chan.read.maxcores,($D __interface_wait_and_yield.maxcores ? __interface_wait_and_yield.maxcores $: _i.i2c_master_async_if._client_call_y.max.maxcores) $M 1
	.globl	_i.i2c_master_async_if._chan.read.maxcores
	.weak	_i.i2c_master_async_if._chan.read.maxcores
	.set	_i.i2c_master_async_if._chan.read.maxtimers,($D __interface_wait_and_yield.maxtimers ? __interface_wait_and_yield.maxtimers $: _i.i2c_master_async_if._client_call_y.max.maxtimers) $M 0
	.globl	_i.i2c_master_async_if._chan.read.maxtimers
	.weak	_i.i2c_master_async_if._chan.read.maxtimers
	.set	_i.i2c_master_async_if._chan.read.maxchanends,(1 + ($D __interface_wait_and_yield.maxchanends ? __interface_wait_and_yield.maxchanends $: _i.i2c_master_async_if._client_call_y.max.maxchanends)) $M 1
	.globl	_i.i2c_master_async_if._chan.read.maxchanends
	.weak	_i.i2c_master_async_if._chan.read.maxchanends
.Ltmp130:
	.size	_i.i2c_master_async_if._chan.read, .Ltmp130-_i.i2c_master_async_if._chan.read
	.cfi_endproc

	.weak	_i.i2c_master_async_if._chan.write
	.align	4
	.type	_i.i2c_master_async_if._chan.write,@function
	.cc_top _i.i2c_master_async_if._chan.write.function,_i.i2c_master_async_if._chan.write
_i.i2c_master_async_if._chan.write:     # @_i.i2c_master_async_if._chan.write
	.cfi_startproc
	.issue_mode single
# BB#0:                                 # %allocas
	ENTSP_lu6 8
.Ltmp131:
	.cfi_def_cfa_offset 32
.Ltmp132:
	.cfi_offset 15, 0
	std r5, r4, sp[1]               # 4-byte Folded Spill
.Ltmp133:
	.cfi_offset 4, -24
.Ltmp134:
	.cfi_offset 5, -20
	std r7, r6, sp[2]               # 4-byte Folded Spill
.Ltmp135:
	.cfi_offset 6, -16
.Ltmp136:
	.cfi_offset 7, -12
	stw r8, sp[6]                   # 4-byte Folded Spill
.Ltmp137:
	.cfi_offset 8, -8
	#DEBUG_VALUE: _i.i2c_master_async_if._chan.write:dest <- R0
	#DEBUG_VALUE: _i.i2c_master_async_if._chan.write:param1 <- R1
	#DEBUG_VALUE: _i.i2c_master_async_if._chan.write:param2 <- R2
	#DEBUG_VALUE: _i.i2c_master_async_if._chan.write:param3 <- R3
	#DEBUG_VALUE: _i.i2c_master_async_if._chan.write:param4 <- [SP+36]
	mov r4, r3
	#DEBUG_VALUE: _i.i2c_master_async_if._chan.write:param3 <- R4
	mov r5, r2
	#DEBUG_VALUE: _i.i2c_master_async_if._chan.write:param2 <- R5
	mov r6, r1
	#DEBUG_VALUE: _i.i2c_master_async_if._chan.write:param1 <- R6
	ldw r8, sp[9]
	getr r7, 2
	setd res[r7], r0
	out res[r7], r7
	outct res[r7], 2
	ldc r1, 0
	mov r0, r7
	bl __interface_wait_and_yield
	chkct res[r7], 1
	outt res[r7], r6
	stw r5, sp[1]
	out res[r7], r4
	out res[r7], r8
	outct res[r7], 2
	ldaw r1, sp[1]
	mov r0, r7
	bl __interface_client_call
	chkct res[r7], 1
	freer res[r7]
	ldw r8, sp[6]                   # 4-byte Folded Reload
	ldd r7, r6, sp[2]               # 4-byte Folded Reload
	ldd r5, r4, sp[1]               # 4-byte Folded Reload
	retsp 8
	# RETURN_REG_HOLDER
	.cc_bottom _i.i2c_master_async_if._chan.write.function
	.set	_i.i2c_master_async_if._chan.write.nstackwords,((_i.i2c_master_async_if._client_call_y.max.nstackwords $M ($D __interface_wait_and_yield.nstackwords ? __interface_wait_and_yield.nstackwords $: _i.i2c_master_async_if._client_call_y.max.nstackwords) $M __interface_client_call.nstackwords) + 8)
	.globl	_i.i2c_master_async_if._chan.write.nstackwords
	.weak	_i.i2c_master_async_if._chan.write.nstackwords
	.set	_i.i2c_master_async_if._chan.write.maxcores,__interface_client_call.maxcores $M ($D __interface_wait_and_yield.maxcores ? __interface_wait_and_yield.maxcores $: _i.i2c_master_async_if._client_call_y.max.maxcores) $M 1
	.globl	_i.i2c_master_async_if._chan.write.maxcores
	.weak	_i.i2c_master_async_if._chan.write.maxcores
	.set	_i.i2c_master_async_if._chan.write.maxtimers,__interface_client_call.maxtimers $M ($D __interface_wait_and_yield.maxtimers ? __interface_wait_and_yield.maxtimers $: _i.i2c_master_async_if._client_call_y.max.maxtimers) $M 0
	.globl	_i.i2c_master_async_if._chan.write.maxtimers
	.weak	_i.i2c_master_async_if._chan.write.maxtimers
	.set	_i.i2c_master_async_if._chan.write.maxchanends,(1 + __interface_client_call.maxchanends) $M (1 + ($D __interface_wait_and_yield.maxchanends ? __interface_wait_and_yield.maxchanends $: _i.i2c_master_async_if._client_call_y.max.maxchanends)) $M 1
	.globl	_i.i2c_master_async_if._chan.write.maxchanends
	.weak	_i.i2c_master_async_if._chan.write.maxchanends
.Ltmp138:
	.size	_i.i2c_master_async_if._chan.write, .Ltmp138-_i.i2c_master_async_if._chan.write
	.cfi_endproc

	.weak	_i.i2c_master_async_if._chan_yield.shutdown
	.align	4
	.type	_i.i2c_master_async_if._chan_yield.shutdown,@function
	.cc_top _i.i2c_master_async_if._chan_yield.shutdown.function,_i.i2c_master_async_if._chan_yield.shutdown
_i.i2c_master_async_if._chan_yield.shutdown: # @_i.i2c_master_async_if._chan_yield.shutdown
	.cfi_startproc
	.issue_mode single
# BB#0:                                 # %allocas
	ENTSP_lu6 4
.Ltmp139:
	.cfi_def_cfa_offset 16
.Ltmp140:
	.cfi_offset 15, 0
	std r5, r4, sp[1]               # 4-byte Folded Spill
.Ltmp141:
	.cfi_offset 4, -8
.Ltmp142:
	.cfi_offset 5, -4
	#DEBUG_VALUE: _i.i2c_master_async_if._chan_yield.shutdown:s <- R0
	ldw r1, r0[0]
	getr r4, 2
	setd res[r4], r1
	add r1, r4, 5
	out res[r4], r1
	outct res[r4], 2
	ldw r5, r0[1]
	mov r0, r4
	mov r1, r5
	bl __interface_wait_and_yield
	ldc r1, 0
	mov r0, r4
	mov r2, r5
	bl __interface_client_call_y
	chkct res[r4], 1
	freer res[r4]
	ldd r5, r4, sp[1]               # 4-byte Folded Reload
	retsp 4
	# RETURN_REG_HOLDER
	.cc_bottom _i.i2c_master_async_if._chan_yield.shutdown.function
	.set	_i.i2c_master_async_if._chan_yield.shutdown.nstackwords,((($D __interface_wait_and_yield.nstackwords ? __interface_wait_and_yield.nstackwords $: _i.i2c_master_async_if._client_call_y.max.nstackwords) $M _i.i2c_master_async_if._client_call_y.max.nstackwords $M ($D __interface_client_call_y.nstackwords ? __interface_client_call_y.nstackwords $: _i.i2c_master_async_if._client_call_y.max.nstackwords)) + 4)
	.globl	_i.i2c_master_async_if._chan_yield.shutdown.nstackwords
	.weak	_i.i2c_master_async_if._chan_yield.shutdown.nstackwords
	.set	_i.i2c_master_async_if._chan_yield.shutdown.maxcores,($D __interface_client_call_y.maxcores ? __interface_client_call_y.maxcores $: _i.i2c_master_async_if._client_call_y.max.maxcores) $M ($D __interface_wait_and_yield.maxcores ? __interface_wait_and_yield.maxcores $: _i.i2c_master_async_if._client_call_y.max.maxcores) $M 1
	.globl	_i.i2c_master_async_if._chan_yield.shutdown.maxcores
	.weak	_i.i2c_master_async_if._chan_yield.shutdown.maxcores
	.set	_i.i2c_master_async_if._chan_yield.shutdown.maxtimers,($D __interface_client_call_y.maxtimers ? __interface_client_call_y.maxtimers $: _i.i2c_master_async_if._client_call_y.max.maxtimers) $M ($D __interface_wait_and_yield.maxtimers ? __interface_wait_and_yield.maxtimers $: _i.i2c_master_async_if._client_call_y.max.maxtimers) $M 0
	.globl	_i.i2c_master_async_if._chan_yield.shutdown.maxtimers
	.weak	_i.i2c_master_async_if._chan_yield.shutdown.maxtimers
	.set	_i.i2c_master_async_if._chan_yield.shutdown.maxchanends,(1 + ($D __interface_client_call_y.maxchanends ? __interface_client_call_y.maxchanends $: _i.i2c_master_async_if._client_call_y.max.maxchanends)) $M (1 + ($D __interface_wait_and_yield.maxchanends ? __interface_wait_and_yield.maxchanends $: _i.i2c_master_async_if._client_call_y.max.maxchanends)) $M 1
	.globl	_i.i2c_master_async_if._chan_yield.shutdown.maxchanends
	.weak	_i.i2c_master_async_if._chan_yield.shutdown.maxchanends
.Ltmp143:
	.size	_i.i2c_master_async_if._chan_yield.shutdown, .Ltmp143-_i.i2c_master_async_if._chan_yield.shutdown
	.cfi_endproc

	.weak	_i.i2c_master_async_if._chan_yield.send_stop_bit
	.align	4
	.type	_i.i2c_master_async_if._chan_yield.send_stop_bit,@function
	.cc_top _i.i2c_master_async_if._chan_yield.send_stop_bit.function,_i.i2c_master_async_if._chan_yield.send_stop_bit
_i.i2c_master_async_if._chan_yield.send_stop_bit: # @_i.i2c_master_async_if._chan_yield.send_stop_bit
	.cfi_startproc
	.issue_mode single
# BB#0:                                 # %allocas
	ENTSP_lu6 4
.Ltmp144:
	.cfi_def_cfa_offset 16
.Ltmp145:
	.cfi_offset 15, 0
	std r5, r4, sp[1]               # 4-byte Folded Spill
.Ltmp146:
	.cfi_offset 4, -8
.Ltmp147:
	.cfi_offset 5, -4
	#DEBUG_VALUE: _i.i2c_master_async_if._chan_yield.send_stop_bit:s <- R0
	ldw r1, r0[0]
	getr r4, 2
	setd res[r4], r1
	add r1, r4, 4
	out res[r4], r1
	outct res[r4], 2
	ldw r5, r0[1]
	mov r0, r4
	mov r1, r5
	bl __interface_wait_and_yield
	ldc r1, 0
	mov r0, r4
	mov r2, r5
	bl __interface_client_call_y
	chkct res[r4], 1
	freer res[r4]
	ldd r5, r4, sp[1]               # 4-byte Folded Reload
	retsp 4
	# RETURN_REG_HOLDER
	.cc_bottom _i.i2c_master_async_if._chan_yield.send_stop_bit.function
	.set	_i.i2c_master_async_if._chan_yield.send_stop_bit.nstackwords,((($D __interface_wait_and_yield.nstackwords ? __interface_wait_and_yield.nstackwords $: _i.i2c_master_async_if._client_call_y.max.nstackwords) $M _i.i2c_master_async_if._client_call_y.max.nstackwords $M ($D __interface_client_call_y.nstackwords ? __interface_client_call_y.nstackwords $: _i.i2c_master_async_if._client_call_y.max.nstackwords)) + 4)
	.globl	_i.i2c_master_async_if._chan_yield.send_stop_bit.nstackwords
	.weak	_i.i2c_master_async_if._chan_yield.send_stop_bit.nstackwords
	.set	_i.i2c_master_async_if._chan_yield.send_stop_bit.maxcores,($D __interface_client_call_y.maxcores ? __interface_client_call_y.maxcores $: _i.i2c_master_async_if._client_call_y.max.maxcores) $M ($D __interface_wait_and_yield.maxcores ? __interface_wait_and_yield.maxcores $: _i.i2c_master_async_if._client_call_y.max.maxcores) $M 1
	.globl	_i.i2c_master_async_if._chan_yield.send_stop_bit.maxcores
	.weak	_i.i2c_master_async_if._chan_yield.send_stop_bit.maxcores
	.set	_i.i2c_master_async_if._chan_yield.send_stop_bit.maxtimers,($D __interface_client_call_y.maxtimers ? __interface_client_call_y.maxtimers $: _i.i2c_master_async_if._client_call_y.max.maxtimers) $M ($D __interface_wait_and_yield.maxtimers ? __interface_wait_and_yield.maxtimers $: _i.i2c_master_async_if._client_call_y.max.maxtimers) $M 0
	.globl	_i.i2c_master_async_if._chan_yield.send_stop_bit.maxtimers
	.weak	_i.i2c_master_async_if._chan_yield.send_stop_bit.maxtimers
	.set	_i.i2c_master_async_if._chan_yield.send_stop_bit.maxchanends,(1 + ($D __interface_client_call_y.maxchanends ? __interface_client_call_y.maxchanends $: _i.i2c_master_async_if._client_call_y.max.maxchanends)) $M (1 + ($D __interface_wait_and_yield.maxchanends ? __interface_wait_and_yield.maxchanends $: _i.i2c_master_async_if._client_call_y.max.maxchanends)) $M 1
	.globl	_i.i2c_master_async_if._chan_yield.send_stop_bit.maxchanends
	.weak	_i.i2c_master_async_if._chan_yield.send_stop_bit.maxchanends
.Ltmp148:
	.size	_i.i2c_master_async_if._chan_yield.send_stop_bit, .Ltmp148-_i.i2c_master_async_if._chan_yield.send_stop_bit
	.cfi_endproc

	.weak	_i.i2c_master_async_if._chan_yield.get_read_data
	.align	4
	.type	_i.i2c_master_async_if._chan_yield.get_read_data,@function
	.cc_top _i.i2c_master_async_if._chan_yield.get_read_data.function,_i.i2c_master_async_if._chan_yield.get_read_data
_i.i2c_master_async_if._chan_yield.get_read_data: # @_i.i2c_master_async_if._chan_yield.get_read_data
	.cfi_startproc
	.issue_mode single
# BB#0:                                 # %allocas
	ENTSP_lu6 8
.Ltmp149:
	.cfi_def_cfa_offset 32
.Ltmp150:
	.cfi_offset 15, 0
	std r5, r4, sp[1]               # 4-byte Folded Spill
.Ltmp151:
	.cfi_offset 4, -24
.Ltmp152:
	.cfi_offset 5, -20
	std r7, r6, sp[2]               # 4-byte Folded Spill
.Ltmp153:
	.cfi_offset 6, -16
.Ltmp154:
	.cfi_offset 7, -12
	stw r8, sp[6]                   # 4-byte Folded Spill
.Ltmp155:
	.cfi_offset 8, -8
	#DEBUG_VALUE: _i.i2c_master_async_if._chan_yield.get_read_data:s <- R0
	#DEBUG_VALUE: _i.i2c_master_async_if._chan_yield.get_read_data:clientNotifyFlag <- R1
	#DEBUG_VALUE: _i.i2c_master_async_if._chan_yield.get_read_data:param2 <- R2
	#DEBUG_VALUE: _i.i2c_master_async_if._chan_yield.get_read_data:param3 <- R3
	mov r5, r3
	#DEBUG_VALUE: _i.i2c_master_async_if._chan_yield.get_read_data:param3 <- R5
	mov r6, r2
	#DEBUG_VALUE: _i.i2c_master_async_if._chan_yield.get_read_data:param2 <- R6
	mov r7, r1
	#DEBUG_VALUE: _i.i2c_master_async_if._chan_yield.get_read_data:clientNotifyFlag <- R7
	ldw r1, r0[0]
	getr r4, 2
	setd res[r4], r1
	add r1, r4, 3
	out res[r4], r1
	outct res[r4], 2
	ldw r8, r0[1]
	mov r0, r4
	mov r1, r8
	bl __interface_wait_and_yield
	chkct res[r4], 1
	out res[r4], r7
	stw r6, sp[1]
	out res[r4], r5
	outct res[r4], 2
	ldaw r1, sp[1]
	mov r0, r4
	mov r2, r8
	bl __interface_client_call_y
	in r0, res[r4]
	chkct res[r4], 1
	freer res[r4]
	ldw r8, sp[6]                   # 4-byte Folded Reload
	ldd r7, r6, sp[2]               # 4-byte Folded Reload
	ldd r5, r4, sp[1]               # 4-byte Folded Reload
	retsp 8
	# RETURN_REG_HOLDER
	.cc_bottom _i.i2c_master_async_if._chan_yield.get_read_data.function
	.set	_i.i2c_master_async_if._chan_yield.get_read_data.nstackwords,((($D __interface_wait_and_yield.nstackwords ? __interface_wait_and_yield.nstackwords $: _i.i2c_master_async_if._client_call_y.max.nstackwords) $M _i.i2c_master_async_if._client_call_y.max.nstackwords $M ($D __interface_client_call_y.nstackwords ? __interface_client_call_y.nstackwords $: _i.i2c_master_async_if._client_call_y.max.nstackwords)) + 8)
	.globl	_i.i2c_master_async_if._chan_yield.get_read_data.nstackwords
	.weak	_i.i2c_master_async_if._chan_yield.get_read_data.nstackwords
	.set	_i.i2c_master_async_if._chan_yield.get_read_data.maxcores,($D __interface_client_call_y.maxcores ? __interface_client_call_y.maxcores $: _i.i2c_master_async_if._client_call_y.max.maxcores) $M ($D __interface_wait_and_yield.maxcores ? __interface_wait_and_yield.maxcores $: _i.i2c_master_async_if._client_call_y.max.maxcores) $M 1
	.globl	_i.i2c_master_async_if._chan_yield.get_read_data.maxcores
	.weak	_i.i2c_master_async_if._chan_yield.get_read_data.maxcores
	.set	_i.i2c_master_async_if._chan_yield.get_read_data.maxtimers,($D __interface_client_call_y.maxtimers ? __interface_client_call_y.maxtimers $: _i.i2c_master_async_if._client_call_y.max.maxtimers) $M ($D __interface_wait_and_yield.maxtimers ? __interface_wait_and_yield.maxtimers $: _i.i2c_master_async_if._client_call_y.max.maxtimers) $M 0
	.globl	_i.i2c_master_async_if._chan_yield.get_read_data.maxtimers
	.weak	_i.i2c_master_async_if._chan_yield.get_read_data.maxtimers
	.set	_i.i2c_master_async_if._chan_yield.get_read_data.maxchanends,(1 + ($D __interface_client_call_y.maxchanends ? __interface_client_call_y.maxchanends $: _i.i2c_master_async_if._client_call_y.max.maxchanends)) $M (1 + ($D __interface_wait_and_yield.maxchanends ? __interface_wait_and_yield.maxchanends $: _i.i2c_master_async_if._client_call_y.max.maxchanends)) $M 1
	.globl	_i.i2c_master_async_if._chan_yield.get_read_data.maxchanends
	.weak	_i.i2c_master_async_if._chan_yield.get_read_data.maxchanends
.Ltmp156:
	.size	_i.i2c_master_async_if._chan_yield.get_read_data, .Ltmp156-_i.i2c_master_async_if._chan_yield.get_read_data
	.cfi_endproc

	.weak	_i.i2c_master_async_if._chan_yield.get_write_result
	.align	4
	.type	_i.i2c_master_async_if._chan_yield.get_write_result,@function
	.cc_top _i.i2c_master_async_if._chan_yield.get_write_result.function,_i.i2c_master_async_if._chan_yield.get_write_result
_i.i2c_master_async_if._chan_yield.get_write_result: # @_i.i2c_master_async_if._chan_yield.get_write_result
	.cfi_startproc
	.issue_mode single
# BB#0:                                 # %allocas
	ENTSP_lu6 6
.Ltmp157:
	.cfi_def_cfa_offset 24
.Ltmp158:
	.cfi_offset 15, 0
	std r5, r4, sp[1]               # 4-byte Folded Spill
.Ltmp159:
	.cfi_offset 4, -16
.Ltmp160:
	.cfi_offset 5, -12
	std r7, r6, sp[2]               # 4-byte Folded Spill
.Ltmp161:
	.cfi_offset 6, -8
.Ltmp162:
	.cfi_offset 7, -4
	#DEBUG_VALUE: _i.i2c_master_async_if._chan_yield.get_write_result:s <- R0
	#DEBUG_VALUE: _i.i2c_master_async_if._chan_yield.get_write_result:clientNotifyFlag <- R1
	#DEBUG_VALUE: _i.i2c_master_async_if._chan_yield.get_write_result:param2 <- R2
	mov r4, r2
	#DEBUG_VALUE: _i.i2c_master_async_if._chan_yield.get_write_result:param2 <- R4
	mov r6, r1
	#DEBUG_VALUE: _i.i2c_master_async_if._chan_yield.get_write_result:clientNotifyFlag <- R6
	ldw r1, r0[0]
	getr r5, 2
	setd res[r5], r1
	add r1, r5, 2
	out res[r5], r1
	outct res[r5], 2
	ldw r7, r0[1]
	mov r0, r5
	mov r1, r7
	bl __interface_wait_and_yield
	chkct res[r5], 1
	out res[r5], r6
	ldw r0, r4[0]
	out res[r5], r0
	outct res[r5], 2
	ldc r1, 0
	mov r0, r5
	mov r2, r7
	bl __interface_client_call_y
	in r0, res[r5]
	stw r0, r4[0]
	in r0, res[r5]
	chkct res[r5], 1
	freer res[r5]
	ldd r7, r6, sp[2]               # 4-byte Folded Reload
	ldd r5, r4, sp[1]               # 4-byte Folded Reload
	retsp 6
	# RETURN_REG_HOLDER
	.cc_bottom _i.i2c_master_async_if._chan_yield.get_write_result.function
	.set	_i.i2c_master_async_if._chan_yield.get_write_result.nstackwords,((($D __interface_wait_and_yield.nstackwords ? __interface_wait_and_yield.nstackwords $: _i.i2c_master_async_if._client_call_y.max.nstackwords) $M _i.i2c_master_async_if._client_call_y.max.nstackwords $M ($D __interface_client_call_y.nstackwords ? __interface_client_call_y.nstackwords $: _i.i2c_master_async_if._client_call_y.max.nstackwords)) + 6)
	.globl	_i.i2c_master_async_if._chan_yield.get_write_result.nstackwords
	.weak	_i.i2c_master_async_if._chan_yield.get_write_result.nstackwords
	.set	_i.i2c_master_async_if._chan_yield.get_write_result.maxcores,($D __interface_client_call_y.maxcores ? __interface_client_call_y.maxcores $: _i.i2c_master_async_if._client_call_y.max.maxcores) $M ($D __interface_wait_and_yield.maxcores ? __interface_wait_and_yield.maxcores $: _i.i2c_master_async_if._client_call_y.max.maxcores) $M 1
	.globl	_i.i2c_master_async_if._chan_yield.get_write_result.maxcores
	.weak	_i.i2c_master_async_if._chan_yield.get_write_result.maxcores
	.set	_i.i2c_master_async_if._chan_yield.get_write_result.maxtimers,($D __interface_client_call_y.maxtimers ? __interface_client_call_y.maxtimers $: _i.i2c_master_async_if._client_call_y.max.maxtimers) $M ($D __interface_wait_and_yield.maxtimers ? __interface_wait_and_yield.maxtimers $: _i.i2c_master_async_if._client_call_y.max.maxtimers) $M 0
	.globl	_i.i2c_master_async_if._chan_yield.get_write_result.maxtimers
	.weak	_i.i2c_master_async_if._chan_yield.get_write_result.maxtimers
	.set	_i.i2c_master_async_if._chan_yield.get_write_result.maxchanends,(1 + ($D __interface_client_call_y.maxchanends ? __interface_client_call_y.maxchanends $: _i.i2c_master_async_if._client_call_y.max.maxchanends)) $M (1 + ($D __interface_wait_and_yield.maxchanends ? __interface_wait_and_yield.maxchanends $: _i.i2c_master_async_if._client_call_y.max.maxchanends)) $M 1
	.globl	_i.i2c_master_async_if._chan_yield.get_write_result.maxchanends
	.weak	_i.i2c_master_async_if._chan_yield.get_write_result.maxchanends
.Ltmp163:
	.size	_i.i2c_master_async_if._chan_yield.get_write_result, .Ltmp163-_i.i2c_master_async_if._chan_yield.get_write_result
	.cfi_endproc

	.weak	_i.i2c_master_async_if._chan_yield.read
	.align	4
	.type	_i.i2c_master_async_if._chan_yield.read,@function
	.cc_top _i.i2c_master_async_if._chan_yield.read.function,_i.i2c_master_async_if._chan_yield.read
_i.i2c_master_async_if._chan_yield.read: # @_i.i2c_master_async_if._chan_yield.read
	.cfi_startproc
	.issue_mode single
# BB#0:                                 # %allocas
	ENTSP_lu6 8
.Ltmp164:
	.cfi_def_cfa_offset 32
.Ltmp165:
	.cfi_offset 15, 0
	std r5, r4, sp[1]               # 4-byte Folded Spill
.Ltmp166:
	.cfi_offset 4, -24
.Ltmp167:
	.cfi_offset 5, -20
	std r7, r6, sp[2]               # 4-byte Folded Spill
.Ltmp168:
	.cfi_offset 6, -16
.Ltmp169:
	.cfi_offset 7, -12
	stw r8, sp[6]                   # 4-byte Folded Spill
.Ltmp170:
	.cfi_offset 8, -8
	#DEBUG_VALUE: _i.i2c_master_async_if._chan_yield.read:s <- R0
	#DEBUG_VALUE: _i.i2c_master_async_if._chan_yield.read:param1 <- R1
	#DEBUG_VALUE: _i.i2c_master_async_if._chan_yield.read:param2 <- R2
	#DEBUG_VALUE: _i.i2c_master_async_if._chan_yield.read:param3 <- R3
	mov r4, r3
	#DEBUG_VALUE: _i.i2c_master_async_if._chan_yield.read:param3 <- R4
	mov r5, r2
	#DEBUG_VALUE: _i.i2c_master_async_if._chan_yield.read:param2 <- R5
	mov r6, r1
	#DEBUG_VALUE: _i.i2c_master_async_if._chan_yield.read:param1 <- R6
	ldw r1, r0[0]
	getr r7, 2
	setd res[r7], r1
	add r1, r7, 1
	out res[r7], r1
	outct res[r7], 2
	ldw r8, r0[1]
	mov r0, r7
	mov r1, r8
	bl __interface_wait_and_yield
	chkct res[r7], 1
	outt res[r7], r6
	out res[r7], r5
	out res[r7], r4
	outct res[r7], 2
	ldc r1, 0
	mov r0, r7
	mov r2, r8
	bl __interface_client_call_y
	chkct res[r7], 1
	freer res[r7]
	ldw r8, sp[6]                   # 4-byte Folded Reload
	ldd r7, r6, sp[2]               # 4-byte Folded Reload
	ldd r5, r4, sp[1]               # 4-byte Folded Reload
	retsp 8
	# RETURN_REG_HOLDER
	.cc_bottom _i.i2c_master_async_if._chan_yield.read.function
	.set	_i.i2c_master_async_if._chan_yield.read.nstackwords,((($D __interface_wait_and_yield.nstackwords ? __interface_wait_and_yield.nstackwords $: _i.i2c_master_async_if._client_call_y.max.nstackwords) $M _i.i2c_master_async_if._client_call_y.max.nstackwords $M ($D __interface_client_call_y.nstackwords ? __interface_client_call_y.nstackwords $: _i.i2c_master_async_if._client_call_y.max.nstackwords)) + 8)
	.globl	_i.i2c_master_async_if._chan_yield.read.nstackwords
	.weak	_i.i2c_master_async_if._chan_yield.read.nstackwords
	.set	_i.i2c_master_async_if._chan_yield.read.maxcores,($D __interface_client_call_y.maxcores ? __interface_client_call_y.maxcores $: _i.i2c_master_async_if._client_call_y.max.maxcores) $M ($D __interface_wait_and_yield.maxcores ? __interface_wait_and_yield.maxcores $: _i.i2c_master_async_if._client_call_y.max.maxcores) $M 1
	.globl	_i.i2c_master_async_if._chan_yield.read.maxcores
	.weak	_i.i2c_master_async_if._chan_yield.read.maxcores
	.set	_i.i2c_master_async_if._chan_yield.read.maxtimers,($D __interface_client_call_y.maxtimers ? __interface_client_call_y.maxtimers $: _i.i2c_master_async_if._client_call_y.max.maxtimers) $M ($D __interface_wait_and_yield.maxtimers ? __interface_wait_and_yield.maxtimers $: _i.i2c_master_async_if._client_call_y.max.maxtimers) $M 0
	.globl	_i.i2c_master_async_if._chan_yield.read.maxtimers
	.weak	_i.i2c_master_async_if._chan_yield.read.maxtimers
	.set	_i.i2c_master_async_if._chan_yield.read.maxchanends,(1 + ($D __interface_client_call_y.maxchanends ? __interface_client_call_y.maxchanends $: _i.i2c_master_async_if._client_call_y.max.maxchanends)) $M (1 + ($D __interface_wait_and_yield.maxchanends ? __interface_wait_and_yield.maxchanends $: _i.i2c_master_async_if._client_call_y.max.maxchanends)) $M 1
	.globl	_i.i2c_master_async_if._chan_yield.read.maxchanends
	.weak	_i.i2c_master_async_if._chan_yield.read.maxchanends
.Ltmp171:
	.size	_i.i2c_master_async_if._chan_yield.read, .Ltmp171-_i.i2c_master_async_if._chan_yield.read
	.cfi_endproc

	.weak	_i.i2c_master_async_if._chan_yield.write
	.align	4
	.type	_i.i2c_master_async_if._chan_yield.write,@function
	.cc_top _i.i2c_master_async_if._chan_yield.write.function,_i.i2c_master_async_if._chan_yield.write
_i.i2c_master_async_if._chan_yield.write: # @_i.i2c_master_async_if._chan_yield.write
	.cfi_startproc
	.issue_mode single
# BB#0:                                 # %allocas
	ENTSP_lu6 8
.Ltmp172:
	.cfi_def_cfa_offset 32
.Ltmp173:
	.cfi_offset 15, 0
	std r5, r4, sp[1]               # 4-byte Folded Spill
.Ltmp174:
	.cfi_offset 4, -24
.Ltmp175:
	.cfi_offset 5, -20
	std r7, r6, sp[2]               # 4-byte Folded Spill
.Ltmp176:
	.cfi_offset 6, -16
.Ltmp177:
	.cfi_offset 7, -12
	std r9, r8, sp[3]               # 4-byte Folded Spill
.Ltmp178:
	.cfi_offset 8, -8
.Ltmp179:
	.cfi_offset 9, -4
	#DEBUG_VALUE: _i.i2c_master_async_if._chan_yield.write:s <- R0
	#DEBUG_VALUE: _i.i2c_master_async_if._chan_yield.write:param1 <- R1
	#DEBUG_VALUE: _i.i2c_master_async_if._chan_yield.write:param2 <- R2
	#DEBUG_VALUE: _i.i2c_master_async_if._chan_yield.write:param3 <- R3
	#DEBUG_VALUE: _i.i2c_master_async_if._chan_yield.write:param4 <- [SP+36]
	mov r4, r3
	#DEBUG_VALUE: _i.i2c_master_async_if._chan_yield.write:param3 <- R4
	mov r5, r2
	#DEBUG_VALUE: _i.i2c_master_async_if._chan_yield.write:param2 <- R5
	mov r6, r1
	#DEBUG_VALUE: _i.i2c_master_async_if._chan_yield.write:param1 <- R6
	ldw r9, sp[9]
	ldw r1, r0[0]
	getr r7, 2
	setd res[r7], r1
	out res[r7], r7
	outct res[r7], 2
	ldw r8, r0[1]
	mov r0, r7
	mov r1, r8
	bl __interface_wait_and_yield
	chkct res[r7], 1
	outt res[r7], r6
	stw r5, sp[1]
	out res[r7], r4
	out res[r7], r9
	outct res[r7], 2
	ldaw r1, sp[1]
	mov r0, r7
	mov r2, r8
	bl __interface_client_call_y
	chkct res[r7], 1
	freer res[r7]
	ldd r9, r8, sp[3]               # 4-byte Folded Reload
	ldd r7, r6, sp[2]               # 4-byte Folded Reload
	ldd r5, r4, sp[1]               # 4-byte Folded Reload
	retsp 8
	# RETURN_REG_HOLDER
	.cc_bottom _i.i2c_master_async_if._chan_yield.write.function
	.set	_i.i2c_master_async_if._chan_yield.write.nstackwords,((($D __interface_wait_and_yield.nstackwords ? __interface_wait_and_yield.nstackwords $: _i.i2c_master_async_if._client_call_y.max.nstackwords) $M _i.i2c_master_async_if._client_call_y.max.nstackwords $M ($D __interface_client_call_y.nstackwords ? __interface_client_call_y.nstackwords $: _i.i2c_master_async_if._client_call_y.max.nstackwords)) + 8)
	.globl	_i.i2c_master_async_if._chan_yield.write.nstackwords
	.weak	_i.i2c_master_async_if._chan_yield.write.nstackwords
	.set	_i.i2c_master_async_if._chan_yield.write.maxcores,($D __interface_client_call_y.maxcores ? __interface_client_call_y.maxcores $: _i.i2c_master_async_if._client_call_y.max.maxcores) $M ($D __interface_wait_and_yield.maxcores ? __interface_wait_and_yield.maxcores $: _i.i2c_master_async_if._client_call_y.max.maxcores) $M 1
	.globl	_i.i2c_master_async_if._chan_yield.write.maxcores
	.weak	_i.i2c_master_async_if._chan_yield.write.maxcores
	.set	_i.i2c_master_async_if._chan_yield.write.maxtimers,($D __interface_client_call_y.maxtimers ? __interface_client_call_y.maxtimers $: _i.i2c_master_async_if._client_call_y.max.maxtimers) $M ($D __interface_wait_and_yield.maxtimers ? __interface_wait_and_yield.maxtimers $: _i.i2c_master_async_if._client_call_y.max.maxtimers) $M 0
	.globl	_i.i2c_master_async_if._chan_yield.write.maxtimers
	.weak	_i.i2c_master_async_if._chan_yield.write.maxtimers
	.set	_i.i2c_master_async_if._chan_yield.write.maxchanends,(1 + ($D __interface_client_call_y.maxchanends ? __interface_client_call_y.maxchanends $: _i.i2c_master_async_if._client_call_y.max.maxchanends)) $M (1 + ($D __interface_wait_and_yield.maxchanends ? __interface_wait_and_yield.maxchanends $: _i.i2c_master_async_if._client_call_y.max.maxchanends)) $M 1
	.globl	_i.i2c_master_async_if._chan_yield.write.maxchanends
	.weak	_i.i2c_master_async_if._chan_yield.write.maxchanends
.Ltmp180:
	.size	_i.i2c_master_async_if._chan_yield.write, .Ltmp180-_i.i2c_master_async_if._chan_yield.write
	.cfi_endproc

	.weak	_i.i2c_slave_callback_if._chan.stop_bit
	.align	4
	.type	_i.i2c_slave_callback_if._chan.stop_bit,@function
	.cc_top _i.i2c_slave_callback_if._chan.stop_bit.function,_i.i2c_slave_callback_if._chan.stop_bit
_i.i2c_slave_callback_if._chan.stop_bit: # @_i.i2c_slave_callback_if._chan.stop_bit
	.cfi_startproc
	.issue_mode single
# BB#0:                                 # %allocas
	ENTSP_lu6 4
.Ltmp181:
	.cfi_def_cfa_offset 16
.Ltmp182:
	.cfi_offset 15, 0
	stw r4, sp[2]                   # 4-byte Folded Spill
.Ltmp183:
	.cfi_offset 4, -8
	#DEBUG_VALUE: _i.i2c_slave_callback_if._chan.stop_bit:dest <- R0
	getr r4, 2
	setd res[r4], r0
	add r0, r4, 8
	out res[r4], r0
	outct res[r4], 2
	ldc r1, 0
	mov r0, r4
	bl __interface_wait_and_yield
	in r0, res[r4]
	chkct res[r4], 1
	freer res[r4]
	ldw r4, sp[2]                   # 4-byte Folded Reload
	retsp 4
	# RETURN_REG_HOLDER
	.cc_bottom _i.i2c_slave_callback_if._chan.stop_bit.function
	.set	_i.i2c_slave_callback_if._chan.stop_bit.nstackwords,((_i.i2c_slave_callback_if._client_call_y.max.nstackwords $M ($D __interface_wait_and_yield.nstackwords ? __interface_wait_and_yield.nstackwords $: _i.i2c_slave_callback_if._client_call_y.max.nstackwords)) + 4)
	.globl	_i.i2c_slave_callback_if._chan.stop_bit.nstackwords
	.weak	_i.i2c_slave_callback_if._chan.stop_bit.nstackwords
	.set	_i.i2c_slave_callback_if._chan.stop_bit.maxcores,($D __interface_wait_and_yield.maxcores ? __interface_wait_and_yield.maxcores $: _i.i2c_slave_callback_if._client_call_y.max.maxcores) $M 1
	.globl	_i.i2c_slave_callback_if._chan.stop_bit.maxcores
	.weak	_i.i2c_slave_callback_if._chan.stop_bit.maxcores
	.set	_i.i2c_slave_callback_if._chan.stop_bit.maxtimers,($D __interface_wait_and_yield.maxtimers ? __interface_wait_and_yield.maxtimers $: _i.i2c_slave_callback_if._client_call_y.max.maxtimers) $M 0
	.globl	_i.i2c_slave_callback_if._chan.stop_bit.maxtimers
	.weak	_i.i2c_slave_callback_if._chan.stop_bit.maxtimers
	.set	_i.i2c_slave_callback_if._chan.stop_bit.maxchanends,(1 + ($D __interface_wait_and_yield.maxchanends ? __interface_wait_and_yield.maxchanends $: _i.i2c_slave_callback_if._client_call_y.max.maxchanends)) $M 1
	.globl	_i.i2c_slave_callback_if._chan.stop_bit.maxchanends
	.weak	_i.i2c_slave_callback_if._chan.stop_bit.maxchanends
.Ltmp184:
	.size	_i.i2c_slave_callback_if._chan.stop_bit, .Ltmp184-_i.i2c_slave_callback_if._chan.stop_bit
	.cfi_endproc

	.weak	_i.i2c_slave_callback_if._chan.master_sent_data
	.align	4
	.type	_i.i2c_slave_callback_if._chan.master_sent_data,@function
	.cc_top _i.i2c_slave_callback_if._chan.master_sent_data.function,_i.i2c_slave_callback_if._chan.master_sent_data
_i.i2c_slave_callback_if._chan.master_sent_data: # @_i.i2c_slave_callback_if._chan.master_sent_data
	.cfi_startproc
	.issue_mode single
# BB#0:                                 # %allocas
	ENTSP_lu6 4
.Ltmp185:
	.cfi_def_cfa_offset 16
.Ltmp186:
	.cfi_offset 15, 0
	std r5, r4, sp[1]               # 4-byte Folded Spill
.Ltmp187:
	.cfi_offset 4, -8
.Ltmp188:
	.cfi_offset 5, -4
	#DEBUG_VALUE: _i.i2c_slave_callback_if._chan.master_sent_data:dest <- R0
	#DEBUG_VALUE: _i.i2c_slave_callback_if._chan.master_sent_data:param1 <- R1
	mov r4, r1
	#DEBUG_VALUE: _i.i2c_slave_callback_if._chan.master_sent_data:param1 <- R4
	getr r5, 2
	setd res[r5], r0
	add r0, r5, 7
	out res[r5], r0
	outct res[r5], 2
	ldc r1, 0
	mov r0, r5
	bl __interface_wait_and_yield
	chkct res[r5], 1
	outt res[r5], r4
	outct res[r5], 2
	in r0, res[r5]
	in r0, res[r5]
	chkct res[r5], 1
	freer res[r5]
	ldd r5, r4, sp[1]               # 4-byte Folded Reload
	retsp 4
	# RETURN_REG_HOLDER
	.cc_bottom _i.i2c_slave_callback_if._chan.master_sent_data.function
	.set	_i.i2c_slave_callback_if._chan.master_sent_data.nstackwords,((_i.i2c_slave_callback_if._client_call_y.max.nstackwords $M ($D __interface_wait_and_yield.nstackwords ? __interface_wait_and_yield.nstackwords $: _i.i2c_slave_callback_if._client_call_y.max.nstackwords)) + 4)
	.globl	_i.i2c_slave_callback_if._chan.master_sent_data.nstackwords
	.weak	_i.i2c_slave_callback_if._chan.master_sent_data.nstackwords
	.set	_i.i2c_slave_callback_if._chan.master_sent_data.maxcores,($D __interface_wait_and_yield.maxcores ? __interface_wait_and_yield.maxcores $: _i.i2c_slave_callback_if._client_call_y.max.maxcores) $M 1
	.globl	_i.i2c_slave_callback_if._chan.master_sent_data.maxcores
	.weak	_i.i2c_slave_callback_if._chan.master_sent_data.maxcores
	.set	_i.i2c_slave_callback_if._chan.master_sent_data.maxtimers,($D __interface_wait_and_yield.maxtimers ? __interface_wait_and_yield.maxtimers $: _i.i2c_slave_callback_if._client_call_y.max.maxtimers) $M 0
	.globl	_i.i2c_slave_callback_if._chan.master_sent_data.maxtimers
	.weak	_i.i2c_slave_callback_if._chan.master_sent_data.maxtimers
	.set	_i.i2c_slave_callback_if._chan.master_sent_data.maxchanends,(1 + ($D __interface_wait_and_yield.maxchanends ? __interface_wait_and_yield.maxchanends $: _i.i2c_slave_callback_if._client_call_y.max.maxchanends)) $M 1
	.globl	_i.i2c_slave_callback_if._chan.master_sent_data.maxchanends
	.weak	_i.i2c_slave_callback_if._chan.master_sent_data.maxchanends
.Ltmp189:
	.size	_i.i2c_slave_callback_if._chan.master_sent_data, .Ltmp189-_i.i2c_slave_callback_if._chan.master_sent_data
	.cfi_endproc

	.weak	_i.i2c_slave_callback_if._chan.start_master_write
	.align	4
	.type	_i.i2c_slave_callback_if._chan.start_master_write,@function
	.cc_top _i.i2c_slave_callback_if._chan.start_master_write.function,_i.i2c_slave_callback_if._chan.start_master_write
_i.i2c_slave_callback_if._chan.start_master_write: # @_i.i2c_slave_callback_if._chan.start_master_write
	.cfi_startproc
	.issue_mode single
# BB#0:                                 # %allocas
	ENTSP_lu6 4
.Ltmp190:
	.cfi_def_cfa_offset 16
.Ltmp191:
	.cfi_offset 15, 0
	stw r4, sp[2]                   # 4-byte Folded Spill
.Ltmp192:
	.cfi_offset 4, -8
	#DEBUG_VALUE: _i.i2c_slave_callback_if._chan.start_master_write:dest <- R0
	getr r4, 2
	setd res[r4], r0
	add r0, r4, 6
	out res[r4], r0
	outct res[r4], 2
	ldc r1, 0
	mov r0, r4
	bl __interface_wait_and_yield
	in r0, res[r4]
	chkct res[r4], 1
	freer res[r4]
	ldw r4, sp[2]                   # 4-byte Folded Reload
	retsp 4
	# RETURN_REG_HOLDER
	.cc_bottom _i.i2c_slave_callback_if._chan.start_master_write.function
	.set	_i.i2c_slave_callback_if._chan.start_master_write.nstackwords,((_i.i2c_slave_callback_if._client_call_y.max.nstackwords $M ($D __interface_wait_and_yield.nstackwords ? __interface_wait_and_yield.nstackwords $: _i.i2c_slave_callback_if._client_call_y.max.nstackwords)) + 4)
	.globl	_i.i2c_slave_callback_if._chan.start_master_write.nstackwords
	.weak	_i.i2c_slave_callback_if._chan.start_master_write.nstackwords
	.set	_i.i2c_slave_callback_if._chan.start_master_write.maxcores,($D __interface_wait_and_yield.maxcores ? __interface_wait_and_yield.maxcores $: _i.i2c_slave_callback_if._client_call_y.max.maxcores) $M 1
	.globl	_i.i2c_slave_callback_if._chan.start_master_write.maxcores
	.weak	_i.i2c_slave_callback_if._chan.start_master_write.maxcores
	.set	_i.i2c_slave_callback_if._chan.start_master_write.maxtimers,($D __interface_wait_and_yield.maxtimers ? __interface_wait_and_yield.maxtimers $: _i.i2c_slave_callback_if._client_call_y.max.maxtimers) $M 0
	.globl	_i.i2c_slave_callback_if._chan.start_master_write.maxtimers
	.weak	_i.i2c_slave_callback_if._chan.start_master_write.maxtimers
	.set	_i.i2c_slave_callback_if._chan.start_master_write.maxchanends,(1 + ($D __interface_wait_and_yield.maxchanends ? __interface_wait_and_yield.maxchanends $: _i.i2c_slave_callback_if._client_call_y.max.maxchanends)) $M 1
	.globl	_i.i2c_slave_callback_if._chan.start_master_write.maxchanends
	.weak	_i.i2c_slave_callback_if._chan.start_master_write.maxchanends
.Ltmp193:
	.size	_i.i2c_slave_callback_if._chan.start_master_write, .Ltmp193-_i.i2c_slave_callback_if._chan.start_master_write
	.cfi_endproc

	.weak	_i.i2c_slave_callback_if._chan.master_requires_data
	.align	4
	.type	_i.i2c_slave_callback_if._chan.master_requires_data,@function
	.cc_top _i.i2c_slave_callback_if._chan.master_requires_data.function,_i.i2c_slave_callback_if._chan.master_requires_data
_i.i2c_slave_callback_if._chan.master_requires_data: # @_i.i2c_slave_callback_if._chan.master_requires_data
	.cfi_startproc
	.issue_mode single
# BB#0:                                 # %allocas
	ENTSP_lu6 4
.Ltmp194:
	.cfi_def_cfa_offset 16
.Ltmp195:
	.cfi_offset 15, 0
	stw r4, sp[2]                   # 4-byte Folded Spill
.Ltmp196:
	.cfi_offset 4, -8
	#DEBUG_VALUE: _i.i2c_slave_callback_if._chan.master_requires_data:dest <- R0
	getr r4, 2
	setd res[r4], r0
	add r0, r4, 5
	out res[r4], r0
	outct res[r4], 2
	ldc r1, 0
	mov r0, r4
	bl __interface_wait_and_yield
	in r0, res[r4]
	int r0, res[r4]
	chkct res[r4], 1
	freer res[r4]
	ldw r4, sp[2]                   # 4-byte Folded Reload
	retsp 4
	# RETURN_REG_HOLDER
	.cc_bottom _i.i2c_slave_callback_if._chan.master_requires_data.function
	.set	_i.i2c_slave_callback_if._chan.master_requires_data.nstackwords,((_i.i2c_slave_callback_if._client_call_y.max.nstackwords $M ($D __interface_wait_and_yield.nstackwords ? __interface_wait_and_yield.nstackwords $: _i.i2c_slave_callback_if._client_call_y.max.nstackwords)) + 4)
	.globl	_i.i2c_slave_callback_if._chan.master_requires_data.nstackwords
	.weak	_i.i2c_slave_callback_if._chan.master_requires_data.nstackwords
	.set	_i.i2c_slave_callback_if._chan.master_requires_data.maxcores,($D __interface_wait_and_yield.maxcores ? __interface_wait_and_yield.maxcores $: _i.i2c_slave_callback_if._client_call_y.max.maxcores) $M 1
	.globl	_i.i2c_slave_callback_if._chan.master_requires_data.maxcores
	.weak	_i.i2c_slave_callback_if._chan.master_requires_data.maxcores
	.set	_i.i2c_slave_callback_if._chan.master_requires_data.maxtimers,($D __interface_wait_and_yield.maxtimers ? __interface_wait_and_yield.maxtimers $: _i.i2c_slave_callback_if._client_call_y.max.maxtimers) $M 0
	.globl	_i.i2c_slave_callback_if._chan.master_requires_data.maxtimers
	.weak	_i.i2c_slave_callback_if._chan.master_requires_data.maxtimers
	.set	_i.i2c_slave_callback_if._chan.master_requires_data.maxchanends,(1 + ($D __interface_wait_and_yield.maxchanends ? __interface_wait_and_yield.maxchanends $: _i.i2c_slave_callback_if._client_call_y.max.maxchanends)) $M 1
	.globl	_i.i2c_slave_callback_if._chan.master_requires_data.maxchanends
	.weak	_i.i2c_slave_callback_if._chan.master_requires_data.maxchanends
.Ltmp197:
	.size	_i.i2c_slave_callback_if._chan.master_requires_data, .Ltmp197-_i.i2c_slave_callback_if._chan.master_requires_data
	.cfi_endproc

	.weak	_i.i2c_slave_callback_if._chan.start_master_read
	.align	4
	.type	_i.i2c_slave_callback_if._chan.start_master_read,@function
	.cc_top _i.i2c_slave_callback_if._chan.start_master_read.function,_i.i2c_slave_callback_if._chan.start_master_read
_i.i2c_slave_callback_if._chan.start_master_read: # @_i.i2c_slave_callback_if._chan.start_master_read
	.cfi_startproc
	.issue_mode single
# BB#0:                                 # %allocas
	ENTSP_lu6 4
.Ltmp198:
	.cfi_def_cfa_offset 16
.Ltmp199:
	.cfi_offset 15, 0
	stw r4, sp[2]                   # 4-byte Folded Spill
.Ltmp200:
	.cfi_offset 4, -8
	#DEBUG_VALUE: _i.i2c_slave_callback_if._chan.start_master_read:dest <- R0
	getr r4, 2
	setd res[r4], r0
	add r0, r4, 4
	out res[r4], r0
	outct res[r4], 2
	ldc r1, 0
	mov r0, r4
	bl __interface_wait_and_yield
	in r0, res[r4]
	chkct res[r4], 1
	freer res[r4]
	ldw r4, sp[2]                   # 4-byte Folded Reload
	retsp 4
	# RETURN_REG_HOLDER
	.cc_bottom _i.i2c_slave_callback_if._chan.start_master_read.function
	.set	_i.i2c_slave_callback_if._chan.start_master_read.nstackwords,((_i.i2c_slave_callback_if._client_call_y.max.nstackwords $M ($D __interface_wait_and_yield.nstackwords ? __interface_wait_and_yield.nstackwords $: _i.i2c_slave_callback_if._client_call_y.max.nstackwords)) + 4)
	.globl	_i.i2c_slave_callback_if._chan.start_master_read.nstackwords
	.weak	_i.i2c_slave_callback_if._chan.start_master_read.nstackwords
	.set	_i.i2c_slave_callback_if._chan.start_master_read.maxcores,($D __interface_wait_and_yield.maxcores ? __interface_wait_and_yield.maxcores $: _i.i2c_slave_callback_if._client_call_y.max.maxcores) $M 1
	.globl	_i.i2c_slave_callback_if._chan.start_master_read.maxcores
	.weak	_i.i2c_slave_callback_if._chan.start_master_read.maxcores
	.set	_i.i2c_slave_callback_if._chan.start_master_read.maxtimers,($D __interface_wait_and_yield.maxtimers ? __interface_wait_and_yield.maxtimers $: _i.i2c_slave_callback_if._client_call_y.max.maxtimers) $M 0
	.globl	_i.i2c_slave_callback_if._chan.start_master_read.maxtimers
	.weak	_i.i2c_slave_callback_if._chan.start_master_read.maxtimers
	.set	_i.i2c_slave_callback_if._chan.start_master_read.maxchanends,(1 + ($D __interface_wait_and_yield.maxchanends ? __interface_wait_and_yield.maxchanends $: _i.i2c_slave_callback_if._client_call_y.max.maxchanends)) $M 1
	.globl	_i.i2c_slave_callback_if._chan.start_master_read.maxchanends
	.weak	_i.i2c_slave_callback_if._chan.start_master_read.maxchanends
.Ltmp201:
	.size	_i.i2c_slave_callback_if._chan.start_master_read, .Ltmp201-_i.i2c_slave_callback_if._chan.start_master_read
	.cfi_endproc

	.weak	_i.i2c_slave_callback_if._chan.ack_write_request
	.align	4
	.type	_i.i2c_slave_callback_if._chan.ack_write_request,@function
	.cc_top _i.i2c_slave_callback_if._chan.ack_write_request.function,_i.i2c_slave_callback_if._chan.ack_write_request
_i.i2c_slave_callback_if._chan.ack_write_request: # @_i.i2c_slave_callback_if._chan.ack_write_request
	.cfi_startproc
	.issue_mode single
# BB#0:                                 # %allocas
	ENTSP_lu6 4
.Ltmp202:
	.cfi_def_cfa_offset 16
.Ltmp203:
	.cfi_offset 15, 0
	stw r4, sp[2]                   # 4-byte Folded Spill
.Ltmp204:
	.cfi_offset 4, -8
	#DEBUG_VALUE: _i.i2c_slave_callback_if._chan.ack_write_request:dest <- R0
	getr r4, 2
	setd res[r4], r0
	add r0, r4, 3
	out res[r4], r0
	outct res[r4], 2
	ldc r1, 0
	mov r0, r4
	bl __interface_wait_and_yield
	in r0, res[r4]
	in r0, res[r4]
	chkct res[r4], 1
	freer res[r4]
	ldw r4, sp[2]                   # 4-byte Folded Reload
	retsp 4
	# RETURN_REG_HOLDER
	.cc_bottom _i.i2c_slave_callback_if._chan.ack_write_request.function
	.set	_i.i2c_slave_callback_if._chan.ack_write_request.nstackwords,((_i.i2c_slave_callback_if._client_call_y.max.nstackwords $M ($D __interface_wait_and_yield.nstackwords ? __interface_wait_and_yield.nstackwords $: _i.i2c_slave_callback_if._client_call_y.max.nstackwords)) + 4)
	.globl	_i.i2c_slave_callback_if._chan.ack_write_request.nstackwords
	.weak	_i.i2c_slave_callback_if._chan.ack_write_request.nstackwords
	.set	_i.i2c_slave_callback_if._chan.ack_write_request.maxcores,($D __interface_wait_and_yield.maxcores ? __interface_wait_and_yield.maxcores $: _i.i2c_slave_callback_if._client_call_y.max.maxcores) $M 1
	.globl	_i.i2c_slave_callback_if._chan.ack_write_request.maxcores
	.weak	_i.i2c_slave_callback_if._chan.ack_write_request.maxcores
	.set	_i.i2c_slave_callback_if._chan.ack_write_request.maxtimers,($D __interface_wait_and_yield.maxtimers ? __interface_wait_and_yield.maxtimers $: _i.i2c_slave_callback_if._client_call_y.max.maxtimers) $M 0
	.globl	_i.i2c_slave_callback_if._chan.ack_write_request.maxtimers
	.weak	_i.i2c_slave_callback_if._chan.ack_write_request.maxtimers
	.set	_i.i2c_slave_callback_if._chan.ack_write_request.maxchanends,(1 + ($D __interface_wait_and_yield.maxchanends ? __interface_wait_and_yield.maxchanends $: _i.i2c_slave_callback_if._client_call_y.max.maxchanends)) $M 1
	.globl	_i.i2c_slave_callback_if._chan.ack_write_request.maxchanends
	.weak	_i.i2c_slave_callback_if._chan.ack_write_request.maxchanends
.Ltmp205:
	.size	_i.i2c_slave_callback_if._chan.ack_write_request, .Ltmp205-_i.i2c_slave_callback_if._chan.ack_write_request
	.cfi_endproc

	.weak	_i.i2c_slave_callback_if._chan.start_write_request
	.align	4
	.type	_i.i2c_slave_callback_if._chan.start_write_request,@function
	.cc_top _i.i2c_slave_callback_if._chan.start_write_request.function,_i.i2c_slave_callback_if._chan.start_write_request
_i.i2c_slave_callback_if._chan.start_write_request: # @_i.i2c_slave_callback_if._chan.start_write_request
	.cfi_startproc
	.issue_mode single
# BB#0:                                 # %allocas
	ENTSP_lu6 4
.Ltmp206:
	.cfi_def_cfa_offset 16
.Ltmp207:
	.cfi_offset 15, 0
	stw r4, sp[2]                   # 4-byte Folded Spill
.Ltmp208:
	.cfi_offset 4, -8
	#DEBUG_VALUE: _i.i2c_slave_callback_if._chan.start_write_request:dest <- R0
	getr r4, 2
	setd res[r4], r0
	add r0, r4, 2
	out res[r4], r0
	outct res[r4], 2
	ldc r1, 0
	mov r0, r4
	bl __interface_wait_and_yield
	in r0, res[r4]
	chkct res[r4], 1
	freer res[r4]
	ldw r4, sp[2]                   # 4-byte Folded Reload
	retsp 4
	# RETURN_REG_HOLDER
	.cc_bottom _i.i2c_slave_callback_if._chan.start_write_request.function
	.set	_i.i2c_slave_callback_if._chan.start_write_request.nstackwords,((_i.i2c_slave_callback_if._client_call_y.max.nstackwords $M ($D __interface_wait_and_yield.nstackwords ? __interface_wait_and_yield.nstackwords $: _i.i2c_slave_callback_if._client_call_y.max.nstackwords)) + 4)
	.globl	_i.i2c_slave_callback_if._chan.start_write_request.nstackwords
	.weak	_i.i2c_slave_callback_if._chan.start_write_request.nstackwords
	.set	_i.i2c_slave_callback_if._chan.start_write_request.maxcores,($D __interface_wait_and_yield.maxcores ? __interface_wait_and_yield.maxcores $: _i.i2c_slave_callback_if._client_call_y.max.maxcores) $M 1
	.globl	_i.i2c_slave_callback_if._chan.start_write_request.maxcores
	.weak	_i.i2c_slave_callback_if._chan.start_write_request.maxcores
	.set	_i.i2c_slave_callback_if._chan.start_write_request.maxtimers,($D __interface_wait_and_yield.maxtimers ? __interface_wait_and_yield.maxtimers $: _i.i2c_slave_callback_if._client_call_y.max.maxtimers) $M 0
	.globl	_i.i2c_slave_callback_if._chan.start_write_request.maxtimers
	.weak	_i.i2c_slave_callback_if._chan.start_write_request.maxtimers
	.set	_i.i2c_slave_callback_if._chan.start_write_request.maxchanends,(1 + ($D __interface_wait_and_yield.maxchanends ? __interface_wait_and_yield.maxchanends $: _i.i2c_slave_callback_if._client_call_y.max.maxchanends)) $M 1
	.globl	_i.i2c_slave_callback_if._chan.start_write_request.maxchanends
	.weak	_i.i2c_slave_callback_if._chan.start_write_request.maxchanends
.Ltmp209:
	.size	_i.i2c_slave_callback_if._chan.start_write_request, .Ltmp209-_i.i2c_slave_callback_if._chan.start_write_request
	.cfi_endproc

	.weak	_i.i2c_slave_callback_if._chan.ack_read_request
	.align	4
	.type	_i.i2c_slave_callback_if._chan.ack_read_request,@function
	.cc_top _i.i2c_slave_callback_if._chan.ack_read_request.function,_i.i2c_slave_callback_if._chan.ack_read_request
_i.i2c_slave_callback_if._chan.ack_read_request: # @_i.i2c_slave_callback_if._chan.ack_read_request
	.cfi_startproc
	.issue_mode single
# BB#0:                                 # %allocas
	ENTSP_lu6 4
.Ltmp210:
	.cfi_def_cfa_offset 16
.Ltmp211:
	.cfi_offset 15, 0
	stw r4, sp[2]                   # 4-byte Folded Spill
.Ltmp212:
	.cfi_offset 4, -8
	#DEBUG_VALUE: _i.i2c_slave_callback_if._chan.ack_read_request:dest <- R0
	getr r4, 2
	setd res[r4], r0
	add r0, r4, 1
	out res[r4], r0
	outct res[r4], 2
	ldc r1, 0
	mov r0, r4
	bl __interface_wait_and_yield
	in r0, res[r4]
	in r0, res[r4]
	chkct res[r4], 1
	freer res[r4]
	ldw r4, sp[2]                   # 4-byte Folded Reload
	retsp 4
	# RETURN_REG_HOLDER
	.cc_bottom _i.i2c_slave_callback_if._chan.ack_read_request.function
	.set	_i.i2c_slave_callback_if._chan.ack_read_request.nstackwords,((_i.i2c_slave_callback_if._client_call_y.max.nstackwords $M ($D __interface_wait_and_yield.nstackwords ? __interface_wait_and_yield.nstackwords $: _i.i2c_slave_callback_if._client_call_y.max.nstackwords)) + 4)
	.globl	_i.i2c_slave_callback_if._chan.ack_read_request.nstackwords
	.weak	_i.i2c_slave_callback_if._chan.ack_read_request.nstackwords
	.set	_i.i2c_slave_callback_if._chan.ack_read_request.maxcores,($D __interface_wait_and_yield.maxcores ? __interface_wait_and_yield.maxcores $: _i.i2c_slave_callback_if._client_call_y.max.maxcores) $M 1
	.globl	_i.i2c_slave_callback_if._chan.ack_read_request.maxcores
	.weak	_i.i2c_slave_callback_if._chan.ack_read_request.maxcores
	.set	_i.i2c_slave_callback_if._chan.ack_read_request.maxtimers,($D __interface_wait_and_yield.maxtimers ? __interface_wait_and_yield.maxtimers $: _i.i2c_slave_callback_if._client_call_y.max.maxtimers) $M 0
	.globl	_i.i2c_slave_callback_if._chan.ack_read_request.maxtimers
	.weak	_i.i2c_slave_callback_if._chan.ack_read_request.maxtimers
	.set	_i.i2c_slave_callback_if._chan.ack_read_request.maxchanends,(1 + ($D __interface_wait_and_yield.maxchanends ? __interface_wait_and_yield.maxchanends $: _i.i2c_slave_callback_if._client_call_y.max.maxchanends)) $M 1
	.globl	_i.i2c_slave_callback_if._chan.ack_read_request.maxchanends
	.weak	_i.i2c_slave_callback_if._chan.ack_read_request.maxchanends
.Ltmp213:
	.size	_i.i2c_slave_callback_if._chan.ack_read_request, .Ltmp213-_i.i2c_slave_callback_if._chan.ack_read_request
	.cfi_endproc

	.weak	_i.i2c_slave_callback_if._chan.start_read_request
	.align	4
	.type	_i.i2c_slave_callback_if._chan.start_read_request,@function
	.cc_top _i.i2c_slave_callback_if._chan.start_read_request.function,_i.i2c_slave_callback_if._chan.start_read_request
_i.i2c_slave_callback_if._chan.start_read_request: # @_i.i2c_slave_callback_if._chan.start_read_request
	.cfi_startproc
	.issue_mode single
# BB#0:                                 # %allocas
	ENTSP_lu6 4
.Ltmp214:
	.cfi_def_cfa_offset 16
.Ltmp215:
	.cfi_offset 15, 0
	stw r4, sp[2]                   # 4-byte Folded Spill
.Ltmp216:
	.cfi_offset 4, -8
	#DEBUG_VALUE: _i.i2c_slave_callback_if._chan.start_read_request:dest <- R0
	getr r4, 2
	setd res[r4], r0
	out res[r4], r4
	outct res[r4], 2
	ldc r1, 0
	mov r0, r4
	bl __interface_wait_and_yield
	in r0, res[r4]
	chkct res[r4], 1
	freer res[r4]
	ldw r4, sp[2]                   # 4-byte Folded Reload
	retsp 4
	# RETURN_REG_HOLDER
	.cc_bottom _i.i2c_slave_callback_if._chan.start_read_request.function
	.set	_i.i2c_slave_callback_if._chan.start_read_request.nstackwords,((_i.i2c_slave_callback_if._client_call_y.max.nstackwords $M ($D __interface_wait_and_yield.nstackwords ? __interface_wait_and_yield.nstackwords $: _i.i2c_slave_callback_if._client_call_y.max.nstackwords)) + 4)
	.globl	_i.i2c_slave_callback_if._chan.start_read_request.nstackwords
	.weak	_i.i2c_slave_callback_if._chan.start_read_request.nstackwords
	.set	_i.i2c_slave_callback_if._chan.start_read_request.maxcores,($D __interface_wait_and_yield.maxcores ? __interface_wait_and_yield.maxcores $: _i.i2c_slave_callback_if._client_call_y.max.maxcores) $M 1
	.globl	_i.i2c_slave_callback_if._chan.start_read_request.maxcores
	.weak	_i.i2c_slave_callback_if._chan.start_read_request.maxcores
	.set	_i.i2c_slave_callback_if._chan.start_read_request.maxtimers,($D __interface_wait_and_yield.maxtimers ? __interface_wait_and_yield.maxtimers $: _i.i2c_slave_callback_if._client_call_y.max.maxtimers) $M 0
	.globl	_i.i2c_slave_callback_if._chan.start_read_request.maxtimers
	.weak	_i.i2c_slave_callback_if._chan.start_read_request.maxtimers
	.set	_i.i2c_slave_callback_if._chan.start_read_request.maxchanends,(1 + ($D __interface_wait_and_yield.maxchanends ? __interface_wait_and_yield.maxchanends $: _i.i2c_slave_callback_if._client_call_y.max.maxchanends)) $M 1
	.globl	_i.i2c_slave_callback_if._chan.start_read_request.maxchanends
	.weak	_i.i2c_slave_callback_if._chan.start_read_request.maxchanends
.Ltmp217:
	.size	_i.i2c_slave_callback_if._chan.start_read_request, .Ltmp217-_i.i2c_slave_callback_if._chan.start_read_request
	.cfi_endproc

	.weak	_i.i2c_slave_callback_if._chan_yield.stop_bit
	.align	4
	.type	_i.i2c_slave_callback_if._chan_yield.stop_bit,@function
	.cc_top _i.i2c_slave_callback_if._chan_yield.stop_bit.function,_i.i2c_slave_callback_if._chan_yield.stop_bit
_i.i2c_slave_callback_if._chan_yield.stop_bit: # @_i.i2c_slave_callback_if._chan_yield.stop_bit
	.cfi_startproc
	.issue_mode single
# BB#0:                                 # %allocas
	ENTSP_lu6 4
.Ltmp218:
	.cfi_def_cfa_offset 16
.Ltmp219:
	.cfi_offset 15, 0
	std r5, r4, sp[1]               # 4-byte Folded Spill
.Ltmp220:
	.cfi_offset 4, -8
.Ltmp221:
	.cfi_offset 5, -4
	#DEBUG_VALUE: _i.i2c_slave_callback_if._chan_yield.stop_bit:s <- R0
	ldw r1, r0[0]
	getr r4, 2
	setd res[r4], r1
	add r1, r4, 8
	out res[r4], r1
	outct res[r4], 2
	ldw r5, r0[1]
	mov r0, r4
	mov r1, r5
	bl __interface_wait_and_yield
	ldc r1, 0
	mov r0, r4
	mov r2, r5
	bl __interface_client_call_y
	chkct res[r4], 1
	freer res[r4]
	ldd r5, r4, sp[1]               # 4-byte Folded Reload
	retsp 4
	# RETURN_REG_HOLDER
	.cc_bottom _i.i2c_slave_callback_if._chan_yield.stop_bit.function
	.set	_i.i2c_slave_callback_if._chan_yield.stop_bit.nstackwords,((($D __interface_wait_and_yield.nstackwords ? __interface_wait_and_yield.nstackwords $: _i.i2c_slave_callback_if._client_call_y.max.nstackwords) $M _i.i2c_slave_callback_if._client_call_y.max.nstackwords $M ($D __interface_client_call_y.nstackwords ? __interface_client_call_y.nstackwords $: _i.i2c_slave_callback_if._client_call_y.max.nstackwords)) + 4)
	.globl	_i.i2c_slave_callback_if._chan_yield.stop_bit.nstackwords
	.weak	_i.i2c_slave_callback_if._chan_yield.stop_bit.nstackwords
	.set	_i.i2c_slave_callback_if._chan_yield.stop_bit.maxcores,($D __interface_client_call_y.maxcores ? __interface_client_call_y.maxcores $: _i.i2c_slave_callback_if._client_call_y.max.maxcores) $M ($D __interface_wait_and_yield.maxcores ? __interface_wait_and_yield.maxcores $: _i.i2c_slave_callback_if._client_call_y.max.maxcores) $M 1
	.globl	_i.i2c_slave_callback_if._chan_yield.stop_bit.maxcores
	.weak	_i.i2c_slave_callback_if._chan_yield.stop_bit.maxcores
	.set	_i.i2c_slave_callback_if._chan_yield.stop_bit.maxtimers,($D __interface_client_call_y.maxtimers ? __interface_client_call_y.maxtimers $: _i.i2c_slave_callback_if._client_call_y.max.maxtimers) $M ($D __interface_wait_and_yield.maxtimers ? __interface_wait_and_yield.maxtimers $: _i.i2c_slave_callback_if._client_call_y.max.maxtimers) $M 0
	.globl	_i.i2c_slave_callback_if._chan_yield.stop_bit.maxtimers
	.weak	_i.i2c_slave_callback_if._chan_yield.stop_bit.maxtimers
	.set	_i.i2c_slave_callback_if._chan_yield.stop_bit.maxchanends,(1 + ($D __interface_client_call_y.maxchanends ? __interface_client_call_y.maxchanends $: _i.i2c_slave_callback_if._client_call_y.max.maxchanends)) $M (1 + ($D __interface_wait_and_yield.maxchanends ? __interface_wait_and_yield.maxchanends $: _i.i2c_slave_callback_if._client_call_y.max.maxchanends)) $M 1
	.globl	_i.i2c_slave_callback_if._chan_yield.stop_bit.maxchanends
	.weak	_i.i2c_slave_callback_if._chan_yield.stop_bit.maxchanends
.Ltmp222:
	.size	_i.i2c_slave_callback_if._chan_yield.stop_bit, .Ltmp222-_i.i2c_slave_callback_if._chan_yield.stop_bit
	.cfi_endproc

	.weak	_i.i2c_slave_callback_if._chan_yield.master_sent_data
	.align	4
	.type	_i.i2c_slave_callback_if._chan_yield.master_sent_data,@function
	.cc_top _i.i2c_slave_callback_if._chan_yield.master_sent_data.function,_i.i2c_slave_callback_if._chan_yield.master_sent_data
_i.i2c_slave_callback_if._chan_yield.master_sent_data: # @_i.i2c_slave_callback_if._chan_yield.master_sent_data
	.cfi_startproc
	.issue_mode single
# BB#0:                                 # %allocas
	ENTSP_lu6 6
.Ltmp223:
	.cfi_def_cfa_offset 24
.Ltmp224:
	.cfi_offset 15, 0
	std r5, r4, sp[1]               # 4-byte Folded Spill
.Ltmp225:
	.cfi_offset 4, -16
.Ltmp226:
	.cfi_offset 5, -12
	stw r6, sp[4]                   # 4-byte Folded Spill
.Ltmp227:
	.cfi_offset 6, -8
	#DEBUG_VALUE: _i.i2c_slave_callback_if._chan_yield.master_sent_data:s <- R0
	#DEBUG_VALUE: _i.i2c_slave_callback_if._chan_yield.master_sent_data:param1 <- R1
	mov r4, r1
	#DEBUG_VALUE: _i.i2c_slave_callback_if._chan_yield.master_sent_data:param1 <- R4
	ldw r1, r0[0]
	getr r5, 2
	setd res[r5], r1
	add r1, r5, 7
	out res[r5], r1
	outct res[r5], 2
	ldw r6, r0[1]
	mov r0, r5
	mov r1, r6
	bl __interface_wait_and_yield
	chkct res[r5], 1
	outt res[r5], r4
	outct res[r5], 2
	ldc r1, 0
	mov r0, r5
	mov r2, r6
	bl __interface_client_call_y
	in r0, res[r5]
	chkct res[r5], 1
	freer res[r5]
	ldw r6, sp[4]                   # 4-byte Folded Reload
	ldd r5, r4, sp[1]               # 4-byte Folded Reload
	retsp 6
	# RETURN_REG_HOLDER
	.cc_bottom _i.i2c_slave_callback_if._chan_yield.master_sent_data.function
	.set	_i.i2c_slave_callback_if._chan_yield.master_sent_data.nstackwords,((($D __interface_wait_and_yield.nstackwords ? __interface_wait_and_yield.nstackwords $: _i.i2c_slave_callback_if._client_call_y.max.nstackwords) $M _i.i2c_slave_callback_if._client_call_y.max.nstackwords $M ($D __interface_client_call_y.nstackwords ? __interface_client_call_y.nstackwords $: _i.i2c_slave_callback_if._client_call_y.max.nstackwords)) + 6)
	.globl	_i.i2c_slave_callback_if._chan_yield.master_sent_data.nstackwords
	.weak	_i.i2c_slave_callback_if._chan_yield.master_sent_data.nstackwords
	.set	_i.i2c_slave_callback_if._chan_yield.master_sent_data.maxcores,($D __interface_client_call_y.maxcores ? __interface_client_call_y.maxcores $: _i.i2c_slave_callback_if._client_call_y.max.maxcores) $M ($D __interface_wait_and_yield.maxcores ? __interface_wait_and_yield.maxcores $: _i.i2c_slave_callback_if._client_call_y.max.maxcores) $M 1
	.globl	_i.i2c_slave_callback_if._chan_yield.master_sent_data.maxcores
	.weak	_i.i2c_slave_callback_if._chan_yield.master_sent_data.maxcores
	.set	_i.i2c_slave_callback_if._chan_yield.master_sent_data.maxtimers,($D __interface_client_call_y.maxtimers ? __interface_client_call_y.maxtimers $: _i.i2c_slave_callback_if._client_call_y.max.maxtimers) $M ($D __interface_wait_and_yield.maxtimers ? __interface_wait_and_yield.maxtimers $: _i.i2c_slave_callback_if._client_call_y.max.maxtimers) $M 0
	.globl	_i.i2c_slave_callback_if._chan_yield.master_sent_data.maxtimers
	.weak	_i.i2c_slave_callback_if._chan_yield.master_sent_data.maxtimers
	.set	_i.i2c_slave_callback_if._chan_yield.master_sent_data.maxchanends,(1 + ($D __interface_client_call_y.maxchanends ? __interface_client_call_y.maxchanends $: _i.i2c_slave_callback_if._client_call_y.max.maxchanends)) $M (1 + ($D __interface_wait_and_yield.maxchanends ? __interface_wait_and_yield.maxchanends $: _i.i2c_slave_callback_if._client_call_y.max.maxchanends)) $M 1
	.globl	_i.i2c_slave_callback_if._chan_yield.master_sent_data.maxchanends
	.weak	_i.i2c_slave_callback_if._chan_yield.master_sent_data.maxchanends
.Ltmp228:
	.size	_i.i2c_slave_callback_if._chan_yield.master_sent_data, .Ltmp228-_i.i2c_slave_callback_if._chan_yield.master_sent_data
	.cfi_endproc

	.weak	_i.i2c_slave_callback_if._chan_yield.start_master_write
	.align	4
	.type	_i.i2c_slave_callback_if._chan_yield.start_master_write,@function
	.cc_top _i.i2c_slave_callback_if._chan_yield.start_master_write.function,_i.i2c_slave_callback_if._chan_yield.start_master_write
_i.i2c_slave_callback_if._chan_yield.start_master_write: # @_i.i2c_slave_callback_if._chan_yield.start_master_write
	.cfi_startproc
	.issue_mode single
# BB#0:                                 # %allocas
	ENTSP_lu6 4
.Ltmp229:
	.cfi_def_cfa_offset 16
.Ltmp230:
	.cfi_offset 15, 0
	std r5, r4, sp[1]               # 4-byte Folded Spill
.Ltmp231:
	.cfi_offset 4, -8
.Ltmp232:
	.cfi_offset 5, -4
	#DEBUG_VALUE: _i.i2c_slave_callback_if._chan_yield.start_master_write:s <- R0
	ldw r1, r0[0]
	getr r4, 2
	setd res[r4], r1
	add r1, r4, 6
	out res[r4], r1
	outct res[r4], 2
	ldw r5, r0[1]
	mov r0, r4
	mov r1, r5
	bl __interface_wait_and_yield
	ldc r1, 0
	mov r0, r4
	mov r2, r5
	bl __interface_client_call_y
	chkct res[r4], 1
	freer res[r4]
	ldd r5, r4, sp[1]               # 4-byte Folded Reload
	retsp 4
	# RETURN_REG_HOLDER
	.cc_bottom _i.i2c_slave_callback_if._chan_yield.start_master_write.function
	.set	_i.i2c_slave_callback_if._chan_yield.start_master_write.nstackwords,((($D __interface_wait_and_yield.nstackwords ? __interface_wait_and_yield.nstackwords $: _i.i2c_slave_callback_if._client_call_y.max.nstackwords) $M _i.i2c_slave_callback_if._client_call_y.max.nstackwords $M ($D __interface_client_call_y.nstackwords ? __interface_client_call_y.nstackwords $: _i.i2c_slave_callback_if._client_call_y.max.nstackwords)) + 4)
	.globl	_i.i2c_slave_callback_if._chan_yield.start_master_write.nstackwords
	.weak	_i.i2c_slave_callback_if._chan_yield.start_master_write.nstackwords
	.set	_i.i2c_slave_callback_if._chan_yield.start_master_write.maxcores,($D __interface_client_call_y.maxcores ? __interface_client_call_y.maxcores $: _i.i2c_slave_callback_if._client_call_y.max.maxcores) $M ($D __interface_wait_and_yield.maxcores ? __interface_wait_and_yield.maxcores $: _i.i2c_slave_callback_if._client_call_y.max.maxcores) $M 1
	.globl	_i.i2c_slave_callback_if._chan_yield.start_master_write.maxcores
	.weak	_i.i2c_slave_callback_if._chan_yield.start_master_write.maxcores
	.set	_i.i2c_slave_callback_if._chan_yield.start_master_write.maxtimers,($D __interface_client_call_y.maxtimers ? __interface_client_call_y.maxtimers $: _i.i2c_slave_callback_if._client_call_y.max.maxtimers) $M ($D __interface_wait_and_yield.maxtimers ? __interface_wait_and_yield.maxtimers $: _i.i2c_slave_callback_if._client_call_y.max.maxtimers) $M 0
	.globl	_i.i2c_slave_callback_if._chan_yield.start_master_write.maxtimers
	.weak	_i.i2c_slave_callback_if._chan_yield.start_master_write.maxtimers
	.set	_i.i2c_slave_callback_if._chan_yield.start_master_write.maxchanends,(1 + ($D __interface_client_call_y.maxchanends ? __interface_client_call_y.maxchanends $: _i.i2c_slave_callback_if._client_call_y.max.maxchanends)) $M (1 + ($D __interface_wait_and_yield.maxchanends ? __interface_wait_and_yield.maxchanends $: _i.i2c_slave_callback_if._client_call_y.max.maxchanends)) $M 1
	.globl	_i.i2c_slave_callback_if._chan_yield.start_master_write.maxchanends
	.weak	_i.i2c_slave_callback_if._chan_yield.start_master_write.maxchanends
.Ltmp233:
	.size	_i.i2c_slave_callback_if._chan_yield.start_master_write, .Ltmp233-_i.i2c_slave_callback_if._chan_yield.start_master_write
	.cfi_endproc

	.weak	_i.i2c_slave_callback_if._chan_yield.master_requires_data
	.align	4
	.type	_i.i2c_slave_callback_if._chan_yield.master_requires_data,@function
	.cc_top _i.i2c_slave_callback_if._chan_yield.master_requires_data.function,_i.i2c_slave_callback_if._chan_yield.master_requires_data
_i.i2c_slave_callback_if._chan_yield.master_requires_data: # @_i.i2c_slave_callback_if._chan_yield.master_requires_data
	.cfi_startproc
	.issue_mode single
# BB#0:                                 # %allocas
	ENTSP_lu6 4
.Ltmp234:
	.cfi_def_cfa_offset 16
.Ltmp235:
	.cfi_offset 15, 0
	std r5, r4, sp[1]               # 4-byte Folded Spill
.Ltmp236:
	.cfi_offset 4, -8
.Ltmp237:
	.cfi_offset 5, -4
	#DEBUG_VALUE: _i.i2c_slave_callback_if._chan_yield.master_requires_data:s <- R0
	ldw r1, r0[0]
	getr r4, 2
	setd res[r4], r1
	add r1, r4, 5
	out res[r4], r1
	outct res[r4], 2
	ldw r5, r0[1]
	mov r0, r4
	mov r1, r5
	bl __interface_wait_and_yield
	ldc r1, 0
	mov r0, r4
	mov r2, r5
	bl __interface_client_call_y
	int r0, res[r4]
	chkct res[r4], 1
	freer res[r4]
	ldd r5, r4, sp[1]               # 4-byte Folded Reload
	retsp 4
	# RETURN_REG_HOLDER
	.cc_bottom _i.i2c_slave_callback_if._chan_yield.master_requires_data.function
	.set	_i.i2c_slave_callback_if._chan_yield.master_requires_data.nstackwords,((($D __interface_wait_and_yield.nstackwords ? __interface_wait_and_yield.nstackwords $: _i.i2c_slave_callback_if._client_call_y.max.nstackwords) $M _i.i2c_slave_callback_if._client_call_y.max.nstackwords $M ($D __interface_client_call_y.nstackwords ? __interface_client_call_y.nstackwords $: _i.i2c_slave_callback_if._client_call_y.max.nstackwords)) + 4)
	.globl	_i.i2c_slave_callback_if._chan_yield.master_requires_data.nstackwords
	.weak	_i.i2c_slave_callback_if._chan_yield.master_requires_data.nstackwords
	.set	_i.i2c_slave_callback_if._chan_yield.master_requires_data.maxcores,($D __interface_client_call_y.maxcores ? __interface_client_call_y.maxcores $: _i.i2c_slave_callback_if._client_call_y.max.maxcores) $M ($D __interface_wait_and_yield.maxcores ? __interface_wait_and_yield.maxcores $: _i.i2c_slave_callback_if._client_call_y.max.maxcores) $M 1
	.globl	_i.i2c_slave_callback_if._chan_yield.master_requires_data.maxcores
	.weak	_i.i2c_slave_callback_if._chan_yield.master_requires_data.maxcores
	.set	_i.i2c_slave_callback_if._chan_yield.master_requires_data.maxtimers,($D __interface_client_call_y.maxtimers ? __interface_client_call_y.maxtimers $: _i.i2c_slave_callback_if._client_call_y.max.maxtimers) $M ($D __interface_wait_and_yield.maxtimers ? __interface_wait_and_yield.maxtimers $: _i.i2c_slave_callback_if._client_call_y.max.maxtimers) $M 0
	.globl	_i.i2c_slave_callback_if._chan_yield.master_requires_data.maxtimers
	.weak	_i.i2c_slave_callback_if._chan_yield.master_requires_data.maxtimers
	.set	_i.i2c_slave_callback_if._chan_yield.master_requires_data.maxchanends,(1 + ($D __interface_client_call_y.maxchanends ? __interface_client_call_y.maxchanends $: _i.i2c_slave_callback_if._client_call_y.max.maxchanends)) $M (1 + ($D __interface_wait_and_yield.maxchanends ? __interface_wait_and_yield.maxchanends $: _i.i2c_slave_callback_if._client_call_y.max.maxchanends)) $M 1
	.globl	_i.i2c_slave_callback_if._chan_yield.master_requires_data.maxchanends
	.weak	_i.i2c_slave_callback_if._chan_yield.master_requires_data.maxchanends
.Ltmp238:
	.size	_i.i2c_slave_callback_if._chan_yield.master_requires_data, .Ltmp238-_i.i2c_slave_callback_if._chan_yield.master_requires_data
	.cfi_endproc

	.weak	_i.i2c_slave_callback_if._chan_yield.start_master_read
	.align	4
	.type	_i.i2c_slave_callback_if._chan_yield.start_master_read,@function
	.cc_top _i.i2c_slave_callback_if._chan_yield.start_master_read.function,_i.i2c_slave_callback_if._chan_yield.start_master_read
_i.i2c_slave_callback_if._chan_yield.start_master_read: # @_i.i2c_slave_callback_if._chan_yield.start_master_read
	.cfi_startproc
	.issue_mode single
# BB#0:                                 # %allocas
	ENTSP_lu6 4
.Ltmp239:
	.cfi_def_cfa_offset 16
.Ltmp240:
	.cfi_offset 15, 0
	std r5, r4, sp[1]               # 4-byte Folded Spill
.Ltmp241:
	.cfi_offset 4, -8
.Ltmp242:
	.cfi_offset 5, -4
	#DEBUG_VALUE: _i.i2c_slave_callback_if._chan_yield.start_master_read:s <- R0
	ldw r1, r0[0]
	getr r4, 2
	setd res[r4], r1
	add r1, r4, 4
	out res[r4], r1
	outct res[r4], 2
	ldw r5, r0[1]
	mov r0, r4
	mov r1, r5
	bl __interface_wait_and_yield
	ldc r1, 0
	mov r0, r4
	mov r2, r5
	bl __interface_client_call_y
	chkct res[r4], 1
	freer res[r4]
	ldd r5, r4, sp[1]               # 4-byte Folded Reload
	retsp 4
	# RETURN_REG_HOLDER
	.cc_bottom _i.i2c_slave_callback_if._chan_yield.start_master_read.function
	.set	_i.i2c_slave_callback_if._chan_yield.start_master_read.nstackwords,((($D __interface_wait_and_yield.nstackwords ? __interface_wait_and_yield.nstackwords $: _i.i2c_slave_callback_if._client_call_y.max.nstackwords) $M _i.i2c_slave_callback_if._client_call_y.max.nstackwords $M ($D __interface_client_call_y.nstackwords ? __interface_client_call_y.nstackwords $: _i.i2c_slave_callback_if._client_call_y.max.nstackwords)) + 4)
	.globl	_i.i2c_slave_callback_if._chan_yield.start_master_read.nstackwords
	.weak	_i.i2c_slave_callback_if._chan_yield.start_master_read.nstackwords
	.set	_i.i2c_slave_callback_if._chan_yield.start_master_read.maxcores,($D __interface_client_call_y.maxcores ? __interface_client_call_y.maxcores $: _i.i2c_slave_callback_if._client_call_y.max.maxcores) $M ($D __interface_wait_and_yield.maxcores ? __interface_wait_and_yield.maxcores $: _i.i2c_slave_callback_if._client_call_y.max.maxcores) $M 1
	.globl	_i.i2c_slave_callback_if._chan_yield.start_master_read.maxcores
	.weak	_i.i2c_slave_callback_if._chan_yield.start_master_read.maxcores
	.set	_i.i2c_slave_callback_if._chan_yield.start_master_read.maxtimers,($D __interface_client_call_y.maxtimers ? __interface_client_call_y.maxtimers $: _i.i2c_slave_callback_if._client_call_y.max.maxtimers) $M ($D __interface_wait_and_yield.maxtimers ? __interface_wait_and_yield.maxtimers $: _i.i2c_slave_callback_if._client_call_y.max.maxtimers) $M 0
	.globl	_i.i2c_slave_callback_if._chan_yield.start_master_read.maxtimers
	.weak	_i.i2c_slave_callback_if._chan_yield.start_master_read.maxtimers
	.set	_i.i2c_slave_callback_if._chan_yield.start_master_read.maxchanends,(1 + ($D __interface_client_call_y.maxchanends ? __interface_client_call_y.maxchanends $: _i.i2c_slave_callback_if._client_call_y.max.maxchanends)) $M (1 + ($D __interface_wait_and_yield.maxchanends ? __interface_wait_and_yield.maxchanends $: _i.i2c_slave_callback_if._client_call_y.max.maxchanends)) $M 1
	.globl	_i.i2c_slave_callback_if._chan_yield.start_master_read.maxchanends
	.weak	_i.i2c_slave_callback_if._chan_yield.start_master_read.maxchanends
.Ltmp243:
	.size	_i.i2c_slave_callback_if._chan_yield.start_master_read, .Ltmp243-_i.i2c_slave_callback_if._chan_yield.start_master_read
	.cfi_endproc

	.weak	_i.i2c_slave_callback_if._chan_yield.ack_write_request
	.align	4
	.type	_i.i2c_slave_callback_if._chan_yield.ack_write_request,@function
	.cc_top _i.i2c_slave_callback_if._chan_yield.ack_write_request.function,_i.i2c_slave_callback_if._chan_yield.ack_write_request
_i.i2c_slave_callback_if._chan_yield.ack_write_request: # @_i.i2c_slave_callback_if._chan_yield.ack_write_request
	.cfi_startproc
	.issue_mode single
# BB#0:                                 # %allocas
	ENTSP_lu6 4
.Ltmp244:
	.cfi_def_cfa_offset 16
.Ltmp245:
	.cfi_offset 15, 0
	std r5, r4, sp[1]               # 4-byte Folded Spill
.Ltmp246:
	.cfi_offset 4, -8
.Ltmp247:
	.cfi_offset 5, -4
	#DEBUG_VALUE: _i.i2c_slave_callback_if._chan_yield.ack_write_request:s <- R0
	ldw r1, r0[0]
	getr r4, 2
	setd res[r4], r1
	add r1, r4, 3
	out res[r4], r1
	outct res[r4], 2
	ldw r5, r0[1]
	mov r0, r4
	mov r1, r5
	bl __interface_wait_and_yield
	ldc r1, 0
	mov r0, r4
	mov r2, r5
	bl __interface_client_call_y
	in r0, res[r4]
	chkct res[r4], 1
	freer res[r4]
	ldd r5, r4, sp[1]               # 4-byte Folded Reload
	retsp 4
	# RETURN_REG_HOLDER
	.cc_bottom _i.i2c_slave_callback_if._chan_yield.ack_write_request.function
	.set	_i.i2c_slave_callback_if._chan_yield.ack_write_request.nstackwords,((($D __interface_wait_and_yield.nstackwords ? __interface_wait_and_yield.nstackwords $: _i.i2c_slave_callback_if._client_call_y.max.nstackwords) $M _i.i2c_slave_callback_if._client_call_y.max.nstackwords $M ($D __interface_client_call_y.nstackwords ? __interface_client_call_y.nstackwords $: _i.i2c_slave_callback_if._client_call_y.max.nstackwords)) + 4)
	.globl	_i.i2c_slave_callback_if._chan_yield.ack_write_request.nstackwords
	.weak	_i.i2c_slave_callback_if._chan_yield.ack_write_request.nstackwords
	.set	_i.i2c_slave_callback_if._chan_yield.ack_write_request.maxcores,($D __interface_client_call_y.maxcores ? __interface_client_call_y.maxcores $: _i.i2c_slave_callback_if._client_call_y.max.maxcores) $M ($D __interface_wait_and_yield.maxcores ? __interface_wait_and_yield.maxcores $: _i.i2c_slave_callback_if._client_call_y.max.maxcores) $M 1
	.globl	_i.i2c_slave_callback_if._chan_yield.ack_write_request.maxcores
	.weak	_i.i2c_slave_callback_if._chan_yield.ack_write_request.maxcores
	.set	_i.i2c_slave_callback_if._chan_yield.ack_write_request.maxtimers,($D __interface_client_call_y.maxtimers ? __interface_client_call_y.maxtimers $: _i.i2c_slave_callback_if._client_call_y.max.maxtimers) $M ($D __interface_wait_and_yield.maxtimers ? __interface_wait_and_yield.maxtimers $: _i.i2c_slave_callback_if._client_call_y.max.maxtimers) $M 0
	.globl	_i.i2c_slave_callback_if._chan_yield.ack_write_request.maxtimers
	.weak	_i.i2c_slave_callback_if._chan_yield.ack_write_request.maxtimers
	.set	_i.i2c_slave_callback_if._chan_yield.ack_write_request.maxchanends,(1 + ($D __interface_client_call_y.maxchanends ? __interface_client_call_y.maxchanends $: _i.i2c_slave_callback_if._client_call_y.max.maxchanends)) $M (1 + ($D __interface_wait_and_yield.maxchanends ? __interface_wait_and_yield.maxchanends $: _i.i2c_slave_callback_if._client_call_y.max.maxchanends)) $M 1
	.globl	_i.i2c_slave_callback_if._chan_yield.ack_write_request.maxchanends
	.weak	_i.i2c_slave_callback_if._chan_yield.ack_write_request.maxchanends
.Ltmp248:
	.size	_i.i2c_slave_callback_if._chan_yield.ack_write_request, .Ltmp248-_i.i2c_slave_callback_if._chan_yield.ack_write_request
	.cfi_endproc

	.weak	_i.i2c_slave_callback_if._chan_yield.start_write_request
	.align	4
	.type	_i.i2c_slave_callback_if._chan_yield.start_write_request,@function
	.cc_top _i.i2c_slave_callback_if._chan_yield.start_write_request.function,_i.i2c_slave_callback_if._chan_yield.start_write_request
_i.i2c_slave_callback_if._chan_yield.start_write_request: # @_i.i2c_slave_callback_if._chan_yield.start_write_request
	.cfi_startproc
	.issue_mode single
# BB#0:                                 # %allocas
	ENTSP_lu6 4
.Ltmp249:
	.cfi_def_cfa_offset 16
.Ltmp250:
	.cfi_offset 15, 0
	std r5, r4, sp[1]               # 4-byte Folded Spill
.Ltmp251:
	.cfi_offset 4, -8
.Ltmp252:
	.cfi_offset 5, -4
	#DEBUG_VALUE: _i.i2c_slave_callback_if._chan_yield.start_write_request:s <- R0
	ldw r1, r0[0]
	getr r4, 2
	setd res[r4], r1
	add r1, r4, 2
	out res[r4], r1
	outct res[r4], 2
	ldw r5, r0[1]
	mov r0, r4
	mov r1, r5
	bl __interface_wait_and_yield
	ldc r1, 0
	mov r0, r4
	mov r2, r5
	bl __interface_client_call_y
	chkct res[r4], 1
	freer res[r4]
	ldd r5, r4, sp[1]               # 4-byte Folded Reload
	retsp 4
	# RETURN_REG_HOLDER
	.cc_bottom _i.i2c_slave_callback_if._chan_yield.start_write_request.function
	.set	_i.i2c_slave_callback_if._chan_yield.start_write_request.nstackwords,((($D __interface_wait_and_yield.nstackwords ? __interface_wait_and_yield.nstackwords $: _i.i2c_slave_callback_if._client_call_y.max.nstackwords) $M _i.i2c_slave_callback_if._client_call_y.max.nstackwords $M ($D __interface_client_call_y.nstackwords ? __interface_client_call_y.nstackwords $: _i.i2c_slave_callback_if._client_call_y.max.nstackwords)) + 4)
	.globl	_i.i2c_slave_callback_if._chan_yield.start_write_request.nstackwords
	.weak	_i.i2c_slave_callback_if._chan_yield.start_write_request.nstackwords
	.set	_i.i2c_slave_callback_if._chan_yield.start_write_request.maxcores,($D __interface_client_call_y.maxcores ? __interface_client_call_y.maxcores $: _i.i2c_slave_callback_if._client_call_y.max.maxcores) $M ($D __interface_wait_and_yield.maxcores ? __interface_wait_and_yield.maxcores $: _i.i2c_slave_callback_if._client_call_y.max.maxcores) $M 1
	.globl	_i.i2c_slave_callback_if._chan_yield.start_write_request.maxcores
	.weak	_i.i2c_slave_callback_if._chan_yield.start_write_request.maxcores
	.set	_i.i2c_slave_callback_if._chan_yield.start_write_request.maxtimers,($D __interface_client_call_y.maxtimers ? __interface_client_call_y.maxtimers $: _i.i2c_slave_callback_if._client_call_y.max.maxtimers) $M ($D __interface_wait_and_yield.maxtimers ? __interface_wait_and_yield.maxtimers $: _i.i2c_slave_callback_if._client_call_y.max.maxtimers) $M 0
	.globl	_i.i2c_slave_callback_if._chan_yield.start_write_request.maxtimers
	.weak	_i.i2c_slave_callback_if._chan_yield.start_write_request.maxtimers
	.set	_i.i2c_slave_callback_if._chan_yield.start_write_request.maxchanends,(1 + ($D __interface_client_call_y.maxchanends ? __interface_client_call_y.maxchanends $: _i.i2c_slave_callback_if._client_call_y.max.maxchanends)) $M (1 + ($D __interface_wait_and_yield.maxchanends ? __interface_wait_and_yield.maxchanends $: _i.i2c_slave_callback_if._client_call_y.max.maxchanends)) $M 1
	.globl	_i.i2c_slave_callback_if._chan_yield.start_write_request.maxchanends
	.weak	_i.i2c_slave_callback_if._chan_yield.start_write_request.maxchanends
.Ltmp253:
	.size	_i.i2c_slave_callback_if._chan_yield.start_write_request, .Ltmp253-_i.i2c_slave_callback_if._chan_yield.start_write_request
	.cfi_endproc

	.weak	_i.i2c_slave_callback_if._chan_yield.ack_read_request
	.align	4
	.type	_i.i2c_slave_callback_if._chan_yield.ack_read_request,@function
	.cc_top _i.i2c_slave_callback_if._chan_yield.ack_read_request.function,_i.i2c_slave_callback_if._chan_yield.ack_read_request
_i.i2c_slave_callback_if._chan_yield.ack_read_request: # @_i.i2c_slave_callback_if._chan_yield.ack_read_request
	.cfi_startproc
	.issue_mode single
# BB#0:                                 # %allocas
	ENTSP_lu6 4
.Ltmp254:
	.cfi_def_cfa_offset 16
.Ltmp255:
	.cfi_offset 15, 0
	std r5, r4, sp[1]               # 4-byte Folded Spill
.Ltmp256:
	.cfi_offset 4, -8
.Ltmp257:
	.cfi_offset 5, -4
	#DEBUG_VALUE: _i.i2c_slave_callback_if._chan_yield.ack_read_request:s <- R0
	ldw r1, r0[0]
	getr r4, 2
	setd res[r4], r1
	add r1, r4, 1
	out res[r4], r1
	outct res[r4], 2
	ldw r5, r0[1]
	mov r0, r4
	mov r1, r5
	bl __interface_wait_and_yield
	ldc r1, 0
	mov r0, r4
	mov r2, r5
	bl __interface_client_call_y
	in r0, res[r4]
	chkct res[r4], 1
	freer res[r4]
	ldd r5, r4, sp[1]               # 4-byte Folded Reload
	retsp 4
	# RETURN_REG_HOLDER
	.cc_bottom _i.i2c_slave_callback_if._chan_yield.ack_read_request.function
	.set	_i.i2c_slave_callback_if._chan_yield.ack_read_request.nstackwords,((($D __interface_wait_and_yield.nstackwords ? __interface_wait_and_yield.nstackwords $: _i.i2c_slave_callback_if._client_call_y.max.nstackwords) $M _i.i2c_slave_callback_if._client_call_y.max.nstackwords $M ($D __interface_client_call_y.nstackwords ? __interface_client_call_y.nstackwords $: _i.i2c_slave_callback_if._client_call_y.max.nstackwords)) + 4)
	.globl	_i.i2c_slave_callback_if._chan_yield.ack_read_request.nstackwords
	.weak	_i.i2c_slave_callback_if._chan_yield.ack_read_request.nstackwords
	.set	_i.i2c_slave_callback_if._chan_yield.ack_read_request.maxcores,($D __interface_client_call_y.maxcores ? __interface_client_call_y.maxcores $: _i.i2c_slave_callback_if._client_call_y.max.maxcores) $M ($D __interface_wait_and_yield.maxcores ? __interface_wait_and_yield.maxcores $: _i.i2c_slave_callback_if._client_call_y.max.maxcores) $M 1
	.globl	_i.i2c_slave_callback_if._chan_yield.ack_read_request.maxcores
	.weak	_i.i2c_slave_callback_if._chan_yield.ack_read_request.maxcores
	.set	_i.i2c_slave_callback_if._chan_yield.ack_read_request.maxtimers,($D __interface_client_call_y.maxtimers ? __interface_client_call_y.maxtimers $: _i.i2c_slave_callback_if._client_call_y.max.maxtimers) $M ($D __interface_wait_and_yield.maxtimers ? __interface_wait_and_yield.maxtimers $: _i.i2c_slave_callback_if._client_call_y.max.maxtimers) $M 0
	.globl	_i.i2c_slave_callback_if._chan_yield.ack_read_request.maxtimers
	.weak	_i.i2c_slave_callback_if._chan_yield.ack_read_request.maxtimers
	.set	_i.i2c_slave_callback_if._chan_yield.ack_read_request.maxchanends,(1 + ($D __interface_client_call_y.maxchanends ? __interface_client_call_y.maxchanends $: _i.i2c_slave_callback_if._client_call_y.max.maxchanends)) $M (1 + ($D __interface_wait_and_yield.maxchanends ? __interface_wait_and_yield.maxchanends $: _i.i2c_slave_callback_if._client_call_y.max.maxchanends)) $M 1
	.globl	_i.i2c_slave_callback_if._chan_yield.ack_read_request.maxchanends
	.weak	_i.i2c_slave_callback_if._chan_yield.ack_read_request.maxchanends
.Ltmp258:
	.size	_i.i2c_slave_callback_if._chan_yield.ack_read_request, .Ltmp258-_i.i2c_slave_callback_if._chan_yield.ack_read_request
	.cfi_endproc

	.weak	_i.i2c_slave_callback_if._chan_yield.start_read_request
	.align	4
	.type	_i.i2c_slave_callback_if._chan_yield.start_read_request,@function
	.cc_top _i.i2c_slave_callback_if._chan_yield.start_read_request.function,_i.i2c_slave_callback_if._chan_yield.start_read_request
_i.i2c_slave_callback_if._chan_yield.start_read_request: # @_i.i2c_slave_callback_if._chan_yield.start_read_request
	.cfi_startproc
	.issue_mode single
# BB#0:                                 # %allocas
	ENTSP_lu6 4
.Ltmp259:
	.cfi_def_cfa_offset 16
.Ltmp260:
	.cfi_offset 15, 0
	std r5, r4, sp[1]               # 4-byte Folded Spill
.Ltmp261:
	.cfi_offset 4, -8
.Ltmp262:
	.cfi_offset 5, -4
	#DEBUG_VALUE: _i.i2c_slave_callback_if._chan_yield.start_read_request:s <- R0
	ldw r1, r0[0]
	getr r4, 2
	setd res[r4], r1
	out res[r4], r4
	outct res[r4], 2
	ldw r5, r0[1]
	mov r0, r4
	mov r1, r5
	bl __interface_wait_and_yield
	ldc r1, 0
	mov r0, r4
	mov r2, r5
	bl __interface_client_call_y
	chkct res[r4], 1
	freer res[r4]
	ldd r5, r4, sp[1]               # 4-byte Folded Reload
	retsp 4
	# RETURN_REG_HOLDER
	.cc_bottom _i.i2c_slave_callback_if._chan_yield.start_read_request.function
	.set	_i.i2c_slave_callback_if._chan_yield.start_read_request.nstackwords,((($D __interface_wait_and_yield.nstackwords ? __interface_wait_and_yield.nstackwords $: _i.i2c_slave_callback_if._client_call_y.max.nstackwords) $M _i.i2c_slave_callback_if._client_call_y.max.nstackwords $M ($D __interface_client_call_y.nstackwords ? __interface_client_call_y.nstackwords $: _i.i2c_slave_callback_if._client_call_y.max.nstackwords)) + 4)
	.globl	_i.i2c_slave_callback_if._chan_yield.start_read_request.nstackwords
	.weak	_i.i2c_slave_callback_if._chan_yield.start_read_request.nstackwords
	.set	_i.i2c_slave_callback_if._chan_yield.start_read_request.maxcores,($D __interface_client_call_y.maxcores ? __interface_client_call_y.maxcores $: _i.i2c_slave_callback_if._client_call_y.max.maxcores) $M ($D __interface_wait_and_yield.maxcores ? __interface_wait_and_yield.maxcores $: _i.i2c_slave_callback_if._client_call_y.max.maxcores) $M 1
	.globl	_i.i2c_slave_callback_if._chan_yield.start_read_request.maxcores
	.weak	_i.i2c_slave_callback_if._chan_yield.start_read_request.maxcores
	.set	_i.i2c_slave_callback_if._chan_yield.start_read_request.maxtimers,($D __interface_client_call_y.maxtimers ? __interface_client_call_y.maxtimers $: _i.i2c_slave_callback_if._client_call_y.max.maxtimers) $M ($D __interface_wait_and_yield.maxtimers ? __interface_wait_and_yield.maxtimers $: _i.i2c_slave_callback_if._client_call_y.max.maxtimers) $M 0
	.globl	_i.i2c_slave_callback_if._chan_yield.start_read_request.maxtimers
	.weak	_i.i2c_slave_callback_if._chan_yield.start_read_request.maxtimers
	.set	_i.i2c_slave_callback_if._chan_yield.start_read_request.maxchanends,(1 + ($D __interface_client_call_y.maxchanends ? __interface_client_call_y.maxchanends $: _i.i2c_slave_callback_if._client_call_y.max.maxchanends)) $M (1 + ($D __interface_wait_and_yield.maxchanends ? __interface_wait_and_yield.maxchanends $: _i.i2c_slave_callback_if._client_call_y.max.maxchanends)) $M 1
	.globl	_i.i2c_slave_callback_if._chan_yield.start_read_request.maxchanends
	.weak	_i.i2c_slave_callback_if._chan_yield.start_read_request.maxchanends
.Ltmp263:
	.size	_i.i2c_slave_callback_if._chan_yield.start_read_request, .Ltmp263-_i.i2c_slave_callback_if._chan_yield.start_read_request
	.cfi_endproc

	.section	.cp.rodata.cst4,"aMc",@progbits,4
	.cc_top .LCPI44_0.data,.LCPI44_0
	.align	4
	.type	.LCPI44_0,@object
	.size	.LCPI44_0, 4
.LCPI44_0:
	.long	4294967288              # 0xfffffff8
	.cc_bottom .LCPI44_0.data
	.text
	.globl	i2c_master_async
	.align	4
	.type	i2c_master_async,@function
	.cc_top i2c_master_async.function,i2c_master_async
i2c_master_async:                       # @i2c_master_async
.Lfunc_begin44:
	.loc	2 122 0                 # C:/Users/user/workspace/lib_i2c/src/i2c_master_async.xc:122:0
	.cfi_startproc
	.issue_mode single
# BB#0:                                 # %allocas
.Lxtalabel0:
	ENTSP_lu6 8
.Ltmp264:
	.cfi_def_cfa_offset 32
.Ltmp265:
	.cfi_offset 15, 0
	stw r10, sp[2]                  # 4-byte Folded Spill
.Ltmp266:
	.cfi_offset 10, -24
	ldaw r10, sp[0]
.Ltmp267:
	.cfi_def_cfa_register 10
	std r5, r4, r10[2]              # 4-byte Folded Spill
.Ltmp268:
	.cfi_offset 4, -16
.Ltmp269:
	.cfi_offset 5, -12
	std r7, r6, r10[3]              # 4-byte Folded Spill
.Ltmp270:
	.cfi_offset 6, -8
.Ltmp271:
	.cfi_offset 7, -4
	ldw r11, r10[10]
	ldw r4, r10[9]
	ldc r5, i2c_master_async.savedstate
	ldc r6, 71
	ldaw r5, r6[r5]
	ldw r6, cp[.LCPI44_0]
	and r5, r5, r6
	ldaw r7, sp[0]
	sub r5, r7, r5
	set sp, r5
	# ALLOCA 1
	stw r0, r5[0]
	stw r1, r5[1]
	stw r1, r5[2]
	stw r2, r5[3]
	stw r3, r5[4]
	stw r4, r5[5]
	stw r11, r5[6]
	ldc r0, _Si2c_master_0.init.0.savedstate
	mkmsk r1, 4
	ldaw r0, r1[r0]
	and r0, r0, r6
	ldaw r1, sp[0]
	sub r0, r1, r0
	set sp, r0
	# ALLOCA 0
	add r0, r0, 8
	.loc	2 123 0 prologue_end    # C:/Users/user/workspace/lib_i2c/src/i2c_master_async.xc:123:0
.Ltmp272:
	ldaw r1, r5[7]
	.loc	2 123 0                 # C:/Users/user/workspace/lib_i2c/src/i2c_master_async.xc:123:0
	ldaw r2, r5[11]
	ldc r3, 52
	.loc	2 123 0                 # C:/Users/user/workspace/lib_i2c/src/i2c_master_async.xc:123:0
	add r3, r5, r3
	ldc r4, 0
	.loc	2 123 0                 # C:/Users/user/workspace/lib_i2c/src/i2c_master_async.xc:123:0
	stw r4, r5[11]
	ldc r11, 48
	.loc	2 123 0                 # C:/Users/user/workspace/lib_i2c/src/i2c_master_async.xc:123:0
	add r11, r5, r11
	.loc	2 123 0                 # C:/Users/user/workspace/lib_i2c/src/i2c_master_async.xc:123:0
	stw r4, r11[0]
	.loc	2 123 0                 # C:/Users/user/workspace/lib_i2c/src/i2c_master_async.xc:123:0
	stw r2, r3[0]
	ldc r11, 56
	.loc	2 123 0                 # C:/Users/user/workspace/lib_i2c/src/i2c_master_async.xc:123:0
	add r6, r5, r11
	.loc	2 123 0                 # C:/Users/user/workspace/lib_i2c/src/i2c_master_async.xc:123:0
	ldaw r11, cp[.vtable]
	stw r11, r6[0]
	.loc	2 123 0                 # C:/Users/user/workspace/lib_i2c/src/i2c_master_async.xc:123:0
	stw r3, r5[8]
	.loc	2 123 0                 # C:/Users/user/workspace/lib_i2c/src/i2c_master_async.xc:123:0
	ldaw r3, r5[9]
	.loc	2 123 0                 # C:/Users/user/workspace/lib_i2c/src/i2c_master_async.xc:123:0
	stw r4, r5[9]
	.loc	2 123 0                 # C:/Users/user/workspace/lib_i2c/src/i2c_master_async.xc:123:0
	stw r2, r5[10]
	.loc	2 123 0                 # C:/Users/user/workspace/lib_i2c/src/i2c_master_async.xc:123:0
	stw r3, r5[7]
	stw r0, r10[3]
	ldaw r6, r10[3]
	#init allocation
	ldw r4, r10[3]
	ldw r2, r5[3]
	ldw r3, r5[4]
	ldw r0, r5[5]
	# STACKUP 
	# ALLOCA 2
	extsp 2
	stw r0, sp[1]
	mov r0, r4
.Lxta.call_labels0:
	bl _Si2c_master_0.init.0
	ldaw sp, sp[2]
	# STACKDOWN
	# STACKUP 
	# ALLOCA 3
	extsp 2
	mov r0, r4
	bl _Si2c_master_0.init.1
	ldaw sp, sp[2]
	# STACKDOWN
.Ltmp273:
	.loc	2 128 0                 # C:/Users/user/workspace/lib_i2c/src/i2c_master_async.xc:128:0
	ldw r0, r5[1]
	.loc	2 128 0                 # C:/Users/user/workspace/lib_i2c/src/i2c_master_async.xc:128:0
	ldw r1, r5[2]
	.loc	2 128 0                 # C:/Users/user/workspace/lib_i2c/src/i2c_master_async.xc:128:0
	lsu r0, r0, r1
.Ltrap_info2:
	ecallt r0
	.loc	2 128 0                 # C:/Users/user/workspace/lib_i2c/src/i2c_master_async.xc:128:0
	ldw r3, r5[6]
	.loc	2 128 0                 # C:/Users/user/workspace/lib_i2c/src/i2c_master_async.xc:128:0
	ldw r2, r5[8]
	.loc	2 128 0                 # C:/Users/user/workspace/lib_i2c/src/i2c_master_async.xc:128:0
	ldw r0, r5[0]
	.loc	2 128 0                 # C:/Users/user/workspace/lib_i2c/src/i2c_master_async.xc:128:0
	# STACKUP 
	# ALLOCA 4
	extsp 2
.Lxta.call_labels1:
	bl _Si2c_master_async_aux_0
	ldaw sp, sp[2]
	# STACKDOWN
	# STACKUP 
	# ALLOCA 5
	extsp 2
	mov r0, r4
	bl _Si2c_master_0.fini
	ldaw sp, sp[2]
	# STACKDOWN
	#completed deallocation
	ldd r7, r6, r10[3]              # 4-byte Folded Reload
	ldd r5, r4, r10[2]              # 4-byte Folded Reload
	set sp, r10
	ldw r10, sp[2]                  # 4-byte Folded Reload
	retsp 8
	# RETURN_REG_HOLDER
	.cc_bottom i2c_master_async.function
	.set	i2c_master_async.nstackwords,(((((((i2c_master_async.savedstate << 2) + 71) & -8) >> 2) + ((((_Si2c_master_0.init.0.savedstate << 2) + 15) & -8) >> 2)) + ((2 + _Si2c_master_0.init.0.nstackwords) $M (2 + _Si2c_master_0.init.1.nstackwords) $M (2 + _Si2c_master_async_aux_0.nstackwords) $M (2 + _Si2c_master_0.fini.nstackwords))) + 8)
	.globl	i2c_master_async.nstackwords
	.set	i2c_master_async.maxcores,((1 * _Si2c_master_0.dynalloc_maxcores) + _Si2c_master_0.fini.maxcores) $M ((1 * _Si2c_master_0.dynalloc_maxcores) + _Si2c_master_0.init.0.maxcores) $M ((1 * _Si2c_master_0.dynalloc_maxcores) + _Si2c_master_0.init.1.maxcores) $M ((1 * _Si2c_master_0.dynalloc_maxcores) + _Si2c_master_async_aux_0.maxcores) $M ((1 * _Si2c_master_0.dynalloc_maxcores) + 1)
	.globl	i2c_master_async.maxcores
	.set	i2c_master_async.maxtimers,((1 * _Si2c_master_0.dynalloc_maxtimers) + _Si2c_master_0.fini.maxtimers) $M ((1 * _Si2c_master_0.dynalloc_maxtimers) + _Si2c_master_0.init.0.maxtimers) $M ((1 * _Si2c_master_0.dynalloc_maxtimers) + _Si2c_master_0.init.1.maxtimers) $M ((1 * _Si2c_master_0.dynalloc_maxtimers) + _Si2c_master_async_aux_0.maxtimers) $M ((1 * _Si2c_master_0.dynalloc_maxtimers) + 0)
	.globl	i2c_master_async.maxtimers
	.set	i2c_master_async.maxchanends,((1 * _Si2c_master_0.dynalloc_maxchanends) + _Si2c_master_0.fini.maxchanends) $M ((1 * _Si2c_master_0.dynalloc_maxchanends) + _Si2c_master_0.init.0.maxchanends) $M ((1 * _Si2c_master_0.dynalloc_maxchanends) + _Si2c_master_0.init.1.maxchanends) $M ((1 * _Si2c_master_0.dynalloc_maxchanends) + _Si2c_master_async_aux_0.maxchanends) $M ((1 * _Si2c_master_0.dynalloc_maxchanends) + 0)
	.globl	i2c_master_async.maxchanends
.Ltmp274:
	.size	i2c_master_async, .Ltmp274-i2c_master_async
.Lfunc_end44:
	.cfi_endproc

	.section	.cp.rodata.cst4,"aMc",@progbits,4
	.cc_top .LCPI45_0.data,.LCPI45_0
	.align	4
	.type	.LCPI45_0,@object
	.size	.LCPI45_0, 4
.LCPI45_0:
	.long	4294967288              # 0xfffffff8
	.cc_bottom .LCPI45_0.data
	.cc_top .LCPI45_1.data,.LCPI45_1
	.align	4
	.type	.LCPI45_1,@object
	.size	.LCPI45_1, 4
.LCPI45_1:
	.long	100000                  # 0x186a0
	.cc_bottom .LCPI45_1.data
	.text
	.globl	i2c_master_async_comb
	.align	4
	.type	i2c_master_async_comb,@function
	.cc_top i2c_master_async_comb.function,i2c_master_async_comb
i2c_master_async_comb:                  # @i2c_master_async_comb
.Lfunc_begin45:
	.loc	2 175 0                 # C:/Users/user/workspace/lib_i2c/src/i2c_master_async.xc:175:0
	.cfi_startproc
	.issue_mode single
# BB#0:                                 # %allocas
.Lxtalabel1:
	ENTSP_lu6 30
.Ltmp275:
	.cfi_def_cfa_offset 120
.Ltmp276:
	.cfi_offset 15, 0
	stw r10, sp[1]                  # 4-byte Folded Spill
.Ltmp277:
	.cfi_offset 10, -116
	ldaw r10, sp[0]
.Ltmp278:
	.cfi_def_cfa_register 10
	ldc r11, 12
	std r5, r4, r10[r11]            # 4-byte Folded Spill
.Ltmp279:
	.cfi_offset 4, -24
.Ltmp280:
	.cfi_offset 5, -20
	ldc r4, 13
	std r7, r6, r10[r4]             # 4-byte Folded Spill
.Ltmp281:
	.cfi_offset 6, -16
.Ltmp282:
	.cfi_offset 7, -12
	ldc r4, 14
	std r9, r8, r10[r4]             # 4-byte Folded Spill
.Ltmp283:
	.cfi_offset 8, -8
.Ltmp284:
	.cfi_offset 9, -4
	#DEBUG_VALUE: i2c_master_async_comb:i <- R0
	#DEBUG_VALUE: i2c_master_async_comb:n <- R1
	#DEBUG_VALUE: i2c_master_async_comb:p_scl <- R2
	#DEBUG_VALUE: i2c_master_async_comb:p_sda <- R3
	#DEBUG_VALUE: i2c_master_async_comb:kbits_per_second <- [R10+124]
	stw r3, r10[6]                  # 4-byte Folded Spill
.Ltmp285:
	#DEBUG_VALUE: i2c_master_async_comb:p_sda <- [R10+24]
	mov r5, r2
.Ltmp286:
	#DEBUG_VALUE: i2c_master_async_comb:p_scl <- R5
	ldc r8, 18
	stw r5, r10[r8]                 # 4-byte Folded Spill
	mov r6, r1
.Ltmp287:
	#DEBUG_VALUE: i2c_master_async_comb:n <- R6
	mov r7, r0
.Ltmp288:
	#DEBUG_VALUE: i2c_master_async_comb:i <- R7
	mkmsk r8, 5
	ldw r0, r10[r8]
	.loc	2 177 0 prologue_end    # C:/Users/user/workspace/lib_i2c/src/i2c_master_async.xc:177:0
.Ltmp289:
	ldc r1, i2c_master_async_comb.5.maxargsize
	.loc	2 177 0                 # C:/Users/user/workspace/lib_i2c/src/i2c_master_async.xc:177:0
	add r1, r1, 7
	ldw r2, cp[.LCPI45_0]
	and r1, r1, r2
	ldaw r2, sp[0]
	sub r1, r2, r1
	stw r1, r10[11]                 # 4-byte Folded Spill
	set sp, r1
	# ALLOCA 0
	ldw r1, cp[.LCPI45_1]
	.loc	2 179 0                 # C:/Users/user/workspace/lib_i2c/src/i2c_master_async.xc:179:0
.Ltmp290:
	divu r2, r1, r0
.Ltmp291:
	#DEBUG_VALUE: bit_time <- R2
	get r11, id
.Ltmp292:
	#DEBUG_VALUE: timer_enabled <- 0
	#DEBUG_VALUE: waiting_for_clock_release <- 0
	#DEBUG_VALUE: state <- 0
	ldaw r0, dp[__timers]
	.loc	2 217 0                 # C:/Users/user/workspace/lib_i2c/src/i2c_master_async.xc:217:0
.Ltmp293:
	shr r3, r2, 1
	ldc r1, 200
	.loc	2 150 3                 # C:/Users/user/workspace/lib_i2c/src/i2c_master_async.xc:150:3
.Ltmp294:
	lsu r1, r2, r1
	ldc r4, 100
	bt r1, .LBB45_2
.Ltmp295:
# BB#1:                                 # %allocas
.Lxtalabel2:
	#DEBUG_VALUE: i2c_master_async_comb:i <- R7
	#DEBUG_VALUE: i2c_master_async_comb:n <- R6
	#DEBUG_VALUE: i2c_master_async_comb:p_scl <- R5
	#DEBUG_VALUE: i2c_master_async_comb:p_sda <- [R10+24]
	#DEBUG_VALUE: i2c_master_async_comb:kbits_per_second <- [R10+124]
	#DEBUG_VALUE: bit_time <- R2
	#DEBUG_VALUE: state <- 0
	#DEBUG_VALUE: waiting_for_clock_release <- 0
	#DEBUG_VALUE: timer_enabled <- 0
	.loc	2 150 3                 # C:/Users/user/workspace/lib_i2c/src/i2c_master_async.xc:150:3
	mov r4, r3
.Ltmp296:
.LBB45_2:                               # %allocas
.Lxtalabel3:
	#DEBUG_VALUE: i2c_master_async_comb:i <- R7
	#DEBUG_VALUE: i2c_master_async_comb:n <- R6
	#DEBUG_VALUE: i2c_master_async_comb:p_scl <- R5
	#DEBUG_VALUE: i2c_master_async_comb:p_sda <- [R10+24]
	#DEBUG_VALUE: i2c_master_async_comb:kbits_per_second <- [R10+124]
	#DEBUG_VALUE: bit_time <- R2
	#DEBUG_VALUE: state <- 0
	#DEBUG_VALUE: waiting_for_clock_release <- 0
	#DEBUG_VALUE: timer_enabled <- 0
	stw r4, r10[7]                  # 4-byte Folded Spill
	#DEBUG_VALUE: i2c_master_async_comb:max_transaction_size <- undef
	ldw r8, r0[r11]
	.loc	2 212 0                 # C:/Users/user/workspace/lib_i2c/src/i2c_master_async.xc:212:0
	ldc r4, 19
	stw r8, r10[r4]                 # 4-byte Folded Spill
	shr r0, r2, 2
.Ltmp297:
	.loc	2 249 0                 # C:/Users/user/workspace/lib_i2c/src/i2c_master_async.xc:249:0
	stw r0, r10[8]                  # 4-byte Folded Spill
	shr r0, r2, 5
	stw r2, r10[9]                  # 4-byte Folded Spill
.Ltmp298:
	#DEBUG_VALUE: bit_time <- [R10+36]
	.loc	2 249 0                 # C:/Users/user/workspace/lib_i2c/src/i2c_master_async.xc:249:0
	add r0, r0, r3
	stw r0, r10[5]                  # 4-byte Folded Spill
	stw r3, r10[4]                  # 4-byte Folded Spill
	ldc r2, 0
	mkmsk r9, 1
                                        # implicit-def: R0
	stw r0, r10[10]                 # 4-byte Folded Spill
                                        # implicit-def: R0
	ldc r3, 20
	stw r0, r10[r3]                 # 4-byte Folded Spill
                                        # implicit-def: R0
                                        # implicit-def: R1
	ldc r3, 12
	stw r1, r10[r3]                 # 4-byte Folded Spill
                                        # implicit-def: R1
	ldc r3, 14
	stw r1, r10[r3]                 # 4-byte Folded Spill
                                        # implicit-def: R1
	ldc r3, 17
	stw r1, r10[r3]                 # 4-byte Folded Spill
                                        # implicit-def: R1
	ldc r3, 16
	stw r1, r10[r3]                 # 4-byte Folded Spill
                                        # implicit-def: R1
	mkmsk r3, 4
	stw r1, r10[r3]                 # 4-byte Folded Spill
                                        # implicit-def: R1
	ldc r3, 13
	stw r1, r10[r3]                 # 4-byte Folded Spill
	ldc r1, 22
	stw r2, r10[r1]                 # 4-byte Folded Spill
	mov r11, r2
	bu .LBB45_3
.Ltmp299:
.LBB45_94:                              # %sendNotify
                                        #   in Loop: Header=BB45_3 Depth=1
	#DEBUG_VALUE: i2c_master_async_comb:i <- R7
	#DEBUG_VALUE: i2c_master_async_comb:n <- R6
	#DEBUG_VALUE: i2c_master_async_comb:p_scl <- R5
	#DEBUG_VALUE: i2c_master_async_comb:p_sda <- [R10+24]
	#DEBUG_VALUE: i2c_master_async_comb:kbits_per_second <- [R10+124]
	#DEBUG_VALUE: i2c_master_async_comb:max_transaction_size <- undef
	.loc	2 398 0                 # C:/Users/user/workspace/lib_i2c/src/i2c_master_async.xc:398:0
	ldw r0, r1[2]
	.loc	2 398 0                 # C:/Users/user/workspace/lib_i2c/src/i2c_master_async.xc:398:0
	ldw r2, r1[3]
	.loc	2 398 0                 # C:/Users/user/workspace/lib_i2c/src/i2c_master_async.xc:398:0
	#APP
	getd r3, res[r0]
	#NO_APP
	.loc	2 398 0                 # C:/Users/user/workspace/lib_i2c/src/i2c_master_async.xc:398:0
	setd res[r0], r2
	.loc	2 398 0                 # C:/Users/user/workspace/lib_i2c/src/i2c_master_async.xc:398:0
	outct res[r0], 1
	.loc	2 398 0                 # C:/Users/user/workspace/lib_i2c/src/i2c_master_async.xc:398:0
	setd res[r0], r3
	ldc r0, 0
	mov r2, r0
	.loc	2 398 0                 # C:/Users/user/workspace/lib_i2c/src/i2c_master_async.xc:398:0
	stw r2, r1[4]
	mov r0, r4
	ldc r1, 22
	stw r2, r10[r1]                 # 4-byte Folded Spill
.Ltmp300:
.LBB45_3:                               # %LoopBody
                                        # =>This Loop Header: Depth=1
                                        #     Child Loop BB45_4 Depth 2
                                        #       Child Loop BB45_16 Depth 3
.Lxtalabel4:
	ldc r1, 21
	stw r2, r10[r1]                 # 4-byte Folded Spill
	bu .LBB45_4
.LBB45_56:                              # %LoopBody
                                        #   in Loop: Header=BB45_4 Depth=2
.Lxtalabel5:
	ldc r1, 23
	ldw r11, r10[r1]                # 4-byte Folded Reload
.LBB45_4:                               # %LoopBody
                                        #   Parent Loop BB45_3 Depth=1
                                        # =>  This Loop Header: Depth=2
                                        #       Child Loop BB45_16 Depth 3
.Lxtalabel6:
.Ltmp301:
	#DEBUG_VALUE: i2c_master_async_comb:i <- R7
	#DEBUG_VALUE: i2c_master_async_comb:n <- R6
	#DEBUG_VALUE: i2c_master_async_comb:p_scl <- R5
	#DEBUG_VALUE: i2c_master_async_comb:p_sda <- [R10+24]
	#DEBUG_VALUE: i2c_master_async_comb:kbits_per_second <- [R10+124]
	#DEBUG_VALUE: i2c_master_async_comb:max_transaction_size <- undef
	mov r3, r0
	clre
	ldc r0, 23
	stw r11, r10[r0]                # 4-byte Folded Spill
	bf r11, .LBB45_6
.Ltmp302:
# BB#5:                                 # %selectguardtrue
                                        #   in Loop: Header=BB45_4 Depth=2
	#DEBUG_VALUE: i2c_master_async_comb:i <- R7
	#DEBUG_VALUE: i2c_master_async_comb:n <- R6
	#DEBUG_VALUE: i2c_master_async_comb:p_scl <- R5
	#DEBUG_VALUE: i2c_master_async_comb:p_sda <- [R10+24]
	#DEBUG_VALUE: i2c_master_async_comb:kbits_per_second <- [R10+124]
	#DEBUG_VALUE: i2c_master_async_comb:max_transaction_size <- undef
	setd res[r5], r9
	setc res[r5], 17
	ldap r11, .Ltmp303
	setv res[r5], r11
	eeu res[r5]
.Ltmp304:
.LBB45_6:                               # %selectguarddone
                                        #   in Loop: Header=BB45_4 Depth=2
	#DEBUG_VALUE: i2c_master_async_comb:i <- R7
	#DEBUG_VALUE: i2c_master_async_comb:n <- R6
	#DEBUG_VALUE: i2c_master_async_comb:p_scl <- R5
	#DEBUG_VALUE: i2c_master_async_comb:p_sda <- [R10+24]
	#DEBUG_VALUE: i2c_master_async_comb:kbits_per_second <- [R10+124]
	#DEBUG_VALUE: i2c_master_async_comb:max_transaction_size <- undef
	ldc r1, 22
	ldw r0, r10[r1]                 # 4-byte Folded Reload
	bf r0, .LBB45_8
.Ltmp305:
# BB#7:                                 # %selectguardtrue11
                                        #   in Loop: Header=BB45_4 Depth=2
	#DEBUG_VALUE: i2c_master_async_comb:i <- R7
	#DEBUG_VALUE: i2c_master_async_comb:n <- R6
	#DEBUG_VALUE: i2c_master_async_comb:p_scl <- R5
	#DEBUG_VALUE: i2c_master_async_comb:p_sda <- [R10+24]
	#DEBUG_VALUE: i2c_master_async_comb:kbits_per_second <- [R10+124]
	#DEBUG_VALUE: i2c_master_async_comb:max_transaction_size <- undef
	ldc r1, 20
	ldw r0, r10[r1]                 # 4-byte Folded Reload
	setd res[r8], r0
	setc res[r8], 9
	ldap r11, .Ltmp306
	setv res[r8], r11
	eeu res[r8]
.Ltmp307:
	#DEBUG_VALUE: adjust_fall:event_time <- [R10+80]
.LBB45_8:                               # %iteratortest.preheader
                                        #   in Loop: Header=BB45_4 Depth=2
	#DEBUG_VALUE: i2c_master_async_comb:i <- R7
	#DEBUG_VALUE: i2c_master_async_comb:n <- R6
	#DEBUG_VALUE: i2c_master_async_comb:p_scl <- R5
	#DEBUG_VALUE: i2c_master_async_comb:p_sda <- [R10+24]
	#DEBUG_VALUE: i2c_master_async_comb:kbits_per_second <- [R10+124]
	#DEBUG_VALUE: i2c_master_async_comb:max_transaction_size <- undef
	ldc r0, 0
	bf r6, .LBB45_9
.Ltmp308:
.LBB45_16:                              # %selectguardtrue17
                                        #   Parent Loop BB45_3 Depth=1
                                        #     Parent Loop BB45_4 Depth=2
                                        # =>    This Inner Loop Header: Depth=3
	#DEBUG_VALUE: i2c_master_async_comb:i <- R7
	#DEBUG_VALUE: i2c_master_async_comb:n <- R6
	#DEBUG_VALUE: i2c_master_async_comb:p_scl <- R5
	#DEBUG_VALUE: i2c_master_async_comb:p_sda <- [R10+24]
	#DEBUG_VALUE: i2c_master_async_comb:kbits_per_second <- [R10+124]
	#DEBUG_VALUE: i2c_master_async_comb:max_transaction_size <- undef
	.loc	2 407 0                 # C:/Users/user/workspace/lib_i2c/src/i2c_master_async.xc:407:0
	ldw r1, r7[r0]
	.loc	2 407 0                 # C:/Users/user/workspace/lib_i2c/src/i2c_master_async.xc:407:0
	ldw r1, r1[0]
	ldap r11, .Ltmp309
	.loc	2 407 0                 # C:/Users/user/workspace/lib_i2c/src/i2c_master_async.xc:407:0
	setv res[r1], r11
	.loc	2 407 0                 # C:/Users/user/workspace/lib_i2c/src/i2c_master_async.xc:407:0
	mov r11, r0
	setev res[r1], r11
	.loc	2 407 0                 # C:/Users/user/workspace/lib_i2c/src/i2c_master_async.xc:407:0
	eeu res[r1]
	.loc	2 407 0                 # C:/Users/user/workspace/lib_i2c/src/i2c_master_async.xc:407:0
	add r0, r0, 1
.Ltmp310:
	#DEBUG_VALUE: j <- R0
	.loc	2 407 0                 # C:/Users/user/workspace/lib_i2c/src/i2c_master_async.xc:407:0
	eq r1, r6, r0
	bf r1, .LBB45_16
.Ltmp311:
.LBB45_9:                               # %iteratordone
                                        #   in Loop: Header=BB45_4 Depth=2
	#DEBUG_VALUE: i2c_master_async_comb:i <- R7
	#DEBUG_VALUE: i2c_master_async_comb:n <- R6
	#DEBUG_VALUE: i2c_master_async_comb:p_scl <- R5
	#DEBUG_VALUE: i2c_master_async_comb:p_sda <- [R10+24]
	#DEBUG_VALUE: i2c_master_async_comb:kbits_per_second <- [R10+124]
	#DEBUG_VALUE: i2c_master_async_comb:max_transaction_size <- undef

	.xtabranch .LBB45_10, .LBB45_12, .LBB45_14
	waiteu
.Ltmp312:
.Ltmp303:                               # Block address taken
.LBB45_10:                              # %selectcase
                                        #   in Loop: Header=BB45_4 Depth=2
.Lxtalabel7:
	#DEBUG_VALUE: i2c_master_async_comb:i <- R7
	#DEBUG_VALUE: i2c_master_async_comb:n <- R6
	#DEBUG_VALUE: i2c_master_async_comb:p_scl <- R5
	#DEBUG_VALUE: i2c_master_async_comb:p_sda <- [R10+24]
	#DEBUG_VALUE: i2c_master_async_comb:kbits_per_second <- [R10+124]
	#DEBUG_VALUE: i2c_master_async_comb:max_transaction_size <- undef
	.loc	2 197 0                 # C:/Users/user/workspace/lib_i2c/src/i2c_master_async.xc:197:0
.Lxta.endpoint_labels0:
	in r0, res[r5]
.Ltmp313:
	.loc	2 199 0                 # C:/Users/user/workspace/lib_i2c/src/i2c_master_async.xc:199:0
	gettime r1
.Ltmp314:
	#DEBUG_VALUE: now <- R1
	#DEBUG_VALUE: adjust_for_slip:now <- R1
	#DEBUG_VALUE: adjust_for_slip:now <- R1
	#DEBUG_VALUE: adjust_for_slip:now <- R1
	#DEBUG_VALUE: adjust_for_slip:now <- R1
	.loc	2 200 0                 # C:/Users/user/workspace/lib_i2c/src/i2c_master_async.xc:200:0
	ldc r11, 21
	ldw r0, r10[r11]                # 4-byte Folded Reload
	sub r2, r0, 3
	ldc r0, 12
	mov r4, r3
	lsu r3, r0, r2
	mov r0, r4
	ldc r11, 22
	stw r9, r10[r11]                # 4-byte Folded Spill
	ldc r11, 0
	bt r3, .LBB45_4
.Ltmp315:
# BB#11:                                # %selectcase
                                        #   in Loop: Header=BB45_4 Depth=2
.Lxtalabel8:
	#DEBUG_VALUE: i2c_master_async_comb:i <- R7
	#DEBUG_VALUE: i2c_master_async_comb:n <- R6
	#DEBUG_VALUE: i2c_master_async_comb:p_scl <- R5
	#DEBUG_VALUE: i2c_master_async_comb:p_sda <- [R10+24]
	#DEBUG_VALUE: i2c_master_async_comb:kbits_per_second <- [R10+124]
	#DEBUG_VALUE: i2c_master_async_comb:max_transaction_size <- undef
	mov r0, r4
	ldc r3, 22
	stw r9, r10[r3]                 # 4-byte Folded Spill
	ldc r11, 0

	.xtabranch .Ljumptable0+2,.Ljumptable0+4,.Ljumptable0+6,.Ljumptable0+8,.Ljumptable0+10,.Ljumptable0+12,.Ljumptable0+14,.Ljumptable0+16,.Ljumptable0+18,.Ljumptable0+20,.Ljumptable0+22,.Ljumptable0+24,.Ljumptable0+26
.Ljumptable0:
		
	bru r2
	.jmptable .LBB45_17,.LBB45_4,.LBB45_17,.LBB45_20,.LBB45_4,.LBB45_17,.LBB45_23,.LBB45_4,.LBB45_17,.LBB45_4,.LBB45_17,.LBB45_4,.LBB45_22
.Ltmp316:
.LBB45_17:                              # %switchcase29
                                        #   in Loop: Header=BB45_4 Depth=2
.Lxtalabel9:
	#DEBUG_VALUE: i2c_master_async_comb:i <- R7
	#DEBUG_VALUE: i2c_master_async_comb:n <- R6
	#DEBUG_VALUE: i2c_master_async_comb:p_scl <- R5
	#DEBUG_VALUE: i2c_master_async_comb:p_sda <- [R10+24]
	#DEBUG_VALUE: i2c_master_async_comb:kbits_per_second <- [R10+124]
	#DEBUG_VALUE: i2c_master_async_comb:max_transaction_size <- undef
	ldw r0, r10[9]                  # 4-byte Folded Reload
	ldw r3, r10[10]                 # 4-byte Folded Reload
	.loc	2 206 0                 # C:/Users/user/workspace/lib_i2c/src/i2c_master_async.xc:206:0
	add r3, r3, r0
.Ltmp317:
	#DEBUG_VALUE: SLIP_THRESHOLD <- 100
	#DEBUG_VALUE: adjust_for_slip:event_time <- R3
	#DEBUG_VALUE: adjust_for_slip:event_time <- R3
	#DEBUG_VALUE: adjust_for_slip:event_time <- R3
	#DEBUG_VALUE: adjust_for_slip:event_time <- R3
	#DEBUG_VALUE: adjust_for_slip:event_time <- R3
	#DEBUG_VALUE: adjust_for_slip:event_time <- R3
	#DEBUG_VALUE: adjust_for_slip:event_time <- R3
	#DEBUG_VALUE: adjust_for_slip:event_time <- R3
	#DEBUG_VALUE: adjust_for_slip:event_time <- R3
	#DEBUG_VALUE: adjust_for_slip:event_time <- R3
	#DEBUG_VALUE: adjust_for_slip:event_time <- R3
	#DEBUG_VALUE: adjust_for_slip:event_time <- R3
	#DEBUG_VALUE: event_time <- R3
	#DEBUG_VALUE: adjust_for_slip:fall_time <- R3
	#DEBUG_VALUE: adjust_for_slip:fall_time <- R3
	#DEBUG_VALUE: adjust_for_slip:fall_time <- R3
	#DEBUG_VALUE: adjust_for_slip:fall_time <- R3
	#DEBUG_VALUE: adjust_for_slip:fall_time <- R3
	#DEBUG_VALUE: adjust_for_slip:fall_time <- R3
	#DEBUG_VALUE: adjust_for_slip:fall_time <- R3
	#DEBUG_VALUE: adjust_for_slip:fall_time <- R3
	#DEBUG_VALUE: adjust_for_slip:fall_time <- R3
	#DEBUG_VALUE: adjust_for_slip:fall_time <- R3
	#DEBUG_VALUE: adjust_for_slip:fall_time <- R3
	#DEBUG_VALUE: fall_time <- R3
	.loc	2 150 3                 # C:/Users/user/workspace/lib_i2c/src/i2c_master_async.xc:150:3
	sub r0, r3, r1
	ldc r2, 100
	.loc	2 150 3                 # C:/Users/user/workspace/lib_i2c/src/i2c_master_async.xc:150:3
	lss r0, r0, r2
	bf r0, .LBB45_19
.Ltmp318:
# BB#18:                                #   in Loop: Header=BB45_4 Depth=2
	#DEBUG_VALUE: i2c_master_async_comb:i <- R7
	#DEBUG_VALUE: i2c_master_async_comb:n <- R6
	#DEBUG_VALUE: i2c_master_async_comb:p_scl <- R5
	#DEBUG_VALUE: i2c_master_async_comb:p_sda <- [R10+24]
	#DEBUG_VALUE: i2c_master_async_comb:kbits_per_second <- [R10+124]
	#DEBUG_VALUE: i2c_master_async_comb:max_transaction_size <- undef
	#DEBUG_VALUE: SLIP_THRESHOLD <- 100
	.loc	2 151 0                 # C:/Users/user/workspace/lib_i2c/src/i2c_master_async.xc:151:0
	add r3, r1, r2
.Ltmp319:
	#DEBUG_VALUE: new_event_time <- R3
	#DEBUG_VALUE: adjust_for_slip:event_time <- R3
	#DEBUG_VALUE: adjust_for_slip:event_time <- R3
	#DEBUG_VALUE: adjust_for_slip:event_time <- R3
	#DEBUG_VALUE: adjust_for_slip:event_time <- R3
	#DEBUG_VALUE: adjust_for_slip:event_time <- R3
	#DEBUG_VALUE: adjust_for_slip:event_time <- R3
	#DEBUG_VALUE: adjust_for_slip:event_time <- R3
	#DEBUG_VALUE: adjust_for_slip:event_time <- R3
	#DEBUG_VALUE: adjust_for_slip:event_time <- R3
	#DEBUG_VALUE: adjust_for_slip:event_time <- R3
	#DEBUG_VALUE: adjust_for_slip:event_time <- R3
	#DEBUG_VALUE: adjust_for_slip:event_time <- R3
	#DEBUG_VALUE: event_time <- R3
	#DEBUG_VALUE: adjust_for_slip:fall_time <- R3
	#DEBUG_VALUE: adjust_for_slip:fall_time <- R3
	#DEBUG_VALUE: adjust_for_slip:fall_time <- R3
	#DEBUG_VALUE: adjust_for_slip:fall_time <- R3
	#DEBUG_VALUE: adjust_for_slip:fall_time <- R3
	#DEBUG_VALUE: adjust_for_slip:fall_time <- R3
	#DEBUG_VALUE: adjust_for_slip:fall_time <- R3
	#DEBUG_VALUE: adjust_for_slip:fall_time <- R3
	#DEBUG_VALUE: adjust_for_slip:fall_time <- R3
	#DEBUG_VALUE: adjust_for_slip:fall_time <- R3
	#DEBUG_VALUE: adjust_for_slip:fall_time <- R3
	#DEBUG_VALUE: fall_time <- R3
.LBB45_19:                              # %switchcase29
                                        #   in Loop: Header=BB45_4 Depth=2
.Lxtalabel10:
	#DEBUG_VALUE: i2c_master_async_comb:i <- R7
	#DEBUG_VALUE: i2c_master_async_comb:n <- R6
	#DEBUG_VALUE: i2c_master_async_comb:p_scl <- R5
	#DEBUG_VALUE: i2c_master_async_comb:p_sda <- [R10+24]
	#DEBUG_VALUE: i2c_master_async_comb:kbits_per_second <- [R10+124]
	#DEBUG_VALUE: i2c_master_async_comb:max_transaction_size <- undef
	#DEBUG_VALUE: SLIP_THRESHOLD <- 100
	stw r3, r10[10]                 # 4-byte Folded Spill
	ldc r1, 20
	stw r3, r10[r1]                 # 4-byte Folded Spill
	mov r0, r4
	ldc r1, 22
	stw r9, r10[r1]                 # 4-byte Folded Spill
	ldc r11, 0
	bu .LBB45_4
.Ltmp320:
.Ltmp306:                               # Block address taken
.LBB45_12:                              # %selectcase9
                                        #   in Loop: Header=BB45_4 Depth=2
.Lxtalabel11:
	#DEBUG_VALUE: i2c_master_async_comb:i <- R7
	#DEBUG_VALUE: i2c_master_async_comb:n <- R6
	#DEBUG_VALUE: i2c_master_async_comb:p_scl <- R5
	#DEBUG_VALUE: i2c_master_async_comb:p_sda <- [R10+24]
	#DEBUG_VALUE: i2c_master_async_comb:kbits_per_second <- [R10+124]
	#DEBUG_VALUE: i2c_master_async_comb:max_transaction_size <- undef
	.loc	2 231 0                 # C:/Users/user/workspace/lib_i2c/src/i2c_master_async.xc:231:0
.Lxta.endpoint_labels1:
	in r1, res[r8]
.Ltmp321:
	#DEBUG_VALUE: now <- R1
	#DEBUG_VALUE: adjust_for_slip:fall_time <- R1
	#DEBUG_VALUE: adjust_for_slip:fall_time <- R1
	#DEBUG_VALUE: adjust_for_slip:fall_time <- R1
	#DEBUG_VALUE: adjust_for_slip:fall_time <- R1
	#DEBUG_VALUE: adjust_for_slip:fall_time <- R1
	#DEBUG_VALUE: adjust_for_slip:fall_time <- R1
	#DEBUG_VALUE: adjust_for_slip:fall_time <- R1
	#DEBUG_VALUE: adjust_for_slip:fall_time <- R1
	#DEBUG_VALUE: adjust_for_slip:fall_time <- R1
	#DEBUG_VALUE: adjust_for_slip:fall_time <- R1
	#DEBUG_VALUE: adjust_for_slip:fall_time <- R1
	#DEBUG_VALUE: fall_time <- R1
	#DEBUG_VALUE: adjust_fall:now <- R1
	#DEBUG_VALUE: adjust_for_slip:now <- R1
	#DEBUG_VALUE: adjust_fall:now <- R1
	#DEBUG_VALUE: adjust_for_slip:now <- R1
	#DEBUG_VALUE: adjust_for_slip:now <- R1
	#DEBUG_VALUE: adjust_fall:now <- R1
	#DEBUG_VALUE: adjust_for_slip:now <- R1
	#DEBUG_VALUE: adjust_for_slip:now <- R1
	#DEBUG_VALUE: adjust_fall:now <- R1
	#DEBUG_VALUE: adjust_for_slip:now <- R1
	#DEBUG_VALUE: adjust_fall:now <- R1
	#DEBUG_VALUE: adjust_for_slip:now <- R1
	#DEBUG_VALUE: adjust_for_slip:now <- R1
	.loc	2 232 0                 # C:/Users/user/workspace/lib_i2c/src/i2c_master_async.xc:232:0
	ldc r4, 21
	ldw r0, r10[r4]                 # 4-byte Folded Reload
	shr r0, r0, 1
	ldc r2, 8
	lsu r2, r2, r0
	mov r0, r3
	ldc r4, 23
	ldw r11, r10[r4]                # 4-byte Folded Reload
	bt r2, .LBB45_4
.Ltmp322:
# BB#13:                                # %selectcase9
                                        #   in Loop: Header=BB45_4 Depth=2
.Lxtalabel12:
	#DEBUG_VALUE: i2c_master_async_comb:i <- R7
	#DEBUG_VALUE: i2c_master_async_comb:n <- R6
	#DEBUG_VALUE: i2c_master_async_comb:p_scl <- R5
	#DEBUG_VALUE: i2c_master_async_comb:p_sda <- [R10+24]
	#DEBUG_VALUE: i2c_master_async_comb:kbits_per_second <- [R10+124]
	#DEBUG_VALUE: i2c_master_async_comb:max_transaction_size <- undef
	mov r4, r3
	ldc r2, 21
	ldw r0, r10[r2]                 # 4-byte Folded Reload

	.xtabranch .Ljumptable1+2,.Ljumptable1+4,.Ljumptable1+6,.Ljumptable1+8,.Ljumptable1+10,.Ljumptable1+12,.Ljumptable1+14,.Ljumptable1+16,.Ljumptable1+18,.Ljumptable1+20,.Ljumptable1+22,.Ljumptable1+24,.Ljumptable1+26,.Ljumptable1+28,.Ljumptable1+30,.Ljumptable1+32,.Ljumptable1+34,.Ljumptable1+36
.Ljumptable1:
		
	bru r0
	.jmptable .LBB45_95,.LBB45_25,.LBB45_26,.LBB45_27,.LBB45_31,.LBB45_35,.LBB45_39,.LBB45_42,.LBB45_47,.LBB45_65,.LBB45_67,.LBB45_77,.LBB45_71,.LBB45_84,.LBB45_88,.LBB45_90,.LBB45_92,.LBB45_93
.Ltmp323:
.LBB45_25:                              # %switchcase66
                                        #   in Loop: Header=BB45_4 Depth=2
.Lxtalabel13:
	#DEBUG_VALUE: i2c_master_async_comb:i <- R7
	#DEBUG_VALUE: i2c_master_async_comb:n <- R6
	#DEBUG_VALUE: i2c_master_async_comb:p_scl <- R5
	#DEBUG_VALUE: i2c_master_async_comb:p_sda <- [R10+24]
	#DEBUG_VALUE: i2c_master_async_comb:kbits_per_second <- [R10+124]
	#DEBUG_VALUE: i2c_master_async_comb:max_transaction_size <- undef
	.loc	2 234 19                # C:/Users/user/workspace/lib_i2c/src/i2c_master_async.xc:234:19
	ldw r0, r10[6]                  # 4-byte Folded Reload
	ldc r2, 0
.Lxta.endpoint_labels2:
	out res[r0], r2
	.loc	2 235 0                 # C:/Users/user/workspace/lib_i2c/src/i2c_master_async.xc:235:0
	ldw r0, r10[4]                  # 4-byte Folded Reload
	add r0, r1, r0
.Ltmp324:
	#DEBUG_VALUE: adjust_for_slip:event_time <- [R10+80]
	#DEBUG_VALUE: adjust_for_slip:event_time <- [R10+80]
	#DEBUG_VALUE: adjust_for_slip:event_time <- [R10+80]
	#DEBUG_VALUE: adjust_for_slip:event_time <- [R10+80]
	#DEBUG_VALUE: adjust_for_slip:event_time <- [R10+80]
	#DEBUG_VALUE: adjust_for_slip:event_time <- [R10+80]
	#DEBUG_VALUE: adjust_for_slip:event_time <- [R10+80]
	#DEBUG_VALUE: adjust_for_slip:event_time <- [R10+80]
	#DEBUG_VALUE: adjust_for_slip:event_time <- [R10+80]
	#DEBUG_VALUE: adjust_for_slip:event_time <- [R10+80]
	#DEBUG_VALUE: adjust_for_slip:event_time <- [R10+80]
	#DEBUG_VALUE: adjust_for_slip:event_time <- [R10+80]
	#DEBUG_VALUE: event_time <- [R10+80]
	#DEBUG_VALUE: state <- 2
	ldc r2, 20
	stw r0, r10[r2]                 # 4-byte Folded Spill
	mov r0, r4
	ldc r1, 2
	bu .LBB45_41
.Ltmp325:
.Ltmp309:                               # Block address taken
.LBB45_14:                              # %selectcase15
                                        #   in Loop: Header=BB45_4 Depth=2
.Lxtalabel14:
	#DEBUG_VALUE: i2c_master_async_comb:i <- R7
	#DEBUG_VALUE: i2c_master_async_comb:n <- R6
	#DEBUG_VALUE: i2c_master_async_comb:p_scl <- R5
	#DEBUG_VALUE: i2c_master_async_comb:p_sda <- [R10+24]
	#DEBUG_VALUE: i2c_master_async_comb:kbits_per_second <- [R10+124]
	#DEBUG_VALUE: i2c_master_async_comb:max_transaction_size <- undef
	mov r8, r3
	ldc r5, 0
.Ltmp326:
	#DEBUG_VALUE: i2c_master_async_comb:p_scl <- [R10+72]
	.loc	2 407 0                 # C:/Users/user/workspace/lib_i2c/src/i2c_master_async.xc:407:0
	get r11, ed
	mov r4, r11
	.loc	2 407 0                 # C:/Users/user/workspace/lib_i2c/src/i2c_master_async.xc:407:0
	zext r4, 16
.Ltmp327:
	#DEBUG_VALUE: j <- R4
	#DEBUG_VALUE: cur_client <- R4
	ldw r1, r7[r4]
	ldw r0, r1[0]
	in r3, res[r0]
	ldc r2, 254
	add r2, r3, r2
	zext r2, 8
	sub r3, r3, r2
	setd res[r0], r3
	ldc r3, 4
	lsu r3, r3, r2
	bt r3, .LBB45_96
.Ltmp328:
# BB#15:                                # %selectcase15
                                        #   in Loop: Header=BB45_4 Depth=2
.Lxtalabel15:
	#DEBUG_VALUE: i2c_master_async_comb:i <- R7
	#DEBUG_VALUE: i2c_master_async_comb:n <- R6
	#DEBUG_VALUE: i2c_master_async_comb:p_scl <- [R10+72]
	#DEBUG_VALUE: i2c_master_async_comb:p_sda <- [R10+24]
	#DEBUG_VALUE: i2c_master_async_comb:kbits_per_second <- [R10+124]
	#DEBUG_VALUE: i2c_master_async_comb:max_transaction_size <- undef

	.xtabranch .Ljumptable2+2,.Ljumptable2+4,.Ljumptable2+6,.Ljumptable2+8,.Ljumptable2+10
.Ljumptable2:
		
	bru r2
	.jmptable .LBB45_109,.LBB45_107,.LBB45_103,.LBB45_97,.LBB45_100
.Ltmp329:
.LBB45_109:                             # %switchcase493
                                        #   in Loop: Header=BB45_4 Depth=2
	#DEBUG_VALUE: i2c_master_async_comb:i <- R7
	#DEBUG_VALUE: i2c_master_async_comb:n <- R6
	#DEBUG_VALUE: i2c_master_async_comb:p_scl <- [R10+72]
	#DEBUG_VALUE: i2c_master_async_comb:p_sda <- [R10+24]
	#DEBUG_VALUE: i2c_master_async_comb:kbits_per_second <- [R10+124]
	#DEBUG_VALUE: i2c_master_async_comb:max_transaction_size <- undef
	outct res[r0], 1
	int r1, res[r0]
	in r3, res[r0]
.Ltmp330:
	#DEBUG_VALUE: n <- R3
	#DEBUG_VALUE: num_bytes <- R3
	in r2, res[r0]
.Ltmp331:
	#DEBUG_VALUE: send_stop_bit <- R2
	#DEBUG_VALUE: optype <- 0
	#DEBUG_VALUE: bitnum <- 0
	ldc r11, 32
	ldw r2, r10[r11]
.Ltmp332:
	.loc	2 413 0                 # C:/Users/user/workspace/lib_i2c/src/i2c_master_async.xc:413:0
	lsu r2, r2, r3
.Ltrap_info3:
	ecallt r2
	#DEBUG_VALUE: i2c_master_async_comb:i <- R7
	#DEBUG_VALUE: i2c_master_async_comb:n <- R6
	#DEBUG_VALUE: i2c_master_async_comb:p_scl <- [R10+72]
	#DEBUG_VALUE: i2c_master_async_comb:p_sda <- [R10+24]
	#DEBUG_VALUE: i2c_master_async_comb:kbits_per_second <- [R10+124]
	#DEBUG_VALUE: i2c_master_async_comb:max_transaction_size <- undef
	#DEBUG_VALUE: bitnum <- 0
	#DEBUG_VALUE: num_bytes <- R3
	#DEBUG_VALUE: optype <- 0
	#DEBUG_VALUE: n <- R3
	.loc	2 409 0                 # C:/Users/user/workspace/lib_i2c/src/i2c_master_async.xc:409:0
	shl r1, r1, 1
	.loc	2 413 0                 # C:/Users/user/workspace/lib_i2c/src/i2c_master_async.xc:413:0
	mkmsk r11, 4
	stw r1, r10[r11]                # 4-byte Folded Spill
	# STACKUP 
	# ALLOCA 2
	extsp 2
	stw r3, sp[1]
	ldc r11, 14
	stw r3, r10[r11]                # 4-byte Folded Spill
.Ltmp333:
	#DEBUG_VALUE: n <- [R10+56]
	#DEBUG_VALUE: num_bytes <- [R10+56]
	mov r1, r5
	ldw r2, r10[11]                 # 4-byte Folded Reload
	mov r3, r5
	bl __interface_block_load
	ldaw sp, sp[2]
	# STACKDOWN
.Ltmp334:
	#DEBUG_VALUE: bytes_sent <- -1
	#DEBUG_VALUE: timer_enabled <- 1
	.loc	2 419 0                 # C:/Users/user/workspace/lib_i2c/src/i2c_master_async.xc:419:0
	gettime r0
.Ltmp335:
	#DEBUG_VALUE: adjust_for_slip:event_time <- [R10+80]
	#DEBUG_VALUE: adjust_for_slip:event_time <- [R10+80]
	#DEBUG_VALUE: adjust_for_slip:event_time <- [R10+80]
	#DEBUG_VALUE: adjust_for_slip:event_time <- [R10+80]
	#DEBUG_VALUE: adjust_for_slip:event_time <- [R10+80]
	#DEBUG_VALUE: adjust_for_slip:event_time <- [R10+80]
	#DEBUG_VALUE: adjust_for_slip:event_time <- [R10+80]
	#DEBUG_VALUE: adjust_for_slip:event_time <- [R10+80]
	#DEBUG_VALUE: adjust_for_slip:event_time <- [R10+80]
	#DEBUG_VALUE: adjust_for_slip:event_time <- [R10+80]
	#DEBUG_VALUE: adjust_for_slip:event_time <- [R10+80]
	#DEBUG_VALUE: adjust_for_slip:event_time <- [R10+80]
	#DEBUG_VALUE: event_time <- [R10+80]
	#DEBUG_VALUE: state <- 1
	ldc r2, 20
	stw r0, r10[r2]                 # 4-byte Folded Spill
	ldw r0, r7[r4]
	ldw r0, r0[0]
	out res[r0], r5
	outct res[r0], 1
	mov r0, r8
	ldc r2, 12
	stw r4, r10[r2]                 # 4-byte Folded Spill
	mkmsk r1, 32
	ldc r2, 17
	stw r1, r10[r2]                 # 4-byte Folded Spill
	ldc r1, 16
	stw r5, r10[r1]                 # 4-byte Folded Spill
	ldc r1, 13
	stw r5, r10[r1]                 # 4-byte Folded Spill
	bu .LBB45_108
.Ltmp336:
.LBB45_107:                             # %switchcase481
                                        #   in Loop: Header=BB45_4 Depth=2
	#DEBUG_VALUE: i2c_master_async_comb:i <- R7
	#DEBUG_VALUE: i2c_master_async_comb:n <- R6
	#DEBUG_VALUE: i2c_master_async_comb:p_scl <- [R10+72]
	#DEBUG_VALUE: i2c_master_async_comb:p_sda <- [R10+24]
	#DEBUG_VALUE: i2c_master_async_comb:kbits_per_second <- [R10+124]
	#DEBUG_VALUE: i2c_master_async_comb:max_transaction_size <- undef
	outct res[r0], 1
	int r1, res[r0]
	in r2, res[r0]
.Ltmp337:
	#DEBUG_VALUE: n <- [R10+56]
	#DEBUG_VALUE: num_bytes <- [R10+56]
	ldc r3, 14
	stw r2, r10[r3]                 # 4-byte Folded Spill
	in r2, res[r0]
.Ltmp338:
	#DEBUG_VALUE: send_stop_bit <- R2
	.loc	2 424 0                 # C:/Users/user/workspace/lib_i2c/src/i2c_master_async.xc:424:0
	shl r1, r1, 1
	.loc	2 424 0                 # C:/Users/user/workspace/lib_i2c/src/i2c_master_async.xc:424:0
	or r1, r1, r9
.Ltmp339:
	#DEBUG_VALUE: optype <- 1
	#DEBUG_VALUE: bytes_sent <- -1
	#DEBUG_VALUE: bitnum <- 0
	#DEBUG_VALUE: data <- [R10+60]
	#DEBUG_VALUE: timer_enabled <- 1
	.loc	2 433 0                 # C:/Users/user/workspace/lib_i2c/src/i2c_master_async.xc:433:0
	mkmsk r2, 4
.Ltmp340:
	stw r1, r10[r2]                 # 4-byte Folded Spill
	gettime r1
.Ltmp341:
	#DEBUG_VALUE: adjust_for_slip:event_time <- [R10+80]
	#DEBUG_VALUE: adjust_for_slip:event_time <- [R10+80]
	#DEBUG_VALUE: adjust_for_slip:event_time <- [R10+80]
	#DEBUG_VALUE: adjust_for_slip:event_time <- [R10+80]
	#DEBUG_VALUE: adjust_for_slip:event_time <- [R10+80]
	#DEBUG_VALUE: adjust_for_slip:event_time <- [R10+80]
	#DEBUG_VALUE: adjust_for_slip:event_time <- [R10+80]
	#DEBUG_VALUE: adjust_for_slip:event_time <- [R10+80]
	#DEBUG_VALUE: adjust_for_slip:event_time <- [R10+80]
	#DEBUG_VALUE: adjust_for_slip:event_time <- [R10+80]
	#DEBUG_VALUE: adjust_for_slip:event_time <- [R10+80]
	#DEBUG_VALUE: adjust_for_slip:event_time <- [R10+80]
	#DEBUG_VALUE: event_time <- [R10+80]
	#DEBUG_VALUE: state <- 1
	ldc r2, 20
	stw r1, r10[r2]                 # 4-byte Folded Spill
	out res[r0], r5
	outct res[r0], 1
	mov r0, r8
	ldc r2, 12
	stw r4, r10[r2]                 # 4-byte Folded Spill
	mkmsk r1, 32
	ldc r2, 17
	stw r1, r10[r2]                 # 4-byte Folded Spill
	ldc r1, 16
	stw r5, r10[r1]                 # 4-byte Folded Spill
	ldc r1, 13
	stw r9, r10[r1]                 # 4-byte Folded Spill
.Ltmp342:
.LBB45_108:                             # %LoopBody
                                        #   in Loop: Header=BB45_4 Depth=2
.Lxtalabel16:
	ldc r1, 22
	stw r9, r10[r1]                 # 4-byte Folded Spill
	ldc r1, 21
	stw r9, r10[r1]                 # 4-byte Folded Spill
	bu .LBB45_102
.LBB45_103:                             # %switchcase371
                                        #   in Loop: Header=BB45_4 Depth=2
.Ltmp343:
	#DEBUG_VALUE: i2c_master_async_comb:i <- R7
	#DEBUG_VALUE: i2c_master_async_comb:n <- R6
	#DEBUG_VALUE: i2c_master_async_comb:p_scl <- [R10+72]
	#DEBUG_VALUE: i2c_master_async_comb:p_sda <- [R10+24]
	#DEBUG_VALUE: i2c_master_async_comb:kbits_per_second <- [R10+124]
	#DEBUG_VALUE: i2c_master_async_comb:max_transaction_size <- undef
	outct res[r0], 1
	in r2, res[r0]
	ldw r3, r1[4]
	eq r2, r3, r2
	bt r2, .LBB45_104
.Ltmp344:
# BB#106:                               # %refillchan448
                                        #   in Loop: Header=BB45_4 Depth=2
	#DEBUG_VALUE: i2c_master_async_comb:i <- R7
	#DEBUG_VALUE: i2c_master_async_comb:n <- R6
	#DEBUG_VALUE: i2c_master_async_comb:p_scl <- [R10+72]
	#DEBUG_VALUE: i2c_master_async_comb:p_sda <- [R10+24]
	#DEBUG_VALUE: i2c_master_async_comb:kbits_per_second <- [R10+124]
	#DEBUG_VALUE: i2c_master_async_comb:max_transaction_size <- undef
	ldw r2, r1[2]
	ldw r3, r1[3]
	#APP
	getd r11, res[r2]
	#NO_APP
	setd res[r2], r3
	outct res[r2], 1
	setd res[r2], r11
.Ltmp345:
.LBB45_104:                             # %afternotifycheck447
                                        #   in Loop: Header=BB45_4 Depth=2
	#DEBUG_VALUE: i2c_master_async_comb:i <- R7
	#DEBUG_VALUE: i2c_master_async_comb:n <- R6
	#DEBUG_VALUE: i2c_master_async_comb:p_scl <- [R10+72]
	#DEBUG_VALUE: i2c_master_async_comb:p_sda <- [R10+24]
	#DEBUG_VALUE: i2c_master_async_comb:kbits_per_second <- [R10+124]
	#DEBUG_VALUE: i2c_master_async_comb:max_transaction_size <- undef
	stw r9, r1[4]
	in r1, res[r0]
.Ltmp346:
	#DEBUG_VALUE: num_bytes_sent <- R1
	out res[r0], r5
	ldc r2, 17
	ldw r1, r10[r2]                 # 4-byte Folded Reload
.Ltmp347:
	out res[r0], r1
	bu .LBB45_105
.Ltmp348:
.LBB45_97:                              # %switchcase360
                                        #   in Loop: Header=BB45_4 Depth=2
	#DEBUG_VALUE: i2c_master_async_comb:i <- R7
	#DEBUG_VALUE: i2c_master_async_comb:n <- R6
	#DEBUG_VALUE: i2c_master_async_comb:p_scl <- [R10+72]
	#DEBUG_VALUE: i2c_master_async_comb:p_sda <- [R10+24]
	#DEBUG_VALUE: i2c_master_async_comb:kbits_per_second <- [R10+124]
	#DEBUG_VALUE: i2c_master_async_comb:max_transaction_size <- undef
	outct res[r0], 1
	in r0, res[r0]
	ldw r2, r1[4]
	eq r0, r2, r0
	bt r0, .LBB45_98
.Ltmp349:
# BB#99:                                # %refillchan
                                        #   in Loop: Header=BB45_4 Depth=2
	#DEBUG_VALUE: i2c_master_async_comb:i <- R7
	#DEBUG_VALUE: i2c_master_async_comb:n <- R6
	#DEBUG_VALUE: i2c_master_async_comb:p_scl <- [R10+72]
	#DEBUG_VALUE: i2c_master_async_comb:p_sda <- [R10+24]
	#DEBUG_VALUE: i2c_master_async_comb:kbits_per_second <- [R10+124]
	#DEBUG_VALUE: i2c_master_async_comb:max_transaction_size <- undef
	ldw r0, r1[2]
	ldw r2, r1[3]
	#APP
	getd r3, res[r0]
	#NO_APP
	setd res[r0], r2
	outct res[r0], 1
	setd res[r0], r3
.Ltmp350:
.LBB45_98:                              # %afternotifycheck
                                        #   in Loop: Header=BB45_4 Depth=2
	#DEBUG_VALUE: i2c_master_async_comb:i <- R7
	#DEBUG_VALUE: i2c_master_async_comb:n <- R6
	#DEBUG_VALUE: i2c_master_async_comb:p_scl <- [R10+72]
	#DEBUG_VALUE: i2c_master_async_comb:p_sda <- [R10+24]
	#DEBUG_VALUE: i2c_master_async_comb:kbits_per_second <- [R10+124]
	#DEBUG_VALUE: i2c_master_async_comb:max_transaction_size <- undef
	stw r9, r1[4]
	.loc	2 445 0                 # C:/Users/user/workspace/lib_i2c/src/i2c_master_async.xc:445:0
	ldw r0, r7[r4]
	.loc	2 445 0                 # C:/Users/user/workspace/lib_i2c/src/i2c_master_async.xc:445:0
	ldw r0, r0[0]
	in r1, res[r0]
.Ltmp351:
	#DEBUG_VALUE: n <- R1
	ldc r3, 32
	ldw r2, r10[r3]
	.loc	2 446 0                 # C:/Users/user/workspace/lib_i2c/src/i2c_master_async.xc:446:0
	lsu r2, r2, r1
.Ltrap_info4:
	ecallt r2
	#DEBUG_VALUE: i2c_master_async_comb:i <- R7
	#DEBUG_VALUE: i2c_master_async_comb:n <- R6
	#DEBUG_VALUE: i2c_master_async_comb:p_scl <- [R10+72]
	#DEBUG_VALUE: i2c_master_async_comb:p_sda <- [R10+24]
	#DEBUG_VALUE: i2c_master_async_comb:kbits_per_second <- [R10+124]
	#DEBUG_VALUE: i2c_master_async_comb:max_transaction_size <- undef
	#DEBUG_VALUE: n <- R1
	.loc	2 446 0                 # C:/Users/user/workspace/lib_i2c/src/i2c_master_async.xc:446:0
	# STACKUP 
	# ALLOCA 1
	extsp 2
	stw r1, sp[1]
	mov r1, r5
.Ltmp352:
	ldw r2, r10[11]                 # 4-byte Folded Reload
	mov r3, r5
	bl __interface_block_store
	ldaw sp, sp[2]
	# STACKDOWN
	ldw r0, r7[r4]
	ldw r0, r0[0]
	out res[r0], r5
.Ltmp353:
.LBB45_105:                             # %LoopBody
                                        #   in Loop: Header=BB45_4 Depth=2
.Lxtalabel17:
	out res[r0], r8
	bu .LBB45_101
.LBB45_100:                             # %switchcase428
                                        #   in Loop: Header=BB45_4 Depth=2
.Ltmp354:
	#DEBUG_VALUE: i2c_master_async_comb:i <- R7
	#DEBUG_VALUE: i2c_master_async_comb:n <- R6
	#DEBUG_VALUE: i2c_master_async_comb:p_scl <- [R10+72]
	#DEBUG_VALUE: i2c_master_async_comb:p_sda <- [R10+24]
	#DEBUG_VALUE: i2c_master_async_comb:kbits_per_second <- [R10+124]
	#DEBUG_VALUE: i2c_master_async_comb:max_transaction_size <- undef
	out res[r0], r5
.Ltmp355:
.LBB45_101:                             # %LoopBody
                                        #   in Loop: Header=BB45_4 Depth=2
.Lxtalabel18:
	outct res[r0], 1
	mov r0, r8
.LBB45_102:                             # %LoopBody
                                        #   in Loop: Header=BB45_4 Depth=2
.Lxtalabel19:
	ldc r1, 18
	ldw r5, r10[r1]                 # 4-byte Folded Reload
.Ltmp356:
	#DEBUG_VALUE: i2c_master_async_comb:p_scl <- R5
	ldc r1, 19
	ldw r8, r10[r1]                 # 4-byte Folded Reload
	bu .LBB45_56
.Ltmp357:
.LBB45_20:                              # %switchcase30
                                        #   in Loop: Header=BB45_4 Depth=2
.Lxtalabel20:
	#DEBUG_VALUE: i2c_master_async_comb:i <- R7
	#DEBUG_VALUE: i2c_master_async_comb:n <- R6
	#DEBUG_VALUE: i2c_master_async_comb:p_scl <- R5
	#DEBUG_VALUE: i2c_master_async_comb:p_sda <- [R10+24]
	#DEBUG_VALUE: i2c_master_async_comb:kbits_per_second <- [R10+124]
	#DEBUG_VALUE: i2c_master_async_comb:max_transaction_size <- undef
	.loc	2 211 0                 # C:/Users/user/workspace/lib_i2c/src/i2c_master_async.xc:211:0
	ldw r0, r10[9]                  # 4-byte Folded Reload
	ldw r2, r10[10]                 # 4-byte Folded Reload
	add r2, r2, r0
.Ltmp358:
	#DEBUG_VALUE: adjust_for_slip:fall_time <- R2
	#DEBUG_VALUE: adjust_for_slip:fall_time <- R2
	#DEBUG_VALUE: adjust_for_slip:fall_time <- R2
	#DEBUG_VALUE: adjust_for_slip:fall_time <- R2
	#DEBUG_VALUE: adjust_for_slip:fall_time <- R2
	#DEBUG_VALUE: adjust_for_slip:fall_time <- R2
	#DEBUG_VALUE: adjust_for_slip:fall_time <- R2
	#DEBUG_VALUE: adjust_for_slip:fall_time <- R2
	#DEBUG_VALUE: adjust_for_slip:fall_time <- R2
	#DEBUG_VALUE: adjust_for_slip:fall_time <- R2
	#DEBUG_VALUE: adjust_for_slip:fall_time <- R2
	#DEBUG_VALUE: fall_time <- R2
	.loc	2 212 0                 # C:/Users/user/workspace/lib_i2c/src/i2c_master_async.xc:212:0
	stw r2, r10[10]                 # 4-byte Folded Spill
	ldw r0, r10[8]                  # 4-byte Folded Reload
	sub r0, r2, r0
.Ltmp359:
	#DEBUG_VALUE: SLIP_THRESHOLD <- 100
	#DEBUG_VALUE: adjust_for_slip:event_time <- R0
	#DEBUG_VALUE: adjust_for_slip:event_time <- R0
	#DEBUG_VALUE: adjust_for_slip:event_time <- R0
	#DEBUG_VALUE: adjust_for_slip:event_time <- R0
	#DEBUG_VALUE: adjust_for_slip:event_time <- R0
	#DEBUG_VALUE: adjust_for_slip:event_time <- R0
	#DEBUG_VALUE: adjust_for_slip:event_time <- R0
	#DEBUG_VALUE: adjust_for_slip:event_time <- R0
	#DEBUG_VALUE: adjust_for_slip:event_time <- R0
	#DEBUG_VALUE: adjust_for_slip:event_time <- R0
	#DEBUG_VALUE: adjust_for_slip:event_time <- R0
	#DEBUG_VALUE: adjust_for_slip:event_time <- R0
	#DEBUG_VALUE: event_time <- R0
	.loc	2 150 3                 # C:/Users/user/workspace/lib_i2c/src/i2c_master_async.xc:150:3
	ldc r3, 20
	stw r0, r10[r3]                 # 4-byte Folded Spill
.Ltmp360:
	#DEBUG_VALUE: adjust_for_slip:fall_time <- [R10+40]
	#DEBUG_VALUE: adjust_for_slip:fall_time <- [R10+40]
	#DEBUG_VALUE: adjust_for_slip:fall_time <- [R10+40]
	#DEBUG_VALUE: adjust_for_slip:fall_time <- [R10+40]
	#DEBUG_VALUE: adjust_for_slip:fall_time <- [R10+40]
	#DEBUG_VALUE: adjust_for_slip:fall_time <- [R10+40]
	#DEBUG_VALUE: adjust_for_slip:fall_time <- [R10+40]
	#DEBUG_VALUE: adjust_for_slip:fall_time <- [R10+40]
	#DEBUG_VALUE: adjust_for_slip:fall_time <- [R10+40]
	#DEBUG_VALUE: adjust_for_slip:fall_time <- [R10+40]
	#DEBUG_VALUE: adjust_for_slip:fall_time <- [R10+40]
	#DEBUG_VALUE: fall_time <- [R10+40]
	sub r0, r0, r1
.Ltmp361:
	#DEBUG_VALUE: adjust_for_slip:event_time <- [R10+80]
	#DEBUG_VALUE: adjust_for_slip:event_time <- [R10+80]
	#DEBUG_VALUE: adjust_for_slip:event_time <- [R10+80]
	#DEBUG_VALUE: adjust_for_slip:event_time <- [R10+80]
	#DEBUG_VALUE: adjust_for_slip:event_time <- [R10+80]
	#DEBUG_VALUE: adjust_for_slip:event_time <- [R10+80]
	#DEBUG_VALUE: adjust_for_slip:event_time <- [R10+80]
	#DEBUG_VALUE: adjust_for_slip:event_time <- [R10+80]
	#DEBUG_VALUE: adjust_for_slip:event_time <- [R10+80]
	#DEBUG_VALUE: adjust_for_slip:event_time <- [R10+80]
	#DEBUG_VALUE: adjust_for_slip:event_time <- [R10+80]
	#DEBUG_VALUE: adjust_for_slip:event_time <- [R10+80]
	#DEBUG_VALUE: event_time <- [R10+80]
	ldc r2, 99
	.loc	2 150 3                 # C:/Users/user/workspace/lib_i2c/src/i2c_master_async.xc:150:3
	lss r2, r2, r0
	mov r0, r4
	ldc r3, 22
	stw r9, r10[r3]                 # 4-byte Folded Spill
	ldc r11, 0
	mkmsk r3, 3
	stw r0, r10[0]
	ldc r0, 21
	stw r3, r10[r0]                 # 4-byte Folded Spill
	ldw r0, r10[0]
	bt r2, .LBB45_4
.Ltmp362:
# BB#21:                                # %iftrue.i604
                                        #   in Loop: Header=BB45_4 Depth=2
.Lxtalabel21:
	#DEBUG_VALUE: i2c_master_async_comb:i <- R7
	#DEBUG_VALUE: i2c_master_async_comb:n <- R6
	#DEBUG_VALUE: i2c_master_async_comb:p_scl <- R5
	#DEBUG_VALUE: i2c_master_async_comb:p_sda <- [R10+24]
	#DEBUG_VALUE: i2c_master_async_comb:kbits_per_second <- [R10+124]
	#DEBUG_VALUE: i2c_master_async_comb:max_transaction_size <- undef
	#DEBUG_VALUE: SLIP_THRESHOLD <- 100
	ldc r0, 100
	.loc	2 151 0                 # C:/Users/user/workspace/lib_i2c/src/i2c_master_async.xc:151:0
.Ltmp363:
	add r1, r1, r0
.Ltmp364:
	#DEBUG_VALUE: new_event_time <- R1
	#DEBUG_VALUE: adjust_for_slip:event_time <- R1
	#DEBUG_VALUE: adjust_for_slip:event_time <- R1
	#DEBUG_VALUE: adjust_for_slip:event_time <- R1
	#DEBUG_VALUE: adjust_for_slip:event_time <- R1
	#DEBUG_VALUE: adjust_for_slip:event_time <- R1
	#DEBUG_VALUE: adjust_for_slip:event_time <- R1
	#DEBUG_VALUE: adjust_for_slip:event_time <- R1
	#DEBUG_VALUE: adjust_for_slip:event_time <- R1
	#DEBUG_VALUE: adjust_for_slip:event_time <- R1
	#DEBUG_VALUE: adjust_for_slip:event_time <- R1
	#DEBUG_VALUE: adjust_for_slip:event_time <- R1
	#DEBUG_VALUE: adjust_for_slip:event_time <- R1
	#DEBUG_VALUE: event_time <- R1
	.loc	2 153 0                 # C:/Users/user/workspace/lib_i2c/src/i2c_master_async.xc:153:0
	ldc r2, 20
	stw r1, r10[r2]                 # 4-byte Folded Spill
	ldw r0, r10[8]                  # 4-byte Folded Reload
	add r0, r0, r1
.Ltmp365:
	#DEBUG_VALUE: new_event_time <- [R10+80]
	#DEBUG_VALUE: adjust_for_slip:event_time <- [R10+80]
	#DEBUG_VALUE: adjust_for_slip:event_time <- [R10+80]
	#DEBUG_VALUE: adjust_for_slip:event_time <- [R10+80]
	#DEBUG_VALUE: adjust_for_slip:event_time <- [R10+80]
	#DEBUG_VALUE: adjust_for_slip:event_time <- [R10+80]
	#DEBUG_VALUE: adjust_for_slip:event_time <- [R10+80]
	#DEBUG_VALUE: adjust_for_slip:event_time <- [R10+80]
	#DEBUG_VALUE: adjust_for_slip:event_time <- [R10+80]
	#DEBUG_VALUE: adjust_for_slip:event_time <- [R10+80]
	#DEBUG_VALUE: adjust_for_slip:event_time <- [R10+80]
	#DEBUG_VALUE: adjust_for_slip:event_time <- [R10+80]
	#DEBUG_VALUE: adjust_for_slip:event_time <- [R10+80]
	#DEBUG_VALUE: event_time <- [R10+80]
	#DEBUG_VALUE: adjust_for_slip:fall_time <- [R10+40]
	#DEBUG_VALUE: adjust_for_slip:fall_time <- [R10+40]
	#DEBUG_VALUE: adjust_for_slip:fall_time <- [R10+40]
	#DEBUG_VALUE: adjust_for_slip:fall_time <- [R10+40]
	#DEBUG_VALUE: adjust_for_slip:fall_time <- [R10+40]
	#DEBUG_VALUE: adjust_for_slip:fall_time <- [R10+40]
	#DEBUG_VALUE: adjust_for_slip:fall_time <- [R10+40]
	#DEBUG_VALUE: adjust_for_slip:fall_time <- [R10+40]
	#DEBUG_VALUE: adjust_for_slip:fall_time <- [R10+40]
	#DEBUG_VALUE: adjust_for_slip:fall_time <- [R10+40]
	#DEBUG_VALUE: adjust_for_slip:fall_time <- [R10+40]
	#DEBUG_VALUE: fall_time <- [R10+40]
	stw r0, r10[10]                 # 4-byte Folded Spill
	mov r0, r4
	ldc r2, 22
	stw r9, r10[r2]                 # 4-byte Folded Spill
	ldc r11, 0
	mkmsk r1, 3
	bu .LBB45_41
.Ltmp366:
.LBB45_23:                              # %switchcase43
                                        #   in Loop: Header=BB45_4 Depth=2
.Lxtalabel22:
	#DEBUG_VALUE: i2c_master_async_comb:i <- R7
	#DEBUG_VALUE: i2c_master_async_comb:n <- R6
	#DEBUG_VALUE: i2c_master_async_comb:p_scl <- R5
	#DEBUG_VALUE: i2c_master_async_comb:p_sda <- [R10+24]
	#DEBUG_VALUE: i2c_master_async_comb:kbits_per_second <- [R10+124]
	#DEBUG_VALUE: i2c_master_async_comb:max_transaction_size <- undef
	.loc	2 222 0                 # C:/Users/user/workspace/lib_i2c/src/i2c_master_async.xc:222:0
	ldw r0, r10[9]                  # 4-byte Folded Reload
	ldw r2, r10[10]                 # 4-byte Folded Reload
	add r2, r2, r0
.Ltmp367:
	#DEBUG_VALUE: adjust_for_slip:fall_time <- R2
	#DEBUG_VALUE: adjust_for_slip:fall_time <- R2
	#DEBUG_VALUE: adjust_for_slip:fall_time <- R2
	#DEBUG_VALUE: adjust_for_slip:fall_time <- R2
	#DEBUG_VALUE: adjust_for_slip:fall_time <- R2
	#DEBUG_VALUE: adjust_for_slip:fall_time <- R2
	#DEBUG_VALUE: adjust_for_slip:fall_time <- R2
	#DEBUG_VALUE: adjust_for_slip:fall_time <- R2
	#DEBUG_VALUE: adjust_for_slip:fall_time <- R2
	#DEBUG_VALUE: adjust_for_slip:fall_time <- R2
	#DEBUG_VALUE: adjust_for_slip:fall_time <- R2
	#DEBUG_VALUE: fall_time <- R2
	.loc	2 223 0                 # C:/Users/user/workspace/lib_i2c/src/i2c_master_async.xc:223:0
	stw r2, r10[10]                 # 4-byte Folded Spill
	ldw r0, r10[8]                  # 4-byte Folded Reload
	sub r0, r2, r0
.Ltmp368:
	#DEBUG_VALUE: SLIP_THRESHOLD <- 100
	#DEBUG_VALUE: adjust_for_slip:event_time <- R0
	#DEBUG_VALUE: adjust_for_slip:event_time <- R0
	#DEBUG_VALUE: adjust_for_slip:event_time <- R0
	#DEBUG_VALUE: adjust_for_slip:event_time <- R0
	#DEBUG_VALUE: adjust_for_slip:event_time <- R0
	#DEBUG_VALUE: adjust_for_slip:event_time <- R0
	#DEBUG_VALUE: adjust_for_slip:event_time <- R0
	#DEBUG_VALUE: adjust_for_slip:event_time <- R0
	#DEBUG_VALUE: adjust_for_slip:event_time <- R0
	#DEBUG_VALUE: adjust_for_slip:event_time <- R0
	#DEBUG_VALUE: adjust_for_slip:event_time <- R0
	#DEBUG_VALUE: adjust_for_slip:event_time <- R0
	#DEBUG_VALUE: event_time <- R0
	.loc	2 150 3                 # C:/Users/user/workspace/lib_i2c/src/i2c_master_async.xc:150:3
	ldc r3, 20
	stw r0, r10[r3]                 # 4-byte Folded Spill
.Ltmp369:
	#DEBUG_VALUE: adjust_for_slip:fall_time <- [R10+40]
	#DEBUG_VALUE: adjust_for_slip:fall_time <- [R10+40]
	#DEBUG_VALUE: adjust_for_slip:fall_time <- [R10+40]
	#DEBUG_VALUE: adjust_for_slip:fall_time <- [R10+40]
	#DEBUG_VALUE: adjust_for_slip:fall_time <- [R10+40]
	#DEBUG_VALUE: adjust_for_slip:fall_time <- [R10+40]
	#DEBUG_VALUE: adjust_for_slip:fall_time <- [R10+40]
	#DEBUG_VALUE: adjust_for_slip:fall_time <- [R10+40]
	#DEBUG_VALUE: adjust_for_slip:fall_time <- [R10+40]
	#DEBUG_VALUE: adjust_for_slip:fall_time <- [R10+40]
	#DEBUG_VALUE: adjust_for_slip:fall_time <- [R10+40]
	#DEBUG_VALUE: fall_time <- [R10+40]
	sub r0, r0, r1
.Ltmp370:
	#DEBUG_VALUE: adjust_for_slip:event_time <- [R10+80]
	#DEBUG_VALUE: adjust_for_slip:event_time <- [R10+80]
	#DEBUG_VALUE: adjust_for_slip:event_time <- [R10+80]
	#DEBUG_VALUE: adjust_for_slip:event_time <- [R10+80]
	#DEBUG_VALUE: adjust_for_slip:event_time <- [R10+80]
	#DEBUG_VALUE: adjust_for_slip:event_time <- [R10+80]
	#DEBUG_VALUE: adjust_for_slip:event_time <- [R10+80]
	#DEBUG_VALUE: adjust_for_slip:event_time <- [R10+80]
	#DEBUG_VALUE: adjust_for_slip:event_time <- [R10+80]
	#DEBUG_VALUE: adjust_for_slip:event_time <- [R10+80]
	#DEBUG_VALUE: adjust_for_slip:event_time <- [R10+80]
	#DEBUG_VALUE: adjust_for_slip:event_time <- [R10+80]
	#DEBUG_VALUE: event_time <- [R10+80]
	ldc r2, 99
	.loc	2 150 3                 # C:/Users/user/workspace/lib_i2c/src/i2c_master_async.xc:150:3
	lss r2, r2, r0
	mov r0, r4
	ldc r3, 22
	stw r9, r10[r3]                 # 4-byte Folded Spill
	ldc r11, 0
	ldc r3, 10
	stw r0, r10[0]
	ldc r0, 21
	stw r3, r10[r0]                 # 4-byte Folded Spill
	ldw r0, r10[0]
	bt r2, .LBB45_4
.Ltmp371:
# BB#24:                                # %iftrue.i619
                                        #   in Loop: Header=BB45_4 Depth=2
.Lxtalabel23:
	#DEBUG_VALUE: i2c_master_async_comb:i <- R7
	#DEBUG_VALUE: i2c_master_async_comb:n <- R6
	#DEBUG_VALUE: i2c_master_async_comb:p_scl <- R5
	#DEBUG_VALUE: i2c_master_async_comb:p_sda <- [R10+24]
	#DEBUG_VALUE: i2c_master_async_comb:kbits_per_second <- [R10+124]
	#DEBUG_VALUE: i2c_master_async_comb:max_transaction_size <- undef
	#DEBUG_VALUE: SLIP_THRESHOLD <- 100
	ldc r0, 100
	.loc	2 151 0                 # C:/Users/user/workspace/lib_i2c/src/i2c_master_async.xc:151:0
.Ltmp372:
	add r1, r1, r0
.Ltmp373:
	#DEBUG_VALUE: new_event_time <- R1
	#DEBUG_VALUE: adjust_for_slip:event_time <- R1
	#DEBUG_VALUE: adjust_for_slip:event_time <- R1
	#DEBUG_VALUE: adjust_for_slip:event_time <- R1
	#DEBUG_VALUE: adjust_for_slip:event_time <- R1
	#DEBUG_VALUE: adjust_for_slip:event_time <- R1
	#DEBUG_VALUE: adjust_for_slip:event_time <- R1
	#DEBUG_VALUE: adjust_for_slip:event_time <- R1
	#DEBUG_VALUE: adjust_for_slip:event_time <- R1
	#DEBUG_VALUE: adjust_for_slip:event_time <- R1
	#DEBUG_VALUE: adjust_for_slip:event_time <- R1
	#DEBUG_VALUE: adjust_for_slip:event_time <- R1
	#DEBUG_VALUE: adjust_for_slip:event_time <- R1
	#DEBUG_VALUE: event_time <- R1
	.loc	2 153 0                 # C:/Users/user/workspace/lib_i2c/src/i2c_master_async.xc:153:0
	ldc r2, 20
	stw r1, r10[r2]                 # 4-byte Folded Spill
	ldw r0, r10[8]                  # 4-byte Folded Reload
	add r0, r0, r1
.Ltmp374:
	#DEBUG_VALUE: new_event_time <- [R10+80]
	#DEBUG_VALUE: adjust_for_slip:event_time <- [R10+80]
	#DEBUG_VALUE: adjust_for_slip:event_time <- [R10+80]
	#DEBUG_VALUE: adjust_for_slip:event_time <- [R10+80]
	#DEBUG_VALUE: adjust_for_slip:event_time <- [R10+80]
	#DEBUG_VALUE: adjust_for_slip:event_time <- [R10+80]
	#DEBUG_VALUE: adjust_for_slip:event_time <- [R10+80]
	#DEBUG_VALUE: adjust_for_slip:event_time <- [R10+80]
	#DEBUG_VALUE: adjust_for_slip:event_time <- [R10+80]
	#DEBUG_VALUE: adjust_for_slip:event_time <- [R10+80]
	#DEBUG_VALUE: adjust_for_slip:event_time <- [R10+80]
	#DEBUG_VALUE: adjust_for_slip:event_time <- [R10+80]
	#DEBUG_VALUE: adjust_for_slip:event_time <- [R10+80]
	#DEBUG_VALUE: event_time <- [R10+80]
	#DEBUG_VALUE: adjust_for_slip:fall_time <- [R10+40]
	#DEBUG_VALUE: adjust_for_slip:fall_time <- [R10+40]
	#DEBUG_VALUE: adjust_for_slip:fall_time <- [R10+40]
