	.text
	.file	"C:/Users/user/workspace/module_usb_audio/main.xc"
                                        # Start of file scope inline assembly
	.inline_definition delay_seconds
	.inline_definition delay_milliseconds
	.inline_definition delay_microseconds
	.inline_definition XUD_SetReady_Out
	.inline_definition XUD_SetReady_OutPtr
	.inline_definition XUD_SetReady_InPtr
	.inline_definition XUD_SetReady_In
	.inline_definition __i_i2c_master_if_read_reg
	.inline_definition __i_i2c_master_if_write_reg
	.inline_definition __i_i2c_master_if_read_reg8_addr16
	.inline_definition __i_i2c_master_if_write_reg8_addr16
	.inline_definition __i_i2c_master_if_read_reg16
	.inline_definition __i_i2c_master_if_write_reg16
	.inline_definition __i_i2c_master_if_read_reg16_addr8
	.inline_definition __i_i2c_master_if_write_reg16_addr8
	.globalresource 0x10300,"p_i2s_dac[0]","tile[1]"
	.globalresource 0x10100,"p_i2s_adc[0]","tile[1]"
	.globalresource 0x10d00,"p_lrclk","tile[1]"
	.globalresource 0x10c00,"p_bclk","tile[1]"
	.globalresource 0x10e00,"p_mclk_in","tile[1]"
	.globalresource 0x100100,"p_for_mclk_count","tile[1]"
	.globalresource 0x206,"clk_audio_mclk","tile[1]"
	.globalresource 0x306,"clk_audio_bclk","tile[1]"
	.set usb_audio_io.savedstate,6
	.globl usb_audio_io.savedstate
	.set _Susb_audio_io_0.savedstate,6
	.globl _Susb_audio_io_0.savedstate
	.set __main__main_tile_0.savedstate,32
	.globl __main__main_tile_0.savedstate
	.weak _i.beclear_if.swap_buffers.maxchanends.group
	.add_to_set _i.beclear_if.swap_buffers.maxchanends.group, _i.beclear_if._chan.swap_buffers.maxchanends, _i.beclear_if._chan.swap_buffers
	.max_reduce _i.beclear_if.swap_buffers.max.maxchanends, _i.beclear_if.swap_buffers.maxchanends.group, 0
	.weak _i.beclear_if.swap_buffers.maxcores.group
	.add_to_set _i.beclear_if.swap_buffers.maxcores.group, _i.beclear_if._chan.swap_buffers.maxcores, _i.beclear_if._chan.swap_buffers
	.max_reduce _i.beclear_if.swap_buffers.max.maxcores, _i.beclear_if.swap_buffers.maxcores.group, 0
	.weak _i.beclear_if.swap_buffers.maxtimers.group
	.add_to_set _i.beclear_if.swap_buffers.maxtimers.group, _i.beclear_if._chan.swap_buffers.maxtimers, _i.beclear_if._chan.swap_buffers
	.max_reduce _i.beclear_if.swap_buffers.max.maxtimers, _i.beclear_if.swap_buffers.maxtimers.group, 0
	.weak _i.beclear_if.swap_buffers.nstackwords.group
	.globl _i.beclear_if.swap_buffers.nstackwords.group
	.weak _i.beclear_if.swap_buffers.fns.group
	.globl _i.beclear_if.swap_buffers.fns.group
	.add_to_set _i.beclear_if.swap_buffers.nstackwords.group, _i.beclear_if._chan.swap_buffers.nstackwords, _i.beclear_if._chan.swap_buffers
	.add_to_set _i.beclear_if.swap_buffers.fns.group, _i.beclear_if._chan.swap_buffers, _i.beclear_if._chan.swap_buffers
	.max_reduce _i.beclear_if.swap_buffers.max.nstackwords, _i.beclear_if.swap_buffers.nstackwords.group, 0
	.max_reduce _i.beclear_if.swap_buffers.fns, _i.beclear_if.swap_buffers.fns.group, 0
	.weak _i.beclear_if.transfer_samples.maxchanends.group
	.add_to_set _i.beclear_if.transfer_samples.maxchanends.group, _i.beclear_if._chan.transfer_samples.maxchanends, _i.beclear_if._chan.transfer_samples
	.max_reduce _i.beclear_if.transfer_samples.max.maxchanends, _i.beclear_if.transfer_samples.maxchanends.group, 0
	.weak _i.beclear_if.transfer_samples.maxcores.group
	.add_to_set _i.beclear_if.transfer_samples.maxcores.group, _i.beclear_if._chan.transfer_samples.maxcores, _i.beclear_if._chan.transfer_samples
	.max_reduce _i.beclear_if.transfer_samples.max.maxcores, _i.beclear_if.transfer_samples.maxcores.group, 0
	.weak _i.beclear_if.transfer_samples.maxtimers.group
	.add_to_set _i.beclear_if.transfer_samples.maxtimers.group, _i.beclear_if._chan.transfer_samples.maxtimers, _i.beclear_if._chan.transfer_samples
	.max_reduce _i.beclear_if.transfer_samples.max.maxtimers, _i.beclear_if.transfer_samples.maxtimers.group, 0
	.weak _i.beclear_if.transfer_samples.nstackwords.group
	.globl _i.beclear_if.transfer_samples.nstackwords.group
	.weak _i.beclear_if.transfer_samples.fns.group
	.globl _i.beclear_if.transfer_samples.fns.group
	.add_to_set _i.beclear_if.transfer_samples.nstackwords.group, _i.beclear_if._chan.transfer_samples.nstackwords, _i.beclear_if._chan.transfer_samples
	.add_to_set _i.beclear_if.transfer_samples.fns.group, _i.beclear_if._chan.transfer_samples, _i.beclear_if._chan.transfer_samples
	.max_reduce _i.beclear_if.transfer_samples.max.nstackwords, _i.beclear_if.transfer_samples.nstackwords.group, 0
	.max_reduce _i.beclear_if.transfer_samples.fns, _i.beclear_if.transfer_samples.fns.group, 0
	.weak _i.beclear_if.__interface_init.maxchanends.group
	.max_reduce _i.beclear_if.__interface_init.max.maxchanends, _i.beclear_if.__interface_init.maxchanends.group, 0
	.weak _i.beclear_if.__interface_init.maxcores.group
	.max_reduce _i.beclear_if.__interface_init.max.maxcores, _i.beclear_if.__interface_init.maxcores.group, 0
	.weak _i.beclear_if.__interface_init.maxtimers.group
	.max_reduce _i.beclear_if.__interface_init.max.maxtimers, _i.beclear_if.__interface_init.maxtimers.group, 0
	.weak _i.beclear_if.__interface_init.nstackwords.group
	.globl _i.beclear_if.__interface_init.nstackwords.group
	.weak _i.beclear_if.__interface_init.fns.group
	.globl _i.beclear_if.__interface_init.fns.group
	.max_reduce _i.beclear_if.__interface_init.max.nstackwords, _i.beclear_if.__interface_init.nstackwords.group, 0
	.max_reduce _i.beclear_if.__interface_init.fns, _i.beclear_if.__interface_init.fns.group, 0
	.weak _i.beclear_if._client_call_y.maxchanends.group
	.add_to_set _i.beclear_if._client_call_y.maxchanends.group, (__interface_client_call_y_other.maxchanends + __interface_client_call_y_extra.maxchanends), __interface_client_call_y_other
	.max_reduce _i.beclear_if._client_call_y.max.maxchanends, _i.beclear_if._client_call_y.maxchanends.group, 0
	.weak _i.beclear_if._client_call_y.maxcores.group
	.add_to_set _i.beclear_if._client_call_y.maxcores.group, (__interface_client_call_y_other.maxcores + __interface_client_call_y_extra.maxcores), __interface_client_call_y_other
	.max_reduce _i.beclear_if._client_call_y.max.maxcores, _i.beclear_if._client_call_y.maxcores.group, 0
	.weak _i.beclear_if._client_call_y.maxtimers.group
	.add_to_set _i.beclear_if._client_call_y.maxtimers.group, (__interface_client_call_y_other.maxtimers + __interface_client_call_y_extra.maxtimers), __interface_client_call_y_other
	.max_reduce _i.beclear_if._client_call_y.max.maxtimers, _i.beclear_if._client_call_y.maxtimers.group, 0
	.weak _i.beclear_if._client_call_y.nstackwords.group
	.globl _i.beclear_if._client_call_y.nstackwords.group
	.weak _i.beclear_if._client_call_y.fns.group
	.globl _i.beclear_if._client_call_y.fns.group
	.add_to_set _i.beclear_if._client_call_y.nstackwords.group, (__interface_client_call_y_other.nstackwords + __interface_client_call_y_extra.nstackwords), __interface_client_call_y_other
	.add_to_set _i.beclear_if._client_call_y.fns.group, __interface_client_call_y_other, __interface_client_call_y_other
	.max_reduce _i.beclear_if._client_call_y.max.nstackwords, _i.beclear_if._client_call_y.nstackwords.group, 0
	.max_reduce _i.beclear_if._client_call_y.fns, _i.beclear_if._client_call_y.fns.group, 0
	.set __main__main_tile_1.savedstate,22
	.globl __main__main_tile_1.savedstate
	.weak _i.audManage_if.transfer_buffers.maxchanends.group
	.add_to_set _i.audManage_if.transfer_buffers.maxchanends.group, _i.audManage_if._chan.transfer_buffers.maxchanends, _i.audManage_if._chan.transfer_buffers
	.max_reduce _i.audManage_if.transfer_buffers.max.maxchanends, _i.audManage_if.transfer_buffers.maxchanends.group, 0
	.weak _i.audManage_if.transfer_buffers.maxcores.group
	.add_to_set _i.audManage_if.transfer_buffers.maxcores.group, _i.audManage_if._chan.transfer_buffers.maxcores, _i.audManage_if._chan.transfer_buffers
	.max_reduce _i.audManage_if.transfer_buffers.max.maxcores, _i.audManage_if.transfer_buffers.maxcores.group, 0
	.weak _i.audManage_if.transfer_buffers.maxtimers.group
	.add_to_set _i.audManage_if.transfer_buffers.maxtimers.group, _i.audManage_if._chan.transfer_buffers.maxtimers, _i.audManage_if._chan.transfer_buffers
	.max_reduce _i.audManage_if.transfer_buffers.max.maxtimers, _i.audManage_if.transfer_buffers.maxtimers.group, 0
	.weak _i.audManage_if.transfer_buffers.nstackwords.group
	.globl _i.audManage_if.transfer_buffers.nstackwords.group
	.weak _i.audManage_if.transfer_buffers.fns.group
	.globl _i.audManage_if.transfer_buffers.fns.group
	.add_to_set _i.audManage_if.transfer_buffers.nstackwords.group, _i.audManage_if._chan.transfer_buffers.nstackwords, _i.audManage_if._chan.transfer_buffers
	.add_to_set _i.audManage_if.transfer_buffers.fns.group, _i.audManage_if._chan.transfer_buffers, _i.audManage_if._chan.transfer_buffers
	.max_reduce _i.audManage_if.transfer_buffers.max.nstackwords, _i.audManage_if.transfer_buffers.nstackwords.group, 0
	.max_reduce _i.audManage_if.transfer_buffers.fns, _i.audManage_if.transfer_buffers.fns.group, 0
	.weak _i.audManage_if.transfer_samples.maxchanends.group
	.add_to_set _i.audManage_if.transfer_samples.maxchanends.group, _i.audManage_if._chan.transfer_samples.maxchanends, _i.audManage_if._chan.transfer_samples
	.max_reduce _i.audManage_if.transfer_samples.max.maxchanends, _i.audManage_if.transfer_samples.maxchanends.group, 0
	.weak _i.audManage_if.transfer_samples.maxcores.group
	.add_to_set _i.audManage_if.transfer_samples.maxcores.group, _i.audManage_if._chan.transfer_samples.maxcores, _i.audManage_if._chan.transfer_samples
	.max_reduce _i.audManage_if.transfer_samples.max.maxcores, _i.audManage_if.transfer_samples.maxcores.group, 0
	.weak _i.audManage_if.transfer_samples.maxtimers.group
	.add_to_set _i.audManage_if.transfer_samples.maxtimers.group, _i.audManage_if._chan.transfer_samples.maxtimers, _i.audManage_if._chan.transfer_samples
	.max_reduce _i.audManage_if.transfer_samples.max.maxtimers, _i.audManage_if.transfer_samples.maxtimers.group, 0
	.weak _i.audManage_if.transfer_samples.nstackwords.group
	.globl _i.audManage_if.transfer_samples.nstackwords.group
	.weak _i.audManage_if.transfer_samples.fns.group
	.globl _i.audManage_if.transfer_samples.fns.group
	.add_to_set _i.audManage_if.transfer_samples.nstackwords.group, _i.audManage_if._chan.transfer_samples.nstackwords, _i.audManage_if._chan.transfer_samples
	.add_to_set _i.audManage_if.transfer_samples.fns.group, _i.audManage_if._chan.transfer_samples, _i.audManage_if._chan.transfer_samples
	.max_reduce _i.audManage_if.transfer_samples.max.nstackwords, _i.audManage_if.transfer_samples.nstackwords.group, 0
	.max_reduce _i.audManage_if.transfer_samples.fns, _i.audManage_if.transfer_samples.fns.group, 0
	.weak _i.audManage_if.__interface_init.maxchanends.group
	.max_reduce _i.audManage_if.__interface_init.max.maxchanends, _i.audManage_if.__interface_init.maxchanends.group, 0
	.weak _i.audManage_if.__interface_init.maxcores.group
	.max_reduce _i.audManage_if.__interface_init.max.maxcores, _i.audManage_if.__interface_init.maxcores.group, 0
	.weak _i.audManage_if.__interface_init.maxtimers.group
	.max_reduce _i.audManage_if.__interface_init.max.maxtimers, _i.audManage_if.__interface_init.maxtimers.group, 0
	.weak _i.audManage_if.__interface_init.nstackwords.group
	.globl _i.audManage_if.__interface_init.nstackwords.group
	.weak _i.audManage_if.__interface_init.fns.group
	.globl _i.audManage_if.__interface_init.fns.group
	.max_reduce _i.audManage_if.__interface_init.max.nstackwords, _i.audManage_if.__interface_init.nstackwords.group, 0
	.max_reduce _i.audManage_if.__interface_init.fns, _i.audManage_if.__interface_init.fns.group, 0
	.weak _i.audManage_if._client_call_y.maxchanends.group
	.add_to_set _i.audManage_if._client_call_y.maxchanends.group, (__interface_client_call_y_other.maxchanends + __interface_client_call_y_extra.maxchanends), __interface_client_call_y_other
	.max_reduce _i.audManage_if._client_call_y.max.maxchanends, _i.audManage_if._client_call_y.maxchanends.group, 0
	.weak _i.audManage_if._client_call_y.maxcores.group
	.add_to_set _i.audManage_if._client_call_y.maxcores.group, (__interface_client_call_y_other.maxcores + __interface_client_call_y_extra.maxcores), __interface_client_call_y_other
	.max_reduce _i.audManage_if._client_call_y.max.maxcores, _i.audManage_if._client_call_y.maxcores.group, 0
	.weak _i.audManage_if._client_call_y.maxtimers.group
	.add_to_set _i.audManage_if._client_call_y.maxtimers.group, (__interface_client_call_y_other.maxtimers + __interface_client_call_y_extra.maxtimers), __interface_client_call_y_other
	.max_reduce _i.audManage_if._client_call_y.max.maxtimers, _i.audManage_if._client_call_y.maxtimers.group, 0
	.weak _i.audManage_if._client_call_y.nstackwords.group
	.globl _i.audManage_if._client_call_y.nstackwords.group
	.weak _i.audManage_if._client_call_y.fns.group
	.globl _i.audManage_if._client_call_y.fns.group
	.add_to_set _i.audManage_if._client_call_y.nstackwords.group, (__interface_client_call_y_other.nstackwords + __interface_client_call_y_extra.nstackwords), __interface_client_call_y_other
	.add_to_set _i.audManage_if._client_call_y.fns.group, __interface_client_call_y_other, __interface_client_call_y_other
	.max_reduce _i.audManage_if._client_call_y.max.nstackwords, _i.audManage_if._client_call_y.nstackwords.group, 0
	.max_reduce _i.audManage_if._client_call_y.fns, _i.audManage_if._client_call_y.fns.group, 0
	.pushsection .netinfo, "", @netinfo
	.int      0x1eaba15c
	main.parinfo.debugstring0:
	.asciiz "# -1 \"\""
	main.parinfo.debugstring1:
	.asciiz "# 715 \"C:/Users/user/workspace/module_usb_audio/main.xc\""
	.cc_top main.parinfo.cc, main.parinfo
	.globl main.parinfo
	.type main.parinfo, @object
	main.parinfo:
	.int 0x00000004
	.long 0
	.long main.parinfo.debugstring0
	.long main.parinfo.debugstring1
	.int 0x00000002
	.int 0x00000000
	.int $N __main__main_tile_0
	.long tile + 0
	.int 0x00000008
	.int 0x00000001
	.int 0x00000002
	.int 0x00000003
	.int 0x00000004
	.int 0x00000005
	.int 0x00000006
	.int 0x00000007
	.int 0x00000008
	.int $N __main__main_tile_1
	.long tile + 4
	.int 0x00000008
	.int 0x00000001
	.int 0x00000002
	.int 0x00000003
	.int 0x00000004
	.int 0x00000005
	.int 0x00000006
	.int 0x00000007
	.int 0x00000008
	.cc_bottom main.parinfo.cc
.locl __xcc1_internal_1.info, "bo:p:32"
__xcc1_internal_1.info:
	.int 0x00010300
	.long tile + 4
.sameresource __xcc1_internal_1, p_i2s_dac, 0
.locl __xcc1_internal_2.info, "bi:p:32"
__xcc1_internal_2.info:
	.int 0x00010100
	.long tile + 4
.sameresource __xcc1_internal_2, p_i2s_adc, 0
.globl p_lrclk.info, "bi:p:32"
p_lrclk.info:
	.int 0x00010d00
	.long tile + 4
.globl p_bclk.info, "bi:p:32"
p_bclk.info:
	.int 0x00010c00
	.long tile + 4
.globl p_mclk_in.info, "p"
p_mclk_in.info:
	.int 0x00010e00
	.long tile + 4
.globl p_for_mclk_count.info, "i:p"
p_for_mclk_count.info:
	.int 0x00100100
	.long tile + 4
.globl clk_audio_mclk.info, "ck"
clk_audio_mclk.info:
	.int 0x00000206
	.long tile + 4
.globl clk_audio_bclk.info, "ck"
clk_audio_bclk.info:
	.int 0x00000306
	.long tile + 4
	.popsection
	.weak _i.i2c_slave_callback_if.start_read_request.maxchanends.group
	.max_reduce _i.i2c_slave_callback_if.start_read_request.max.maxchanends, _i.i2c_slave_callback_if.start_read_request.maxchanends.group, 0
	.weak _i.i2c_slave_callback_if.start_read_request.maxcores.group
	.max_reduce _i.i2c_slave_callback_if.start_read_request.max.maxcores, _i.i2c_slave_callback_if.start_read_request.maxcores.group, 0
	.weak _i.i2c_slave_callback_if.start_read_request.maxtimers.group
	.max_reduce _i.i2c_slave_callback_if.start_read_request.max.maxtimers, _i.i2c_slave_callback_if.start_read_request.maxtimers.group, 0
	.weak _i.i2c_slave_callback_if.start_read_request.nstackwords.group
	.globl _i.i2c_slave_callback_if.start_read_request.nstackwords.group
	.weak _i.i2c_slave_callback_if.start_read_request.fns.group
	.globl _i.i2c_slave_callback_if.start_read_request.fns.group
	.max_reduce _i.i2c_slave_callback_if.start_read_request.max.nstackwords, _i.i2c_slave_callback_if.start_read_request.nstackwords.group, 0
	.max_reduce _i.i2c_slave_callback_if.start_read_request.fns, _i.i2c_slave_callback_if.start_read_request.fns.group, 0
	.weak _i.i2c_slave_callback_if.ack_read_request.maxchanends.group
	.max_reduce _i.i2c_slave_callback_if.ack_read_request.max.maxchanends, _i.i2c_slave_callback_if.ack_read_request.maxchanends.group, 0
	.weak _i.i2c_slave_callback_if.ack_read_request.maxcores.group
	.max_reduce _i.i2c_slave_callback_if.ack_read_request.max.maxcores, _i.i2c_slave_callback_if.ack_read_request.maxcores.group, 0
	.weak _i.i2c_slave_callback_if.ack_read_request.maxtimers.group
	.max_reduce _i.i2c_slave_callback_if.ack_read_request.max.maxtimers, _i.i2c_slave_callback_if.ack_read_request.maxtimers.group, 0
	.weak _i.i2c_slave_callback_if.ack_read_request.nstackwords.group
	.globl _i.i2c_slave_callback_if.ack_read_request.nstackwords.group
	.weak _i.i2c_slave_callback_if.ack_read_request.fns.group
	.globl _i.i2c_slave_callback_if.ack_read_request.fns.group
	.max_reduce _i.i2c_slave_callback_if.ack_read_request.max.nstackwords, _i.i2c_slave_callback_if.ack_read_request.nstackwords.group, 0
	.max_reduce _i.i2c_slave_callback_if.ack_read_request.fns, _i.i2c_slave_callback_if.ack_read_request.fns.group, 0
	.weak _i.i2c_slave_callback_if.start_write_request.maxchanends.group
	.max_reduce _i.i2c_slave_callback_if.start_write_request.max.maxchanends, _i.i2c_slave_callback_if.start_write_request.maxchanends.group, 0
	.weak _i.i2c_slave_callback_if.start_write_request.maxcores.group
	.max_reduce _i.i2c_slave_callback_if.start_write_request.max.maxcores, _i.i2c_slave_callback_if.start_write_request.maxcores.group, 0
	.weak _i.i2c_slave_callback_if.start_write_request.maxtimers.group
	.max_reduce _i.i2c_slave_callback_if.start_write_request.max.maxtimers, _i.i2c_slave_callback_if.start_write_request.maxtimers.group, 0
	.weak _i.i2c_slave_callback_if.start_write_request.nstackwords.group
	.globl _i.i2c_slave_callback_if.start_write_request.nstackwords.group
	.weak _i.i2c_slave_callback_if.start_write_request.fns.group
	.globl _i.i2c_slave_callback_if.start_write_request.fns.group
	.max_reduce _i.i2c_slave_callback_if.start_write_request.max.nstackwords, _i.i2c_slave_callback_if.start_write_request.nstackwords.group, 0
	.max_reduce _i.i2c_slave_callback_if.start_write_request.fns, _i.i2c_slave_callback_if.start_write_request.fns.group, 0
	.weak _i.i2c_slave_callback_if.ack_write_request.maxchanends.group
	.max_reduce _i.i2c_slave_callback_if.ack_write_request.max.maxchanends, _i.i2c_slave_callback_if.ack_write_request.maxchanends.group, 0
	.weak _i.i2c_slave_callback_if.ack_write_request.maxcores.group
	.max_reduce _i.i2c_slave_callback_if.ack_write_request.max.maxcores, _i.i2c_slave_callback_if.ack_write_request.maxcores.group, 0
	.weak _i.i2c_slave_callback_if.ack_write_request.maxtimers.group
	.max_reduce _i.i2c_slave_callback_if.ack_write_request.max.maxtimers, _i.i2c_slave_callback_if.ack_write_request.maxtimers.group, 0
	.weak _i.i2c_slave_callback_if.ack_write_request.nstackwords.group
	.globl _i.i2c_slave_callback_if.ack_write_request.nstackwords.group
	.weak _i.i2c_slave_callback_if.ack_write_request.fns.group
	.globl _i.i2c_slave_callback_if.ack_write_request.fns.group
	.max_reduce _i.i2c_slave_callback_if.ack_write_request.max.nstackwords, _i.i2c_slave_callback_if.ack_write_request.nstackwords.group, 0
	.max_reduce _i.i2c_slave_callback_if.ack_write_request.fns, _i.i2c_slave_callback_if.ack_write_request.fns.group, 0
	.weak _i.i2c_slave_callback_if.start_master_read.maxchanends.group
	.max_reduce _i.i2c_slave_callback_if.start_master_read.max.maxchanends, _i.i2c_slave_callback_if.start_master_read.maxchanends.group, 0
	.weak _i.i2c_slave_callback_if.start_master_read.maxcores.group
	.max_reduce _i.i2c_slave_callback_if.start_master_read.max.maxcores, _i.i2c_slave_callback_if.start_master_read.maxcores.group, 0
	.weak _i.i2c_slave_callback_if.start_master_read.maxtimers.group
	.max_reduce _i.i2c_slave_callback_if.start_master_read.max.maxtimers, _i.i2c_slave_callback_if.start_master_read.maxtimers.group, 0
	.weak _i.i2c_slave_callback_if.start_master_read.nstackwords.group
	.globl _i.i2c_slave_callback_if.start_master_read.nstackwords.group
	.weak _i.i2c_slave_callback_if.start_master_read.fns.group
	.globl _i.i2c_slave_callback_if.start_master_read.fns.group
	.max_reduce _i.i2c_slave_callback_if.start_master_read.max.nstackwords, _i.i2c_slave_callback_if.start_master_read.nstackwords.group, 0
	.max_reduce _i.i2c_slave_callback_if.start_master_read.fns, _i.i2c_slave_callback_if.start_master_read.fns.group, 0
	.weak _i.i2c_slave_callback_if.master_requires_data.maxchanends.group
	.max_reduce _i.i2c_slave_callback_if.master_requires_data.max.maxchanends, _i.i2c_slave_callback_if.master_requires_data.maxchanends.group, 0
	.weak _i.i2c_slave_callback_if.master_requires_data.maxcores.group
	.max_reduce _i.i2c_slave_callback_if.master_requires_data.max.maxcores, _i.i2c_slave_callback_if.master_requires_data.maxcores.group, 0
	.weak _i.i2c_slave_callback_if.master_requires_data.maxtimers.group
	.max_reduce _i.i2c_slave_callback_if.master_requires_data.max.maxtimers, _i.i2c_slave_callback_if.master_requires_data.maxtimers.group, 0
	.weak _i.i2c_slave_callback_if.master_requires_data.nstackwords.group
	.globl _i.i2c_slave_callback_if.master_requires_data.nstackwords.group
	.weak _i.i2c_slave_callback_if.master_requires_data.fns.group
	.globl _i.i2c_slave_callback_if.master_requires_data.fns.group
	.max_reduce _i.i2c_slave_callback_if.master_requires_data.max.nstackwords, _i.i2c_slave_callback_if.master_requires_data.nstackwords.group, 0
	.max_reduce _i.i2c_slave_callback_if.master_requires_data.fns, _i.i2c_slave_callback_if.master_requires_data.fns.group, 0
	.weak _i.i2c_slave_callback_if.start_master_write.maxchanends.group
	.max_reduce _i.i2c_slave_callback_if.start_master_write.max.maxchanends, _i.i2c_slave_callback_if.start_master_write.maxchanends.group, 0
	.weak _i.i2c_slave_callback_if.start_master_write.maxcores.group
	.max_reduce _i.i2c_slave_callback_if.start_master_write.max.maxcores, _i.i2c_slave_callback_if.start_master_write.maxcores.group, 0
	.weak _i.i2c_slave_callback_if.start_master_write.maxtimers.group
	.max_reduce _i.i2c_slave_callback_if.start_master_write.max.maxtimers, _i.i2c_slave_callback_if.start_master_write.maxtimers.group, 0
	.weak _i.i2c_slave_callback_if.start_master_write.nstackwords.group
	.globl _i.i2c_slave_callback_if.start_master_write.nstackwords.group
	.weak _i.i2c_slave_callback_if.start_master_write.fns.group
	.globl _i.i2c_slave_callback_if.start_master_write.fns.group
	.max_reduce _i.i2c_slave_callback_if.start_master_write.max.nstackwords, _i.i2c_slave_callback_if.start_master_write.nstackwords.group, 0
	.max_reduce _i.i2c_slave_callback_if.start_master_write.fns, _i.i2c_slave_callback_if.start_master_write.fns.group, 0
	.weak _i.i2c_slave_callback_if.master_sent_data.maxchanends.group
	.max_reduce _i.i2c_slave_callback_if.master_sent_data.max.maxchanends, _i.i2c_slave_callback_if.master_sent_data.maxchanends.group, 0
	.weak _i.i2c_slave_callback_if.master_sent_data.maxcores.group
	.max_reduce _i.i2c_slave_callback_if.master_sent_data.max.maxcores, _i.i2c_slave_callback_if.master_sent_data.maxcores.group, 0
	.weak _i.i2c_slave_callback_if.master_sent_data.maxtimers.group
	.max_reduce _i.i2c_slave_callback_if.master_sent_data.max.maxtimers, _i.i2c_slave_callback_if.master_sent_data.maxtimers.group, 0
	.weak _i.i2c_slave_callback_if.master_sent_data.nstackwords.group
	.globl _i.i2c_slave_callback_if.master_sent_data.nstackwords.group
	.weak _i.i2c_slave_callback_if.master_sent_data.fns.group
	.globl _i.i2c_slave_callback_if.master_sent_data.fns.group
	.max_reduce _i.i2c_slave_callback_if.master_sent_data.max.nstackwords, _i.i2c_slave_callback_if.master_sent_data.nstackwords.group, 0
	.max_reduce _i.i2c_slave_callback_if.master_sent_data.fns, _i.i2c_slave_callback_if.master_sent_data.fns.group, 0
	.weak _i.i2c_slave_callback_if.stop_bit.maxchanends.group
	.max_reduce _i.i2c_slave_callback_if.stop_bit.max.maxchanends, _i.i2c_slave_callback_if.stop_bit.maxchanends.group, 0
	.weak _i.i2c_slave_callback_if.stop_bit.maxcores.group
	.max_reduce _i.i2c_slave_callback_if.stop_bit.max.maxcores, _i.i2c_slave_callback_if.stop_bit.maxcores.group, 0
	.weak _i.i2c_slave_callback_if.stop_bit.maxtimers.group
	.max_reduce _i.i2c_slave_callback_if.stop_bit.max.maxtimers, _i.i2c_slave_callback_if.stop_bit.maxtimers.group, 0
	.weak _i.i2c_slave_callback_if.stop_bit.nstackwords.group
	.globl _i.i2c_slave_callback_if.stop_bit.nstackwords.group
	.weak _i.i2c_slave_callback_if.stop_bit.fns.group
	.globl _i.i2c_slave_callback_if.stop_bit.fns.group
	.max_reduce _i.i2c_slave_callback_if.stop_bit.max.nstackwords, _i.i2c_slave_callback_if.stop_bit.nstackwords.group, 0
	.max_reduce _i.i2c_slave_callback_if.stop_bit.fns, _i.i2c_slave_callback_if.stop_bit.fns.group, 0
	.weak _i.i2c_slave_callback_if.__interface_init.maxchanends.group
	.max_reduce _i.i2c_slave_callback_if.__interface_init.max.maxchanends, _i.i2c_slave_callback_if.__interface_init.maxchanends.group, 0
	.weak _i.i2c_slave_callback_if.__interface_init.maxcores.group
	.max_reduce _i.i2c_slave_callback_if.__interface_init.max.maxcores, _i.i2c_slave_callback_if.__interface_init.maxcores.group, 0
	.weak _i.i2c_slave_callback_if.__interface_init.maxtimers.group
	.max_reduce _i.i2c_slave_callback_if.__interface_init.max.maxtimers, _i.i2c_slave_callback_if.__interface_init.maxtimers.group, 0
	.weak _i.i2c_slave_callback_if.__interface_init.nstackwords.group
	.globl _i.i2c_slave_callback_if.__interface_init.nstackwords.group
	.weak _i.i2c_slave_callback_if.__interface_init.fns.group
	.globl _i.i2c_slave_callback_if.__interface_init.fns.group
	.max_reduce _i.i2c_slave_callback_if.__interface_init.max.nstackwords, _i.i2c_slave_callback_if.__interface_init.nstackwords.group, 0
	.max_reduce _i.i2c_slave_callback_if.__interface_init.fns, _i.i2c_slave_callback_if.__interface_init.fns.group, 0
	.weak _i.i2c_slave_callback_if._client_call_y.maxchanends.group
	.add_to_set _i.i2c_slave_callback_if._client_call_y.maxchanends.group, (__interface_client_call_y_other.maxchanends + __interface_client_call_y_extra.maxchanends), __interface_client_call_y_other
	.max_reduce _i.i2c_slave_callback_if._client_call_y.max.maxchanends, _i.i2c_slave_callback_if._client_call_y.maxchanends.group, 0
	.weak _i.i2c_slave_callback_if._client_call_y.maxcores.group
	.add_to_set _i.i2c_slave_callback_if._client_call_y.maxcores.group, (__interface_client_call_y_other.maxcores + __interface_client_call_y_extra.maxcores), __interface_client_call_y_other
	.max_reduce _i.i2c_slave_callback_if._client_call_y.max.maxcores, _i.i2c_slave_callback_if._client_call_y.maxcores.group, 0
	.weak _i.i2c_slave_callback_if._client_call_y.maxtimers.group
	.add_to_set _i.i2c_slave_callback_if._client_call_y.maxtimers.group, (__interface_client_call_y_other.maxtimers + __interface_client_call_y_extra.maxtimers), __interface_client_call_y_other
	.max_reduce _i.i2c_slave_callback_if._client_call_y.max.maxtimers, _i.i2c_slave_callback_if._client_call_y.maxtimers.group, 0
	.weak _i.i2c_slave_callback_if._client_call_y.nstackwords.group
	.globl _i.i2c_slave_callback_if._client_call_y.nstackwords.group
	.weak _i.i2c_slave_callback_if._client_call_y.fns.group
	.globl _i.i2c_slave_callback_if._client_call_y.fns.group
	.add_to_set _i.i2c_slave_callback_if._client_call_y.nstackwords.group, (__interface_client_call_y_other.nstackwords + __interface_client_call_y_extra.nstackwords), __interface_client_call_y_other
	.add_to_set _i.i2c_slave_callback_if._client_call_y.fns.group, __interface_client_call_y_other, __interface_client_call_y_other
	.max_reduce _i.i2c_slave_callback_if._client_call_y.max.nstackwords, _i.i2c_slave_callback_if._client_call_y.nstackwords.group, 0
	.max_reduce _i.i2c_slave_callback_if._client_call_y.fns, _i.i2c_slave_callback_if._client_call_y.fns.group, 0
	.weak _i.i2c_master_async_if.write.maxchanends.group
	.max_reduce _i.i2c_master_async_if.write.max.maxchanends, _i.i2c_master_async_if.write.maxchanends.group, 0
	.weak _i.i2c_master_async_if.write.maxcores.group
	.max_reduce _i.i2c_master_async_if.write.max.maxcores, _i.i2c_master_async_if.write.maxcores.group, 0
	.weak _i.i2c_master_async_if.write.maxtimers.group
	.max_reduce _i.i2c_master_async_if.write.max.maxtimers, _i.i2c_master_async_if.write.maxtimers.group, 0
	.weak _i.i2c_master_async_if.write.nstackwords.group
	.globl _i.i2c_master_async_if.write.nstackwords.group
	.weak _i.i2c_master_async_if.write.fns.group
	.globl _i.i2c_master_async_if.write.fns.group
	.max_reduce _i.i2c_master_async_if.write.max.nstackwords, _i.i2c_master_async_if.write.nstackwords.group, 0
	.max_reduce _i.i2c_master_async_if.write.fns, _i.i2c_master_async_if.write.fns.group, 0
	.weak _i.i2c_master_async_if.read.maxchanends.group
	.max_reduce _i.i2c_master_async_if.read.max.maxchanends, _i.i2c_master_async_if.read.maxchanends.group, 0
	.weak _i.i2c_master_async_if.read.maxcores.group
	.max_reduce _i.i2c_master_async_if.read.max.maxcores, _i.i2c_master_async_if.read.maxcores.group, 0
	.weak _i.i2c_master_async_if.read.maxtimers.group
	.max_reduce _i.i2c_master_async_if.read.max.maxtimers, _i.i2c_master_async_if.read.maxtimers.group, 0
	.weak _i.i2c_master_async_if.read.nstackwords.group
	.globl _i.i2c_master_async_if.read.nstackwords.group
	.weak _i.i2c_master_async_if.read.fns.group
	.globl _i.i2c_master_async_if.read.fns.group
	.max_reduce _i.i2c_master_async_if.read.max.nstackwords, _i.i2c_master_async_if.read.nstackwords.group, 0
	.max_reduce _i.i2c_master_async_if.read.fns, _i.i2c_master_async_if.read.fns.group, 0
	.weak _i.i2c_master_async_if.get_write_result.maxchanends.group
	.max_reduce _i.i2c_master_async_if.get_write_result.max.maxchanends, _i.i2c_master_async_if.get_write_result.maxchanends.group, 0
	.weak _i.i2c_master_async_if.get_write_result.maxcores.group
	.max_reduce _i.i2c_master_async_if.get_write_result.max.maxcores, _i.i2c_master_async_if.get_write_result.maxcores.group, 0
	.weak _i.i2c_master_async_if.get_write_result.maxtimers.group
	.max_reduce _i.i2c_master_async_if.get_write_result.max.maxtimers, _i.i2c_master_async_if.get_write_result.maxtimers.group, 0
	.weak _i.i2c_master_async_if.get_write_result.nstackwords.group
	.globl _i.i2c_master_async_if.get_write_result.nstackwords.group
	.weak _i.i2c_master_async_if.get_write_result.fns.group
	.globl _i.i2c_master_async_if.get_write_result.fns.group
	.max_reduce _i.i2c_master_async_if.get_write_result.max.nstackwords, _i.i2c_master_async_if.get_write_result.nstackwords.group, 0
	.max_reduce _i.i2c_master_async_if.get_write_result.fns, _i.i2c_master_async_if.get_write_result.fns.group, 0
	.weak _i.i2c_master_async_if.get_read_data.maxchanends.group
	.max_reduce _i.i2c_master_async_if.get_read_data.max.maxchanends, _i.i2c_master_async_if.get_read_data.maxchanends.group, 0
	.weak _i.i2c_master_async_if.get_read_data.maxcores.group
	.max_reduce _i.i2c_master_async_if.get_read_data.max.maxcores, _i.i2c_master_async_if.get_read_data.maxcores.group, 0
	.weak _i.i2c_master_async_if.get_read_data.maxtimers.group
	.max_reduce _i.i2c_master_async_if.get_read_data.max.maxtimers, _i.i2c_master_async_if.get_read_data.maxtimers.group, 0
	.weak _i.i2c_master_async_if.get_read_data.nstackwords.group
	.globl _i.i2c_master_async_if.get_read_data.nstackwords.group
	.weak _i.i2c_master_async_if.get_read_data.fns.group
	.globl _i.i2c_master_async_if.get_read_data.fns.group
	.max_reduce _i.i2c_master_async_if.get_read_data.max.nstackwords, _i.i2c_master_async_if.get_read_data.nstackwords.group, 0
	.max_reduce _i.i2c_master_async_if.get_read_data.fns, _i.i2c_master_async_if.get_read_data.fns.group, 0
	.weak _i.i2c_master_async_if.send_stop_bit.maxchanends.group
	.max_reduce _i.i2c_master_async_if.send_stop_bit.max.maxchanends, _i.i2c_master_async_if.send_stop_bit.maxchanends.group, 0
	.weak _i.i2c_master_async_if.send_stop_bit.maxcores.group
	.max_reduce _i.i2c_master_async_if.send_stop_bit.max.maxcores, _i.i2c_master_async_if.send_stop_bit.maxcores.group, 0
	.weak _i.i2c_master_async_if.send_stop_bit.maxtimers.group
	.max_reduce _i.i2c_master_async_if.send_stop_bit.max.maxtimers, _i.i2c_master_async_if.send_stop_bit.maxtimers.group, 0
	.weak _i.i2c_master_async_if.send_stop_bit.nstackwords.group
	.globl _i.i2c_master_async_if.send_stop_bit.nstackwords.group
	.weak _i.i2c_master_async_if.send_stop_bit.fns.group
	.globl _i.i2c_master_async_if.send_stop_bit.fns.group
	.max_reduce _i.i2c_master_async_if.send_stop_bit.max.nstackwords, _i.i2c_master_async_if.send_stop_bit.nstackwords.group, 0
	.max_reduce _i.i2c_master_async_if.send_stop_bit.fns, _i.i2c_master_async_if.send_stop_bit.fns.group, 0
	.weak _i.i2c_master_async_if.shutdown.maxchanends.group
	.max_reduce _i.i2c_master_async_if.shutdown.max.maxchanends, _i.i2c_master_async_if.shutdown.maxchanends.group, 0
	.weak _i.i2c_master_async_if.shutdown.maxcores.group
	.max_reduce _i.i2c_master_async_if.shutdown.max.maxcores, _i.i2c_master_async_if.shutdown.maxcores.group, 0
	.weak _i.i2c_master_async_if.shutdown.maxtimers.group
	.max_reduce _i.i2c_master_async_if.shutdown.max.maxtimers, _i.i2c_master_async_if.shutdown.maxtimers.group, 0
	.weak _i.i2c_master_async_if.shutdown.nstackwords.group
	.globl _i.i2c_master_async_if.shutdown.nstackwords.group
	.weak _i.i2c_master_async_if.shutdown.fns.group
	.globl _i.i2c_master_async_if.shutdown.fns.group
	.max_reduce _i.i2c_master_async_if.shutdown.max.nstackwords, _i.i2c_master_async_if.shutdown.nstackwords.group, 0
	.max_reduce _i.i2c_master_async_if.shutdown.fns, _i.i2c_master_async_if.shutdown.fns.group, 0
	.weak _i.i2c_master_async_if.__interface_init.maxchanends.group
	.max_reduce _i.i2c_master_async_if.__interface_init.max.maxchanends, _i.i2c_master_async_if.__interface_init.maxchanends.group, 0
	.weak _i.i2c_master_async_if.__interface_init.maxcores.group
	.max_reduce _i.i2c_master_async_if.__interface_init.max.maxcores, _i.i2c_master_async_if.__interface_init.maxcores.group, 0
	.weak _i.i2c_master_async_if.__interface_init.maxtimers.group
	.max_reduce _i.i2c_master_async_if.__interface_init.max.maxtimers, _i.i2c_master_async_if.__interface_init.maxtimers.group, 0
	.weak _i.i2c_master_async_if.__interface_init.nstackwords.group
	.globl _i.i2c_master_async_if.__interface_init.nstackwords.group
	.weak _i.i2c_master_async_if.__interface_init.fns.group
	.globl _i.i2c_master_async_if.__interface_init.fns.group
	.max_reduce _i.i2c_master_async_if.__interface_init.max.nstackwords, _i.i2c_master_async_if.__interface_init.nstackwords.group, 0
	.max_reduce _i.i2c_master_async_if.__interface_init.fns, _i.i2c_master_async_if.__interface_init.fns.group, 0
	.weak _i.i2c_master_async_if._client_call_y.maxchanends.group
	.add_to_set _i.i2c_master_async_if._client_call_y.maxchanends.group, (__interface_client_call_y_other.maxchanends + __interface_client_call_y_extra.maxchanends), __interface_client_call_y_other
	.max_reduce _i.i2c_master_async_if._client_call_y.max.maxchanends, _i.i2c_master_async_if._client_call_y.maxchanends.group, 0
	.weak _i.i2c_master_async_if._client_call_y.maxcores.group
	.add_to_set _i.i2c_master_async_if._client_call_y.maxcores.group, (__interface_client_call_y_other.maxcores + __interface_client_call_y_extra.maxcores), __interface_client_call_y_other
	.max_reduce _i.i2c_master_async_if._client_call_y.max.maxcores, _i.i2c_master_async_if._client_call_y.maxcores.group, 0
	.weak _i.i2c_master_async_if._client_call_y.maxtimers.group
	.add_to_set _i.i2c_master_async_if._client_call_y.maxtimers.group, (__interface_client_call_y_other.maxtimers + __interface_client_call_y_extra.maxtimers), __interface_client_call_y_other
	.max_reduce _i.i2c_master_async_if._client_call_y.max.maxtimers, _i.i2c_master_async_if._client_call_y.maxtimers.group, 0
	.weak _i.i2c_master_async_if._client_call_y.nstackwords.group
	.globl _i.i2c_master_async_if._client_call_y.nstackwords.group
	.weak _i.i2c_master_async_if._client_call_y.fns.group
	.globl _i.i2c_master_async_if._client_call_y.fns.group
	.add_to_set _i.i2c_master_async_if._client_call_y.nstackwords.group, (__interface_client_call_y_other.nstackwords + __interface_client_call_y_extra.nstackwords), __interface_client_call_y_other
	.add_to_set _i.i2c_master_async_if._client_call_y.fns.group, __interface_client_call_y_other, __interface_client_call_y_other
	.max_reduce _i.i2c_master_async_if._client_call_y.max.nstackwords, _i.i2c_master_async_if._client_call_y.nstackwords.group, 0
	.max_reduce _i.i2c_master_async_if._client_call_y.fns, _i.i2c_master_async_if._client_call_y.fns.group, 0
	.weak _i.i2c_master_if.write.maxchanends.group
	.max_reduce _i.i2c_master_if.write.max.maxchanends, _i.i2c_master_if.write.maxchanends.group, 0
	.weak _i.i2c_master_if.write.maxcores.group
	.max_reduce _i.i2c_master_if.write.max.maxcores, _i.i2c_master_if.write.maxcores.group, 0
	.weak _i.i2c_master_if.write.maxtimers.group
	.max_reduce _i.i2c_master_if.write.max.maxtimers, _i.i2c_master_if.write.maxtimers.group, 0
	.weak _i.i2c_master_if.write.nstackwords.group
	.globl _i.i2c_master_if.write.nstackwords.group
	.weak _i.i2c_master_if.write.fns.group
	.globl _i.i2c_master_if.write.fns.group
	.max_reduce _i.i2c_master_if.write.max.nstackwords, _i.i2c_master_if.write.nstackwords.group, 0
	.max_reduce _i.i2c_master_if.write.fns, _i.i2c_master_if.write.fns.group, 0
	.weak _i.i2c_master_if.read.maxchanends.group
	.max_reduce _i.i2c_master_if.read.max.maxchanends, _i.i2c_master_if.read.maxchanends.group, 0
	.weak _i.i2c_master_if.read.maxcores.group
	.max_reduce _i.i2c_master_if.read.max.maxcores, _i.i2c_master_if.read.maxcores.group, 0
	.weak _i.i2c_master_if.read.maxtimers.group
	.max_reduce _i.i2c_master_if.read.max.maxtimers, _i.i2c_master_if.read.maxtimers.group, 0
	.weak _i.i2c_master_if.read.nstackwords.group
	.globl _i.i2c_master_if.read.nstackwords.group
	.weak _i.i2c_master_if.read.fns.group
	.globl _i.i2c_master_if.read.fns.group
	.max_reduce _i.i2c_master_if.read.max.nstackwords, _i.i2c_master_if.read.nstackwords.group, 0
	.max_reduce _i.i2c_master_if.read.fns, _i.i2c_master_if.read.fns.group, 0
	.weak _i.i2c_master_if.send_stop_bit.maxchanends.group
	.max_reduce _i.i2c_master_if.send_stop_bit.max.maxchanends, _i.i2c_master_if.send_stop_bit.maxchanends.group, 0
	.weak _i.i2c_master_if.send_stop_bit.maxcores.group
	.max_reduce _i.i2c_master_if.send_stop_bit.max.maxcores, _i.i2c_master_if.send_stop_bit.maxcores.group, 0
	.weak _i.i2c_master_if.send_stop_bit.maxtimers.group
	.max_reduce _i.i2c_master_if.send_stop_bit.max.maxtimers, _i.i2c_master_if.send_stop_bit.maxtimers.group, 0
	.weak _i.i2c_master_if.send_stop_bit.nstackwords.group
	.globl _i.i2c_master_if.send_stop_bit.nstackwords.group
	.weak _i.i2c_master_if.send_stop_bit.fns.group
	.globl _i.i2c_master_if.send_stop_bit.fns.group
	.max_reduce _i.i2c_master_if.send_stop_bit.max.nstackwords, _i.i2c_master_if.send_stop_bit.nstackwords.group, 0
	.max_reduce _i.i2c_master_if.send_stop_bit.fns, _i.i2c_master_if.send_stop_bit.fns.group, 0
	.weak _i.i2c_master_if.shutdown.maxchanends.group
	.max_reduce _i.i2c_master_if.shutdown.max.maxchanends, _i.i2c_master_if.shutdown.maxchanends.group, 0
	.weak _i.i2c_master_if.shutdown.maxcores.group
	.max_reduce _i.i2c_master_if.shutdown.max.maxcores, _i.i2c_master_if.shutdown.maxcores.group, 0
	.weak _i.i2c_master_if.shutdown.maxtimers.group
	.max_reduce _i.i2c_master_if.shutdown.max.maxtimers, _i.i2c_master_if.shutdown.maxtimers.group, 0
	.weak _i.i2c_master_if.shutdown.nstackwords.group
	.globl _i.i2c_master_if.shutdown.nstackwords.group
	.weak _i.i2c_master_if.shutdown.fns.group
	.globl _i.i2c_master_if.shutdown.fns.group
	.max_reduce _i.i2c_master_if.shutdown.max.nstackwords, _i.i2c_master_if.shutdown.nstackwords.group, 0
	.max_reduce _i.i2c_master_if.shutdown.fns, _i.i2c_master_if.shutdown.fns.group, 0
	.weak _i.i2c_master_if.__interface_init.maxchanends.group
	.max_reduce _i.i2c_master_if.__interface_init.max.maxchanends, _i.i2c_master_if.__interface_init.maxchanends.group, 0
	.weak _i.i2c_master_if.__interface_init.maxcores.group
	.max_reduce _i.i2c_master_if.__interface_init.max.maxcores, _i.i2c_master_if.__interface_init.maxcores.group, 0
	.weak _i.i2c_master_if.__interface_init.maxtimers.group
	.max_reduce _i.i2c_master_if.__interface_init.max.maxtimers, _i.i2c_master_if.__interface_init.maxtimers.group, 0
	.weak _i.i2c_master_if.__interface_init.nstackwords.group
	.globl _i.i2c_master_if.__interface_init.nstackwords.group
	.weak _i.i2c_master_if.__interface_init.fns.group
	.globl _i.i2c_master_if.__interface_init.fns.group
	.max_reduce _i.i2c_master_if.__interface_init.max.nstackwords, _i.i2c_master_if.__interface_init.nstackwords.group, 0
	.max_reduce _i.i2c_master_if.__interface_init.fns, _i.i2c_master_if.__interface_init.fns.group, 0
	.weak _i.i2c_master_if._client_call_y.maxchanends.group
	.add_to_set _i.i2c_master_if._client_call_y.maxchanends.group, (__interface_client_call_y_other.maxchanends + __interface_client_call_y_extra.maxchanends), __interface_client_call_y_other
	.max_reduce _i.i2c_master_if._client_call_y.max.maxchanends, _i.i2c_master_if._client_call_y.maxchanends.group, 0
	.weak _i.i2c_master_if._client_call_y.maxcores.group
	.add_to_set _i.i2c_master_if._client_call_y.maxcores.group, (__interface_client_call_y_other.maxcores + __interface_client_call_y_extra.maxcores), __interface_client_call_y_other
	.max_reduce _i.i2c_master_if._client_call_y.max.maxcores, _i.i2c_master_if._client_call_y.maxcores.group, 0
	.weak _i.i2c_master_if._client_call_y.maxtimers.group
	.add_to_set _i.i2c_master_if._client_call_y.maxtimers.group, (__interface_client_call_y_other.maxtimers + __interface_client_call_y_extra.maxtimers), __interface_client_call_y_other
	.max_reduce _i.i2c_master_if._client_call_y.max.maxtimers, _i.i2c_master_if._client_call_y.maxtimers.group, 0
	.weak _i.i2c_master_if._client_call_y.nstackwords.group
	.globl _i.i2c_master_if._client_call_y.nstackwords.group
	.weak _i.i2c_master_if._client_call_y.fns.group
	.globl _i.i2c_master_if._client_call_y.fns.group
	.add_to_set _i.i2c_master_if._client_call_y.nstackwords.group, (__interface_client_call_y_other.nstackwords + __interface_client_call_y_extra.nstackwords), __interface_client_call_y_other
	.add_to_set _i.i2c_master_if._client_call_y.fns.group, __interface_client_call_y_other, __interface_client_call_y_other
	.max_reduce _i.i2c_master_if._client_call_y.max.nstackwords, _i.i2c_master_if._client_call_y.nstackwords.group, 0
	.max_reduce _i.i2c_master_if._client_call_y.fns, _i.i2c_master_if._client_call_y.fns.group, 0
	.weak _i.keyword_if.buffer_ready.maxchanends.group
	.max_reduce _i.keyword_if.buffer_ready.max.maxchanends, _i.keyword_if.buffer_ready.maxchanends.group, 0
	.weak _i.keyword_if.buffer_ready.maxcores.group
	.max_reduce _i.keyword_if.buffer_ready.max.maxcores, _i.keyword_if.buffer_ready.maxcores.group, 0
	.weak _i.keyword_if.buffer_ready.maxtimers.group
	.max_reduce _i.keyword_if.buffer_ready.max.maxtimers, _i.keyword_if.buffer_ready.maxtimers.group, 0
	.weak _i.keyword_if.buffer_ready.nstackwords.group
	.globl _i.keyword_if.buffer_ready.nstackwords.group
	.weak _i.keyword_if.buffer_ready.fns.group
	.globl _i.keyword_if.buffer_ready.fns.group
	.max_reduce _i.keyword_if.buffer_ready.max.nstackwords, _i.keyword_if.buffer_ready.nstackwords.group, 0
	.max_reduce _i.keyword_if.buffer_ready.fns, _i.keyword_if.buffer_ready.fns.group, 0
	.weak _i.keyword_if.__interface_init.maxchanends.group
	.max_reduce _i.keyword_if.__interface_init.max.maxchanends, _i.keyword_if.__interface_init.maxchanends.group, 0
	.weak _i.keyword_if.__interface_init.maxcores.group
	.max_reduce _i.keyword_if.__interface_init.max.maxcores, _i.keyword_if.__interface_init.maxcores.group, 0
	.weak _i.keyword_if.__interface_init.maxtimers.group
	.max_reduce _i.keyword_if.__interface_init.max.maxtimers, _i.keyword_if.__interface_init.maxtimers.group, 0
	.weak _i.keyword_if.__interface_init.nstackwords.group
	.globl _i.keyword_if.__interface_init.nstackwords.group
	.weak _i.keyword_if.__interface_init.fns.group
	.globl _i.keyword_if.__interface_init.fns.group
	.max_reduce _i.keyword_if.__interface_init.max.nstackwords, _i.keyword_if.__interface_init.nstackwords.group, 0
	.max_reduce _i.keyword_if.__interface_init.fns, _i.keyword_if.__interface_init.fns.group, 0
	.weak _i.keyword_if._client_call_y.maxchanends.group
	.add_to_set _i.keyword_if._client_call_y.maxchanends.group, (__interface_client_call_y_other.maxchanends + __interface_client_call_y_extra.maxchanends), __interface_client_call_y_other
	.max_reduce _i.keyword_if._client_call_y.max.maxchanends, _i.keyword_if._client_call_y.maxchanends.group, 0
	.weak _i.keyword_if._client_call_y.maxcores.group
	.add_to_set _i.keyword_if._client_call_y.maxcores.group, (__interface_client_call_y_other.maxcores + __interface_client_call_y_extra.maxcores), __interface_client_call_y_other
	.max_reduce _i.keyword_if._client_call_y.max.maxcores, _i.keyword_if._client_call_y.maxcores.group, 0
	.weak _i.keyword_if._client_call_y.maxtimers.group
	.add_to_set _i.keyword_if._client_call_y.maxtimers.group, (__interface_client_call_y_other.maxtimers + __interface_client_call_y_extra.maxtimers), __interface_client_call_y_other
	.max_reduce _i.keyword_if._client_call_y.max.maxtimers, _i.keyword_if._client_call_y.maxtimers.group, 0
	.weak _i.keyword_if._client_call_y.nstackwords.group
	.globl _i.keyword_if._client_call_y.nstackwords.group
	.weak _i.keyword_if._client_call_y.fns.group
	.globl _i.keyword_if._client_call_y.fns.group
	.add_to_set _i.keyword_if._client_call_y.nstackwords.group, (__interface_client_call_y_other.nstackwords + __interface_client_call_y_extra.nstackwords), __interface_client_call_y_other
	.add_to_set _i.keyword_if._client_call_y.fns.group, __interface_client_call_y_other, __interface_client_call_y_other
	.max_reduce _i.keyword_if._client_call_y.max.nstackwords, _i.keyword_if._client_call_y.nstackwords.group, 0
	.max_reduce _i.keyword_if._client_call_y.fns, _i.keyword_if._client_call_y.fns.group, 0
	.weak _i.audManage_if.transfer_buffers.maxchanends.group
	.weak _i.audManage_if.transfer_buffers.maxcores.group
	.weak _i.audManage_if.transfer_buffers.maxtimers.group
	.weak _i.audManage_if.transfer_buffers.nstackwords.group
	.globl _i.audManage_if.transfer_buffers.nstackwords.group
	.weak _i.audManage_if.transfer_buffers.fns.group
	.globl _i.audManage_if.transfer_buffers.fns.group
	.weak _i.audManage_if.transfer_samples.maxchanends.group
	.weak _i.audManage_if.transfer_samples.maxcores.group
	.weak _i.audManage_if.transfer_samples.maxtimers.group
	.weak _i.audManage_if.transfer_samples.nstackwords.group
	.globl _i.audManage_if.transfer_samples.nstackwords.group
	.weak _i.audManage_if.transfer_samples.fns.group
	.globl _i.audManage_if.transfer_samples.fns.group
	.weak _i.audManage_if.__interface_init.maxchanends.group
	.weak _i.audManage_if.__interface_init.maxcores.group
	.weak _i.audManage_if.__interface_init.maxtimers.group
	.weak _i.audManage_if.__interface_init.nstackwords.group
	.globl _i.audManage_if.__interface_init.nstackwords.group
	.weak _i.audManage_if.__interface_init.fns.group
	.globl _i.audManage_if.__interface_init.fns.group
	.weak _i.beclear_if.swap_buffers.maxchanends.group
	.weak _i.beclear_if.swap_buffers.maxcores.group
	.weak _i.beclear_if.swap_buffers.maxtimers.group
	.weak _i.beclear_if.swap_buffers.nstackwords.group
	.globl _i.beclear_if.swap_buffers.nstackwords.group
	.weak _i.beclear_if.swap_buffers.fns.group
	.globl _i.beclear_if.swap_buffers.fns.group
	.weak _i.beclear_if.transfer_samples.maxchanends.group
	.weak _i.beclear_if.transfer_samples.maxcores.group
	.weak _i.beclear_if.transfer_samples.maxtimers.group
	.weak _i.beclear_if.transfer_samples.nstackwords.group
	.globl _i.beclear_if.transfer_samples.nstackwords.group
	.weak _i.beclear_if.transfer_samples.fns.group
	.globl _i.beclear_if.transfer_samples.fns.group
	.weak _i.beclear_if.__interface_init.maxchanends.group
	.weak _i.beclear_if.__interface_init.maxcores.group
	.weak _i.beclear_if.__interface_init.maxtimers.group
	.weak _i.beclear_if.__interface_init.nstackwords.group
	.globl _i.beclear_if.__interface_init.nstackwords.group
	.weak _i.beclear_if.__interface_init.fns.group
	.globl _i.beclear_if.__interface_init.fns.group
	.weak _i.control.register_resources.maxchanends.group
	.max_reduce _i.control.register_resources.max.maxchanends, _i.control.register_resources.maxchanends.group, 0
	.weak _i.control.register_resources.maxcores.group
	.max_reduce _i.control.register_resources.max.maxcores, _i.control.register_resources.maxcores.group, 0
	.weak _i.control.register_resources.maxtimers.group
	.max_reduce _i.control.register_resources.max.maxtimers, _i.control.register_resources.maxtimers.group, 0
	.weak _i.control.register_resources.nstackwords.group
	.globl _i.control.register_resources.nstackwords.group
	.weak _i.control.register_resources.fns.group
	.globl _i.control.register_resources.fns.group
	.max_reduce _i.control.register_resources.max.nstackwords, _i.control.register_resources.nstackwords.group, 0
	.max_reduce _i.control.register_resources.fns, _i.control.register_resources.fns.group, 0
	.weak _i.control.write_command.maxchanends.group
	.max_reduce _i.control.write_command.max.maxchanends, _i.control.write_command.maxchanends.group, 0
	.weak _i.control.write_command.maxcores.group
	.max_reduce _i.control.write_command.max.maxcores, _i.control.write_command.maxcores.group, 0
	.weak _i.control.write_command.maxtimers.group
	.max_reduce _i.control.write_command.max.maxtimers, _i.control.write_command.maxtimers.group, 0
	.weak _i.control.write_command.nstackwords.group
	.globl _i.control.write_command.nstackwords.group
	.weak _i.control.write_command.fns.group
	.globl _i.control.write_command.fns.group
	.max_reduce _i.control.write_command.max.nstackwords, _i.control.write_command.nstackwords.group, 0
	.max_reduce _i.control.write_command.fns, _i.control.write_command.fns.group, 0
	.weak _i.control.read_command.maxchanends.group
	.max_reduce _i.control.read_command.max.maxchanends, _i.control.read_command.maxchanends.group, 0
	.weak _i.control.read_command.maxcores.group
	.max_reduce _i.control.read_command.max.maxcores, _i.control.read_command.maxcores.group, 0
	.weak _i.control.read_command.maxtimers.group
	.max_reduce _i.control.read_command.max.maxtimers, _i.control.read_command.maxtimers.group, 0
	.weak _i.control.read_command.nstackwords.group
	.globl _i.control.read_command.nstackwords.group
	.weak _i.control.read_command.fns.group
	.globl _i.control.read_command.fns.group
	.max_reduce _i.control.read_command.max.nstackwords, _i.control.read_command.nstackwords.group, 0
	.max_reduce _i.control.read_command.fns, _i.control.read_command.fns.group, 0
	.weak _i.control.__interface_init.maxchanends.group
	.max_reduce _i.control.__interface_init.max.maxchanends, _i.control.__interface_init.maxchanends.group, 0
	.weak _i.control.__interface_init.maxcores.group
	.max_reduce _i.control.__interface_init.max.maxcores, _i.control.__interface_init.maxcores.group, 0
	.weak _i.control.__interface_init.maxtimers.group
	.max_reduce _i.control.__interface_init.max.maxtimers, _i.control.__interface_init.maxtimers.group, 0
	.weak _i.control.__interface_init.nstackwords.group
	.globl _i.control.__interface_init.nstackwords.group
	.weak _i.control.__interface_init.fns.group
	.globl _i.control.__interface_init.fns.group
	.max_reduce _i.control.__interface_init.max.nstackwords, _i.control.__interface_init.nstackwords.group, 0
	.max_reduce _i.control.__interface_init.fns, _i.control.__interface_init.fns.group, 0
	.weak _i.control._client_call_y.maxchanends.group
	.add_to_set _i.control._client_call_y.maxchanends.group, (__interface_client_call_y_other.maxchanends + __interface_client_call_y_extra.maxchanends), __interface_client_call_y_other
	.max_reduce _i.control._client_call_y.max.maxchanends, _i.control._client_call_y.maxchanends.group, 0
	.weak _i.control._client_call_y.maxcores.group
	.add_to_set _i.control._client_call_y.maxcores.group, (__interface_client_call_y_other.maxcores + __interface_client_call_y_extra.maxcores), __interface_client_call_y_other
	.max_reduce _i.control._client_call_y.max.maxcores, _i.control._client_call_y.maxcores.group, 0
	.weak _i.control._client_call_y.maxtimers.group
	.add_to_set _i.control._client_call_y.maxtimers.group, (__interface_client_call_y_other.maxtimers + __interface_client_call_y_extra.maxtimers), __interface_client_call_y_other
	.max_reduce _i.control._client_call_y.max.maxtimers, _i.control._client_call_y.maxtimers.group, 0
	.weak _i.control._client_call_y.nstackwords.group
	.globl _i.control._client_call_y.nstackwords.group
	.weak _i.control._client_call_y.fns.group
	.globl _i.control._client_call_y.fns.group
	.add_to_set _i.control._client_call_y.nstackwords.group, (__interface_client_call_y_other.nstackwords + __interface_client_call_y_extra.nstackwords), __interface_client_call_y_other
	.add_to_set _i.control._client_call_y.fns.group, __interface_client_call_y_other, __interface_client_call_y_other
	.max_reduce _i.control._client_call_y.max.nstackwords, _i.control._client_call_y.nstackwords.group, 0
	.max_reduce _i.control._client_call_y.fns, _i.control._client_call_y.fns.group, 0
	.set usage.anon.0,0
	.set usage.anon.1,0
	.set usage.anon.2,0
	.set usage.anon.3,0
	.set usage.anon.4,0
	.set usage.anon.5,0
	.set usage.anon.6,0
	.set usage.anon.7,0
	.set usage.anon.8,0
	.set usage.anon.9,0
	.set usage.anon.10,0
	.set usage.anon.11,0
	.set usage.anon.12,0
	.set usage.anon.13,0
	.set usage.anon.14,0
	.set usage.anon.15,0
	.call main,usb_audio_io
	.call main,usage.anon.15
	.call main,pdm_mic
	.call main,pdm_buffer
	.call main,led_controller
	.call main,BeclearBuff
	.call main,BeClear_SmartHome_AEC
	.call usage.anon.15,led_init_chanend
	.call usage.anon.15,BeClear_SmartHome_BAP
	.call usb_audio_io,thread_speed
	.call usb_audio_io,audio
	.call usage.anon.6,usage.anon.5
	.call usage.anon.2,delay_ticks_longlong
	.call usage.anon.1,delay_ticks_longlong
	.call usage.anon.0,delay_ticks_longlong
	.par BeclearBuff,BeClear_SmartHome_AEC,"C:/Users/user/workspace/module_usb_audio/main.xc:577:5: error: use of `%s\' violates parallel usage rules\n    par\n    ^~~"
	.par BeclearBuff,usage.anon.15,"C:/Users/user/workspace/module_usb_audio/main.xc:577:5: error: use of `%s\' violates parallel usage rules\n    par\n    ^~~"
	.par BeclearBuff,led_controller,"C:/Users/user/workspace/module_usb_audio/main.xc:577:5: error: use of `%s\' violates parallel usage rules\n    par\n    ^~~"
	.par BeclearBuff,usb_audio_io,"C:/Users/user/workspace/module_usb_audio/main.xc:577:5: error: use of `%s\' violates parallel usage rules\n    par\n    ^~~"
	.par BeclearBuff,pdm_mic,"C:/Users/user/workspace/module_usb_audio/main.xc:577:5: error: use of `%s\' violates parallel usage rules\n    par\n    ^~~"
	.par BeclearBuff,pdm_buffer,"C:/Users/user/workspace/module_usb_audio/main.xc:577:5: error: use of `%s\' violates parallel usage rules\n    par\n    ^~~"
	.par BeClear_SmartHome_AEC,usage.anon.15,"C:/Users/user/workspace/module_usb_audio/main.xc:577:5: error: use of `%s\' violates parallel usage rules\n    par\n    ^~~"
	.par BeClear_SmartHome_AEC,led_controller,"C:/Users/user/workspace/module_usb_audio/main.xc:577:5: error: use of `%s\' violates parallel usage rules\n    par\n    ^~~"
	.par BeClear_SmartHome_AEC,usb_audio_io,"C:/Users/user/workspace/module_usb_audio/main.xc:577:5: error: use of `%s\' violates parallel usage rules\n    par\n    ^~~"
	.par BeClear_SmartHome_AEC,pdm_mic,"C:/Users/user/workspace/module_usb_audio/main.xc:577:5: error: use of `%s\' violates parallel usage rules\n    par\n    ^~~"
	.par BeClear_SmartHome_AEC,pdm_buffer,"C:/Users/user/workspace/module_usb_audio/main.xc:577:5: error: use of `%s\' violates parallel usage rules\n    par\n    ^~~"
	.par usage.anon.15,led_controller,"C:/Users/user/workspace/module_usb_audio/main.xc:577:5: error: use of `%s\' violates parallel usage rules\n    par\n    ^~~"
	.par usage.anon.15,usb_audio_io,"C:/Users/user/workspace/module_usb_audio/main.xc:577:5: error: use of `%s\' violates parallel usage rules\n    par\n    ^~~"
	.par usage.anon.15,pdm_mic,"C:/Users/user/workspace/module_usb_audio/main.xc:577:5: error: use of `%s\' violates parallel usage rules\n    par\n    ^~~"
	.par usage.anon.15,pdm_buffer,"C:/Users/user/workspace/module_usb_audio/main.xc:577:5: error: use of `%s\' violates parallel usage rules\n    par\n    ^~~"
	.par led_controller,usb_audio_io,"C:/Users/user/workspace/module_usb_audio/main.xc:577:5: error: use of `%s\' violates parallel usage rules\n    par\n    ^~~"
	.par led_controller,pdm_mic,"C:/Users/user/workspace/module_usb_audio/main.xc:577:5: error: use of `%s\' violates parallel usage rules\n    par\n    ^~~"
	.par led_controller,pdm_buffer,"C:/Users/user/workspace/module_usb_audio/main.xc:577:5: error: use of `%s\' violates parallel usage rules\n    par\n    ^~~"
	.par usb_audio_io,pdm_mic,"C:/Users/user/workspace/module_usb_audio/main.xc:577:5: error: use of `%s\' violates parallel usage rules\n    par\n    ^~~"
	.par usb_audio_io,pdm_buffer,"C:/Users/user/workspace/module_usb_audio/main.xc:577:5: error: use of `%s\' violates parallel usage rules\n    par\n    ^~~"
	.par pdm_mic,pdm_buffer,"C:/Users/user/workspace/module_usb_audio/main.xc:577:5: error: use of `%s\' violates parallel usage rules\n    par\n    ^~~"
	.set usage.anon.3.locnoside, 0
	.set usage.anon.6.locnoside, 0
	.set usage.anon.7.locnoside, 0
	.set usage.anon.8.locnoside, 0
	.set usage.anon.9.locnoside, 0
	.set usage.anon.10.locnoside, 0
	.set usage.anon.11.locnoside, 0
	.set usage.anon.12.locnoside, 0
	.set usage.anon.13.locnoside, 0
	.set usage.anon.14.locnoside, 0
	.set usb_audio_io.locnoside, 0
	.set main.locnoside, 0
	.set main.locnochandec, 0
	.set usage.anon.7.locnointerfaceaccess, 0
	.set usage.anon.8.locnointerfaceaccess, 0
	.set usage.anon.9.locnointerfaceaccess, 0
	.set usage.anon.10.locnointerfaceaccess, 0
	.set usage.anon.11.locnointerfaceaccess, 0
	.set usage.anon.12.locnointerfaceaccess, 0
	.set usage.anon.13.locnointerfaceaccess, 0
	.set usage.anon.14.locnointerfaceaccess, 0
	.overlay_subgraph_conflict __main__main_tile_0_combined_tile_0_u0, __main__main_tile_0_task_BeClear_SmartHome_AEC_1, __main__main_tile_0_task_pdm_mic_6
	.overlay_subgraph_conflict __main__main_tile_1_task_BeClear_SmartHome_BAP_2, __main__main_tile_1_task_usb_audio_io_5

                                        # End of file scope inline assembly
	.text
	.weak	_i.control._chan.read_command
	.align	4
	.type	_i.control._chan.read_command,@function
	.cc_top _i.control._chan.read_command.function,_i.control._chan.read_command
_i.control._chan.read_command:          # @_i.control._chan.read_command
	.cfi_startproc
	.issue_mode dual
# BB#0:                                 # %allocas
	{
		nop
		dualentsp 4
	}
.Ltmp0:
	.cfi_def_cfa_offset 16
.Ltmp1:
	.cfi_offset 15, 0
	{
		nop
		stw r4, sp[2]
	}
.Ltmp2:
	.cfi_offset 4, -8
	#DEBUG_VALUE: _i.control._chan.read_command:dest <- R0
	#DEBUG_VALUE: _i.control._chan.read_command:param1 <- R1
	#DEBUG_VALUE: _i.control._chan.read_command:param2 <- R2
	#DEBUG_VALUE: _i.control._chan.read_command:param3 <- R3
	#DEBUG_VALUE: _i.control._chan.read_command:param4 <- [SP+20]
	{
		getr r4, 2
		ldw r11, sp[5]
	}
	{
		setd res[r4], r0
		add r0, r4, 2
	}
	{
		out res[r4], r0
		nop
	}
	{
		outct res[r4], 2
		nop
	}
	{
		chkct res[r4], 1
		nop
	}
	{
		outt res[r4], r1
		nop
	}
	{
		outt res[r4], r2
		stw r3, sp[1]
	}
	{
		out res[r4], r11
		nop
	}
	{
		outct res[r4], 2
		ldaw r1, sp[1]
	}
	{
		mov r0, r4
		nop
	}
	bl __interface_client_call
	{
		int r0, res[r4]
		nop
	}
	{
		chkct res[r4], 1
		nop
	}
	{
		freer res[r4]
		ldw r4, sp[2]
	}
	{
		nop
		retsp 4
	}
	# RETURN_REG_HOLDER
	.cc_bottom _i.control._chan.read_command.function
	.set	_i.control._chan.read_command.nstackwords,(__interface_client_call.nstackwords + 4)
	.globl	_i.control._chan.read_command.nstackwords
	.weak	_i.control._chan.read_command.nstackwords
	.set	_i.control._chan.read_command.maxcores,__interface_client_call.maxcores $M 1
	.globl	_i.control._chan.read_command.maxcores
	.weak	_i.control._chan.read_command.maxcores
	.set	_i.control._chan.read_command.maxtimers,__interface_client_call.maxtimers $M 0
	.globl	_i.control._chan.read_command.maxtimers
	.weak	_i.control._chan.read_command.maxtimers
	.set	_i.control._chan.read_command.maxchanends,(1 + __interface_client_call.maxchanends) $M 1
	.globl	_i.control._chan.read_command.maxchanends
	.weak	_i.control._chan.read_command.maxchanends
.Ltmp3:
	.size	_i.control._chan.read_command, .Ltmp3-_i.control._chan.read_command
	.cfi_endproc

	.weak	_i.control._chan.write_command
	.align	4
	.type	_i.control._chan.write_command,@function
	.cc_top _i.control._chan.write_command.function,_i.control._chan.write_command
_i.control._chan.write_command:         # @_i.control._chan.write_command
	.cfi_startproc
	.issue_mode dual
# BB#0:                                 # %allocas
	{
		nop
		dualentsp 4
	}
.Ltmp4:
	.cfi_def_cfa_offset 16
.Ltmp5:
	.cfi_offset 15, 0
	{
		nop
		stw r4, sp[2]
	}
.Ltmp6:
	.cfi_offset 4, -8
	#DEBUG_VALUE: _i.control._chan.write_command:dest <- R0
	#DEBUG_VALUE: _i.control._chan.write_command:param1 <- R1
	#DEBUG_VALUE: _i.control._chan.write_command:param2 <- R2
	#DEBUG_VALUE: _i.control._chan.write_command:param3 <- R3
	#DEBUG_VALUE: _i.control._chan.write_command:param4 <- [SP+20]
	{
		getr r4, 2
		ldw r11, sp[5]
	}
	{
		setd res[r4], r0
		add r0, r4, 1
	}
	{
		out res[r4], r0
		nop
	}
	{
		outct res[r4], 2
		nop
	}
	{
		chkct res[r4], 1
		nop
	}
	{
		outt res[r4], r1
		nop
	}
	{
		outt res[r4], r2
		stw r3, sp[1]
	}
	{
		out res[r4], r11
		nop
	}
	{
		outct res[r4], 2
		ldaw r1, sp[1]
	}
	{
		mov r0, r4
		nop
	}
	bl __interface_client_call
	{
		int r0, res[r4]
		nop
	}
	{
		chkct res[r4], 1
		nop
	}
	{
		freer res[r4]
		ldw r4, sp[2]
	}
	{
		nop
		retsp 4
	}
	# RETURN_REG_HOLDER
	.cc_bottom _i.control._chan.write_command.function
	.set	_i.control._chan.write_command.nstackwords,(__interface_client_call.nstackwords + 4)
	.globl	_i.control._chan.write_command.nstackwords
	.weak	_i.control._chan.write_command.nstackwords
	.set	_i.control._chan.write_command.maxcores,__interface_client_call.maxcores $M 1
	.globl	_i.control._chan.write_command.maxcores
	.weak	_i.control._chan.write_command.maxcores
	.set	_i.control._chan.write_command.maxtimers,__interface_client_call.maxtimers $M 0
	.globl	_i.control._chan.write_command.maxtimers
	.weak	_i.control._chan.write_command.maxtimers
	.set	_i.control._chan.write_command.maxchanends,(1 + __interface_client_call.maxchanends) $M 1
	.globl	_i.control._chan.write_command.maxchanends
	.weak	_i.control._chan.write_command.maxchanends
.Ltmp7:
	.size	_i.control._chan.write_command, .Ltmp7-_i.control._chan.write_command
	.cfi_endproc

	.weak	_i.control._chan.register_resources
	.align	4
	.type	_i.control._chan.register_resources,@function
	.cc_top _i.control._chan.register_resources.function,_i.control._chan.register_resources
_i.control._chan.register_resources:    # @_i.control._chan.register_resources
	.cfi_startproc
	.issue_mode dual
# BB#0:                                 # %allocas
	{
		nop
		dualentsp 4
	}
.Ltmp8:
	.cfi_def_cfa_offset 16
.Ltmp9:
	.cfi_offset 15, 0
	std r5, r4, sp[1]               # 4-byte Folded Spill
.Ltmp10:
	.cfi_offset 4, -8
.Ltmp11:
	.cfi_offset 5, -4
	#DEBUG_VALUE: _i.control._chan.register_resources:dest <- R0
	#DEBUG_VALUE: _i.control._chan.register_resources:param1 <- R1
	#DEBUG_VALUE: _i.control._chan.register_resources:param2 <- R2
	#DEBUG_VALUE: _i.control._chan.register_resources:param2 <- R4
	{
		getr r5, 2
		mov r4, r2
	}
	{
		setd res[r5], r0
		nop
	}
	{
		out res[r5], r5
		nop
	}
	{
		outct res[r5], 2
		nop
	}
	{
		chkct res[r5], 1
		stw r1, sp[1]
	}
	{
		nop
		ldw r0, r4[0]
	}
	{
		out res[r5], r0
		nop
	}
	{
		outct res[r5], 2
		ldaw r1, sp[1]
	}
	{
		mov r0, r5
		nop
	}
	bl __interface_client_call
	{
		in r0, res[r5]
		nop
	}
	{
		chkct res[r5], 1
		stw r0, r4[0]
	}
	{
		freer res[r5]
		nop
	}
	ldd r5, r4, sp[1]               # 4-byte Folded Reload
	{
		nop
		retsp 4
	}
	# RETURN_REG_HOLDER
	.cc_bottom _i.control._chan.register_resources.function
	.set	_i.control._chan.register_resources.nstackwords,(__interface_client_call.nstackwords + 4)
	.globl	_i.control._chan.register_resources.nstackwords
	.weak	_i.control._chan.register_resources.nstackwords
	.set	_i.control._chan.register_resources.maxcores,__interface_client_call.maxcores $M 1
	.globl	_i.control._chan.register_resources.maxcores
	.weak	_i.control._chan.register_resources.maxcores
	.set	_i.control._chan.register_resources.maxtimers,__interface_client_call.maxtimers $M 0
	.globl	_i.control._chan.register_resources.maxtimers
	.weak	_i.control._chan.register_resources.maxtimers
	.set	_i.control._chan.register_resources.maxchanends,(1 + __interface_client_call.maxchanends) $M 1
	.globl	_i.control._chan.register_resources.maxchanends
	.weak	_i.control._chan.register_resources.maxchanends
.Ltmp12:
	.size	_i.control._chan.register_resources, .Ltmp12-_i.control._chan.register_resources
	.cfi_endproc

	.weak	_i.control._chan_yield.read_command
	.align	4
	.type	_i.control._chan_yield.read_command,@function
	.cc_top _i.control._chan_yield.read_command.function,_i.control._chan_yield.read_command
_i.control._chan_yield.read_command:    # @_i.control._chan_yield.read_command
	.cfi_startproc
	.issue_mode dual
# BB#0:                                 # %allocas
	{
		nop
		dualentsp 4
	}
.Ltmp13:
	.cfi_def_cfa_offset 16
.Ltmp14:
	.cfi_offset 15, 0
	std r5, r4, sp[1]               # 4-byte Folded Spill
.Ltmp15:
	.cfi_offset 4, -8
.Ltmp16:
	.cfi_offset 5, -4
	#DEBUG_VALUE: _i.control._chan_yield.read_command:s <- R0
	#DEBUG_VALUE: _i.control._chan_yield.read_command:param1 <- R1
	#DEBUG_VALUE: _i.control._chan_yield.read_command:param2 <- R2
	#DEBUG_VALUE: _i.control._chan_yield.read_command:param3 <- R3
	#DEBUG_VALUE: _i.control._chan_yield.read_command:param4 <- [SP+20]
	{
		nop
		ldw r11, sp[5]
	}
	{
		getr r4, 2
		ldw r5, r0[0]
	}
	{
		setd res[r4], r5
		add r5, r4, 2
	}
	{
		out res[r4], r5
		nop
	}
	{
		outct res[r4], 2
		nop
	}
	{
		chkct res[r4], 1
		nop
	}
	{
		outt res[r4], r1
		nop
	}
	{
		outt res[r4], r2
		stw r3, sp[1]
	}
	{
		out res[r4], r11
		nop
	}
	{
		outct res[r4], 2
		ldw r2, r0[1]
	}
	{
		ldaw r1, sp[1]
		mov r0, r4
	}
	bl __interface_client_call_y
	{
		int r0, res[r4]
		nop
	}
	{
		chkct res[r4], 1
		nop
	}
	{
		freer res[r4]
		nop
	}
	ldd r5, r4, sp[1]               # 4-byte Folded Reload
	{
		nop
		retsp 4
	}
	# RETURN_REG_HOLDER
	.cc_bottom _i.control._chan_yield.read_command.function
	.set	_i.control._chan_yield.read_command.nstackwords,((_i.control._client_call_y.max.nstackwords $M ($D __interface_client_call_y.nstackwords ? __interface_client_call_y.nstackwords $: _i.control._client_call_y.max.nstackwords)) + 4)
	.globl	_i.control._chan_yield.read_command.nstackwords
	.weak	_i.control._chan_yield.read_command.nstackwords
	.set	_i.control._chan_yield.read_command.maxcores,($D __interface_client_call_y.maxcores ? __interface_client_call_y.maxcores $: _i.control._client_call_y.max.maxcores) $M 1
	.globl	_i.control._chan_yield.read_command.maxcores
	.weak	_i.control._chan_yield.read_command.maxcores
	.set	_i.control._chan_yield.read_command.maxtimers,($D __interface_client_call_y.maxtimers ? __interface_client_call_y.maxtimers $: _i.control._client_call_y.max.maxtimers) $M 0
	.globl	_i.control._chan_yield.read_command.maxtimers
	.weak	_i.control._chan_yield.read_command.maxtimers
	.set	_i.control._chan_yield.read_command.maxchanends,(1 + ($D __interface_client_call_y.maxchanends ? __interface_client_call_y.maxchanends $: _i.control._client_call_y.max.maxchanends)) $M 1
	.globl	_i.control._chan_yield.read_command.maxchanends
	.weak	_i.control._chan_yield.read_command.maxchanends
.Ltmp17:
	.size	_i.control._chan_yield.read_command, .Ltmp17-_i.control._chan_yield.read_command
	.cfi_endproc

	.weak	_i.control._chan_yield.write_command
	.align	4
	.type	_i.control._chan_yield.write_command,@function
	.cc_top _i.control._chan_yield.write_command.function,_i.control._chan_yield.write_command
_i.control._chan_yield.write_command:   # @_i.control._chan_yield.write_command
	.cfi_startproc
	.issue_mode dual
# BB#0:                                 # %allocas
	{
		nop
		dualentsp 4
	}
.Ltmp18:
	.cfi_def_cfa_offset 16
.Ltmp19:
	.cfi_offset 15, 0
	std r5, r4, sp[1]               # 4-byte Folded Spill
.Ltmp20:
	.cfi_offset 4, -8
.Ltmp21:
	.cfi_offset 5, -4
	#DEBUG_VALUE: _i.control._chan_yield.write_command:s <- R0
	#DEBUG_VALUE: _i.control._chan_yield.write_command:param1 <- R1
	#DEBUG_VALUE: _i.control._chan_yield.write_command:param2 <- R2
	#DEBUG_VALUE: _i.control._chan_yield.write_command:param3 <- R3
	#DEBUG_VALUE: _i.control._chan_yield.write_command:param4 <- [SP+20]
	{
		nop
		ldw r11, sp[5]
	}
	{
		getr r4, 2
		ldw r5, r0[0]
	}
	{
		setd res[r4], r5
		add r5, r4, 1
	}
	{
		out res[r4], r5
		nop
	}
	{
		outct res[r4], 2
		nop
	}
	{
		chkct res[r4], 1
		nop
	}
	{
		outt res[r4], r1
		nop
	}
	{
		outt res[r4], r2
		stw r3, sp[1]
	}
	{
		out res[r4], r11
		nop
	}
	{
		outct res[r4], 2
		ldw r2, r0[1]
	}
	{
		ldaw r1, sp[1]
		mov r0, r4
	}
	bl __interface_client_call_y
	{
		int r0, res[r4]
		nop
	}
	{
		chkct res[r4], 1
		nop
	}
	{
		freer res[r4]
		nop
	}
	ldd r5, r4, sp[1]               # 4-byte Folded Reload
	{
		nop
		retsp 4
	}
	# RETURN_REG_HOLDER
	.cc_bottom _i.control._chan_yield.write_command.function
	.set	_i.control._chan_yield.write_command.nstackwords,((_i.control._client_call_y.max.nstackwords $M ($D __interface_client_call_y.nstackwords ? __interface_client_call_y.nstackwords $: _i.control._client_call_y.max.nstackwords)) + 4)
	.globl	_i.control._chan_yield.write_command.nstackwords
	.weak	_i.control._chan_yield.write_command.nstackwords
	.set	_i.control._chan_yield.write_command.maxcores,($D __interface_client_call_y.maxcores ? __interface_client_call_y.maxcores $: _i.control._client_call_y.max.maxcores) $M 1
	.globl	_i.control._chan_yield.write_command.maxcores
	.weak	_i.control._chan_yield.write_command.maxcores
	.set	_i.control._chan_yield.write_command.maxtimers,($D __interface_client_call_y.maxtimers ? __interface_client_call_y.maxtimers $: _i.control._client_call_y.max.maxtimers) $M 0
	.globl	_i.control._chan_yield.write_command.maxtimers
	.weak	_i.control._chan_yield.write_command.maxtimers
	.set	_i.control._chan_yield.write_command.maxchanends,(1 + ($D __interface_client_call_y.maxchanends ? __interface_client_call_y.maxchanends $: _i.control._client_call_y.max.maxchanends)) $M 1
	.globl	_i.control._chan_yield.write_command.maxchanends
	.weak	_i.control._chan_yield.write_command.maxchanends
.Ltmp22:
	.size	_i.control._chan_yield.write_command, .Ltmp22-_i.control._chan_yield.write_command
	.cfi_endproc

	.weak	_i.control._chan_yield.register_resources
	.align	4
	.type	_i.control._chan_yield.register_resources,@function
	.cc_top _i.control._chan_yield.register_resources.function,_i.control._chan_yield.register_resources
_i.control._chan_yield.register_resources: # @_i.control._chan_yield.register_resources
	.cfi_startproc
	.issue_mode dual
# BB#0:                                 # %allocas
	{
		nop
		dualentsp 4
	}
.Ltmp23:
	.cfi_def_cfa_offset 16
.Ltmp24:
	.cfi_offset 15, 0
	std r5, r4, sp[1]               # 4-byte Folded Spill
.Ltmp25:
	.cfi_offset 4, -8
.Ltmp26:
	.cfi_offset 5, -4
	#DEBUG_VALUE: _i.control._chan_yield.register_resources:s <- R0
	#DEBUG_VALUE: _i.control._chan_yield.register_resources:param1 <- R1
	#DEBUG_VALUE: _i.control._chan_yield.register_resources:param2 <- R2
	#DEBUG_VALUE: _i.control._chan_yield.register_resources:param2 <- R4
	{
		mov r4, r2
		ldw r2, r0[0]
	}
	{
		getr r5, 2
		nop
	}
	{
		setd res[r5], r2
		nop
	}
	{
		out res[r5], r5
		nop
	}
	{
		outct res[r5], 2
		nop
	}
	{
		chkct res[r5], 1
		stw r1, sp[1]
	}
	{
		nop
		ldw r1, r4[0]
	}
	{
		out res[r5], r1
		nop
	}
	{
		outct res[r5], 2
		ldw r2, r0[1]
	}
	{
		ldaw r1, sp[1]
		mov r0, r5
	}
	bl __interface_client_call_y
	{
		in r0, res[r5]
		nop
	}
	{
		chkct res[r5], 1
		stw r0, r4[0]
	}
	{
		freer res[r5]
		nop
	}
	ldd r5, r4, sp[1]               # 4-byte Folded Reload
	{
		nop
		retsp 4
	}
	# RETURN_REG_HOLDER
	.cc_bottom _i.control._chan_yield.register_resources.function
	.set	_i.control._chan_yield.register_resources.nstackwords,((_i.control._client_call_y.max.nstackwords $M ($D __interface_client_call_y.nstackwords ? __interface_client_call_y.nstackwords $: _i.control._client_call_y.max.nstackwords)) + 4)
	.globl	_i.control._chan_yield.register_resources.nstackwords
	.weak	_i.control._chan_yield.register_resources.nstackwords
	.set	_i.control._chan_yield.register_resources.maxcores,($D __interface_client_call_y.maxcores ? __interface_client_call_y.maxcores $: _i.control._client_call_y.max.maxcores) $M 1
	.globl	_i.control._chan_yield.register_resources.maxcores
	.weak	_i.control._chan_yield.register_resources.maxcores
	.set	_i.control._chan_yield.register_resources.maxtimers,($D __interface_client_call_y.maxtimers ? __interface_client_call_y.maxtimers $: _i.control._client_call_y.max.maxtimers) $M 0
	.globl	_i.control._chan_yield.register_resources.maxtimers
	.weak	_i.control._chan_yield.register_resources.maxtimers
	.set	_i.control._chan_yield.register_resources.maxchanends,(1 + ($D __interface_client_call_y.maxchanends ? __interface_client_call_y.maxchanends $: _i.control._client_call_y.max.maxchanends)) $M 1
	.globl	_i.control._chan_yield.register_resources.maxchanends
	.weak	_i.control._chan_yield.register_resources.maxchanends
.Ltmp27:
	.size	_i.control._chan_yield.register_resources, .Ltmp27-_i.control._chan_yield.register_resources
	.cfi_endproc

	.weak	_i.beclear_if._chan.transfer_samples
	.align	4
	.type	_i.beclear_if._chan.transfer_samples,@function
	.cc_top _i.beclear_if._chan.transfer_samples.function,_i.beclear_if._chan.transfer_samples
_i.beclear_if._chan.transfer_samples:   # @_i.beclear_if._chan.transfer_samples
	.cfi_startproc
	.issue_mode dual
# BB#0:                                 # %allocas
	{
		nop
		dualentsp 12
	}
.Ltmp28:
	.cfi_def_cfa_offset 48
.Ltmp29:
	.cfi_offset 15, 0
	std r5, r4, sp[2]               # 4-byte Folded Spill
.Ltmp30:
	.cfi_offset 4, -32
.Ltmp31:
	.cfi_offset 5, -28
	std r7, r6, sp[3]               # 4-byte Folded Spill
.Ltmp32:
	.cfi_offset 6, -24
.Ltmp33:
	.cfi_offset 7, -20
	std r9, r8, sp[4]               # 4-byte Folded Spill
.Ltmp34:
	.cfi_offset 8, -16
.Ltmp35:
	.cfi_offset 9, -12
.Ltmp36:
	.cfi_offset 10, -8
	#DEBUG_VALUE: _i.beclear_if._chan.transfer_samples:dest <- R0
	#DEBUG_VALUE: _i.beclear_if._chan.transfer_samples:param1 <- R1
	#DEBUG_VALUE: _i.beclear_if._chan.transfer_samples:param2 <- R2
	#DEBUG_VALUE: _i.beclear_if._chan.transfer_samples:param3 <- R3
	#DEBUG_VALUE: _i.beclear_if._chan.transfer_samples:param3 <- R5
	{
		mov r5, r3
		stw r10, sp[10]
	}
	#DEBUG_VALUE: _i.beclear_if._chan.transfer_samples:param2 <- R6
	#DEBUG_VALUE: _i.beclear_if._chan.transfer_samples:param1 <- R7
	{
		mov r6, r2
		mov r7, r1
	}
	ldd r9, r8, sp[7]
	{
		getr r4, 2
		ldw r10, sp[13]
	}
	{
		setd res[r4], r0
		add r0, r4, 1
	}
	{
		out res[r4], r0
		nop
	}
	{
		outct res[r4], 2
		ldc r1, 0
	}
	{
		mov r0, r4
		nop
	}
	bl __interface_wait_and_yield
	{
		chkct res[r4], 1
		nop
	}
	{
		out res[r4], r10
		stw r7, sp[1]
	}
	{
		out res[r4], r8
		stw r6, sp[2]
	}
	{
		out res[r4], r9
		stw r5, sp[3]
	}
	{
		outct res[r4], 2
		ldaw r1, sp[1]
	}
	{
		mov r0, r4
		nop
	}
	bl __interface_client_call
	{
		chkct res[r4], 1
		nop
	}
	{
		freer res[r4]
		ldw r10, sp[10]
	}
	ldd r9, r8, sp[4]               # 4-byte Folded Reload
	ldd r7, r6, sp[3]               # 4-byte Folded Reload
	ldd r5, r4, sp[2]               # 4-byte Folded Reload
	{
		nop
		retsp 12
	}
	# RETURN_REG_HOLDER
	.cc_bottom _i.beclear_if._chan.transfer_samples.function
	.set	_i.beclear_if._chan.transfer_samples.nstackwords,((_i.beclear_if._client_call_y.max.nstackwords $M ($D __interface_wait_and_yield.nstackwords ? __interface_wait_and_yield.nstackwords $: _i.beclear_if._client_call_y.max.nstackwords) $M __interface_client_call.nstackwords) + 12)
	.globl	_i.beclear_if._chan.transfer_samples.nstackwords
	.weak	_i.beclear_if._chan.transfer_samples.nstackwords
	.set	_i.beclear_if._chan.transfer_samples.maxcores,__interface_client_call.maxcores $M ($D __interface_wait_and_yield.maxcores ? __interface_wait_and_yield.maxcores $: _i.beclear_if._client_call_y.max.maxcores) $M 1
	.globl	_i.beclear_if._chan.transfer_samples.maxcores
	.weak	_i.beclear_if._chan.transfer_samples.maxcores
	.set	_i.beclear_if._chan.transfer_samples.maxtimers,__interface_client_call.maxtimers $M ($D __interface_wait_and_yield.maxtimers ? __interface_wait_and_yield.maxtimers $: _i.beclear_if._client_call_y.max.maxtimers) $M 0
	.globl	_i.beclear_if._chan.transfer_samples.maxtimers
	.weak	_i.beclear_if._chan.transfer_samples.maxtimers
	.set	_i.beclear_if._chan.transfer_samples.maxchanends,(1 + __interface_client_call.maxchanends) $M (1 + ($D __interface_wait_and_yield.maxchanends ? __interface_wait_and_yield.maxchanends $: _i.beclear_if._client_call_y.max.maxchanends)) $M 1
	.globl	_i.beclear_if._chan.transfer_samples.maxchanends
	.weak	_i.beclear_if._chan.transfer_samples.maxchanends
.Ltmp37:
	.size	_i.beclear_if._chan.transfer_samples, .Ltmp37-_i.beclear_if._chan.transfer_samples
	.cfi_endproc

	.weak	_i.beclear_if._chan.swap_buffers
	.align	4
	.type	_i.beclear_if._chan.swap_buffers,@function
	.cc_top _i.beclear_if._chan.swap_buffers.function,_i.beclear_if._chan.swap_buffers
_i.beclear_if._chan.swap_buffers:       # @_i.beclear_if._chan.swap_buffers
	.cfi_startproc
	.issue_mode dual
# BB#0:                                 # %allocas
	{
		nop
		dualentsp 4
	}
.Ltmp38:
	.cfi_def_cfa_offset 16
.Ltmp39:
	.cfi_offset 15, 0
.Ltmp40:
	.cfi_offset 4, -8
	#DEBUG_VALUE: _i.beclear_if._chan.swap_buffers:dest <- R0
	{
		getr r4, 2
		stw r4, sp[2]
	}
	{
		setd res[r4], r0
		nop
	}
	{
		out res[r4], r4
		nop
	}
	{
		outct res[r4], 2
		ldc r1, 0
	}
	{
		mov r0, r4
		nop
	}
	bl __interface_wait_and_yield
	{
		in r0, res[r4]
		nop
	}
	{
		chkct res[r4], 1
		nop
	}
	{
		freer res[r4]
		ldw r4, sp[2]
	}
	{
		nop
		retsp 4
	}
	# RETURN_REG_HOLDER
	.cc_bottom _i.beclear_if._chan.swap_buffers.function
	.set	_i.beclear_if._chan.swap_buffers.nstackwords,((_i.beclear_if._client_call_y.max.nstackwords $M ($D __interface_wait_and_yield.nstackwords ? __interface_wait_and_yield.nstackwords $: _i.beclear_if._client_call_y.max.nstackwords)) + 4)
	.globl	_i.beclear_if._chan.swap_buffers.nstackwords
	.weak	_i.beclear_if._chan.swap_buffers.nstackwords
	.set	_i.beclear_if._chan.swap_buffers.maxcores,($D __interface_wait_and_yield.maxcores ? __interface_wait_and_yield.maxcores $: _i.beclear_if._client_call_y.max.maxcores) $M 1
	.globl	_i.beclear_if._chan.swap_buffers.maxcores
	.weak	_i.beclear_if._chan.swap_buffers.maxcores
	.set	_i.beclear_if._chan.swap_buffers.maxtimers,($D __interface_wait_and_yield.maxtimers ? __interface_wait_and_yield.maxtimers $: _i.beclear_if._client_call_y.max.maxtimers) $M 0
	.globl	_i.beclear_if._chan.swap_buffers.maxtimers
	.weak	_i.beclear_if._chan.swap_buffers.maxtimers
	.set	_i.beclear_if._chan.swap_buffers.maxchanends,(1 + ($D __interface_wait_and_yield.maxchanends ? __interface_wait_and_yield.maxchanends $: _i.beclear_if._client_call_y.max.maxchanends)) $M 1
	.globl	_i.beclear_if._chan.swap_buffers.maxchanends
	.weak	_i.beclear_if._chan.swap_buffers.maxchanends
.Ltmp41:
	.size	_i.beclear_if._chan.swap_buffers, .Ltmp41-_i.beclear_if._chan.swap_buffers
	.cfi_endproc

	.weak	_i.beclear_if._chan_yield.transfer_samples
	.align	4
	.type	_i.beclear_if._chan_yield.transfer_samples,@function
	.cc_top _i.beclear_if._chan_yield.transfer_samples.function,_i.beclear_if._chan_yield.transfer_samples
_i.beclear_if._chan_yield.transfer_samples: # @_i.beclear_if._chan_yield.transfer_samples
	.cfi_startproc
	.issue_mode dual
# BB#0:                                 # %allocas
	{
		nop
		dualentsp 12
	}
.Ltmp42:
	.cfi_def_cfa_offset 48
.Ltmp43:
	.cfi_offset 15, 0
	std r5, r4, sp[2]               # 4-byte Folded Spill
.Ltmp44:
	.cfi_offset 4, -32
.Ltmp45:
	.cfi_offset 5, -28
	std r7, r6, sp[3]               # 4-byte Folded Spill
.Ltmp46:
	.cfi_offset 6, -24
.Ltmp47:
	.cfi_offset 7, -20
	std r9, r8, sp[4]               # 4-byte Folded Spill
.Ltmp48:
	.cfi_offset 8, -16
.Ltmp49:
	.cfi_offset 9, -12
.Ltmp50:
	.cfi_offset 10, -8
	#DEBUG_VALUE: _i.beclear_if._chan_yield.transfer_samples:s <- R0
	#DEBUG_VALUE: _i.beclear_if._chan_yield.transfer_samples:param1 <- R1
	#DEBUG_VALUE: _i.beclear_if._chan_yield.transfer_samples:param2 <- R2
	#DEBUG_VALUE: _i.beclear_if._chan_yield.transfer_samples:param3 <- R3
	#DEBUG_VALUE: _i.beclear_if._chan_yield.transfer_samples:param3 <- R5
	{
		mov r5, r3
		stw r10, sp[10]
	}
	#DEBUG_VALUE: _i.beclear_if._chan_yield.transfer_samples:param2 <- R6
	#DEBUG_VALUE: _i.beclear_if._chan_yield.transfer_samples:param1 <- R7
	{
		mov r6, r2
		mov r7, r1
	}
	ldd r10, r9, sp[7]
	{
		getr r4, 2
		ldw r1, r0[0]
	}
	{
		setd res[r4], r1
		add r1, r4, 1
	}
	{
		out res[r4], r1
		nop
	}
	{
		outct res[r4], 2
		ldw r8, r0[1]
	}
	{
		mov r0, r4
		mov r1, r8
	}
	bl __interface_wait_and_yield
	{
		chkct res[r4], 1
		ldw r0, sp[13]
	}
	{
		out res[r4], r0
		stw r7, sp[1]
	}
	{
		out res[r4], r9
		stw r6, sp[2]
	}
	{
		out res[r4], r10
		stw r5, sp[3]
	}
	{
		outct res[r4], 2
		ldaw r1, sp[1]
	}
	{
		mov r0, r4
		mov r2, r8
	}
	bl __interface_client_call_y
	{
		chkct res[r4], 1
		nop
	}
	{
		freer res[r4]
		ldw r10, sp[10]
	}
	ldd r9, r8, sp[4]               # 4-byte Folded Reload
	ldd r7, r6, sp[3]               # 4-byte Folded Reload
	ldd r5, r4, sp[2]               # 4-byte Folded Reload
	{
		nop
		retsp 12
	}
	# RETURN_REG_HOLDER
	.cc_bottom _i.beclear_if._chan_yield.transfer_samples.function
	.set	_i.beclear_if._chan_yield.transfer_samples.nstackwords,((($D __interface_wait_and_yield.nstackwords ? __interface_wait_and_yield.nstackwords $: _i.beclear_if._client_call_y.max.nstackwords) $M _i.beclear_if._client_call_y.max.nstackwords $M ($D __interface_client_call_y.nstackwords ? __interface_client_call_y.nstackwords $: _i.beclear_if._client_call_y.max.nstackwords)) + 12)
	.globl	_i.beclear_if._chan_yield.transfer_samples.nstackwords
	.weak	_i.beclear_if._chan_yield.transfer_samples.nstackwords
	.set	_i.beclear_if._chan_yield.transfer_samples.maxcores,($D __interface_client_call_y.maxcores ? __interface_client_call_y.maxcores $: _i.beclear_if._client_call_y.max.maxcores) $M ($D __interface_wait_and_yield.maxcores ? __interface_wait_and_yield.maxcores $: _i.beclear_if._client_call_y.max.maxcores) $M 1
	.globl	_i.beclear_if._chan_yield.transfer_samples.maxcores
	.weak	_i.beclear_if._chan_yield.transfer_samples.maxcores
	.set	_i.beclear_if._chan_yield.transfer_samples.maxtimers,($D __interface_client_call_y.maxtimers ? __interface_client_call_y.maxtimers $: _i.beclear_if._client_call_y.max.maxtimers) $M ($D __interface_wait_and_yield.maxtimers ? __interface_wait_and_yield.maxtimers $: _i.beclear_if._client_call_y.max.maxtimers) $M 0
	.globl	_i.beclear_if._chan_yield.transfer_samples.maxtimers
	.weak	_i.beclear_if._chan_yield.transfer_samples.maxtimers
	.set	_i.beclear_if._chan_yield.transfer_samples.maxchanends,(1 + ($D __interface_client_call_y.maxchanends ? __interface_client_call_y.maxchanends $: _i.beclear_if._client_call_y.max.maxchanends)) $M (1 + ($D __interface_wait_and_yield.maxchanends ? __interface_wait_and_yield.maxchanends $: _i.beclear_if._client_call_y.max.maxchanends)) $M 1
	.globl	_i.beclear_if._chan_yield.transfer_samples.maxchanends
	.weak	_i.beclear_if._chan_yield.transfer_samples.maxchanends
.Ltmp51:
	.size	_i.beclear_if._chan_yield.transfer_samples, .Ltmp51-_i.beclear_if._chan_yield.transfer_samples
	.cfi_endproc

	.weak	_i.beclear_if._chan_yield.swap_buffers
	.align	4
	.type	_i.beclear_if._chan_yield.swap_buffers,@function
	.cc_top _i.beclear_if._chan_yield.swap_buffers.function,_i.beclear_if._chan_yield.swap_buffers
_i.beclear_if._chan_yield.swap_buffers: # @_i.beclear_if._chan_yield.swap_buffers
	.cfi_startproc
	.issue_mode dual
# BB#0:                                 # %allocas
	{
		nop
		dualentsp 4
	}
.Ltmp52:
	.cfi_def_cfa_offset 16
.Ltmp53:
	.cfi_offset 15, 0
	std r5, r4, sp[1]               # 4-byte Folded Spill
.Ltmp54:
	.cfi_offset 4, -8
.Ltmp55:
	.cfi_offset 5, -4
	#DEBUG_VALUE: _i.beclear_if._chan_yield.swap_buffers:s <- R0
	{
		getr r4, 2
		ldw r1, r0[0]
	}
	{
		setd res[r4], r1
		nop
	}
	{
		out res[r4], r4
		nop
	}
	{
		outct res[r4], 2
		ldw r5, r0[1]
	}
	{
		mov r0, r4
		mov r1, r5
	}
	bl __interface_wait_and_yield
	{
		ldc r1, 0
		mov r0, r4
	}
	{
		mov r2, r5
		nop
	}
	bl __interface_client_call_y
	{
		chkct res[r4], 1
		nop
	}
	{
		freer res[r4]
		nop
	}
	ldd r5, r4, sp[1]               # 4-byte Folded Reload
	{
		nop
		retsp 4
	}
	# RETURN_REG_HOLDER
	.cc_bottom _i.beclear_if._chan_yield.swap_buffers.function
	.set	_i.beclear_if._chan_yield.swap_buffers.nstackwords,((($D __interface_wait_and_yield.nstackwords ? __interface_wait_and_yield.nstackwords $: _i.beclear_if._client_call_y.max.nstackwords) $M _i.beclear_if._client_call_y.max.nstackwords $M ($D __interface_client_call_y.nstackwords ? __interface_client_call_y.nstackwords $: _i.beclear_if._client_call_y.max.nstackwords)) + 4)
	.globl	_i.beclear_if._chan_yield.swap_buffers.nstackwords
	.weak	_i.beclear_if._chan_yield.swap_buffers.nstackwords
	.set	_i.beclear_if._chan_yield.swap_buffers.maxcores,($D __interface_client_call_y.maxcores ? __interface_client_call_y.maxcores $: _i.beclear_if._client_call_y.max.maxcores) $M ($D __interface_wait_and_yield.maxcores ? __interface_wait_and_yield.maxcores $: _i.beclear_if._client_call_y.max.maxcores) $M 1
	.globl	_i.beclear_if._chan_yield.swap_buffers.maxcores
	.weak	_i.beclear_if._chan_yield.swap_buffers.maxcores
	.set	_i.beclear_if._chan_yield.swap_buffers.maxtimers,($D __interface_client_call_y.maxtimers ? __interface_client_call_y.maxtimers $: _i.beclear_if._client_call_y.max.maxtimers) $M ($D __interface_wait_and_yield.maxtimers ? __interface_wait_and_yield.maxtimers $: _i.beclear_if._client_call_y.max.maxtimers) $M 0
	.globl	_i.beclear_if._chan_yield.swap_buffers.maxtimers
	.weak	_i.beclear_if._chan_yield.swap_buffers.maxtimers
	.set	_i.beclear_if._chan_yield.swap_buffers.maxchanends,(1 + ($D __interface_client_call_y.maxchanends ? __interface_client_call_y.maxchanends $: _i.beclear_if._client_call_y.max.maxchanends)) $M (1 + ($D __interface_wait_and_yield.maxchanends ? __interface_wait_and_yield.maxchanends $: _i.beclear_if._client_call_y.max.maxchanends)) $M 1
	.globl	_i.beclear_if._chan_yield.swap_buffers.maxchanends
	.weak	_i.beclear_if._chan_yield.swap_buffers.maxchanends
.Ltmp56:
	.size	_i.beclear_if._chan_yield.swap_buffers, .Ltmp56-_i.beclear_if._chan_yield.swap_buffers
	.cfi_endproc

	.weak	_i.audManage_if._chan.transfer_samples
	.align	4
	.type	_i.audManage_if._chan.transfer_samples,@function
	.cc_top _i.audManage_if._chan.transfer_samples.function,_i.audManage_if._chan.transfer_samples
_i.audManage_if._chan.transfer_samples: # @_i.audManage_if._chan.transfer_samples
	.cfi_startproc
	.issue_mode dual
# BB#0:                                 # %allocas
	{
		nop
		dualentsp 14
	}
.Ltmp57:
	.cfi_def_cfa_offset 56
.Ltmp58:
	.cfi_offset 15, 0
	std r5, r4, sp[3]               # 4-byte Folded Spill
.Ltmp59:
	.cfi_offset 4, -32
.Ltmp60:
	.cfi_offset 5, -28
	std r7, r6, sp[4]               # 4-byte Folded Spill
.Ltmp61:
	.cfi_offset 6, -24
.Ltmp62:
	.cfi_offset 7, -20
	std r9, r8, sp[5]               # 4-byte Folded Spill
.Ltmp63:
	.cfi_offset 8, -16
.Ltmp64:
	.cfi_offset 9, -12
	{
		nop
		stw r10, sp[12]
	}
.Ltmp65:
	.cfi_offset 10, -8
	#DEBUG_VALUE: _i.audManage_if._chan.transfer_samples:dest <- R0
	#DEBUG_VALUE: _i.audManage_if._chan.transfer_samples:param1 <- R1
	#DEBUG_VALUE: _i.audManage_if._chan.transfer_samples:param2 <- R2
	#DEBUG_VALUE: _i.audManage_if._chan.transfer_samples:param3 <- R3
	#DEBUG_VALUE: _i.audManage_if._chan.transfer_samples:param4 <- [SP+60]
	#DEBUG_VALUE: _i.audManage_if._chan.transfer_samples:param3 <- [SP+4]
	#DEBUG_VALUE: _i.audManage_if._chan.transfer_samples:param2 <- R6
	{
		mov r6, r2
		stw r3, sp[1]
	}
	{
		mov r7, r1
		nop
	}
	#DEBUG_VALUE: _i.audManage_if._chan.transfer_samples:param1 <- R7
	ldd r10, r9, sp[9]
	ldd r4, r8, sp[8]
	{
		ldc r1, 0
		nop
	}
	{
		nop
		stw r1, sp[4]
	}
	{
		nop
		stw r1, sp[3]
	}
	{
		getr r5, 2
		stw r1, sp[2]
	}
	{
		setd res[r5], r0
		add r0, r5, 1
	}
	{
		out res[r5], r0
		nop
	}
	{
		outct res[r5], 2
		mov r0, r5
	}
	bl __interface_wait_and_yield
	{
		chkct res[r5], 1
		nop
	}
	{
		out res[r5], r8
		stw r7, sp[2]
	}
	{
		out res[r5], r4
		stw r6, sp[3]
	}
	{
		out res[r5], r9
		ldw r0, sp[1]
	}
	{
		out res[r5], r10
		stw r0, sp[4]
	}
	{
		nop
		ldw r0, sp[15]
	}
	{
		outct res[r5], 2
		stw r0, sp[5]
	}
	{
		ldaw r1, sp[2]
		mov r0, r5
	}
	bl __interface_client_call
	{
		chkct res[r5], 1
		nop
	}
	{
		freer res[r5]
		ldw r10, sp[12]
	}
	ldd r9, r8, sp[5]               # 4-byte Folded Reload
	ldd r7, r6, sp[4]               # 4-byte Folded Reload
	ldd r5, r4, sp[3]               # 4-byte Folded Reload
	{
		nop
		retsp 14
	}
	# RETURN_REG_HOLDER
	.cc_bottom _i.audManage_if._chan.transfer_samples.function
	.set	_i.audManage_if._chan.transfer_samples.nstackwords,((_i.audManage_if._client_call_y.max.nstackwords $M ($D __interface_wait_and_yield.nstackwords ? __interface_wait_and_yield.nstackwords $: _i.audManage_if._client_call_y.max.nstackwords) $M __interface_client_call.nstackwords) + 14)
	.globl	_i.audManage_if._chan.transfer_samples.nstackwords
	.weak	_i.audManage_if._chan.transfer_samples.nstackwords
	.set	_i.audManage_if._chan.transfer_samples.maxcores,__interface_client_call.maxcores $M ($D __interface_wait_and_yield.maxcores ? __interface_wait_and_yield.maxcores $: _i.audManage_if._client_call_y.max.maxcores) $M 1
	.globl	_i.audManage_if._chan.transfer_samples.maxcores
	.weak	_i.audManage_if._chan.transfer_samples.maxcores
	.set	_i.audManage_if._chan.transfer_samples.maxtimers,__interface_client_call.maxtimers $M ($D __interface_wait_and_yield.maxtimers ? __interface_wait_and_yield.maxtimers $: _i.audManage_if._client_call_y.max.maxtimers) $M 0
	.globl	_i.audManage_if._chan.transfer_samples.maxtimers
	.weak	_i.audManage_if._chan.transfer_samples.maxtimers
	.set	_i.audManage_if._chan.transfer_samples.maxchanends,(1 + __interface_client_call.maxchanends) $M (1 + ($D __interface_wait_and_yield.maxchanends ? __interface_wait_and_yield.maxchanends $: _i.audManage_if._client_call_y.max.maxchanends)) $M 1
	.globl	_i.audManage_if._chan.transfer_samples.maxchanends
	.weak	_i.audManage_if._chan.transfer_samples.maxchanends
.Ltmp66:
	.size	_i.audManage_if._chan.transfer_samples, .Ltmp66-_i.audManage_if._chan.transfer_samples
	.cfi_endproc

	.weak	_i.audManage_if._chan.transfer_buffers
	.align	4
	.type	_i.audManage_if._chan.transfer_buffers,@function
	.cc_top _i.audManage_if._chan.transfer_buffers.function,_i.audManage_if._chan.transfer_buffers
_i.audManage_if._chan.transfer_buffers: # @_i.audManage_if._chan.transfer_buffers
	.cfi_startproc
	.issue_mode dual
# BB#0:                                 # %allocas
	{
		nop
		dualentsp 8
	}
.Ltmp67:
	.cfi_def_cfa_offset 32
.Ltmp68:
	.cfi_offset 15, 0
	std r5, r4, sp[1]               # 4-byte Folded Spill
.Ltmp69:
	.cfi_offset 4, -24
.Ltmp70:
	.cfi_offset 5, -20
	std r7, r6, sp[2]               # 4-byte Folded Spill
.Ltmp71:
	.cfi_offset 6, -16
.Ltmp72:
	.cfi_offset 7, -12
.Ltmp73:
	.cfi_offset 8, -8
	#DEBUG_VALUE: _i.audManage_if._chan.transfer_buffers:dest <- R0
	#DEBUG_VALUE: _i.audManage_if._chan.transfer_buffers:param1 <- R1
	#DEBUG_VALUE: _i.audManage_if._chan.transfer_buffers:param2 <- R2
	#DEBUG_VALUE: _i.audManage_if._chan.transfer_buffers:param3 <- R3
	#DEBUG_VALUE: _i.audManage_if._chan.transfer_buffers:param4 <- [SP+36]
	#DEBUG_VALUE: _i.audManage_if._chan.transfer_buffers:param3 <- R5
	{
		mov r5, r3
		stw r8, sp[6]
	}
	#DEBUG_VALUE: _i.audManage_if._chan.transfer_buffers:param2 <- R6
	#DEBUG_VALUE: _i.audManage_if._chan.transfer_buffers:param1 <- R7
	{
		mov r6, r2
		mov r7, r1
	}
	{
		getr r4, 2
		ldw r8, sp[9]
	}
	{
		setd res[r4], r0
		nop
	}
	{
		out res[r4], r4
		nop
	}
	{
		outct res[r4], 2
		ldc r1, 0
	}
	{
		mov r0, r4
		nop
	}
	bl __interface_wait_and_yield
	{
		chkct res[r4], 1
		nop
	}
	#APP
	#NO_APP
	{
		out res[r4], r7
		nop
	}
	#APP
	#NO_APP
	{
		out res[r4], r6
		nop
	}
	#APP
	#NO_APP
	{
		out res[r4], r5
		nop
	}
	#APP
	#NO_APP
	{
		out res[r4], r8
		nop
	}
	{
		outct res[r4], 2
		nop
	}
	{
		in r0, res[r4]
		nop
	}
	{
		chkct res[r4], 1
		nop
	}
	{
		freer res[r4]
		ldw r8, sp[6]
	}
	ldd r7, r6, sp[2]               # 4-byte Folded Reload
	ldd r5, r4, sp[1]               # 4-byte Folded Reload
	{
		nop
		retsp 8
	}
	# RETURN_REG_HOLDER
	.cc_bottom _i.audManage_if._chan.transfer_buffers.function
	.set	_i.audManage_if._chan.transfer_buffers.nstackwords,((_i.audManage_if._client_call_y.max.nstackwords $M ($D __interface_wait_and_yield.nstackwords ? __interface_wait_and_yield.nstackwords $: _i.audManage_if._client_call_y.max.nstackwords)) + 8)
	.globl	_i.audManage_if._chan.transfer_buffers.nstackwords
	.weak	_i.audManage_if._chan.transfer_buffers.nstackwords
	.set	_i.audManage_if._chan.transfer_buffers.maxcores,($D __interface_wait_and_yield.maxcores ? __interface_wait_and_yield.maxcores $: _i.audManage_if._client_call_y.max.maxcores) $M 1
	.globl	_i.audManage_if._chan.transfer_buffers.maxcores
	.weak	_i.audManage_if._chan.transfer_buffers.maxcores
	.set	_i.audManage_if._chan.transfer_buffers.maxtimers,($D __interface_wait_and_yield.maxtimers ? __interface_wait_and_yield.maxtimers $: _i.audManage_if._client_call_y.max.maxtimers) $M 0
	.globl	_i.audManage_if._chan.transfer_buffers.maxtimers
	.weak	_i.audManage_if._chan.transfer_buffers.maxtimers
	.set	_i.audManage_if._chan.transfer_buffers.maxchanends,(1 + ($D __interface_wait_and_yield.maxchanends ? __interface_wait_and_yield.maxchanends $: _i.audManage_if._client_call_y.max.maxchanends)) $M 1
	.globl	_i.audManage_if._chan.transfer_buffers.maxchanends
	.weak	_i.audManage_if._chan.transfer_buffers.maxchanends
.Ltmp74:
	.size	_i.audManage_if._chan.transfer_buffers, .Ltmp74-_i.audManage_if._chan.transfer_buffers
	.cfi_endproc

	.weak	_i.audManage_if._chan_yield.transfer_samples
	.align	4
	.type	_i.audManage_if._chan_yield.transfer_samples,@function
	.cc_top _i.audManage_if._chan_yield.transfer_samples.function,_i.audManage_if._chan_yield.transfer_samples
_i.audManage_if._chan_yield.transfer_samples: # @_i.audManage_if._chan_yield.transfer_samples
	.cfi_startproc
	.issue_mode dual
# BB#0:                                 # %allocas
	{
		nop
		dualentsp 16
	}
.Ltmp75:
	.cfi_def_cfa_offset 64
.Ltmp76:
	.cfi_offset 15, 0
	std r5, r4, sp[4]               # 4-byte Folded Spill
.Ltmp77:
	.cfi_offset 4, -32
.Ltmp78:
	.cfi_offset 5, -28
	std r7, r6, sp[5]               # 4-byte Folded Spill
.Ltmp79:
	.cfi_offset 6, -24
.Ltmp80:
	.cfi_offset 7, -20
	std r9, r8, sp[6]               # 4-byte Folded Spill
.Ltmp81:
	.cfi_offset 8, -16
.Ltmp82:
	.cfi_offset 9, -12
	{
		nop
		stw r10, sp[14]
	}
.Ltmp83:
	.cfi_offset 10, -8
	#DEBUG_VALUE: _i.audManage_if._chan_yield.transfer_samples:s <- R0
	#DEBUG_VALUE: _i.audManage_if._chan_yield.transfer_samples:param1 <- R1
	#DEBUG_VALUE: _i.audManage_if._chan_yield.transfer_samples:param2 <- R2
	#DEBUG_VALUE: _i.audManage_if._chan_yield.transfer_samples:param3 <- R3
	#DEBUG_VALUE: _i.audManage_if._chan_yield.transfer_samples:param4 <- [SP+68]
	{
		nop
		stw r3, sp[3]
	}
	#DEBUG_VALUE: _i.audManage_if._chan_yield.transfer_samples:param3 <- [SP+12]
	#DEBUG_VALUE: _i.audManage_if._chan_yield.transfer_samples:param2 <- [SP+8]
	#DEBUG_VALUE: _i.audManage_if._chan_yield.transfer_samples:param1 <- R7
	{
		mov r7, r1
		stw r2, sp[2]
	}
	ldd r10, r9, sp[10]
	ldd r6, r4, sp[9]
	{
		ldc r1, 0
		nop
	}
	{
		nop
		stw r1, sp[6]
	}
	{
		nop
		stw r1, sp[5]
	}
	{
		nop
		stw r1, sp[4]
	}
	{
		getr r5, 2
		ldw r1, r0[0]
	}
	{
		setd res[r5], r1
		add r1, r5, 1
	}
	{
		out res[r5], r1
		nop
	}
	{
		outct res[r5], 2
		ldw r8, r0[1]
	}
	{
		mov r0, r5
		mov r1, r8
	}
	bl __interface_wait_and_yield
	{
		chkct res[r5], 1
		nop
	}
	{
		out res[r5], r4
		stw r7, sp[4]
	}
	{
		out res[r5], r6
		ldw r0, sp[2]
	}
	{
		out res[r5], r9
		stw r0, sp[5]
	}
	{
		nop
		ldw r0, sp[3]
	}
	{
		out res[r5], r10
		stw r0, sp[6]
	}
	{
		nop
		ldw r0, sp[17]
	}
	{
		outct res[r5], 2
		stw r0, sp[7]
	}
	{
		ldaw r1, sp[4]
		mov r0, r5
	}
	{
		mov r2, r8
		nop
	}
	bl __interface_client_call_y
	{
		chkct res[r5], 1
		nop
	}
	{
		freer res[r5]
		ldw r10, sp[14]
	}
	ldd r9, r8, sp[6]               # 4-byte Folded Reload
	ldd r7, r6, sp[5]               # 4-byte Folded Reload
	ldd r5, r4, sp[4]               # 4-byte Folded Reload
	{
		nop
		retsp 16
	}
	# RETURN_REG_HOLDER
	.cc_bottom _i.audManage_if._chan_yield.transfer_samples.function
	.set	_i.audManage_if._chan_yield.transfer_samples.nstackwords,((($D __interface_wait_and_yield.nstackwords ? __interface_wait_and_yield.nstackwords $: _i.audManage_if._client_call_y.max.nstackwords) $M _i.audManage_if._client_call_y.max.nstackwords $M ($D __interface_client_call_y.nstackwords ? __interface_client_call_y.nstackwords $: _i.audManage_if._client_call_y.max.nstackwords)) + 16)
	.globl	_i.audManage_if._chan_yield.transfer_samples.nstackwords
	.weak	_i.audManage_if._chan_yield.transfer_samples.nstackwords
	.set	_i.audManage_if._chan_yield.transfer_samples.maxcores,($D __interface_client_call_y.maxcores ? __interface_client_call_y.maxcores $: _i.audManage_if._client_call_y.max.maxcores) $M ($D __interface_wait_and_yield.maxcores ? __interface_wait_and_yield.maxcores $: _i.audManage_if._client_call_y.max.maxcores) $M 1
	.globl	_i.audManage_if._chan_yield.transfer_samples.maxcores
	.weak	_i.audManage_if._chan_yield.transfer_samples.maxcores
	.set	_i.audManage_if._chan_yield.transfer_samples.maxtimers,($D __interface_client_call_y.maxtimers ? __interface_client_call_y.maxtimers $: _i.audManage_if._client_call_y.max.maxtimers) $M ($D __interface_wait_and_yield.maxtimers ? __interface_wait_and_yield.maxtimers $: _i.audManage_if._client_call_y.max.maxtimers) $M 0
	.globl	_i.audManage_if._chan_yield.transfer_samples.maxtimers
	.weak	_i.audManage_if._chan_yield.transfer_samples.maxtimers
	.set	_i.audManage_if._chan_yield.transfer_samples.maxchanends,(1 + ($D __interface_client_call_y.maxchanends ? __interface_client_call_y.maxchanends $: _i.audManage_if._client_call_y.max.maxchanends)) $M (1 + ($D __interface_wait_and_yield.maxchanends ? __interface_wait_and_yield.maxchanends $: _i.audManage_if._client_call_y.max.maxchanends)) $M 1
	.globl	_i.audManage_if._chan_yield.transfer_samples.maxchanends
	.weak	_i.audManage_if._chan_yield.transfer_samples.maxchanends
.Ltmp84:
	.size	_i.audManage_if._chan_yield.transfer_samples, .Ltmp84-_i.audManage_if._chan_yield.transfer_samples
	.cfi_endproc

	.weak	_i.audManage_if._chan_yield.transfer_buffers
	.align	4
	.type	_i.audManage_if._chan_yield.transfer_buffers,@function
	.cc_top _i.audManage_if._chan_yield.transfer_buffers.function,_i.audManage_if._chan_yield.transfer_buffers
_i.audManage_if._chan_yield.transfer_buffers: # @_i.audManage_if._chan_yield.transfer_buffers
	.cfi_startproc
	.issue_mode dual
# BB#0:                                 # %allocas
	{
		nop
		dualentsp 8
	}
.Ltmp85:
	.cfi_def_cfa_offset 32
.Ltmp86:
	.cfi_offset 15, 0
	std r5, r4, sp[1]               # 4-byte Folded Spill
.Ltmp87:
	.cfi_offset 4, -24
.Ltmp88:
	.cfi_offset 5, -20
	std r7, r6, sp[2]               # 4-byte Folded Spill
.Ltmp89:
	.cfi_offset 6, -16
.Ltmp90:
	.cfi_offset 7, -12
	std r9, r8, sp[3]               # 4-byte Folded Spill
.Ltmp91:
	.cfi_offset 8, -8
.Ltmp92:
	.cfi_offset 9, -4
	#DEBUG_VALUE: _i.audManage_if._chan_yield.transfer_buffers:s <- R0
	#DEBUG_VALUE: _i.audManage_if._chan_yield.transfer_buffers:param1 <- R1
	#DEBUG_VALUE: _i.audManage_if._chan_yield.transfer_buffers:param2 <- R2
	#DEBUG_VALUE: _i.audManage_if._chan_yield.transfer_buffers:param3 <- R3
	#DEBUG_VALUE: _i.audManage_if._chan_yield.transfer_buffers:param4 <- [SP+36]
	#DEBUG_VALUE: _i.audManage_if._chan_yield.transfer_buffers:param3 <- R5
	#DEBUG_VALUE: _i.audManage_if._chan_yield.transfer_buffers:param2 <- R6
	{
		mov r5, r3
		mov r6, r2
	}
	#DEBUG_VALUE: _i.audManage_if._chan_yield.transfer_buffers:param1 <- R7
	{
		mov r7, r1
		ldw r9, sp[9]
	}
	{
		getr r4, 2
		ldw r1, r0[0]
	}
	{
		setd res[r4], r1
		nop
	}
	{
		out res[r4], r4
		nop
	}
	{
		outct res[r4], 2
		ldw r8, r0[1]
	}
	{
		mov r0, r4
		mov r1, r8
	}
	bl __interface_wait_and_yield
	{
		chkct res[r4], 1
		nop
	}
	#APP
	#NO_APP
	{
		out res[r4], r7
		nop
	}
	#APP
	#NO_APP
	{
		out res[r4], r6
		nop
	}
	#APP
	#NO_APP
	{
		out res[r4], r5
		nop
	}
	#APP
	#NO_APP
	{
		out res[r4], r9
		nop
	}
	{
		outct res[r4], 2
		ldc r1, 0
	}
	{
		mov r0, r4
		mov r2, r8
	}
	bl __interface_client_call_y
	{
		chkct res[r4], 1
		nop
	}
	{
		freer res[r4]
		nop
	}
	ldd r9, r8, sp[3]               # 4-byte Folded Reload
	ldd r7, r6, sp[2]               # 4-byte Folded Reload
	ldd r5, r4, sp[1]               # 4-byte Folded Reload
	{
		nop
		retsp 8
	}
	# RETURN_REG_HOLDER
	.cc_bottom _i.audManage_if._chan_yield.transfer_buffers.function
	.set	_i.audManage_if._chan_yield.transfer_buffers.nstackwords,((($D __interface_wait_and_yield.nstackwords ? __interface_wait_and_yield.nstackwords $: _i.audManage_if._client_call_y.max.nstackwords) $M _i.audManage_if._client_call_y.max.nstackwords $M ($D __interface_client_call_y.nstackwords ? __interface_client_call_y.nstackwords $: _i.audManage_if._client_call_y.max.nstackwords)) + 8)
	.globl	_i.audManage_if._chan_yield.transfer_buffers.nstackwords
	.weak	_i.audManage_if._chan_yield.transfer_buffers.nstackwords
	.set	_i.audManage_if._chan_yield.transfer_buffers.maxcores,($D __interface_client_call_y.maxcores ? __interface_client_call_y.maxcores $: _i.audManage_if._client_call_y.max.maxcores) $M ($D __interface_wait_and_yield.maxcores ? __interface_wait_and_yield.maxcores $: _i.audManage_if._client_call_y.max.maxcores) $M 1
	.globl	_i.audManage_if._chan_yield.transfer_buffers.maxcores
	.weak	_i.audManage_if._chan_yield.transfer_buffers.maxcores
	.set	_i.audManage_if._chan_yield.transfer_buffers.maxtimers,($D __interface_client_call_y.maxtimers ? __interface_client_call_y.maxtimers $: _i.audManage_if._client_call_y.max.maxtimers) $M ($D __interface_wait_and_yield.maxtimers ? __interface_wait_and_yield.maxtimers $: _i.audManage_if._client_call_y.max.maxtimers) $M 0
	.globl	_i.audManage_if._chan_yield.transfer_buffers.maxtimers
	.weak	_i.audManage_if._chan_yield.transfer_buffers.maxtimers
	.set	_i.audManage_if._chan_yield.transfer_buffers.maxchanends,(1 + ($D __interface_client_call_y.maxchanends ? __interface_client_call_y.maxchanends $: _i.audManage_if._client_call_y.max.maxchanends)) $M (1 + ($D __interface_wait_and_yield.maxchanends ? __interface_wait_and_yield.maxchanends $: _i.audManage_if._client_call_y.max.maxchanends)) $M 1
	.globl	_i.audManage_if._chan_yield.transfer_buffers.maxchanends
	.weak	_i.audManage_if._chan_yield.transfer_buffers.maxchanends
.Ltmp93:
	.size	_i.audManage_if._chan_yield.transfer_buffers, .Ltmp93-_i.audManage_if._chan_yield.transfer_buffers
	.cfi_endproc

	.weak	_i.keyword_if._chan.buffer_ready
	.align	4
	.type	_i.keyword_if._chan.buffer_ready,@function
	.cc_top _i.keyword_if._chan.buffer_ready.function,_i.keyword_if._chan.buffer_ready
_i.keyword_if._chan.buffer_ready:       # @_i.keyword_if._chan.buffer_ready
	.cfi_startproc
	.issue_mode dual
# BB#0:                                 # %allocas
	#DEBUG_VALUE: _i.keyword_if._chan.buffer_ready:dest <- R0
	#DEBUG_VALUE: _i.keyword_if._chan.buffer_ready:param1 <- R1
	{
		getr r2, 2
		dualentsp 0
	}
	{
		setd res[r2], r0
		nop
	}
	{
		out res[r2], r2
		nop
	}
	{
		outct res[r2], 2
		nop
	}
	{
		chkct res[r2], 1
		nop
	}
	{
		out res[r2], r1
		nop
	}
	{
		outct res[r2], 2
		nop
	}
	{
		in r0, res[r2]
		nop
	}
	{
		in r0, res[r2]
		nop
	}
	{
		chkct res[r2], 1
		nop
	}
	{
		freer res[r2]
		retsp 0
	}
	# RETURN_REG_HOLDER
	.cc_bottom _i.keyword_if._chan.buffer_ready.function
	.set	_i.keyword_if._chan.buffer_ready.nstackwords,0
	.globl	_i.keyword_if._chan.buffer_ready.nstackwords
	.weak	_i.keyword_if._chan.buffer_ready.nstackwords
	.set	_i.keyword_if._chan.buffer_ready.maxcores,1
	.globl	_i.keyword_if._chan.buffer_ready.maxcores
	.weak	_i.keyword_if._chan.buffer_ready.maxcores
	.set	_i.keyword_if._chan.buffer_ready.maxtimers,0
	.globl	_i.keyword_if._chan.buffer_ready.maxtimers
	.weak	_i.keyword_if._chan.buffer_ready.maxtimers
	.set	_i.keyword_if._chan.buffer_ready.maxchanends,1
	.globl	_i.keyword_if._chan.buffer_ready.maxchanends
	.weak	_i.keyword_if._chan.buffer_ready.maxchanends
.Ltmp94:
	.size	_i.keyword_if._chan.buffer_ready, .Ltmp94-_i.keyword_if._chan.buffer_ready
	.cfi_endproc

	.weak	_i.keyword_if._chan_yield.buffer_ready
	.align	4
	.type	_i.keyword_if._chan_yield.buffer_ready,@function
	.cc_top _i.keyword_if._chan_yield.buffer_ready.function,_i.keyword_if._chan_yield.buffer_ready
_i.keyword_if._chan_yield.buffer_ready: # @_i.keyword_if._chan_yield.buffer_ready
	.cfi_startproc
	.issue_mode dual
# BB#0:                                 # %allocas
	{
		nop
		dualentsp 4
	}
.Ltmp95:
	.cfi_def_cfa_offset 16
.Ltmp96:
	.cfi_offset 15, 0
	{
		nop
		stw r4, sp[2]
	}
.Ltmp97:
	.cfi_offset 4, -8
	#DEBUG_VALUE: _i.keyword_if._chan_yield.buffer_ready:s <- R0
	#DEBUG_VALUE: _i.keyword_if._chan_yield.buffer_ready:param1 <- R1
	{
		getr r4, 2
		ldw r2, r0[0]
	}
	{
		setd res[r4], r2
		nop
	}
	{
		out res[r4], r4
		nop
	}
	{
		outct res[r4], 2
		nop
	}
	{
		chkct res[r4], 1
		nop
	}
	{
		out res[r4], r1
		nop
	}
	{
		outct res[r4], 2
		ldw r2, r0[1]
	}
	{
		ldc r1, 0
		mov r0, r4
	}
	bl __interface_client_call_y
	{
		in r0, res[r4]
		nop
	}
	{
		chkct res[r4], 1
		nop
	}
	{
		freer res[r4]
		ldw r4, sp[2]
	}
	{
		nop
		retsp 4
	}
	# RETURN_REG_HOLDER
	.cc_bottom _i.keyword_if._chan_yield.buffer_ready.function
	.set	_i.keyword_if._chan_yield.buffer_ready.nstackwords,((_i.keyword_if._client_call_y.max.nstackwords $M ($D __interface_client_call_y.nstackwords ? __interface_client_call_y.nstackwords $: _i.keyword_if._client_call_y.max.nstackwords)) + 4)
	.globl	_i.keyword_if._chan_yield.buffer_ready.nstackwords
	.weak	_i.keyword_if._chan_yield.buffer_ready.nstackwords
	.set	_i.keyword_if._chan_yield.buffer_ready.maxcores,($D __interface_client_call_y.maxcores ? __interface_client_call_y.maxcores $: _i.keyword_if._client_call_y.max.maxcores) $M 1
	.globl	_i.keyword_if._chan_yield.buffer_ready.maxcores
	.weak	_i.keyword_if._chan_yield.buffer_ready.maxcores
	.set	_i.keyword_if._chan_yield.buffer_ready.maxtimers,($D __interface_client_call_y.maxtimers ? __interface_client_call_y.maxtimers $: _i.keyword_if._client_call_y.max.maxtimers) $M 0
	.globl	_i.keyword_if._chan_yield.buffer_ready.maxtimers
	.weak	_i.keyword_if._chan_yield.buffer_ready.maxtimers
	.set	_i.keyword_if._chan_yield.buffer_ready.maxchanends,(1 + ($D __interface_client_call_y.maxchanends ? __interface_client_call_y.maxchanends $: _i.keyword_if._client_call_y.max.maxchanends)) $M 1
	.globl	_i.keyword_if._chan_yield.buffer_ready.maxchanends
	.weak	_i.keyword_if._chan_yield.buffer_ready.maxchanends
.Ltmp98:
	.size	_i.keyword_if._chan_yield.buffer_ready, .Ltmp98-_i.keyword_if._chan_yield.buffer_ready
	.cfi_endproc

	.weak	_i.i2c_master_if._chan.shutdown
	.align	4
	.type	_i.i2c_master_if._chan.shutdown,@function
	.cc_top _i.i2c_master_if._chan.shutdown.function,_i.i2c_master_if._chan.shutdown
_i.i2c_master_if._chan.shutdown:        # @_i.i2c_master_if._chan.shutdown
	.cfi_startproc
	.issue_mode dual
# BB#0:                                 # %allocas
	{
		nop
		dualentsp 4
	}
.Ltmp99:
	.cfi_def_cfa_offset 16
.Ltmp100:
	.cfi_offset 15, 0
.Ltmp101:
	.cfi_offset 4, -8
	#DEBUG_VALUE: _i.i2c_master_if._chan.shutdown:dest <- R0
	{
		getr r4, 2
		stw r4, sp[2]
	}
	{
		setd res[r4], r0
		add r0, r4, 3
	}
	{
		out res[r4], r0
		nop
	}
	{
		outct res[r4], 2
		ldc r1, 0
	}
	{
		mov r0, r4
		nop
	}
	bl __interface_wait_and_yield
	{
		in r0, res[r4]
		nop
	}
	{
		chkct res[r4], 1
		nop
	}
	{
		freer res[r4]
		ldw r4, sp[2]
	}
	{
		nop
		retsp 4
	}
	# RETURN_REG_HOLDER
	.cc_bottom _i.i2c_master_if._chan.shutdown.function
	.set	_i.i2c_master_if._chan.shutdown.nstackwords,((_i.i2c_master_if._client_call_y.max.nstackwords $M ($D __interface_wait_and_yield.nstackwords ? __interface_wait_and_yield.nstackwords $: _i.i2c_master_if._client_call_y.max.nstackwords)) + 4)
	.globl	_i.i2c_master_if._chan.shutdown.nstackwords
	.weak	_i.i2c_master_if._chan.shutdown.nstackwords
	.set	_i.i2c_master_if._chan.shutdown.maxcores,($D __interface_wait_and_yield.maxcores ? __interface_wait_and_yield.maxcores $: _i.i2c_master_if._client_call_y.max.maxcores) $M 1
	.globl	_i.i2c_master_if._chan.shutdown.maxcores
	.weak	_i.i2c_master_if._chan.shutdown.maxcores
	.set	_i.i2c_master_if._chan.shutdown.maxtimers,($D __interface_wait_and_yield.maxtimers ? __interface_wait_and_yield.maxtimers $: _i.i2c_master_if._client_call_y.max.maxtimers) $M 0
	.globl	_i.i2c_master_if._chan.shutdown.maxtimers
	.weak	_i.i2c_master_if._chan.shutdown.maxtimers
	.set	_i.i2c_master_if._chan.shutdown.maxchanends,(1 + ($D __interface_wait_and_yield.maxchanends ? __interface_wait_and_yield.maxchanends $: _i.i2c_master_if._client_call_y.max.maxchanends)) $M 1
	.globl	_i.i2c_master_if._chan.shutdown.maxchanends
	.weak	_i.i2c_master_if._chan.shutdown.maxchanends
.Ltmp102:
	.size	_i.i2c_master_if._chan.shutdown, .Ltmp102-_i.i2c_master_if._chan.shutdown
	.cfi_endproc

	.weak	_i.i2c_master_if._chan.send_stop_bit
	.align	4
	.type	_i.i2c_master_if._chan.send_stop_bit,@function
	.cc_top _i.i2c_master_if._chan.send_stop_bit.function,_i.i2c_master_if._chan.send_stop_bit
_i.i2c_master_if._chan.send_stop_bit:   # @_i.i2c_master_if._chan.send_stop_bit
	.cfi_startproc
	.issue_mode dual
# BB#0:                                 # %allocas
	{
		nop
		dualentsp 4
	}
.Ltmp103:
	.cfi_def_cfa_offset 16
.Ltmp104:
	.cfi_offset 15, 0
.Ltmp105:
	.cfi_offset 4, -8
	#DEBUG_VALUE: _i.i2c_master_if._chan.send_stop_bit:dest <- R0
	{
		getr r4, 2
		stw r4, sp[2]
	}
	{
		setd res[r4], r0
		add r0, r4, 2
	}
	{
		out res[r4], r0
		nop
	}
	{
		outct res[r4], 2
		ldc r1, 0
	}
	{
		mov r0, r4
		nop
	}
	bl __interface_wait_and_yield
	{
		in r0, res[r4]
		nop
	}
	{
		chkct res[r4], 1
		nop
	}
	{
		freer res[r4]
		ldw r4, sp[2]
	}
	{
		nop
		retsp 4
	}
	# RETURN_REG_HOLDER
	.cc_bottom _i.i2c_master_if._chan.send_stop_bit.function
	.set	_i.i2c_master_if._chan.send_stop_bit.nstackwords,((_i.i2c_master_if._client_call_y.max.nstackwords $M ($D __interface_wait_and_yield.nstackwords ? __interface_wait_and_yield.nstackwords $: _i.i2c_master_if._client_call_y.max.nstackwords)) + 4)
	.globl	_i.i2c_master_if._chan.send_stop_bit.nstackwords
	.weak	_i.i2c_master_if._chan.send_stop_bit.nstackwords
	.set	_i.i2c_master_if._chan.send_stop_bit.maxcores,($D __interface_wait_and_yield.maxcores ? __interface_wait_and_yield.maxcores $: _i.i2c_master_if._client_call_y.max.maxcores) $M 1
	.globl	_i.i2c_master_if._chan.send_stop_bit.maxcores
	.weak	_i.i2c_master_if._chan.send_stop_bit.maxcores
	.set	_i.i2c_master_if._chan.send_stop_bit.maxtimers,($D __interface_wait_and_yield.maxtimers ? __interface_wait_and_yield.maxtimers $: _i.i2c_master_if._client_call_y.max.maxtimers) $M 0
	.globl	_i.i2c_master_if._chan.send_stop_bit.maxtimers
	.weak	_i.i2c_master_if._chan.send_stop_bit.maxtimers
	.set	_i.i2c_master_if._chan.send_stop_bit.maxchanends,(1 + ($D __interface_wait_and_yield.maxchanends ? __interface_wait_and_yield.maxchanends $: _i.i2c_master_if._client_call_y.max.maxchanends)) $M 1
	.globl	_i.i2c_master_if._chan.send_stop_bit.maxchanends
	.weak	_i.i2c_master_if._chan.send_stop_bit.maxchanends
.Ltmp106:
	.size	_i.i2c_master_if._chan.send_stop_bit, .Ltmp106-_i.i2c_master_if._chan.send_stop_bit
	.cfi_endproc

	.weak	_i.i2c_master_if._chan.read
	.align	4
	.type	_i.i2c_master_if._chan.read,@function
	.cc_top _i.i2c_master_if._chan.read.function,_i.i2c_master_if._chan.read
_i.i2c_master_if._chan.read:            # @_i.i2c_master_if._chan.read
	.cfi_startproc
	.issue_mode dual
# BB#0:                                 # %allocas
	{
		nop
		dualentsp 8
	}
.Ltmp107:
	.cfi_def_cfa_offset 32
.Ltmp108:
	.cfi_offset 15, 0
	std r5, r4, sp[1]               # 4-byte Folded Spill
.Ltmp109:
	.cfi_offset 4, -24
.Ltmp110:
	.cfi_offset 5, -20
	std r7, r6, sp[2]               # 4-byte Folded Spill
.Ltmp111:
	.cfi_offset 6, -16
.Ltmp112:
	.cfi_offset 7, -12
.Ltmp113:
	.cfi_offset 8, -8
	#DEBUG_VALUE: _i.i2c_master_if._chan.read:dest <- R0
	#DEBUG_VALUE: _i.i2c_master_if._chan.read:param1 <- R1
	#DEBUG_VALUE: _i.i2c_master_if._chan.read:param2 <- R2
	#DEBUG_VALUE: _i.i2c_master_if._chan.read:param3 <- R3
	#DEBUG_VALUE: _i.i2c_master_if._chan.read:param4 <- [SP+36]
	#DEBUG_VALUE: _i.i2c_master_if._chan.read:param3 <- R5
	{
		mov r5, r3
		stw r8, sp[6]
	}
	#DEBUG_VALUE: _i.i2c_master_if._chan.read:param2 <- R6
	#DEBUG_VALUE: _i.i2c_master_if._chan.read:param1 <- R7
	{
		mov r6, r2
		mov r7, r1
	}
	{
		getr r4, 2
		ldw r8, sp[9]
	}
	{
		setd res[r4], r0
		add r0, r4, 1
	}
	{
		out res[r4], r0
		nop
	}
	{
		outct res[r4], 2
		ldc r1, 0
	}
	{
		mov r0, r4
		nop
	}
	bl __interface_wait_and_yield
	{
		chkct res[r4], 1
		nop
	}
	{
		outt res[r4], r7
		stw r6, sp[1]
	}
	{
		out res[r4], r5
		nop
	}
	{
		out res[r4], r8
		nop
	}
	{
		outct res[r4], 2
		ldaw r1, sp[1]
	}
	{
		mov r0, r4
		nop
	}
	bl __interface_client_call
	{
		in r0, res[r4]
		nop
	}
	{
		chkct res[r4], 1
		nop
	}
	{
		freer res[r4]
		ldw r8, sp[6]
	}
	ldd r7, r6, sp[2]               # 4-byte Folded Reload
	ldd r5, r4, sp[1]               # 4-byte Folded Reload
	{
		nop
		retsp 8
	}
	# RETURN_REG_HOLDER
	.cc_bottom _i.i2c_master_if._chan.read.function
	.set	_i.i2c_master_if._chan.read.nstackwords,((_i.i2c_master_if._client_call_y.max.nstackwords $M ($D __interface_wait_and_yield.nstackwords ? __interface_wait_and_yield.nstackwords $: _i.i2c_master_if._client_call_y.max.nstackwords) $M __interface_client_call.nstackwords) + 8)
	.globl	_i.i2c_master_if._chan.read.nstackwords
	.weak	_i.i2c_master_if._chan.read.nstackwords
	.set	_i.i2c_master_if._chan.read.maxcores,__interface_client_call.maxcores $M ($D __interface_wait_and_yield.maxcores ? __interface_wait_and_yield.maxcores $: _i.i2c_master_if._client_call_y.max.maxcores) $M 1
	.globl	_i.i2c_master_if._chan.read.maxcores
	.weak	_i.i2c_master_if._chan.read.maxcores
	.set	_i.i2c_master_if._chan.read.maxtimers,__interface_client_call.maxtimers $M ($D __interface_wait_and_yield.maxtimers ? __interface_wait_and_yield.maxtimers $: _i.i2c_master_if._client_call_y.max.maxtimers) $M 0
	.globl	_i.i2c_master_if._chan.read.maxtimers
	.weak	_i.i2c_master_if._chan.read.maxtimers
	.set	_i.i2c_master_if._chan.read.maxchanends,(1 + __interface_client_call.maxchanends) $M (1 + ($D __interface_wait_and_yield.maxchanends ? __interface_wait_and_yield.maxchanends $: _i.i2c_master_if._client_call_y.max.maxchanends)) $M 1
	.globl	_i.i2c_master_if._chan.read.maxchanends
	.weak	_i.i2c_master_if._chan.read.maxchanends
.Ltmp114:
	.size	_i.i2c_master_if._chan.read, .Ltmp114-_i.i2c_master_if._chan.read
	.cfi_endproc

	.weak	_i.i2c_master_if._chan.write
	.align	4
	.type	_i.i2c_master_if._chan.write,@function
	.cc_top _i.i2c_master_if._chan.write.function,_i.i2c_master_if._chan.write
_i.i2c_master_if._chan.write:           # @_i.i2c_master_if._chan.write
	.cfi_startproc
	.issue_mode dual
# BB#0:                                 # %allocas
	{
		nop
		dualentsp 8
	}
.Ltmp115:
	.cfi_def_cfa_offset 32
.Ltmp116:
	.cfi_offset 15, 0
	std r5, r4, sp[1]               # 4-byte Folded Spill
.Ltmp117:
	.cfi_offset 4, -24
.Ltmp118:
	.cfi_offset 5, -20
	std r7, r6, sp[2]               # 4-byte Folded Spill
.Ltmp119:
	.cfi_offset 6, -16
.Ltmp120:
	.cfi_offset 7, -12
	std r9, r8, sp[3]               # 4-byte Folded Spill
.Ltmp121:
	.cfi_offset 8, -8
.Ltmp122:
	.cfi_offset 9, -4
	#DEBUG_VALUE: _i.i2c_master_if._chan.write:dest <- R0
	#DEBUG_VALUE: _i.i2c_master_if._chan.write:param1 <- R1
	#DEBUG_VALUE: _i.i2c_master_if._chan.write:param2 <- R2
	#DEBUG_VALUE: _i.i2c_master_if._chan.write:param3 <- R3
	#DEBUG_VALUE: _i.i2c_master_if._chan.write:param4 <- [SP+36]
	#DEBUG_VALUE: _i.i2c_master_if._chan.write:param5 <- [SP+40]
	#DEBUG_VALUE: _i.i2c_master_if._chan.write:param3 <- R5
	#DEBUG_VALUE: _i.i2c_master_if._chan.write:param2 <- R6
	{
		mov r5, r3
		mov r6, r2
	}
	#DEBUG_VALUE: _i.i2c_master_if._chan.write:param1 <- R7
	{
		mov r7, r1
		ldw r9, sp[10]
	}
	{
		getr r4, 2
		ldw r8, sp[9]
	}
	{
		setd res[r4], r0
		nop
	}
	{
		out res[r4], r4
		nop
	}
	{
		outct res[r4], 2
		ldc r1, 0
	}
	{
		mov r0, r4
		nop
	}
	bl __interface_wait_and_yield
	{
		chkct res[r4], 1
		nop
	}
	{
		outt res[r4], r7
		stw r6, sp[1]
	}
	{
		out res[r4], r5
		ldw r0, r8[0]
	}
	{
		out res[r4], r0
		nop
	}
	{
		out res[r4], r9
		nop
	}
	{
		outct res[r4], 2
		ldaw r1, sp[1]
	}
	{
		mov r0, r4
		nop
	}
	bl __interface_client_call
	{
		in r0, res[r4]
		nop
	}
	{
		in r0, res[r4]
		stw r0, r8[0]
	}
	{
		chkct res[r4], 1
		nop
	}
	{
		freer res[r4]
		nop
	}
	ldd r9, r8, sp[3]               # 4-byte Folded Reload
	ldd r7, r6, sp[2]               # 4-byte Folded Reload
	ldd r5, r4, sp[1]               # 4-byte Folded Reload
	{
		nop
		retsp 8
	}
	# RETURN_REG_HOLDER
	.cc_bottom _i.i2c_master_if._chan.write.function
	.set	_i.i2c_master_if._chan.write.nstackwords,((_i.i2c_master_if._client_call_y.max.nstackwords $M ($D __interface_wait_and_yield.nstackwords ? __interface_wait_and_yield.nstackwords $: _i.i2c_master_if._client_call_y.max.nstackwords) $M __interface_client_call.nstackwords) + 8)
	.globl	_i.i2c_master_if._chan.write.nstackwords
	.weak	_i.i2c_master_if._chan.write.nstackwords
	.set	_i.i2c_master_if._chan.write.maxcores,__interface_client_call.maxcores $M ($D __interface_wait_and_yield.maxcores ? __interface_wait_and_yield.maxcores $: _i.i2c_master_if._client_call_y.max.maxcores) $M 1
	.globl	_i.i2c_master_if._chan.write.maxcores
	.weak	_i.i2c_master_if._chan.write.maxcores
	.set	_i.i2c_master_if._chan.write.maxtimers,__interface_client_call.maxtimers $M ($D __interface_wait_and_yield.maxtimers ? __interface_wait_and_yield.maxtimers $: _i.i2c_master_if._client_call_y.max.maxtimers) $M 0
	.globl	_i.i2c_master_if._chan.write.maxtimers
	.weak	_i.i2c_master_if._chan.write.maxtimers
	.set	_i.i2c_master_if._chan.write.maxchanends,(1 + __interface_client_call.maxchanends) $M (1 + ($D __interface_wait_and_yield.maxchanends ? __interface_wait_and_yield.maxchanends $: _i.i2c_master_if._client_call_y.max.maxchanends)) $M 1
	.globl	_i.i2c_master_if._chan.write.maxchanends
	.weak	_i.i2c_master_if._chan.write.maxchanends
.Ltmp123:
	.size	_i.i2c_master_if._chan.write, .Ltmp123-_i.i2c_master_if._chan.write
	.cfi_endproc

	.weak	_i.i2c_master_if._chan_yield.shutdown
	.align	4
	.type	_i.i2c_master_if._chan_yield.shutdown,@function
	.cc_top _i.i2c_master_if._chan_yield.shutdown.function,_i.i2c_master_if._chan_yield.shutdown
_i.i2c_master_if._chan_yield.shutdown:  # @_i.i2c_master_if._chan_yield.shutdown
	.cfi_startproc
	.issue_mode dual
# BB#0:                                 # %allocas
	{
		nop
		dualentsp 4
	}
.Ltmp124:
	.cfi_def_cfa_offset 16
.Ltmp125:
	.cfi_offset 15, 0
	std r5, r4, sp[1]               # 4-byte Folded Spill
.Ltmp126:
	.cfi_offset 4, -8
.Ltmp127:
	.cfi_offset 5, -4
	#DEBUG_VALUE: _i.i2c_master_if._chan_yield.shutdown:s <- R0
	{
		getr r4, 2
		ldw r1, r0[0]
	}
	{
		setd res[r4], r1
		add r1, r4, 3
	}
	{
		out res[r4], r1
		nop
	}
	{
		outct res[r4], 2
		ldw r5, r0[1]
	}
	{
		mov r0, r4
		mov r1, r5
	}
	bl __interface_wait_and_yield
	{
		ldc r1, 0
		mov r0, r4
	}
	{
		mov r2, r5
		nop
	}
	bl __interface_client_call_y
	{
		chkct res[r4], 1
		nop
	}
	{
		freer res[r4]
		nop
	}
	ldd r5, r4, sp[1]               # 4-byte Folded Reload
	{
		nop
		retsp 4
	}
	# RETURN_REG_HOLDER
	.cc_bottom _i.i2c_master_if._chan_yield.shutdown.function
	.set	_i.i2c_master_if._chan_yield.shutdown.nstackwords,((($D __interface_wait_and_yield.nstackwords ? __interface_wait_and_yield.nstackwords $: _i.i2c_master_if._client_call_y.max.nstackwords) $M _i.i2c_master_if._client_call_y.max.nstackwords $M ($D __interface_client_call_y.nstackwords ? __interface_client_call_y.nstackwords $: _i.i2c_master_if._client_call_y.max.nstackwords)) + 4)
	.globl	_i.i2c_master_if._chan_yield.shutdown.nstackwords
	.weak	_i.i2c_master_if._chan_yield.shutdown.nstackwords
	.set	_i.i2c_master_if._chan_yield.shutdown.maxcores,($D __interface_client_call_y.maxcores ? __interface_client_call_y.maxcores $: _i.i2c_master_if._client_call_y.max.maxcores) $M ($D __interface_wait_and_yield.maxcores ? __interface_wait_and_yield.maxcores $: _i.i2c_master_if._client_call_y.max.maxcores) $M 1
	.globl	_i.i2c_master_if._chan_yield.shutdown.maxcores
	.weak	_i.i2c_master_if._chan_yield.shutdown.maxcores
	.set	_i.i2c_master_if._chan_yield.shutdown.maxtimers,($D __interface_client_call_y.maxtimers ? __interface_client_call_y.maxtimers $: _i.i2c_master_if._client_call_y.max.maxtimers) $M ($D __interface_wait_and_yield.maxtimers ? __interface_wait_and_yield.maxtimers $: _i.i2c_master_if._client_call_y.max.maxtimers) $M 0
	.globl	_i.i2c_master_if._chan_yield.shutdown.maxtimers
	.weak	_i.i2c_master_if._chan_yield.shutdown.maxtimers
	.set	_i.i2c_master_if._chan_yield.shutdown.maxchanends,(1 + ($D __interface_client_call_y.maxchanends ? __interface_client_call_y.maxchanends $: _i.i2c_master_if._client_call_y.max.maxchanends)) $M (1 + ($D __interface_wait_and_yield.maxchanends ? __interface_wait_and_yield.maxchanends $: _i.i2c_master_if._client_call_y.max.maxchanends)) $M 1
	.globl	_i.i2c_master_if._chan_yield.shutdown.maxchanends
	.weak	_i.i2c_master_if._chan_yield.shutdown.maxchanends
.Ltmp128:
	.size	_i.i2c_master_if._chan_yield.shutdown, .Ltmp128-_i.i2c_master_if._chan_yield.shutdown
	.cfi_endproc

	.weak	_i.i2c_master_if._chan_yield.send_stop_bit
	.align	4
	.type	_i.i2c_master_if._chan_yield.send_stop_bit,@function
	.cc_top _i.i2c_master_if._chan_yield.send_stop_bit.function,_i.i2c_master_if._chan_yield.send_stop_bit
_i.i2c_master_if._chan_yield.send_stop_bit: # @_i.i2c_master_if._chan_yield.send_stop_bit
	.cfi_startproc
	.issue_mode dual
# BB#0:                                 # %allocas
	{
		nop
		dualentsp 4
	}
.Ltmp129:
	.cfi_def_cfa_offset 16
.Ltmp130:
	.cfi_offset 15, 0
	std r5, r4, sp[1]               # 4-byte Folded Spill
.Ltmp131:
	.cfi_offset 4, -8
.Ltmp132:
	.cfi_offset 5, -4
	#DEBUG_VALUE: _i.i2c_master_if._chan_yield.send_stop_bit:s <- R0
	{
		getr r4, 2
		ldw r1, r0[0]
	}
	{
		setd res[r4], r1
		add r1, r4, 2
	}
	{
		out res[r4], r1
		nop
	}
	{
		outct res[r4], 2
		ldw r5, r0[1]
	}
	{
		mov r0, r4
		mov r1, r5
	}
	bl __interface_wait_and_yield
	{
		ldc r1, 0
		mov r0, r4
	}
	{
		mov r2, r5
		nop
	}
	bl __interface_client_call_y
	{
		chkct res[r4], 1
		nop
	}
	{
		freer res[r4]
		nop
	}
	ldd r5, r4, sp[1]               # 4-byte Folded Reload
	{
		nop
		retsp 4
	}
	# RETURN_REG_HOLDER
	.cc_bottom _i.i2c_master_if._chan_yield.send_stop_bit.function
	.set	_i.i2c_master_if._chan_yield.send_stop_bit.nstackwords,((($D __interface_wait_and_yield.nstackwords ? __interface_wait_and_yield.nstackwords $: _i.i2c_master_if._client_call_y.max.nstackwords) $M _i.i2c_master_if._client_call_y.max.nstackwords $M ($D __interface_client_call_y.nstackwords ? __interface_client_call_y.nstackwords $: _i.i2c_master_if._client_call_y.max.nstackwords)) + 4)
	.globl	_i.i2c_master_if._chan_yield.send_stop_bit.nstackwords
	.weak	_i.i2c_master_if._chan_yield.send_stop_bit.nstackwords
	.set	_i.i2c_master_if._chan_yield.send_stop_bit.maxcores,($D __interface_client_call_y.maxcores ? __interface_client_call_y.maxcores $: _i.i2c_master_if._client_call_y.max.maxcores) $M ($D __interface_wait_and_yield.maxcores ? __interface_wait_and_yield.maxcores $: _i.i2c_master_if._client_call_y.max.maxcores) $M 1
	.globl	_i.i2c_master_if._chan_yield.send_stop_bit.maxcores
	.weak	_i.i2c_master_if._chan_yield.send_stop_bit.maxcores
	.set	_i.i2c_master_if._chan_yield.send_stop_bit.maxtimers,($D __interface_client_call_y.maxtimers ? __interface_client_call_y.maxtimers $: _i.i2c_master_if._client_call_y.max.maxtimers) $M ($D __interface_wait_and_yield.maxtimers ? __interface_wait_and_yield.maxtimers $: _i.i2c_master_if._client_call_y.max.maxtimers) $M 0
	.globl	_i.i2c_master_if._chan_yield.send_stop_bit.maxtimers
	.weak	_i.i2c_master_if._chan_yield.send_stop_bit.maxtimers
	.set	_i.i2c_master_if._chan_yield.send_stop_bit.maxchanends,(1 + ($D __interface_client_call_y.maxchanends ? __interface_client_call_y.maxchanends $: _i.i2c_master_if._client_call_y.max.maxchanends)) $M (1 + ($D __interface_wait_and_yield.maxchanends ? __interface_wait_and_yield.maxchanends $: _i.i2c_master_if._client_call_y.max.maxchanends)) $M 1
	.globl	_i.i2c_master_if._chan_yield.send_stop_bit.maxchanends
	.weak	_i.i2c_master_if._chan_yield.send_stop_bit.maxchanends
.Ltmp133:
	.size	_i.i2c_master_if._chan_yield.send_stop_bit, .Ltmp133-_i.i2c_master_if._chan_yield.send_stop_bit
	.cfi_endproc

	.weak	_i.i2c_master_if._chan_yield.read
	.align	4
	.type	_i.i2c_master_if._chan_yield.read,@function
	.cc_top _i.i2c_master_if._chan_yield.read.function,_i.i2c_master_if._chan_yield.read
_i.i2c_master_if._chan_yield.read:      # @_i.i2c_master_if._chan_yield.read
	.cfi_startproc
	.issue_mode dual
# BB#0:                                 # %allocas
	{
		nop
		dualentsp 8
	}
.Ltmp134:
	.cfi_def_cfa_offset 32
.Ltmp135:
	.cfi_offset 15, 0
	std r5, r4, sp[1]               # 4-byte Folded Spill
.Ltmp136:
	.cfi_offset 4, -24
.Ltmp137:
	.cfi_offset 5, -20
	std r7, r6, sp[2]               # 4-byte Folded Spill
.Ltmp138:
	.cfi_offset 6, -16
.Ltmp139:
	.cfi_offset 7, -12
	std r9, r8, sp[3]               # 4-byte Folded Spill
.Ltmp140:
	.cfi_offset 8, -8
.Ltmp141:
	.cfi_offset 9, -4
	#DEBUG_VALUE: _i.i2c_master_if._chan_yield.read:s <- R0
	#DEBUG_VALUE: _i.i2c_master_if._chan_yield.read:param1 <- R1
	#DEBUG_VALUE: _i.i2c_master_if._chan_yield.read:param2 <- R2
	#DEBUG_VALUE: _i.i2c_master_if._chan_yield.read:param3 <- R3
	#DEBUG_VALUE: _i.i2c_master_if._chan_yield.read:param4 <- [SP+36]
	#DEBUG_VALUE: _i.i2c_master_if._chan_yield.read:param3 <- R5
	#DEBUG_VALUE: _i.i2c_master_if._chan_yield.read:param2 <- R6
	{
		mov r5, r3
		mov r6, r2
	}
	#DEBUG_VALUE: _i.i2c_master_if._chan_yield.read:param1 <- R7
	{
		mov r7, r1
		ldw r9, sp[9]
	}
	{
		getr r4, 2
		ldw r1, r0[0]
	}
	{
		setd res[r4], r1
		add r1, r4, 1
	}
	{
		out res[r4], r1
		nop
	}
	{
		outct res[r4], 2
		ldw r8, r0[1]
	}
	{
		mov r0, r4
		mov r1, r8
	}
	bl __interface_wait_and_yield
	{
		chkct res[r4], 1
		nop
	}
	{
		outt res[r4], r7
		stw r6, sp[1]
	}
	{
		out res[r4], r5
		nop
	}
	{
		out res[r4], r9
		nop
	}
	{
		outct res[r4], 2
		ldaw r1, sp[1]
	}
	{
		mov r0, r4
		mov r2, r8
	}
	bl __interface_client_call_y
	{
		in r0, res[r4]
		nop
	}
	{
		chkct res[r4], 1
		nop
	}
	{
		freer res[r4]
		nop
	}
	ldd r9, r8, sp[3]               # 4-byte Folded Reload
	ldd r7, r6, sp[2]               # 4-byte Folded Reload
	ldd r5, r4, sp[1]               # 4-byte Folded Reload
	{
		nop
		retsp 8
	}
	# RETURN_REG_HOLDER
	.cc_bottom _i.i2c_master_if._chan_yield.read.function
	.set	_i.i2c_master_if._chan_yield.read.nstackwords,((($D __interface_wait_and_yield.nstackwords ? __interface_wait_and_yield.nstackwords $: _i.i2c_master_if._client_call_y.max.nstackwords) $M _i.i2c_master_if._client_call_y.max.nstackwords $M ($D __interface_client_call_y.nstackwords ? __interface_client_call_y.nstackwords $: _i.i2c_master_if._client_call_y.max.nstackwords)) + 8)
	.globl	_i.i2c_master_if._chan_yield.read.nstackwords
	.weak	_i.i2c_master_if._chan_yield.read.nstackwords
	.set	_i.i2c_master_if._chan_yield.read.maxcores,($D __interface_client_call_y.maxcores ? __interface_client_call_y.maxcores $: _i.i2c_master_if._client_call_y.max.maxcores) $M ($D __interface_wait_and_yield.maxcores ? __interface_wait_and_yield.maxcores $: _i.i2c_master_if._client_call_y.max.maxcores) $M 1
	.globl	_i.i2c_master_if._chan_yield.read.maxcores
	.weak	_i.i2c_master_if._chan_yield.read.maxcores
	.set	_i.i2c_master_if._chan_yield.read.maxtimers,($D __interface_client_call_y.maxtimers ? __interface_client_call_y.maxtimers $: _i.i2c_master_if._client_call_y.max.maxtimers) $M ($D __interface_wait_and_yield.maxtimers ? __interface_wait_and_yield.maxtimers $: _i.i2c_master_if._client_call_y.max.maxtimers) $M 0
	.globl	_i.i2c_master_if._chan_yield.read.maxtimers
	.weak	_i.i2c_master_if._chan_yield.read.maxtimers
	.set	_i.i2c_master_if._chan_yield.read.maxchanends,(1 + ($D __interface_client_call_y.maxchanends ? __interface_client_call_y.maxchanends $: _i.i2c_master_if._client_call_y.max.maxchanends)) $M (1 + ($D __interface_wait_and_yield.maxchanends ? __interface_wait_and_yield.maxchanends $: _i.i2c_master_if._client_call_y.max.maxchanends)) $M 1
	.globl	_i.i2c_master_if._chan_yield.read.maxchanends
	.weak	_i.i2c_master_if._chan_yield.read.maxchanends
.Ltmp142:
	.size	_i.i2c_master_if._chan_yield.read, .Ltmp142-_i.i2c_master_if._chan_yield.read
	.cfi_endproc

	.weak	_i.i2c_master_if._chan_yield.write
	.align	4
	.type	_i.i2c_master_if._chan_yield.write,@function
	.cc_top _i.i2c_master_if._chan_yield.write.function,_i.i2c_master_if._chan_yield.write
_i.i2c_master_if._chan_yield.write:     # @_i.i2c_master_if._chan_yield.write
	.cfi_startproc
	.issue_mode dual
# BB#0:                                 # %allocas
	{
		nop
		dualentsp 10
	}
.Ltmp143:
	.cfi_def_cfa_offset 40
.Ltmp144:
	.cfi_offset 15, 0
	std r5, r4, sp[1]               # 4-byte Folded Spill
.Ltmp145:
	.cfi_offset 4, -32
.Ltmp146:
	.cfi_offset 5, -28
	std r7, r6, sp[2]               # 4-byte Folded Spill
.Ltmp147:
	.cfi_offset 6, -24
.Ltmp148:
	.cfi_offset 7, -20
	std r9, r8, sp[3]               # 4-byte Folded Spill
.Ltmp149:
	.cfi_offset 8, -16
.Ltmp150:
	.cfi_offset 9, -12
.Ltmp151:
	.cfi_offset 10, -8
	#DEBUG_VALUE: _i.i2c_master_if._chan_yield.write:s <- R0
	#DEBUG_VALUE: _i.i2c_master_if._chan_yield.write:param1 <- R1
	#DEBUG_VALUE: _i.i2c_master_if._chan_yield.write:param2 <- R2
	#DEBUG_VALUE: _i.i2c_master_if._chan_yield.write:param3 <- R3
	#DEBUG_VALUE: _i.i2c_master_if._chan_yield.write:param4 <- [SP+44]
	#DEBUG_VALUE: _i.i2c_master_if._chan_yield.write:param5 <- [SP+48]
	#DEBUG_VALUE: _i.i2c_master_if._chan_yield.write:param3 <- R5
	{
		mov r5, r3
		stw r10, sp[8]
	}
	#DEBUG_VALUE: _i.i2c_master_if._chan_yield.write:param2 <- R6
	#DEBUG_VALUE: _i.i2c_master_if._chan_yield.write:param1 <- R7
	{
		mov r6, r2
		mov r7, r1
	}
	{
		nop
		ldw r10, sp[12]
	}
	{
		nop
		ldw r9, sp[11]
	}
	{
		getr r4, 2
		ldw r1, r0[0]
	}
	{
		setd res[r4], r1
		nop
	}
	{
		out res[r4], r4
		nop
	}
	{
		outct res[r4], 2
		ldw r8, r0[1]
	}
	{
		mov r0, r4
		mov r1, r8
	}
	bl __interface_wait_and_yield
	{
		chkct res[r4], 1
		nop
	}
	{
		outt res[r4], r7
		stw r6, sp[1]
	}
	{
		out res[r4], r5
		ldw r0, r9[0]
	}
	{
		out res[r4], r0
		nop
	}
	{
		out res[r4], r10
		nop
	}
	{
		outct res[r4], 2
		ldaw r1, sp[1]
	}
	{
		mov r0, r4
		mov r2, r8
	}
	bl __interface_client_call_y
	{
		in r0, res[r4]
		nop
	}
	{
		in r0, res[r4]
		stw r0, r9[0]
	}
	{
		chkct res[r4], 1
		nop
	}
	{
		freer res[r4]
		ldw r10, sp[8]
	}
	ldd r9, r8, sp[3]               # 4-byte Folded Reload
	ldd r7, r6, sp[2]               # 4-byte Folded Reload
	ldd r5, r4, sp[1]               # 4-byte Folded Reload
	{
		nop
		retsp 10
	}
	# RETURN_REG_HOLDER
	.cc_bottom _i.i2c_master_if._chan_yield.write.function
	.set	_i.i2c_master_if._chan_yield.write.nstackwords,((($D __interface_wait_and_yield.nstackwords ? __interface_wait_and_yield.nstackwords $: _i.i2c_master_if._client_call_y.max.nstackwords) $M _i.i2c_master_if._client_call_y.max.nstackwords $M ($D __interface_client_call_y.nstackwords ? __interface_client_call_y.nstackwords $: _i.i2c_master_if._client_call_y.max.nstackwords)) + 10)
	.globl	_i.i2c_master_if._chan_yield.write.nstackwords
	.weak	_i.i2c_master_if._chan_yield.write.nstackwords
	.set	_i.i2c_master_if._chan_yield.write.maxcores,($D __interface_client_call_y.maxcores ? __interface_client_call_y.maxcores $: _i.i2c_master_if._client_call_y.max.maxcores) $M ($D __interface_wait_and_yield.maxcores ? __interface_wait_and_yield.maxcores $: _i.i2c_master_if._client_call_y.max.maxcores) $M 1
	.globl	_i.i2c_master_if._chan_yield.write.maxcores
	.weak	_i.i2c_master_if._chan_yield.write.maxcores
	.set	_i.i2c_master_if._chan_yield.write.maxtimers,($D __interface_client_call_y.maxtimers ? __interface_client_call_y.maxtimers $: _i.i2c_master_if._client_call_y.max.maxtimers) $M ($D __interface_wait_and_yield.maxtimers ? __interface_wait_and_yield.maxtimers $: _i.i2c_master_if._client_call_y.max.maxtimers) $M 0
	.globl	_i.i2c_master_if._chan_yield.write.maxtimers
	.weak	_i.i2c_master_if._chan_yield.write.maxtimers
	.set	_i.i2c_master_if._chan_yield.write.maxchanends,(1 + ($D __interface_client_call_y.maxchanends ? __interface_client_call_y.maxchanends $: _i.i2c_master_if._client_call_y.max.maxchanends)) $M (1 + ($D __interface_wait_and_yield.maxchanends ? __interface_wait_and_yield.maxchanends $: _i.i2c_master_if._client_call_y.max.maxchanends)) $M 1
	.globl	_i.i2c_master_if._chan_yield.write.maxchanends
	.weak	_i.i2c_master_if._chan_yield.write.maxchanends
.Ltmp152:
	.size	_i.i2c_master_if._chan_yield.write, .Ltmp152-_i.i2c_master_if._chan_yield.write
	.cfi_endproc

	.weak	_i.i2c_master_async_if._chan.shutdown
	.align	4
	.type	_i.i2c_master_async_if._chan.shutdown,@function
	.cc_top _i.i2c_master_async_if._chan.shutdown.function,_i.i2c_master_async_if._chan.shutdown
_i.i2c_master_async_if._chan.shutdown:  # @_i.i2c_master_async_if._chan.shutdown
	.cfi_startproc
	.issue_mode dual
# BB#0:                                 # %allocas
	{
		nop
		dualentsp 4
	}
.Ltmp153:
	.cfi_def_cfa_offset 16
.Ltmp154:
	.cfi_offset 15, 0
.Ltmp155:
	.cfi_offset 4, -8
	#DEBUG_VALUE: _i.i2c_master_async_if._chan.shutdown:dest <- R0
	{
		getr r4, 2
		stw r4, sp[2]
	}
	{
		setd res[r4], r0
		add r0, r4, 5
	}
	{
		out res[r4], r0
		nop
	}
	{
		outct res[r4], 2
		ldc r1, 0
	}
	{
		mov r0, r4
		nop
	}
	bl __interface_wait_and_yield
	{
		in r0, res[r4]
		nop
	}
	{
		chkct res[r4], 1
		nop
	}
	{
		freer res[r4]
		ldw r4, sp[2]
	}
	{
		nop
		retsp 4
	}
	# RETURN_REG_HOLDER
	.cc_bottom _i.i2c_master_async_if._chan.shutdown.function
	.set	_i.i2c_master_async_if._chan.shutdown.nstackwords,((_i.i2c_master_async_if._client_call_y.max.nstackwords $M ($D __interface_wait_and_yield.nstackwords ? __interface_wait_and_yield.nstackwords $: _i.i2c_master_async_if._client_call_y.max.nstackwords)) + 4)
	.globl	_i.i2c_master_async_if._chan.shutdown.nstackwords
	.weak	_i.i2c_master_async_if._chan.shutdown.nstackwords
	.set	_i.i2c_master_async_if._chan.shutdown.maxcores,($D __interface_wait_and_yield.maxcores ? __interface_wait_and_yield.maxcores $: _i.i2c_master_async_if._client_call_y.max.maxcores) $M 1
	.globl	_i.i2c_master_async_if._chan.shutdown.maxcores
	.weak	_i.i2c_master_async_if._chan.shutdown.maxcores
	.set	_i.i2c_master_async_if._chan.shutdown.maxtimers,($D __interface_wait_and_yield.maxtimers ? __interface_wait_and_yield.maxtimers $: _i.i2c_master_async_if._client_call_y.max.maxtimers) $M 0
	.globl	_i.i2c_master_async_if._chan.shutdown.maxtimers
	.weak	_i.i2c_master_async_if._chan.shutdown.maxtimers
	.set	_i.i2c_master_async_if._chan.shutdown.maxchanends,(1 + ($D __interface_wait_and_yield.maxchanends ? __interface_wait_and_yield.maxchanends $: _i.i2c_master_async_if._client_call_y.max.maxchanends)) $M 1
	.globl	_i.i2c_master_async_if._chan.shutdown.maxchanends
	.weak	_i.i2c_master_async_if._chan.shutdown.maxchanends
.Ltmp156:
	.size	_i.i2c_master_async_if._chan.shutdown, .Ltmp156-_i.i2c_master_async_if._chan.shutdown
	.cfi_endproc

	.weak	_i.i2c_master_async_if._chan.send_stop_bit
	.align	4
	.type	_i.i2c_master_async_if._chan.send_stop_bit,@function
	.cc_top _i.i2c_master_async_if._chan.send_stop_bit.function,_i.i2c_master_async_if._chan.send_stop_bit
_i.i2c_master_async_if._chan.send_stop_bit: # @_i.i2c_master_async_if._chan.send_stop_bit
	.cfi_startproc
	.issue_mode dual
# BB#0:                                 # %allocas
	{
		nop
		dualentsp 4
	}
.Ltmp157:
	.cfi_def_cfa_offset 16
.Ltmp158:
	.cfi_offset 15, 0
.Ltmp159:
	.cfi_offset 4, -8
	#DEBUG_VALUE: _i.i2c_master_async_if._chan.send_stop_bit:dest <- R0
	{
		getr r4, 2
		stw r4, sp[2]
	}
	{
		setd res[r4], r0
		add r0, r4, 4
	}
	{
		out res[r4], r0
		nop
	}
	{
		outct res[r4], 2
		ldc r1, 0
	}
	{
		mov r0, r4
		nop
	}
	bl __interface_wait_and_yield
	{
		in r0, res[r4]
		nop
	}
	{
		chkct res[r4], 1
		nop
	}
	{
		freer res[r4]
		ldw r4, sp[2]
	}
	{
		nop
		retsp 4
	}
	# RETURN_REG_HOLDER
	.cc_bottom _i.i2c_master_async_if._chan.send_stop_bit.function
	.set	_i.i2c_master_async_if._chan.send_stop_bit.nstackwords,((_i.i2c_master_async_if._client_call_y.max.nstackwords $M ($D __interface_wait_and_yield.nstackwords ? __interface_wait_and_yield.nstackwords $: _i.i2c_master_async_if._client_call_y.max.nstackwords)) + 4)
	.globl	_i.i2c_master_async_if._chan.send_stop_bit.nstackwords
	.weak	_i.i2c_master_async_if._chan.send_stop_bit.nstackwords
	.set	_i.i2c_master_async_if._chan.send_stop_bit.maxcores,($D __interface_wait_and_yield.maxcores ? __interface_wait_and_yield.maxcores $: _i.i2c_master_async_if._client_call_y.max.maxcores) $M 1
	.globl	_i.i2c_master_async_if._chan.send_stop_bit.maxcores
	.weak	_i.i2c_master_async_if._chan.send_stop_bit.maxcores
	.set	_i.i2c_master_async_if._chan.send_stop_bit.maxtimers,($D __interface_wait_and_yield.maxtimers ? __interface_wait_and_yield.maxtimers $: _i.i2c_master_async_if._client_call_y.max.maxtimers) $M 0
	.globl	_i.i2c_master_async_if._chan.send_stop_bit.maxtimers
	.weak	_i.i2c_master_async_if._chan.send_stop_bit.maxtimers
	.set	_i.i2c_master_async_if._chan.send_stop_bit.maxchanends,(1 + ($D __interface_wait_and_yield.maxchanends ? __interface_wait_and_yield.maxchanends $: _i.i2c_master_async_if._client_call_y.max.maxchanends)) $M 1
	.globl	_i.i2c_master_async_if._chan.send_stop_bit.maxchanends
	.weak	_i.i2c_master_async_if._chan.send_stop_bit.maxchanends
.Ltmp160:
	.size	_i.i2c_master_async_if._chan.send_stop_bit, .Ltmp160-_i.i2c_master_async_if._chan.send_stop_bit
	.cfi_endproc

	.weak	_i.i2c_master_async_if._chan.get_read_data
	.align	4
	.type	_i.i2c_master_async_if._chan.get_read_data,@function
	.cc_top _i.i2c_master_async_if._chan.get_read_data.function,_i.i2c_master_async_if._chan.get_read_data
_i.i2c_master_async_if._chan.get_read_data: # @_i.i2c_master_async_if._chan.get_read_data
	.cfi_startproc
	.issue_mode dual
# BB#0:                                 # %allocas
	{
		nop
		dualentsp 6
	}
.Ltmp161:
	.cfi_def_cfa_offset 24
.Ltmp162:
	.cfi_offset 15, 0
	std r5, r4, sp[1]               # 4-byte Folded Spill
.Ltmp163:
	.cfi_offset 4, -16
.Ltmp164:
	.cfi_offset 5, -12
	std r7, r6, sp[2]               # 4-byte Folded Spill
.Ltmp165:
	.cfi_offset 6, -8
.Ltmp166:
	.cfi_offset 7, -4
	#DEBUG_VALUE: _i.i2c_master_async_if._chan.get_read_data:dest <- R0
	#DEBUG_VALUE: _i.i2c_master_async_if._chan.get_read_data:clientNotifyFlag <- R1
	#DEBUG_VALUE: _i.i2c_master_async_if._chan.get_read_data:param2 <- R2
	#DEBUG_VALUE: _i.i2c_master_async_if._chan.get_read_data:param3 <- R3
	#DEBUG_VALUE: _i.i2c_master_async_if._chan.get_read_data:param3 <- R4
	#DEBUG_VALUE: _i.i2c_master_async_if._chan.get_read_data:param2 <- R5
	{
		mov r4, r3
		mov r5, r2
	}
	#DEBUG_VALUE: _i.i2c_master_async_if._chan.get_read_data:clientNotifyFlag <- R6
	{
		getr r7, 2
		mov r6, r1
	}
	{
		setd res[r7], r0
		add r0, r7, 3
	}
	{
		out res[r7], r0
		nop
	}
	{
		outct res[r7], 2
		ldc r1, 0
	}
	{
		mov r0, r7
		nop
	}
	bl __interface_wait_and_yield
	{
		chkct res[r7], 1
		nop
	}
	{
		out res[r7], r6
		stw r5, sp[1]
	}
	{
		out res[r7], r4
		nop
	}
	{
		outct res[r7], 2
		ldaw r1, sp[1]
	}
	{
		mov r0, r7
		nop
	}
	bl __interface_client_call
	{
		in r0, res[r7]
		nop
	}
	{
		chkct res[r7], 1
		nop
	}
	{
		freer res[r7]
		nop
	}
	ldd r7, r6, sp[2]               # 4-byte Folded Reload
	ldd r5, r4, sp[1]               # 4-byte Folded Reload
	{
		nop
		retsp 6
	}
	# RETURN_REG_HOLDER
	.cc_bottom _i.i2c_master_async_if._chan.get_read_data.function
	.set	_i.i2c_master_async_if._chan.get_read_data.nstackwords,((_i.i2c_master_async_if._client_call_y.max.nstackwords $M ($D __interface_wait_and_yield.nstackwords ? __interface_wait_and_yield.nstackwords $: _i.i2c_master_async_if._client_call_y.max.nstackwords) $M __interface_client_call.nstackwords) + 6)
	.globl	_i.i2c_master_async_if._chan.get_read_data.nstackwords
	.weak	_i.i2c_master_async_if._chan.get_read_data.nstackwords
	.set	_i.i2c_master_async_if._chan.get_read_data.maxcores,__interface_client_call.maxcores $M ($D __interface_wait_and_yield.maxcores ? __interface_wait_and_yield.maxcores $: _i.i2c_master_async_if._client_call_y.max.maxcores) $M 1
	.globl	_i.i2c_master_async_if._chan.get_read_data.maxcores
	.weak	_i.i2c_master_async_if._chan.get_read_data.maxcores
	.set	_i.i2c_master_async_if._chan.get_read_data.maxtimers,__interface_client_call.maxtimers $M ($D __interface_wait_and_yield.maxtimers ? __interface_wait_and_yield.maxtimers $: _i.i2c_master_async_if._client_call_y.max.maxtimers) $M 0
	.globl	_i.i2c_master_async_if._chan.get_read_data.maxtimers
	.weak	_i.i2c_master_async_if._chan.get_read_data.maxtimers
	.set	_i.i2c_master_async_if._chan.get_read_data.maxchanends,(1 + __interface_client_call.maxchanends) $M (1 + ($D __interface_wait_and_yield.maxchanends ? __interface_wait_and_yield.maxchanends $: _i.i2c_master_async_if._client_call_y.max.maxchanends)) $M 1
	.globl	_i.i2c_master_async_if._chan.get_read_data.maxchanends
	.weak	_i.i2c_master_async_if._chan.get_read_data.maxchanends
.Ltmp167:
	.size	_i.i2c_master_async_if._chan.get_read_data, .Ltmp167-_i.i2c_master_async_if._chan.get_read_data
	.cfi_endproc

	.weak	_i.i2c_master_async_if._chan.get_write_result
	.align	4
	.type	_i.i2c_master_async_if._chan.get_write_result,@function
	.cc_top _i.i2c_master_async_if._chan.get_write_result.function,_i.i2c_master_async_if._chan.get_write_result
_i.i2c_master_async_if._chan.get_write_result: # @_i.i2c_master_async_if._chan.get_write_result
	.cfi_startproc
	.issue_mode dual
# BB#0:                                 # %allocas
	{
		nop
		dualentsp 6
	}
.Ltmp168:
	.cfi_def_cfa_offset 24
.Ltmp169:
	.cfi_offset 15, 0
	std r5, r4, sp[1]               # 4-byte Folded Spill
.Ltmp170:
	.cfi_offset 4, -16
.Ltmp171:
	.cfi_offset 5, -12
.Ltmp172:
	.cfi_offset 6, -8
	#DEBUG_VALUE: _i.i2c_master_async_if._chan.get_write_result:dest <- R0
	#DEBUG_VALUE: _i.i2c_master_async_if._chan.get_write_result:clientNotifyFlag <- R1
	#DEBUG_VALUE: _i.i2c_master_async_if._chan.get_write_result:param2 <- R2
	#DEBUG_VALUE: _i.i2c_master_async_if._chan.get_write_result:param2 <- R4
	{
		mov r4, r2
		stw r6, sp[4]
	}
	#DEBUG_VALUE: _i.i2c_master_async_if._chan.get_write_result:clientNotifyFlag <- R5
	{
		getr r6, 2
		mov r5, r1
	}
	{
		setd res[r6], r0
		add r0, r6, 2
	}
	{
		out res[r6], r0
		nop
	}
	{
		outct res[r6], 2
		ldc r1, 0
	}
	{
		mov r0, r6
		nop
	}
	bl __interface_wait_and_yield
	{
		chkct res[r6], 1
		nop
	}
	{
		out res[r6], r5
		ldw r0, r4[0]
	}
	{
		out res[r6], r0
		nop
	}
	{
		outct res[r6], 2
		nop
	}
	{
		in r0, res[r6]
		nop
	}
	{
		in r0, res[r6]
		nop
	}
	{
		in r0, res[r6]
		stw r0, r4[0]
	}
	{
		chkct res[r6], 1
		nop
	}
	{
		freer res[r6]
		ldw r6, sp[4]
	}
	ldd r5, r4, sp[1]               # 4-byte Folded Reload
	{
		nop
		retsp 6
	}
	# RETURN_REG_HOLDER
	.cc_bottom _i.i2c_master_async_if._chan.get_write_result.function
	.set	_i.i2c_master_async_if._chan.get_write_result.nstackwords,((_i.i2c_master_async_if._client_call_y.max.nstackwords $M ($D __interface_wait_and_yield.nstackwords ? __interface_wait_and_yield.nstackwords $: _i.i2c_master_async_if._client_call_y.max.nstackwords)) + 6)
	.globl	_i.i2c_master_async_if._chan.get_write_result.nstackwords
	.weak	_i.i2c_master_async_if._chan.get_write_result.nstackwords
	.set	_i.i2c_master_async_if._chan.get_write_result.maxcores,($D __interface_wait_and_yield.maxcores ? __interface_wait_and_yield.maxcores $: _i.i2c_master_async_if._client_call_y.max.maxcores) $M 1
	.globl	_i.i2c_master_async_if._chan.get_write_result.maxcores
	.weak	_i.i2c_master_async_if._chan.get_write_result.maxcores
	.set	_i.i2c_master_async_if._chan.get_write_result.maxtimers,($D __interface_wait_and_yield.maxtimers ? __interface_wait_and_yield.maxtimers $: _i.i2c_master_async_if._client_call_y.max.maxtimers) $M 0
	.globl	_i.i2c_master_async_if._chan.get_write_result.maxtimers
	.weak	_i.i2c_master_async_if._chan.get_write_result.maxtimers
	.set	_i.i2c_master_async_if._chan.get_write_result.maxchanends,(1 + ($D __interface_wait_and_yield.maxchanends ? __interface_wait_and_yield.maxchanends $: _i.i2c_master_async_if._client_call_y.max.maxchanends)) $M 1
	.globl	_i.i2c_master_async_if._chan.get_write_result.maxchanends
	.weak	_i.i2c_master_async_if._chan.get_write_result.maxchanends
.Ltmp173:
	.size	_i.i2c_master_async_if._chan.get_write_result, .Ltmp173-_i.i2c_master_async_if._chan.get_write_result
	.cfi_endproc

	.weak	_i.i2c_master_async_if._chan.read
	.align	4
	.type	_i.i2c_master_async_if._chan.read,@function
	.cc_top _i.i2c_master_async_if._chan.read.function,_i.i2c_master_async_if._chan.read
_i.i2c_master_async_if._chan.read:      # @_i.i2c_master_async_if._chan.read
	.cfi_startproc
	.issue_mode dual
# BB#0:                                 # %allocas
	{
		nop
		dualentsp 6
	}
.Ltmp174:
	.cfi_def_cfa_offset 24
.Ltmp175:
	.cfi_offset 15, 0
	std r5, r4, sp[1]               # 4-byte Folded Spill
.Ltmp176:
	.cfi_offset 4, -16
.Ltmp177:
	.cfi_offset 5, -12
	std r7, r6, sp[2]               # 4-byte Folded Spill
.Ltmp178:
	.cfi_offset 6, -8
.Ltmp179:
	.cfi_offset 7, -4
	#DEBUG_VALUE: _i.i2c_master_async_if._chan.read:dest <- R0
	#DEBUG_VALUE: _i.i2c_master_async_if._chan.read:param1 <- R1
	#DEBUG_VALUE: _i.i2c_master_async_if._chan.read:param2 <- R2
	#DEBUG_VALUE: _i.i2c_master_async_if._chan.read:param3 <- R3
	#DEBUG_VALUE: _i.i2c_master_async_if._chan.read:param3 <- R4
	#DEBUG_VALUE: _i.i2c_master_async_if._chan.read:param2 <- R5
	{
		mov r4, r3
		mov r5, r2
	}
	#DEBUG_VALUE: _i.i2c_master_async_if._chan.read:param1 <- R6
	{
		getr r7, 2
		mov r6, r1
	}
	{
		setd res[r7], r0
		add r0, r7, 1
	}
	{
		out res[r7], r0
		nop
	}
	{
		outct res[r7], 2
		ldc r1, 0
	}
	{
		mov r0, r7
		nop
	}
	bl __interface_wait_and_yield
	{
		chkct res[r7], 1
		nop
	}
	{
		outt res[r7], r6
		nop
	}
	{
		out res[r7], r5
		nop
	}
	{
		out res[r7], r4
		nop
	}
	{
		outct res[r7], 2
		nop
	}
	{
		in r0, res[r7]
		nop
	}
	{
		chkct res[r7], 1
		nop
	}
	{
		freer res[r7]
		nop
	}
	ldd r7, r6, sp[2]               # 4-byte Folded Reload
	ldd r5, r4, sp[1]               # 4-byte Folded Reload
	{
		nop
		retsp 6
	}
	# RETURN_REG_HOLDER
	.cc_bottom _i.i2c_master_async_if._chan.read.function
	.set	_i.i2c_master_async_if._chan.read.nstackwords,((_i.i2c_master_async_if._client_call_y.max.nstackwords $M ($D __interface_wait_and_yield.nstackwords ? __interface_wait_and_yield.nstackwords $: _i.i2c_master_async_if._client_call_y.max.nstackwords)) + 6)
	.globl	_i.i2c_master_async_if._chan.read.nstackwords
	.weak	_i.i2c_master_async_if._chan.read.nstackwords
	.set	_i.i2c_master_async_if._chan.read.maxcores,($D __interface_wait_and_yield.maxcores ? __interface_wait_and_yield.maxcores $: _i.i2c_master_async_if._client_call_y.max.maxcores) $M 1
	.globl	_i.i2c_master_async_if._chan.read.maxcores
	.weak	_i.i2c_master_async_if._chan.read.maxcores
	.set	_i.i2c_master_async_if._chan.read.maxtimers,($D __interface_wait_and_yield.maxtimers ? __interface_wait_and_yield.maxtimers $: _i.i2c_master_async_if._client_call_y.max.maxtimers) $M 0
	.globl	_i.i2c_master_async_if._chan.read.maxtimers
	.weak	_i.i2c_master_async_if._chan.read.maxtimers
	.set	_i.i2c_master_async_if._chan.read.maxchanends,(1 + ($D __interface_wait_and_yield.maxchanends ? __interface_wait_and_yield.maxchanends $: _i.i2c_master_async_if._client_call_y.max.maxchanends)) $M 1
	.globl	_i.i2c_master_async_if._chan.read.maxchanends
	.weak	_i.i2c_master_async_if._chan.read.maxchanends
.Ltmp180:
	.size	_i.i2c_master_async_if._chan.read, .Ltmp180-_i.i2c_master_async_if._chan.read
	.cfi_endproc

	.weak	_i.i2c_master_async_if._chan.write
	.align	4
	.type	_i.i2c_master_async_if._chan.write,@function
	.cc_top _i.i2c_master_async_if._chan.write.function,_i.i2c_master_async_if._chan.write
_i.i2c_master_async_if._chan.write:     # @_i.i2c_master_async_if._chan.write
	.cfi_startproc
	.issue_mode dual
# BB#0:                                 # %allocas
	{
		nop
		dualentsp 8
	}
.Ltmp181:
	.cfi_def_cfa_offset 32
.Ltmp182:
	.cfi_offset 15, 0
	std r5, r4, sp[1]               # 4-byte Folded Spill
.Ltmp183:
	.cfi_offset 4, -24
.Ltmp184:
	.cfi_offset 5, -20
	std r7, r6, sp[2]               # 4-byte Folded Spill
.Ltmp185:
	.cfi_offset 6, -16
.Ltmp186:
	.cfi_offset 7, -12
.Ltmp187:
	.cfi_offset 8, -8
	#DEBUG_VALUE: _i.i2c_master_async_if._chan.write:dest <- R0
	#DEBUG_VALUE: _i.i2c_master_async_if._chan.write:param1 <- R1
	#DEBUG_VALUE: _i.i2c_master_async_if._chan.write:param2 <- R2
	#DEBUG_VALUE: _i.i2c_master_async_if._chan.write:param3 <- R3
	#DEBUG_VALUE: _i.i2c_master_async_if._chan.write:param4 <- [SP+36]
	#DEBUG_VALUE: _i.i2c_master_async_if._chan.write:param3 <- R4
	{
		mov r4, r3
		stw r8, sp[6]
	}
	#DEBUG_VALUE: _i.i2c_master_async_if._chan.write:param2 <- R5
	#DEBUG_VALUE: _i.i2c_master_async_if._chan.write:param1 <- R6
	{
		mov r5, r2
		mov r6, r1
	}
	{
		getr r7, 2
		ldw r8, sp[9]
	}
	{
		setd res[r7], r0
		nop
	}
	{
		out res[r7], r7
		nop
	}
	{
		outct res[r7], 2
		ldc r1, 0
	}
	{
		mov r0, r7
		nop
	}
	bl __interface_wait_and_yield
	{
		chkct res[r7], 1
		nop
	}
	{
		outt res[r7], r6
		stw r5, sp[1]
	}
	{
		out res[r7], r4
		nop
	}
	{
		out res[r7], r8
		nop
	}
	{
		outct res[r7], 2
		ldaw r1, sp[1]
	}
	{
		mov r0, r7
		nop
	}
	bl __interface_client_call
	{
		chkct res[r7], 1
		nop
	}
	{
		freer res[r7]
		ldw r8, sp[6]
	}
	ldd r7, r6, sp[2]               # 4-byte Folded Reload
	ldd r5, r4, sp[1]               # 4-byte Folded Reload
	{
		nop
		retsp 8
	}
	# RETURN_REG_HOLDER
	.cc_bottom _i.i2c_master_async_if._chan.write.function
	.set	_i.i2c_master_async_if._chan.write.nstackwords,((_i.i2c_master_async_if._client_call_y.max.nstackwords $M ($D __interface_wait_and_yield.nstackwords ? __interface_wait_and_yield.nstackwords $: _i.i2c_master_async_if._client_call_y.max.nstackwords) $M __interface_client_call.nstackwords) + 8)
	.globl	_i.i2c_master_async_if._chan.write.nstackwords
	.weak	_i.i2c_master_async_if._chan.write.nstackwords
	.set	_i.i2c_master_async_if._chan.write.maxcores,__interface_client_call.maxcores $M ($D __interface_wait_and_yield.maxcores ? __interface_wait_and_yield.maxcores $: _i.i2c_master_async_if._client_call_y.max.maxcores) $M 1
	.globl	_i.i2c_master_async_if._chan.write.maxcores
	.weak	_i.i2c_master_async_if._chan.write.maxcores
	.set	_i.i2c_master_async_if._chan.write.maxtimers,__interface_client_call.maxtimers $M ($D __interface_wait_and_yield.maxtimers ? __interface_wait_and_yield.maxtimers $: _i.i2c_master_async_if._client_call_y.max.maxtimers) $M 0
	.globl	_i.i2c_master_async_if._chan.write.maxtimers
	.weak	_i.i2c_master_async_if._chan.write.maxtimers
	.set	_i.i2c_master_async_if._chan.write.maxchanends,(1 + __interface_client_call.maxchanends) $M (1 + ($D __interface_wait_and_yield.maxchanends ? __interface_wait_and_yield.maxchanends $: _i.i2c_master_async_if._client_call_y.max.maxchanends)) $M 1
	.globl	_i.i2c_master_async_if._chan.write.maxchanends
	.weak	_i.i2c_master_async_if._chan.write.maxchanends
.Ltmp188:
	.size	_i.i2c_master_async_if._chan.write, .Ltmp188-_i.i2c_master_async_if._chan.write
	.cfi_endproc

	.weak	_i.i2c_master_async_if._chan_yield.shutdown
	.align	4
	.type	_i.i2c_master_async_if._chan_yield.shutdown,@function
	.cc_top _i.i2c_master_async_if._chan_yield.shutdown.function,_i.i2c_master_async_if._chan_yield.shutdown
_i.i2c_master_async_if._chan_yield.shutdown: # @_i.i2c_master_async_if._chan_yield.shutdown
	.cfi_startproc
	.issue_mode dual
# BB#0:                                 # %allocas
	{
		nop
		dualentsp 4
	}
.Ltmp189:
	.cfi_def_cfa_offset 16
.Ltmp190:
	.cfi_offset 15, 0
	std r5, r4, sp[1]               # 4-byte Folded Spill
.Ltmp191:
	.cfi_offset 4, -8
.Ltmp192:
	.cfi_offset 5, -4
	#DEBUG_VALUE: _i.i2c_master_async_if._chan_yield.shutdown:s <- R0
	{
		getr r4, 2
		ldw r1, r0[0]
	}
	{
		setd res[r4], r1
		add r1, r4, 5
	}
	{
		out res[r4], r1
		nop
	}
	{
		outct res[r4], 2
		ldw r5, r0[1]
	}
	{
		mov r0, r4
		mov r1, r5
	}
	bl __interface_wait_and_yield
	{
		ldc r1, 0
		mov r0, r4
	}
	{
		mov r2, r5
		nop
	}
	bl __interface_client_call_y
	{
		chkct res[r4], 1
		nop
	}
	{
		freer res[r4]
		nop
	}
	ldd r5, r4, sp[1]               # 4-byte Folded Reload
	{
		nop
		retsp 4
	}
	# RETURN_REG_HOLDER
	.cc_bottom _i.i2c_master_async_if._chan_yield.shutdown.function
	.set	_i.i2c_master_async_if._chan_yield.shutdown.nstackwords,((($D __interface_wait_and_yield.nstackwords ? __interface_wait_and_yield.nstackwords $: _i.i2c_master_async_if._client_call_y.max.nstackwords) $M _i.i2c_master_async_if._client_call_y.max.nstackwords $M ($D __interface_client_call_y.nstackwords ? __interface_client_call_y.nstackwords $: _i.i2c_master_async_if._client_call_y.max.nstackwords)) + 4)
	.globl	_i.i2c_master_async_if._chan_yield.shutdown.nstackwords
	.weak	_i.i2c_master_async_if._chan_yield.shutdown.nstackwords
	.set	_i.i2c_master_async_if._chan_yield.shutdown.maxcores,($D __interface_client_call_y.maxcores ? __interface_client_call_y.maxcores $: _i.i2c_master_async_if._client_call_y.max.maxcores) $M ($D __interface_wait_and_yield.maxcores ? __interface_wait_and_yield.maxcores $: _i.i2c_master_async_if._client_call_y.max.maxcores) $M 1
	.globl	_i.i2c_master_async_if._chan_yield.shutdown.maxcores
	.weak	_i.i2c_master_async_if._chan_yield.shutdown.maxcores
	.set	_i.i2c_master_async_if._chan_yield.shutdown.maxtimers,($D __interface_client_call_y.maxtimers ? __interface_client_call_y.maxtimers $: _i.i2c_master_async_if._client_call_y.max.maxtimers) $M ($D __interface_wait_and_yield.maxtimers ? __interface_wait_and_yield.maxtimers $: _i.i2c_master_async_if._client_call_y.max.maxtimers) $M 0
	.globl	_i.i2c_master_async_if._chan_yield.shutdown.maxtimers
	.weak	_i.i2c_master_async_if._chan_yield.shutdown.maxtimers
	.set	_i.i2c_master_async_if._chan_yield.shutdown.maxchanends,(1 + ($D __interface_client_call_y.maxchanends ? __interface_client_call_y.maxchanends $: _i.i2c_master_async_if._client_call_y.max.maxchanends)) $M (1 + ($D __interface_wait_and_yield.maxchanends ? __interface_wait_and_yield.maxchanends $: _i.i2c_master_async_if._client_call_y.max.maxchanends)) $M 1
	.globl	_i.i2c_master_async_if._chan_yield.shutdown.maxchanends
	.weak	_i.i2c_master_async_if._chan_yield.shutdown.maxchanends
.Ltmp193:
	.size	_i.i2c_master_async_if._chan_yield.shutdown, .Ltmp193-_i.i2c_master_async_if._chan_yield.shutdown
	.cfi_endproc

	.weak	_i.i2c_master_async_if._chan_yield.send_stop_bit
	.align	4
	.type	_i.i2c_master_async_if._chan_yield.send_stop_bit,@function
	.cc_top _i.i2c_master_async_if._chan_yield.send_stop_bit.function,_i.i2c_master_async_if._chan_yield.send_stop_bit
_i.i2c_master_async_if._chan_yield.send_stop_bit: # @_i.i2c_master_async_if._chan_yield.send_stop_bit
	.cfi_startproc
	.issue_mode dual
# BB#0:                                 # %allocas
	{
		nop
		dualentsp 4
	}
.Ltmp194:
	.cfi_def_cfa_offset 16
.Ltmp195:
	.cfi_offset 15, 0
	std r5, r4, sp[1]               # 4-byte Folded Spill
.Ltmp196:
	.cfi_offset 4, -8
.Ltmp197:
	.cfi_offset 5, -4
	#DEBUG_VALUE: _i.i2c_master_async_if._chan_yield.send_stop_bit:s <- R0
	{
		getr r4, 2
		ldw r1, r0[0]
	}
	{
		setd res[r4], r1
		add r1, r4, 4
	}
	{
		out res[r4], r1
		nop
	}
	{
		outct res[r4], 2
		ldw r5, r0[1]
	}
	{
		mov r0, r4
		mov r1, r5
	}
	bl __interface_wait_and_yield
	{
		ldc r1, 0
		mov r0, r4
	}
	{
		mov r2, r5
		nop
	}
	bl __interface_client_call_y
	{
		chkct res[r4], 1
		nop
	}
	{
		freer res[r4]
		nop
	}
	ldd r5, r4, sp[1]               # 4-byte Folded Reload
	{
		nop
		retsp 4
	}
	# RETURN_REG_HOLDER
	.cc_bottom _i.i2c_master_async_if._chan_yield.send_stop_bit.function
	.set	_i.i2c_master_async_if._chan_yield.send_stop_bit.nstackwords,((($D __interface_wait_and_yield.nstackwords ? __interface_wait_and_yield.nstackwords $: _i.i2c_master_async_if._client_call_y.max.nstackwords) $M _i.i2c_master_async_if._client_call_y.max.nstackwords $M ($D __interface_client_call_y.nstackwords ? __interface_client_call_y.nstackwords $: _i.i2c_master_async_if._client_call_y.max.nstackwords)) + 4)
	.globl	_i.i2c_master_async_if._chan_yield.send_stop_bit.nstackwords
	.weak	_i.i2c_master_async_if._chan_yield.send_stop_bit.nstackwords
	.set	_i.i2c_master_async_if._chan_yield.send_stop_bit.maxcores,($D __interface_client_call_y.maxcores ? __interface_client_call_y.maxcores $: _i.i2c_master_async_if._client_call_y.max.maxcores) $M ($D __interface_wait_and_yield.maxcores ? __interface_wait_and_yield.maxcores $: _i.i2c_master_async_if._client_call_y.max.maxcores) $M 1
	.globl	_i.i2c_master_async_if._chan_yield.send_stop_bit.maxcores
	.weak	_i.i2c_master_async_if._chan_yield.send_stop_bit.maxcores
	.set	_i.i2c_master_async_if._chan_yield.send_stop_bit.maxtimers,($D __interface_client_call_y.maxtimers ? __interface_client_call_y.maxtimers $: _i.i2c_master_async_if._client_call_y.max.maxtimers) $M ($D __interface_wait_and_yield.maxtimers ? __interface_wait_and_yield.maxtimers $: _i.i2c_master_async_if._client_call_y.max.maxtimers) $M 0
	.globl	_i.i2c_master_async_if._chan_yield.send_stop_bit.maxtimers
	.weak	_i.i2c_master_async_if._chan_yield.send_stop_bit.maxtimers
	.set	_i.i2c_master_async_if._chan_yield.send_stop_bit.maxchanends,(1 + ($D __interface_client_call_y.maxchanends ? __interface_client_call_y.maxchanends $: _i.i2c_master_async_if._client_call_y.max.maxchanends)) $M (1 + ($D __interface_wait_and_yield.maxchanends ? __interface_wait_and_yield.maxchanends $: _i.i2c_master_async_if._client_call_y.max.maxchanends)) $M 1
	.globl	_i.i2c_master_async_if._chan_yield.send_stop_bit.maxchanends
	.weak	_i.i2c_master_async_if._chan_yield.send_stop_bit.maxchanends
.Ltmp198:
	.size	_i.i2c_master_async_if._chan_yield.send_stop_bit, .Ltmp198-_i.i2c_master_async_if._chan_yield.send_stop_bit
	.cfi_endproc

	.weak	_i.i2c_master_async_if._chan_yield.get_read_data
	.align	4
	.type	_i.i2c_master_async_if._chan_yield.get_read_data,@function
	.cc_top _i.i2c_master_async_if._chan_yield.get_read_data.function,_i.i2c_master_async_if._chan_yield.get_read_data
_i.i2c_master_async_if._chan_yield.get_read_data: # @_i.i2c_master_async_if._chan_yield.get_read_data
	.cfi_startproc
	.issue_mode dual
# BB#0:                                 # %allocas
	{
		nop
		dualentsp 8
	}
.Ltmp199:
	.cfi_def_cfa_offset 32
.Ltmp200:
	.cfi_offset 15, 0
	std r5, r4, sp[1]               # 4-byte Folded Spill
.Ltmp201:
	.cfi_offset 4, -24
.Ltmp202:
	.cfi_offset 5, -20
	std r7, r6, sp[2]               # 4-byte Folded Spill
.Ltmp203:
	.cfi_offset 6, -16
.Ltmp204:
	.cfi_offset 7, -12
.Ltmp205:
	.cfi_offset 8, -8
	#DEBUG_VALUE: _i.i2c_master_async_if._chan_yield.get_read_data:s <- R0
	#DEBUG_VALUE: _i.i2c_master_async_if._chan_yield.get_read_data:clientNotifyFlag <- R1
	#DEBUG_VALUE: _i.i2c_master_async_if._chan_yield.get_read_data:param2 <- R2
	#DEBUG_VALUE: _i.i2c_master_async_if._chan_yield.get_read_data:param3 <- R3
	#DEBUG_VALUE: _i.i2c_master_async_if._chan_yield.get_read_data:param3 <- R5
	{
		mov r5, r3
		stw r8, sp[6]
	}
	#DEBUG_VALUE: _i.i2c_master_async_if._chan_yield.get_read_data:param2 <- R6
	#DEBUG_VALUE: _i.i2c_master_async_if._chan_yield.get_read_data:clientNotifyFlag <- R7
	{
		mov r6, r2
		mov r7, r1
	}
	{
		getr r4, 2
		ldw r1, r0[0]
	}
	{
		setd res[r4], r1
		add r1, r4, 3
	}
	{
		out res[r4], r1
		nop
	}
	{
		outct res[r4], 2
		ldw r8, r0[1]
	}
	{
		mov r0, r4
		mov r1, r8
	}
	bl __interface_wait_and_yield
	{
		chkct res[r4], 1
		nop
	}
	{
		out res[r4], r7
		stw r6, sp[1]
	}
	{
		out res[r4], r5
		nop
	}
	{
		outct res[r4], 2
		ldaw r1, sp[1]
	}
	{
		mov r0, r4
		mov r2, r8
	}
	bl __interface_client_call_y
	{
		in r0, res[r4]
		nop
	}
	{
		chkct res[r4], 1
		nop
	}
	{
		freer res[r4]
		ldw r8, sp[6]
	}
	ldd r7, r6, sp[2]               # 4-byte Folded Reload
	ldd r5, r4, sp[1]               # 4-byte Folded Reload
	{
		nop
		retsp 8
	}
	# RETURN_REG_HOLDER
	.cc_bottom _i.i2c_master_async_if._chan_yield.get_read_data.function
	.set	_i.i2c_master_async_if._chan_yield.get_read_data.nstackwords,((($D __interface_wait_and_yield.nstackwords ? __interface_wait_and_yield.nstackwords $: _i.i2c_master_async_if._client_call_y.max.nstackwords) $M _i.i2c_master_async_if._client_call_y.max.nstackwords $M ($D __interface_client_call_y.nstackwords ? __interface_client_call_y.nstackwords $: _i.i2c_master_async_if._client_call_y.max.nstackwords)) + 8)
	.globl	_i.i2c_master_async_if._chan_yield.get_read_data.nstackwords
	.weak	_i.i2c_master_async_if._chan_yield.get_read_data.nstackwords
	.set	_i.i2c_master_async_if._chan_yield.get_read_data.maxcores,($D __interface_client_call_y.maxcores ? __interface_client_call_y.maxcores $: _i.i2c_master_async_if._client_call_y.max.maxcores) $M ($D __interface_wait_and_yield.maxcores ? __interface_wait_and_yield.maxcores $: _i.i2c_master_async_if._client_call_y.max.maxcores) $M 1
	.globl	_i.i2c_master_async_if._chan_yield.get_read_data.maxcores
	.weak	_i.i2c_master_async_if._chan_yield.get_read_data.maxcores
	.set	_i.i2c_master_async_if._chan_yield.get_read_data.maxtimers,($D __interface_client_call_y.maxtimers ? __interface_client_call_y.maxtimers $: _i.i2c_master_async_if._client_call_y.max.maxtimers) $M ($D __interface_wait_and_yield.maxtimers ? __interface_wait_and_yield.maxtimers $: _i.i2c_master_async_if._client_call_y.max.maxtimers) $M 0
	.globl	_i.i2c_master_async_if._chan_yield.get_read_data.maxtimers
	.weak	_i.i2c_master_async_if._chan_yield.get_read_data.maxtimers
	.set	_i.i2c_master_async_if._chan_yield.get_read_data.maxchanends,(1 + ($D __interface_client_call_y.maxchanends ? __interface_client_call_y.maxchanends $: _i.i2c_master_async_if._client_call_y.max.maxchanends)) $M (1 + ($D __interface_wait_and_yield.maxchanends ? __interface_wait_and_yield.maxchanends $: _i.i2c_master_async_if._client_call_y.max.maxchanends)) $M 1
	.globl	_i.i2c_master_async_if._chan_yield.get_read_data.maxchanends
	.weak	_i.i2c_master_async_if._chan_yield.get_read_data.maxchanends
.Ltmp206:
	.size	_i.i2c_master_async_if._chan_yield.get_read_data, .Ltmp206-_i.i2c_master_async_if._chan_yield.get_read_data
	.cfi_endproc

	.weak	_i.i2c_master_async_if._chan_yield.get_write_result
	.align	4
	.type	_i.i2c_master_async_if._chan_yield.get_write_result,@function
	.cc_top _i.i2c_master_async_if._chan_yield.get_write_result.function,_i.i2c_master_async_if._chan_yield.get_write_result
_i.i2c_master_async_if._chan_yield.get_write_result: # @_i.i2c_master_async_if._chan_yield.get_write_result
	.cfi_startproc
	.issue_mode dual
# BB#0:                                 # %allocas
	{
		nop
		dualentsp 6
	}
.Ltmp207:
	.cfi_def_cfa_offset 24
.Ltmp208:
	.cfi_offset 15, 0
	std r5, r4, sp[1]               # 4-byte Folded Spill
.Ltmp209:
	.cfi_offset 4, -16
.Ltmp210:
	.cfi_offset 5, -12
	std r7, r6, sp[2]               # 4-byte Folded Spill
.Ltmp211:
	.cfi_offset 6, -8
.Ltmp212:
	.cfi_offset 7, -4
	#DEBUG_VALUE: _i.i2c_master_async_if._chan_yield.get_write_result:s <- R0
	#DEBUG_VALUE: _i.i2c_master_async_if._chan_yield.get_write_result:clientNotifyFlag <- R1
	#DEBUG_VALUE: _i.i2c_master_async_if._chan_yield.get_write_result:param2 <- R2
	#DEBUG_VALUE: _i.i2c_master_async_if._chan_yield.get_write_result:param2 <- R4
	#DEBUG_VALUE: _i.i2c_master_async_if._chan_yield.get_write_result:clientNotifyFlag <- R6
	{
		mov r4, r2
		mov r6, r1
	}
	{
		getr r5, 2
		ldw r1, r0[0]
	}
	{
		setd res[r5], r1
		add r1, r5, 2
	}
	{
		out res[r5], r1
		nop
	}
	{
		outct res[r5], 2
		ldw r7, r0[1]
	}
	{
		mov r0, r5
		mov r1, r7
	}
	bl __interface_wait_and_yield
	{
		chkct res[r5], 1
		nop
	}
	{
		out res[r5], r6
		ldw r0, r4[0]
	}
	{
		out res[r5], r0
		nop
	}
	{
		outct res[r5], 2
		ldc r1, 0
	}
	{
		mov r0, r5
		mov r2, r7
	}
	bl __interface_client_call_y
	{
		in r0, res[r5]
		nop
	}
	{
		in r0, res[r5]
		stw r0, r4[0]
	}
	{
		chkct res[r5], 1
		nop
	}
	{
		freer res[r5]
		nop
	}
	ldd r7, r6, sp[2]               # 4-byte Folded Reload
	ldd r5, r4, sp[1]               # 4-byte Folded Reload
	{
		nop
		retsp 6
	}
	# RETURN_REG_HOLDER
	.cc_bottom _i.i2c_master_async_if._chan_yield.get_write_result.function
	.set	_i.i2c_master_async_if._chan_yield.get_write_result.nstackwords,((($D __interface_wait_and_yield.nstackwords ? __interface_wait_and_yield.nstackwords $: _i.i2c_master_async_if._client_call_y.max.nstackwords) $M _i.i2c_master_async_if._client_call_y.max.nstackwords $M ($D __interface_client_call_y.nstackwords ? __interface_client_call_y.nstackwords $: _i.i2c_master_async_if._client_call_y.max.nstackwords)) + 6)
	.globl	_i.i2c_master_async_if._chan_yield.get_write_result.nstackwords
	.weak	_i.i2c_master_async_if._chan_yield.get_write_result.nstackwords
	.set	_i.i2c_master_async_if._chan_yield.get_write_result.maxcores,($D __interface_client_call_y.maxcores ? __interface_client_call_y.maxcores $: _i.i2c_master_async_if._client_call_y.max.maxcores) $M ($D __interface_wait_and_yield.maxcores ? __interface_wait_and_yield.maxcores $: _i.i2c_master_async_if._client_call_y.max.maxcores) $M 1
	.globl	_i.i2c_master_async_if._chan_yield.get_write_result.maxcores
	.weak	_i.i2c_master_async_if._chan_yield.get_write_result.maxcores
	.set	_i.i2c_master_async_if._chan_yield.get_write_result.maxtimers,($D __interface_client_call_y.maxtimers ? __interface_client_call_y.maxtimers $: _i.i2c_master_async_if._client_call_y.max.maxtimers) $M ($D __interface_wait_and_yield.maxtimers ? __interface_wait_and_yield.maxtimers $: _i.i2c_master_async_if._client_call_y.max.maxtimers) $M 0
	.globl	_i.i2c_master_async_if._chan_yield.get_write_result.maxtimers
	.weak	_i.i2c_master_async_if._chan_yield.get_write_result.maxtimers
	.set	_i.i2c_master_async_if._chan_yield.get_write_result.maxchanends,(1 + ($D __interface_client_call_y.maxchanends ? __interface_client_call_y.maxchanends $: _i.i2c_master_async_if._client_call_y.max.maxchanends)) $M (1 + ($D __interface_wait_and_yield.maxchanends ? __interface_wait_and_yield.maxchanends $: _i.i2c_master_async_if._client_call_y.max.maxchanends)) $M 1
	.globl	_i.i2c_master_async_if._chan_yield.get_write_result.maxchanends
	.weak	_i.i2c_master_async_if._chan_yield.get_write_result.maxchanends
.Ltmp213:
	.size	_i.i2c_master_async_if._chan_yield.get_write_result, .Ltmp213-_i.i2c_master_async_if._chan_yield.get_write_result
	.cfi_endproc

	.weak	_i.i2c_master_async_if._chan_yield.read
	.align	4
	.type	_i.i2c_master_async_if._chan_yield.read,@function
	.cc_top _i.i2c_master_async_if._chan_yield.read.function,_i.i2c_master_async_if._chan_yield.read
_i.i2c_master_async_if._chan_yield.read: # @_i.i2c_master_async_if._chan_yield.read
	.cfi_startproc
	.issue_mode dual
# BB#0:                                 # %allocas
	{
		nop
		dualentsp 8
	}
.Ltmp214:
	.cfi_def_cfa_offset 32
.Ltmp215:
	.cfi_offset 15, 0
	std r5, r4, sp[1]               # 4-byte Folded Spill
.Ltmp216:
	.cfi_offset 4, -24
.Ltmp217:
	.cfi_offset 5, -20
	std r7, r6, sp[2]               # 4-byte Folded Spill
.Ltmp218:
	.cfi_offset 6, -16
.Ltmp219:
	.cfi_offset 7, -12
.Ltmp220:
	.cfi_offset 8, -8
	#DEBUG_VALUE: _i.i2c_master_async_if._chan_yield.read:s <- R0
	#DEBUG_VALUE: _i.i2c_master_async_if._chan_yield.read:param1 <- R1
	#DEBUG_VALUE: _i.i2c_master_async_if._chan_yield.read:param2 <- R2
	#DEBUG_VALUE: _i.i2c_master_async_if._chan_yield.read:param3 <- R3
	#DEBUG_VALUE: _i.i2c_master_async_if._chan_yield.read:param3 <- R4
	{
		mov r4, r3
		stw r8, sp[6]
	}
	#DEBUG_VALUE: _i.i2c_master_async_if._chan_yield.read:param2 <- R5
	#DEBUG_VALUE: _i.i2c_master_async_if._chan_yield.read:param1 <- R6
	{
		mov r5, r2
		mov r6, r1
	}
	{
		getr r7, 2
		ldw r1, r0[0]
	}
	{
		setd res[r7], r1
		add r1, r7, 1
	}
	{
		out res[r7], r1
		nop
	}
	{
		outct res[r7], 2
		ldw r8, r0[1]
	}
	{
		mov r0, r7
		mov r1, r8
	}
	bl __interface_wait_and_yield
	{
		chkct res[r7], 1
		nop
	}
	{
		outt res[r7], r6
		nop
	}
	{
		out res[r7], r5
		nop
	}
	{
		out res[r7], r4
		nop
	}
	{
		outct res[r7], 2
		ldc r1, 0
	}
	{
		mov r0, r7
		mov r2, r8
	}
	bl __interface_client_call_y
	{
		chkct res[r7], 1
		nop
	}
	{
		freer res[r7]
		ldw r8, sp[6]
	}
	ldd r7, r6, sp[2]               # 4-byte Folded Reload
	ldd r5, r4, sp[1]               # 4-byte Folded Reload
	{
		nop
		retsp 8
	}
	# RETURN_REG_HOLDER
	.cc_bottom _i.i2c_master_async_if._chan_yield.read.function
	.set	_i.i2c_master_async_if._chan_yield.read.nstackwords,((($D __interface_wait_and_yield.nstackwords ? __interface_wait_and_yield.nstackwords $: _i.i2c_master_async_if._client_call_y.max.nstackwords) $M _i.i2c_master_async_if._client_call_y.max.nstackwords $M ($D __interface_client_call_y.nstackwords ? __interface_client_call_y.nstackwords $: _i.i2c_master_async_if._client_call_y.max.nstackwords)) + 8)
	.globl	_i.i2c_master_async_if._chan_yield.read.nstackwords
	.weak	_i.i2c_master_async_if._chan_yield.read.nstackwords
	.set	_i.i2c_master_async_if._chan_yield.read.maxcores,($D __interface_client_call_y.maxcores ? __interface_client_call_y.maxcores $: _i.i2c_master_async_if._client_call_y.max.maxcores) $M ($D __interface_wait_and_yield.maxcores ? __interface_wait_and_yield.maxcores $: _i.i2c_master_async_if._client_call_y.max.maxcores) $M 1
	.globl	_i.i2c_master_async_if._chan_yield.read.maxcores
	.weak	_i.i2c_master_async_if._chan_yield.read.maxcores
	.set	_i.i2c_master_async_if._chan_yield.read.maxtimers,($D __interface_client_call_y.maxtimers ? __interface_client_call_y.maxtimers $: _i.i2c_master_async_if._client_call_y.max.maxtimers) $M ($D __interface_wait_and_yield.maxtimers ? __interface_wait_and_yield.maxtimers $: _i.i2c_master_async_if._client_call_y.max.maxtimers) $M 0
	.globl	_i.i2c_master_async_if._chan_yield.read.maxtimers
	.weak	_i.i2c_master_async_if._chan_yield.read.maxtimers
	.set	_i.i2c_master_async_if._chan_yield.read.maxchanends,(1 + ($D __interface_client_call_y.maxchanends ? __interface_client_call_y.maxchanends $: _i.i2c_master_async_if._client_call_y.max.maxchanends)) $M (1 + ($D __interface_wait_and_yield.maxchanends ? __interface_wait_and_yield.maxchanends $: _i.i2c_master_async_if._client_call_y.max.maxchanends)) $M 1
	.globl	_i.i2c_master_async_if._chan_yield.read.maxchanends
	.weak	_i.i2c_master_async_if._chan_yield.read.maxchanends
.Ltmp221:
	.size	_i.i2c_master_async_if._chan_yield.read, .Ltmp221-_i.i2c_master_async_if._chan_yield.read
	.cfi_endproc

	.weak	_i.i2c_master_async_if._chan_yield.write
	.align	4
	.type	_i.i2c_master_async_if._chan_yield.write,@function
	.cc_top _i.i2c_master_async_if._chan_yield.write.function,_i.i2c_master_async_if._chan_yield.write
_i.i2c_master_async_if._chan_yield.write: # @_i.i2c_master_async_if._chan_yield.write
	.cfi_startproc
	.issue_mode dual
# BB#0:                                 # %allocas
	{
		nop
		dualentsp 8
	}
.Ltmp222:
	.cfi_def_cfa_offset 32
.Ltmp223:
	.cfi_offset 15, 0
	std r5, r4, sp[1]               # 4-byte Folded Spill
.Ltmp224:
	.cfi_offset 4, -24
.Ltmp225:
	.cfi_offset 5, -20
	std r7, r6, sp[2]               # 4-byte Folded Spill
.Ltmp226:
	.cfi_offset 6, -16
.Ltmp227:
	.cfi_offset 7, -12
	std r9, r8, sp[3]               # 4-byte Folded Spill
.Ltmp228:
	.cfi_offset 8, -8
.Ltmp229:
	.cfi_offset 9, -4
	#DEBUG_VALUE: _i.i2c_master_async_if._chan_yield.write:s <- R0
	#DEBUG_VALUE: _i.i2c_master_async_if._chan_yield.write:param1 <- R1
	#DEBUG_VALUE: _i.i2c_master_async_if._chan_yield.write:param2 <- R2
	#DEBUG_VALUE: _i.i2c_master_async_if._chan_yield.write:param3 <- R3
	#DEBUG_VALUE: _i.i2c_master_async_if._chan_yield.write:param4 <- [SP+36]
	#DEBUG_VALUE: _i.i2c_master_async_if._chan_yield.write:param3 <- R4
	#DEBUG_VALUE: _i.i2c_master_async_if._chan_yield.write:param2 <- R5
	{
		mov r4, r3
		mov r5, r2
	}
	#DEBUG_VALUE: _i.i2c_master_async_if._chan_yield.write:param1 <- R6
	{
		mov r6, r1
		ldw r9, sp[9]
	}
	{
		getr r7, 2
		ldw r1, r0[0]
	}
	{
		setd res[r7], r1
		nop
	}
	{
		out res[r7], r7
		nop
	}
	{
		outct res[r7], 2
		ldw r8, r0[1]
	}
	{
		mov r0, r7
		mov r1, r8
	}
	bl __interface_wait_and_yield
	{
		chkct res[r7], 1
		nop
	}
	{
		outt res[r7], r6
		stw r5, sp[1]
	}
	{
		out res[r7], r4
		nop
	}
	{
		out res[r7], r9
		nop
	}
	{
		outct res[r7], 2
		ldaw r1, sp[1]
	}
	{
		mov r0, r7
		mov r2, r8
	}
	bl __interface_client_call_y
	{
		chkct res[r7], 1
		nop
	}
	{
		freer res[r7]
		nop
	}
	ldd r9, r8, sp[3]               # 4-byte Folded Reload
	ldd r7, r6, sp[2]               # 4-byte Folded Reload
	ldd r5, r4, sp[1]               # 4-byte Folded Reload
	{
		nop
		retsp 8
	}
	# RETURN_REG_HOLDER
	.cc_bottom _i.i2c_master_async_if._chan_yield.write.function
	.set	_i.i2c_master_async_if._chan_yield.write.nstackwords,((($D __interface_wait_and_yield.nstackwords ? __interface_wait_and_yield.nstackwords $: _i.i2c_master_async_if._client_call_y.max.nstackwords) $M _i.i2c_master_async_if._client_call_y.max.nstackwords $M ($D __interface_client_call_y.nstackwords ? __interface_client_call_y.nstackwords $: _i.i2c_master_async_if._client_call_y.max.nstackwords)) + 8)
	.globl	_i.i2c_master_async_if._chan_yield.write.nstackwords
	.weak	_i.i2c_master_async_if._chan_yield.write.nstackwords
	.set	_i.i2c_master_async_if._chan_yield.write.maxcores,($D __interface_client_call_y.maxcores ? __interface_client_call_y.maxcores $: _i.i2c_master_async_if._client_call_y.max.maxcores) $M ($D __interface_wait_and_yield.maxcores ? __interface_wait_and_yield.maxcores $: _i.i2c_master_async_if._client_call_y.max.maxcores) $M 1
	.globl	_i.i2c_master_async_if._chan_yield.write.maxcores
	.weak	_i.i2c_master_async_if._chan_yield.write.maxcores
	.set	_i.i2c_master_async_if._chan_yield.write.maxtimers,($D __interface_client_call_y.maxtimers ? __interface_client_call_y.maxtimers $: _i.i2c_master_async_if._client_call_y.max.maxtimers) $M ($D __interface_wait_and_yield.maxtimers ? __interface_wait_and_yield.maxtimers $: _i.i2c_master_async_if._client_call_y.max.maxtimers) $M 0
	.globl	_i.i2c_master_async_if._chan_yield.write.maxtimers
	.weak	_i.i2c_master_async_if._chan_yield.write.maxtimers
	.set	_i.i2c_master_async_if._chan_yield.write.maxchanends,(1 + ($D __interface_client_call_y.maxchanends ? __interface_client_call_y.maxchanends $: _i.i2c_master_async_if._client_call_y.max.maxchanends)) $M (1 + ($D __interface_wait_and_yield.maxchanends ? __interface_wait_and_yield.maxchanends $: _i.i2c_master_async_if._client_call_y.max.maxchanends)) $M 1
	.globl	_i.i2c_master_async_if._chan_yield.write.maxchanends
	.weak	_i.i2c_master_async_if._chan_yield.write.maxchanends
.Ltmp230:
	.size	_i.i2c_master_async_if._chan_yield.write, .Ltmp230-_i.i2c_master_async_if._chan_yield.write
	.cfi_endproc

	.weak	_i.i2c_slave_callback_if._chan.stop_bit
	.align	4
	.type	_i.i2c_slave_callback_if._chan.stop_bit,@function
	.cc_top _i.i2c_slave_callback_if._chan.stop_bit.function,_i.i2c_slave_callback_if._chan.stop_bit
_i.i2c_slave_callback_if._chan.stop_bit: # @_i.i2c_slave_callback_if._chan.stop_bit
	.cfi_startproc
	.issue_mode dual
# BB#0:                                 # %allocas
	{
		nop
		dualentsp 4
	}
.Ltmp231:
	.cfi_def_cfa_offset 16
.Ltmp232:
	.cfi_offset 15, 0
.Ltmp233:
	.cfi_offset 4, -8
	#DEBUG_VALUE: _i.i2c_slave_callback_if._chan.stop_bit:dest <- R0
	{
		getr r4, 2
		stw r4, sp[2]
	}
	{
		setd res[r4], r0
		add r0, r4, 8
	}
	{
		out res[r4], r0
		nop
	}
	{
		outct res[r4], 2
		ldc r1, 0
	}
	{
		mov r0, r4
		nop
	}
	bl __interface_wait_and_yield
	{
		in r0, res[r4]
		nop
	}
	{
		chkct res[r4], 1
		nop
	}
	{
		freer res[r4]
		ldw r4, sp[2]
	}
	{
		nop
		retsp 4
	}
	# RETURN_REG_HOLDER
	.cc_bottom _i.i2c_slave_callback_if._chan.stop_bit.function
	.set	_i.i2c_slave_callback_if._chan.stop_bit.nstackwords,((_i.i2c_slave_callback_if._client_call_y.max.nstackwords $M ($D __interface_wait_and_yield.nstackwords ? __interface_wait_and_yield.nstackwords $: _i.i2c_slave_callback_if._client_call_y.max.nstackwords)) + 4)
	.globl	_i.i2c_slave_callback_if._chan.stop_bit.nstackwords
	.weak	_i.i2c_slave_callback_if._chan.stop_bit.nstackwords
	.set	_i.i2c_slave_callback_if._chan.stop_bit.maxcores,($D __interface_wait_and_yield.maxcores ? __interface_wait_and_yield.maxcores $: _i.i2c_slave_callback_if._client_call_y.max.maxcores) $M 1
	.globl	_i.i2c_slave_callback_if._chan.stop_bit.maxcores
	.weak	_i.i2c_slave_callback_if._chan.stop_bit.maxcores
	.set	_i.i2c_slave_callback_if._chan.stop_bit.maxtimers,($D __interface_wait_and_yield.maxtimers ? __interface_wait_and_yield.maxtimers $: _i.i2c_slave_callback_if._client_call_y.max.maxtimers) $M 0
	.globl	_i.i2c_slave_callback_if._chan.stop_bit.maxtimers
	.weak	_i.i2c_slave_callback_if._chan.stop_bit.maxtimers
	.set	_i.i2c_slave_callback_if._chan.stop_bit.maxchanends,(1 + ($D __interface_wait_and_yield.maxchanends ? __interface_wait_and_yield.maxchanends $: _i.i2c_slave_callback_if._client_call_y.max.maxchanends)) $M 1
	.globl	_i.i2c_slave_callback_if._chan.stop_bit.maxchanends
	.weak	_i.i2c_slave_callback_if._chan.stop_bit.maxchanends
.Ltmp234:
	.size	_i.i2c_slave_callback_if._chan.stop_bit, .Ltmp234-_i.i2c_slave_callback_if._chan.stop_bit
	.cfi_endproc

	.weak	_i.i2c_slave_callback_if._chan.master_sent_data
	.align	4
	.type	_i.i2c_slave_callback_if._chan.master_sent_data,@function
	.cc_top _i.i2c_slave_callback_if._chan.master_sent_data.function,_i.i2c_slave_callback_if._chan.master_sent_data
_i.i2c_slave_callback_if._chan.master_sent_data: # @_i.i2c_slave_callback_if._chan.master_sent_data
	.cfi_startproc
	.issue_mode dual
# BB#0:                                 # %allocas
	{
		nop
		dualentsp 4
	}
.Ltmp235:
	.cfi_def_cfa_offset 16
.Ltmp236:
	.cfi_offset 15, 0
	std r5, r4, sp[1]               # 4-byte Folded Spill
.Ltmp237:
	.cfi_offset 4, -8
.Ltmp238:
	.cfi_offset 5, -4
	#DEBUG_VALUE: _i.i2c_slave_callback_if._chan.master_sent_data:dest <- R0
	#DEBUG_VALUE: _i.i2c_slave_callback_if._chan.master_sent_data:param1 <- R1
	#DEBUG_VALUE: _i.i2c_slave_callback_if._chan.master_sent_data:param1 <- R4
	{
		getr r5, 2
		mov r4, r1
	}
	{
		setd res[r5], r0
		add r0, r5, 7
	}
	{
		out res[r5], r0
		nop
	}
	{
		outct res[r5], 2
		ldc r1, 0
	}
	{
		mov r0, r5
		nop
	}
	bl __interface_wait_and_yield
	{
		chkct res[r5], 1
		nop
	}
	{
		outt res[r5], r4
		nop
	}
	{
		outct res[r5], 2
		nop
	}
	{
		in r0, res[r5]
		nop
	}
	{
		in r0, res[r5]
		nop
	}
	{
		chkct res[r5], 1
		nop
	}
	{
		freer res[r5]
		nop
	}
	ldd r5, r4, sp[1]               # 4-byte Folded Reload
	{
		nop
		retsp 4
	}
	# RETURN_REG_HOLDER
	.cc_bottom _i.i2c_slave_callback_if._chan.master_sent_data.function
	.set	_i.i2c_slave_callback_if._chan.master_sent_data.nstackwords,((_i.i2c_slave_callback_if._client_call_y.max.nstackwords $M ($D __interface_wait_and_yield.nstackwords ? __interface_wait_and_yield.nstackwords $: _i.i2c_slave_callback_if._client_call_y.max.nstackwords)) + 4)
	.globl	_i.i2c_slave_callback_if._chan.master_sent_data.nstackwords
	.weak	_i.i2c_slave_callback_if._chan.master_sent_data.nstackwords
	.set	_i.i2c_slave_callback_if._chan.master_sent_data.maxcores,($D __interface_wait_and_yield.maxcores ? __interface_wait_and_yield.maxcores $: _i.i2c_slave_callback_if._client_call_y.max.maxcores) $M 1
	.globl	_i.i2c_slave_callback_if._chan.master_sent_data.maxcores
	.weak	_i.i2c_slave_callback_if._chan.master_sent_data.maxcores
	.set	_i.i2c_slave_callback_if._chan.master_sent_data.maxtimers,($D __interface_wait_and_yield.maxtimers ? __interface_wait_and_yield.maxtimers $: _i.i2c_slave_callback_if._client_call_y.max.maxtimers) $M 0
	.globl	_i.i2c_slave_callback_if._chan.master_sent_data.maxtimers
	.weak	_i.i2c_slave_callback_if._chan.master_sent_data.maxtimers
	.set	_i.i2c_slave_callback_if._chan.master_sent_data.maxchanends,(1 + ($D __interface_wait_and_yield.maxchanends ? __interface_wait_and_yield.maxchanends $: _i.i2c_slave_callback_if._client_call_y.max.maxchanends)) $M 1
	.globl	_i.i2c_slave_callback_if._chan.master_sent_data.maxchanends
	.weak	_i.i2c_slave_callback_if._chan.master_sent_data.maxchanends
.Ltmp239:
	.size	_i.i2c_slave_callback_if._chan.master_sent_data, .Ltmp239-_i.i2c_slave_callback_if._chan.master_sent_data
	.cfi_endproc

	.weak	_i.i2c_slave_callback_if._chan.start_master_write
	.align	4
	.type	_i.i2c_slave_callback_if._chan.start_master_write,@function
	.cc_top _i.i2c_slave_callback_if._chan.start_master_write.function,_i.i2c_slave_callback_if._chan.start_master_write
_i.i2c_slave_callback_if._chan.start_master_write: # @_i.i2c_slave_callback_if._chan.start_master_write
	.cfi_startproc
	.issue_mode dual
# BB#0:                                 # %allocas
	{
		nop
		dualentsp 4
	}
.Ltmp240:
	.cfi_def_cfa_offset 16
.Ltmp241:
	.cfi_offset 15, 0
.Ltmp242:
	.cfi_offset 4, -8
	#DEBUG_VALUE: _i.i2c_slave_callback_if._chan.start_master_write:dest <- R0
	{
		getr r4, 2
		stw r4, sp[2]
	}
	{
		setd res[r4], r0
		add r0, r4, 6
	}
	{
		out res[r4], r0
		nop
	}
	{
		outct res[r4], 2
		ldc r1, 0
	}
	{
		mov r0, r4
		nop
	}
	bl __interface_wait_and_yield
	{
		in r0, res[r4]
		nop
	}
	{
		chkct res[r4], 1
		nop
	}
	{
		freer res[r4]
		ldw r4, sp[2]
	}
	{
		nop
		retsp 4
	}
	# RETURN_REG_HOLDER
	.cc_bottom _i.i2c_slave_callback_if._chan.start_master_write.function
	.set	_i.i2c_slave_callback_if._chan.start_master_write.nstackwords,((_i.i2c_slave_callback_if._client_call_y.max.nstackwords $M ($D __interface_wait_and_yield.nstackwords ? __interface_wait_and_yield.nstackwords $: _i.i2c_slave_callback_if._client_call_y.max.nstackwords)) + 4)
	.globl	_i.i2c_slave_callback_if._chan.start_master_write.nstackwords
	.weak	_i.i2c_slave_callback_if._chan.start_master_write.nstackwords
	.set	_i.i2c_slave_callback_if._chan.start_master_write.maxcores,($D __interface_wait_and_yield.maxcores ? __interface_wait_and_yield.maxcores $: _i.i2c_slave_callback_if._client_call_y.max.maxcores) $M 1
	.globl	_i.i2c_slave_callback_if._chan.start_master_write.maxcores
	.weak	_i.i2c_slave_callback_if._chan.start_master_write.maxcores
	.set	_i.i2c_slave_callback_if._chan.start_master_write.maxtimers,($D __interface_wait_and_yield.maxtimers ? __interface_wait_and_yield.maxtimers $: _i.i2c_slave_callback_if._client_call_y.max.maxtimers) $M 0
	.globl	_i.i2c_slave_callback_if._chan.start_master_write.maxtimers
	.weak	_i.i2c_slave_callback_if._chan.start_master_write.maxtimers
	.set	_i.i2c_slave_callback_if._chan.start_master_write.maxchanends,(1 + ($D __interface_wait_and_yield.maxchanends ? __interface_wait_and_yield.maxchanends $: _i.i2c_slave_callback_if._client_call_y.max.maxchanends)) $M 1
	.globl	_i.i2c_slave_callback_if._chan.start_master_write.maxchanends
	.weak	_i.i2c_slave_callback_if._chan.start_master_write.maxchanends
.Ltmp243:
	.size	_i.i2c_slave_callback_if._chan.start_master_write, .Ltmp243-_i.i2c_slave_callback_if._chan.start_master_write
	.cfi_endproc

	.weak	_i.i2c_slave_callback_if._chan.master_requires_data
	.align	4
	.type	_i.i2c_slave_callback_if._chan.master_requires_data,@function
	.cc_top _i.i2c_slave_callback_if._chan.master_requires_data.function,_i.i2c_slave_callback_if._chan.master_requires_data
_i.i2c_slave_callback_if._chan.master_requires_data: # @_i.i2c_slave_callback_if._chan.master_requires_data
	.cfi_startproc
	.issue_mode dual
# BB#0:                                 # %allocas
	{
		nop
		dualentsp 4
	}
.Ltmp244:
	.cfi_def_cfa_offset 16
.Ltmp245:
	.cfi_offset 15, 0
.Ltmp246:
	.cfi_offset 4, -8
	#DEBUG_VALUE: _i.i2c_slave_callback_if._chan.master_requires_data:dest <- R0
	{
		getr r4, 2
		stw r4, sp[2]
	}
	{
		setd res[r4], r0
		add r0, r4, 5
	}
	{
		out res[r4], r0
		nop
	}
	{
		outct res[r4], 2
		ldc r1, 0
	}
	{
		mov r0, r4
		nop
	}
	bl __interface_wait_and_yield
	{
		in r0, res[r4]
		nop
	}
	{
		int r0, res[r4]
		nop
	}
	{
		chkct res[r4], 1
		nop
	}
	{
		freer res[r4]
		ldw r4, sp[2]
	}
	{
		nop
		retsp 4
	}
	# RETURN_REG_HOLDER
	.cc_bottom _i.i2c_slave_callback_if._chan.master_requires_data.function
	.set	_i.i2c_slave_callback_if._chan.master_requires_data.nstackwords,((_i.i2c_slave_callback_if._client_call_y.max.nstackwords $M ($D __interface_wait_and_yield.nstackwords ? __interface_wait_and_yield.nstackwords $: _i.i2c_slave_callback_if._client_call_y.max.nstackwords)) + 4)
	.globl	_i.i2c_slave_callback_if._chan.master_requires_data.nstackwords
	.weak	_i.i2c_slave_callback_if._chan.master_requires_data.nstackwords
	.set	_i.i2c_slave_callback_if._chan.master_requires_data.maxcores,($D __interface_wait_and_yield.maxcores ? __interface_wait_and_yield.maxcores $: _i.i2c_slave_callback_if._client_call_y.max.maxcores) $M 1
	.globl	_i.i2c_slave_callback_if._chan.master_requires_data.maxcores
	.weak	_i.i2c_slave_callback_if._chan.master_requires_data.maxcores
	.set	_i.i2c_slave_callback_if._chan.master_requires_data.maxtimers,($D __interface_wait_and_yield.maxtimers ? __interface_wait_and_yield.maxtimers $: _i.i2c_slave_callback_if._client_call_y.max.maxtimers) $M 0
	.globl	_i.i2c_slave_callback_if._chan.master_requires_data.maxtimers
	.weak	_i.i2c_slave_callback_if._chan.master_requires_data.maxtimers
	.set	_i.i2c_slave_callback_if._chan.master_requires_data.maxchanends,(1 + ($D __interface_wait_and_yield.maxchanends ? __interface_wait_and_yield.maxchanends $: _i.i2c_slave_callback_if._client_call_y.max.maxchanends)) $M 1
	.globl	_i.i2c_slave_callback_if._chan.master_requires_data.maxchanends
	.weak	_i.i2c_slave_callback_if._chan.master_requires_data.maxchanends
.Ltmp247:
	.size	_i.i2c_slave_callback_if._chan.master_requires_data, .Ltmp247-_i.i2c_slave_callback_if._chan.master_requires_data
	.cfi_endproc

	.weak	_i.i2c_slave_callback_if._chan.start_master_read
	.align	4
	.type	_i.i2c_slave_callback_if._chan.start_master_read,@function
	.cc_top _i.i2c_slave_callback_if._chan.start_master_read.function,_i.i2c_slave_callback_if._chan.start_master_read
_i.i2c_slave_callback_if._chan.start_master_read: # @_i.i2c_slave_callback_if._chan.start_master_read
	.cfi_startproc
	.issue_mode dual
# BB#0:                                 # %allocas
	{
		nop
		dualentsp 4
	}
.Ltmp248:
	.cfi_def_cfa_offset 16
.Ltmp249:
	.cfi_offset 15, 0
.Ltmp250:
	.cfi_offset 4, -8
	#DEBUG_VALUE: _i.i2c_slave_callback_if._chan.start_master_read:dest <- R0
	{
		getr r4, 2
		stw r4, sp[2]
	}
	{
		setd res[r4], r0
		add r0, r4, 4
	}
	{
		out res[r4], r0
		nop
	}
	{
		outct res[r4], 2
		ldc r1, 0
	}
	{
		mov r0, r4
		nop
	}
	bl __interface_wait_and_yield
	{
		in r0, res[r4]
		nop
	}
	{
		chkct res[r4], 1
		nop
	}
	{
		freer res[r4]
		ldw r4, sp[2]
	}
	{
		nop
		retsp 4
	}
	# RETURN_REG_HOLDER
	.cc_bottom _i.i2c_slave_callback_if._chan.start_master_read.function
	.set	_i.i2c_slave_callback_if._chan.start_master_read.nstackwords,((_i.i2c_slave_callback_if._client_call_y.max.nstackwords $M ($D __interface_wait_and_yield.nstackwords ? __interface_wait_and_yield.nstackwords $: _i.i2c_slave_callback_if._client_call_y.max.nstackwords)) + 4)
	.globl	_i.i2c_slave_callback_if._chan.start_master_read.nstackwords
	.weak	_i.i2c_slave_callback_if._chan.start_master_read.nstackwords
	.set	_i.i2c_slave_callback_if._chan.start_master_read.maxcores,($D __interface_wait_and_yield.maxcores ? __interface_wait_and_yield.maxcores $: _i.i2c_slave_callback_if._client_call_y.max.maxcores) $M 1
	.globl	_i.i2c_slave_callback_if._chan.start_master_read.maxcores
	.weak	_i.i2c_slave_callback_if._chan.start_master_read.maxcores
	.set	_i.i2c_slave_callback_if._chan.start_master_read.maxtimers,($D __interface_wait_and_yield.maxtimers ? __interface_wait_and_yield.maxtimers $: _i.i2c_slave_callback_if._client_call_y.max.maxtimers) $M 0
	.globl	_i.i2c_slave_callback_if._chan.start_master_read.maxtimers
	.weak	_i.i2c_slave_callback_if._chan.start_master_read.maxtimers
	.set	_i.i2c_slave_callback_if._chan.start_master_read.maxchanends,(1 + ($D __interface_wait_and_yield.maxchanends ? __interface_wait_and_yield.maxchanends $: _i.i2c_slave_callback_if._client_call_y.max.maxchanends)) $M 1
	.globl	_i.i2c_slave_callback_if._chan.start_master_read.maxchanends
	.weak	_i.i2c_slave_callback_if._chan.start_master_read.maxchanends
.Ltmp251:
	.size	_i.i2c_slave_callback_if._chan.start_master_read, .Ltmp251-_i.i2c_slave_callback_if._chan.start_master_read
	.cfi_endproc

	.weak	_i.i2c_slave_callback_if._chan.ack_write_request
	.align	4
	.type	_i.i2c_slave_callback_if._chan.ack_write_request,@function
	.cc_top _i.i2c_slave_callback_if._chan.ack_write_request.function,_i.i2c_slave_callback_if._chan.ack_write_request
_i.i2c_slave_callback_if._chan.ack_write_request: # @_i.i2c_slave_callback_if._chan.ack_write_request
	.cfi_startproc
	.issue_mode dual
# BB#0:                                 # %allocas
	{
		nop
		dualentsp 4
	}
.Ltmp252:
	.cfi_def_cfa_offset 16
.Ltmp253:
	.cfi_offset 15, 0
.Ltmp254:
	.cfi_offset 4, -8
	#DEBUG_VALUE: _i.i2c_slave_callback_if._chan.ack_write_request:dest <- R0
	{
		getr r4, 2
		stw r4, sp[2]
	}
	{
		setd res[r4], r0
		add r0, r4, 3
	}
	{
		out res[r4], r0
		nop
	}
	{
		outct res[r4], 2
		ldc r1, 0
	}
	{
		mov r0, r4
		nop
	}
	bl __interface_wait_and_yield
	{
		in r0, res[r4]
		nop
	}
	{
		in r0, res[r4]
		nop
	}
	{
		chkct res[r4], 1
		nop
	}
	{
		freer res[r4]
		ldw r4, sp[2]
	}
	{
		nop
		retsp 4
	}
	# RETURN_REG_HOLDER
	.cc_bottom _i.i2c_slave_callback_if._chan.ack_write_request.function
	.set	_i.i2c_slave_callback_if._chan.ack_write_request.nstackwords,((_i.i2c_slave_callback_if._client_call_y.max.nstackwords $M ($D __interface_wait_and_yield.nstackwords ? __interface_wait_and_yield.nstackwords $: _i.i2c_slave_callback_if._client_call_y.max.nstackwords)) + 4)
	.globl	_i.i2c_slave_callback_if._chan.ack_write_request.nstackwords
	.weak	_i.i2c_slave_callback_if._chan.ack_write_request.nstackwords
	.set	_i.i2c_slave_callback_if._chan.ack_write_request.maxcores,($D __interface_wait_and_yield.maxcores ? __interface_wait_and_yield.maxcores $: _i.i2c_slave_callback_if._client_call_y.max.maxcores) $M 1
	.globl	_i.i2c_slave_callback_if._chan.ack_write_request.maxcores
	.weak	_i.i2c_slave_callback_if._chan.ack_write_request.maxcores
	.set	_i.i2c_slave_callback_if._chan.ack_write_request.maxtimers,($D __interface_wait_and_yield.maxtimers ? __interface_wait_and_yield.maxtimers $: _i.i2c_slave_callback_if._client_call_y.max.maxtimers) $M 0
	.globl	_i.i2c_slave_callback_if._chan.ack_write_request.maxtimers
	.weak	_i.i2c_slave_callback_if._chan.ack_write_request.maxtimers
	.set	_i.i2c_slave_callback_if._chan.ack_write_request.maxchanends,(1 + ($D __interface_wait_and_yield.maxchanends ? __interface_wait_and_yield.maxchanends $: _i.i2c_slave_callback_if._client_call_y.max.maxchanends)) $M 1
	.globl	_i.i2c_slave_callback_if._chan.ack_write_request.maxchanends
	.weak	_i.i2c_slave_callback_if._chan.ack_write_request.maxchanends
.Ltmp255:
	.size	_i.i2c_slave_callback_if._chan.ack_write_request, .Ltmp255-_i.i2c_slave_callback_if._chan.ack_write_request
	.cfi_endproc

	.weak	_i.i2c_slave_callback_if._chan.start_write_request
	.align	4
	.type	_i.i2c_slave_callback_if._chan.start_write_request,@function
	.cc_top _i.i2c_slave_callback_if._chan.start_write_request.function,_i.i2c_slave_callback_if._chan.start_write_request
_i.i2c_slave_callback_if._chan.start_write_request: # @_i.i2c_slave_callback_if._chan.start_write_request
	.cfi_startproc
	.issue_mode dual
# BB#0:                                 # %allocas
	{
		nop
		dualentsp 4
	}
.Ltmp256:
	.cfi_def_cfa_offset 16
.Ltmp257:
	.cfi_offset 15, 0
.Ltmp258:
	.cfi_offset 4, -8
	#DEBUG_VALUE: _i.i2c_slave_callback_if._chan.start_write_request:dest <- R0
	{
		getr r4, 2
		stw r4, sp[2]
	}
	{
		setd res[r4], r0
		add r0, r4, 2
	}
	{
		out res[r4], r0
		nop
	}
	{
		outct res[r4], 2
		ldc r1, 0
	}
	{
		mov r0, r4
		nop
	}
	bl __interface_wait_and_yield
	{
		in r0, res[r4]
		nop
	}
	{
		chkct res[r4], 1
		nop
	}
	{
		freer res[r4]
		ldw r4, sp[2]
	}
	{
		nop
		retsp 4
	}
	# RETURN_REG_HOLDER
	.cc_bottom _i.i2c_slave_callback_if._chan.start_write_request.function
	.set	_i.i2c_slave_callback_if._chan.start_write_request.nstackwords,((_i.i2c_slave_callback_if._client_call_y.max.nstackwords $M ($D __interface_wait_and_yield.nstackwords ? __interface_wait_and_yield.nstackwords $: _i.i2c_slave_callback_if._client_call_y.max.nstackwords)) + 4)
	.globl	_i.i2c_slave_callback_if._chan.start_write_request.nstackwords
	.weak	_i.i2c_slave_callback_if._chan.start_write_request.nstackwords
	.set	_i.i2c_slave_callback_if._chan.start_write_request.maxcores,($D __interface_wait_and_yield.maxcores ? __interface_wait_and_yield.maxcores $: _i.i2c_slave_callback_if._client_call_y.max.maxcores) $M 1
	.globl	_i.i2c_slave_callback_if._chan.start_write_request.maxcores
	.weak	_i.i2c_slave_callback_if._chan.start_write_request.maxcores
	.set	_i.i2c_slave_callback_if._chan.start_write_request.maxtimers,($D __interface_wait_and_yield.maxtimers ? __interface_wait_and_yield.maxtimers $: _i.i2c_slave_callback_if._client_call_y.max.maxtimers) $M 0
	.globl	_i.i2c_slave_callback_if._chan.start_write_request.maxtimers
	.weak	_i.i2c_slave_callback_if._chan.start_write_request.maxtimers
	.set	_i.i2c_slave_callback_if._chan.start_write_request.maxchanends,(1 + ($D __interface_wait_and_yield.maxchanends ? __interface_wait_and_yield.maxchanends $: _i.i2c_slave_callback_if._client_call_y.max.maxchanends)) $M 1
	.globl	_i.i2c_slave_callback_if._chan.start_write_request.maxchanends
	.weak	_i.i2c_slave_callback_if._chan.start_write_request.maxchanends
.Ltmp259:
	.size	_i.i2c_slave_callback_if._chan.start_write_request, .Ltmp259-_i.i2c_slave_callback_if._chan.start_write_request
	.cfi_endproc

	.weak	_i.i2c_slave_callback_if._chan.ack_read_request
	.align	4
	.type	_i.i2c_slave_callback_if._chan.ack_read_request,@function
	.cc_top _i.i2c_slave_callback_if._chan.ack_read_request.function,_i.i2c_slave_callback_if._chan.ack_read_request
_i.i2c_slave_callback_if._chan.ack_read_request: # @_i.i2c_slave_callback_if._chan.ack_read_request
	.cfi_startproc
	.issue_mode dual
# BB#0:                                 # %allocas
	{
		nop
		dualentsp 4
	}
.Ltmp260:
	.cfi_def_cfa_offset 16
.Ltmp261:
	.cfi_offset 15, 0
.Ltmp262:
	.cfi_offset 4, -8
	#DEBUG_VALUE: _i.i2c_slave_callback_if._chan.ack_read_request:dest <- R0
	{
		getr r4, 2
		stw r4, sp[2]
	}
	{
		setd res[r4], r0
		add r0, r4, 1
	}
	{
		out res[r4], r0
		nop
	}
	{
		outct res[r4], 2
		ldc r1, 0
	}
	{
		mov r0, r4
		nop
	}
	bl __interface_wait_and_yield
	{
		in r0, res[r4]
		nop
	}
	{
		in r0, res[r4]
		nop
	}
	{
		chkct res[r4], 1
		nop
	}
	{
		freer res[r4]
		ldw r4, sp[2]
	}
	{
		nop
		retsp 4
	}
	# RETURN_REG_HOLDER
	.cc_bottom _i.i2c_slave_callback_if._chan.ack_read_request.function
	.set	_i.i2c_slave_callback_if._chan.ack_read_request.nstackwords,((_i.i2c_slave_callback_if._client_call_y.max.nstackwords $M ($D __interface_wait_and_yield.nstackwords ? __interface_wait_and_yield.nstackwords $: _i.i2c_slave_callback_if._client_call_y.max.nstackwords)) + 4)
	.globl	_i.i2c_slave_callback_if._chan.ack_read_request.nstackwords
	.weak	_i.i2c_slave_callback_if._chan.ack_read_request.nstackwords
	.set	_i.i2c_slave_callback_if._chan.ack_read_request.maxcores,($D __interface_wait_and_yield.maxcores ? __interface_wait_and_yield.maxcores $: _i.i2c_slave_callback_if._client_call_y.max.maxcores) $M 1
	.globl	_i.i2c_slave_callback_if._chan.ack_read_request.maxcores
	.weak	_i.i2c_slave_callback_if._chan.ack_read_request.maxcores
	.set	_i.i2c_slave_callback_if._chan.ack_read_request.maxtimers,($D __interface_wait_and_yield.maxtimers ? __interface_wait_and_yield.maxtimers $: _i.i2c_slave_callback_if._client_call_y.max.maxtimers) $M 0
	.globl	_i.i2c_slave_callback_if._chan.ack_read_request.maxtimers
	.weak	_i.i2c_slave_callback_if._chan.ack_read_request.maxtimers
	.set	_i.i2c_slave_callback_if._chan.ack_read_request.maxchanends,(1 + ($D __interface_wait_and_yield.maxchanends ? __interface_wait_and_yield.maxchanends $: _i.i2c_slave_callback_if._client_call_y.max.maxchanends)) $M 1
	.globl	_i.i2c_slave_callback_if._chan.ack_read_request.maxchanends
	.weak	_i.i2c_slave_callback_if._chan.ack_read_request.maxchanends
.Ltmp263:
	.size	_i.i2c_slave_callback_if._chan.ack_read_request, .Ltmp263-_i.i2c_slave_callback_if._chan.ack_read_request
	.cfi_endproc

	.weak	_i.i2c_slave_callback_if._chan.start_read_request
	.align	4
	.type	_i.i2c_slave_callback_if._chan.start_read_request,@function
	.cc_top _i.i2c_slave_callback_if._chan.start_read_request.function,_i.i2c_slave_callback_if._chan.start_read_request
_i.i2c_slave_callback_if._chan.start_read_request: # @_i.i2c_slave_callback_if._chan.start_read_request
	.cfi_startproc
	.issue_mode dual
# BB#0:                                 # %allocas
	{
		nop
		dualentsp 4
	}
.Ltmp264:
	.cfi_def_cfa_offset 16
.Ltmp265:
	.cfi_offset 15, 0
.Ltmp266:
	.cfi_offset 4, -8
	#DEBUG_VALUE: _i.i2c_slave_callback_if._chan.start_read_request:dest <- R0
	{
		getr r4, 2
		stw r4, sp[2]
	}
	{
		setd res[r4], r0
		nop
	}
	{
		out res[r4], r4
		nop
	}
	{
		outct res[r4], 2
		ldc r1, 0
	}
	{
		mov r0, r4
		nop
	}
	bl __interface_wait_and_yield
	{
		in r0, res[r4]
		nop
	}
	{
		chkct res[r4], 1
		nop
	}
	{
		freer res[r4]
		ldw r4, sp[2]
	}
	{
		nop
		retsp 4
	}
	# RETURN_REG_HOLDER
	.cc_bottom _i.i2c_slave_callback_if._chan.start_read_request.function
	.set	_i.i2c_slave_callback_if._chan.start_read_request.nstackwords,((_i.i2c_slave_callback_if._client_call_y.max.nstackwords $M ($D __interface_wait_and_yield.nstackwords ? __interface_wait_and_yield.nstackwords $: _i.i2c_slave_callback_if._client_call_y.max.nstackwords)) + 4)
	.globl	_i.i2c_slave_callback_if._chan.start_read_request.nstackwords
	.weak	_i.i2c_slave_callback_if._chan.start_read_request.nstackwords
	.set	_i.i2c_slave_callback_if._chan.start_read_request.maxcores,($D __interface_wait_and_yield.maxcores ? __interface_wait_and_yield.maxcores $: _i.i2c_slave_callback_if._client_call_y.max.maxcores) $M 1
	.globl	_i.i2c_slave_callback_if._chan.start_read_request.maxcores
	.weak	_i.i2c_slave_callback_if._chan.start_read_request.maxcores
	.set	_i.i2c_slave_callback_if._chan.start_read_request.maxtimers,($D __interface_wait_and_yield.maxtimers ? __interface_wait_and_yield.maxtimers $: _i.i2c_slave_callback_if._client_call_y.max.maxtimers) $M 0
	.globl	_i.i2c_slave_callback_if._chan.start_read_request.maxtimers
	.weak	_i.i2c_slave_callback_if._chan.start_read_request.maxtimers
	.set	_i.i2c_slave_callback_if._chan.start_read_request.maxchanends,(1 + ($D __interface_wait_and_yield.maxchanends ? __interface_wait_and_yield.maxchanends $: _i.i2c_slave_callback_if._client_call_y.max.maxchanends)) $M 1
	.globl	_i.i2c_slave_callback_if._chan.start_read_request.maxchanends
	.weak	_i.i2c_slave_callback_if._chan.start_read_request.maxchanends
.Ltmp267:
	.size	_i.i2c_slave_callback_if._chan.start_read_request, .Ltmp267-_i.i2c_slave_callback_if._chan.start_read_request
	.cfi_endproc

	.weak	_i.i2c_slave_callback_if._chan_yield.stop_bit
	.align	4
	.type	_i.i2c_slave_callback_if._chan_yield.stop_bit,@function
	.cc_top _i.i2c_slave_callback_if._chan_yield.stop_bit.function,_i.i2c_slave_callback_if._chan_yield.stop_bit
_i.i2c_slave_callback_if._chan_yield.stop_bit: # @_i.i2c_slave_callback_if._chan_yield.stop_bit
	.cfi_startproc
	.issue_mode dual
# BB#0:                                 # %allocas
	{
		nop
		dualentsp 4
	}
.Ltmp268:
	.cfi_def_cfa_offset 16
.Ltmp269:
	.cfi_offset 15, 0
	std r5, r4, sp[1]               # 4-byte Folded Spill
.Ltmp270:
	.cfi_offset 4, -8
.Ltmp271:
	.cfi_offset 5, -4
	#DEBUG_VALUE: _i.i2c_slave_callback_if._chan_yield.stop_bit:s <- R0
	{
		getr r4, 2
		ldw r1, r0[0]
	}
	{
		setd res[r4], r1
		add r1, r4, 8
	}
	{
		out res[r4], r1
		nop
	}
	{
		outct res[r4], 2
		ldw r5, r0[1]
	}
	{
		mov r0, r4
		mov r1, r5
	}
	bl __interface_wait_and_yield
	{
		ldc r1, 0
		mov r0, r4
	}
	{
		mov r2, r5
		nop
	}
	bl __interface_client_call_y
	{
		chkct res[r4], 1
		nop
	}
	{
		freer res[r4]
		nop
	}
	ldd r5, r4, sp[1]               # 4-byte Folded Reload
	{
		nop
		retsp 4
	}
	# RETURN_REG_HOLDER
	.cc_bottom _i.i2c_slave_callback_if._chan_yield.stop_bit.function
	.set	_i.i2c_slave_callback_if._chan_yield.stop_bit.nstackwords,((($D __interface_wait_and_yield.nstackwords ? __interface_wait_and_yield.nstackwords $: _i.i2c_slave_callback_if._client_call_y.max.nstackwords) $M _i.i2c_slave_callback_if._client_call_y.max.nstackwords $M ($D __interface_client_call_y.nstackwords ? __interface_client_call_y.nstackwords $: _i.i2c_slave_callback_if._client_call_y.max.nstackwords)) + 4)
	.globl	_i.i2c_slave_callback_if._chan_yield.stop_bit.nstackwords
	.weak	_i.i2c_slave_callback_if._chan_yield.stop_bit.nstackwords
	.set	_i.i2c_slave_callback_if._chan_yield.stop_bit.maxcores,($D __interface_client_call_y.maxcores ? __interface_client_call_y.maxcores $: _i.i2c_slave_callback_if._client_call_y.max.maxcores) $M ($D __interface_wait_and_yield.maxcores ? __interface_wait_and_yield.maxcores $: _i.i2c_slave_callback_if._client_call_y.max.maxcores) $M 1
	.globl	_i.i2c_slave_callback_if._chan_yield.stop_bit.maxcores
	.weak	_i.i2c_slave_callback_if._chan_yield.stop_bit.maxcores
	.set	_i.i2c_slave_callback_if._chan_yield.stop_bit.maxtimers,($D __interface_client_call_y.maxtimers ? __interface_client_call_y.maxtimers $: _i.i2c_slave_callback_if._client_call_y.max.maxtimers) $M ($D __interface_wait_and_yield.maxtimers ? __interface_wait_and_yield.maxtimers $: _i.i2c_slave_callback_if._client_call_y.max.maxtimers) $M 0
	.globl	_i.i2c_slave_callback_if._chan_yield.stop_bit.maxtimers
	.weak	_i.i2c_slave_callback_if._chan_yield.stop_bit.maxtimers
	.set	_i.i2c_slave_callback_if._chan_yield.stop_bit.maxchanends,(1 + ($D __interface_client_call_y.maxchanends ? __interface_client_call_y.maxchanends $: _i.i2c_slave_callback_if._client_call_y.max.maxchanends)) $M (1 + ($D __interface_wait_and_yield.maxchanends ? __interface_wait_and_yield.maxchanends $: _i.i2c_slave_callback_if._client_call_y.max.maxchanends)) $M 1
	.globl	_i.i2c_slave_callback_if._chan_yield.stop_bit.maxchanends
	.weak	_i.i2c_slave_callback_if._chan_yield.stop_bit.maxchanends
.Ltmp272:
	.size	_i.i2c_slave_callback_if._chan_yield.stop_bit, .Ltmp272-_i.i2c_slave_callback_if._chan_yield.stop_bit
	.cfi_endproc

	.weak	_i.i2c_slave_callback_if._chan_yield.master_sent_data
	.align	4
	.type	_i.i2c_slave_callback_if._chan_yield.master_sent_data,@function
	.cc_top _i.i2c_slave_callback_if._chan_yield.master_sent_data.function,_i.i2c_slave_callback_if._chan_yield.master_sent_data
_i.i2c_slave_callback_if._chan_yield.master_sent_data: # @_i.i2c_slave_callback_if._chan_yield.master_sent_data
	.cfi_startproc
	.issue_mode dual
# BB#0:                                 # %allocas
	{
		nop
		dualentsp 6
	}
.Ltmp273:
	.cfi_def_cfa_offset 24
.Ltmp274:
	.cfi_offset 15, 0
	std r5, r4, sp[1]               # 4-byte Folded Spill
.Ltmp275:
	.cfi_offset 4, -16
.Ltmp276:
	.cfi_offset 5, -12
.Ltmp277:
	.cfi_offset 6, -8
	#DEBUG_VALUE: _i.i2c_slave_callback_if._chan_yield.master_sent_data:s <- R0
	#DEBUG_VALUE: _i.i2c_slave_callback_if._chan_yield.master_sent_data:param1 <- R1
	#DEBUG_VALUE: _i.i2c_slave_callback_if._chan_yield.master_sent_data:param1 <- R4
	{
		mov r4, r1
		stw r6, sp[4]
	}
	{
		getr r5, 2
		ldw r1, r0[0]
	}
	{
		setd res[r5], r1
		add r1, r5, 7
	}
	{
		out res[r5], r1
		nop
	}
	{
		outct res[r5], 2
		ldw r6, r0[1]
	}
	{
		mov r0, r5
		mov r1, r6
	}
	bl __interface_wait_and_yield
	{
		chkct res[r5], 1
		nop
	}
	{
		outt res[r5], r4
		nop
	}
	{
		outct res[r5], 2
		ldc r1, 0
	}
	{
		mov r0, r5
		mov r2, r6
	}
	bl __interface_client_call_y
	{
		in r0, res[r5]
		nop
	}
	{
		chkct res[r5], 1
		nop
	}
	{
		freer res[r5]
		ldw r6, sp[4]
	}
	ldd r5, r4, sp[1]               # 4-byte Folded Reload
	{
		nop
		retsp 6
	}
	# RETURN_REG_HOLDER
	.cc_bottom _i.i2c_slave_callback_if._chan_yield.master_sent_data.function
	.set	_i.i2c_slave_callback_if._chan_yield.master_sent_data.nstackwords,((($D __interface_wait_and_yield.nstackwords ? __interface_wait_and_yield.nstackwords $: _i.i2c_slave_callback_if._client_call_y.max.nstackwords) $M _i.i2c_slave_callback_if._client_call_y.max.nstackwords $M ($D __interface_client_call_y.nstackwords ? __interface_client_call_y.nstackwords $: _i.i2c_slave_callback_if._client_call_y.max.nstackwords)) + 6)
	.globl	_i.i2c_slave_callback_if._chan_yield.master_sent_data.nstackwords
	.weak	_i.i2c_slave_callback_if._chan_yield.master_sent_data.nstackwords
	.set	_i.i2c_slave_callback_if._chan_yield.master_sent_data.maxcores,($D __interface_client_call_y.maxcores ? __interface_client_call_y.maxcores $: _i.i2c_slave_callback_if._client_call_y.max.maxcores) $M ($D __interface_wait_and_yield.maxcores ? __interface_wait_and_yield.maxcores $: _i.i2c_slave_callback_if._client_call_y.max.maxcores) $M 1
	.globl	_i.i2c_slave_callback_if._chan_yield.master_sent_data.maxcores
	.weak	_i.i2c_slave_callback_if._chan_yield.master_sent_data.maxcores
	.set	_i.i2c_slave_callback_if._chan_yield.master_sent_data.maxtimers,($D __interface_client_call_y.maxtimers ? __interface_client_call_y.maxtimers $: _i.i2c_slave_callback_if._client_call_y.max.maxtimers) $M ($D __interface_wait_and_yield.maxtimers ? __interface_wait_and_yield.maxtimers $: _i.i2c_slave_callback_if._client_call_y.max.maxtimers) $M 0
	.globl	_i.i2c_slave_callback_if._chan_yield.master_sent_data.maxtimers
	.weak	_i.i2c_slave_callback_if._chan_yield.master_sent_data.maxtimers
	.set	_i.i2c_slave_callback_if._chan_yield.master_sent_data.maxchanends,(1 + ($D __interface_client_call_y.maxchanends ? __interface_client_call_y.maxchanends $: _i.i2c_slave_callback_if._client_call_y.max.maxchanends)) $M (1 + ($D __interface_wait_and_yield.maxchanends ? __interface_wait_and_yield.maxchanends $: _i.i2c_slave_callback_if._client_call_y.max.maxchanends)) $M 1
	.globl	_i.i2c_slave_callback_if._chan_yield.master_sent_data.maxchanends
	.weak	_i.i2c_slave_callback_if._chan_yield.master_sent_data.maxchanends
.Ltmp278:
	.size	_i.i2c_slave_callback_if._chan_yield.master_sent_data, .Ltmp278-_i.i2c_slave_callback_if._chan_yield.master_sent_data
	.cfi_endproc

	.weak	_i.i2c_slave_callback_if._chan_yield.start_master_write
	.align	4
	.type	_i.i2c_slave_callback_if._chan_yield.start_master_write,@function
	.cc_top _i.i2c_slave_callback_if._chan_yield.start_master_write.function,_i.i2c_slave_callback_if._chan_yield.start_master_write
_i.i2c_slave_callback_if._chan_yield.start_master_write: # @_i.i2c_slave_callback_if._chan_yield.start_master_write
	.cfi_startproc
	.issue_mode dual
# BB#0:                                 # %allocas
	{
		nop
		dualentsp 4
	}
.Ltmp279:
	.cfi_def_cfa_offset 16
.Ltmp280:
	.cfi_offset 15, 0
	std r5, r4, sp[1]               # 4-byte Folded Spill
.Ltmp281:
	.cfi_offset 4, -8
.Ltmp282:
	.cfi_offset 5, -4
	#DEBUG_VALUE: _i.i2c_slave_callback_if._chan_yield.start_master_write:s <- R0
	{
		getr r4, 2
		ldw r1, r0[0]
	}
	{
		setd res[r4], r1
		add r1, r4, 6
	}
	{
		out res[r4], r1
		nop
	}
	{
		outct res[r4], 2
		ldw r5, r0[1]
	}
	{
		mov r0, r4
		mov r1, r5
	}
	bl __interface_wait_and_yield
	{
		ldc r1, 0
		mov r0, r4
	}
	{
		mov r2, r5
		nop
	}
	bl __interface_client_call_y
	{
		chkct res[r4], 1
		nop
	}
	{
		freer res[r4]
		nop
	}
	ldd r5, r4, sp[1]               # 4-byte Folded Reload
	{
		nop
		retsp 4
	}
	# RETURN_REG_HOLDER
	.cc_bottom _i.i2c_slave_callback_if._chan_yield.start_master_write.function
	.set	_i.i2c_slave_callback_if._chan_yield.start_master_write.nstackwords,((($D __interface_wait_and_yield.nstackwords ? __interface_wait_and_yield.nstackwords $: _i.i2c_slave_callback_if._client_call_y.max.nstackwords) $M _i.i2c_slave_callback_if._client_call_y.max.nstackwords $M ($D __interface_client_call_y.nstackwords ? __interface_client_call_y.nstackwords $: _i.i2c_slave_callback_if._client_call_y.max.nstackwords)) + 4)
	.globl	_i.i2c_slave_callback_if._chan_yield.start_master_write.nstackwords
	.weak	_i.i2c_slave_callback_if._chan_yield.start_master_write.nstackwords
	.set	_i.i2c_slave_callback_if._chan_yield.start_master_write.maxcores,($D __interface_client_call_y.maxcores ? __interface_client_call_y.maxcores $: _i.i2c_slave_callback_if._client_call_y.max.maxcores) $M ($D __interface_wait_and_yield.maxcores ? __interface_wait_and_yield.maxcores $: _i.i2c_slave_callback_if._client_call_y.max.maxcores) $M 1
	.globl	_i.i2c_slave_callback_if._chan_yield.start_master_write.maxcores
	.weak	_i.i2c_slave_callback_if._chan_yield.start_master_write.maxcores
	.set	_i.i2c_slave_callback_if._chan_yield.start_master_write.maxtimers,($D __interface_client_call_y.maxtimers ? __interface_client_call_y.maxtimers $: _i.i2c_slave_callback_if._client_call_y.max.maxtimers) $M ($D __interface_wait_and_yield.maxtimers ? __interface_wait_and_yield.maxtimers $: _i.i2c_slave_callback_if._client_call_y.max.maxtimers) $M 0
	.globl	_i.i2c_slave_callback_if._chan_yield.start_master_write.maxtimers
	.weak	_i.i2c_slave_callback_if._chan_yield.start_master_write.maxtimers
	.set	_i.i2c_slave_callback_if._chan_yield.start_master_write.maxchanends,(1 + ($D __interface_client_call_y.maxchanends ? __interface_client_call_y.maxchanends $: _i.i2c_slave_callback_if._client_call_y.max.maxchanends)) $M (1 + ($D __interface_wait_and_yield.maxchanends ? __interface_wait_and_yield.maxchanends $: _i.i2c_slave_callback_if._client_call_y.max.maxchanends)) $M 1
	.globl	_i.i2c_slave_callback_if._chan_yield.start_master_write.maxchanends
	.weak	_i.i2c_slave_callback_if._chan_yield.start_master_write.maxchanends
.Ltmp283:
	.size	_i.i2c_slave_callback_if._chan_yield.start_master_write, .Ltmp283-_i.i2c_slave_callback_if._chan_yield.start_master_write
	.cfi_endproc

	.weak	_i.i2c_slave_callback_if._chan_yield.master_requires_data
	.align	4
	.type	_i.i2c_slave_callback_if._chan_yield.master_requires_data,@function
	.cc_top _i.i2c_slave_callback_if._chan_yield.master_requires_data.function,_i.i2c_slave_callback_if._chan_yield.master_requires_data
_i.i2c_slave_callback_if._chan_yield.master_requires_data: # @_i.i2c_slave_callback_if._chan_yield.master_requires_data
	.cfi_startproc
	.issue_mode dual
# BB#0:                                 # %allocas
	{
		nop
		dualentsp 4
	}
.Ltmp284:
	.cfi_def_cfa_offset 16
.Ltmp285:
	.cfi_offset 15, 0
	std r5, r4, sp[1]               # 4-byte Folded Spill
.Ltmp286:
	.cfi_offset 4, -8
.Ltmp287:
	.cfi_offset 5, -4
	#DEBUG_VALUE: _i.i2c_slave_callback_if._chan_yield.master_requires_data:s <- R0
	{
		getr r4, 2
		ldw r1, r0[0]
	}
	{
		setd res[r4], r1
		add r1, r4, 5
	}
	{
		out res[r4], r1
		nop
	}
	{
		outct res[r4], 2
		ldw r5, r0[1]
	}
	{
		mov r0, r4
		mov r1, r5
	}
	bl __interface_wait_and_yield
	{
		ldc r1, 0
		mov r0, r4
	}
	{
		mov r2, r5
		nop
	}
	bl __interface_client_call_y
	{
		int r0, res[r4]
		nop
	}
	{
		chkct res[r4], 1
		nop
	}
	{
		freer res[r4]
		nop
	}
	ldd r5, r4, sp[1]               # 4-byte Folded Reload
	{
		nop
		retsp 4
	}
	# RETURN_REG_HOLDER
	.cc_bottom _i.i2c_slave_callback_if._chan_yield.master_requires_data.function
	.set	_i.i2c_slave_callback_if._chan_yield.master_requires_data.nstackwords,((($D __interface_wait_and_yield.nstackwords ? __interface_wait_and_yield.nstackwords $: _i.i2c_slave_callback_if._client_call_y.max.nstackwords) $M _i.i2c_slave_callback_if._client_call_y.max.nstackwords $M ($D __interface_client_call_y.nstackwords ? __interface_client_call_y.nstackwords $: _i.i2c_slave_callback_if._client_call_y.max.nstackwords)) + 4)
	.globl	_i.i2c_slave_callback_if._chan_yield.master_requires_data.nstackwords
	.weak	_i.i2c_slave_callback_if._chan_yield.master_requires_data.nstackwords
	.set	_i.i2c_slave_callback_if._chan_yield.master_requires_data.maxcores,($D __interface_client_call_y.maxcores ? __interface_client_call_y.maxcores $: _i.i2c_slave_callback_if._client_call_y.max.maxcores) $M ($D __interface_wait_and_yield.maxcores ? __interface_wait_and_yield.maxcores $: _i.i2c_slave_callback_if._client_call_y.max.maxcores) $M 1
	.globl	_i.i2c_slave_callback_if._chan_yield.master_requires_data.maxcores
	.weak	_i.i2c_slave_callback_if._chan_yield.master_requires_data.maxcores
	.set	_i.i2c_slave_callback_if._chan_yield.master_requires_data.maxtimers,($D __interface_client_call_y.maxtimers ? __interface_client_call_y.maxtimers $: _i.i2c_slave_callback_if._client_call_y.max.maxtimers) $M ($D __interface_wait_and_yield.maxtimers ? __interface_wait_and_yield.maxtimers $: _i.i2c_slave_callback_if._client_call_y.max.maxtimers) $M 0
	.globl	_i.i2c_slave_callback_if._chan_yield.master_requires_data.maxtimers
	.weak	_i.i2c_slave_callback_if._chan_yield.master_requires_data.maxtimers
	.set	_i.i2c_slave_callback_if._chan_yield.master_requires_data.maxchanends,(1 + ($D __interface_client_call_y.maxchanends ? __interface_client_call_y.maxchanends $: _i.i2c_slave_callback_if._client_call_y.max.maxchanends)) $M (1 + ($D __interface_wait_and_yield.maxchanends ? __interface_wait_and_yield.maxchanends $: _i.i2c_slave_callback_if._client_call_y.max.maxchanends)) $M 1
	.globl	_i.i2c_slave_callback_if._chan_yield.master_requires_data.maxchanends
	.weak	_i.i2c_slave_callback_if._chan_yield.master_requires_data.maxchanends
.Ltmp288:
	.size	_i.i2c_slave_callback_if._chan_yield.master_requires_data, .Ltmp288-_i.i2c_slave_callback_if._chan_yield.master_requires_data
	.cfi_endproc

	.weak	_i.i2c_slave_callback_if._chan_yield.start_master_read
	.align	4
	.type	_i.i2c_slave_callback_if._chan_yield.start_master_read,@function
	.cc_top _i.i2c_slave_callback_if._chan_yield.start_master_read.function,_i.i2c_slave_callback_if._chan_yield.start_master_read
_i.i2c_slave_callback_if._chan_yield.start_master_read: # @_i.i2c_slave_callback_if._chan_yield.start_master_read
	.cfi_startproc
	.issue_mode dual
# BB#0:                                 # %allocas
	{
		nop
		dualentsp 4
	}
.Ltmp289:
	.cfi_def_cfa_offset 16
.Ltmp290:
	.cfi_offset 15, 0
	std r5, r4, sp[1]               # 4-byte Folded Spill
.Ltmp291:
	.cfi_offset 4, -8
.Ltmp292:
	.cfi_offset 5, -4
	#DEBUG_VALUE: _i.i2c_slave_callback_if._chan_yield.start_master_read:s <- R0
	{
		getr r4, 2
		ldw r1, r0[0]
	}
	{
		setd res[r4], r1
		add r1, r4, 4
	}
	{
		out res[r4], r1
		nop
	}
	{
		outct res[r4], 2
		ldw r5, r0[1]
	}
	{
		mov r0, r4
		mov r1, r5
	}
	bl __interface_wait_and_yield
	{
		ldc r1, 0
		mov r0, r4
	}
	{
		mov r2, r5
		nop
	}
	bl __interface_client_call_y
	{
		chkct res[r4], 1
		nop
	}
	{
		freer res[r4]
		nop
	}
	ldd r5, r4, sp[1]               # 4-byte Folded Reload
	{
		nop
		retsp 4
	}
	# RETURN_REG_HOLDER
	.cc_bottom _i.i2c_slave_callback_if._chan_yield.start_master_read.function
	.set	_i.i2c_slave_callback_if._chan_yield.start_master_read.nstackwords,((($D __interface_wait_and_yield.nstackwords ? __interface_wait_and_yield.nstackwords $: _i.i2c_slave_callback_if._client_call_y.max.nstackwords) $M _i.i2c_slave_callback_if._client_call_y.max.nstackwords $M ($D __interface_client_call_y.nstackwords ? __interface_client_call_y.nstackwords $: _i.i2c_slave_callback_if._client_call_y.max.nstackwords)) + 4)
	.globl	_i.i2c_slave_callback_if._chan_yield.start_master_read.nstackwords
	.weak	_i.i2c_slave_callback_if._chan_yield.start_master_read.nstackwords
	.set	_i.i2c_slave_callback_if._chan_yield.start_master_read.maxcores,($D __interface_client_call_y.maxcores ? __interface_client_call_y.maxcores $: _i.i2c_slave_callback_if._client_call_y.max.maxcores) $M ($D __interface_wait_and_yield.maxcores ? __interface_wait_and_yield.maxcores $: _i.i2c_slave_callback_if._client_call_y.max.maxcores) $M 1
	.globl	_i.i2c_slave_callback_if._chan_yield.start_master_read.maxcores
	.weak	_i.i2c_slave_callback_if._chan_yield.start_master_read.maxcores
	.set	_i.i2c_slave_callback_if._chan_yield.start_master_read.maxtimers,($D __interface_client_call_y.maxtimers ? __interface_client_call_y.maxtimers $: _i.i2c_slave_callback_if._client_call_y.max.maxtimers) $M ($D __interface_wait_and_yield.maxtimers ? __interface_wait_and_yield.maxtimers $: _i.i2c_slave_callback_if._client_call_y.max.maxtimers) $M 0
	.globl	_i.i2c_slave_callback_if._chan_yield.start_master_read.maxtimers
	.weak	_i.i2c_slave_callback_if._chan_yield.start_master_read.maxtimers
	.set	_i.i2c_slave_callback_if._chan_yield.start_master_read.maxchanends,(1 + ($D __interface_client_call_y.maxchanends ? __interface_client_call_y.maxchanends $: _i.i2c_slave_callback_if._client_call_y.max.maxchanends)) $M (1 + ($D __interface_wait_and_yield.maxchanends ? __interface_wait_and_yield.maxchanends $: _i.i2c_slave_callback_if._client_call_y.max.maxchanends)) $M 1
	.globl	_i.i2c_slave_callback_if._chan_yield.start_master_read.maxchanends
	.weak	_i.i2c_slave_callback_if._chan_yield.start_master_read.maxchanends
.Ltmp293:
	.size	_i.i2c_slave_callback_if._chan_yield.start_master_read, .Ltmp293-_i.i2c_slave_callback_if._chan_yield.start_master_read
	.cfi_endproc

	.weak	_i.i2c_slave_callback_if._chan_yield.ack_write_request
	.align	4
	.type	_i.i2c_slave_callback_if._chan_yield.ack_write_request,@function
	.cc_top _i.i2c_slave_callback_if._chan_yield.ack_write_request.function,_i.i2c_slave_callback_if._chan_yield.ack_write_request
_i.i2c_slave_callback_if._chan_yield.ack_write_request: # @_i.i2c_slave_callback_if._chan_yield.ack_write_request
	.cfi_startproc
	.issue_mode dual
# BB#0:                                 # %allocas
	{
		nop
		dualentsp 4
	}
.Ltmp294:
	.cfi_def_cfa_offset 16
.Ltmp295:
	.cfi_offset 15, 0
	std r5, r4, sp[1]               # 4-byte Folded Spill
.Ltmp296:
	.cfi_offset 4, -8
.Ltmp297:
	.cfi_offset 5, -4
	#DEBUG_VALUE: _i.i2c_slave_callback_if._chan_yield.ack_write_request:s <- R0
	{
		getr r4, 2
		ldw r1, r0[0]
	}
	{
		setd res[r4], r1
		add r1, r4, 3
	}
	{
		out res[r4], r1
		nop
	}
	{
		outct res[r4], 2
		ldw r5, r0[1]
	}
	{
		mov r0, r4
		mov r1, r5
	}
	bl __interface_wait_and_yield
	{
		ldc r1, 0
		mov r0, r4
	}
	{
		mov r2, r5
		nop
	}
	bl __interface_client_call_y
	{
		in r0, res[r4]
		nop
	}
	{
		chkct res[r4], 1
		nop
	}
	{
		freer res[r4]
		nop
	}
	ldd r5, r4, sp[1]               # 4-byte Folded Reload
	{
		nop
		retsp 4
	}
	# RETURN_REG_HOLDER
	.cc_bottom _i.i2c_slave_callback_if._chan_yield.ack_write_request.function
	.set	_i.i2c_slave_callback_if._chan_yield.ack_write_request.nstackwords,((($D __interface_wait_and_yield.nstackwords ? __interface_wait_and_yield.nstackwords $: _i.i2c_slave_callback_if._client_call_y.max.nstackwords) $M _i.i2c_slave_callback_if._client_call_y.max.nstackwords $M ($D __interface_client_call_y.nstackwords ? __interface_client_call_y.nstackwords $: _i.i2c_slave_callback_if._client_call_y.max.nstackwords)) + 4)
	.globl	_i.i2c_slave_callback_if._chan_yield.ack_write_request.nstackwords
	.weak	_i.i2c_slave_callback_if._chan_yield.ack_write_request.nstackwords
	.set	_i.i2c_slave_callback_if._chan_yield.ack_write_request.maxcores,($D __interface_client_call_y.maxcores ? __interface_client_call_y.maxcores $: _i.i2c_slave_callback_if._client_call_y.max.maxcores) $M ($D __interface_wait_and_yield.maxcores ? __interface_wait_and_yield.maxcores $: _i.i2c_slave_callback_if._client_call_y.max.maxcores) $M 1
	.globl	_i.i2c_slave_callback_if._chan_yield.ack_write_request.maxcores
	.weak	_i.i2c_slave_callback_if._chan_yield.ack_write_request.maxcores
	.set	_i.i2c_slave_callback_if._chan_yield.ack_write_request.maxtimers,($D __interface_client_call_y.maxtimers ? __interface_client_call_y.maxtimers $: _i.i2c_slave_callback_if._client_call_y.max.maxtimers) $M ($D __interface_wait_and_yield.maxtimers ? __interface_wait_and_yield.maxtimers $: _i.i2c_slave_callback_if._client_call_y.max.maxtimers) $M 0
	.globl	_i.i2c_slave_callback_if._chan_yield.ack_write_request.maxtimers
	.weak	_i.i2c_slave_callback_if._chan_yield.ack_write_request.maxtimers
	.set	_i.i2c_slave_callback_if._chan_yield.ack_write_request.maxchanends,(1 + ($D __interface_client_call_y.maxchanends ? __interface_client_call_y.maxchanends $: _i.i2c_slave_callback_if._client_call_y.max.maxchanends)) $M (1 + ($D __interface_wait_and_yield.maxchanends ? __interface_wait_and_yield.maxchanends $: _i.i2c_slave_callback_if._client_call_y.max.maxchanends)) $M 1
	.globl	_i.i2c_slave_callback_if._chan_yield.ack_write_request.maxchanends
	.weak	_i.i2c_slave_callback_if._chan_yield.ack_write_request.maxchanends
.Ltmp298:
	.size	_i.i2c_slave_callback_if._chan_yield.ack_write_request, .Ltmp298-_i.i2c_slave_callback_if._chan_yield.ack_write_request
	.cfi_endproc

	.weak	_i.i2c_slave_callback_if._chan_yield.start_write_request
	.align	4
	.type	_i.i2c_slave_callback_if._chan_yield.start_write_request,@function
	.cc_top _i.i2c_slave_callback_if._chan_yield.start_write_request.function,_i.i2c_slave_callback_if._chan_yield.start_write_request
_i.i2c_slave_callback_if._chan_yield.start_write_request: # @_i.i2c_slave_callback_if._chan_yield.start_write_request
	.cfi_startproc
	.issue_mode dual
# BB#0:                                 # %allocas
	{
		nop
		dualentsp 4
	}
.Ltmp299:
	.cfi_def_cfa_offset 16
.Ltmp300:
	.cfi_offset 15, 0
	std r5, r4, sp[1]               # 4-byte Folded Spill
.Ltmp301:
	.cfi_offset 4, -8
.Ltmp302:
	.cfi_offset 5, -4
	#DEBUG_VALUE: _i.i2c_slave_callback_if._chan_yield.start_write_request:s <- R0
	{
		getr r4, 2
		ldw r1, r0[0]
	}
	{
		setd res[r4], r1
		add r1, r4, 2
	}
	{
		out res[r4], r1
		nop
	}
	{
		outct res[r4], 2
		ldw r5, r0[1]
	}
	{
		mov r0, r4
		mov r1, r5
	}
	bl __interface_wait_and_yield
	{
		ldc r1, 0
		mov r0, r4
	}
	{
		mov r2, r5
		nop
	}
	bl __interface_client_call_y
	{
		chkct res[r4], 1
		nop
	}
	{
		freer res[r4]
		nop
	}
	ldd r5, r4, sp[1]               # 4-byte Folded Reload
	{
		nop
		retsp 4
	}
	# RETURN_REG_HOLDER
	.cc_bottom _i.i2c_slave_callback_if._chan_yield.start_write_request.function
	.set	_i.i2c_slave_callback_if._chan_yield.start_write_request.nstackwords,((($D __interface_wait_and_yield.nstackwords ? __interface_wait_and_yield.nstackwords $: _i.i2c_slave_callback_if._client_call_y.max.nstackwords) $M _i.i2c_slave_callback_if._client_call_y.max.nstackwords $M ($D __interface_client_call_y.nstackwords ? __interface_client_call_y.nstackwords $: _i.i2c_slave_callback_if._client_call_y.max.nstackwords)) + 4)
	.globl	_i.i2c_slave_callback_if._chan_yield.start_write_request.nstackwords
	.weak	_i.i2c_slave_callback_if._chan_yield.start_write_request.nstackwords
	.set	_i.i2c_slave_callback_if._chan_yield.start_write_request.maxcores,($D __interface_client_call_y.maxcores ? __interface_client_call_y.maxcores $: _i.i2c_slave_callback_if._client_call_y.max.maxcores) $M ($D __interface_wait_and_yield.maxcores ? __interface_wait_and_yield.maxcores $: _i.i2c_slave_callback_if._client_call_y.max.maxcores) $M 1
	.globl	_i.i2c_slave_callback_if._chan_yield.start_write_request.maxcores
	.weak	_i.i2c_slave_callback_if._chan_yield.start_write_request.maxcores
	.set	_i.i2c_slave_callback_if._chan_yield.start_write_request.maxtimers,($D __interface_client_call_y.maxtimers ? __interface_client_call_y.maxtimers $: _i.i2c_slave_callback_if._client_call_y.max.maxtimers) $M ($D __interface_wait_and_yield.maxtimers ? __interface_wait_and_yield.maxtimers $: _i.i2c_slave_callback_if._client_call_y.max.maxtimers) $M 0
	.globl	_i.i2c_slave_callback_if._chan_yield.start_write_request.maxtimers
	.weak	_i.i2c_slave_callback_if._chan_yield.start_write_request.maxtimers
	.set	_i.i2c_slave_callback_if._chan_yield.start_write_request.maxchanends,(1 + ($D __interface_client_call_y.maxchanends ? __interface_client_call_y.maxchanends $: _i.i2c_slave_callback_if._client_call_y.max.maxchanends)) $M (1 + ($D __interface_wait_and_yield.maxchanends ? __interface_wait_and_yield.maxchanends $: _i.i2c_slave_callback_if._client_call_y.max.maxchanends)) $M 1
	.globl	_i.i2c_slave_callback_if._chan_yield.start_write_request.maxchanends
	.weak	_i.i2c_slave_callback_if._chan_yield.start_write_request.maxchanends
.Ltmp303:
	.size	_i.i2c_slave_callback_if._chan_yield.start_write_request, .Ltmp303-_i.i2c_slave_callback_if._chan_yield.start_write_request
	.cfi_endproc

	.weak	_i.i2c_slave_callback_if._chan_yield.ack_read_request
	.align	4
	.type	_i.i2c_slave_callback_if._chan_yield.ack_read_request,@function
	.cc_top _i.i2c_slave_callback_if._chan_yield.ack_read_request.function,_i.i2c_slave_callback_if._chan_yield.ack_read_request
_i.i2c_slave_callback_if._chan_yield.ack_read_request: # @_i.i2c_slave_callback_if._chan_yield.ack_read_request
	.cfi_startproc
	.issue_mode dual
# BB#0:                                 # %allocas
	{
		nop
		dualentsp 4
	}
.Ltmp304:
	.cfi_def_cfa_offset 16
.Ltmp305:
	.cfi_offset 15, 0
	std r5, r4, sp[1]               # 4-byte Folded Spill
.Ltmp306:
	.cfi_offset 4, -8
.Ltmp307:
	.cfi_offset 5, -4
	#DEBUG_VALUE: _i.i2c_slave_callback_if._chan_yield.ack_read_request:s <- R0
	{
		getr r4, 2
		ldw r1, r0[0]
	}
	{
		setd res[r4], r1
		add r1, r4, 1
	}
	{
		out res[r4], r1
		nop
	}
	{
		outct res[r4], 2
		ldw r5, r0[1]
	}
	{
		mov r0, r4
		mov r1, r5
	}
	bl __interface_wait_and_yield
	{
		ldc r1, 0
		mov r0, r4
	}
	{
		mov r2, r5
		nop
	}
	bl __interface_client_call_y
	{
		in r0, res[r4]
		nop
	}
	{
		chkct res[r4], 1
		nop
	}
	{
		freer res[r4]
		nop
	}
	ldd r5, r4, sp[1]               # 4-byte Folded Reload
	{
		nop
		retsp 4
	}
	# RETURN_REG_HOLDER
	.cc_bottom _i.i2c_slave_callback_if._chan_yield.ack_read_request.function
	.set	_i.i2c_slave_callback_if._chan_yield.ack_read_request.nstackwords,((($D __interface_wait_and_yield.nstackwords ? __interface_wait_and_yield.nstackwords $: _i.i2c_slave_callback_if._client_call_y.max.nstackwords) $M _i.i2c_slave_callback_if._client_call_y.max.nstackwords $M ($D __interface_client_call_y.nstackwords ? __interface_client_call_y.nstackwords $: _i.i2c_slave_callback_if._client_call_y.max.nstackwords)) + 4)
	.globl	_i.i2c_slave_callback_if._chan_yield.ack_read_request.nstackwords
	.weak	_i.i2c_slave_callback_if._chan_yield.ack_read_request.nstackwords
	.set	_i.i2c_slave_callback_if._chan_yield.ack_read_request.maxcores,($D __interface_client_call_y.maxcores ? __interface_client_call_y.maxcores $: _i.i2c_slave_callback_if._client_call_y.max.maxcores) $M ($D __interface_wait_and_yield.maxcores ? __interface_wait_and_yield.maxcores $: _i.i2c_slave_callback_if._client_call_y.max.maxcores) $M 1
	.globl	_i.i2c_slave_callback_if._chan_yield.ack_read_request.maxcores
	.weak	_i.i2c_slave_callback_if._chan_yield.ack_read_request.maxcores
	.set	_i.i2c_slave_callback_if._chan_yield.ack_read_request.maxtimers,($D __interface_client_call_y.maxtimers ? __interface_client_call_y.maxtimers $: _i.i2c_slave_callback_if._client_call_y.max.maxtimers) $M ($D __interface_wait_and_yield.maxtimers ? __interface_wait_and_yield.maxtimers $: _i.i2c_slave_callback_if._client_call_y.max.maxtimers) $M 0
	.globl	_i.i2c_slave_callback_if._chan_yield.ack_read_request.maxtimers
	.weak	_i.i2c_slave_callback_if._chan_yield.ack_read_request.maxtimers
	.set	_i.i2c_slave_callback_if._chan_yield.ack_read_request.maxchanends,(1 + ($D __interface_client_call_y.maxchanends ? __interface_client_call_y.maxchanends $: _i.i2c_slave_callback_if._client_call_y.max.maxchanends)) $M (1 + ($D __interface_wait_and_yield.maxchanends ? __interface_wait_and_yield.maxchanends $: _i.i2c_slave_callback_if._client_call_y.max.maxchanends)) $M 1
	.globl	_i.i2c_slave_callback_if._chan_yield.ack_read_request.maxchanends
	.weak	_i.i2c_slave_callback_if._chan_yield.ack_read_request.maxchanends
.Ltmp308:
	.size	_i.i2c_slave_callback_if._chan_yield.ack_read_request, .Ltmp308-_i.i2c_slave_callback_if._chan_yield.ack_read_request
	.cfi_endproc

	.weak	_i.i2c_slave_callback_if._chan_yield.start_read_request
	.align	4
	.type	_i.i2c_slave_callback_if._chan_yield.start_read_request,@function
	.cc_top _i.i2c_slave_callback_if._chan_yield.start_read_request.function,_i.i2c_slave_callback_if._chan_yield.start_read_request
_i.i2c_slave_callback_if._chan_yield.start_read_request: # @_i.i2c_slave_callback_if._chan_yield.start_read_request
	.cfi_startproc
	.issue_mode dual
# BB#0:                                 # %allocas
	{
		nop
		dualentsp 4
	}
.Ltmp309:
	.cfi_def_cfa_offset 16
.Ltmp310:
	.cfi_offset 15, 0
	std r5, r4, sp[1]               # 4-byte Folded Spill
.Ltmp311:
	.cfi_offset 4, -8
.Ltmp312:
	.cfi_offset 5, -4
	#DEBUG_VALUE: _i.i2c_slave_callback_if._chan_yield.start_read_request:s <- R0
	{
		getr r4, 2
		ldw r1, r0[0]
	}
	{
		setd res[r4], r1
		nop
	}
	{
		out res[r4], r4
		nop
	}
	{
		outct res[r4], 2
		ldw r5, r0[1]
	}
	{
		mov r0, r4
		mov r1, r5
	}
	bl __interface_wait_and_yield
	{
		ldc r1, 0
		mov r0, r4
	}
	{
		mov r2, r5
		nop
	}
	bl __interface_client_call_y
	{
		chkct res[r4], 1
		nop
	}
	{
		freer res[r4]
		nop
	}
	ldd r5, r4, sp[1]               # 4-byte Folded Reload
	{
		nop
		retsp 4
	}
	# RETURN_REG_HOLDER
	.cc_bottom _i.i2c_slave_callback_if._chan_yield.start_read_request.function
	.set	_i.i2c_slave_callback_if._chan_yield.start_read_request.nstackwords,((($D __interface_wait_and_yield.nstackwords ? __interface_wait_and_yield.nstackwords $: _i.i2c_slave_callback_if._client_call_y.max.nstackwords) $M _i.i2c_slave_callback_if._client_call_y.max.nstackwords $M ($D __interface_client_call_y.nstackwords ? __interface_client_call_y.nstackwords $: _i.i2c_slave_callback_if._client_call_y.max.nstackwords)) + 4)
	.globl	_i.i2c_slave_callback_if._chan_yield.start_read_request.nstackwords
	.weak	_i.i2c_slave_callback_if._chan_yield.start_read_request.nstackwords
	.set	_i.i2c_slave_callback_if._chan_yield.start_read_request.maxcores,($D __interface_client_call_y.maxcores ? __interface_client_call_y.maxcores $: _i.i2c_slave_callback_if._client_call_y.max.maxcores) $M ($D __interface_wait_and_yield.maxcores ? __interface_wait_and_yield.maxcores $: _i.i2c_slave_callback_if._client_call_y.max.maxcores) $M 1
	.globl	_i.i2c_slave_callback_if._chan_yield.start_read_request.maxcores
	.weak	_i.i2c_slave_callback_if._chan_yield.start_read_request.maxcores
	.set	_i.i2c_slave_callback_if._chan_yield.start_read_request.maxtimers,($D __interface_client_call_y.maxtimers ? __interface_client_call_y.maxtimers $: _i.i2c_slave_callback_if._client_call_y.max.maxtimers) $M ($D __interface_wait_and_yield.maxtimers ? __interface_wait_and_yield.maxtimers $: _i.i2c_slave_callback_if._client_call_y.max.maxtimers) $M 0
	.globl	_i.i2c_slave_callback_if._chan_yield.start_read_request.maxtimers
	.weak	_i.i2c_slave_callback_if._chan_yield.start_read_request.maxtimers
	.set	_i.i2c_slave_callback_if._chan_yield.start_read_request.maxchanends,(1 + ($D __interface_client_call_y.maxchanends ? __interface_client_call_y.maxchanends $: _i.i2c_slave_callback_if._client_call_y.max.maxchanends)) $M (1 + ($D __interface_wait_and_yield.maxchanends ? __interface_wait_and_yield.maxchanends $: _i.i2c_slave_callback_if._client_call_y.max.maxchanends)) $M 1
	.globl	_i.i2c_slave_callback_if._chan_yield.start_read_request.maxchanends
	.weak	_i.i2c_slave_callback_if._chan_yield.start_read_request.maxchanends
.Ltmp313:
	.size	_i.i2c_slave_callback_if._chan_yield.start_read_request, .Ltmp313-_i.i2c_slave_callback_if._chan_yield.start_read_request
	.cfi_endproc

	.globl	thread_speed
	.align	4
	.type	thread_speed,@function
	.cc_top thread_speed.function,thread_speed
thread_speed:                           # @thread_speed
.Lfunc_begin54:
	.loc	1 259 0                 # C:/Users/user/workspace/module_usb_audio/main.xc:259:0
	.cfi_startproc
	.issue_mode dual
# BB#0:                                 # %allocas
.Lxtalabel0:
	{
		nop
		dualentsp 0
	}
	.loc	1 264 0 prologue_end    # C:/Users/user/workspace/module_usb_audio/main.xc:264:0
.Ltmp314:
	clrsr 128
	{
		nop
		retsp 0
	}
	# RETURN_REG_HOLDER
.Ltmp315:
	.cc_bottom thread_speed.function
	.set	thread_speed.nstackwords,0
	.globl	thread_speed.nstackwords
	.set	thread_speed.maxcores,1
	.globl	thread_speed.maxcores
	.set	thread_speed.maxtimers,0
	.globl	thread_speed.maxtimers
	.set	thread_speed.maxchanends,0
	.globl	thread_speed.maxchanends
.Ltmp316:
	.size	thread_speed, .Ltmp316-thread_speed
.Lfunc_end54:
	.cfi_endproc

	.globl	usb_audio_io
	.align	4
	.type	usb_audio_io,@function
	.cc_top usb_audio_io.function,usb_audio_io
usb_audio_io:                           # @usb_audio_io
	.cfi_startproc
	.issue_mode dual
# BB#0:                                 # %allocas
.Lxtalabel1:
.Ltmp317:
	.cfi_def_cfa_offset 8
.Ltmp318:
	.cfi_offset 15, 0
	#DEBUG_VALUE: usb_audio_io:c_spdif_rx <- R3
	#DEBUG_VALUE: usb_audio_io:c_adat_rx <- [SP+12]
	{
		mov r11, r1
		dualentsp 2
	}
	ldd r1, r3, sp[3]
	.loc	1 264 0                 # C:/Users/user/workspace/module_usb_audio/main.xc:264:0
	clrsr 128
	.loc	1 460 0                 # C:/Users/user/workspace/module_usb_audio/main.xc:460:0
	{
		mov r1, r2
		stw r1, sp[1]
	}
	{
		mov r2, r11
		nop
	}
.Lxta.call_labels0:
	bl audio
	.cc_bottom usb_audio_io.function
	.set	usb_audio_io.nstackwords,(audio.nstackwords + 2)
	.globl	usb_audio_io.nstackwords
	.set	usb_audio_io.maxcores,audio.maxcores $M 1
	.globl	usb_audio_io.maxcores
	.set	usb_audio_io.maxtimers,audio.maxtimers $M 0
	.globl	usb_audio_io.maxtimers
	.set	usb_audio_io.maxchanends,audio.maxchanends $M 0
	.globl	usb_audio_io.maxchanends
.Ltmp319:
	.size	usb_audio_io, .Ltmp319-usb_audio_io
	.cfi_endproc

	.globl	_Susb_audio_io_0
	.align	4
	.type	_Susb_audio_io_0,@function
	.cc_top _Susb_audio_io_0.function,_Susb_audio_io_0
_Susb_audio_io_0:                       # @_Susb_audio_io_0
	.cfi_startproc
	.issue_mode dual
# BB#0:                                 # %allocas
.Lxtalabel2:
.Ltmp320:
	.cfi_def_cfa_offset 8
.Ltmp321:
	.cfi_offset 15, 0
	{
		mov r3, r0
		dualentsp 2
	}
	.loc	1 264 0                 # C:/Users/user/workspace/module_usb_audio/main.xc:264:0
	clrsr 128
	#DEBUG_VALUE: c_spdif_rx <- R0
	.loc	1 460 0                 # C:/Users/user/workspace/module_usb_audio/main.xc:460:0
	{
		ldc r0, 0
		stw r1, sp[1]
	}
	{
		mov r1, r0
		mov r2, r0
	}
.Lxta.call_labels1:
	bl audio
	.cc_bottom _Susb_audio_io_0.function
	.set	_Susb_audio_io_0.nstackwords,(audio.nstackwords + 2)
	.globl	_Susb_audio_io_0.nstackwords
	.set	_Susb_audio_io_0.maxcores,audio.maxcores $M 1
	.globl	_Susb_audio_io_0.maxcores
	.set	_Susb_audio_io_0.maxtimers,audio.maxtimers $M 0
	.globl	_Susb_audio_io_0.maxtimers
	.set	_Susb_audio_io_0.maxchanends,audio.maxchanends $M 0
	.globl	_Susb_audio_io_0.maxchanends
.Ltmp322:
	.size	_Susb_audio_io_0, .Ltmp322-_Susb_audio_io_0
	.cfi_endproc

	.globl	__main__main_tile_0
	.align	4
	.type	__main__main_tile_0,@function
	.cc_top __main__main_tile_0.function,__main__main_tile_0
__main__main_tile_0:                    # @__main__main_tile_0
	.cfi_startproc
	.issue_mode dual
# BB#0:                                 # %allocas
	{
		nop
		dualentsp 44
	}
.Ltmp323:
	.cfi_def_cfa_offset 176
.Ltmp324:
	.cfi_offset 15, 0
	{
		nop
		stw r4, sp[36]
	}
	{
		nop
		stw r5, sp[37]
	}
.Ltmp325:
	.cfi_offset 4, -32
.Ltmp326:
	.cfi_offset 5, -28
	{
		nop
		stw r6, sp[38]
	}
	{
		nop
		stw r7, sp[39]
	}
.Ltmp327:
	.cfi_offset 6, -24
.Ltmp328:
	.cfi_offset 7, -20
	{
		nop
		stw r8, sp[40]
	}
	{
		nop
		stw r9, sp[41]
	}
.Ltmp329:
	.cfi_offset 8, -16
.Ltmp330:
	.cfi_offset 9, -12
.Ltmp331:
	.cfi_offset 10, -8
	#DEBUG_VALUE: __main__main_tile_0:formal.c_pdm_pcm1 <- R0
	#DEBUG_VALUE: __main__main_tile_0:formal.i_audMan2 <- R1
	#DEBUG_VALUE: __main__main_tile_0:formal.chan_aec3 <- R2
	#DEBUG_VALUE: __main__main_tile_0:formal.chan_aec4 <- R3
	#DEBUG_VALUE: __main__main_tile_0:formal.chan_aec5 <- [SP+180]
	#DEBUG_VALUE: __main__main_tile_0:formal.c_led8 <- [SP+192]
	#DEBUG_VALUE: __main__main_tile_0:formal.chan_aec4 <- R8
	{
		mov r8, r3
		stw r10, sp[42]
	}
	#DEBUG_VALUE: __main__main_tile_0:formal.chan_aec3 <- R3
	#DEBUG_VALUE: __main__main_tile_0:formal.i_audMan2 <- R2
	{
		mov r3, r2
		mov r2, r1
	}
	#DEBUG_VALUE: __main__main_tile_0:formal.c_pdm_pcm1 <- R1
	{
		mov r1, r0
		ldw r10, sp[46]
	}
	{
		getr r6, 2
		ldw r9, sp[47]
	}
	{
		getr r7, 2
		nop
	}
	{
		setd res[r6], r7
		nop
	}
	{
		setd res[r7], r6
		nop
	}
	{
		getr r4, 2
		nop
	}
	{
		getr r5, 2
		nop
	}
	{
		setd res[r4], r5
		nop
	}
	{
		setd res[r5], r4
		nop
	}
	{
		getr r0, 2
		nop
	}
	{
		nop
		stw r0, sp[2]
	}
	ldaw r11, cp[.vtable]
	{
		nop
		stw r11, sp[3]
	}
	{
		nop
		stw r0, sp[1]
	}
	{
		nop
		stw r6, sp[30]
	}
	{
		nop
		stw r7, sp[32]
	}
	{
		nop
		stw r4, sp[31]
	}
	{
		ldaw r0, sp[1]
		stw r5, sp[33]
	}
	{
		ldaw r0, sp[2]
		stw r0, sp[16]
	}
	{
		nop
		stw r0, sp[17]
	}
	{
		ldaw r0, sp[25]
		stw r1, sp[35]
	}
	{
		nop
		stw r2, sp[25]
	}
	{
		nop
		stw r0, sp[23]
	}
	{
		nop
		stw r3, sp[8]
	}
	{
		nop
		stw r8, sp[9]
	}
	{
		nop
		ldw r0, sp[45]
	}
	{
		nop
		stw r0, sp[10]
	}
	{
		nop
		stw r10, sp[11]
	}
	{
		nop
		stw r9, sp[6]
	}
	{
		nop
		ldw r0, sp[48]
	}
	{
		nop
		stw r0, sp[5]
	}
	ldaw r1, dp[par.desc.1]
	{
		ldaw r0, sp[4]
		nop
	}
	bl __start_other_cores
	{
		outct res[r6], 1
		nop
	}
	{
		chkct res[r7], 1
		nop
	}
	{
		outct res[r7], 1
		nop
	}
	{
		chkct res[r6], 1
		nop
	}
	{
		freer res[r6]
		nop
	}
	{
		freer res[r7]
		nop
	}
	{
		outct res[r4], 1
		nop
	}
	{
		chkct res[r5], 1
		nop
	}
	{
		outct res[r5], 1
		nop
	}
	{
		chkct res[r4], 1
		nop
	}
	{
		freer res[r4]
		nop
	}
	{
		freer res[r5]
		ldw r0, sp[1]
	}
	{
		freer res[r0]
		ldw r10, sp[42]
	}
	{
		nop
		ldw r8, sp[40]
	}
	{
		nop
		ldw r9, sp[41]
	}
	{
		nop
		ldw r6, sp[38]
	}
	{
		nop
		ldw r7, sp[39]
	}
	{
		nop
		ldw r4, sp[36]
	}
	{
		nop
		ldw r5, sp[37]
	}
	{
		nop
		retsp 44
	}
	# RETURN_REG_HOLDER
	.cc_bottom __main__main_tile_0.function
	.set	__main__main_tile_0.nstackwords,((par.extra_stackwords + __main__main_tile_0_combined_tile_0_u0.nstackwords + ((1 + __main__main_tile_0_task_BeClear_SmartHome_AEC_1.nstackwords) $A 2) + ((1 + __main__main_tile_0_task_pdm_mic_6.nstackwords) $A 2)) + 44)
	.globl	__main__main_tile_0.nstackwords
	.set	__main__main_tile_0.maxcores,(0 + __main__main_tile_0_combined_tile_0_u0.maxcores + __main__main_tile_0_task_BeClear_SmartHome_AEC_1.maxcores + __main__main_tile_0_task_pdm_mic_6.maxcores) $M 1
	.globl	__main__main_tile_0.maxcores
	.set	__main__main_tile_0.maxtimers,(2 + __main__main_tile_0_combined_tile_0_u0.maxtimers + __main__main_tile_0_task_BeClear_SmartHome_AEC_1.maxtimers + __main__main_tile_0_task_pdm_mic_6.maxtimers) $M 0
	.globl	__main__main_tile_0.maxtimers
	.set	__main__main_tile_0.maxchanends,(5 + (0 + __main__main_tile_0_combined_tile_0_u0.maxchanends + __main__main_tile_0_task_BeClear_SmartHome_AEC_1.maxchanends + __main__main_tile_0_task_pdm_mic_6.maxchanends)) $M 5
	.globl	__main__main_tile_0.maxchanends
.Ltmp332:
	.size	__main__main_tile_0, .Ltmp332-__main__main_tile_0
	.cfi_endproc

	.section	.cp.rodata.cst4,"aMc",@progbits,4
	.cc_top .LCPI58_0.data,.LCPI58_0
	.align	4
	.type	.LCPI58_0,@object
	.size	.LCPI58_0, 4
.LCPI58_0:
	.long	4294967288              # 0xfffffff8
	.cc_bottom .LCPI58_0.data
	.cc_top .LCPI58_1.data,.LCPI58_1
	.align	4
	.type	.LCPI58_1,@object
	.size	.LCPI58_1, 4
.LCPI58_1:
	.long	2147483647              # 0x7fffffff
	.cc_bottom .LCPI58_1.data
	.text
	.align	4
	.type	__main__main_tile_0_combined_tile_0_u0,@function
	.cc_top __main__main_tile_0_combined_tile_0_u0.function,__main__main_tile_0_combined_tile_0_u0
__main__main_tile_0_combined_tile_0_u0: # @__main__main_tile_0_combined_tile_0_u0
	.cfi_startproc
	.issue_mode dual
# BB#0:                                 # %allocas
	{
		nop
		dualentsp 14
	}
.Ltmp333:
	.cfi_def_cfa_offset 56
.Ltmp334:
	.cfi_offset 15, 0
.Ltmp335:
	.cfi_offset 10, -48
.Ltmp336:
	.cfi_def_cfa_register 10
	{
		ldaw r10, sp[0]
		stw r10, sp[2]
	}
	std r5, r4, r10[4]              # 4-byte Folded Spill
.Ltmp337:
	.cfi_offset 4, -24
.Ltmp338:
	.cfi_offset 5, -20
	std r7, r6, r10[5]              # 4-byte Folded Spill
.Ltmp339:
	.cfi_offset 6, -16
.Ltmp340:
	.cfi_offset 7, -12
	std r9, r8, r10[6]              # 4-byte Folded Spill
.Ltmp341:
	.cfi_offset 8, -8
.Ltmp342:
	.cfi_offset 9, -4
	#DEBUG_VALUE: __main__main_tile_0_combined_tile_0_u0:frame <- R0
	{
		mov r6, r0
		nop
	}
	#DEBUG_VALUE: __main__main_tile_0_combined_tile_0_u0:frame <- R6
	ldc r0, _SBeclearBuff_0.init.0.savedstate
	{
		mkmsk r1, 4
		nop
	}
	ldaw r0, r1[r0]
	ldw r2, cp[.LCPI58_0]
	{
		and r0, r0, r2
		ldaw r3, sp[0]
	}
	{
		sub r0, r3, r0
		nop
	}
	# ALLOCA 2
	{
		add r0, r0, 8
		set sp, r0
	}
	ldc r3, led_controller.init.0.savedstate
	ldaw r3, r1[r3]
	{
		and r3, r3, r2
		ldaw r11, sp[0]
	}
	{
		sub r3, r11, r3
		nop
	}
	# ALLOCA 1
	{
		add r3, r3, 8
		set sp, r3
	}
	ldc r11, pdm_buffer.init.0.savedstate
	ldaw r1, r1[r11]
	{
		and r1, r1, r2
		ldaw r2, sp[0]
	}
	{
		sub r1, r2, r1
		nop
	}
	# ALLOCA 0
	{
		add r1, r1, 8
		set sp, r1
	}
	{
		nop
		stw r0, r10[7]
	}
	ldaw r0, r10[7]
	#init allocation
	{
		nop
		stw r3, r10[6]
	}
	ldaw r0, r10[6]
	#init allocation
	{
		nop
		stw r1, r10[5]
	}
	ldaw r0, r10[5]
	#init allocation
	{
		nop
		ldw r4, r10[7]
	}
	ldc r0, 76
	{
		add r0, r6, r0
		nop
	}
	{
		ldc r0, 52
		ldw r1, r0[0]
	}
	{
		add r0, r6, r0
		nop
	}
	# STACKUP 
	# ALLOCA 3
	{
		extsp 2
		ldw r2, r0[0]
	}
	{
		mov r0, r4
		nop
	}
.Lxta.call_labels2:
	bl _SBeclearBuff_0.init.0
	# STACKDOWN
	{
		ldaw sp, sp[2]
		ldw r5, r10[6]
	}
	{
		nop
		stw r5, r10[4]
	}
	# STACKUP 
	# ALLOCA 4
	{
		extsp 2
		ldw r1, r6[1]
	}
	{
		mov r0, r5
		nop
	}
	bl led_controller.init.0
	# STACKDOWN
	{
		ldaw sp, sp[2]
		ldw r7, r10[5]
	}
	{
		nop
		stw r7, r10[3]
	}
	ldc r0, 112
	{
		add r1, r6, r0
		nop
	}
	ldc r0, 124
	{
		add r0, r6, r0
		nop
	}
	# STACKUP 
	# ALLOCA 5
	{
		extsp 2
		ldw r2, r0[0]
	}
	{
		mov r0, r7
		nop
	}
.Lxta.call_labels3:
	bl pdm_buffer.init.0
	{
		ldaw sp, sp[2]
		nop
	}
	# STACKDOWN
	# STACKUP 
	# ALLOCA 6
	{
		extsp 2
		mov r0, r4
	}
	bl _SBeclearBuff_0.init.1
	{
		ldaw sp, sp[2]
		nop
	}
	# STACKDOWN
	# STACKUP 
	# ALLOCA 7
	{
		extsp 2
		mov r0, r5
	}
	bl led_controller.init.1
	{
		ldaw sp, sp[2]
		nop
	}
	# STACKDOWN
	# STACKUP 
	# ALLOCA 8
	{
		extsp 2
		mov r0, r7
	}
	bl pdm_buffer.init.1
	# STACKDOWN
	{
		ldaw sp, sp[2]
		get r11, id
	}
	ldaw r0, dp[__timers]
	{
		nop
		ldw r8, r0[r11]
	}
	ldaw r6, dp[__timer_delta]
	ldw r9, cp[.LCPI58_1]
	ldaw r5, dp[__timer_base]
	bu .LBB58_1
.LBB58_2:                               # %selectok
                                        #   in Loop: Header=BB58_1 Depth=1
	bl __wait_nonlocal
	bu .Ltmp343
.Ltmp343:                               # Block address taken
.LBB58_1:                               # %LoopBody
                                        # =>This Inner Loop Header: Depth=1
	{
		clre
		get r11, id
	}
	stw r9, r6[r11]
	{
		setc res[r8], 1
		nop
	}
	{
		in r0, res[r8]
		nop
	}
	stw r0, r5[r11]
