	.text
	.file	"C:/Users/user/workspace/lib_mic_array/src/pdm.xc"
                                        # Start of file scope inline assembly
	.inline_definition delay_seconds
	.inline_definition delay_milliseconds
	.inline_definition delay_microseconds
	.set usage.anon.0,0
	.set usage.anon.1,0
	.set usage.anon.2,0
	.call pdm_rx_debug,pdm_rx_asm_debug
	.call mic_array_pdm_rx,pdm_rx_asm
	.call usage.anon.2,delay_ticks_longlong
	.call usage.anon.1,delay_ticks_longlong
	.call usage.anon.0,delay_ticks_longlong
	.set mic_array_pdm_rx.locnoside, 0
	.set pdm_rx_debug.locnoside, 0

                                        # End of file scope inline assembly
	.text
	.globl	mic_array_pdm_rx
	.align	4
	.type	mic_array_pdm_rx,@function
	.cc_top mic_array_pdm_rx.function,mic_array_pdm_rx
mic_array_pdm_rx:                       # @mic_array_pdm_rx
.Lfunc_begin0:
	.file	1 "C:/Users/user/workspace/lib_mic_array/src\\pdm.xc"
	.loc	1 18 0                  # C:/Users/user/workspace/lib_mic_array/src/pdm.xc:18:0
	.cfi_startproc
	.issue_mode dual
# BB#0:                                 # %allocas
.Lxtalabel0:
	{
		nop
		dualentsp 2
	}
.Ltmp0:
	.cfi_def_cfa_offset 8
.Ltmp1:
	.cfi_offset 15, 0
	#DEBUG_VALUE: mic_array_pdm_rx:p_pdm_mics <- R0
	#DEBUG_VALUE: mic_array_pdm_rx:c_4x_pdm_mic_0 <- R1
	#DEBUG_VALUE: mic_array_pdm_rx:c_4x_pdm_mic_1 <- R2
	.loc	1 30 0 prologue_end     # C:/Users/user/workspace/lib_mic_array/src/pdm.xc:30:0
.Ltmp2:
.Lxta.call_labels0:
	bl pdm_rx_asm
.Ltmp3:
	{
		nop
		retsp 2
	}
	# RETURN_REG_HOLDER
.Ltmp4:
	.cc_bottom mic_array_pdm_rx.function
	.set	mic_array_pdm_rx.nstackwords,(pdm_rx_asm.nstackwords + 2)
	.globl	mic_array_pdm_rx.nstackwords
	.set	mic_array_pdm_rx.maxcores,pdm_rx_asm.maxcores $M 1
	.globl	mic_array_pdm_rx.maxcores
	.set	mic_array_pdm_rx.maxtimers,pdm_rx_asm.maxtimers $M 0
	.globl	mic_array_pdm_rx.maxtimers
	.set	mic_array_pdm_rx.maxchanends,pdm_rx_asm.maxchanends $M 0
	.globl	mic_array_pdm_rx.maxchanends
.Ltmp5:
	.size	mic_array_pdm_rx, .Ltmp5-mic_array_pdm_rx
.Lfunc_end0:
	.cfi_endproc

	.globl	_Smic_array_pdm_rx_0
	.align	4
	.type	_Smic_array_pdm_rx_0,@function
	.cc_top _Smic_array_pdm_rx_0.function,_Smic_array_pdm_rx_0
_Smic_array_pdm_rx_0:                   # @_Smic_array_pdm_rx_0
.Lfunc_begin1:
	.loc	1 18 0                  # C:/Users/user/workspace/lib_mic_array/src/pdm.xc:18:0
	.cfi_startproc
	.issue_mode dual
# BB#0:                                 # %allocas
.Lxtalabel1:
.Ltmp6:
	.cfi_def_cfa_offset 8
.Ltmp7:
	.cfi_offset 15, 0
	#DEBUG_VALUE: mic_array_pdm_rx:p_pdm_mics <- R0
	#DEBUG_VALUE: mic_array_pdm_rx:c_4x_pdm_mic_0 <- R1
.Ltmp8:
	#DEBUG_VALUE: c_4x_pdm_mic_1 <- R2
	{
		ldc r2, 0
		dualentsp 2
	}
.Ltmp9:
	.loc	1 30 0 prologue_end     # C:/Users/user/workspace/lib_mic_array/src/pdm.xc:30:0
.Lxta.call_labels1:
	bl pdm_rx_asm
.Ltmp10:
	{
		nop
		retsp 2
	}
	# RETURN_REG_HOLDER
.Ltmp11:
	.cc_bottom _Smic_array_pdm_rx_0.function
	.set	_Smic_array_pdm_rx_0.nstackwords,(pdm_rx_asm.nstackwords + 2)
	.globl	_Smic_array_pdm_rx_0.nstackwords
	.set	_Smic_array_pdm_rx_0.maxcores,pdm_rx_asm.maxcores $M 1
	.globl	_Smic_array_pdm_rx_0.maxcores
	.set	_Smic_array_pdm_rx_0.maxtimers,pdm_rx_asm.maxtimers $M 0
	.globl	_Smic_array_pdm_rx_0.maxtimers
	.set	_Smic_array_pdm_rx_0.maxchanends,pdm_rx_asm.maxchanends $M 0
	.globl	_Smic_array_pdm_rx_0.maxchanends
.Ltmp12:
	.size	_Smic_array_pdm_rx_0, .Ltmp12-_Smic_array_pdm_rx_0
.Lfunc_end1:
	.cfi_endproc

	.globl	pdm_rx_debug
	.align	4
	.type	pdm_rx_debug,@function
	.cc_top pdm_rx_debug.function,pdm_rx_debug
pdm_rx_debug:                           # @pdm_rx_debug
.Lfunc_begin2:
	.loc	1 43 0                  # C:/Users/user/workspace/lib_mic_array/src/pdm.xc:43:0
	.cfi_startproc
	.issue_mode dual
# BB#0:                                 # %allocas
.Lxtalabel2:
	{
		nop
		dualentsp 2
	}
.Ltmp13:
	.cfi_def_cfa_offset 8
.Ltmp14:
	.cfi_offset 15, 0
	#DEBUG_VALUE: pdm_rx_debug:c_not_a_port <- R0
	#DEBUG_VALUE: pdm_rx_debug:c_4x_pdm_mic_0 <- R1
	#DEBUG_VALUE: pdm_rx_debug:c_4x_pdm_mic_1 <- R2
	.loc	1 45 0 prologue_end     # C:/Users/user/workspace/lib_mic_array/src/pdm.xc:45:0
.Ltmp15:
.Lxta.call_labels2:
	bl pdm_rx_asm_debug
.Ltmp16:
	{
		nop
		retsp 2
	}
	# RETURN_REG_HOLDER
.Ltmp17:
	.cc_bottom pdm_rx_debug.function
	.set	pdm_rx_debug.nstackwords,(pdm_rx_asm_debug.nstackwords + 2)
	.globl	pdm_rx_debug.nstackwords
	.set	pdm_rx_debug.maxcores,pdm_rx_asm_debug.maxcores $M 1
	.globl	pdm_rx_debug.maxcores
	.set	pdm_rx_debug.maxtimers,pdm_rx_asm_debug.maxtimers $M 0
	.globl	pdm_rx_debug.maxtimers
	.set	pdm_rx_debug.maxchanends,pdm_rx_asm_debug.maxchanends $M 0
	.globl	pdm_rx_debug.maxchanends
.Ltmp18:
	.size	pdm_rx_debug, .Ltmp18-pdm_rx_debug
.Lfunc_end2:
	.cfi_endproc

.Ldebug_end0:
	.file	2 "C:\\Program Files (x86)\\XMOS\\xTIMEcomposer\\Community_14.3.3\\target/include\\timer.h"
	.section	.xtacalltable,"",@progbits
.Lentries_start0:
	.long	.Lentries_end1-.Lentries_start0
	.long	0
	.ascii	"C:\\Users\\user\\workspace\\app_vf_spk_base\\.build_1i0o0_cir43_i2s_only_16khz"
	.byte	0
.cc_top cc_0,.Lxta.call_labels0
	.ascii	"C:/Users/user/workspace/lib_mic_array/src/pdm.xc"
	.byte	0
	.long	30
	.long	.Lxta.call_labels0
.cc_bottom cc_0
.cc_top cc_1,.Lxta.call_labels1
	.ascii	"C:/Users/user/workspace/lib_mic_array/src/pdm.xc"
	.byte	0
	.long	30
	.long	.Lxta.call_labels1
.cc_bottom cc_1
.cc_top cc_2,.Lxta.call_labels2
	.ascii	"C:/Users/user/workspace/lib_mic_array/src/pdm.xc"
	.byte	0
	.long	45
	.long	.Lxta.call_labels2
.cc_bottom cc_2
.Lentries_end1:
	.section	.xtalabeltable,"",@progbits
.Lentries_start2:
	.long	.Lentries_end3-.Lentries_start2
	.long	0
	.ascii	"C:\\Users\\user\\workspace\\app_vf_spk_base\\.build_1i0o0_cir43_i2s_only_16khz"
	.byte	0
.cc_top cc_3,.Lxtalabel0
	.ascii	"C:/Users/user/workspace/lib_mic_array/src/pdm.xc"
	.byte	0
	.long	30
	.long	32
	.long	.Lxtalabel0
.cc_bottom cc_3
.cc_top cc_4,.Lxtalabel1
	.ascii	"C:/Users/user/workspace/lib_mic_array/src/pdm.xc"
	.byte	0
	.long	30
	.long	32
	.long	.Lxtalabel1
.cc_bottom cc_4
.cc_top cc_5,.Lxtalabel2
	.ascii	"C:/Users/user/workspace/lib_mic_array/src/pdm.xc"
	.byte	0
	.long	45
	.long	47
	.long	.Lxtalabel2
.cc_bottom cc_5
.Lentries_end3:
	.section	.trap_info,"",@progbits
.Ltrap_info_entries_start0:
	.long	.Ltrap_info_entries_end0-.Ltrap_info_entries_start0
	.long	1
.Ltrap_info_entries_end0: