	.text
	.file	"src_mrhf_asrc.c"

	.weak       _fptrgroup.G1.group
	.weak       _fptrgroup.G1.nstackwords.group
	.weak       _fptrgroup.G1.maxcores.group
	.weak       _fptrgroup.G1.maxtimers.group
	.weak       _fptrgroup.G1.maxchanends.group
	.max_reduce _fptrgroup.G1.nstackwords, _fptrgroup.G1.nstackwords.group, 0
	.max_reduce _fptrgroup.G1.maxcores, _fptrgroup.G1.maxcores.group, 0
	.max_reduce _fptrgroup.G1.maxtimers, _fptrgroup.G1.maxtimers.group, 0
	.max_reduce _fptrgroup.G1.maxchanends, _fptrgroup.G1.maxchanends.group, 0


	.section	.cp.rodata.cst4,"aMc",@progbits,4
	.cc_top .LCPI0_0.data,.LCPI0_0
	.align	4
	.type	.LCPI0_0,@object
	.size	.LCPI0_0, 4
.LCPI0_0:
	.long	4294966784
	.cc_bottom .LCPI0_0.data
	.text
	.globl	ASRC_prepare_coefs
	.align	4
	.type	ASRC_prepare_coefs,@function
	.cc_top ASRC_prepare_coefs.function,ASRC_prepare_coefs
ASRC_prepare_coefs:
.Lfunc_begin0:
	.loc	2 260 0
	.cfi_startproc
	.issue_mode dual
	{
		nop
		dualentsp 0
	}
	{
		extsp 8
		nop
	}
.Ltmp0:
	.cfi_def_cfa_offset 32
	std r5, r4, sp[0]
.Ltmp1:
	.cfi_offset 4, -32
.Ltmp2:
	.cfi_offset 5, -28
	std r7, r6, sp[1]
.Ltmp3:
	.cfi_offset 6, -24
.Ltmp4:
	.cfi_offset 7, -20
	std r9, r8, sp[2]
.Ltmp5:
	.cfi_offset 8, -16
.Ltmp6:
	.cfi_offset 9, -12
.Ltmp7:
	.cfi_offset 10, -8
	{
		ldc r1, 0
		stw r10, sp[6]
	}
	ldaw r2, dp[iADFirPrototypeCoefs+7168]
.Ltmp8:
	ldaw r3, dp[iADFirCoefs]
	ldw r0, cp[.LCPI0_0]
	ldc r5, 64
	ldc r6, 128
	{
		mov r7, r3
		mov r4, r3
	}
	{
		mov r8, r1
		mov r3, r1
	}
.LBB0_1:
	{
		mov r9, r7
		mov r10, r2
	}
	{
		mkmsk r11, 4
		nop
	}
.LBB0_2:
	{
		nop
		ldw r1, r10[0]
	}
	.loc	2 269 13 prologue_end
.Ltmp9:
	{
		sub r11, r11, 1
		stw r1, r9[0]
	}
	.loc	2 268 9
	{
		add r10, r10, r0
		add r9, r9, 4
	}
.xtaloop 15
	# LOOPMARKER 0
	.loc	2 268 9
	bt r11, .LBB0_2
.Ltmp10:
	.loc	2 271 9
	{
		shl r1, r8, 6
		nop
	}
	{
		add r1, r4, r1
		ldc r11, 60
	}
	{
		add r1, r1, r11
		nop
	}
.Ltmp11:
	.loc	2 271 9
	{
		add r8, r8, 1
		stw r3, r1[0]
	}
.Ltmp12:
	.loc	2 265 5
	{
		add r2, r2, 4
		add r7, r7, r5
	}
	.loc	2 265 5
	{
		eq r1, r8, r6
		nop
	}
.xtaloop 128
	# LOOPMARKER 1
	bf r1, .LBB0_1
.Ltmp13:
	{
		ldc r1, 0
		nop
	}
	.loc	2 278 9
.Ltmp14:
	stw r1, dp[iADFirCoefs+8192]
	{
		mkmsk r2, 4
		nop
	}
	ldaw r3, dp[iADFirCoefs+8196]
.Ltmp15:
	ldaw r11, dp[iADFirPrototypeCoefs+7168]
.LBB0_5:
	{
		nop
		ldw r4, r11[0]
	}
	.loc	2 281 13
.Ltmp16:
	{
		sub r2, r2, 1
		stw r4, r3[0]
	}
	.loc	2 280 9
	{
		add r3, r3, 4
		add r11, r11, r0
	}
.xtaloop 15
	# LOOPMARKER 2
	.loc	2 280 9
	bt r2, .LBB0_5
.Ltmp17:
	.loc	2 278 9
	stw r1, dp[iADFirCoefs+8256]
	{
		mkmsk r1, 4
		nop
	}
	ldaw r2, dp[iADFirCoefs+8260]
	ldaw r3, dp[iADFirPrototypeCoefs+7172]
.LBB0_7:
	{
		nop
		ldw r11, r3[0]
	}
	.loc	2 281 13
.Ltmp18:
	{
		sub r1, r1, 1
		stw r11, r2[0]
	}
	.loc	2 280 9
	{
		add r2, r2, 4
		add r3, r3, r0
	}
	.loc	2 280 9
	bt r1, .LBB0_7
.Ltmp19:
	{
		ldc r0, 0
		ldw r10, sp[6]
	}
	.loc	2 284 5
	ldd r9, r8, sp[2]
	ldd r7, r6, sp[1]
	ldd r5, r4, sp[0]
	{
		ldaw sp, sp[8]
		nop
	}
	{
		nop
		retsp 0
	}
	# RETURN_REG_HOLDER
.Ltmp20:
	.cc_bottom ASRC_prepare_coefs.function
	.set	ASRC_prepare_coefs.nstackwords,8
	.globl	ASRC_prepare_coefs.nstackwords
	.set	ASRC_prepare_coefs.maxcores,1
	.globl	ASRC_prepare_coefs.maxcores
	.set	ASRC_prepare_coefs.maxtimers,0
	.globl	ASRC_prepare_coefs.maxtimers
	.set	ASRC_prepare_coefs.maxchanends,0
	.globl	ASRC_prepare_coefs.maxchanends
.Ltmp21:
	.size	ASRC_prepare_coefs, .Ltmp21-ASRC_prepare_coefs
.Lfunc_end0:
	.cfi_endproc

	.globl	ASRC_init
	.align	4
	.type	ASRC_init,@function
	.cc_top ASRC_init.function,ASRC_init
ASRC_init:
.Lfunc_begin1:
	.loc	2 295 0
	.cfi_startproc
	.issue_mode dual
	{
		nop
		dualentsp 14
	}
.Ltmp22:
	.cfi_def_cfa_offset 56
.Ltmp23:
	.cfi_offset 15, 0
	std r5, r4, sp[3]
.Ltmp24:
	.cfi_offset 4, -32
.Ltmp25:
	.cfi_offset 5, -28
	std r7, r6, sp[4]
.Ltmp26:
	.cfi_offset 6, -24
.Ltmp27:
	.cfi_offset 7, -20
	std r9, r8, sp[5]
.Ltmp28:
	.cfi_offset 8, -16
.Ltmp29:
	.cfi_offset 9, -12
.Ltmp30:
	.cfi_offset 10, -8
.Ltmp31:
	{
		mov r4, r0
		stw r10, sp[12]
	}
.Ltmp32:
	ldc r0, 232
	.loc	2 302 8 prologue_end
.Ltmp33:
	{
		add r9, r4, r0
		nop
	}
	.loc	2 302 8
	{
		mkmsk r5, 1
		ldw r0, r9[0]
	}
	bf r0, .LBB1_22
.Ltmp34:
	ldc r1, 236
	.loc	2 306 8
.Ltmp35:
	{
		add r10, r4, r1
		nop
	}
	{
		nop
		ldw r1, r10[0]
	}
	bf r1, .LBB1_22
.Ltmp36:
	.loc	2 310 9
	{
		ldc r3, 5
		ldw r1, r4[6]
	}
	.loc	2 310 9
	{
		lsu r2, r3, r1
		nop
	}
	bt r2, .LBB1_22
.Ltmp37:
	{
		nop
		ldw r2, r4[9]
	}
	.loc	2 312 9
.Ltmp38:
	{
		lsu r3, r3, r2
		nop
	}
	bt r3, .LBB1_22
.Ltmp39:
	ldc r3, 96
	.loc	2 316 5
	mul r3, r1, r3
	ldaw r11, dp[sFsRatioConfigs]
	{
		add r3, r11, r3
		shl r11, r2, 4
	}
	{
		add r3, r3, r11
		nop
	}
	{
		nop
		ldw r3, r3[0]
	}
	ldc r11, 204
	.loc	2 316 5
	{
		add r11, r4, r11
		nop
	}
	{
		nop
		stw r3, r11[0]
	}
	{
		nop
		ldw r3, r4[4]
	}
	bf r3, .LBB1_22
.Ltmp40:
	{
		mov r11, r3
		stw r11, sp[5]
	}
	{
		zext r11, 2
		nop
	}
	bt r11, .LBB1_22
.Ltmp41:
	{
		ldc r11, 48
		nop
	}
	.loc	2 332 5
	mul r1, r1, r11
	ldaw r5, dp[sASRCFiltersIDs]
	{
		add r1, r5, r1
		shl r2, r2, 3
	}
	{
		add r8, r1, r2
		nop
	}
	.loc	2 332 5
	{
		ldc r2, 12
		ldw r1, r8[0]
	}
	.loc	2 332 5
	mul r1, r1, r2
	ldaw r2, dp[sASRCFirDescriptor]
	{
		add r1, r2, r1
		nop
	}
.Ltmp42:
	.loc	2 334 5
	ldaw r7, r4[10]
	.loc	2 334 5
	{
		add r2, r4, r11
		nop
	}
	{
		nop
		stw r3, r2[0]
	}
	.loc	2 335 5
	{
		ldc r3, 52
		ldw r2, r4[2]
	}
	.loc	2 335 5
	{
		add r3, r4, r3
		nop
	}
	{
		nop
		stw r2, r3[0]
	}
	{
		nop
		ldw r2, r8[0]
	}
	.loc	2 337 9
.Ltmp43:
	{
		eq r2, r2, 10
		nop
	}
	.loc	2 337 9
	bt r2, .LBB1_7
.Ltmp44:
	.loc	2 340 9
	ldaw r0, r0[3]
	bu .LBB1_9
.Ltmp45:
.LBB1_7:
	ldc r2, 1292
	.loc	2 338 9
	{
		add r0, r0, r2
		nop
	}
.Ltmp46:
.LBB1_9:
	ldc r2, 72
	.loc	2 340 9
	{
		add r2, r4, r2
		nop
	}
	{
		nop
		stw r0, r2[0]
	}
	ldc r0, 64
.Ltmp47:
	.loc	2 342 5
	{
		add r6, r4, r0
		mkmsk r5, 1
	}
	.loc	2 342 5
	{
		mov r0, r7
		stw r5, r6[0]
	}
	.loc	2 345 8
.Ltmp48:
	bl FIR_init_from_desc
.Ltmp49:
	bt r0, .LBB1_22
.Ltmp50:
	{
		nop
		stw r7, sp[4]
	}
	{
		nop
		ldw r0, r8[0]
	}
	.loc	2 349 9
.Ltmp51:
	{
		eq r1, r0, 11
		ldc r0, 60
	}
	{
		add r0, r4, r0
		nop
	}
	{
		nop
		ldw r0, r0[0]
	}
	bt r1, .LBB1_12
.Ltmp52:
	{
		nop
		stw r0, r4[5]
	}
.Ltmp53:
.LBB1_12:
	.loc	2 355 5
	{
		ldc r2, 12
		ldw r1, r8[1]
	}
	.loc	2 355 5
	mul r1, r1, r2
	.loc	2 332 5
	ldaw r2, dp[sASRCFirDescriptor]
	.loc	2 355 5
	{
		add r1, r2, r1
		nop
	}
.Ltmp54:
	ldc r2, 104
	.loc	2 357 5
	{
		add r7, r4, r2
		nop
	}
	ldc r2, 112
	.loc	2 357 5
	{
		add r2, r4, r2
		nop
	}
	{
		nop
		stw r0, r2[0]
	}
	{
		nop
		ldw r0, r6[0]
	}
	ldc r2, 116
	.loc	2 358 5
	{
		add r2, r4, r2
		nop
	}
	{
		nop
		stw r0, r2[0]
	}
	{
		nop
		ldw r0, r9[0]
	}
	.loc	2 360 5
	ldaw r0, r0[3]
	ldc r2, 136
	.loc	2 360 5
	{
		add r2, r4, r2
		nop
	}
	{
		nop
		stw r0, r2[0]
	}
	ldc r0, 128
	.loc	2 362 5
	{
		add r0, r4, r0
		mkmsk r5, 1
	}
	.loc	2 362 5
	{
		mov r0, r7
		stw r5, r0[0]
	}
	.loc	2 365 8
.Ltmp55:
	bl FIR_init_from_desc
.Ltmp56:
	bt r0, .LBB1_22
.Ltmp57:
	.loc	2 355 5
	{
		add r0, r8, 4
		nop
	}
	{
		nop
		ldw r0, r0[0]
	}
	.loc	2 369 9
.Ltmp58:
	{
		eq r0, r0, 11
		nop
	}
	bt r0, .LBB1_15
.Ltmp59:
	ldc r0, 124
	.loc	2 370 9
	{
		add r0, r4, r0
		nop
	}
	{
		nop
		ldw r0, r0[0]
	}
	{
		nop
		stw r0, r4[5]
	}
.Ltmp60:
.LBB1_15:
	{
		nop
		ldw r0, r10[0]
	}
	ldc r1, 108
	.loc	2 377 5
	{
		add r1, r4, r1
		nop
	}
	.loc	2 377 5
	{
		ldc r1, 56
		stw r0, r1[0]
	}
	.loc	2 378 5
	{
		add r1, r4, r1
		nop
	}
	{
		nop
		stw r0, r1[0]
	}
	ldc r1, 120
	.loc	2 379 5
	{
		add r1, r4, r1
		nop
	}
	{
		nop
		stw r0, r1[0]
	}
	{
		nop
		ldw r0, r9[0]
	}
	ldc r1, 1548
	.loc	2 388 5
	{
		add r0, r0, r1
		nop
	}
	ldc r1, 168
	.loc	2 388 5
	{
		add r8, r4, r1
		nop
	}
	ldc r1, 176
	.loc	2 388 5
	{
		add r1, r4, r1
		nop
	}
	{
		nop
		stw r0, r1[0]
	}
	ldc r0, 240
	.loc	2 390 5
	{
		add r0, r4, r0
		nop
	}
	{
		nop
		ldw r0, r0[0]
	}
	ldc r1, 200
	.loc	2 390 5
	{
		add r1, r4, r1
		nop
	}
	{
		nop
		stw r0, r1[0]
	}
	.loc	2 393 8
.Ltmp61:
	ldaw r1, dp[sADFirDescriptor]
.Ltmp62:
	{
		mov r0, r8
		nop
	}
	bl ADFIR_init_from_desc
.Ltmp63:
	ldc r6, 96
	{
		nop
		ldw r1, sp[4]
	}
	bt r0, .LBB1_22
.Ltmp64:
	.loc	2 414 8
	{
		mov r0, r1
		nop
	}
	bl FIR_sync
	bt r0, .LBB1_22
.Ltmp65:
	.loc	2 416 8
	{
		mov r0, r7
		nop
	}
	bl FIR_sync
	bt r0, .LBB1_22
.Ltmp66:
	.loc	2 419 8
	{
		mov r0, r8
		nop
	}
	bl ADFIR_sync
	bt r0, .LBB1_22
.Ltmp67:
	ldc r0, 208
	.loc	2 423 5
	{
		add r0, r4, r0
		nop
	}
	ldc r1, 160
	{
		nop
		stw r1, r0[0]
	}
	ldc r0, 212
	.loc	2 424 5
	{
		add r1, r4, r0
		ldc r0, 0
	}
	{
		nop
		stw r0, r1[0]
	}
	ldc r1, 228
	.loc	2 427 5
	{
		add r1, r4, r1
		nop
	}
	{
		nop
		ldw r1, r1[0]
	}
	{
		nop
		ldw r2, r9[0]
	}
.Ltmp68:
	{
		nop
		stw r1, r2[2]
	}
	{
		nop
		ldw r1, sp[5]
	}
	{
		nop
		ldw r1, r1[0]
	}
.Ltmp69:
	{
		nop
		ldw r2, r4[9]
	}
	{
		nop
		ldw r3, r4[6]
	}
	.loc	2 482 9
.Ltmp70:
	mul r3, r3, r6
.Ltmp71:
	.loc	2 316 5
	ldaw r11, dp[sFsRatioConfigs]
	.loc	2 482 9
.Ltmp72:
	{
		add r3, r11, r3
		shl r2, r2, 4
	}
	{
		add r2, r3, r2
		nop
	}
	{
		nop
		ldw r3, r2[1]
	}
	.loc	2 482 9
	{
		lsu r3, r1, r3
		nop
	}
	bt r3, .LBB1_22
.Ltmp73:
	{
		nop
		ldw r3, r2[2]
	}
	.loc	2 482 9
	{
		lsu r3, r3, r1
		nop
	}
	bt r3, .LBB1_22
.Ltmp74:
	{
		nop
		ldw r2, r2[3]
	}
	.loc	2 487 5
	{
		shr r3, r1, r2
		nop
	}
	ldc r11, 216
	.loc	2 487 5
	{
		add r11, r4, r11
		nop
	}
	.loc	2 487 5
	{
		ldc r3, 32
		stw r3, r11[0]
	}
	.loc	2 488 5
	{
		sub r2, r3, r2
		nop
	}
	.loc	2 488 5
	{
		shl r1, r1, r2
		nop
	}
.Ltmp75:
	ldc r2, 220
	.loc	2 488 5
	{
		add r2, r4, r2
		nop
	}
	.loc	2 488 5
	{
		mov r5, r0
		stw r1, r2[0]
	}
.Ltmp76:
.LBB1_22:
	.loc	2 401 1
	{
		mov r0, r5
		ldw r10, sp[12]
	}
	ldd r9, r8, sp[5]
	ldd r7, r6, sp[4]
	ldd r5, r4, sp[3]
	{
		nop
		retsp 14
	}
	# RETURN_REG_HOLDER
.Ltmp77:
	.cc_bottom ASRC_init.function
	.set	ASRC_init.nstackwords,((FIR_init_from_desc.nstackwords $M ADFIR_init_from_desc.nstackwords $M FIR_sync.nstackwords $M ADFIR_sync.nstackwords) + 14)
	.globl	ASRC_init.nstackwords
	.set	ASRC_init.maxcores,ADFIR_init_from_desc.maxcores $M ADFIR_sync.maxcores $M FIR_init_from_desc.maxcores $M FIR_sync.maxcores $M 1
	.globl	ASRC_init.maxcores
	.set	ASRC_init.maxtimers,ADFIR_init_from_desc.maxtimers $M ADFIR_sync.maxtimers $M FIR_init_from_desc.maxtimers $M FIR_sync.maxtimers $M 0
	.globl	ASRC_init.maxtimers
	.set	ASRC_init.maxchanends,ADFIR_init_from_desc.maxchanends $M ADFIR_sync.maxchanends $M FIR_init_from_desc.maxchanends $M FIR_sync.maxchanends $M 0
	.globl	ASRC_init.maxchanends
.Ltmp78:
	.size	ASRC_init, .Ltmp78-ASRC_init
.Lfunc_end1:
	.cfi_endproc

	.globl	ASRC_sync
	.align	4
	.type	ASRC_sync,@function
	.cc_top ASRC_sync.function,ASRC_sync
ASRC_sync:
.Lfunc_begin2:
	.loc	2 412 0
	.cfi_startproc
	.issue_mode dual
	{
		nop
		dualentsp 4
	}
.Ltmp79:
	.cfi_def_cfa_offset 16
.Ltmp80:
	.cfi_offset 15, 0
	std r5, r4, sp[1]
.Ltmp81:
	.cfi_offset 4, -8
.Ltmp82:
	.cfi_offset 5, -4
	{
		mov r4, r0
		nop
	}
.Ltmp83:
	.loc	2 414 8 prologue_end
	ldaw r0, r4[10]
	.loc	2 414 8
	bl FIR_sync
	{
		mkmsk r5, 1
		nop
	}
	bt r0, .LBB2_6
.Ltmp84:
	ldc r0, 104
	.loc	2 416 8
.Ltmp85:
	{
		add r0, r4, r0
		nop
	}
	.loc	2 416 8
	bl FIR_sync
	bt r0, .LBB2_6
.Ltmp86:
	ldc r0, 168
	.loc	2 419 8
.Ltmp87:
	{
		add r0, r4, r0
		nop
	}
	.loc	2 419 8
	bl ADFIR_sync
	bt r0, .LBB2_6
.Ltmp88:
	ldc r0, 208
	.loc	2 423 5
	{
		add r0, r4, r0
		nop
	}
	ldc r1, 160
	{
		nop
		stw r1, r0[0]
	}
	ldc r0, 212
	.loc	2 424 5
	{
		add r1, r4, r0
		ldc r0, 0
	}
	{
		nop
		stw r0, r1[0]
	}
	ldc r1, 228
	.loc	2 427 5
	{
		add r1, r4, r1
		nop
	}
	{
		nop
		ldw r1, r1[0]
	}
	ldc r2, 232
	.loc	2 427 5
	{
		add r2, r4, r2
		nop
	}
	{
		nop
		ldw r2, r2[0]
	}
	{
		nop
		stw r1, r2[2]
	}
	ldc r1, 204
.Ltmp89:
	.loc	2 479 5
	{
		add r1, r4, r1
		nop
	}
	{
		nop
		ldw r1, r1[0]
	}
.Ltmp90:
	{
		nop
		ldw r2, r4[9]
	}
	{
		nop
		ldw r3, r4[6]
	}
	ldc r11, 96
	.loc	2 482 9
.Ltmp91:
	mul r3, r3, r11
	ldaw r11, dp[sFsRatioConfigs]
	{
		add r3, r11, r3
		shl r2, r2, 4
	}
	{
		add r2, r3, r2
		nop
	}
	{
		nop
		ldw r3, r2[1]
	}
	.loc	2 482 9
	{
		lsu r3, r1, r3
		nop
	}
	bt r3, .LBB2_6
.Ltmp92:
	{
		nop
		ldw r3, r2[2]
	}
	.loc	2 482 9
	{
		lsu r3, r3, r1
		nop
	}
	bt r3, .LBB2_6
.Ltmp93:
	{
		nop
		ldw r2, r2[3]
	}
	.loc	2 487 5
	{
		shr r3, r1, r2
		nop
	}
	ldc r11, 216
	.loc	2 487 5
	{
		add r11, r4, r11
		nop
	}
	.loc	2 487 5
	{
		ldc r3, 32
		stw r3, r11[0]
	}
	.loc	2 488 5
	{
		sub r2, r3, r2
		nop
	}
	.loc	2 488 5
	{
		shl r1, r1, r2
		nop
	}
.Ltmp94:
	ldc r2, 220
	.loc	2 488 5
	{
		add r2, r4, r2
		nop
	}
	.loc	2 488 5
	{
		mov r5, r0
		stw r1, r2[0]
	}
.Ltmp95:
.LBB2_6:
	.loc	2 434 1
	{
		mov r0, r5
		nop
	}
	ldd r5, r4, sp[1]
	{
		nop
		retsp 4
	}
	# RETURN_REG_HOLDER
.Ltmp96:
	.cc_bottom ASRC_sync.function
	.set	ASRC_sync.nstackwords,((FIR_sync.nstackwords $M ADFIR_sync.nstackwords) + 4)
	.globl	ASRC_sync.nstackwords
	.set	ASRC_sync.maxcores,ADFIR_sync.maxcores $M FIR_sync.maxcores $M 1
	.globl	ASRC_sync.maxcores
	.set	ASRC_sync.maxtimers,ADFIR_sync.maxtimers $M FIR_sync.maxtimers $M 0
	.globl	ASRC_sync.maxtimers
	.set	ASRC_sync.maxchanends,ADFIR_sync.maxchanends $M FIR_sync.maxchanends $M 0
	.globl	ASRC_sync.maxchanends
.Ltmp97:
	.size	ASRC_sync, .Ltmp97-ASRC_sync
.Lfunc_end2:
	.cfi_endproc

	.globl	ASRC_update_fs_ratio
	.align	4
	.type	ASRC_update_fs_ratio,@function
	.cc_top ASRC_update_fs_ratio.function,ASRC_update_fs_ratio
ASRC_update_fs_ratio:
.Lfunc_begin3:
	.loc	2 478 0
	.cfi_startproc
	.issue_mode dual
	{
		nop
		dualentsp 0
	}
	ldc r1, 204
	.loc	2 479 5 prologue_end
.Ltmp98:
	{
		add r1, r0, r1
		nop
	}
	{
		nop
		ldw r2, r1[0]
	}
.Ltmp99:
	{
		nop
		ldw r1, r0[9]
	}
	{
		nop
		ldw r3, r0[6]
	}
	ldc r11, 96
	.loc	2 482 9
.Ltmp100:
	mul r3, r3, r11
	ldaw r11, dp[sFsRatioConfigs]
	{
		add r3, r11, r3
		shl r1, r1, 4
	}
	{
		add r3, r3, r1
		nop
	}
	{
		nop
		ldw r1, r3[1]
	}
	.loc	2 482 9
	{
		lsu r11, r2, r1
		mkmsk r1, 1
	}
	bt r11, .LBB3_3
.Ltmp101:
	{
		nop
		ldw r11, r3[2]
	}
	.loc	2 482 9
	{
		lsu r11, r11, r2
		nop
	}
	bt r11, .LBB3_3
.Ltmp102:
	{
		nop
		ldw r1, r3[3]
	}
	.loc	2 487 5
	{
		shr r3, r2, r1
		nop
	}
	ldc r11, 216
	.loc	2 487 5
	{
		add r11, r0, r11
		nop
	}
	.loc	2 487 5
	{
		ldc r3, 32
		stw r3, r11[0]
	}
	.loc	2 488 5
	{
		sub r1, r3, r1
		nop
	}
	.loc	2 488 5
	{
		shl r1, r2, r1
		nop
	}
	ldc r2, 220
.Ltmp103:
	.loc	2 488 5
	{
		add r0, r0, r2
		nop
	}
.Ltmp104:
	.loc	2 488 5
	{
		ldc r1, 0
		stw r1, r0[0]
	}
.LBB3_3:
	.loc	2 491 1
	{
		mov r0, r1
		retsp 0
	}
	# RETURN_REG_HOLDER
.Ltmp105:
	.cc_bottom ASRC_update_fs_ratio.function
	.set	ASRC_update_fs_ratio.nstackwords,0
	.globl	ASRC_update_fs_ratio.nstackwords
	.set	ASRC_update_fs_ratio.maxcores,1
	.globl	ASRC_update_fs_ratio.maxcores
	.set	ASRC_update_fs_ratio.maxtimers,0
	.globl	ASRC_update_fs_ratio.maxtimers
	.set	ASRC_update_fs_ratio.maxchanends,0
	.globl	ASRC_update_fs_ratio.maxchanends
.Ltmp106:
	.size	ASRC_update_fs_ratio, .Ltmp106-ASRC_update_fs_ratio
.Lfunc_end3:
	.cfi_endproc

	.globl	ASRC_proc_F1_F2
	.align	4
	.type	ASRC_proc_F1_F2,@function
	.cc_top ASRC_proc_F1_F2.function,ASRC_proc_F1_F2
ASRC_proc_F1_F2:
.Lfunc_begin4:
	.loc	2 448 0
	.cfi_startproc
	.issue_mode dual
	{
		nop
		dualentsp 4
	}
.Ltmp107:
	.cfi_def_cfa_offset 16
.Ltmp108:
	.cfi_offset 15, 0
	std r5, r4, sp[1]
.Ltmp109:
	.cfi_offset 4, -8
.Ltmp110:
	.cfi_offset 5, -4
	{
		mov r5, r0
		nop
	}
.Ltmp111:
	{
		nop
		ldw r1, r5[3]
	}
	.loc	2 451 5 prologue_end
.Ltmp112:
	ldaw r0, r5[10]
	{
		nop
		stw r1, r5[11]
	}
	ldc r1, 68
	.loc	2 454 8
.Ltmp113:
	{
		add r1, r5, r1
		nop
	}
	{
		nop
		ldw r1, r1[0]
	}
	{
		nop
		bla r1
	}
	{
		mkmsk r4, 1
		nop
	}
	bt r0, .LBB4_4
.Ltmp114:
	ldc r0, 104
	.loc	2 458 8
.Ltmp115:
	{
		add r0, r5, r0
		nop
	}
	{
		nop
		ldw r1, r0[0]
	}
	.loc	2 458 8
	{
		eq r1, r1, 1
		nop
	}
	bf r1, .LBB4_3
.Ltmp116:
	ldc r1, 132
	.loc	2 461 12
.Ltmp117:
	{
		add r1, r5, r1
		nop
	}
	{
		nop
		ldw r1, r1[0]
	}
	{
		nop
		bla r1
	}
	bt r0, .LBB4_4
.Ltmp118:
.LBB4_3:
	{
		ldc r4, 0
		nop
	}
.LBB4_4:
	.loc	2 467 1
	{
		mov r0, r4
		nop
	}
	ldd r5, r4, sp[1]
	{
		nop
		retsp 4
	}
	# RETURN_REG_HOLDER
.Ltmp119:
	.cc_bottom ASRC_proc_F1_F2.function
	.set	ASRC_proc_F1_F2.nstackwords,(_fptrgroup.G1.nstackwords + 4)
	.globl	ASRC_proc_F1_F2.nstackwords
	.set	ASRC_proc_F1_F2.maxcores,_fptrgroup.G1.maxcores $M 1
	.globl	ASRC_proc_F1_F2.maxcores
	.set	ASRC_proc_F1_F2.maxtimers,_fptrgroup.G1.maxtimers $M 0
	.globl	ASRC_proc_F1_F2.maxtimers
	.set	ASRC_proc_F1_F2.maxchanends,_fptrgroup.G1.maxchanends $M 0
	.globl	ASRC_proc_F1_F2.maxchanends
.Ltmp120:
	.size	ASRC_proc_F1_F2, .Ltmp120-ASRC_proc_F1_F2
.Lfunc_end4:
	.cfi_endproc

	.section	.cp.rodata.cst4,"aMc",@progbits,4
	.cc_top .LCPI5_0.data,.LCPI5_0
	.align	4
	.type	.LCPI5_0,@object
	.size	.LCPI5_0, 4
.LCPI5_0:
	.long	4294967168
	.cc_bottom .LCPI5_0.data
	.text
	.globl	ASRC_proc_F3_in_spl
	.align	4
	.type	ASRC_proc_F3_in_spl,@function
	.cc_top ASRC_proc_F3_in_spl.function,ASRC_proc_F3_in_spl
ASRC_proc_F3_in_spl:
.Lfunc_begin5:
	.loc	2 503 0
	.cfi_startproc
	.issue_mode dual
	{
		nop
		dualentsp 4
	}
.Ltmp121:
	.cfi_def_cfa_offset 16
.Ltmp122:
	.cfi_offset 15, 0
.Ltmp123:
	.cfi_offset 4, -8
.Ltmp124:
	{
		mov r4, r0
		stw r4, sp[2]
	}
.Ltmp125:
	ldc r0, 168
	.loc	2 504 5 prologue_end
.Ltmp126:
	{
		add r0, r4, r0
		nop
	}
	{
		nop
		stw r1, r0[0]
	}
	.loc	2 505 8
.Ltmp127:
	bl ADFIR_proc_in_spl
.Ltmp128:
	.loc	2 505 8
	bf r0, .LBB5_2
.Ltmp129:
	{
		mkmsk r0, 1
		nop
	}
	bu .LBB5_3
.LBB5_2:
.Ltmp130:
	ldc r0, 208
	.loc	2 509 5
	{
		add r0, r4, r0
		nop
	}
	{
		nop
		ldw r1, r0[0]
	}
	ldw r2, cp[.LCPI5_0]
	.loc	2 509 5
	{
		add r1, r1, r2
		nop
	}
	.loc	2 509 5
	{
		ldc r0, 0
		stw r1, r0[0]
	}
.Ltmp131:
.LBB5_3:
	{
		nop
		ldw r4, sp[2]
	}
	{
		nop
		retsp 4
	}
	.loc	2 512 1
	# RETURN_REG_HOLDER
.Ltmp132:
	.cc_bottom ASRC_proc_F3_in_spl.function
	.set	ASRC_proc_F3_in_spl.nstackwords,(ADFIR_proc_in_spl.nstackwords + 4)
	.globl	ASRC_proc_F3_in_spl.nstackwords
	.set	ASRC_proc_F3_in_spl.maxcores,ADFIR_proc_in_spl.maxcores $M 1
	.globl	ASRC_proc_F3_in_spl.maxcores
	.set	ASRC_proc_F3_in_spl.maxtimers,ADFIR_proc_in_spl.maxtimers $M 0
	.globl	ASRC_proc_F3_in_spl.maxtimers
	.set	ASRC_proc_F3_in_spl.maxchanends,ADFIR_proc_in_spl.maxchanends $M 0
	.globl	ASRC_proc_F3_in_spl.maxchanends
.Ltmp133:
	.size	ASRC_proc_F3_in_spl, .Ltmp133-ASRC_proc_F3_in_spl
.Lfunc_end5:
	.cfi_endproc

	.section	.cp.rodata.cst4,"aMc",@progbits,4
	.cc_top .LCPI6_0.data,.LCPI6_0
	.align	4
	.type	.LCPI6_0,@object
	.size	.LCPI6_0, 4
.LCPI6_0:
	.long	1073741824
	.cc_bottom .LCPI6_0.data
	.text
	.globl	ASRC_proc_F3_time
	.align	4
	.type	ASRC_proc_F3_time,@function
	.cc_top ASRC_proc_F3_time.function,ASRC_proc_F3_time
ASRC_proc_F3_time:
.Lfunc_begin6:
	.loc	2 523 0
	.cfi_startproc
	.issue_mode dual
	{
		nop
		dualentsp 10
	}
.Ltmp134:
	.cfi_def_cfa_offset 40
.Ltmp135:
	.cfi_offset 15, 0
	std r5, r4, sp[2]
.Ltmp136:
	.cfi_offset 4, -24
.Ltmp137:
	.cfi_offset 5, -20
	std r7, r6, sp[3]
.Ltmp138:
	.cfi_offset 6, -16
.Ltmp139:
	.cfi_offset 7, -12
.Ltmp140:
	.cfi_offset 8, -8
.Ltmp141:
	{
		mov r5, r0
		stw r8, sp[8]
	}
.Ltmp142:
	ldc r0, 208
	.loc	2 538 8 prologue_end
.Ltmp143:
	{
		add r6, r5, r0
		nop
	}
	.loc	2 538 8
	{
		mkmsk r1, 7
		ldw r0, r6[0]
	}
	.loc	2 538 8
	{
		lss r1, r1, r0
		nop
	}
	.loc	2 538 8
	bf r1, .LBB6_2
.Ltmp144:
	{
		mkmsk r4, 1
		nop
	}
	bu .LBB6_4
.LBB6_2:
.Ltmp145:
	ldc r1, 212
	.loc	2 553 5
	{
		add r7, r5, r1
		nop
	}
	{
		nop
		ldw r1, r7[0]
	}
.Ltmp146:
	.loc	2 553 5
	{
		shr r1, r1, 1
		ldc r4, 0
	}
.Ltmp147:
	.loc	2 554 5
	lmul r2, r3, r1, r1, r4, r4
	.loc	2 556 5
	{
		add r3, r2, r2
		stw r2, sp[1]
	}
	ldw r11, cp[.LCPI6_0]
	.loc	2 559 5
	{
		add r8, r1, r11
		nop
	}
	.loc	2 560 5
	{
		sub r3, r8, r3
		nop
	}
	.loc	2 560 5
	{
		sub r1, r11, r1
		stw r3, sp[2]
	}
	.loc	2 562 5
	{
		add r1, r1, r2
		nop
	}
	.loc	2 562 5
	{
		shl r0, r0, 6
		stw r1, sp[3]
	}
	.loc	2 565 5
	ldaw r1, dp[iADFirCoefs]
	{
		add r0, r1, r0
		nop
	}
.Ltmp148:
	ldc r1, 240
	.loc	2 568 5
	{
		add r1, r5, r1
		nop
	}
.Ltmp149:
	.loc	2 568 5
	{
		ldaw r1, sp[1]
		ldw r2, r1[0]
	}
.Ltmp150:
	{
		ldc r3, 16
		nop
	}
	.loc	2 570 5
	bl src_mrhf_spline_coeff_gen_inner_loop_asm
.Ltmp151:
	ldc r0, 216
	.loc	2 575 5
	{
		add r0, r5, r0
		nop
	}
	{
		nop
		ldw r0, r0[0]
	}
	{
		nop
		ldw r1, r6[0]
	}
	.loc	2 575 5
	{
		add r0, r1, r0
		nop
	}
	{
		nop
		stw r0, r6[0]
	}
	{
		nop
		ldw r1, r7[0]
	}
.Ltmp152:
	ldc r2, 220
	.loc	2 578 5
	{
		add r2, r5, r2
		nop
	}
	{
		nop
		ldw r2, r2[0]
	}
	.loc	2 578 5
	{
		add r2, r1, r2
		nop
	}
	.loc	2 578 5
	{
		lsu r1, r2, r1
		stw r2, r7[0]
	}
.Ltmp153:
	bf r1, .LBB6_4
.Ltmp154:
	.loc	2 580 9
	{
		add r0, r0, 1
		nop
	}
	{
		nop
		stw r0, r6[0]
	}
.Ltmp155:
.LBB6_4:
	.loc	2 589 1
	{
		mov r0, r4
		ldw r8, sp[8]
	}
	ldd r7, r6, sp[3]
	ldd r5, r4, sp[2]
	{
		nop
		retsp 10
	}
	# RETURN_REG_HOLDER
.Ltmp156:
	.cc_bottom ASRC_proc_F3_time.function
	.set	ASRC_proc_F3_time.nstackwords,(src_mrhf_spline_coeff_gen_inner_loop_asm.nstackwords + 10)
	.globl	ASRC_proc_F3_time.nstackwords
	.set	ASRC_proc_F3_time.maxcores,src_mrhf_spline_coeff_gen_inner_loop_asm.maxcores $M 1
	.globl	ASRC_proc_F3_time.maxcores
	.set	ASRC_proc_F3_time.maxtimers,src_mrhf_spline_coeff_gen_inner_loop_asm.maxtimers $M 0
	.globl	ASRC_proc_F3_time.maxtimers
	.set	ASRC_proc_F3_time.maxchanends,src_mrhf_spline_coeff_gen_inner_loop_asm.maxchanends $M 0
	.globl	ASRC_proc_F3_time.maxchanends
.Ltmp157:
	.size	ASRC_proc_F3_time, .Ltmp157-ASRC_proc_F3_time
.Lfunc_end6:
	.cfi_endproc

	.globl	ASRC_proc_F3_macc
	.align	4
	.type	ASRC_proc_F3_macc,@function
	.cc_top ASRC_proc_F3_macc.function,ASRC_proc_F3_macc
ASRC_proc_F3_macc:
.Lfunc_begin7:
	.loc	2 601 0
	.cfi_startproc
	.issue_mode dual
	{
		nop
		dualentsp 4
	}
.Ltmp158:
	.cfi_def_cfa_offset 16
.Ltmp159:
	.cfi_offset 15, 0
.Ltmp160:
	.cfi_offset 4, -8
.Ltmp161:
	{
		mov r4, r0
		stw r4, sp[2]
	}
.Ltmp162:
	ldc r0, 168
	.loc	2 602 5 prologue_end
.Ltmp163:
	{
		add r0, r4, r0
		nop
	}
	ldc r2, 172
	.loc	2 602 5
	{
		add r2, r4, r2
		nop
	}
	{
		nop
		stw r1, r2[0]
	}
	.loc	2 604 8
.Ltmp164:
	bl ADFIR_proc_macc
.Ltmp165:
	.loc	2 604 8
	bf r0, .LBB7_2
.Ltmp166:
	{
		mkmsk r0, 1
		nop
	}
	bu .LBB7_3
.LBB7_2:
.Ltmp167:
	{
		nop
		ldw r0, r4[8]
	}
	.loc	2 607 5
	{
		add r0, r0, 1
		nop
	}
	.loc	2 607 5
	{
		ldc r0, 0
		stw r0, r4[8]
	}
.Ltmp168:
.LBB7_3:
	{
		nop
		ldw r4, sp[2]
	}
	{
		nop
		retsp 4
	}
	.loc	2 610 1
	# RETURN_REG_HOLDER
.Ltmp169:
	.cc_bottom ASRC_proc_F3_macc.function
	.set	ASRC_proc_F3_macc.nstackwords,(ADFIR_proc_macc.nstackwords + 4)
	.globl	ASRC_proc_F3_macc.nstackwords
	.set	ASRC_proc_F3_macc.maxcores,ADFIR_proc_macc.maxcores $M 1
	.globl	ASRC_proc_F3_macc.maxcores
	.set	ASRC_proc_F3_macc.maxtimers,ADFIR_proc_macc.maxtimers $M 0
	.globl	ASRC_proc_F3_macc.maxtimers
	.set	ASRC_proc_F3_macc.maxchanends,ADFIR_proc_macc.maxchanends $M 0
	.globl	ASRC_proc_F3_macc.maxchanends
.Ltmp170:
	.size	ASRC_proc_F3_macc, .Ltmp170-ASRC_proc_F3_macc
.Lfunc_end7:
	.cfi_endproc

	.section	.cp.rodata.cst4,"aMc",@progbits,4
	.cc_top .LCPI8_0.data,.LCPI8_0
	.align	4
	.type	.LCPI8_0,@object
	.size	.LCPI8_0, 4
.LCPI8_0:
	.long	1664525
	.cc_bottom .LCPI8_0.data
	.cc_top .LCPI8_1.data,.LCPI8_1
	.align	4
	.type	.LCPI8_1,@object
	.size	.LCPI8_1, 4
.LCPI8_1:
	.long	4294967232
	.cc_bottom .LCPI8_1.data
	.cc_top .LCPI8_2.data,.LCPI8_2
	.align	4
	.type	.LCPI8_2,@object
	.size	.LCPI8_2, 4
.LCPI8_2:
	.long	2147483647
	.cc_bottom .LCPI8_2.data
	.cc_top .LCPI8_3.data,.LCPI8_3
	.align	4
	.type	.LCPI8_3,@object
	.size	.LCPI8_3, 4
.LCPI8_3:
	.long	4294967040
	.cc_bottom .LCPI8_3.data
	.text
	.globl	ASRC_proc_dither
	.align	4
	.type	ASRC_proc_dither,@function
	.cc_top ASRC_proc_dither.function,ASRC_proc_dither
ASRC_proc_dither:
.Lfunc_begin8:
	.loc	2 621 0
	.cfi_startproc
	.issue_mode dual
	{
		nop
		dualentsp 14
	}
.Ltmp171:
	.cfi_def_cfa_offset 56
.Ltmp172:
	.cfi_offset 15, 0
	std r5, r4, sp[3]
.Ltmp173:
	.cfi_offset 4, -32
.Ltmp174:
	.cfi_offset 5, -28
	std r7, r6, sp[4]
.Ltmp175:
	.cfi_offset 6, -24
.Ltmp176:
	.cfi_offset 7, -20
	std r9, r8, sp[5]
.Ltmp177:
	.cfi_offset 8, -16
.Ltmp178:
	.cfi_offset 9, -12
	{
		nop
		stw r10, sp[12]
	}
.Ltmp179:
	.cfi_offset 10, -8
	ldc r1, 224
.Ltmp180:
	.loc	2 630 8 prologue_end
	{
		add r2, r0, r1
		mov r1, r0
	}
.Ltmp181:
	{
		nop
		ldw r0, r2[0]
	}
	.loc	2 630 8
	{
		eq r0, r0, 1
		nop
	}
	bf r0, .LBB8_6
.Ltmp182:
	ldc r0, 232
	{
		mov r2, r1
		nop
	}
.Ltmp183:
	.loc	2 635 9
	{
		add r3, r2, r0
		stw r2, sp[3]
	}
	{
		nop
		ldw r0, r3[0]
	}
	{
		nop
		ldw r8, r0[2]
	}
.Ltmp184:
	{
		nop
		ldw r1, r2[8]
	}
	{
		nop
		ldw r2, r2[2]
	}
.Ltmp185:
	.loc	2 638 9
	mul r1, r2, r1
	bf r1, .LBB8_5
.Ltmp186:
	{
		nop
		stw r3, sp[2]
	}
	{
		nop
		ldw r0, sp[3]
	}
.Ltmp187:
	.loc	2 633 9
	{
		ldc r9, 0
		ldw r2, r0[7]
	}
.Ltmp188:
	ldw r6, cp[.LCPI8_0]
	ldc r5, 32767
	{
		ldaw r4, sp[4]
		nop
	}
.Ltmp189:
.LBB8_3:
	.loc	2 643 13
	mul r0, r8, r6
.Ltmp190:
	.loc	2 644 13
	{
		add r0, r0, r5
		nop
	}
.Ltmp191:
	.loc	2 645 13
	{
		shr r1, r0, 16
		nop
	}
	.loc	2 645 13
	{
		zext r1, 7
		nop
	}
	.loc	2 647 13
	mul r0, r0, r6
	.loc	2 648 13
	{
		add r8, r0, r5
		nop
	}
	.loc	2 649 13
	{
		shr r0, r8, 16
		nop
	}
	.loc	2 649 13
	{
		zext r0, 7
		nop
	}
	.loc	2 645 13
	{
		add r0, r1, r0
		nop
	}
	ldw r1, cp[.LCPI8_1]
.Ltmp192:
	.loc	2 649 13
	{
		add r0, r0, r1
		ldc r1, 0
	}
.Ltmp193:
	.loc	2 656 13
	std r0, r1, sp[2]
	{
		mov r7, r2
		nop
	}
.Ltmp194:
	.loc	2 657 13
	ldaw r10, r7[r9]
.Ltmp195:
	.loc	2 657 13
	{
		mov r0, r4
		ldw r1, r7[r9]
	}
	ldw r2, cp[.LCPI8_2]
	.loc	2 657 13
	bl MACC
	.loc	2 658 13
	{
		mov r0, r4
		nop
	}
	bl LSAT30
	.loc	2 660 13
	ldd r2, r1, sp[2]
	.loc	2 660 13
	{
		mov r0, r10
		nop
	}
	bl EXT30
	{
		nop
		ldw r0, r7[r9]
	}
	ldw r1, cp[.LCPI8_3]
	.loc	2 663 13
	{
		and r0, r0, r1
		nop
	}
	.loc	2 663 13
	stw r0, r7[r9]
.Ltmp196:
	{
		mov r2, r7
		ldw r1, sp[3]
	}
.Ltmp197:
	{
		nop
		ldw r0, r1[2]
	}
.Ltmp198:
	.loc	2 638 83
	{
		add r9, r0, r9
		ldw r1, r1[8]
	}
.Ltmp199:
	.loc	2 638 9
	mul r0, r0, r1
	.loc	2 638 9
	{
		lsu r0, r9, r0
		nop
	}
	.loc	2 638 9
	bt r0, .LBB8_3
.Ltmp200:
	{
		nop
		ldw r0, sp[2]
	}
	{
		nop
		ldw r0, r0[0]
	}
.LBB8_5:
.Ltmp201:
	{
		nop
		stw r8, r0[2]
	}
.LBB8_6:
	{
		ldc r0, 0
		ldw r10, sp[12]
	}
	.loc	2 671 5
	ldd r9, r8, sp[5]
	ldd r7, r6, sp[4]
	ldd r5, r4, sp[3]
	{
		nop
		retsp 14
	}
	# RETURN_REG_HOLDER
.Ltmp202:
	.cc_bottom ASRC_proc_dither.function
	.set	ASRC_proc_dither.nstackwords,((MACC.nstackwords $M LSAT30.nstackwords $M EXT30.nstackwords) + 14)
	.globl	ASRC_proc_dither.nstackwords
	.set	ASRC_proc_dither.maxcores,EXT30.maxcores $M LSAT30.maxcores $M MACC.maxcores $M 1
	.globl	ASRC_proc_dither.maxcores
	.set	ASRC_proc_dither.maxtimers,EXT30.maxtimers $M LSAT30.maxtimers $M MACC.maxtimers $M 0
	.globl	ASRC_proc_dither.maxtimers
	.set	ASRC_proc_dither.maxchanends,EXT30.maxchanends $M LSAT30.maxchanends $M MACC.maxchanends $M 0
	.globl	ASRC_proc_dither.maxchanends
.Ltmp203:
	.size	ASRC_proc_dither, .Ltmp203-ASRC_proc_dither
.Lfunc_end8:
	.cfi_endproc

	.section	.dp.data,"awd",@progbits
	.cc_top sASRCFiltersIDs.data,sASRCFiltersIDs
	.globl	sASRCFiltersIDs.globound
sASRCFiltersIDs.globound = 6
	.globl	sASRCFiltersIDs
	.align	8
	.type	sASRCFiltersIDs,@object
	.size	sASRCFiltersIDs, 288
sASRCFiltersIDs:
	.long	6
	.long	11
	.long	6
	.long	11
	.long	6
	.long	11
	.long	6
	.long	11
	.long	6
	.long	11
	.long	6
	.long	11
	.long	7
	.long	11
	.long	6
	.long	11
	.long	6
	.long	11
	.long	6
	.long	11
	.long	6
	.long	11
	.long	6
	.long	11
	.long	0
	.long	11
	.long	2
	.long	11
	.long	6
	.long	11
	.long	6
	.long	11
	.long	6
	.long	11
	.long	6
	.long	11
	.long	1
	.long	11
	.long	0
	.long	11
	.long	7
	.long	11
	.long	6
	.long	11
	.long	6
	.long	11
	.long	6
	.long	11
	.long	10
	.long	0
	.long	10
	.long	2
	.long	3
	.long	11
	.long	5
	.long	11
	.long	8
	.long	11
	.long	8
	.long	11
	.long	10
	.long	1
	.long	10
	.long	0
	.long	4
	.long	11
	.long	3
	.long	11
	.long	9
	.long	11
	.long	8
	.long	11
	.cc_bottom sASRCFiltersIDs.data
	.cc_top sFsRatioConfigs.data,sFsRatioConfigs
	.globl	sFsRatioConfigs.globound
sFsRatioConfigs.globound = 6
	.globl	sFsRatioConfigs
	.align	8
	.type	sFsRatioConfigs,@object
	.size	sFsRatioConfigs, 576
sFsRatioConfigs:
	.long	268435456
	.long	265751101
	.long	271119810
	.long	20
	.long	246625075
	.long	244158824
	.long	249091325
	.long	20
	.long	134217728
	.long	132875550
	.long	135559905
	.long	20
	.long	123312537
	.long	122079411
	.long	124545662
	.long	20
	.long	67108864
	.long	66437775
	.long	67779952
	.long	20
	.long	61656268
	.long	61039705
	.long	62272830
	.long	20
	.long	292174645
	.long	289252898
	.long	295096391
	.long	20
	.long	268435456
	.long	265751101
	.long	271119810
	.long	20
	.long	146087322
	.long	144626448
	.long	147548195
	.long	20
	.long	134217728
	.long	132875550
	.long	135559905
	.long	20
	.long	73043661
	.long	72313224
	.long	73774097
	.long	20
	.long	67108864
	.long	66437775
	.long	67779952
	.long	20
	.long	536870912
	.long	531502202
	.long	542239621
	.long	21
	.long	493250150
	.long	488317648
	.long	498182651
	.long	21
	.long	268435456
	.long	265751101
	.long	271119810
	.long	20
	.long	246625075
	.long	244158824
	.long	249091325
	.long	20
	.long	134217728
	.long	132875550
	.long	135559905
	.long	20
	.long	123312537
	.long	122079411
	.long	124545662
	.long	20
	.long	584349291
	.long	578505798
	.long	590192783
	.long	21
	.long	536870912
	.long	531502202
	.long	542239621
	.long	21
	.long	292174645
	.long	289252898
	.long	295096391
	.long	20
	.long	268435456
	.long	265751101
	.long	271119810
	.long	20
	.long	146087322
	.long	144626448
	.long	147548195
	.long	20
	.long	134217728
	.long	132875550
	.long	135559905
	.long	20
	.long	1073741824
	.long	1063004405
	.long	1084479242
	.long	22
	.long	986500300
	.long	976635297
	.long	996365303
	.long	22
	.long	536870912
	.long	531502202
	.long	542239621
	.long	21
	.long	493250150
	.long	488317648
	.long	498182651
	.long	21
	.long	268435456
	.long	265751101
	.long	271119810
	.long	20
	.long	246625075
	.long	244158824
	.long	249091325
	.long	20
	.long	1168698583
	.long	1157011597
	.long	1180385568
	.long	22
	.long	1073741824
	.long	1063004405
	.long	1084479242
	.long	22
	.long	584349291
	.long	578505798
	.long	590192783
	.long	21
	.long	536870912
	.long	531502202
	.long	542239621
	.long	21
	.long	292174645
	.long	289252898
	.long	295096391
	.long	20
	.long	268435456
	.long	265751101
	.long	271119810
	.long	20
	.cc_bottom sFsRatioConfigs.data
.Ldebug_end0:
	.text
.Ldebug_end1:
	.section	.trap_info,"",@progbits
.Ltrap_info_entries_start0:
	.long	.Ltrap_info_entries_end0-.Ltrap_info_entries_start0
	.long	1
.Ltrap_info_entries_end0: