	.text
	.file	"C:/Users/user/workspace/module_vocalfusion/src/vf_control.xc"
                                        # Start of file scope inline assembly
	.set xmos_parameter_bap_tile.enable.savedstate,2
	.globl xmos_parameter_bap_tile.enable.savedstate
	.set xmos_parameter_bap_tile.enable.cases.maxtimers,0 $M xmos_parameter_bap_tile.case.0.maxtimers
	.globl xmos_parameter_bap_tile.enable.cases.maxtimers
	.set xmos_parameter_bap_tile.enable.cases.maxcores,0 $M xmos_parameter_bap_tile.case.0.maxcores
	.globl xmos_parameter_bap_tile.enable.cases.maxcores
	.set xmos_parameter_bap_tile.enable.cases.maxchanends,0 $M xmos_parameter_bap_tile.case.0.maxchanends
	.globl xmos_parameter_bap_tile.enable.cases.maxchanends
	.set xmos_parameter_bap_tile.enable.cases,0
	.globl xmos_parameter_bap_tile.enable.cases
	.set xmos_parameter_bap_tile.enable.cases.nstackwords, 0 $M (xmos_parameter_bap_tile.case.0.nstackwords)
	.globl xmos_parameter_bap_tile.enable.cases.nstackwords
	.set xmos_parameter_aec_tile.enable.savedstate,2
	.globl xmos_parameter_aec_tile.enable.savedstate
	.set xmos_parameter_aec_tile.enable.cases.maxtimers,0 $M xmos_parameter_aec_tile.case.0.maxtimers
	.globl xmos_parameter_aec_tile.enable.cases.maxtimers
	.set xmos_parameter_aec_tile.enable.cases.maxcores,0 $M xmos_parameter_aec_tile.case.0.maxcores
	.globl xmos_parameter_aec_tile.enable.cases.maxcores
	.set xmos_parameter_aec_tile.enable.cases.maxchanends,0 $M xmos_parameter_aec_tile.case.0.maxchanends
	.globl xmos_parameter_aec_tile.enable.cases.maxchanends
	.set xmos_parameter_aec_tile.enable.cases,0
	.globl xmos_parameter_aec_tile.enable.cases
	.set xmos_parameter_aec_tile.enable.cases.nstackwords, 0 $M (xmos_parameter_aec_tile.case.0.nstackwords)
	.globl xmos_parameter_aec_tile.enable.cases.nstackwords
	.set _Sxmos_parameter_aec_tile_0.enable.savedstate,2
	.globl _Sxmos_parameter_aec_tile_0.enable.savedstate
	.set _Sxmos_parameter_aec_tile_0.enable.cases.maxtimers,0 $M _Sxmos_parameter_aec_tile_0.case.0.maxtimers
	.globl _Sxmos_parameter_aec_tile_0.enable.cases.maxtimers
	.set _Sxmos_parameter_aec_tile_0.enable.cases.maxcores,0 $M _Sxmos_parameter_aec_tile_0.case.0.maxcores
	.globl _Sxmos_parameter_aec_tile_0.enable.cases.maxcores
	.set _Sxmos_parameter_aec_tile_0.enable.cases.maxchanends,0 $M _Sxmos_parameter_aec_tile_0.case.0.maxchanends
	.globl _Sxmos_parameter_aec_tile_0.enable.cases.maxchanends
	.set _Sxmos_parameter_aec_tile_0.enable.cases,0
	.globl _Sxmos_parameter_aec_tile_0.enable.cases
	.set _Sxmos_parameter_aec_tile_0.enable.cases.nstackwords, 0 $M (_Sxmos_parameter_aec_tile_0.case.0.nstackwords)
	.globl _Sxmos_parameter_aec_tile_0.enable.cases.nstackwords
	.weak _i.control.register_resources.maxchanends.group
	.max_reduce _i.control.register_resources.max.maxchanends, _i.control.register_resources.maxchanends.group, 0
	.weak _i.control.register_resources.maxcores.group
	.max_reduce _i.control.register_resources.max.maxcores, _i.control.register_resources.maxcores.group, 0
	.weak _i.control.register_resources.maxtimers.group
	.max_reduce _i.control.register_resources.max.maxtimers, _i.control.register_resources.maxtimers.group, 0
	.weak _i.control.register_resources.nstackwords.group
	.globl _i.control.register_resources.nstackwords.group
	.weak _i.control.register_resources.fns.group
	.globl _i.control.register_resources.fns.group
	.max_reduce _i.control.register_resources.max.nstackwords, _i.control.register_resources.nstackwords.group, 0
	.max_reduce _i.control.register_resources.fns, _i.control.register_resources.fns.group, 0
	.weak _i.control.write_command.maxchanends.group
	.max_reduce _i.control.write_command.max.maxchanends, _i.control.write_command.maxchanends.group, 0
	.weak _i.control.write_command.maxcores.group
	.max_reduce _i.control.write_command.max.maxcores, _i.control.write_command.maxcores.group, 0
	.weak _i.control.write_command.maxtimers.group
	.max_reduce _i.control.write_command.max.maxtimers, _i.control.write_command.maxtimers.group, 0
	.weak _i.control.write_command.nstackwords.group
	.globl _i.control.write_command.nstackwords.group
	.weak _i.control.write_command.fns.group
	.globl _i.control.write_command.fns.group
	.max_reduce _i.control.write_command.max.nstackwords, _i.control.write_command.nstackwords.group, 0
	.max_reduce _i.control.write_command.fns, _i.control.write_command.fns.group, 0
	.weak _i.control.read_command.maxchanends.group
	.max_reduce _i.control.read_command.max.maxchanends, _i.control.read_command.maxchanends.group, 0
	.weak _i.control.read_command.maxcores.group
	.max_reduce _i.control.read_command.max.maxcores, _i.control.read_command.maxcores.group, 0
	.weak _i.control.read_command.maxtimers.group
	.max_reduce _i.control.read_command.max.maxtimers, _i.control.read_command.maxtimers.group, 0
	.weak _i.control.read_command.nstackwords.group
	.globl _i.control.read_command.nstackwords.group
	.weak _i.control.read_command.fns.group
	.globl _i.control.read_command.fns.group
	.max_reduce _i.control.read_command.max.nstackwords, _i.control.read_command.nstackwords.group, 0
	.max_reduce _i.control.read_command.fns, _i.control.read_command.fns.group, 0
	.weak _i.control.__interface_init.maxchanends.group
	.max_reduce _i.control.__interface_init.max.maxchanends, _i.control.__interface_init.maxchanends.group, 0
	.weak _i.control.__interface_init.maxcores.group
	.max_reduce _i.control.__interface_init.max.maxcores, _i.control.__interface_init.maxcores.group, 0
	.weak _i.control.__interface_init.maxtimers.group
	.max_reduce _i.control.__interface_init.max.maxtimers, _i.control.__interface_init.maxtimers.group, 0
	.weak _i.control.__interface_init.nstackwords.group
	.globl _i.control.__interface_init.nstackwords.group
	.weak _i.control.__interface_init.fns.group
	.globl _i.control.__interface_init.fns.group
	.max_reduce _i.control.__interface_init.max.nstackwords, _i.control.__interface_init.nstackwords.group, 0
	.max_reduce _i.control.__interface_init.fns, _i.control.__interface_init.fns.group, 0
	.weak _i.control._client_call_y.maxchanends.group
	.add_to_set _i.control._client_call_y.maxchanends.group, (__interface_client_call_y_other.maxchanends + __interface_client_call_y_extra.maxchanends), __interface_client_call_y_other
	.max_reduce _i.control._client_call_y.max.maxchanends, _i.control._client_call_y.maxchanends.group, 0
	.weak _i.control._client_call_y.maxcores.group
	.add_to_set _i.control._client_call_y.maxcores.group, (__interface_client_call_y_other.maxcores + __interface_client_call_y_extra.maxcores), __interface_client_call_y_other
	.max_reduce _i.control._client_call_y.max.maxcores, _i.control._client_call_y.maxcores.group, 0
	.weak _i.control._client_call_y.maxtimers.group
	.add_to_set _i.control._client_call_y.maxtimers.group, (__interface_client_call_y_other.maxtimers + __interface_client_call_y_extra.maxtimers), __interface_client_call_y_other
	.max_reduce _i.control._client_call_y.max.maxtimers, _i.control._client_call_y.maxtimers.group, 0
	.weak _i.control._client_call_y.nstackwords.group
	.globl _i.control._client_call_y.nstackwords.group
	.weak _i.control._client_call_y.fns.group
	.globl _i.control._client_call_y.fns.group
	.add_to_set _i.control._client_call_y.nstackwords.group, (__interface_client_call_y_other.nstackwords + __interface_client_call_y_extra.nstackwords), __interface_client_call_y_other
	.add_to_set _i.control._client_call_y.fns.group, __interface_client_call_y_other, __interface_client_call_y_other
	.max_reduce _i.control._client_call_y.max.nstackwords, _i.control._client_call_y.nstackwords.group, 0
	.max_reduce _i.control._client_call_y.fns, _i.control._client_call_y.fns.group, 0
	.set xmos_parameter_bap_tile.locnointerfaceaccess, 0
	.set xmos_parameter_aec_tile.locnointerfaceaccess, 0

                                        # End of file scope inline assembly
	.text
	.weak	_i.control._chan.read_command
	.align	4
	.type	_i.control._chan.read_command,@function
	.cc_top _i.control._chan.read_command.function,_i.control._chan.read_command
_i.control._chan.read_command:          # @_i.control._chan.read_command
	.cfi_startproc
	.issue_mode dual
# BB#0:                                 # %allocas
	{
		nop
		dualentsp 4
	}
.Ltmp0:
	.cfi_def_cfa_offset 16
.Ltmp1:
	.cfi_offset 15, 0
	{
		nop
		stw r4, sp[2]
	}
.Ltmp2:
	.cfi_offset 4, -8
	#DEBUG_VALUE: _i.control._chan.read_command:dest <- R0
	#DEBUG_VALUE: _i.control._chan.read_command:param1 <- R1
	#DEBUG_VALUE: _i.control._chan.read_command:param2 <- R2
	#DEBUG_VALUE: _i.control._chan.read_command:param3 <- R3
	#DEBUG_VALUE: _i.control._chan.read_command:param4 <- [SP+20]
	{
		getr r4, 2
		ldw r11, sp[5]
	}
	{
		setd res[r4], r0
		add r0, r4, 2
	}
	{
		out res[r4], r0
		nop
	}
	{
		outct res[r4], 2
		nop
	}
	{
		chkct res[r4], 1
		nop
	}
	{
		outt res[r4], r1
		nop
	}
	{
		outt res[r4], r2
		stw r3, sp[1]
	}
	{
		out res[r4], r11
		nop
	}
	{
		outct res[r4], 2
		ldaw r1, sp[1]
	}
	{
		mov r0, r4
		nop
	}
	bl __interface_client_call
	{
		int r0, res[r4]
		nop
	}
	{
		chkct res[r4], 1
		nop
	}
	{
		freer res[r4]
		ldw r4, sp[2]
	}
	{
		nop
		retsp 4
	}
	# RETURN_REG_HOLDER
	.cc_bottom _i.control._chan.read_command.function
	.set	_i.control._chan.read_command.nstackwords,(__interface_client_call.nstackwords + 4)
	.globl	_i.control._chan.read_command.nstackwords
	.weak	_i.control._chan.read_command.nstackwords
	.set	_i.control._chan.read_command.maxcores,__interface_client_call.maxcores $M 1
	.globl	_i.control._chan.read_command.maxcores
	.weak	_i.control._chan.read_command.maxcores
	.set	_i.control._chan.read_command.maxtimers,__interface_client_call.maxtimers $M 0
	.globl	_i.control._chan.read_command.maxtimers
	.weak	_i.control._chan.read_command.maxtimers
	.set	_i.control._chan.read_command.maxchanends,(1 + __interface_client_call.maxchanends) $M 1
	.globl	_i.control._chan.read_command.maxchanends
	.weak	_i.control._chan.read_command.maxchanends
.Ltmp3:
	.size	_i.control._chan.read_command, .Ltmp3-_i.control._chan.read_command
	.cfi_endproc

	.weak	_i.control._chan.write_command
	.align	4
	.type	_i.control._chan.write_command,@function
	.cc_top _i.control._chan.write_command.function,_i.control._chan.write_command
_i.control._chan.write_command:         # @_i.control._chan.write_command
	.cfi_startproc
	.issue_mode dual
# BB#0:                                 # %allocas
	{
		nop
		dualentsp 4
	}
.Ltmp4:
	.cfi_def_cfa_offset 16
.Ltmp5:
	.cfi_offset 15, 0
	{
		nop
		stw r4, sp[2]
	}
.Ltmp6:
	.cfi_offset 4, -8
	#DEBUG_VALUE: _i.control._chan.write_command:dest <- R0
	#DEBUG_VALUE: _i.control._chan.write_command:param1 <- R1
	#DEBUG_VALUE: _i.control._chan.write_command:param2 <- R2
	#DEBUG_VALUE: _i.control._chan.write_command:param3 <- R3
	#DEBUG_VALUE: _i.control._chan.write_command:param4 <- [SP+20]
	{
		getr r4, 2
		ldw r11, sp[5]
	}
	{
		setd res[r4], r0
		add r0, r4, 1
	}
	{
		out res[r4], r0
		nop
	}
	{
		outct res[r4], 2
		nop
	}
	{
		chkct res[r4], 1
		nop
	}
	{
		outt res[r4], r1
		nop
	}
	{
		outt res[r4], r2
		stw r3, sp[1]
	}
	{
		out res[r4], r11
		nop
	}
	{
		outct res[r4], 2
		ldaw r1, sp[1]
	}
	{
		mov r0, r4
		nop
	}
	bl __interface_client_call
	{
		int r0, res[r4]
		nop
	}
	{
		chkct res[r4], 1
		nop
	}
	{
		freer res[r4]
		ldw r4, sp[2]
	}
	{
		nop
		retsp 4
	}
	# RETURN_REG_HOLDER
	.cc_bottom _i.control._chan.write_command.function
	.set	_i.control._chan.write_command.nstackwords,(__interface_client_call.nstackwords + 4)
	.globl	_i.control._chan.write_command.nstackwords
	.weak	_i.control._chan.write_command.nstackwords
	.set	_i.control._chan.write_command.maxcores,__interface_client_call.maxcores $M 1
	.globl	_i.control._chan.write_command.maxcores
	.weak	_i.control._chan.write_command.maxcores
	.set	_i.control._chan.write_command.maxtimers,__interface_client_call.maxtimers $M 0
	.globl	_i.control._chan.write_command.maxtimers
	.weak	_i.control._chan.write_command.maxtimers
	.set	_i.control._chan.write_command.maxchanends,(1 + __interface_client_call.maxchanends) $M 1
	.globl	_i.control._chan.write_command.maxchanends
	.weak	_i.control._chan.write_command.maxchanends
.Ltmp7:
	.size	_i.control._chan.write_command, .Ltmp7-_i.control._chan.write_command
	.cfi_endproc

	.weak	_i.control._chan.register_resources
	.align	4
	.type	_i.control._chan.register_resources,@function
	.cc_top _i.control._chan.register_resources.function,_i.control._chan.register_resources
_i.control._chan.register_resources:    # @_i.control._chan.register_resources
	.cfi_startproc
	.issue_mode dual
# BB#0:                                 # %allocas
	{
		nop
		dualentsp 4
	}
.Ltmp8:
	.cfi_def_cfa_offset 16
.Ltmp9:
	.cfi_offset 15, 0
	std r5, r4, sp[1]               # 4-byte Folded Spill
.Ltmp10:
	.cfi_offset 4, -8
.Ltmp11:
	.cfi_offset 5, -4
	#DEBUG_VALUE: _i.control._chan.register_resources:dest <- R0
	#DEBUG_VALUE: _i.control._chan.register_resources:param1 <- R1
	#DEBUG_VALUE: _i.control._chan.register_resources:param2 <- R2
	#DEBUG_VALUE: _i.control._chan.register_resources:param2 <- R4
	{
		getr r5, 2
		mov r4, r2
	}
	{
		setd res[r5], r0
		nop
	}
	{
		out res[r5], r5
		nop
	}
	{
		outct res[r5], 2
		nop
	}
	{
		chkct res[r5], 1
		stw r1, sp[1]
	}
	{
		nop
		ldw r0, r4[0]
	}
	{
		out res[r5], r0
		nop
	}
	{
		outct res[r5], 2
		ldaw r1, sp[1]
	}
	{
		mov r0, r5
		nop
	}
	bl __interface_client_call
	{
		in r0, res[r5]
		nop
	}
	{
		chkct res[r5], 1
		stw r0, r4[0]
	}
	{
		freer res[r5]
		nop
	}
	ldd r5, r4, sp[1]               # 4-byte Folded Reload
	{
		nop
		retsp 4
	}
	# RETURN_REG_HOLDER
	.cc_bottom _i.control._chan.register_resources.function
	.set	_i.control._chan.register_resources.nstackwords,(__interface_client_call.nstackwords + 4)
	.globl	_i.control._chan.register_resources.nstackwords
	.weak	_i.control._chan.register_resources.nstackwords
	.set	_i.control._chan.register_resources.maxcores,__interface_client_call.maxcores $M 1
	.globl	_i.control._chan.register_resources.maxcores
	.weak	_i.control._chan.register_resources.maxcores
	.set	_i.control._chan.register_resources.maxtimers,__interface_client_call.maxtimers $M 0
	.globl	_i.control._chan.register_resources.maxtimers
	.weak	_i.control._chan.register_resources.maxtimers
	.set	_i.control._chan.register_resources.maxchanends,(1 + __interface_client_call.maxchanends) $M 1
	.globl	_i.control._chan.register_resources.maxchanends
	.weak	_i.control._chan.register_resources.maxchanends
.Ltmp12:
	.size	_i.control._chan.register_resources, .Ltmp12-_i.control._chan.register_resources
	.cfi_endproc

	.weak	_i.control._chan_yield.read_command
	.align	4
	.type	_i.control._chan_yield.read_command,@function
	.cc_top _i.control._chan_yield.read_command.function,_i.control._chan_yield.read_command
_i.control._chan_yield.read_command:    # @_i.control._chan_yield.read_command
	.cfi_startproc
	.issue_mode dual
# BB#0:                                 # %allocas
	{
		nop
		dualentsp 4
	}
.Ltmp13:
	.cfi_def_cfa_offset 16
.Ltmp14:
	.cfi_offset 15, 0
	std r5, r4, sp[1]               # 4-byte Folded Spill
.Ltmp15:
	.cfi_offset 4, -8
.Ltmp16:
	.cfi_offset 5, -4
	#DEBUG_VALUE: _i.control._chan_yield.read_command:s <- R0
	#DEBUG_VALUE: _i.control._chan_yield.read_command:param1 <- R1
	#DEBUG_VALUE: _i.control._chan_yield.read_command:param2 <- R2
	#DEBUG_VALUE: _i.control._chan_yield.read_command:param3 <- R3
	#DEBUG_VALUE: _i.control._chan_yield.read_command:param4 <- [SP+20]
	{
		nop
		ldw r11, sp[5]
	}
	{
		getr r4, 2
		ldw r5, r0[0]
	}
	{
		setd res[r4], r5
		add r5, r4, 2
	}
	{
		out res[r4], r5
		nop
	}
	{
		outct res[r4], 2
		nop
	}
	{
		chkct res[r4], 1
		nop
	}
	{
		outt res[r4], r1
		nop
	}
	{
		outt res[r4], r2
		stw r3, sp[1]
	}
	{
		out res[r4], r11
		nop
	}
	{
		outct res[r4], 2
		ldw r2, r0[1]
	}
	{
		ldaw r1, sp[1]
		mov r0, r4
	}
	bl __interface_client_call_y
	{
		int r0, res[r4]
		nop
	}
	{
		chkct res[r4], 1
		nop
	}
	{
		freer res[r4]
		nop
	}
	ldd r5, r4, sp[1]               # 4-byte Folded Reload
	{
		nop
		retsp 4
	}
	# RETURN_REG_HOLDER
	.cc_bottom _i.control._chan_yield.read_command.function
	.set	_i.control._chan_yield.read_command.nstackwords,((_i.control._client_call_y.max.nstackwords $M ($D __interface_client_call_y.nstackwords ? __interface_client_call_y.nstackwords $: _i.control._client_call_y.max.nstackwords)) + 4)
	.globl	_i.control._chan_yield.read_command.nstackwords
	.weak	_i.control._chan_yield.read_command.nstackwords
	.set	_i.control._chan_yield.read_command.maxcores,($D __interface_client_call_y.maxcores ? __interface_client_call_y.maxcores $: _i.control._client_call_y.max.maxcores) $M 1
	.globl	_i.control._chan_yield.read_command.maxcores
	.weak	_i.control._chan_yield.read_command.maxcores
	.set	_i.control._chan_yield.read_command.maxtimers,($D __interface_client_call_y.maxtimers ? __interface_client_call_y.maxtimers $: _i.control._client_call_y.max.maxtimers) $M 0
	.globl	_i.control._chan_yield.read_command.maxtimers
	.weak	_i.control._chan_yield.read_command.maxtimers
	.set	_i.control._chan_yield.read_command.maxchanends,(1 + ($D __interface_client_call_y.maxchanends ? __interface_client_call_y.maxchanends $: _i.control._client_call_y.max.maxchanends)) $M 1
	.globl	_i.control._chan_yield.read_command.maxchanends
	.weak	_i.control._chan_yield.read_command.maxchanends
.Ltmp17:
	.size	_i.control._chan_yield.read_command, .Ltmp17-_i.control._chan_yield.read_command
	.cfi_endproc

	.weak	_i.control._chan_yield.write_command
	.align	4
	.type	_i.control._chan_yield.write_command,@function
	.cc_top _i.control._chan_yield.write_command.function,_i.control._chan_yield.write_command
_i.control._chan_yield.write_command:   # @_i.control._chan_yield.write_command
	.cfi_startproc
	.issue_mode dual
# BB#0:                                 # %allocas
	{
		nop
		dualentsp 4
	}
.Ltmp18:
	.cfi_def_cfa_offset 16
.Ltmp19:
	.cfi_offset 15, 0
	std r5, r4, sp[1]               # 4-byte Folded Spill
.Ltmp20:
	.cfi_offset 4, -8
.Ltmp21:
	.cfi_offset 5, -4
	#DEBUG_VALUE: _i.control._chan_yield.write_command:s <- R0
	#DEBUG_VALUE: _i.control._chan_yield.write_command:param1 <- R1
	#DEBUG_VALUE: _i.control._chan_yield.write_command:param2 <- R2
	#DEBUG_VALUE: _i.control._chan_yield.write_command:param3 <- R3
	#DEBUG_VALUE: _i.control._chan_yield.write_command:param4 <- [SP+20]
	{
		nop
		ldw r11, sp[5]
	}
	{
		getr r4, 2
		ldw r5, r0[0]
	}
	{
		setd res[r4], r5
		add r5, r4, 1
	}
	{
		out res[r4], r5
		nop
	}
	{
		outct res[r4], 2
		nop
	}
	{
		chkct res[r4], 1
		nop
	}
	{
		outt res[r4], r1
		nop
	}
	{
		outt res[r4], r2
		stw r3, sp[1]
	}
	{
		out res[r4], r11
		nop
	}
	{
		outct res[r4], 2
		ldw r2, r0[1]
	}
	{
		ldaw r1, sp[1]
		mov r0, r4
	}
	bl __interface_client_call_y
	{
		int r0, res[r4]
		nop
	}
	{
		chkct res[r4], 1
		nop
	}
	{
		freer res[r4]
		nop
	}
	ldd r5, r4, sp[1]               # 4-byte Folded Reload
	{
		nop
		retsp 4
	}
	# RETURN_REG_HOLDER
	.cc_bottom _i.control._chan_yield.write_command.function
	.set	_i.control._chan_yield.write_command.nstackwords,((_i.control._client_call_y.max.nstackwords $M ($D __interface_client_call_y.nstackwords ? __interface_client_call_y.nstackwords $: _i.control._client_call_y.max.nstackwords)) + 4)
	.globl	_i.control._chan_yield.write_command.nstackwords
	.weak	_i.control._chan_yield.write_command.nstackwords
	.set	_i.control._chan_yield.write_command.maxcores,($D __interface_client_call_y.maxcores ? __interface_client_call_y.maxcores $: _i.control._client_call_y.max.maxcores) $M 1
	.globl	_i.control._chan_yield.write_command.maxcores
	.weak	_i.control._chan_yield.write_command.maxcores
	.set	_i.control._chan_yield.write_command.maxtimers,($D __interface_client_call_y.maxtimers ? __interface_client_call_y.maxtimers $: _i.control._client_call_y.max.maxtimers) $M 0
	.globl	_i.control._chan_yield.write_command.maxtimers
	.weak	_i.control._chan_yield.write_command.maxtimers
	.set	_i.control._chan_yield.write_command.maxchanends,(1 + ($D __interface_client_call_y.maxchanends ? __interface_client_call_y.maxchanends $: _i.control._client_call_y.max.maxchanends)) $M 1
	.globl	_i.control._chan_yield.write_command.maxchanends
	.weak	_i.control._chan_yield.write_command.maxchanends
.Ltmp22:
	.size	_i.control._chan_yield.write_command, .Ltmp22-_i.control._chan_yield.write_command
	.cfi_endproc

	.weak	_i.control._chan_yield.register_resources
	.align	4
	.type	_i.control._chan_yield.register_resources,@function
	.cc_top _i.control._chan_yield.register_resources.function,_i.control._chan_yield.register_resources
_i.control._chan_yield.register_resources: # @_i.control._chan_yield.register_resources
	.cfi_startproc
	.issue_mode dual
# BB#0:                                 # %allocas
	{
		nop
		dualentsp 4
	}
.Ltmp23:
	.cfi_def_cfa_offset 16
.Ltmp24:
	.cfi_offset 15, 0
	std r5, r4, sp[1]               # 4-byte Folded Spill
.Ltmp25:
	.cfi_offset 4, -8
.Ltmp26:
	.cfi_offset 5, -4
	#DEBUG_VALUE: _i.control._chan_yield.register_resources:s <- R0
	#DEBUG_VALUE: _i.control._chan_yield.register_resources:param1 <- R1
	#DEBUG_VALUE: _i.control._chan_yield.register_resources:param2 <- R2
	#DEBUG_VALUE: _i.control._chan_yield.register_resources:param2 <- R4
	{
		mov r4, r2
		ldw r2, r0[0]
	}
	{
		getr r5, 2
		nop
	}
	{
		setd res[r5], r2
		nop
	}
	{
		out res[r5], r5
		nop
	}
	{
		outct res[r5], 2
		nop
	}
	{
		chkct res[r5], 1
		stw r1, sp[1]
	}
	{
		nop
		ldw r1, r4[0]
	}
	{
		out res[r5], r1
		nop
	}
	{
		outct res[r5], 2
		ldw r2, r0[1]
	}
	{
		ldaw r1, sp[1]
		mov r0, r5
	}
	bl __interface_client_call_y
	{
		in r0, res[r5]
		nop
	}
	{
		chkct res[r5], 1
		stw r0, r4[0]
	}
	{
		freer res[r5]
		nop
	}
	ldd r5, r4, sp[1]               # 4-byte Folded Reload
	{
		nop
		retsp 4
	}
	# RETURN_REG_HOLDER
	.cc_bottom _i.control._chan_yield.register_resources.function
	.set	_i.control._chan_yield.register_resources.nstackwords,((_i.control._client_call_y.max.nstackwords $M ($D __interface_client_call_y.nstackwords ? __interface_client_call_y.nstackwords $: _i.control._client_call_y.max.nstackwords)) + 4)
	.globl	_i.control._chan_yield.register_resources.nstackwords
	.weak	_i.control._chan_yield.register_resources.nstackwords
	.set	_i.control._chan_yield.register_resources.maxcores,($D __interface_client_call_y.maxcores ? __interface_client_call_y.maxcores $: _i.control._client_call_y.max.maxcores) $M 1
	.globl	_i.control._chan_yield.register_resources.maxcores
	.weak	_i.control._chan_yield.register_resources.maxcores
	.set	_i.control._chan_yield.register_resources.maxtimers,($D __interface_client_call_y.maxtimers ? __interface_client_call_y.maxtimers $: _i.control._client_call_y.max.maxtimers) $M 0
	.globl	_i.control._chan_yield.register_resources.maxtimers
	.weak	_i.control._chan_yield.register_resources.maxtimers
	.set	_i.control._chan_yield.register_resources.maxchanends,(1 + ($D __interface_client_call_y.maxchanends ? __interface_client_call_y.maxchanends $: _i.control._client_call_y.max.maxchanends)) $M 1
	.globl	_i.control._chan_yield.register_resources.maxchanends
	.weak	_i.control._chan_yield.register_resources.maxchanends
.Ltmp27:
	.size	_i.control._chan_yield.register_resources, .Ltmp27-_i.control._chan_yield.register_resources
	.cfi_endproc

	.align	4
	.type	xmos_parameter_bap_tile.case.0,@function
	.cc_top xmos_parameter_bap_tile.case.0.function,xmos_parameter_bap_tile.case.0
xmos_parameter_bap_tile.case.0:         # @xmos_parameter_bap_tile.case.0
	.cfi_startproc
	.issue_mode dual
# BB#0:                                 # %allocas
.Lxtalabel0:
	{
		get r11, ed
		dualentsp 0
	}
	{
		nop
		ldw r0, r11[0]
	}
	{
		nop
		ldw r0, r0[0]
	}
	{
		in r2, res[r0]
		nop
	}
	ldc r1, 254
	{
		add r1, r2, r1
		nop
	}
	{
		zext r1, 8
		nop
	}
	{
		sub r2, r2, r1
		nop
	}
	{
		setd res[r0], r2
		nop
	}
	bt r1, .LBB6_1
# BB#2:                                 # %switchcase36
	{
		outct res[r0], 1
		nop
	}
	#DEBUG_VALUE: num_resources <- R1
	{
		in r1, res[r0]
		ldc r2, 0
	}
	{
		out res[r0], r2
		nop
	}
	{
		out res[r0], r1
		nop
	}
	bu .LBB6_3
.LBB6_1:                                # %allocas
.Lxtalabel1:
	{
		outct res[r0], 1
		eq r1, r1, 1
	}
	{
		int r1, res[r0]
		nop
	}
	{
		int r1, res[r0]
		nop
	}
	{
		in r1, res[r0]
		nop
	}
	#DEBUG_VALUE: payload_len <- R1
	{
		ldc r1, 0
		nop
	}
	{
		out res[r0], r1
		nop
	}
	{
		outt res[r0], r1
		nop
	}
.LBB6_3:                                # %return
	{
		outct res[r0], 1
		retsp 0
	}
	# RETURN_REG_HOLDER
	.cc_bottom xmos_parameter_bap_tile.case.0.function
	.set	xmos_parameter_bap_tile.case.0.nstackwords,0
	.set	xmos_parameter_bap_tile.case.0.maxcores,1
	.set	xmos_parameter_bap_tile.case.0.maxtimers,0
	.set	xmos_parameter_bap_tile.case.0.maxchanends,0
.Ltmp28:
	.size	xmos_parameter_bap_tile.case.0, .Ltmp28-xmos_parameter_bap_tile.case.0
	.cfi_endproc

	.globl	xmos_parameter_bap_tile.enable
	.align	4
	.type	xmos_parameter_bap_tile.enable,@function
	.cc_top xmos_parameter_bap_tile.enable.function,xmos_parameter_bap_tile.enable
xmos_parameter_bap_tile.enable:         # @xmos_parameter_bap_tile.enable
.Lfunc_begin7:
	.file	1 "C:/Users/user/workspace/module_vocalfusion/src\\vf_control.xc"
	.loc	1 542 0                 # C:/Users/user/workspace/module_vocalfusion/src/vf_control.xc:542:0
	.cfi_startproc
	.issue_mode dual
# BB#0:                                 # %allocas
.Lxtalabel2:
	{
		nop
		dualentsp 0
	}
	#DEBUG_VALUE: xmos_parameter_bap_tile.enable:xmos_parameter_bap_tile.enable.saved_state_ptr <- R0
	#DEBUG_VALUE: xmos_parameter_bap_tile.enable:i_control <- R1
	{
		nop
		stw r1, r0[0]
	}
	{
		nop
		ldw r1, r1[0]
	}
.Ltmp29:
	bf r1, .LBB7_2
.Ltmp30:
# BB#1:                                 # %interfacenotnull
	#DEBUG_VALUE: xmos_parameter_bap_tile.enable:xmos_parameter_bap_tile.enable.saved_state_ptr <- R0
	.loc	1 542 0 prologue_end    # C:/Users/user/workspace/module_vocalfusion/src/vf_control.xc:542:0
	ldap r11, xmos_parameter_bap_tile.case.0
	{
		setv res[r1], r11
		mov r11, r0
	}
	.loc	1 542 0                 # C:/Users/user/workspace/module_vocalfusion/src/vf_control.xc:542:0
	{
		setev res[r1], r11
		nop
	}
	.loc	1 542 0                 # C:/Users/user/workspace/module_vocalfusion/src/vf_control.xc:542:0
	{
		eeu res[r1]
		nop
	}
.Ltmp31:
.LBB7_2:                                # %selectguarddone
	#DEBUG_VALUE: xmos_parameter_bap_tile.enable:xmos_parameter_bap_tile.enable.saved_state_ptr <- R0
	{
		add r0, r0, 8
		retsp 0
	}
.Ltmp32:
	# RETURN_REG_HOLDER
	.cc_bottom xmos_parameter_bap_tile.enable.function
	.set	xmos_parameter_bap_tile.enable.nstackwords,0
	.globl	xmos_parameter_bap_tile.enable.nstackwords
	.set	xmos_parameter_bap_tile.enable.maxcores,1
	.globl	xmos_parameter_bap_tile.enable.maxcores
	.set	xmos_parameter_bap_tile.enable.maxtimers,0
	.globl	xmos_parameter_bap_tile.enable.maxtimers
	.set	xmos_parameter_bap_tile.enable.maxchanends,0
	.globl	xmos_parameter_bap_tile.enable.maxchanends
.Ltmp33:
	.size	xmos_parameter_bap_tile.enable, .Ltmp33-xmos_parameter_bap_tile.enable
.Lfunc_end7:
	.cfi_endproc

	.section	.cp.rodata.cst4,"aMc",@progbits,4
	.cc_top .LCPI8_0.data,.LCPI8_0
	.align	4
	.type	.LCPI8_0,@object
	.size	.LCPI8_0, 4
.LCPI8_0:
	.long	2147483647              # 0x7fffffff
	.cc_bottom .LCPI8_0.data
	.text
	.globl	xmos_parameter_bap_tile
	.align	4
	.type	xmos_parameter_bap_tile,@function
	.cc_top xmos_parameter_bap_tile.function,xmos_parameter_bap_tile
xmos_parameter_bap_tile:                # @xmos_parameter_bap_tile
.Lfunc_begin8:
	.loc	1 542 0                 # C:/Users/user/workspace/module_vocalfusion/src/vf_control.xc:542:0
	.cfi_startproc
	.issue_mode dual
# BB#0:                                 # %allocas
.Lxtalabel3:
.Ltmp34:
	.cfi_def_cfa_offset 16
.Ltmp35:
	.cfi_offset 15, 0
	#DEBUG_VALUE: xmos_parameter_bap_tile:i_control <- R0
	{
		clre
		dualentsp 4
	}
	.loc	1 542 0 prologue_end    # C:/Users/user/workspace/module_vocalfusion/src/vf_control.xc:542:0
.Ltmp36:
	{
		get r11, id
		nop
	}
	.loc	1 542 0                 # C:/Users/user/workspace/module_vocalfusion/src/vf_control.xc:542:0
	ldaw r1, dp[__timer_delta]
	ldw r2, cp[.LCPI8_0]
	.loc	1 542 0                 # C:/Users/user/workspace/module_vocalfusion/src/vf_control.xc:542:0
	stw r2, r1[r11]
	.loc	1 542 0                 # C:/Users/user/workspace/module_vocalfusion/src/vf_control.xc:542:0
	ldaw r1, dp[__timers]
	{
		nop
		ldw r1, r1[r11]
	}
	.loc	1 542 0                 # C:/Users/user/workspace/module_vocalfusion/src/vf_control.xc:542:0
	{
		setc res[r1], 1
		nop
	}
	.loc	1 542 0                 # C:/Users/user/workspace/module_vocalfusion/src/vf_control.xc:542:0
	{
		in r1, res[r1]
		nop
	}
	.loc	1 542 0                 # C:/Users/user/workspace/module_vocalfusion/src/vf_control.xc:542:0
	ldaw r2, dp[__timer_base]
	.loc	1 542 0                 # C:/Users/user/workspace/module_vocalfusion/src/vf_control.xc:542:0
	stw r1, r2[r11]
.Ltmp37:
	#DEBUG_VALUE: xmos_parameter_bap_tile.enable:i_control <- R0
	{
		nop
		stw r0, sp[2]
	}
	{
		nop
		ldw r1, r0[0]
	}
	bf r1, .LBB8_2
.Ltmp38:
# BB#1:                                 # %interfacenotnull.i
	{
		ldaw r0, sp[2]
		nop
	}
	.loc	1 542 0                 # C:/Users/user/workspace/module_vocalfusion/src/vf_control.xc:542:0
.Ltmp39:
	ldap r11, xmos_parameter_bap_tile.case.0
	{
		setv res[r1], r11
		mov r11, r0
	}
	.loc	1 542 0                 # C:/Users/user/workspace/module_vocalfusion/src/vf_control.xc:542:0
	{
		setev res[r1], r11
		nop
	}
	.loc	1 542 0                 # C:/Users/user/workspace/module_vocalfusion/src/vf_control.xc:542:0
	{
		eeu res[r1]
		nop
	}
.Ltmp40:
.LBB8_2:                                # %xmos_parameter_bap_tile.enable.exit
	.loc	1 542 0                 # C:/Users/user/workspace/module_vocalfusion/src/vf_control.xc:542:0
	bl __wait_nonlocal
	.loc	1 542 0                 # C:/Users/user/workspace/module_vocalfusion/src/vf_control.xc:542:0
	bu .Ltmp41
.Ltmp42:
.Ltmp41:                                # Block address taken
.LBB8_3:                                # %return
	{
		nop
		retsp 4
	}
	# RETURN_REG_HOLDER
	.cc_bottom xmos_parameter_bap_tile.function
	.set	xmos_parameter_bap_tile.nstackwords,(xmos_parameter_bap_tile.enable.cases.nstackwords + 4)
	.globl	xmos_parameter_bap_tile.nstackwords
	.set	xmos_parameter_bap_tile.maxcores,xmos_parameter_bap_tile.enable.cases.maxcores $M 1
	.globl	xmos_parameter_bap_tile.maxcores
	.set	xmos_parameter_bap_tile.maxtimers,xmos_parameter_bap_tile.enable.cases.maxtimers $M 0
	.globl	xmos_parameter_bap_tile.maxtimers
	.set	xmos_parameter_bap_tile.maxchanends,xmos_parameter_bap_tile.enable.cases.maxchanends $M 0
	.globl	xmos_parameter_bap_tile.maxchanends
.Ltmp43:
	.size	xmos_parameter_bap_tile, .Ltmp43-xmos_parameter_bap_tile
.Lfunc_end8:
	.cfi_endproc

	.align	4
	.type	xmos_parameter_aec_tile.case.0,@function
	.cc_top xmos_parameter_aec_tile.case.0.function,xmos_parameter_aec_tile.case.0
xmos_parameter_aec_tile.case.0:         # @xmos_parameter_aec_tile.case.0
	.cfi_startproc
	.issue_mode dual
# BB#0:                                 # %allocas
.Lxtalabel4:
	{
		get r11, ed
		dualentsp 0
	}
	{
		nop
		ldw r0, r11[0]
	}
	{
		nop
		ldw r0, r0[0]
	}
	{
		in r2, res[r0]
		nop
	}
	ldc r1, 254
	{
		add r1, r2, r1
		nop
	}
	{
		zext r1, 8
		nop
	}
	{
		sub r2, r2, r1
		nop
	}
	{
		setd res[r0], r2
		nop
	}
	bt r1, .LBB9_1
# BB#2:                                 # %switchcase36
	{
		outct res[r0], 1
		nop
	}
	#DEBUG_VALUE: num_resources <- R1
	{
		in r1, res[r0]
		ldc r2, 0
	}
	{
		out res[r0], r2
		nop
	}
	{
		out res[r0], r1
		nop
	}
	bu .LBB9_3
.LBB9_1:                                # %allocas
.Lxtalabel5:
	{
		outct res[r0], 1
		eq r1, r1, 1
	}
	{
		int r1, res[r0]
		nop
	}
	{
		int r1, res[r0]
		nop
	}
	{
		in r1, res[r0]
		nop
	}
	#DEBUG_VALUE: payload_len <- R1
	{
		ldc r1, 0
		nop
	}
	{
		out res[r0], r1
		nop
	}
	{
		outt res[r0], r1
		nop
	}
.LBB9_3:                                # %return
	{
		outct res[r0], 1
		retsp 0
	}
	# RETURN_REG_HOLDER
	.cc_bottom xmos_parameter_aec_tile.case.0.function
	.set	xmos_parameter_aec_tile.case.0.nstackwords,0
	.set	xmos_parameter_aec_tile.case.0.maxcores,1
	.set	xmos_parameter_aec_tile.case.0.maxtimers,0
	.set	xmos_parameter_aec_tile.case.0.maxchanends,0
.Ltmp44:
	.size	xmos_parameter_aec_tile.case.0, .Ltmp44-xmos_parameter_aec_tile.case.0
	.cfi_endproc

	.globl	xmos_parameter_aec_tile.enable
	.align	4
	.type	xmos_parameter_aec_tile.enable,@function
	.cc_top xmos_parameter_aec_tile.enable.function,xmos_parameter_aec_tile.enable
xmos_parameter_aec_tile.enable:         # @xmos_parameter_aec_tile.enable
.Lfunc_begin10:
	.loc	1 557 0                 # C:/Users/user/workspace/module_vocalfusion/src/vf_control.xc:557:0
	.cfi_startproc
	.issue_mode dual
# BB#0:                                 # %allocas
.Lxtalabel6:
	{
		nop
		dualentsp 0
	}
	#DEBUG_VALUE: xmos_parameter_aec_tile.enable:xmos_parameter_aec_tile.enable.saved_state_ptr <- R0
	#DEBUG_VALUE: xmos_parameter_aec_tile.enable:i_control <- R1
	{
		nop
		stw r1, r0[0]
	}
	{
		nop
		ldw r1, r1[0]
	}
.Ltmp45:
	bf r1, .LBB10_2
.Ltmp46:
# BB#1:                                 # %interfacenotnull
	#DEBUG_VALUE: xmos_parameter_aec_tile.enable:xmos_parameter_aec_tile.enable.saved_state_ptr <- R0
	.loc	1 557 0 prologue_end    # C:/Users/user/workspace/module_vocalfusion/src/vf_control.xc:557:0
	ldap r11, xmos_parameter_aec_tile.case.0
	{
		setv res[r1], r11
		mov r11, r0
	}
	.loc	1 557 0                 # C:/Users/user/workspace/module_vocalfusion/src/vf_control.xc:557:0
	{
		setev res[r1], r11
		nop
	}
	.loc	1 557 0                 # C:/Users/user/workspace/module_vocalfusion/src/vf_control.xc:557:0
	{
		eeu res[r1]
		nop
	}
.Ltmp47:
.LBB10_2:                               # %selectguarddone
	#DEBUG_VALUE: xmos_parameter_aec_tile.enable:xmos_parameter_aec_tile.enable.saved_state_ptr <- R0
	{
		add r0, r0, 8
		retsp 0
	}
.Ltmp48:
	# RETURN_REG_HOLDER
	.cc_bottom xmos_parameter_aec_tile.enable.function
	.set	xmos_parameter_aec_tile.enable.nstackwords,0
	.globl	xmos_parameter_aec_tile.enable.nstackwords
	.set	xmos_parameter_aec_tile.enable.maxcores,1
	.globl	xmos_parameter_aec_tile.enable.maxcores
	.set	xmos_parameter_aec_tile.enable.maxtimers,0
	.globl	xmos_parameter_aec_tile.enable.maxtimers
	.set	xmos_parameter_aec_tile.enable.maxchanends,0
	.globl	xmos_parameter_aec_tile.enable.maxchanends
.Ltmp49:
	.size	xmos_parameter_aec_tile.enable, .Ltmp49-xmos_parameter_aec_tile.enable
.Lfunc_end10:
	.cfi_endproc

	.section	.cp.rodata.cst4,"aMc",@progbits,4
	.cc_top .LCPI11_0.data,.LCPI11_0
	.align	4
	.type	.LCPI11_0,@object
	.size	.LCPI11_0, 4
.LCPI11_0:
	.long	2147483647              # 0x7fffffff
	.cc_bottom .LCPI11_0.data
	.text
	.globl	xmos_parameter_aec_tile
	.align	4
	.type	xmos_parameter_aec_tile,@function
	.cc_top xmos_parameter_aec_tile.function,xmos_parameter_aec_tile
xmos_parameter_aec_tile:                # @xmos_parameter_aec_tile
.Lfunc_begin11:
	.loc	1 557 0                 # C:/Users/user/workspace/module_vocalfusion/src/vf_control.xc:557:0
	.cfi_startproc
	.issue_mode dual
# BB#0:                                 # %allocas
.Lxtalabel7:
.Ltmp50:
	.cfi_def_cfa_offset 16
.Ltmp51:
	.cfi_offset 15, 0
	#DEBUG_VALUE: xmos_parameter_aec_tile:i_control <- R0
	{
		clre
		dualentsp 4
	}
	.loc	1 557 0 prologue_end    # C:/Users/user/workspace/module_vocalfusion/src/vf_control.xc:557:0
.Ltmp52:
	{
		get r11, id
		nop
	}
	.loc	1 557 0                 # C:/Users/user/workspace/module_vocalfusion/src/vf_control.xc:557:0
	ldaw r1, dp[__timer_delta]
	ldw r2, cp[.LCPI11_0]
	.loc	1 557 0                 # C:/Users/user/workspace/module_vocalfusion/src/vf_control.xc:557:0
	stw r2, r1[r11]
	.loc	1 557 0                 # C:/Users/user/workspace/module_vocalfusion/src/vf_control.xc:557:0
	ldaw r1, dp[__timers]
	{
		nop
		ldw r1, r1[r11]
	}
	.loc	1 557 0                 # C:/Users/user/workspace/module_vocalfusion/src/vf_control.xc:557:0
	{
		setc res[r1], 1
		nop
	}
	.loc	1 557 0                 # C:/Users/user/workspace/module_vocalfusion/src/vf_control.xc:557:0
	{
		in r1, res[r1]
		nop
	}
	.loc	1 557 0                 # C:/Users/user/workspace/module_vocalfusion/src/vf_control.xc:557:0
	ldaw r2, dp[__timer_base]
	.loc	1 557 0                 # C:/Users/user/workspace/module_vocalfusion/src/vf_control.xc:557:0
	stw r1, r2[r11]
.Ltmp53:
	#DEBUG_VALUE: xmos_parameter_aec_tile.enable:i_control <- R0
	{
		nop
		stw r0, sp[2]
	}
	{
		nop
		ldw r1, r0[0]
	}
	bf r1, .LBB11_2
.Ltmp54:
# BB#1:                                 # %interfacenotnull.i
	{
		ldaw r0, sp[2]
		nop
	}
	.loc	1 557 0                 # C:/Users/user/workspace/module_vocalfusion/src/vf_control.xc:557:0
.Ltmp55:
	ldap r11, xmos_parameter_aec_tile.case.0
	{
		setv res[r1], r11
		mov r11, r0
	}
	.loc	1 557 0                 # C:/Users/user/workspace/module_vocalfusion/src/vf_control.xc:557:0
	{
		setev res[r1], r11
		nop
	}
	.loc	1 557 0                 # C:/Users/user/workspace/module_vocalfusion/src/vf_control.xc:557:0
	{
		eeu res[r1]
		nop
	}
.Ltmp56:
.LBB11_2:                               # %xmos_parameter_aec_tile.enable.exit
	.loc	1 557 0                 # C:/Users/user/workspace/module_vocalfusion/src/vf_control.xc:557:0
	bl __wait_nonlocal
	.loc	1 557 0                 # C:/Users/user/workspace/module_vocalfusion/src/vf_control.xc:557:0
	bu .Ltmp57
.Ltmp58:
.Ltmp57:                                # Block address taken
.LBB11_3:                               # %return
	{
		nop
		retsp 4
	}
	# RETURN_REG_HOLDER
	.cc_bottom xmos_parameter_aec_tile.function
	.set	xmos_parameter_aec_tile.nstackwords,(xmos_parameter_aec_tile.enable.cases.nstackwords + 4)
	.globl	xmos_parameter_aec_tile.nstackwords
	.set	xmos_parameter_aec_tile.maxcores,xmos_parameter_aec_tile.enable.cases.maxcores $M 1
	.globl	xmos_parameter_aec_tile.maxcores
	.set	xmos_parameter_aec_tile.maxtimers,xmos_parameter_aec_tile.enable.cases.maxtimers $M 0
	.globl	xmos_parameter_aec_tile.maxtimers
	.set	xmos_parameter_aec_tile.maxchanends,xmos_parameter_aec_tile.enable.cases.maxchanends $M 0
	.globl	xmos_parameter_aec_tile.maxchanends
.Ltmp59:
	.size	xmos_parameter_aec_tile, .Ltmp59-xmos_parameter_aec_tile
.Lfunc_end11:
	.cfi_endproc

	.align	4
	.type	_Sxmos_parameter_aec_tile_0.case.0,@function
	.cc_top _Sxmos_parameter_aec_tile_0.case.0.function,_Sxmos_parameter_aec_tile_0.case.0
_Sxmos_parameter_aec_tile_0.case.0:     # @_Sxmos_parameter_aec_tile_0.case.0
	.cfi_startproc
	.issue_mode dual
# BB#0:                                 # %allocas
.Lxtalabel8:
	{
		get r11, ed
		dualentsp 0
	}
	{
		nop
		ldw r0, r11[0]
	}
	{
		nop
		ldw r0, r0[0]
	}
	{
		in r2, res[r0]
		nop
	}
	ldc r1, 254
	{
		add r1, r2, r1
		nop
	}
	{
		zext r1, 8
		nop
	}
	{
		sub r2, r2, r1
		nop
	}
	{
		setd res[r0], r2
		nop
	}
	bt r1, .LBB12_1
# BB#2:                                 # %switchcase36
	{
		outct res[r0], 1
		nop
	}
	#DEBUG_VALUE: num_resources <- R1
	{
		in r1, res[r0]
		ldc r2, 0
	}
	{
		out res[r0], r2
		nop
	}
	{
		out res[r0], r1
		nop
	}
	bu .LBB12_3
.LBB12_1:                               # %allocas
.Lxtalabel9:
	{
		outct res[r0], 1
		eq r1, r1, 1
	}
	{
		int r1, res[r0]
		nop
	}
	{
		int r1, res[r0]
		nop
	}
	{
		in r1, res[r0]
		nop
	}
	#DEBUG_VALUE: payload_len <- R1
	{
		ldc r1, 0
		nop
	}
	{
		out res[r0], r1
		nop
	}
	{
		outt res[r0], r1
		nop
	}
.LBB12_3:                               # %return
	{
		outct res[r0], 1
		retsp 0
	}
	# RETURN_REG_HOLDER
	.cc_bottom _Sxmos_parameter_aec_tile_0.case.0.function
	.set	_Sxmos_parameter_aec_tile_0.case.0.nstackwords,0
	.set	_Sxmos_parameter_aec_tile_0.case.0.maxcores,1
	.set	_Sxmos_parameter_aec_tile_0.case.0.maxtimers,0
	.set	_Sxmos_parameter_aec_tile_0.case.0.maxchanends,0
.Ltmp60:
	.size	_Sxmos_parameter_aec_tile_0.case.0, .Ltmp60-_Sxmos_parameter_aec_tile_0.case.0
	.cfi_endproc

	.globl	_Sxmos_parameter_aec_tile_0.enable
	.align	4
	.type	_Sxmos_parameter_aec_tile_0.enable,@function
	.cc_top _Sxmos_parameter_aec_tile_0.enable.function,_Sxmos_parameter_aec_tile_0.enable
_Sxmos_parameter_aec_tile_0.enable:     # @_Sxmos_parameter_aec_tile_0.enable
.Lfunc_begin13:
	.loc	1 557 0                 # C:/Users/user/workspace/module_vocalfusion/src/vf_control.xc:557:0
	.cfi_startproc
	.issue_mode dual
# BB#0:                                 # %allocas
.Lxtalabel10:
	{
		nop
		dualentsp 0
	}
	#DEBUG_VALUE: _Sxmos_parameter_aec_tile_0.enable:_Sxmos_parameter_aec_tile_0.enable.saved_state_ptr <- R0
	#DEBUG_VALUE: _Sxmos_parameter_aec_tile_0.enable:i_control <- R1
	{
		nop
		stw r1, r0[0]
	}
	{
		nop
		ldw r1, r1[0]
	}
.Ltmp61:
	bf r1, .LBB13_2
.Ltmp62:
# BB#1:                                 # %interfacenotnull
	#DEBUG_VALUE: _Sxmos_parameter_aec_tile_0.enable:_Sxmos_parameter_aec_tile_0.enable.saved_state_ptr <- R0
	.loc	1 557 0 prologue_end    # C:/Users/user/workspace/module_vocalfusion/src/vf_control.xc:557:0
	ldap r11, _Sxmos_parameter_aec_tile_0.case.0
	{
		setv res[r1], r11
		mov r11, r0
	}
	.loc	1 557 0                 # C:/Users/user/workspace/module_vocalfusion/src/vf_control.xc:557:0
	{
		setev res[r1], r11
		nop
	}
	.loc	1 557 0                 # C:/Users/user/workspace/module_vocalfusion/src/vf_control.xc:557:0
	{
		eeu res[r1]
		nop
	}
.Ltmp63:
.LBB13_2:                               # %selectguarddone
	#DEBUG_VALUE: _Sxmos_parameter_aec_tile_0.enable:_Sxmos_parameter_aec_tile_0.enable.saved_state_ptr <- R0
	{
		add r0, r0, 8
		retsp 0
	}
.Ltmp64:
	# RETURN_REG_HOLDER
	.cc_bottom _Sxmos_parameter_aec_tile_0.enable.function
	.set	_Sxmos_parameter_aec_tile_0.enable.nstackwords,0
	.globl	_Sxmos_parameter_aec_tile_0.enable.nstackwords
	.set	_Sxmos_parameter_aec_tile_0.enable.maxcores,1
	.globl	_Sxmos_parameter_aec_tile_0.enable.maxcores
	.set	_Sxmos_parameter_aec_tile_0.enable.maxtimers,0
	.globl	_Sxmos_parameter_aec_tile_0.enable.maxtimers
	.set	_Sxmos_parameter_aec_tile_0.enable.maxchanends,0
	.globl	_Sxmos_parameter_aec_tile_0.enable.maxchanends
.Ltmp65:
	.size	_Sxmos_parameter_aec_tile_0.enable, .Ltmp65-_Sxmos_parameter_aec_tile_0.enable
.Lfunc_end13:
	.cfi_endproc

	.section	.cp.rodata.cst4,"aMc",@progbits,4
	.cc_top .LCPI14_0.data,.LCPI14_0
	.align	4
	.type	.LCPI14_0,@object
	.size	.LCPI14_0, 4
.LCPI14_0:
	.long	2147483647              # 0x7fffffff
	.cc_bottom .LCPI14_0.data
	.text
	.globl	_Sxmos_parameter_aec_tile_0
	.align	4
	.type	_Sxmos_parameter_aec_tile_0,@function
	.cc_top _Sxmos_parameter_aec_tile_0.function,_Sxmos_parameter_aec_tile_0
_Sxmos_parameter_aec_tile_0:            # @_Sxmos_parameter_aec_tile_0
.Lfunc_begin14:
	.loc	1 557 0                 # C:/Users/user/workspace/module_vocalfusion/src/vf_control.xc:557:0
	.cfi_startproc
	.issue_mode dual
# BB#0:                                 # %allocas
.Lxtalabel11:
.Ltmp66:
	.cfi_def_cfa_offset 16
.Ltmp67:
	.cfi_offset 15, 0
	#DEBUG_VALUE: xmos_parameter_aec_tile:i_control <- R0
	{
		clre
		dualentsp 4
	}
	.loc	1 557 0 prologue_end    # C:/Users/user/workspace/module_vocalfusion/src/vf_control.xc:557:0
.Ltmp68:
	{
		get r11, id
		nop
	}
	.loc	1 557 0                 # C:/Users/user/workspace/module_vocalfusion/src/vf_control.xc:557:0
	ldaw r1, dp[__timer_delta]
	ldw r2, cp[.LCPI14_0]
	.loc	1 557 0                 # C:/Users/user/workspace/module_vocalfusion/src/vf_control.xc:557:0
	stw r2, r1[r11]
	.loc	1 557 0                 # C:/Users/user/workspace/module_vocalfusion/src/vf_control.xc:557:0
	ldaw r1, dp[__timers]
	{
		nop
		ldw r1, r1[r11]
	}
	.loc	1 557 0                 # C:/Users/user/workspace/module_vocalfusion/src/vf_control.xc:557:0
	{
		setc res[r1], 1
		nop
	}
	.loc	1 557 0                 # C:/Users/user/workspace/module_vocalfusion/src/vf_control.xc:557:0
	{
		in r1, res[r1]
		nop
	}
	.loc	1 557 0                 # C:/Users/user/workspace/module_vocalfusion/src/vf_control.xc:557:0
	ldaw r2, dp[__timer_base]
	.loc	1 557 0                 # C:/Users/user/workspace/module_vocalfusion/src/vf_control.xc:557:0
	stw r1, r2[r11]
.Ltmp69:
	#DEBUG_VALUE: _Sxmos_parameter_aec_tile_0.enable:i_control <- R0
	{
		nop
		stw r0, sp[2]
	}
	{
		nop
		ldw r1, r0[0]
	}
	bf r1, .LBB14_2
.Ltmp70:
# BB#1:                                 # %interfacenotnull.i
	{
		ldaw r0, sp[2]
		nop
	}
	.loc	1 557 0                 # C:/Users/user/workspace/module_vocalfusion/src/vf_control.xc:557:0
.Ltmp71:
	ldap r11, _Sxmos_parameter_aec_tile_0.case.0
	{
		setv res[r1], r11
		mov r11, r0
	}
	.loc	1 557 0                 # C:/Users/user/workspace/module_vocalfusion/src/vf_control.xc:557:0
	{
		setev res[r1], r11
		nop
	}
	.loc	1 557 0                 # C:/Users/user/workspace/module_vocalfusion/src/vf_control.xc:557:0
	{
		eeu res[r1]
		nop
	}
.Ltmp72:
.LBB14_2:                               # %_Sxmos_parameter_aec_tile_0.enable.exit
	.loc	1 557 0                 # C:/Users/user/workspace/module_vocalfusion/src/vf_control.xc:557:0
	bl __wait_nonlocal
	.loc	1 557 0                 # C:/Users/user/workspace/module_vocalfusion/src/vf_control.xc:557:0
	bu .Ltmp73
.Ltmp74:
.Ltmp73:                                # Block address taken
.LBB14_3:                               # %return
	{
		nop
		retsp 4
	}
	# RETURN_REG_HOLDER
	.cc_bottom _Sxmos_parameter_aec_tile_0.function
	.set	_Sxmos_parameter_aec_tile_0.nstackwords,(_Sxmos_parameter_aec_tile_0.enable.cases.nstackwords + 4)
	.globl	_Sxmos_parameter_aec_tile_0.nstackwords
	.set	_Sxmos_parameter_aec_tile_0.maxcores,_Sxmos_parameter_aec_tile_0.enable.cases.maxcores $M 1
	.globl	_Sxmos_parameter_aec_tile_0.maxcores
	.set	_Sxmos_parameter_aec_tile_0.maxtimers,_Sxmos_parameter_aec_tile_0.enable.cases.maxtimers $M 0
	.globl	_Sxmos_parameter_aec_tile_0.maxtimers
	.set	_Sxmos_parameter_aec_tile_0.maxchanends,_Sxmos_parameter_aec_tile_0.enable.cases.maxchanends $M 0
	.globl	_Sxmos_parameter_aec_tile_0.maxchanends
.Ltmp75:
	.size	_Sxmos_parameter_aec_tile_0, .Ltmp75-_Sxmos_parameter_aec_tile_0
.Lfunc_end14:
	.cfi_endproc

.Ldebug_end0:
	.section	.xtalabeltable,"",@progbits
.Lentries_start0:
	.long	.Lentries_end1-.Lentries_start0
	.long	0
	.ascii	"C:\\Users\\user\\workspace\\app_vf_spk_base\\.build_1i0o0_cir43_i2s_only_16khz"
	.byte	0
.cc_top cc_0,.Lxtalabel2
	.ascii	"C:/Users/user/workspace/module_vocalfusion/src/vf_control.xc"
	.byte	0
	.long	542
	.long	544
	.long	.Lxtalabel2
.cc_bottom cc_0
.cc_top cc_1,.Lxtalabel3
	.ascii	"C:/Users/user/workspace/module_vocalfusion/src/vf_control.xc"
	.byte	0
	.long	542
	.long	544
	.long	.Lxtalabel3
.cc_bottom cc_1
.cc_top cc_2,.Lxtalabel3
	.ascii	"C:/Users/user/workspace/module_vocalfusion/src/vf_control.xc"
	.byte	0
	.long	542
	.long	544
	.long	.Lxtalabel3
.cc_bottom cc_2
.cc_top cc_3,.Lxtalabel0
	.ascii	"C:/Users/user/workspace/module_vocalfusion/src/vf_control.xc"
	.byte	0
	.long	545
	.long	545
	.long	.Lxtalabel0
.cc_bottom cc_3
.cc_top cc_4,.Lxtalabel1
	.ascii	"C:/Users/user/workspace/module_vocalfusion/src/vf_control.xc"
	.byte	0
	.long	545
	.long	545
	.long	.Lxtalabel1
.cc_bottom cc_4
.cc_top cc_5,.Lxtalabel0
	.ascii	"C:/Users/user/workspace/module_vocalfusion/src/vf_control.xc"
	.byte	0
	.long	547
	.long	548
	.long	.Lxtalabel0
.cc_bottom cc_5
.cc_top cc_6,.Lxtalabel1
	.ascii	"C:/Users/user/workspace/module_vocalfusion/src/vf_control.xc"
	.byte	0
	.long	547
	.long	548
	.long	.Lxtalabel1
.cc_bottom cc_6
.cc_top cc_7,.Lxtalabel6
	.ascii	"C:/Users/user/workspace/module_vocalfusion/src/vf_control.xc"
	.byte	0
	.long	557
	.long	559
	.long	.Lxtalabel6
.cc_bottom cc_7
.cc_top cc_8,.Lxtalabel7
	.ascii	"C:/Users/user/workspace/module_vocalfusion/src/vf_control.xc"
	.byte	0
	.long	557
	.long	559
	.long	.Lxtalabel7
.cc_bottom cc_8
.cc_top cc_9,.Lxtalabel7
	.ascii	"C:/Users/user/workspace/module_vocalfusion/src/vf_control.xc"
	.byte	0
	.long	557
	.long	559
	.long	.Lxtalabel7
.cc_bottom cc_9
.cc_top cc_10,.Lxtalabel10
	.ascii	"C:/Users/user/workspace/module_vocalfusion/src/vf_control.xc"
	.byte	0
	.long	557
	.long	559
	.long	.Lxtalabel10
.cc_bottom cc_10
.cc_top cc_11,.Lxtalabel11
	.ascii	"C:/Users/user/workspace/module_vocalfusion/src/vf_control.xc"
	.byte	0
	.long	557
	.long	559
	.long	.Lxtalabel11
.cc_bottom cc_11
.cc_top cc_12,.Lxtalabel11
	.ascii	"C:/Users/user/workspace/module_vocalfusion/src/vf_control.xc"
	.byte	0
	.long	557
	.long	559
	.long	.Lxtalabel11
.cc_bottom cc_12
.cc_top cc_13,.Lxtalabel4
	.ascii	"C:/Users/user/workspace/module_vocalfusion/src/vf_control.xc"
	.byte	0
	.long	560
	.long	560
	.long	.Lxtalabel4
.cc_bottom cc_13
.cc_top cc_14,.Lxtalabel5
	.ascii	"C:/Users/user/workspace/module_vocalfusion/src/vf_control.xc"
	.byte	0
	.long	560
	.long	560
	.long	.Lxtalabel5
.cc_bottom cc_14
.cc_top cc_15,.Lxtalabel8
	.ascii	"C:/Users/user/workspace/module_vocalfusion/src/vf_control.xc"
	.byte	0
	.long	560
	.long	560
	.long	.Lxtalabel8
.cc_bottom cc_15
.cc_top cc_16,.Lxtalabel9
	.ascii	"C:/Users/user/workspace/module_vocalfusion/src/vf_control.xc"
	.byte	0
	.long	560
	.long	560
	.long	.Lxtalabel9
.cc_bottom cc_16
.cc_top cc_17,.Lxtalabel4
	.ascii	"C:/Users/user/workspace/module_vocalfusion/src/vf_control.xc"
	.byte	0
	.long	562
	.long	563
	.long	.Lxtalabel4
.cc_bottom cc_17
.cc_top cc_18,.Lxtalabel5
	.ascii	"C:/Users/user/workspace/module_vocalfusion/src/vf_control.xc"
	.byte	0
	.long	562
	.long	563
	.long	.Lxtalabel5
.cc_bottom cc_18
.cc_top cc_19,.Lxtalabel8
	.ascii	"C:/Users/user/workspace/module_vocalfusion/src/vf_control.xc"
	.byte	0
	.long	562
	.long	563
	.long	.Lxtalabel8
.cc_bottom cc_19
.cc_top cc_20,.Lxtalabel9
	.ascii	"C:/Users/user/workspace/module_vocalfusion/src/vf_control.xc"
	.byte	0
	.long	562
	.long	563
	.long	.Lxtalabel9
.cc_bottom cc_20
.Lentries_end1:
	.section	.trap_info,"",@progbits
.Ltrap_info_entries_start0:
	.long	.Ltrap_info_entries_end0-.Ltrap_info_entries_start0
	.long	1
.Ltrap_info_entries_end0: